ARM GAS  C:\Users\Computer\AppData\Local\Temp\ccY9ea9E.s 			page 1


   1              		.cpu cortex-m0
   2              		.fpu softvfp
   3              		.eabi_attribute 20, 1
   4              		.eabi_attribute 21, 1
   5              		.eabi_attribute 23, 3
   6              		.eabi_attribute 24, 1
   7              		.eabi_attribute 25, 1
   8              		.eabi_attribute 26, 1
   9              		.eabi_attribute 30, 2
  10              		.eabi_attribute 34, 0
  11              		.eabi_attribute 18, 4
  12              		.code	16
  13              		.file	"ADC.c"
  14              		.text
  15              	.Ltext0:
  16              		.cfi_sections	.debug_frame
  17              		.section	.text.ADC_Init,"ax",%progbits
  18              		.align	2
  19              		.global	ADC_Init
  20              		.code	16
  21              		.thumb_func
  22              		.type	ADC_Init, %function
  23              	ADC_Init:
  24              	.LFB1:
  25              		.file 1 ".\\Generated_Source\\PSoC4\\ADC.c"
   1:.\Generated_Source\PSoC4/ADC.c **** /*******************************************************************************
   2:.\Generated_Source\PSoC4/ADC.c **** * File Name: ADC.c
   3:.\Generated_Source\PSoC4/ADC.c **** * Version 1.10
   4:.\Generated_Source\PSoC4/ADC.c **** *
   5:.\Generated_Source\PSoC4/ADC.c **** * Description:
   6:.\Generated_Source\PSoC4/ADC.c **** *  This file provides the source code to the API for the Sequencing Successive
   7:.\Generated_Source\PSoC4/ADC.c **** *  Approximation ADC Component Component.
   8:.\Generated_Source\PSoC4/ADC.c **** *
   9:.\Generated_Source\PSoC4/ADC.c **** * Note:
  10:.\Generated_Source\PSoC4/ADC.c **** *
  11:.\Generated_Source\PSoC4/ADC.c **** ********************************************************************************
  12:.\Generated_Source\PSoC4/ADC.c **** * Copyright 2008-2013, Cypress Semiconductor Corporation.  All rights reserved.
  13:.\Generated_Source\PSoC4/ADC.c **** * You may use this file only in accordance with the license, terms, conditions,
  14:.\Generated_Source\PSoC4/ADC.c **** * disclaimers, and limitations in the end user license agreement accompanying
  15:.\Generated_Source\PSoC4/ADC.c **** * the software package with which this file was provided.
  16:.\Generated_Source\PSoC4/ADC.c **** *******************************************************************************/
  17:.\Generated_Source\PSoC4/ADC.c **** 
  18:.\Generated_Source\PSoC4/ADC.c **** #include "CyLib.h"
  19:.\Generated_Source\PSoC4/ADC.c **** #include "ADC.h"
  20:.\Generated_Source\PSoC4/ADC.c **** 
  21:.\Generated_Source\PSoC4/ADC.c **** 
  22:.\Generated_Source\PSoC4/ADC.c **** /***************************************
  23:.\Generated_Source\PSoC4/ADC.c **** * Global data allocation
  24:.\Generated_Source\PSoC4/ADC.c **** ***************************************/
  25:.\Generated_Source\PSoC4/ADC.c **** uint8 ADC_initVar = 0u;
  26:.\Generated_Source\PSoC4/ADC.c **** volatile int16 ADC_offset[ADC_TOTAL_CHANNELS_NUM];
  27:.\Generated_Source\PSoC4/ADC.c **** volatile int32 ADC_countsPer10Volt[ADC_TOTAL_CHANNELS_NUM];   /* Gain compensation */
  28:.\Generated_Source\PSoC4/ADC.c **** 
  29:.\Generated_Source\PSoC4/ADC.c **** 
  30:.\Generated_Source\PSoC4/ADC.c **** /***************************************
  31:.\Generated_Source\PSoC4/ADC.c **** * Local data allocation
  32:.\Generated_Source\PSoC4/ADC.c **** ***************************************/
ARM GAS  C:\Users\Computer\AppData\Local\Temp\ccY9ea9E.s 			page 2


  33:.\Generated_Source\PSoC4/ADC.c **** /* Channels configuration generated by customiser */
  34:.\Generated_Source\PSoC4/ADC.c **** static const uint32 CYCODE ADC_channelsConfig[] = { 0x00000400u, 0x00000400u, 0x00000400u, 0x000004
  35:.\Generated_Source\PSoC4/ADC.c ****  0x00000400u, 0x00000400u, 0x00000400u };
  36:.\Generated_Source\PSoC4/ADC.c **** 
  37:.\Generated_Source\PSoC4/ADC.c **** 
  38:.\Generated_Source\PSoC4/ADC.c **** /*******************************************************************************
  39:.\Generated_Source\PSoC4/ADC.c **** * Function Name: ADC_Start
  40:.\Generated_Source\PSoC4/ADC.c **** ********************************************************************************
  41:.\Generated_Source\PSoC4/ADC.c **** *
  42:.\Generated_Source\PSoC4/ADC.c **** * Summary:
  43:.\Generated_Source\PSoC4/ADC.c **** *  Performs all required initialization for this component
  44:.\Generated_Source\PSoC4/ADC.c **** *  and enables the power. The power will be set to the appropriate
  45:.\Generated_Source\PSoC4/ADC.c **** *  power based on the clock frequency.
  46:.\Generated_Source\PSoC4/ADC.c **** *
  47:.\Generated_Source\PSoC4/ADC.c **** * Parameters:
  48:.\Generated_Source\PSoC4/ADC.c **** *  None.
  49:.\Generated_Source\PSoC4/ADC.c **** *
  50:.\Generated_Source\PSoC4/ADC.c **** * Return:
  51:.\Generated_Source\PSoC4/ADC.c **** *  None.
  52:.\Generated_Source\PSoC4/ADC.c **** *
  53:.\Generated_Source\PSoC4/ADC.c **** * Global variables:
  54:.\Generated_Source\PSoC4/ADC.c **** *  The ADC_initVar variable is used to indicate when/if initial
  55:.\Generated_Source\PSoC4/ADC.c **** *  configuration of this component has happened. The variable is initialized to
  56:.\Generated_Source\PSoC4/ADC.c **** *  zero and set to 1 the first time ADC_Start() is called. This allows for
  57:.\Generated_Source\PSoC4/ADC.c **** *  component Re-Start without re-initialization in all subsequent calls to the
  58:.\Generated_Source\PSoC4/ADC.c **** *  ADC_Start() routine.
  59:.\Generated_Source\PSoC4/ADC.c **** *  If re-initialization of the component is required the variable should be set
  60:.\Generated_Source\PSoC4/ADC.c **** *  to zero before call of ADC_Start() routine, or the user may call
  61:.\Generated_Source\PSoC4/ADC.c **** *  ADC_Init() and ADC_Enable() as done in the
  62:.\Generated_Source\PSoC4/ADC.c **** *  ADC_Start() routine.
  63:.\Generated_Source\PSoC4/ADC.c **** *
  64:.\Generated_Source\PSoC4/ADC.c **** *******************************************************************************/
  65:.\Generated_Source\PSoC4/ADC.c **** void ADC_Start(void)
  66:.\Generated_Source\PSoC4/ADC.c **** {
  67:.\Generated_Source\PSoC4/ADC.c ****     /* If not Initialized then initialize all required hardware and software */
  68:.\Generated_Source\PSoC4/ADC.c ****     if(ADC_initVar == 0u)
  69:.\Generated_Source\PSoC4/ADC.c ****     {
  70:.\Generated_Source\PSoC4/ADC.c ****         ADC_Init();
  71:.\Generated_Source\PSoC4/ADC.c ****         ADC_initVar = 1u;
  72:.\Generated_Source\PSoC4/ADC.c ****     }
  73:.\Generated_Source\PSoC4/ADC.c ****     ADC_Enable();
  74:.\Generated_Source\PSoC4/ADC.c **** }
  75:.\Generated_Source\PSoC4/ADC.c **** 
  76:.\Generated_Source\PSoC4/ADC.c **** 
  77:.\Generated_Source\PSoC4/ADC.c **** /*******************************************************************************
  78:.\Generated_Source\PSoC4/ADC.c **** * Function Name: ADC_Init
  79:.\Generated_Source\PSoC4/ADC.c **** ********************************************************************************
  80:.\Generated_Source\PSoC4/ADC.c **** *
  81:.\Generated_Source\PSoC4/ADC.c **** * Summary:
  82:.\Generated_Source\PSoC4/ADC.c **** *  Initialize component's parameters to the parameters set by user in the
  83:.\Generated_Source\PSoC4/ADC.c **** *  customizer of the component placed onto schematic. Usually called in
  84:.\Generated_Source\PSoC4/ADC.c **** *  ADC_Start().
  85:.\Generated_Source\PSoC4/ADC.c **** *
  86:.\Generated_Source\PSoC4/ADC.c **** * Parameters:
  87:.\Generated_Source\PSoC4/ADC.c **** *  None.
  88:.\Generated_Source\PSoC4/ADC.c **** *
  89:.\Generated_Source\PSoC4/ADC.c **** * Return:
ARM GAS  C:\Users\Computer\AppData\Local\Temp\ccY9ea9E.s 			page 3


  90:.\Generated_Source\PSoC4/ADC.c **** *  None.
  91:.\Generated_Source\PSoC4/ADC.c **** *
  92:.\Generated_Source\PSoC4/ADC.c **** * Global variables:
  93:.\Generated_Source\PSoC4/ADC.c **** *  The ADC_offset variable is initialized.
  94:.\Generated_Source\PSoC4/ADC.c **** *
  95:.\Generated_Source\PSoC4/ADC.c **** *******************************************************************************/
  96:.\Generated_Source\PSoC4/ADC.c **** void ADC_Init(void)
  97:.\Generated_Source\PSoC4/ADC.c **** {
  26              		.loc 1 97 0
  27              		.cfi_startproc
  28 0000 38B5     		push	{r3, r4, r5, lr}
  29              	.LCFI0:
  30              		.cfi_def_cfa_offset 16
  31              		.cfi_offset 3, -16
  32              		.cfi_offset 4, -12
  33              		.cfi_offset 5, -8
  34              		.cfi_offset 14, -4
  98:.\Generated_Source\PSoC4/ADC.c ****     uint32 chNum;
  99:.\Generated_Source\PSoC4/ADC.c ****     uint32 tmpRegVal;
 100:.\Generated_Source\PSoC4/ADC.c ****     int32 counts;
 101:.\Generated_Source\PSoC4/ADC.c **** 
 102:.\Generated_Source\PSoC4/ADC.c ****     #if(ADC_TOTAL_CHANNELS_NUM > 1u)
 103:.\Generated_Source\PSoC4/ADC.c ****         static const uint8 CYCODE ADC_InputsPlacement[] =
 104:.\Generated_Source\PSoC4/ADC.c ****         {
 105:.\Generated_Source\PSoC4/ADC.c ****             (uint8)(ADC_cy_psoc4_sarmux_8__CH_0_PORT << 4u) |
 106:.\Generated_Source\PSoC4/ADC.c ****             (uint8)ADC_cy_psoc4_sarmux_8__CH_0_PIN
 107:.\Generated_Source\PSoC4/ADC.c ****             ,(uint8)(ADC_cy_psoc4_sarmux_8__CH_1_PORT << 4u) |
 108:.\Generated_Source\PSoC4/ADC.c ****              (uint8)ADC_cy_psoc4_sarmux_8__CH_1_PIN
 109:.\Generated_Source\PSoC4/ADC.c ****             #if(ADC_TOTAL_CHANNELS_NUM > 2u)
 110:.\Generated_Source\PSoC4/ADC.c ****                 ,(uint8)(ADC_cy_psoc4_sarmux_8__CH_2_PORT << 4u) |
 111:.\Generated_Source\PSoC4/ADC.c ****                  (uint8)ADC_cy_psoc4_sarmux_8__CH_2_PIN
 112:.\Generated_Source\PSoC4/ADC.c ****             #endif /* End ADC_TOTAL_CHANNELS_NUM > 2u */
 113:.\Generated_Source\PSoC4/ADC.c ****             #if(ADC_TOTAL_CHANNELS_NUM > 3u)
 114:.\Generated_Source\PSoC4/ADC.c ****                 ,(uint8)(ADC_cy_psoc4_sarmux_8__CH_3_PORT << 4u) |
 115:.\Generated_Source\PSoC4/ADC.c ****                  (uint8)ADC_cy_psoc4_sarmux_8__CH_3_PIN
 116:.\Generated_Source\PSoC4/ADC.c ****             #endif /* End ADC_TOTAL_CHANNELS_NUM > 3u */
 117:.\Generated_Source\PSoC4/ADC.c ****             #if(ADC_TOTAL_CHANNELS_NUM > 4u)
 118:.\Generated_Source\PSoC4/ADC.c ****                 ,(uint8)(ADC_cy_psoc4_sarmux_8__CH_4_PORT << 4u) |
 119:.\Generated_Source\PSoC4/ADC.c ****                  (uint8)ADC_cy_psoc4_sarmux_8__CH_4_PIN
 120:.\Generated_Source\PSoC4/ADC.c ****             #endif /* End ADC_TOTAL_CHANNELS_NUM > 4u */
 121:.\Generated_Source\PSoC4/ADC.c ****             #if(ADC_TOTAL_CHANNELS_NUM > 5u)
 122:.\Generated_Source\PSoC4/ADC.c ****                 ,(uint8)(ADC_cy_psoc4_sarmux_8__CH_5_PORT << 4u) |
 123:.\Generated_Source\PSoC4/ADC.c ****                  (uint8)ADC_cy_psoc4_sarmux_8__CH_5_PIN
 124:.\Generated_Source\PSoC4/ADC.c ****             #endif /* End ADC_TOTAL_CHANNELS_NUM > 5u */
 125:.\Generated_Source\PSoC4/ADC.c ****             #if(ADC_TOTAL_CHANNELS_NUM > 6u)
 126:.\Generated_Source\PSoC4/ADC.c ****                 ,(uint8)(ADC_cy_psoc4_sarmux_8__CH_6_PORT << 4u) |
 127:.\Generated_Source\PSoC4/ADC.c ****                  (uint8)ADC_cy_psoc4_sarmux_8__CH_6_PIN
 128:.\Generated_Source\PSoC4/ADC.c ****             #endif /* End ADC_TOTAL_CHANNELS_NUM > 6u */
 129:.\Generated_Source\PSoC4/ADC.c ****             #if(ADC_TOTAL_CHANNELS_NUM > 7u)
 130:.\Generated_Source\PSoC4/ADC.c ****                 ,(uint8)(ADC_cy_psoc4_sarmux_8__CH_7_PORT << 4u) |
 131:.\Generated_Source\PSoC4/ADC.c ****                  (uint8)ADC_cy_psoc4_sarmux_8__CH_7_PIN
 132:.\Generated_Source\PSoC4/ADC.c ****             #endif /* End ADC_TOTAL_CHANNELS_NUM > 7u */
 133:.\Generated_Source\PSoC4/ADC.c ****             #if(ADC_TOTAL_CHANNELS_NUM > 8u)
 134:.\Generated_Source\PSoC4/ADC.c ****                 ,(uint8)(ADC_cy_psoc4_sarmux_8__CH_8_PORT << 4u) |
 135:.\Generated_Source\PSoC4/ADC.c ****                  (uint8)ADC_cy_psoc4_sarmux_8__CH_8_PIN
 136:.\Generated_Source\PSoC4/ADC.c ****             #endif /* End ADC_TOTAL_CHANNELS_NUM > 8u */
 137:.\Generated_Source\PSoC4/ADC.c ****         };
ARM GAS  C:\Users\Computer\AppData\Local\Temp\ccY9ea9E.s 			page 4


 138:.\Generated_Source\PSoC4/ADC.c ****     #endif /* End ADC_TOTAL_CHANNELS_NUM > 1u */
 139:.\Generated_Source\PSoC4/ADC.c **** 
 140:.\Generated_Source\PSoC4/ADC.c ****     #if(ADC_IRQ_REMOVE == 0u)
 141:.\Generated_Source\PSoC4/ADC.c ****         /* Start and set interrupt vector */
 142:.\Generated_Source\PSoC4/ADC.c ****         CyIntSetPriority(ADC_INTC_NUMBER, ADC_INTC_PRIOR_NUMBER);
  35              		.loc 1 142 0
  36 0002 0E20     		mov	r0, #14
  37 0004 0021     		mov	r1, #0
  38 0006 FFF7FEFF 		bl	CyIntSetPriority
  39              	.LVL0:
 143:.\Generated_Source\PSoC4/ADC.c ****         (void)CyIntSetVector(ADC_INTC_NUMBER, &ADC_ISR);
  40              		.loc 1 143 0
  41 000a 3049     		ldr	r1, .L2
  42 000c 0E20     		mov	r0, #14
  43 000e FFF7FEFF 		bl	CyIntSetVector
  44              	.LVL1:
 144:.\Generated_Source\PSoC4/ADC.c ****     #endif   /* End ADC_IRQ_REMOVE */
 145:.\Generated_Source\PSoC4/ADC.c **** 
 146:.\Generated_Source\PSoC4/ADC.c ****     /* Init SAR and MUX registers */
 147:.\Generated_Source\PSoC4/ADC.c ****     ADC_SAR_CHAN_EN_REG = ADC_DEFAULT_EN_CHANNELS;
  45              		.loc 1 147 0
  46 0012 2F4B     		ldr	r3, .L2+4
  47 0014 FF22     		mov	r2, #255
 148:.\Generated_Source\PSoC4/ADC.c ****     ADC_SAR_CTRL_REG = ADC_DEFAULT_CTRL_REG_CFG;
  48              		.loc 1 148 0
  49 0016 2F48     		ldr	r0, .L2+8
  50 0018 2F49     		ldr	r1, .L2+12
 149:.\Generated_Source\PSoC4/ADC.c ****     ADC_SAR_SAMPLE_CTRL_REG = ADC_DEFAULT_SAMPLE_CTRL_REG_CFG;
  51              		.loc 1 149 0
  52 001a 304C     		ldr	r4, .L2+16
  53 001c 304D     		ldr	r5, .L2+20
 147:.\Generated_Source\PSoC4/ADC.c ****     ADC_SAR_CHAN_EN_REG = ADC_DEFAULT_EN_CHANNELS;
  54              		.loc 1 147 0
  55 001e 1A60     		str	r2, [r3]
 150:.\Generated_Source\PSoC4/ADC.c ****     ADC_SAR_RANGE_THRES_REG = ADC_DEFAULT_RANGE_THRES_REG_CFG;
  56              		.loc 1 150 0
  57 0020 304A     		ldr	r2, .L2+24
  58 0022 314B     		ldr	r3, .L2+28
 148:.\Generated_Source\PSoC4/ADC.c ****     ADC_SAR_CTRL_REG = ADC_DEFAULT_CTRL_REG_CFG;
  59              		.loc 1 148 0
  60 0024 0860     		str	r0, [r1]
 149:.\Generated_Source\PSoC4/ADC.c ****     ADC_SAR_SAMPLE_CTRL_REG = ADC_DEFAULT_SAMPLE_CTRL_REG_CFG;
  61              		.loc 1 149 0
  62 0026 2C60     		str	r4, [r5]
 151:.\Generated_Source\PSoC4/ADC.c ****     ADC_SAR_RANGE_COND_REG  = ADC_COMPARE_MODE;
  63              		.loc 1 151 0
  64 0028 3048     		ldr	r0, .L2+32
 152:.\Generated_Source\PSoC4/ADC.c ****     ADC_SAR_SAMPLE_TIME01_REG = ADC_DEFAULT_SAMPLE_TIME01_REG_CFG;
  65              		.loc 1 152 0
  66 002a 314C     		ldr	r4, .L2+36
  67 002c 3149     		ldr	r1, .L2+40
 153:.\Generated_Source\PSoC4/ADC.c ****     ADC_SAR_SAMPLE_TIME23_REG = ADC_DEFAULT_SAMPLE_TIME23_REG_CFG;
  68              		.loc 1 153 0
  69 002e 324D     		ldr	r5, .L2+44
 150:.\Generated_Source\PSoC4/ADC.c ****     ADC_SAR_RANGE_THRES_REG = ADC_DEFAULT_RANGE_THRES_REG_CFG;
  70              		.loc 1 150 0
  71 0030 1A60     		str	r2, [r3]
ARM GAS  C:\Users\Computer\AppData\Local\Temp\ccY9ea9E.s 			page 5


 151:.\Generated_Source\PSoC4/ADC.c ****     ADC_SAR_RANGE_COND_REG  = ADC_COMPARE_MODE;
  72              		.loc 1 151 0
  73 0032 0023     		mov	r3, #0
 154:.\Generated_Source\PSoC4/ADC.c ****     /* Connect Vm to VSSA when even one channel is single-ended or multiple channels configured */
 155:.\Generated_Source\PSoC4/ADC.c ****     #if(ADC_DEFAULT_MUX_SWITCH0 != 0u)
 156:.\Generated_Source\PSoC4/ADC.c ****         ADC_MUX_SWITCH0_REG |= ADC_DEFAULT_MUX_SWITCH0; 
  74              		.loc 1 156 0
  75 0034 314A     		ldr	r2, .L2+48
 151:.\Generated_Source\PSoC4/ADC.c ****     ADC_SAR_RANGE_COND_REG  = ADC_COMPARE_MODE;
  76              		.loc 1 151 0
  77 0036 0360     		str	r3, [r0]
 152:.\Generated_Source\PSoC4/ADC.c ****     ADC_SAR_SAMPLE_TIME01_REG = ADC_DEFAULT_SAMPLE_TIME01_REG_CFG;
  78              		.loc 1 152 0
  79 0038 0C60     		str	r4, [r1]
 153:.\Generated_Source\PSoC4/ADC.c ****     ADC_SAR_SAMPLE_TIME23_REG = ADC_DEFAULT_SAMPLE_TIME23_REG_CFG;
  80              		.loc 1 153 0
  81 003a 2C60     		str	r4, [r5]
  82              		.loc 1 156 0
  83 003c 1068     		ldr	r0, [r2]
  84 003e 8024     		mov	r4, #128
  85 0040 6102     		lsl	r1, r4, #9
  86 0042 0843     		orr	r0, r1
 157:.\Generated_Source\PSoC4/ADC.c ****         /* Set MUX_HW_CTRL_VSSA in MUX_SWITCH_HW_CTRL when multiple channels enabled */
 158:.\Generated_Source\PSoC4/ADC.c ****         #if(ADC_TOTAL_CHANNELS_NUM > 1u)
 159:.\Generated_Source\PSoC4/ADC.c ****             ADC_MUX_SWITCH_HW_CTRL_REG |= ADC_DEFAULT_MUX_SWITCH0; 
  87              		.loc 1 159 0
  88 0044 2E4D     		ldr	r5, .L2+52
 156:.\Generated_Source\PSoC4/ADC.c ****         ADC_MUX_SWITCH0_REG |= ADC_DEFAULT_MUX_SWITCH0; 
  89              		.loc 1 156 0
  90 0046 1060     		str	r0, [r2]
  91              		.loc 1 159 0
  92 0048 2A68     		ldr	r2, [r5]
 160:.\Generated_Source\PSoC4/ADC.c ****         #endif /* ADC_TOTAL_CHANNELS_NUM > 1u */
 161:.\Generated_Source\PSoC4/ADC.c ****     #endif /*ADC_CHANNELS_MODE !=0 */    
 162:.\Generated_Source\PSoC4/ADC.c **** 
 163:.\Generated_Source\PSoC4/ADC.c ****     ADC_SAR_SATURATE_INTR_MASK_REG = 0u;
  93              		.loc 1 163 0
  94 004a 2E48     		ldr	r0, .L2+56
 159:.\Generated_Source\PSoC4/ADC.c ****             ADC_MUX_SWITCH_HW_CTRL_REG |= ADC_DEFAULT_MUX_SWITCH0; 
  95              		.loc 1 159 0
  96 004c 1143     		orr	r1, r2
 164:.\Generated_Source\PSoC4/ADC.c ****     ADC_SAR_RANGE_INTR_MASK_REG = 0u;
  97              		.loc 1 164 0
  98 004e 2E4C     		ldr	r4, .L2+60
 159:.\Generated_Source\PSoC4/ADC.c ****             ADC_MUX_SWITCH_HW_CTRL_REG |= ADC_DEFAULT_MUX_SWITCH0; 
  99              		.loc 1 159 0
 100 0050 2960     		str	r1, [r5]
 165:.\Generated_Source\PSoC4/ADC.c ****     ADC_SAR_INTR_MASK_REG = ADC_SAR_INTR_MASK;
 166:.\Generated_Source\PSoC4/ADC.c ****     ADC_ANA_TRIM_REG = ADC_TRIM_COEF;
 101              		.loc 1 166 0
 102 0052 2E4A     		ldr	r2, .L2+64
 165:.\Generated_Source\PSoC4/ADC.c ****     ADC_SAR_INTR_MASK_REG = ADC_SAR_INTR_MASK;
 103              		.loc 1 165 0
 104 0054 2E4D     		ldr	r5, .L2+68
 163:.\Generated_Source\PSoC4/ADC.c ****     ADC_SAR_SATURATE_INTR_MASK_REG = 0u;
 105              		.loc 1 163 0
 106 0056 0360     		str	r3, [r0]
ARM GAS  C:\Users\Computer\AppData\Local\Temp\ccY9ea9E.s 			page 6


 165:.\Generated_Source\PSoC4/ADC.c ****     ADC_SAR_INTR_MASK_REG = ADC_SAR_INTR_MASK;
 107              		.loc 1 165 0
 108 0058 0121     		mov	r1, #1
 164:.\Generated_Source\PSoC4/ADC.c ****     ADC_SAR_RANGE_INTR_MASK_REG = 0u;
 109              		.loc 1 164 0
 110 005a 2360     		str	r3, [r4]
 111              		.loc 1 166 0
 112 005c 0220     		mov	r0, #2
 167:.\Generated_Source\PSoC4/ADC.c ****     
 168:.\Generated_Source\PSoC4/ADC.c ****     /* Read and modify default configuration based on characterization */
 169:.\Generated_Source\PSoC4/ADC.c ****     tmpRegVal = ADC_SAR_DFT_CTRL_REG;
 113              		.loc 1 169 0
 114 005e 2D4C     		ldr	r4, .L2+72
 165:.\Generated_Source\PSoC4/ADC.c ****     ADC_SAR_INTR_MASK_REG = ADC_SAR_INTR_MASK;
 115              		.loc 1 165 0
 116 0060 2960     		str	r1, [r5]
 166:.\Generated_Source\PSoC4/ADC.c ****     ADC_ANA_TRIM_REG = ADC_TRIM_COEF;
 117              		.loc 1 166 0
 118 0062 1060     		str	r0, [r2]
 119              		.loc 1 169 0
 120 0064 2568     		ldr	r5, [r4]
 121              	.LVL2:
 170:.\Generated_Source\PSoC4/ADC.c ****     #if(ADC_NOMINAL_CLOCK_FREQ > (ADC_MAX_FREQUENCY / 2))
 171:.\Generated_Source\PSoC4/ADC.c ****         tmpRegVal &= (uint32)~ADC_DCEN;
 122              		.loc 1 171 0
 123 0066 2C49     		ldr	r1, .L2+76
 172:.\Generated_Source\PSoC4/ADC.c ****         tmpRegVal |= ADC_SEL_CSEL_DFT_CHAR;
 124              		.loc 1 172 0
 125 0068 C020     		mov	r0, #192
 126 006a 8204     		lsl	r2, r0, #18
 171:.\Generated_Source\PSoC4/ADC.c ****         tmpRegVal &= (uint32)~ADC_DCEN;
 127              		.loc 1 171 0
 128 006c 2940     		and	r1, r5
 129              	.LVL3:
 130              		.loc 1 172 0
 131 006e 1143     		orr	r1, r2
 132              	.LVL4:
 173:.\Generated_Source\PSoC4/ADC.c ****     #else  /* clock speed < 9 Mhz */  
 174:.\Generated_Source\PSoC4/ADC.c ****         tmpRegVal |= ADC_DLY_INC;
 175:.\Generated_Source\PSoC4/ADC.c ****     #endif /* clock speed > 9 Mhz */
 176:.\Generated_Source\PSoC4/ADC.c ****     ADC_SAR_DFT_CTRL_REG = tmpRegVal;
 133              		.loc 1 176 0
 134 0070 2160     		str	r1, [r4]
 135              	.LVL5:
 177:.\Generated_Source\PSoC4/ADC.c ****     
 178:.\Generated_Source\PSoC4/ADC.c ****     #if(ADC_MAX_RESOLUTION != ADC_RESOLUTION_12)
 179:.\Generated_Source\PSoC4/ADC.c ****         ADC_WOUNDING_REG = ADC_ALT_WOUNDING;
 180:.\Generated_Source\PSoC4/ADC.c ****     #endif /* ADC_MAX_RESOLUTION != ADC_RESOLUTION_12 */
 181:.\Generated_Source\PSoC4/ADC.c **** 
 182:.\Generated_Source\PSoC4/ADC.c ****     for(chNum = 0u; chNum < ADC_TOTAL_CHANNELS_NUM; chNum++)
 183:.\Generated_Source\PSoC4/ADC.c ****     {
 184:.\Generated_Source\PSoC4/ADC.c ****         tmpRegVal = (ADC_channelsConfig[chNum] & ADC_CHANNEL_CONFIG_MASK);
 185:.\Generated_Source\PSoC4/ADC.c ****         #if(ADC_TOTAL_CHANNELS_NUM > 1u)
 186:.\Generated_Source\PSoC4/ADC.c ****             tmpRegVal |= ADC_InputsPlacement[chNum];
 187:.\Generated_Source\PSoC4/ADC.c ****         #endif /* End ADC_TOTAL_CHANNELS_NUM > 1u */
 188:.\Generated_Source\PSoC4/ADC.c ****         /* When the part is wounded to 10-bit then the SUB_RESOLUTION bit 
 189:.\Generated_Source\PSoC4/ADC.c ****         *  will be ignored and the RESOLUTION bit selects between 10-bit 
ARM GAS  C:\Users\Computer\AppData\Local\Temp\ccY9ea9E.s 			page 7


 190:.\Generated_Source\PSoC4/ADC.c ****         *  (0) and 8-bit (1) resolution.
 191:.\Generated_Source\PSoC4/ADC.c ****         */
 192:.\Generated_Source\PSoC4/ADC.c ****         #if((ADC_MAX_RESOLUTION != ADC_RESOLUTION_12) && \
 193:.\Generated_Source\PSoC4/ADC.c ****             (ADC_ALT_WOUNDING == ADC_WOUNDING_10BIT))
 194:.\Generated_Source\PSoC4/ADC.c ****             tmpRegVal &= (uint32)(~ADC_ALT_RESOLUTION_ON);
 195:.\Generated_Source\PSoC4/ADC.c ****         #endif /* ADC_MAX_RESOLUTION != ADC_RESOLUTION_12 */
 196:.\Generated_Source\PSoC4/ADC.c **** 
 197:.\Generated_Source\PSoC4/ADC.c ****         #if(ADC_INJ_CHANNEL_ENABLED)
 198:.\Generated_Source\PSoC4/ADC.c ****         if(chNum < ADC_SEQUENCED_CHANNELS_NUM)
 199:.\Generated_Source\PSoC4/ADC.c ****         #endif /* ADC_INJ_CHANNEL_ENABLED */
 200:.\Generated_Source\PSoC4/ADC.c ****         {
 201:.\Generated_Source\PSoC4/ADC.c ****             CY_SET_REG32((reg32 *)(ADC_SAR_CHAN_CONFIG_IND + (uint32)(chNum << 2)), tmpRegVal);
 136              		.loc 1 201 0
 137 0072 8024     		mov	r4, #128
 138 0074 2949     		ldr	r1, .L2+80
 139 0076 E500     		lsl	r5, r4, #3
 140 0078 0D60     		str	r5, [r1]
 141              	.LVL6:
 202:.\Generated_Source\PSoC4/ADC.c **** 
 203:.\Generated_Source\PSoC4/ADC.c ****             if((ADC_channelsConfig[chNum] & ADC_IS_SATURATE_EN_MASK) != 0u)
 204:.\Generated_Source\PSoC4/ADC.c ****             {
 205:.\Generated_Source\PSoC4/ADC.c ****                 ADC_SAR_SATURATE_INTR_MASK_REG |= (uint16)((uint16)1 << chNum);
 206:.\Generated_Source\PSoC4/ADC.c ****             }
 207:.\Generated_Source\PSoC4/ADC.c **** 
 208:.\Generated_Source\PSoC4/ADC.c ****             if((ADC_channelsConfig[chNum] & ADC_IS_RANGE_CTRL_EN_MASK) != 0u)
 209:.\Generated_Source\PSoC4/ADC.c ****             {
 210:.\Generated_Source\PSoC4/ADC.c ****                 ADC_SAR_RANGE_INTR_MASK_REG |= (uint16)((uint16)1 << chNum);
 211:.\Generated_Source\PSoC4/ADC.c ****             }
 212:.\Generated_Source\PSoC4/ADC.c ****         }
 213:.\Generated_Source\PSoC4/ADC.c ****         #if(ADC_INJ_CHANNEL_ENABLED)
 214:.\Generated_Source\PSoC4/ADC.c ****             else
 215:.\Generated_Source\PSoC4/ADC.c ****             {
 216:.\Generated_Source\PSoC4/ADC.c ****                 CY_SET_REG32(ADC_SAR_INJ_CHAN_CONFIG_PTR, tmpRegVal | ADC_INJ_TAILGATING);
 217:.\Generated_Source\PSoC4/ADC.c **** 
 218:.\Generated_Source\PSoC4/ADC.c ****                 if((ADC_channelsConfig[chNum] & ADC_IS_SATURATE_EN_MASK) != 0u)
 219:.\Generated_Source\PSoC4/ADC.c ****                 {
 220:.\Generated_Source\PSoC4/ADC.c ****                     ADC_SAR_INTR_MASK_REG |= ADC_INJ_SATURATE_MASK;
 221:.\Generated_Source\PSoC4/ADC.c ****                 }
 222:.\Generated_Source\PSoC4/ADC.c **** 
 223:.\Generated_Source\PSoC4/ADC.c ****                 if((ADC_channelsConfig[chNum] & ADC_IS_RANGE_CTRL_EN_MASK) != 0u)
 224:.\Generated_Source\PSoC4/ADC.c ****                 {
 225:.\Generated_Source\PSoC4/ADC.c ****                     ADC_SAR_INTR_MASK_REG |= ADC_INJ_RANGE_MASK;
 226:.\Generated_Source\PSoC4/ADC.c ****                 }
 227:.\Generated_Source\PSoC4/ADC.c ****             }
 228:.\Generated_Source\PSoC4/ADC.c ****         #endif /* ADC_INJ_CHANNEL_ENABLED */
 229:.\Generated_Source\PSoC4/ADC.c **** 
 230:.\Generated_Source\PSoC4/ADC.c ****         if((ADC_channelsConfig[chNum] & ADC_ALT_RESOLUTION_ON) != 0u)
 231:.\Generated_Source\PSoC4/ADC.c ****         {
 232:.\Generated_Source\PSoC4/ADC.c ****                counts = (int32)ADC_DEFAULT_MAX_WRK_ALT;
 233:.\Generated_Source\PSoC4/ADC.c ****         }
 234:.\Generated_Source\PSoC4/ADC.c ****         else
 235:.\Generated_Source\PSoC4/ADC.c ****         {
 236:.\Generated_Source\PSoC4/ADC.c ****                counts = (int32)ADC_SAR_WRK_MAX_12BIT;
 237:.\Generated_Source\PSoC4/ADC.c ****         }
 238:.\Generated_Source\PSoC4/ADC.c **** 
 239:.\Generated_Source\PSoC4/ADC.c ****         if((ADC_channelsConfig[chNum] & ADC_DIFFERENTIAL_EN) == 0u)
 240:.\Generated_Source\PSoC4/ADC.c ****         {  
ARM GAS  C:\Users\Computer\AppData\Local\Temp\ccY9ea9E.s 			page 8


 241:.\Generated_Source\PSoC4/ADC.c ****             #if((ADC_DEFAULT_SE_RESULT_FORMAT_SEL == ADC__FSIGNED) && \
 242:.\Generated_Source\PSoC4/ADC.c ****                 (ADC_DEFAULT_NEG_INPUT_SEL == ADC__VREF))
 243:.\Generated_Source\PSoC4/ADC.c ****                 /* Set offset to the minus half scale to convert results to unsigned format */
 244:.\Generated_Source\PSoC4/ADC.c ****                 ADC_offset[chNum] = (int16)(counts / -2);
 245:.\Generated_Source\PSoC4/ADC.c ****             #else    
 246:.\Generated_Source\PSoC4/ADC.c ****                 ADC_offset[chNum] = 0;
 142              		.loc 1 246 0
 143 007a 2948     		ldr	r0, .L2+84
 247:.\Generated_Source\PSoC4/ADC.c ****             #endif /* end DEFAULT_SE_RESULT_FORMAT_SEL == ADC__FSIGNED */    
 248:.\Generated_Source\PSoC4/ADC.c ****         }
 249:.\Generated_Source\PSoC4/ADC.c ****         else    /* Differential channel */
 250:.\Generated_Source\PSoC4/ADC.c ****         {
 251:.\Generated_Source\PSoC4/ADC.c ****             #if(ADC_DEFAULT_DIFF_RESULT_FORMAT_SEL == ADC__FUNSIGNED)
 252:.\Generated_Source\PSoC4/ADC.c ****                 /* Set offset to the half scale to convert results to signed format */
 253:.\Generated_Source\PSoC4/ADC.c ****                 ADC_offset[chNum] = (int16)(counts / 2);
 254:.\Generated_Source\PSoC4/ADC.c ****             #else    
 255:.\Generated_Source\PSoC4/ADC.c ****                 ADC_offset[chNum] = 0;
 256:.\Generated_Source\PSoC4/ADC.c ****             #endif /* end ADC_DEFAULT_DIFF_RESULT_FORMAT_SEL == ADC__FUNSIGNED */    
 257:.\Generated_Source\PSoC4/ADC.c ****         }
 258:.\Generated_Source\PSoC4/ADC.c ****         /* Calculate gain in counts per 10 volts with rounding */
 259:.\Generated_Source\PSoC4/ADC.c ****         ADC_countsPer10Volt[chNum] = (int16)(((counts * ADC_10MV_COUNTS) + 
 144              		.loc 1 259 0
 145 007c 294A     		ldr	r2, .L2+88
 146 007e 2A49     		ldr	r1, .L2+92
 201:.\Generated_Source\PSoC4/ADC.c ****             CY_SET_REG32((reg32 *)(ADC_SAR_CHAN_CONFIG_IND + (uint32)(chNum << 2)), tmpRegVal);
 147              		.loc 1 201 0
 148 0080 2A4D     		ldr	r5, .L2+96
 149 0082 2B4C     		ldr	r4, .L2+100
 246:.\Generated_Source\PSoC4/ADC.c ****                 ADC_offset[chNum] = 0;
 150              		.loc 1 246 0
 151 0084 0380     		strh	r3, [r0]
 152              		.loc 1 259 0
 153 0086 1160     		str	r1, [r2]
 154              	.LVL7:
 201:.\Generated_Source\PSoC4/ADC.c ****             CY_SET_REG32((reg32 *)(ADC_SAR_CHAN_CONFIG_IND + (uint32)(chNum << 2)), tmpRegVal);
 155              		.loc 1 201 0
 156 0088 2560     		str	r5, [r4]
 157 008a 2A4D     		ldr	r5, .L2+104
 158 008c 2A4C     		ldr	r4, .L2+108
 246:.\Generated_Source\PSoC4/ADC.c ****                 ADC_offset[chNum] = 0;
 159              		.loc 1 246 0
 160 008e 4380     		strh	r3, [r0, #2]
 161              		.loc 1 259 0
 162 0090 5160     		str	r1, [r2, #4]
 163              	.LVL8:
 201:.\Generated_Source\PSoC4/ADC.c ****             CY_SET_REG32((reg32 *)(ADC_SAR_CHAN_CONFIG_IND + (uint32)(chNum << 2)), tmpRegVal);
 164              		.loc 1 201 0
 165 0092 2560     		str	r5, [r4]
 166 0094 294D     		ldr	r5, .L2+112
 167 0096 2A4C     		ldr	r4, .L2+116
 246:.\Generated_Source\PSoC4/ADC.c ****                 ADC_offset[chNum] = 0;
 168              		.loc 1 246 0
 169 0098 8380     		strh	r3, [r0, #4]
 170              		.loc 1 259 0
 171 009a 9160     		str	r1, [r2, #8]
 172              	.LVL9:
 201:.\Generated_Source\PSoC4/ADC.c ****             CY_SET_REG32((reg32 *)(ADC_SAR_CHAN_CONFIG_IND + (uint32)(chNum << 2)), tmpRegVal);
ARM GAS  C:\Users\Computer\AppData\Local\Temp\ccY9ea9E.s 			page 9


 173              		.loc 1 201 0
 174 009c 2560     		str	r5, [r4]
 175 009e 294D     		ldr	r5, .L2+120
 176 00a0 294C     		ldr	r4, .L2+124
 246:.\Generated_Source\PSoC4/ADC.c ****                 ADC_offset[chNum] = 0;
 177              		.loc 1 246 0
 178 00a2 C380     		strh	r3, [r0, #6]
 179              		.loc 1 259 0
 180 00a4 D160     		str	r1, [r2, #12]
 181              	.LVL10:
 201:.\Generated_Source\PSoC4/ADC.c ****             CY_SET_REG32((reg32 *)(ADC_SAR_CHAN_CONFIG_IND + (uint32)(chNum << 2)), tmpRegVal);
 182              		.loc 1 201 0
 183 00a6 2560     		str	r5, [r4]
 184 00a8 284D     		ldr	r5, .L2+128
 185 00aa 294C     		ldr	r4, .L2+132
 246:.\Generated_Source\PSoC4/ADC.c ****                 ADC_offset[chNum] = 0;
 186              		.loc 1 246 0
 187 00ac 0381     		strh	r3, [r0, #8]
 188              		.loc 1 259 0
 189 00ae 1161     		str	r1, [r2, #16]
 190              	.LVL11:
 201:.\Generated_Source\PSoC4/ADC.c ****             CY_SET_REG32((reg32 *)(ADC_SAR_CHAN_CONFIG_IND + (uint32)(chNum << 2)), tmpRegVal);
 191              		.loc 1 201 0
 192 00b0 2560     		str	r5, [r4]
 193 00b2 284D     		ldr	r5, .L2+136
 194 00b4 284C     		ldr	r4, .L2+140
 246:.\Generated_Source\PSoC4/ADC.c ****                 ADC_offset[chNum] = 0;
 195              		.loc 1 246 0
 196 00b6 4381     		strh	r3, [r0, #10]
 197              		.loc 1 259 0
 198 00b8 5161     		str	r1, [r2, #20]
 199              	.LVL12:
 201:.\Generated_Source\PSoC4/ADC.c ****             CY_SET_REG32((reg32 *)(ADC_SAR_CHAN_CONFIG_IND + (uint32)(chNum << 2)), tmpRegVal);
 200              		.loc 1 201 0
 201 00ba 2560     		str	r5, [r4]
 202 00bc 274D     		ldr	r5, .L2+144
 203 00be 284C     		ldr	r4, .L2+148
 246:.\Generated_Source\PSoC4/ADC.c ****                 ADC_offset[chNum] = 0;
 204              		.loc 1 246 0
 205 00c0 8381     		strh	r3, [r0, #12]
 260:.\Generated_Source\PSoC4/ADC.c ****                             ADC_DEFAULT_VREF_MV_VALUE) / (ADC_DEFAULT_VREF_MV_VALUE * 2));
 261:.\Generated_Source\PSoC4/ADC.c ****     }
 262:.\Generated_Source\PSoC4/ADC.c **** }
 206              		.loc 1 262 0
 207              		@ sp needed for prologue
 259:.\Generated_Source\PSoC4/ADC.c ****         ADC_countsPer10Volt[chNum] = (int16)(((counts * ADC_10MV_COUNTS) + 
 208              		.loc 1 259 0
 209 00c2 9161     		str	r1, [r2, #24]
 210              	.LVL13:
 201:.\Generated_Source\PSoC4/ADC.c ****             CY_SET_REG32((reg32 *)(ADC_SAR_CHAN_CONFIG_IND + (uint32)(chNum << 2)), tmpRegVal);
 211              		.loc 1 201 0
 212 00c4 2560     		str	r5, [r4]
 246:.\Generated_Source\PSoC4/ADC.c ****                 ADC_offset[chNum] = 0;
 213              		.loc 1 246 0
 214 00c6 C381     		strh	r3, [r0, #14]
 259:.\Generated_Source\PSoC4/ADC.c ****         ADC_countsPer10Volt[chNum] = (int16)(((counts * ADC_10MV_COUNTS) + 
 215              		.loc 1 259 0
ARM GAS  C:\Users\Computer\AppData\Local\Temp\ccY9ea9E.s 			page 10


 216 00c8 D161     		str	r1, [r2, #28]
 217              	.LVL14:
 218              		.loc 1 262 0
 219 00ca 38BD     		pop	{r3, r4, r5, pc}
 220              	.L3:
 221              		.align	2
 222              	.L2:
 223 00cc 00000000 		.word	ADC_ISR
 224 00d0 20001A40 		.word	1075445792
 225 00d4 70200010 		.word	268443760
 226 00d8 00001A40 		.word	1075445760
 227 00dc F4000080 		.word	-2147483404
 228 00e0 04001A40 		.word	1075445764
 229 00e4 0000FF0F 		.word	268369920
 230 00e8 18001A40 		.word	1075445784
 231 00ec 1C001A40 		.word	1075445788
 232 00f0 04000400 		.word	262148
 233 00f4 10001A40 		.word	1075445776
 234 00f8 14001A40 		.word	1075445780
 235 00fc 00031A40 		.word	1075446528
 236 0100 40031A40 		.word	1075446592
 237 0104 28021A40 		.word	1075446312
 238 0108 38021A40 		.word	1075446328
 239 010c 000F1A40 		.word	1075449600
 240 0110 18021A40 		.word	1075446296
 241 0114 30001A40 		.word	1075445808
 242 0118 FFFFFFDF 		.word	-536870913
 243 011c 80001A40 		.word	1075445888
 244 0120 00000000 		.word	ADC_offset
 245 0124 00000000 		.word	ADC_countsPer10Volt
 246 0128 3E180000 		.word	6206
 247 012c 01040000 		.word	1025
 248 0130 84001A40 		.word	1075445892
 249 0134 02040000 		.word	1026
 250 0138 88001A40 		.word	1075445896
 251 013c 03040000 		.word	1027
 252 0140 8C001A40 		.word	1075445900
 253 0144 04040000 		.word	1028
 254 0148 90001A40 		.word	1075445904
 255 014c 05040000 		.word	1029
 256 0150 94001A40 		.word	1075445908
 257 0154 06040000 		.word	1030
 258 0158 98001A40 		.word	1075445912
 259 015c 07040000 		.word	1031
 260 0160 9C001A40 		.word	1075445916
 261              		.cfi_endproc
 262              	.LFE1:
 263              		.size	ADC_Init, .-ADC_Init
 264              		.section	.text.ADC_Enable,"ax",%progbits
 265              		.align	2
 266              		.global	ADC_Enable
 267              		.code	16
 268              		.thumb_func
 269              		.type	ADC_Enable, %function
 270              	ADC_Enable:
 271              	.LFB2:
 263:.\Generated_Source\PSoC4/ADC.c **** 
ARM GAS  C:\Users\Computer\AppData\Local\Temp\ccY9ea9E.s 			page 11


 264:.\Generated_Source\PSoC4/ADC.c **** /*******************************************************************************
 265:.\Generated_Source\PSoC4/ADC.c **** * Function Name: ADC_SAR_1_Enable
 266:.\Generated_Source\PSoC4/ADC.c **** ********************************************************************************
 267:.\Generated_Source\PSoC4/ADC.c **** *
 268:.\Generated_Source\PSoC4/ADC.c **** * Summary:
 269:.\Generated_Source\PSoC4/ADC.c **** *  Enables the clock and analog power for SAR ADC.
 270:.\Generated_Source\PSoC4/ADC.c **** *
 271:.\Generated_Source\PSoC4/ADC.c **** * Parameters:
 272:.\Generated_Source\PSoC4/ADC.c **** *  None.
 273:.\Generated_Source\PSoC4/ADC.c **** *
 274:.\Generated_Source\PSoC4/ADC.c **** * Return:
 275:.\Generated_Source\PSoC4/ADC.c **** *  None.
 276:.\Generated_Source\PSoC4/ADC.c **** *
 277:.\Generated_Source\PSoC4/ADC.c **** *******************************************************************************/
 278:.\Generated_Source\PSoC4/ADC.c **** void ADC_Enable(void)
 279:.\Generated_Source\PSoC4/ADC.c **** {
 272              		.loc 1 279 0
 273              		.cfi_startproc
 274 0000 08B5     		push	{r3, lr}
 275              	.LCFI1:
 276              		.cfi_def_cfa_offset 8
 277              		.cfi_offset 3, -8
 278              		.cfi_offset 14, -4
 280:.\Generated_Source\PSoC4/ADC.c ****     ADC_SAR_CTRL_REG |= ADC_ENABLE;
 279              		.loc 1 280 0
 280 0002 054B     		ldr	r3, .L5
 281 0004 8022     		mov	r2, #128
 282 0006 1968     		ldr	r1, [r3]
 283 0008 1006     		lsl	r0, r2, #24
 284 000a 0843     		orr	r0, r1
 285 000c 1860     		str	r0, [r3]
 281:.\Generated_Source\PSoC4/ADC.c ****     /* The block is ready to use 10 us after the enable signal is set high. */
 282:.\Generated_Source\PSoC4/ADC.c ****     CyDelayUs(ADC_10US_DELAY);
 286              		.loc 1 282 0
 287 000e 0A20     		mov	r0, #10
 288 0010 FFF7FEFF 		bl	CyDelayUs
 289              	.LVL15:
 283:.\Generated_Source\PSoC4/ADC.c **** }
 290              		.loc 1 283 0
 291              		@ sp needed for prologue
 292 0014 08BD     		pop	{r3, pc}
 293              	.L6:
 294 0016 C046     		.align	2
 295              	.L5:
 296 0018 00001A40 		.word	1075445760
 297              		.cfi_endproc
 298              	.LFE2:
 299              		.size	ADC_Enable, .-ADC_Enable
 300              		.section	.text.ADC_Start,"ax",%progbits
 301              		.align	2
 302              		.global	ADC_Start
 303              		.code	16
 304              		.thumb_func
 305              		.type	ADC_Start, %function
 306              	ADC_Start:
 307              	.LFB0:
  66:.\Generated_Source\PSoC4/ADC.c **** {
ARM GAS  C:\Users\Computer\AppData\Local\Temp\ccY9ea9E.s 			page 12


 308              		.loc 1 66 0
 309              		.cfi_startproc
 310 0000 10B5     		push	{r4, lr}
 311              	.LCFI2:
 312              		.cfi_def_cfa_offset 8
 313              		.cfi_offset 4, -8
 314              		.cfi_offset 14, -4
  68:.\Generated_Source\PSoC4/ADC.c ****     if(ADC_initVar == 0u)
 315              		.loc 1 68 0
 316 0002 054C     		ldr	r4, .L10
 317 0004 2378     		ldrb	r3, [r4]
 318 0006 002B     		cmp	r3, #0
 319 0008 03D1     		bne	.L8
  70:.\Generated_Source\PSoC4/ADC.c ****         ADC_Init();
 320              		.loc 1 70 0
 321 000a FFF7FEFF 		bl	ADC_Init
 322              	.LVL16:
  71:.\Generated_Source\PSoC4/ADC.c ****         ADC_initVar = 1u;
 323              		.loc 1 71 0
 324 000e 0120     		mov	r0, #1
 325 0010 2070     		strb	r0, [r4]
 326              	.L8:
  73:.\Generated_Source\PSoC4/ADC.c ****     ADC_Enable();
 327              		.loc 1 73 0
 328 0012 FFF7FEFF 		bl	ADC_Enable
 329              	.LVL17:
  74:.\Generated_Source\PSoC4/ADC.c **** }
 330              		.loc 1 74 0
 331              		@ sp needed for prologue
 332 0016 10BD     		pop	{r4, pc}
 333              	.L11:
 334              		.align	2
 335              	.L10:
 336 0018 00000000 		.word	.LANCHOR0
 337              		.cfi_endproc
 338              	.LFE0:
 339              		.size	ADC_Start, .-ADC_Start
 340              		.section	.text.ADC_Stop,"ax",%progbits
 341              		.align	2
 342              		.global	ADC_Stop
 343              		.code	16
 344              		.thumb_func
 345              		.type	ADC_Stop, %function
 346              	ADC_Stop:
 347              	.LFB3:
 284:.\Generated_Source\PSoC4/ADC.c **** 
 285:.\Generated_Source\PSoC4/ADC.c **** 
 286:.\Generated_Source\PSoC4/ADC.c **** /*******************************************************************************
 287:.\Generated_Source\PSoC4/ADC.c **** * Function Name: ADC_Stop
 288:.\Generated_Source\PSoC4/ADC.c **** ********************************************************************************
 289:.\Generated_Source\PSoC4/ADC.c **** *
 290:.\Generated_Source\PSoC4/ADC.c **** * Summary:
 291:.\Generated_Source\PSoC4/ADC.c **** *  This function stops ADC conversions and puts the ADC into its lowest power
 292:.\Generated_Source\PSoC4/ADC.c **** *  mode.
 293:.\Generated_Source\PSoC4/ADC.c **** *
 294:.\Generated_Source\PSoC4/ADC.c **** * Parameters:
 295:.\Generated_Source\PSoC4/ADC.c **** *  None.
ARM GAS  C:\Users\Computer\AppData\Local\Temp\ccY9ea9E.s 			page 13


 296:.\Generated_Source\PSoC4/ADC.c **** *
 297:.\Generated_Source\PSoC4/ADC.c **** * Return:
 298:.\Generated_Source\PSoC4/ADC.c **** *  None.
 299:.\Generated_Source\PSoC4/ADC.c **** *
 300:.\Generated_Source\PSoC4/ADC.c **** *******************************************************************************/
 301:.\Generated_Source\PSoC4/ADC.c **** void ADC_Stop(void)
 302:.\Generated_Source\PSoC4/ADC.c **** {
 348              		.loc 1 302 0
 349              		.cfi_startproc
 303:.\Generated_Source\PSoC4/ADC.c ****     ADC_SAR_CTRL_REG &= (uint32)~ADC_ENABLE;
 350              		.loc 1 303 0
 351 0000 024B     		ldr	r3, .L13
 304:.\Generated_Source\PSoC4/ADC.c **** }
 352              		.loc 1 304 0
 353              		@ sp needed for prologue
 303:.\Generated_Source\PSoC4/ADC.c ****     ADC_SAR_CTRL_REG &= (uint32)~ADC_ENABLE;
 354              		.loc 1 303 0
 355 0002 1A68     		ldr	r2, [r3]
 356 0004 5000     		lsl	r0, r2, #1
 357 0006 4108     		lsr	r1, r0, #1
 358 0008 1960     		str	r1, [r3]
 359              		.loc 1 304 0
 360 000a 7047     		bx	lr
 361              	.L14:
 362              		.align	2
 363              	.L13:
 364 000c 00001A40 		.word	1075445760
 365              		.cfi_endproc
 366              	.LFE3:
 367              		.size	ADC_Stop, .-ADC_Stop
 368              		.section	.text.ADC_StartConvert,"ax",%progbits
 369              		.align	2
 370              		.global	ADC_StartConvert
 371              		.code	16
 372              		.thumb_func
 373              		.type	ADC_StartConvert, %function
 374              	ADC_StartConvert:
 375              	.LFB4:
 305:.\Generated_Source\PSoC4/ADC.c **** 
 306:.\Generated_Source\PSoC4/ADC.c **** 
 307:.\Generated_Source\PSoC4/ADC.c **** /*******************************************************************************
 308:.\Generated_Source\PSoC4/ADC.c **** * Function Name: ADC_StartConvert
 309:.\Generated_Source\PSoC4/ADC.c **** ********************************************************************************
 310:.\Generated_Source\PSoC4/ADC.c **** *
 311:.\Generated_Source\PSoC4/ADC.c **** * Summary:
 312:.\Generated_Source\PSoC4/ADC.c **** *  Description:
 313:.\Generated_Source\PSoC4/ADC.c **** *  For free running mode, this API starts the conversion process and it
 314:.\Generated_Source\PSoC4/ADC.c **** *  runs continuously.
 315:.\Generated_Source\PSoC4/ADC.c **** *
 316:.\Generated_Source\PSoC4/ADC.c **** *  In a triggered mode, this routine triggers every conversion by
 317:.\Generated_Source\PSoC4/ADC.c **** *  writing into the FW_TRIGGER bit in SAR_START_CTRL reg. In triggered mode,
 318:.\Generated_Source\PSoC4/ADC.c **** *  every conversion has to start by this API.
 319:.\Generated_Source\PSoC4/ADC.c **** *
 320:.\Generated_Source\PSoC4/ADC.c **** * Parameters:
 321:.\Generated_Source\PSoC4/ADC.c **** *  None.
 322:.\Generated_Source\PSoC4/ADC.c **** *
 323:.\Generated_Source\PSoC4/ADC.c **** * Return:
ARM GAS  C:\Users\Computer\AppData\Local\Temp\ccY9ea9E.s 			page 14


 324:.\Generated_Source\PSoC4/ADC.c **** *  None.
 325:.\Generated_Source\PSoC4/ADC.c **** *
 326:.\Generated_Source\PSoC4/ADC.c **** *******************************************************************************/
 327:.\Generated_Source\PSoC4/ADC.c **** void ADC_StartConvert(void)
 328:.\Generated_Source\PSoC4/ADC.c **** {
 376              		.loc 1 328 0
 377              		.cfi_startproc
 329:.\Generated_Source\PSoC4/ADC.c ****     #if(ADC_DEFAULT_SAMPLE_MODE_SEL == ADC__FREERUNNING)
 330:.\Generated_Source\PSoC4/ADC.c ****         ADC_SAR_SAMPLE_CTRL_REG |= ADC_CONTINUOUS_EN;
 378              		.loc 1 330 0
 379 0000 034B     		ldr	r3, .L16
 380 0002 8022     		mov	r2, #128
 381 0004 1968     		ldr	r1, [r3]
 382 0006 5002     		lsl	r0, r2, #9
 383 0008 0843     		orr	r0, r1
 384 000a 1860     		str	r0, [r3]
 331:.\Generated_Source\PSoC4/ADC.c ****     #else /* Firmware trigger */
 332:.\Generated_Source\PSoC4/ADC.c ****         ADC_SAR_START_CTRL_REG = ADC_FW_TRIGGER;
 333:.\Generated_Source\PSoC4/ADC.c ****     #endif /* End ADC_DEFAULT_SAMPLE_MODE == ADC__FREERUNNING */
 334:.\Generated_Source\PSoC4/ADC.c **** 
 335:.\Generated_Source\PSoC4/ADC.c **** }
 385              		.loc 1 335 0
 386              		@ sp needed for prologue
 387 000c 7047     		bx	lr
 388              	.L17:
 389 000e C046     		.align	2
 390              	.L16:
 391 0010 04001A40 		.word	1075445764
 392              		.cfi_endproc
 393              	.LFE4:
 394              		.size	ADC_StartConvert, .-ADC_StartConvert
 395              		.section	.text.ADC_StopConvert,"ax",%progbits
 396              		.align	2
 397              		.global	ADC_StopConvert
 398              		.code	16
 399              		.thumb_func
 400              		.type	ADC_StopConvert, %function
 401              	ADC_StopConvert:
 402              	.LFB5:
 336:.\Generated_Source\PSoC4/ADC.c **** 
 337:.\Generated_Source\PSoC4/ADC.c **** 
 338:.\Generated_Source\PSoC4/ADC.c **** /*******************************************************************************
 339:.\Generated_Source\PSoC4/ADC.c **** * Function Name: ADC_StopConvert
 340:.\Generated_Source\PSoC4/ADC.c **** ********************************************************************************
 341:.\Generated_Source\PSoC4/ADC.c **** *
 342:.\Generated_Source\PSoC4/ADC.c **** * Summary:
 343:.\Generated_Source\PSoC4/ADC.c **** *  Forces the ADC to stop all conversions.
 344:.\Generated_Source\PSoC4/ADC.c **** *
 345:.\Generated_Source\PSoC4/ADC.c **** * Parameters:
 346:.\Generated_Source\PSoC4/ADC.c **** *  None.
 347:.\Generated_Source\PSoC4/ADC.c **** *
 348:.\Generated_Source\PSoC4/ADC.c **** * Return:
 349:.\Generated_Source\PSoC4/ADC.c **** *  None.
 350:.\Generated_Source\PSoC4/ADC.c **** *
 351:.\Generated_Source\PSoC4/ADC.c **** *******************************************************************************/
 352:.\Generated_Source\PSoC4/ADC.c **** void ADC_StopConvert(void)
 353:.\Generated_Source\PSoC4/ADC.c **** {
ARM GAS  C:\Users\Computer\AppData\Local\Temp\ccY9ea9E.s 			page 15


 403              		.loc 1 353 0
 404              		.cfi_startproc
 354:.\Generated_Source\PSoC4/ADC.c ****     #if(ADC_DEFAULT_SAMPLE_MODE_SEL == ADC__FREERUNNING)
 355:.\Generated_Source\PSoC4/ADC.c ****         ADC_SAR_SAMPLE_CTRL_REG &= (uint32)(~ADC_CONTINUOUS_EN);
 405              		.loc 1 355 0
 406 0000 024B     		ldr	r3, .L19
 407 0002 034A     		ldr	r2, .L19+4
 408 0004 1968     		ldr	r1, [r3]
 356:.\Generated_Source\PSoC4/ADC.c ****     #endif /* ADC_DEFAULT_SAMPLE_MODE == ADC__FREERUNNING */
 357:.\Generated_Source\PSoC4/ADC.c **** }
 409              		.loc 1 357 0
 410              		@ sp needed for prologue
 355:.\Generated_Source\PSoC4/ADC.c ****         ADC_SAR_SAMPLE_CTRL_REG &= (uint32)(~ADC_CONTINUOUS_EN);
 411              		.loc 1 355 0
 412 0006 0A40     		and	r2, r1
 413 0008 1A60     		str	r2, [r3]
 414              		.loc 1 357 0
 415 000a 7047     		bx	lr
 416              	.L20:
 417              		.align	2
 418              	.L19:
 419 000c 04001A40 		.word	1075445764
 420 0010 FFFFFEFF 		.word	-65537
 421              		.cfi_endproc
 422              	.LFE5:
 423              		.size	ADC_StopConvert, .-ADC_StopConvert
 424              		.section	.text.ADC_IsEndConversion,"ax",%progbits
 425              		.align	2
 426              		.global	ADC_IsEndConversion
 427              		.code	16
 428              		.thumb_func
 429              		.type	ADC_IsEndConversion, %function
 430              	ADC_IsEndConversion:
 431              	.LFB6:
 358:.\Generated_Source\PSoC4/ADC.c **** 
 359:.\Generated_Source\PSoC4/ADC.c **** 
 360:.\Generated_Source\PSoC4/ADC.c **** /*******************************************************************************
 361:.\Generated_Source\PSoC4/ADC.c **** * Function Name: ADC_IsEndConversion
 362:.\Generated_Source\PSoC4/ADC.c **** ********************************************************************************
 363:.\Generated_Source\PSoC4/ADC.c **** *
 364:.\Generated_Source\PSoC4/ADC.c **** * Summary:
 365:.\Generated_Source\PSoC4/ADC.c **** *  Description: Checks for ADC end of conversion for the case one
 366:.\Generated_Source\PSoC4/ADC.c **** *  channel and end of scan for the case of multiple channels. It acts
 367:.\Generated_Source\PSoC4/ADC.c **** *  as a software version of the EOC. This function provides the
 368:.\Generated_Source\PSoC4/ADC.c **** *  programmer with two options. In one mode this function
 369:.\Generated_Source\PSoC4/ADC.c **** *  immediately returns with the conversion status. In the other mode,
 370:.\Generated_Source\PSoC4/ADC.c **** *  the function does not return (blocking) until the conversion has
 371:.\Generated_Source\PSoC4/ADC.c **** *  completed.
 372:.\Generated_Source\PSoC4/ADC.c **** *
 373:.\Generated_Source\PSoC4/ADC.c **** * Parameters:
 374:.\Generated_Source\PSoC4/ADC.c **** *  ADC_RETURN_STATUS        -> Immediately returns conversion result status
 375:.\Generated_Source\PSoC4/ADC.c **** *  ADC_WAIT_FOR_RESULT      -> Does not return until ADC complete
 376:.\Generated_Source\PSoC4/ADC.c **** *  ADC_RETURN_STATUS_INJ    -> Immediately returns conversion result status
 377:.\Generated_Source\PSoC4/ADC.c **** *                              for injection channel
 378:.\Generated_Source\PSoC4/ADC.c **** *  ADC_WAIT_FOR_RESULT_INJ  -> Does not return until ADC completes injection
 379:.\Generated_Source\PSoC4/ADC.c **** *                              channel conversion
 380:.\Generated_Source\PSoC4/ADC.c **** *
ARM GAS  C:\Users\Computer\AppData\Local\Temp\ccY9ea9E.s 			page 16


 381:.\Generated_Source\PSoC4/ADC.c **** * Return:
 382:.\Generated_Source\PSoC4/ADC.c **** *  If a non-zero value is returned, the last conversion or scan has completed.
 383:.\Generated_Source\PSoC4/ADC.c **** *  If the returned value is zero, the ADC is still in the process of a scan.
 384:.\Generated_Source\PSoC4/ADC.c **** *
 385:.\Generated_Source\PSoC4/ADC.c **** *******************************************************************************/
 386:.\Generated_Source\PSoC4/ADC.c **** uint32 ADC_IsEndConversion(uint32 retMode)
 387:.\Generated_Source\PSoC4/ADC.c **** {
 432              		.loc 1 387 0
 433              		.cfi_startproc
 434              	.LVL18:
 435 0000 011C     		mov	r1, r0
 436 0002 00B5     		push	{lr}
 437              	.LCFI3:
 438              		.cfi_def_cfa_offset 4
 439              		.cfi_offset 14, -4
 388:.\Generated_Source\PSoC4/ADC.c ****     uint32 status = 0u;
 440              		.loc 1 388 0
 441 0004 0020     		mov	r0, #0
 442              	.LVL19:
 389:.\Generated_Source\PSoC4/ADC.c **** 
 390:.\Generated_Source\PSoC4/ADC.c ****     if((retMode & (ADC_RETURN_STATUS | ADC_WAIT_FOR_RESULT)) != 0u)
 443              		.loc 1 390 0
 444 0006 8B07     		lsl	r3, r1, #30
 445 0008 0DD0     		beq	.L26
 391:.\Generated_Source\PSoC4/ADC.c ****     {
 392:.\Generated_Source\PSoC4/ADC.c ****         do
 393:.\Generated_Source\PSoC4/ADC.c ****         {
 394:.\Generated_Source\PSoC4/ADC.c ****             status = ADC_SAR_INTR_REG & ADC_EOS_MASK;
 395:.\Generated_Source\PSoC4/ADC.c ****         }while((status == 0u) && ((retMode & ADC_WAIT_FOR_RESULT) != 0u));
 446              		.loc 1 395 0
 447 000a 0220     		mov	r0, #2
 394:.\Generated_Source\PSoC4/ADC.c ****             status = ADC_SAR_INTR_REG & ADC_EOS_MASK;
 448              		.loc 1 394 0
 449 000c 064A     		ldr	r2, .L31
 450 000e 0123     		mov	r3, #1
 451              		.loc 1 395 0
 452 0010 0140     		and	r1, r0
 453              	.LVL20:
 454 0012 01E0     		b	.L27
 455              	.LVL21:
 456              	.L30:
 457              		.loc 1 395 0 is_stmt 0 discriminator 1
 458 0014 0029     		cmp	r1, #0
 459 0016 06D0     		beq	.L26
 460              	.LVL22:
 461              	.L27:
 394:.\Generated_Source\PSoC4/ADC.c ****             status = ADC_SAR_INTR_REG & ADC_EOS_MASK;
 462              		.loc 1 394 0 is_stmt 1
 463 0018 1068     		ldr	r0, [r2]
 464 001a 1840     		and	r0, r3
 465              	.LVL23:
 466              		.loc 1 395 0
 467 001c FAD0     		beq	.L30
 396:.\Generated_Source\PSoC4/ADC.c **** 
 397:.\Generated_Source\PSoC4/ADC.c ****         if(status != 0u)
 398:.\Generated_Source\PSoC4/ADC.c ****         {
 399:.\Generated_Source\PSoC4/ADC.c ****             /* Clear EOS bit */
ARM GAS  C:\Users\Computer\AppData\Local\Temp\ccY9ea9E.s 			page 17


 400:.\Generated_Source\PSoC4/ADC.c ****             ADC_SAR_INTR_REG = ADC_EOS_MASK;
 468              		.loc 1 400 0
 469 001e 024A     		ldr	r2, .L31
 470 0020 0121     		mov	r1, #1
 471 0022 1160     		str	r1, [r2]
 472 0024 0120     		mov	r0, #1
 473              	.LVL24:
 474              	.L26:
 401:.\Generated_Source\PSoC4/ADC.c ****         }
 402:.\Generated_Source\PSoC4/ADC.c ****     }
 403:.\Generated_Source\PSoC4/ADC.c **** 
 404:.\Generated_Source\PSoC4/ADC.c ****     #if(ADC_INJ_CHANNEL_ENABLED)
 405:.\Generated_Source\PSoC4/ADC.c ****         if((retMode & (ADC_RETURN_STATUS_INJ | ADC_WAIT_FOR_RESULT_INJ)) != 0u)
 406:.\Generated_Source\PSoC4/ADC.c ****         {
 407:.\Generated_Source\PSoC4/ADC.c ****             do
 408:.\Generated_Source\PSoC4/ADC.c ****             {
 409:.\Generated_Source\PSoC4/ADC.c ****                 status |= ADC_SAR_INTR_REG & ADC_INJ_EOC_MASK;
 410:.\Generated_Source\PSoC4/ADC.c ****             }while(((status & ADC_INJ_EOC_MASK) != 0u) &&
 411:.\Generated_Source\PSoC4/ADC.c ****                    ((retMode & ADC_WAIT_FOR_RESULT_INJ) != 0u));
 412:.\Generated_Source\PSoC4/ADC.c **** 
 413:.\Generated_Source\PSoC4/ADC.c ****             if((status & ADC_INJ_EOC_MASK) != 0u)
 414:.\Generated_Source\PSoC4/ADC.c ****             {
 415:.\Generated_Source\PSoC4/ADC.c ****                 /* Clear Injection EOS bit */
 416:.\Generated_Source\PSoC4/ADC.c ****                 ADC_SAR_INTR_REG = ADC_INJ_EOC_MASK;
 417:.\Generated_Source\PSoC4/ADC.c ****             }
 418:.\Generated_Source\PSoC4/ADC.c ****         }
 419:.\Generated_Source\PSoC4/ADC.c ****     #endif /* ADC_INJ_CHANNEL_ENABLED */
 420:.\Generated_Source\PSoC4/ADC.c **** 
 421:.\Generated_Source\PSoC4/ADC.c ****     return (status);
 422:.\Generated_Source\PSoC4/ADC.c **** }
 475              		.loc 1 422 0
 476              		@ sp needed for prologue
 477 0026 00BD     		pop	{pc}
 478              	.L32:
 479              		.align	2
 480              	.L31:
 481 0028 10021A40 		.word	1075446288
 482              		.cfi_endproc
 483              	.LFE6:
 484              		.size	ADC_IsEndConversion, .-ADC_IsEndConversion
 485              		.section	.text.ADC_GetResult16,"ax",%progbits
 486              		.align	2
 487              		.global	ADC_GetResult16
 488              		.code	16
 489              		.thumb_func
 490              		.type	ADC_GetResult16, %function
 491              	ADC_GetResult16:
 492              	.LFB7:
 423:.\Generated_Source\PSoC4/ADC.c **** 
 424:.\Generated_Source\PSoC4/ADC.c **** 
 425:.\Generated_Source\PSoC4/ADC.c **** /*******************************************************************************
 426:.\Generated_Source\PSoC4/ADC.c **** * Function Name: ADC_GetResult16
 427:.\Generated_Source\PSoC4/ADC.c **** ********************************************************************************
 428:.\Generated_Source\PSoC4/ADC.c **** *
 429:.\Generated_Source\PSoC4/ADC.c **** * Summary:
 430:.\Generated_Source\PSoC4/ADC.c **** *  Gets the data available in the SAR DATA register.
 431:.\Generated_Source\PSoC4/ADC.c **** *
ARM GAS  C:\Users\Computer\AppData\Local\Temp\ccY9ea9E.s 			page 18


 432:.\Generated_Source\PSoC4/ADC.c **** * Parameters:
 433:.\Generated_Source\PSoC4/ADC.c **** *  chan: The ADC channel in which to return the result. The first channel
 434:.\Generated_Source\PSoC4/ADC.c **** *  is 0 and the injection channel if enabled is the number of valid channels.
 435:.\Generated_Source\PSoC4/ADC.c **** *
 436:.\Generated_Source\PSoC4/ADC.c **** * Return:
 437:.\Generated_Source\PSoC4/ADC.c **** *  Returns converted data as a signed 16-bit integer
 438:.\Generated_Source\PSoC4/ADC.c **** *
 439:.\Generated_Source\PSoC4/ADC.c **** *******************************************************************************/
 440:.\Generated_Source\PSoC4/ADC.c **** int16 ADC_GetResult16(uint32 chan)
 441:.\Generated_Source\PSoC4/ADC.c **** {
 493              		.loc 1 441 0
 494              		.cfi_startproc
 495              	.LVL25:
 496 0000 08B5     		push	{r3, lr}
 497              	.LCFI4:
 498              		.cfi_def_cfa_offset 8
 499              		.cfi_offset 3, -8
 500              		.cfi_offset 14, -4
 442:.\Generated_Source\PSoC4/ADC.c ****     uint32 result;
 443:.\Generated_Source\PSoC4/ADC.c **** 
 444:.\Generated_Source\PSoC4/ADC.c ****     /* Halt CPU in debug mode if channel is out of valid range */
 445:.\Generated_Source\PSoC4/ADC.c ****     CYASSERT(chan < ADC_TOTAL_CHANNELS_NUM);
 501              		.loc 1 445 0
 502 0002 0728     		cmp	r0, #7
 503 0004 07D8     		bhi	.L37
 446:.\Generated_Source\PSoC4/ADC.c **** 
 447:.\Generated_Source\PSoC4/ADC.c ****     if(chan < ADC_SEQUENCED_CHANNELS_NUM)
 448:.\Generated_Source\PSoC4/ADC.c ****     {
 449:.\Generated_Source\PSoC4/ADC.c ****         result = CY_GET_REG32((reg32 *)(ADC_SAR_CHAN_RESULT_IND + (uint32)(chan << 2u))) &
 504              		.loc 1 449 0
 505 0006 064B     		ldr	r3, .L38
 506 0008 8000     		lsl	r0, r0, #2
 507              	.LVL26:
 508 000a C118     		add	r1, r0, r3
 509 000c 0A68     		ldr	r2, [r1]
 510              	.LVL27:
 511 000e 1004     		lsl	r0, r2, #16
 512 0010 030C     		lsr	r3, r0, #16
 513              	.LVL28:
 514              	.L35:
 450:.\Generated_Source\PSoC4/ADC.c ****                 ADC_RESULT_MASK;
 451:.\Generated_Source\PSoC4/ADC.c ****     }
 452:.\Generated_Source\PSoC4/ADC.c ****     else
 453:.\Generated_Source\PSoC4/ADC.c ****     {
 454:.\Generated_Source\PSoC4/ADC.c ****         #if(ADC_INJ_CHANNEL_ENABLED)
 455:.\Generated_Source\PSoC4/ADC.c ****             result = ADC_SAR_INJ_RESULT_REG & ADC_RESULT_MASK;
 456:.\Generated_Source\PSoC4/ADC.c ****         #else
 457:.\Generated_Source\PSoC4/ADC.c ****             result = 0u;
 458:.\Generated_Source\PSoC4/ADC.c ****         #endif /* ADC_INJ_CHANNEL_ENABLED */
 459:.\Generated_Source\PSoC4/ADC.c ****     }
 460:.\Generated_Source\PSoC4/ADC.c **** 
 461:.\Generated_Source\PSoC4/ADC.c ****     return ( (int16)result );
 515              		.loc 1 461 0
 516 0012 18B2     		sxth	r0, r3
 462:.\Generated_Source\PSoC4/ADC.c **** }
 517              		.loc 1 462 0
 518              		@ sp needed for prologue
ARM GAS  C:\Users\Computer\AppData\Local\Temp\ccY9ea9E.s 			page 19


 519 0014 08BD     		pop	{r3, pc}
 520              	.LVL29:
 521              	.L37:
 445:.\Generated_Source\PSoC4/ADC.c ****     CYASSERT(chan < ADC_TOTAL_CHANNELS_NUM);
 522              		.loc 1 445 0 discriminator 1
 523 0016 0020     		mov	r0, #0
 524              	.LVL30:
 525 0018 FFF7FEFF 		bl	CyHalt
 526              	.LVL31:
 527 001c 0023     		mov	r3, #0
 528 001e F8E7     		b	.L35
 529              	.L39:
 530              		.align	2
 531              	.L38:
 532 0020 80011A40 		.word	1075446144
 533              		.cfi_endproc
 534              	.LFE7:
 535              		.size	ADC_GetResult16, .-ADC_GetResult16
 536              		.section	.text.ADC_SetChanMask,"ax",%progbits
 537              		.align	2
 538              		.global	ADC_SetChanMask
 539              		.code	16
 540              		.thumb_func
 541              		.type	ADC_SetChanMask, %function
 542              	ADC_SetChanMask:
 543              	.LFB8:
 463:.\Generated_Source\PSoC4/ADC.c **** 
 464:.\Generated_Source\PSoC4/ADC.c **** 
 465:.\Generated_Source\PSoC4/ADC.c **** /*******************************************************************************
 466:.\Generated_Source\PSoC4/ADC.c **** * Function Name: ADC_SetChanMask
 467:.\Generated_Source\PSoC4/ADC.c **** ********************************************************************************
 468:.\Generated_Source\PSoC4/ADC.c **** *
 469:.\Generated_Source\PSoC4/ADC.c **** * Summary:
 470:.\Generated_Source\PSoC4/ADC.c **** *  Sets the channel enable mask.
 471:.\Generated_Source\PSoC4/ADC.c **** *
 472:.\Generated_Source\PSoC4/ADC.c **** * Parameters:
 473:.\Generated_Source\PSoC4/ADC.c **** *  mask: Sets which channels that will be
 474:.\Generated_Source\PSoC4/ADC.c **** *  scanned. Setting bits for channels that do not exist will have no
 475:.\Generated_Source\PSoC4/ADC.c **** *  effect. For example, if only 6 channels were enabled, setting a
 476:.\Generated_Source\PSoC4/ADC.c **** *  mask of 0x0103 would only enable the last two channels (0 and 1).
 477:.\Generated_Source\PSoC4/ADC.c **** *  This API will not enable the injection channel.
 478:.\Generated_Source\PSoC4/ADC.c **** *  Examples: If the component is setup to sequence through 8
 479:.\Generated_Source\PSoC4/ADC.c **** *  channels, a mask of 0x000F would enable channels 0, 1, 2, and 3.
 480:.\Generated_Source\PSoC4/ADC.c **** *
 481:.\Generated_Source\PSoC4/ADC.c **** * Return:
 482:.\Generated_Source\PSoC4/ADC.c **** *  None.
 483:.\Generated_Source\PSoC4/ADC.c **** *
 484:.\Generated_Source\PSoC4/ADC.c **** *******************************************************************************/
 485:.\Generated_Source\PSoC4/ADC.c **** void ADC_SetChanMask(uint32 mask)
 486:.\Generated_Source\PSoC4/ADC.c **** {
 544              		.loc 1 486 0
 545              		.cfi_startproc
 546              	.LVL32:
 487:.\Generated_Source\PSoC4/ADC.c ****     ADC_SAR_CHAN_EN_REG = mask & ADC_MAX_CHANNELS_EN_MASK;
 547              		.loc 1 487 0
 548 0000 FF23     		mov	r3, #255
 549 0002 0249     		ldr	r1, .L41
ARM GAS  C:\Users\Computer\AppData\Local\Temp\ccY9ea9E.s 			page 20


 550 0004 1840     		and	r0, r3
 551              	.LVL33:
 552 0006 0860     		str	r0, [r1]
 488:.\Generated_Source\PSoC4/ADC.c **** }
 553              		.loc 1 488 0
 554              		@ sp needed for prologue
 555 0008 7047     		bx	lr
 556              	.L42:
 557 000a C046     		.align	2
 558              	.L41:
 559 000c 20001A40 		.word	1075445792
 560              		.cfi_endproc
 561              	.LFE8:
 562              		.size	ADC_SetChanMask, .-ADC_SetChanMask
 563              		.section	.text.ADC_SetLowLimit,"ax",%progbits
 564              		.align	2
 565              		.global	ADC_SetLowLimit
 566              		.code	16
 567              		.thumb_func
 568              		.type	ADC_SetLowLimit, %function
 569              	ADC_SetLowLimit:
 570              	.LFB9:
 489:.\Generated_Source\PSoC4/ADC.c **** 
 490:.\Generated_Source\PSoC4/ADC.c **** #if(ADC_INJ_CHANNEL_ENABLED)
 491:.\Generated_Source\PSoC4/ADC.c **** 
 492:.\Generated_Source\PSoC4/ADC.c **** 
 493:.\Generated_Source\PSoC4/ADC.c ****     /*******************************************************************************
 494:.\Generated_Source\PSoC4/ADC.c ****     * Function Name: ADC_EnableInjection
 495:.\Generated_Source\PSoC4/ADC.c ****     ********************************************************************************
 496:.\Generated_Source\PSoC4/ADC.c ****     *
 497:.\Generated_Source\PSoC4/ADC.c ****     * Summary:
 498:.\Generated_Source\PSoC4/ADC.c ****     *  Enables the injection channel for the next scan only.
 499:.\Generated_Source\PSoC4/ADC.c ****     *
 500:.\Generated_Source\PSoC4/ADC.c ****     * Parameters:
 501:.\Generated_Source\PSoC4/ADC.c ****     *  None.
 502:.\Generated_Source\PSoC4/ADC.c ****     *
 503:.\Generated_Source\PSoC4/ADC.c ****     * Return:
 504:.\Generated_Source\PSoC4/ADC.c ****     *  None.
 505:.\Generated_Source\PSoC4/ADC.c ****     *
 506:.\Generated_Source\PSoC4/ADC.c ****     *******************************************************************************/
 507:.\Generated_Source\PSoC4/ADC.c ****     void ADC_EnableInjection(void)
 508:.\Generated_Source\PSoC4/ADC.c ****     {
 509:.\Generated_Source\PSoC4/ADC.c ****         ADC_SAR_INJ_CHAN_CONFIG_REG |= ADC_INJ_CHAN_EN;
 510:.\Generated_Source\PSoC4/ADC.c ****     }
 511:.\Generated_Source\PSoC4/ADC.c **** 
 512:.\Generated_Source\PSoC4/ADC.c **** #endif /* ADC_INJ_CHANNEL_ENABLED */
 513:.\Generated_Source\PSoC4/ADC.c **** 
 514:.\Generated_Source\PSoC4/ADC.c **** 
 515:.\Generated_Source\PSoC4/ADC.c **** /*******************************************************************************
 516:.\Generated_Source\PSoC4/ADC.c **** * Function Name: ADC_SetLowLimit
 517:.\Generated_Source\PSoC4/ADC.c **** ********************************************************************************
 518:.\Generated_Source\PSoC4/ADC.c **** *
 519:.\Generated_Source\PSoC4/ADC.c **** * Summary:
 520:.\Generated_Source\PSoC4/ADC.c **** *  Sets the low limit parameter for a limit condition.
 521:.\Generated_Source\PSoC4/ADC.c **** *
 522:.\Generated_Source\PSoC4/ADC.c **** * Parameters:
 523:.\Generated_Source\PSoC4/ADC.c **** *  lowLimit: The low limit for a limit condition.
ARM GAS  C:\Users\Computer\AppData\Local\Temp\ccY9ea9E.s 			page 21


 524:.\Generated_Source\PSoC4/ADC.c **** *
 525:.\Generated_Source\PSoC4/ADC.c **** * Return:
 526:.\Generated_Source\PSoC4/ADC.c **** *  None.
 527:.\Generated_Source\PSoC4/ADC.c **** *
 528:.\Generated_Source\PSoC4/ADC.c **** *******************************************************************************/
 529:.\Generated_Source\PSoC4/ADC.c **** void ADC_SetLowLimit(uint32 lowLimit)
 530:.\Generated_Source\PSoC4/ADC.c **** {
 571              		.loc 1 530 0
 572              		.cfi_startproc
 573              	.LVL34:
 531:.\Generated_Source\PSoC4/ADC.c ****     ADC_SAR_RANGE_THRES_REG &= (uint32)(~ADC_RANGE_LOW_MASK);
 574              		.loc 1 531 0
 575 0000 054B     		ldr	r3, .L44
 532:.\Generated_Source\PSoC4/ADC.c ****     ADC_SAR_RANGE_THRES_REG |= lowLimit & ADC_RANGE_LOW_MASK;
 576              		.loc 1 532 0
 577 0002 0004     		lsl	r0, r0, #16
 578              	.LVL35:
 531:.\Generated_Source\PSoC4/ADC.c ****     ADC_SAR_RANGE_THRES_REG &= (uint32)(~ADC_RANGE_LOW_MASK);
 579              		.loc 1 531 0
 580 0004 1A68     		ldr	r2, [r3]
 533:.\Generated_Source\PSoC4/ADC.c **** }
 581              		.loc 1 533 0
 582              		@ sp needed for prologue
 531:.\Generated_Source\PSoC4/ADC.c ****     ADC_SAR_RANGE_THRES_REG &= (uint32)(~ADC_RANGE_LOW_MASK);
 583              		.loc 1 531 0
 584 0006 110C     		lsr	r1, r2, #16
 585 0008 0A04     		lsl	r2, r1, #16
 586 000a 1A60     		str	r2, [r3]
 532:.\Generated_Source\PSoC4/ADC.c ****     ADC_SAR_RANGE_THRES_REG |= lowLimit & ADC_RANGE_LOW_MASK;
 587              		.loc 1 532 0
 588 000c 1968     		ldr	r1, [r3]
 589 000e 020C     		lsr	r2, r0, #16
 590 0010 0A43     		orr	r2, r1
 591 0012 1A60     		str	r2, [r3]
 592              		.loc 1 533 0
 593 0014 7047     		bx	lr
 594              	.L45:
 595 0016 C046     		.align	2
 596              	.L44:
 597 0018 18001A40 		.word	1075445784
 598              		.cfi_endproc
 599              	.LFE9:
 600              		.size	ADC_SetLowLimit, .-ADC_SetLowLimit
 601              		.section	.text.ADC_SetHighLimit,"ax",%progbits
 602              		.align	2
 603              		.global	ADC_SetHighLimit
 604              		.code	16
 605              		.thumb_func
 606              		.type	ADC_SetHighLimit, %function
 607              	ADC_SetHighLimit:
 608              	.LFB10:
 534:.\Generated_Source\PSoC4/ADC.c **** 
 535:.\Generated_Source\PSoC4/ADC.c **** 
 536:.\Generated_Source\PSoC4/ADC.c **** /*******************************************************************************
 537:.\Generated_Source\PSoC4/ADC.c **** * Function Name: ADC_SetHighLimit
 538:.\Generated_Source\PSoC4/ADC.c **** ********************************************************************************
 539:.\Generated_Source\PSoC4/ADC.c **** *
ARM GAS  C:\Users\Computer\AppData\Local\Temp\ccY9ea9E.s 			page 22


 540:.\Generated_Source\PSoC4/ADC.c **** * Summary:
 541:.\Generated_Source\PSoC4/ADC.c **** *  Sets the low limit parameter for a limit condition.
 542:.\Generated_Source\PSoC4/ADC.c **** *
 543:.\Generated_Source\PSoC4/ADC.c **** * Parameters:
 544:.\Generated_Source\PSoC4/ADC.c **** *  highLimit: The high limit for a limit condition.
 545:.\Generated_Source\PSoC4/ADC.c **** *
 546:.\Generated_Source\PSoC4/ADC.c **** * Return:
 547:.\Generated_Source\PSoC4/ADC.c **** *  None.
 548:.\Generated_Source\PSoC4/ADC.c **** *
 549:.\Generated_Source\PSoC4/ADC.c **** *******************************************************************************/
 550:.\Generated_Source\PSoC4/ADC.c **** void ADC_SetHighLimit(uint32 highLimit)
 551:.\Generated_Source\PSoC4/ADC.c **** {
 609              		.loc 1 551 0
 610              		.cfi_startproc
 611              	.LVL36:
 552:.\Generated_Source\PSoC4/ADC.c ****     ADC_SAR_RANGE_THRES_REG &= (uint32)(~ADC_RANGE_HIGH_MASK);
 612              		.loc 1 552 0
 613 0000 044B     		ldr	r3, .L47
 553:.\Generated_Source\PSoC4/ADC.c ****     ADC_SAR_RANGE_THRES_REG |= (uint32)(highLimit << ADC_RANGE_HIGH_OFFSET);
 614              		.loc 1 553 0
 615 0002 0004     		lsl	r0, r0, #16
 616              	.LVL37:
 552:.\Generated_Source\PSoC4/ADC.c ****     ADC_SAR_RANGE_THRES_REG &= (uint32)(~ADC_RANGE_HIGH_MASK);
 617              		.loc 1 552 0
 618 0004 1A68     		ldr	r2, [r3]
 554:.\Generated_Source\PSoC4/ADC.c **** }
 619              		.loc 1 554 0
 620              		@ sp needed for prologue
 552:.\Generated_Source\PSoC4/ADC.c ****     ADC_SAR_RANGE_THRES_REG &= (uint32)(~ADC_RANGE_HIGH_MASK);
 621              		.loc 1 552 0
 622 0006 1104     		lsl	r1, r2, #16
 623 0008 0A0C     		lsr	r2, r1, #16
 624 000a 1A60     		str	r2, [r3]
 553:.\Generated_Source\PSoC4/ADC.c ****     ADC_SAR_RANGE_THRES_REG |= (uint32)(highLimit << ADC_RANGE_HIGH_OFFSET);
 625              		.loc 1 553 0
 626 000c 1968     		ldr	r1, [r3]
 627 000e 0843     		orr	r0, r1
 628 0010 1860     		str	r0, [r3]
 629              		.loc 1 554 0
 630 0012 7047     		bx	lr
 631              	.L48:
 632              		.align	2
 633              	.L47:
 634 0014 18001A40 		.word	1075445784
 635              		.cfi_endproc
 636              	.LFE10:
 637              		.size	ADC_SetHighLimit, .-ADC_SetHighLimit
 638              		.section	.text.ADC_SetLimitMask,"ax",%progbits
 639              		.align	2
 640              		.global	ADC_SetLimitMask
 641              		.code	16
 642              		.thumb_func
 643              		.type	ADC_SetLimitMask, %function
 644              	ADC_SetLimitMask:
 645              	.LFB11:
 555:.\Generated_Source\PSoC4/ADC.c **** 
 556:.\Generated_Source\PSoC4/ADC.c **** 
ARM GAS  C:\Users\Computer\AppData\Local\Temp\ccY9ea9E.s 			page 23


 557:.\Generated_Source\PSoC4/ADC.c **** /*******************************************************************************
 558:.\Generated_Source\PSoC4/ADC.c **** * Function Name: ADC_SetLimitMask
 559:.\Generated_Source\PSoC4/ADC.c **** ********************************************************************************
 560:.\Generated_Source\PSoC4/ADC.c **** *
 561:.\Generated_Source\PSoC4/ADC.c **** * Summary:
 562:.\Generated_Source\PSoC4/ADC.c **** *  Sets the channel limit condition mask.
 563:.\Generated_Source\PSoC4/ADC.c **** *
 564:.\Generated_Source\PSoC4/ADC.c **** * Parameters:
 565:.\Generated_Source\PSoC4/ADC.c **** *  mask: Sets which channels that may cause a
 566:.\Generated_Source\PSoC4/ADC.c **** *  limit condition interrupt. Setting bits for channels that do not exist
 567:.\Generated_Source\PSoC4/ADC.c **** *  will have no effect. For example, if only 6 channels were enabled,
 568:.\Generated_Source\PSoC4/ADC.c **** *  setting a mask of 0x0103 would only enable the last two channels (0 and 1).
 569:.\Generated_Source\PSoC4/ADC.c **** *
 570:.\Generated_Source\PSoC4/ADC.c **** * Return:
 571:.\Generated_Source\PSoC4/ADC.c **** *  None.
 572:.\Generated_Source\PSoC4/ADC.c **** *
 573:.\Generated_Source\PSoC4/ADC.c **** *******************************************************************************/
 574:.\Generated_Source\PSoC4/ADC.c **** void ADC_SetLimitMask(uint32 mask)
 575:.\Generated_Source\PSoC4/ADC.c **** {
 646              		.loc 1 575 0
 647              		.cfi_startproc
 648              	.LVL38:
 576:.\Generated_Source\PSoC4/ADC.c ****     ADC_SAR_RANGE_INTR_MASK_REG = mask & ADC_MAX_CHANNELS_EN_MASK;
 649              		.loc 1 576 0
 650 0000 FF23     		mov	r3, #255
 651 0002 0249     		ldr	r1, .L50
 652 0004 1840     		and	r0, r3
 653              	.LVL39:
 654 0006 0860     		str	r0, [r1]
 577:.\Generated_Source\PSoC4/ADC.c **** }
 655              		.loc 1 577 0
 656              		@ sp needed for prologue
 657 0008 7047     		bx	lr
 658              	.L51:
 659 000a C046     		.align	2
 660              	.L50:
 661 000c 38021A40 		.word	1075446328
 662              		.cfi_endproc
 663              	.LFE11:
 664              		.size	ADC_SetLimitMask, .-ADC_SetLimitMask
 665              		.section	.text.ADC_SetSatMask,"ax",%progbits
 666              		.align	2
 667              		.global	ADC_SetSatMask
 668              		.code	16
 669              		.thumb_func
 670              		.type	ADC_SetSatMask, %function
 671              	ADC_SetSatMask:
 672              	.LFB12:
 578:.\Generated_Source\PSoC4/ADC.c **** 
 579:.\Generated_Source\PSoC4/ADC.c **** 
 580:.\Generated_Source\PSoC4/ADC.c **** /*******************************************************************************
 581:.\Generated_Source\PSoC4/ADC.c **** * Function Name: ADC_SetSatMask
 582:.\Generated_Source\PSoC4/ADC.c **** ********************************************************************************
 583:.\Generated_Source\PSoC4/ADC.c **** *
 584:.\Generated_Source\PSoC4/ADC.c **** * Summary:
 585:.\Generated_Source\PSoC4/ADC.c **** *  Sets the channel saturation event mask.
 586:.\Generated_Source\PSoC4/ADC.c **** *
ARM GAS  C:\Users\Computer\AppData\Local\Temp\ccY9ea9E.s 			page 24


 587:.\Generated_Source\PSoC4/ADC.c **** * Parameters:
 588:.\Generated_Source\PSoC4/ADC.c **** *  mask: Sets which channels that may cause a
 589:.\Generated_Source\PSoC4/ADC.c **** *  saturation event interrupt. Setting bits for channels that do not exist
 590:.\Generated_Source\PSoC4/ADC.c **** *  will have no effect. For example, if only 8 channels were enabled,
 591:.\Generated_Source\PSoC4/ADC.c **** *  setting a mask of 0x01C0 would only enable two channels (6 and 7).
 592:.\Generated_Source\PSoC4/ADC.c **** *
 593:.\Generated_Source\PSoC4/ADC.c **** * Return:
 594:.\Generated_Source\PSoC4/ADC.c **** *  None.
 595:.\Generated_Source\PSoC4/ADC.c **** *
 596:.\Generated_Source\PSoC4/ADC.c **** *******************************************************************************/
 597:.\Generated_Source\PSoC4/ADC.c **** void ADC_SetSatMask(uint32 mask)
 598:.\Generated_Source\PSoC4/ADC.c **** {
 673              		.loc 1 598 0
 674              		.cfi_startproc
 675              	.LVL40:
 599:.\Generated_Source\PSoC4/ADC.c ****     ADC_SAR_SATURATE_INTR_MASK_REG = mask & ADC_MAX_CHANNELS_EN_MASK;
 676              		.loc 1 599 0
 677 0000 FF23     		mov	r3, #255
 678 0002 0249     		ldr	r1, .L53
 679 0004 1840     		and	r0, r3
 680              	.LVL41:
 681 0006 0860     		str	r0, [r1]
 600:.\Generated_Source\PSoC4/ADC.c **** }
 682              		.loc 1 600 0
 683              		@ sp needed for prologue
 684 0008 7047     		bx	lr
 685              	.L54:
 686 000a C046     		.align	2
 687              	.L53:
 688 000c 28021A40 		.word	1075446312
 689              		.cfi_endproc
 690              	.LFE12:
 691              		.size	ADC_SetSatMask, .-ADC_SetSatMask
 692              		.section	.text.ADC_SetOffset,"ax",%progbits
 693              		.align	2
 694              		.global	ADC_SetOffset
 695              		.code	16
 696              		.thumb_func
 697              		.type	ADC_SetOffset, %function
 698              	ADC_SetOffset:
 699              	.LFB13:
 601:.\Generated_Source\PSoC4/ADC.c **** 
 602:.\Generated_Source\PSoC4/ADC.c **** 
 603:.\Generated_Source\PSoC4/ADC.c **** /*******************************************************************************
 604:.\Generated_Source\PSoC4/ADC.c **** * Function Name: ADC_SetOffset
 605:.\Generated_Source\PSoC4/ADC.c **** ********************************************************************************
 606:.\Generated_Source\PSoC4/ADC.c **** *
 607:.\Generated_Source\PSoC4/ADC.c **** * Summary:
 608:.\Generated_Source\PSoC4/ADC.c **** *   Description: Sets the ADC offset which is used by the functions
 609:.\Generated_Source\PSoC4/ADC.c **** *   ADC_CountsTo_uVolts, ADC_CountsTo_mVolts and ADC_CountsTo_Volts
 610:.\Generated_Source\PSoC4/ADC.c **** *   to substract the offset from the given reading
 611:.\Generated_Source\PSoC4/ADC.c **** *   before calculating the voltage conversion.
 612:.\Generated_Source\PSoC4/ADC.c **** *
 613:.\Generated_Source\PSoC4/ADC.c **** * Parameters:
 614:.\Generated_Source\PSoC4/ADC.c **** *  chan: ADC channel number.
 615:.\Generated_Source\PSoC4/ADC.c **** *  offset: This value is a measured value when the
 616:.\Generated_Source\PSoC4/ADC.c **** *          inputs are shorted or connected to the same input voltage.
ARM GAS  C:\Users\Computer\AppData\Local\Temp\ccY9ea9E.s 			page 25


 617:.\Generated_Source\PSoC4/ADC.c **** *
 618:.\Generated_Source\PSoC4/ADC.c **** * Return:
 619:.\Generated_Source\PSoC4/ADC.c **** *  None.
 620:.\Generated_Source\PSoC4/ADC.c **** *
 621:.\Generated_Source\PSoC4/ADC.c **** * Global variables:
 622:.\Generated_Source\PSoC4/ADC.c **** *  ADC_Offset:  Modified to set the user provided offset.
 623:.\Generated_Source\PSoC4/ADC.c **** *
 624:.\Generated_Source\PSoC4/ADC.c **** *******************************************************************************/
 625:.\Generated_Source\PSoC4/ADC.c **** void ADC_SetOffset(uint32 chan, int16 offset)
 626:.\Generated_Source\PSoC4/ADC.c **** {
 700              		.loc 1 626 0
 701              		.cfi_startproc
 702              	.LVL42:
 703 0000 38B5     		push	{r3, r4, r5, lr}
 704              	.LCFI5:
 705              		.cfi_def_cfa_offset 16
 706              		.cfi_offset 3, -16
 707              		.cfi_offset 4, -12
 708              		.cfi_offset 5, -8
 709              		.cfi_offset 14, -4
 710              		.loc 1 626 0
 711 0002 041C     		mov	r4, r0
 712 0004 0D1C     		mov	r5, r1
 627:.\Generated_Source\PSoC4/ADC.c ****     /* Halt CPU in debug mode if channel is out of valid range */
 628:.\Generated_Source\PSoC4/ADC.c ****     CYASSERT(chan < ADC_TOTAL_CHANNELS_NUM);
 713              		.loc 1 628 0
 714 0006 0728     		cmp	r0, #7
 715 0008 02D9     		bls	.L56
 716              		.loc 1 628 0 is_stmt 0 discriminator 1
 717 000a 0020     		mov	r0, #0
 718              	.LVL43:
 719 000c FFF7FEFF 		bl	CyHalt
 720              	.LVL44:
 721              	.L56:
 629:.\Generated_Source\PSoC4/ADC.c **** 
 630:.\Generated_Source\PSoC4/ADC.c ****     ADC_offset[chan] = offset;
 722              		.loc 1 630 0 is_stmt 1
 723 0010 014B     		ldr	r3, .L57
 724 0012 6000     		lsl	r0, r4, #1
 725 0014 C552     		strh	r5, [r0, r3]
 631:.\Generated_Source\PSoC4/ADC.c **** }
 726              		.loc 1 631 0
 727              		@ sp needed for prologue
 728              	.LVL45:
 729 0016 38BD     		pop	{r3, r4, r5, pc}
 730              	.L58:
 731              		.align	2
 732              	.L57:
 733 0018 00000000 		.word	ADC_offset
 734              		.cfi_endproc
 735              	.LFE13:
 736              		.size	ADC_SetOffset, .-ADC_SetOffset
 737              		.section	.text.ADC_SetGain,"ax",%progbits
 738              		.align	2
 739              		.global	ADC_SetGain
 740              		.code	16
 741              		.thumb_func
ARM GAS  C:\Users\Computer\AppData\Local\Temp\ccY9ea9E.s 			page 26


 742              		.type	ADC_SetGain, %function
 743              	ADC_SetGain:
 744              	.LFB14:
 632:.\Generated_Source\PSoC4/ADC.c **** 
 633:.\Generated_Source\PSoC4/ADC.c **** 
 634:.\Generated_Source\PSoC4/ADC.c **** /*******************************************************************************
 635:.\Generated_Source\PSoC4/ADC.c **** * Function Name: ADC_SetGain
 636:.\Generated_Source\PSoC4/ADC.c **** ********************************************************************************
 637:.\Generated_Source\PSoC4/ADC.c **** *
 638:.\Generated_Source\PSoC4/ADC.c **** * Summary:
 639:.\Generated_Source\PSoC4/ADC.c **** *  Description: Sets the ADC gain in counts per 10 volt for the voltage
 640:.\Generated_Source\PSoC4/ADC.c **** *  conversion functions below. This value is set by default by the
 641:.\Generated_Source\PSoC4/ADC.c **** *  reference and input range settings. It should only be used to further
 642:.\Generated_Source\PSoC4/ADC.c **** *  calibrate the ADC with a known input or if an external reference is
 643:.\Generated_Source\PSoC4/ADC.c **** *  used. Affects the ADC_CountsTo_uVolts, ADC_CountsTo_mVolts
 644:.\Generated_Source\PSoC4/ADC.c **** *  and ADC_CountsTo_Volts functions by supplying the correct
 645:.\Generated_Source\PSoC4/ADC.c **** *  conversion between ADC counts and voltage.
 646:.\Generated_Source\PSoC4/ADC.c **** *
 647:.\Generated_Source\PSoC4/ADC.c **** * Parameters:
 648:.\Generated_Source\PSoC4/ADC.c **** *  chan: ADC channel number.
 649:.\Generated_Source\PSoC4/ADC.c **** *  adcGain: ADC gain in counts per 10 volts.
 650:.\Generated_Source\PSoC4/ADC.c **** *
 651:.\Generated_Source\PSoC4/ADC.c **** * Return:
 652:.\Generated_Source\PSoC4/ADC.c **** *  None.
 653:.\Generated_Source\PSoC4/ADC.c **** *
 654:.\Generated_Source\PSoC4/ADC.c **** * Global variables:
 655:.\Generated_Source\PSoC4/ADC.c **** *  ADC_CountsPer10Volt:  modified to set the ADC gain in counts 
 656:.\Generated_Source\PSoC4/ADC.c **** *   per 10 volt.
 657:.\Generated_Source\PSoC4/ADC.c **** *
 658:.\Generated_Source\PSoC4/ADC.c **** *******************************************************************************/
 659:.\Generated_Source\PSoC4/ADC.c **** void ADC_SetGain(uint32 chan, int32 adcGain)
 660:.\Generated_Source\PSoC4/ADC.c **** {
 745              		.loc 1 660 0
 746              		.cfi_startproc
 747              	.LVL46:
 748 0000 38B5     		push	{r3, r4, r5, lr}
 749              	.LCFI6:
 750              		.cfi_def_cfa_offset 16
 751              		.cfi_offset 3, -16
 752              		.cfi_offset 4, -12
 753              		.cfi_offset 5, -8
 754              		.cfi_offset 14, -4
 755              		.loc 1 660 0
 756 0002 041C     		mov	r4, r0
 757 0004 0D1C     		mov	r5, r1
 661:.\Generated_Source\PSoC4/ADC.c ****     /* Halt CPU in debug mode if channel is out of valid range */
 662:.\Generated_Source\PSoC4/ADC.c ****     CYASSERT(chan < ADC_TOTAL_CHANNELS_NUM);
 758              		.loc 1 662 0
 759 0006 0728     		cmp	r0, #7
 760 0008 02D9     		bls	.L60
 761              		.loc 1 662 0 is_stmt 0 discriminator 1
 762 000a 0020     		mov	r0, #0
 763              	.LVL47:
 764 000c FFF7FEFF 		bl	CyHalt
 765              	.LVL48:
 766              	.L60:
 663:.\Generated_Source\PSoC4/ADC.c **** 
ARM GAS  C:\Users\Computer\AppData\Local\Temp\ccY9ea9E.s 			page 27


 664:.\Generated_Source\PSoC4/ADC.c ****     ADC_countsPer10Volt[chan] = adcGain;
 767              		.loc 1 664 0 is_stmt 1
 768 0010 014B     		ldr	r3, .L61
 769 0012 A000     		lsl	r0, r4, #2
 770 0014 C550     		str	r5, [r0, r3]
 665:.\Generated_Source\PSoC4/ADC.c **** }
 771              		.loc 1 665 0
 772              		@ sp needed for prologue
 773              	.LVL49:
 774              	.LVL50:
 775 0016 38BD     		pop	{r3, r4, r5, pc}
 776              	.L62:
 777              		.align	2
 778              	.L61:
 779 0018 00000000 		.word	ADC_countsPer10Volt
 780              		.cfi_endproc
 781              	.LFE14:
 782              		.size	ADC_SetGain, .-ADC_SetGain
 783              		.global	__aeabi_idiv
 784              		.section	.text.ADC_CountsTo_mVolts,"ax",%progbits
 785              		.align	2
 786              		.global	ADC_CountsTo_mVolts
 787              		.code	16
 788              		.thumb_func
 789              		.type	ADC_CountsTo_mVolts, %function
 790              	ADC_CountsTo_mVolts:
 791              	.LFB15:
 666:.\Generated_Source\PSoC4/ADC.c **** 
 667:.\Generated_Source\PSoC4/ADC.c **** 
 668:.\Generated_Source\PSoC4/ADC.c **** #if(ADC_DEFAULT_JUSTIFICATION_SEL == ADC__RIGHT)
 669:.\Generated_Source\PSoC4/ADC.c **** 
 670:.\Generated_Source\PSoC4/ADC.c **** 
 671:.\Generated_Source\PSoC4/ADC.c ****     /*******************************************************************************
 672:.\Generated_Source\PSoC4/ADC.c ****     * Function Name: ADC_CountsTo_mVolts
 673:.\Generated_Source\PSoC4/ADC.c ****     ********************************************************************************
 674:.\Generated_Source\PSoC4/ADC.c ****     *
 675:.\Generated_Source\PSoC4/ADC.c ****     * Summary:
 676:.\Generated_Source\PSoC4/ADC.c ****     *  This function converts ADC counts to mVolts
 677:.\Generated_Source\PSoC4/ADC.c ****     *  This function is not available when left data format justification selected.
 678:.\Generated_Source\PSoC4/ADC.c ****     *
 679:.\Generated_Source\PSoC4/ADC.c ****     * Parameters:
 680:.\Generated_Source\PSoC4/ADC.c ****     *  chan: The ADC channel number.
 681:.\Generated_Source\PSoC4/ADC.c ****     *  adcCounts: Result from the ADC conversion
 682:.\Generated_Source\PSoC4/ADC.c ****     *
 683:.\Generated_Source\PSoC4/ADC.c ****     * Return:
 684:.\Generated_Source\PSoC4/ADC.c ****     *  Results in mVolts
 685:.\Generated_Source\PSoC4/ADC.c ****     *
 686:.\Generated_Source\PSoC4/ADC.c ****     * Global variables:
 687:.\Generated_Source\PSoC4/ADC.c ****     *  ADC_countsPer10Volt:  used to convert ADC counts to mVolts.
 688:.\Generated_Source\PSoC4/ADC.c ****     *  ADC_Offset:  Used as the offset while converting ADC counts 
 689:.\Generated_Source\PSoC4/ADC.c ****     *   to mVolts.
 690:.\Generated_Source\PSoC4/ADC.c ****     *
 691:.\Generated_Source\PSoC4/ADC.c ****     *******************************************************************************/
 692:.\Generated_Source\PSoC4/ADC.c ****     int16 ADC_CountsTo_mVolts(uint32 chan, int16 adcCounts)
 693:.\Generated_Source\PSoC4/ADC.c ****     {
 792              		.loc 1 693 0
 793              		.cfi_startproc
ARM GAS  C:\Users\Computer\AppData\Local\Temp\ccY9ea9E.s 			page 28


 794              	.LVL51:
 795 0000 38B5     		push	{r3, r4, r5, lr}
 796              	.LCFI7:
 797              		.cfi_def_cfa_offset 16
 798              		.cfi_offset 3, -16
 799              		.cfi_offset 4, -12
 800              		.cfi_offset 5, -8
 801              		.cfi_offset 14, -4
 802              		.loc 1 693 0
 803 0002 041C     		mov	r4, r0
 804 0004 0D1C     		mov	r5, r1
 694:.\Generated_Source\PSoC4/ADC.c ****         int16 mVolts;
 695:.\Generated_Source\PSoC4/ADC.c **** 
 696:.\Generated_Source\PSoC4/ADC.c ****         /* Halt CPU in debug mode if channel is out of valid range */
 697:.\Generated_Source\PSoC4/ADC.c ****         CYASSERT(chan < ADC_TOTAL_CHANNELS_NUM);
 805              		.loc 1 697 0
 806 0006 0728     		cmp	r0, #7
 807 0008 1AD8     		bhi	.L67
 808              	.LVL52:
 809              	.L64:
 698:.\Generated_Source\PSoC4/ADC.c **** 
 699:.\Generated_Source\PSoC4/ADC.c ****         /* Divide the adcCount when accumulate averaging mode selected */
 700:.\Generated_Source\PSoC4/ADC.c ****         #if(ADC_DEFAULT_AVG_MODE == ADC__ACCUMULATE)
 701:.\Generated_Source\PSoC4/ADC.c ****             if((ADC_channelsConfig[chan] & ADC_AVERAGING_EN) != 0u)
 702:.\Generated_Source\PSoC4/ADC.c ****             {
 703:.\Generated_Source\PSoC4/ADC.c ****                 adcCounts /= ADC_DEFAULT_AVG_SAMPLES_DIV;
 704:.\Generated_Source\PSoC4/ADC.c ****             }    
 705:.\Generated_Source\PSoC4/ADC.c ****         #endif /* ADC_DEFAULT_AVG_MODE == ADC__ACCUMULATE */
 706:.\Generated_Source\PSoC4/ADC.c **** 
 707:.\Generated_Source\PSoC4/ADC.c ****         /* Subtract ADC offset */
 708:.\Generated_Source\PSoC4/ADC.c ****         adcCounts -= ADC_offset[chan];
 810              		.loc 1 708 0
 811 000a 0F4B     		ldr	r3, .L68
 812 000c 6200     		lsl	r2, r4, #1
 813 000e D15A     		ldrh	r1, [r2, r3]
 709:.\Generated_Source\PSoC4/ADC.c **** 
 710:.\Generated_Source\PSoC4/ADC.c ****         mVolts = (int16)((((int32)adcCounts * ADC_10MV_COUNTS) + ( (adcCounts > 0) ? 
 814              		.loc 1 710 0
 815 0010 0E4A     		ldr	r2, .L68+4
 708:.\Generated_Source\PSoC4/ADC.c ****         adcCounts -= ADC_offset[chan];
 816              		.loc 1 708 0
 817 0012 681A     		sub	r0, r5, r1
 818 0014 05B2     		sxth	r5, r0
 819              	.LVL53:
 820              		.loc 1 710 0
 821 0016 6A43     		mul	r2, r5
 711:.\Generated_Source\PSoC4/ADC.c ****                  (ADC_countsPer10Volt[chan] / 2) : (-(ADC_countsPer10Volt[chan] / 2)) )) 
 822              		.loc 1 711 0
 823 0018 0D4B     		ldr	r3, .L68+8
 824 001a A400     		lsl	r4, r4, #2
 825              	.LVL54:
 826 001c 002D     		cmp	r5, #0
 827 001e 09DD     		ble	.L65
 828              		.loc 1 711 0 is_stmt 0 discriminator 1
 829 0020 1D59     		ldr	r5, [r3, r4]
 830 0022 E90F     		lsr	r1, r5, #31
 831 0024 4819     		add	r0, r1, r5
ARM GAS  C:\Users\Computer\AppData\Local\Temp\ccY9ea9E.s 			page 29


 832              	.LVL55:
 833 0026 4010     		asr	r0, r0, #1
 834              	.L66:
 712:.\Generated_Source\PSoC4/ADC.c ****                  / ADC_countsPer10Volt[chan]);
 835              		.loc 1 712 0 is_stmt 1
 836 0028 1959     		ldr	r1, [r3, r4]
 837              	.LVL56:
 710:.\Generated_Source\PSoC4/ADC.c ****         mVolts = (int16)((((int32)adcCounts * ADC_10MV_COUNTS) + ( (adcCounts > 0) ? 
 838              		.loc 1 710 0
 839 002a 1018     		add	r0, r2, r0
 840              	.LVL57:
 841              		.loc 1 712 0
 842 002c FFF7FEFF 		bl	__aeabi_idiv
 843              	.LVL58:
 713:.\Generated_Source\PSoC4/ADC.c **** 
 714:.\Generated_Source\PSoC4/ADC.c ****         return( mVolts );
 715:.\Generated_Source\PSoC4/ADC.c ****     }
 844              		.loc 1 715 0
 845              		@ sp needed for prologue
 714:.\Generated_Source\PSoC4/ADC.c ****         return( mVolts );
 846              		.loc 1 714 0
 847 0030 00B2     		sxth	r0, r0
 848              		.loc 1 715 0
 849 0032 38BD     		pop	{r3, r4, r5, pc}
 850              	.LVL59:
 851              	.L65:
 711:.\Generated_Source\PSoC4/ADC.c ****                  (ADC_countsPer10Volt[chan] / 2) : (-(ADC_countsPer10Volt[chan] / 2)) )) 
 852              		.loc 1 711 0 discriminator 2
 853 0034 1959     		ldr	r1, [r3, r4]
 854 0036 C80F     		lsr	r0, r1, #31
 855              	.LVL60:
 856 0038 4518     		add	r5, r0, r1
 857              	.LVL61:
 858 003a 6910     		asr	r1, r5, #1
 859 003c 4842     		neg	r0, r1
 860 003e F3E7     		b	.L66
 861              	.LVL62:
 862              	.L67:
 697:.\Generated_Source\PSoC4/ADC.c ****         CYASSERT(chan < ADC_TOTAL_CHANNELS_NUM);
 863              		.loc 1 697 0 discriminator 1
 864 0040 0020     		mov	r0, #0
 865              	.LVL63:
 866 0042 FFF7FEFF 		bl	CyHalt
 867              	.LVL64:
 868 0046 E0E7     		b	.L64
 869              	.L69:
 870              		.align	2
 871              	.L68:
 872 0048 00000000 		.word	ADC_offset
 873 004c 10270000 		.word	10000
 874 0050 00000000 		.word	ADC_countsPer10Volt
 875              		.cfi_endproc
 876              	.LFE15:
 877              		.size	ADC_CountsTo_mVolts, .-ADC_CountsTo_mVolts
 878              		.global	__aeabi_lmul
 879              		.global	__aeabi_ldivmod
 880              		.section	.text.ADC_CountsTo_uVolts,"ax",%progbits
ARM GAS  C:\Users\Computer\AppData\Local\Temp\ccY9ea9E.s 			page 30


 881              		.align	2
 882              		.global	ADC_CountsTo_uVolts
 883              		.code	16
 884              		.thumb_func
 885              		.type	ADC_CountsTo_uVolts, %function
 886              	ADC_CountsTo_uVolts:
 887              	.LFB16:
 716:.\Generated_Source\PSoC4/ADC.c **** 
 717:.\Generated_Source\PSoC4/ADC.c **** 
 718:.\Generated_Source\PSoC4/ADC.c ****     /*******************************************************************************
 719:.\Generated_Source\PSoC4/ADC.c ****     * Function Name: ADC_CountsTo_uVolts
 720:.\Generated_Source\PSoC4/ADC.c ****     ********************************************************************************
 721:.\Generated_Source\PSoC4/ADC.c ****     *
 722:.\Generated_Source\PSoC4/ADC.c ****     * Summary:
 723:.\Generated_Source\PSoC4/ADC.c ****     *  This function converts ADC counts to micro Volts
 724:.\Generated_Source\PSoC4/ADC.c ****     *  This function is not available when left data format justification selected.
 725:.\Generated_Source\PSoC4/ADC.c ****     *
 726:.\Generated_Source\PSoC4/ADC.c ****     * Parameters:
 727:.\Generated_Source\PSoC4/ADC.c ****     *  chan: The ADC channel number.
 728:.\Generated_Source\PSoC4/ADC.c ****     *  adcCounts: Result from the ADC conversion
 729:.\Generated_Source\PSoC4/ADC.c ****     *
 730:.\Generated_Source\PSoC4/ADC.c ****     * Return:
 731:.\Generated_Source\PSoC4/ADC.c ****     *  Results in uVolts
 732:.\Generated_Source\PSoC4/ADC.c ****     *
 733:.\Generated_Source\PSoC4/ADC.c ****     * Global variables:
 734:.\Generated_Source\PSoC4/ADC.c ****     *  ADC_countsPer10Volt:  used to convert ADC counts to uVolts.
 735:.\Generated_Source\PSoC4/ADC.c ****     *  ADC_Offset:  Used as the offset while converting ADC counts 
 736:.\Generated_Source\PSoC4/ADC.c ****     *   to mVolts.
 737:.\Generated_Source\PSoC4/ADC.c ****     *
 738:.\Generated_Source\PSoC4/ADC.c ****     * Theory: 
 739:.\Generated_Source\PSoC4/ADC.c ****     *  Care must be taken to not exceed the maximum value for a 31 bit signed
 740:.\Generated_Source\PSoC4/ADC.c ****     *  number in the conversion to uVolts and at the same time not loose 
 741:.\Generated_Source\PSoC4/ADC.c ****     *  resolution.
 742:.\Generated_Source\PSoC4/ADC.c ****     *  To convert adcCounts to microVolts it is required to be multiplied
 743:.\Generated_Source\PSoC4/ADC.c ****     *  on 10 million and later divide on gain in counts per 10V. 
 744:.\Generated_Source\PSoC4/ADC.c ****     *
 745:.\Generated_Source\PSoC4/ADC.c ****     *******************************************************************************/
 746:.\Generated_Source\PSoC4/ADC.c ****     int32 ADC_CountsTo_uVolts(uint32 chan, int16 adcCounts)
 747:.\Generated_Source\PSoC4/ADC.c ****     {
 888              		.loc 1 747 0
 889              		.cfi_startproc
 890              	.LVL65:
 891 0000 38B5     		push	{r3, r4, r5, lr}
 892              	.LCFI8:
 893              		.cfi_def_cfa_offset 16
 894              		.cfi_offset 3, -16
 895              		.cfi_offset 4, -12
 896              		.cfi_offset 5, -8
 897              		.cfi_offset 14, -4
 898              		.loc 1 747 0
 899 0002 041C     		mov	r4, r0
 900 0004 0D1C     		mov	r5, r1
 748:.\Generated_Source\PSoC4/ADC.c ****         int64 uVolts;
 749:.\Generated_Source\PSoC4/ADC.c **** 
 750:.\Generated_Source\PSoC4/ADC.c ****         /* Halt CPU in debug mode if channel is out of valid range */
 751:.\Generated_Source\PSoC4/ADC.c ****         CYASSERT(chan < ADC_TOTAL_CHANNELS_NUM);
 901              		.loc 1 751 0
ARM GAS  C:\Users\Computer\AppData\Local\Temp\ccY9ea9E.s 			page 31


 902 0006 0728     		cmp	r0, #7
 903 0008 02D9     		bls	.L71
 904              		.loc 1 751 0 is_stmt 0 discriminator 1
 905 000a 0020     		mov	r0, #0
 906              	.LVL66:
 907 000c FFF7FEFF 		bl	CyHalt
 908              	.LVL67:
 909              	.L71:
 752:.\Generated_Source\PSoC4/ADC.c **** 
 753:.\Generated_Source\PSoC4/ADC.c ****         /* Divide the adcCount when accumulate averaging mode selected */
 754:.\Generated_Source\PSoC4/ADC.c ****         #if(ADC_DEFAULT_AVG_MODE == ADC__ACCUMULATE)
 755:.\Generated_Source\PSoC4/ADC.c ****             if((ADC_channelsConfig[chan] & ADC_AVERAGING_EN) != 0u)
 756:.\Generated_Source\PSoC4/ADC.c ****             {
 757:.\Generated_Source\PSoC4/ADC.c ****                 adcCounts /= ADC_DEFAULT_AVG_SAMPLES_DIV;
 758:.\Generated_Source\PSoC4/ADC.c ****             }    
 759:.\Generated_Source\PSoC4/ADC.c ****         #endif /* ADC_DEFAULT_AVG_MODE == ADC__ACCUMULATE */
 760:.\Generated_Source\PSoC4/ADC.c **** 
 761:.\Generated_Source\PSoC4/ADC.c ****         /* Subtract ADC offset */
 762:.\Generated_Source\PSoC4/ADC.c ****         adcCounts -= ADC_offset[chan];
 910              		.loc 1 762 0 is_stmt 1
 911 0010 0B4B     		ldr	r3, .L72+8
 912 0012 6200     		lsl	r2, r4, #1
 913 0014 D05A     		ldrh	r0, [r2, r3]
 763:.\Generated_Source\PSoC4/ADC.c **** 
 764:.\Generated_Source\PSoC4/ADC.c ****         uVolts = ((int64)adcCounts * ADC_10UV_COUNTS) / ADC_countsPer10Volt[chan];
 914              		.loc 1 764 0
 915 0016 A400     		lsl	r4, r4, #2
 916              	.LVL68:
 762:.\Generated_Source\PSoC4/ADC.c ****         adcCounts -= ADC_offset[chan];
 917              		.loc 1 762 0
 918 0018 291A     		sub	r1, r5, r0
 919              	.LVL69:
 920              		.loc 1 764 0
 921 001a 0A4D     		ldr	r5, .L72+12
 922 001c 08B2     		sxth	r0, r1
 923 001e 6459     		ldr	r4, [r4, r5]
 924              	.LVL70:
 925 0020 064B     		ldr	r3, .L72+4
 926 0022 054A     		ldr	r2, .L72
 927 0024 C117     		asr	r1, r0, #31
 928              	.LVL71:
 929 0026 FFF7FEFF 		bl	__aeabi_lmul
 930              	.LVL72:
 931 002a E317     		asr	r3, r4, #31
 932 002c 221C     		mov	r2, r4
 933 002e FFF7FEFF 		bl	__aeabi_ldivmod
 934              	.LVL73:
 765:.\Generated_Source\PSoC4/ADC.c **** 
 766:.\Generated_Source\PSoC4/ADC.c ****         return( (int32)uVolts );
 767:.\Generated_Source\PSoC4/ADC.c ****     }
 935              		.loc 1 767 0
 936              		@ sp needed for prologue
 937 0032 38BD     		pop	{r3, r4, r5, pc}
 938              	.L73:
 939 0034 C046C046 		.align	3
 940              	.L72:
 941 0038 80969800 		.word	10000000
ARM GAS  C:\Users\Computer\AppData\Local\Temp\ccY9ea9E.s 			page 32


 942 003c 00000000 		.word	0
 943 0040 00000000 		.word	ADC_offset
 944 0044 00000000 		.word	ADC_countsPer10Volt
 945              		.cfi_endproc
 946              	.LFE16:
 947              		.size	ADC_CountsTo_uVolts, .-ADC_CountsTo_uVolts
 948              		.global	__aeabi_i2f
 949              		.global	__aeabi_fmul
 950              		.global	__aeabi_fdiv
 951              		.section	.text.ADC_CountsTo_Volts,"ax",%progbits
 952              		.align	2
 953              		.global	ADC_CountsTo_Volts
 954              		.code	16
 955              		.thumb_func
 956              		.type	ADC_CountsTo_Volts, %function
 957              	ADC_CountsTo_Volts:
 958              	.LFB17:
 768:.\Generated_Source\PSoC4/ADC.c **** 
 769:.\Generated_Source\PSoC4/ADC.c **** 
 770:.\Generated_Source\PSoC4/ADC.c ****     /*******************************************************************************
 771:.\Generated_Source\PSoC4/ADC.c ****     * Function Name: ADC_CountsTo_Volts
 772:.\Generated_Source\PSoC4/ADC.c ****     ********************************************************************************
 773:.\Generated_Source\PSoC4/ADC.c ****     *
 774:.\Generated_Source\PSoC4/ADC.c ****     * Summary:
 775:.\Generated_Source\PSoC4/ADC.c ****     *  Converts the ADC output to Volts as a floating point number.
 776:.\Generated_Source\PSoC4/ADC.c ****     *  This function is not available when left data format justification selected.
 777:.\Generated_Source\PSoC4/ADC.c ****     *
 778:.\Generated_Source\PSoC4/ADC.c ****     * Parameters:
 779:.\Generated_Source\PSoC4/ADC.c ****     *  chan: The ADC channel number.
 780:.\Generated_Source\PSoC4/ADC.c ****     *  Result from the ADC conversion
 781:.\Generated_Source\PSoC4/ADC.c ****     *
 782:.\Generated_Source\PSoC4/ADC.c ****     * Return:
 783:.\Generated_Source\PSoC4/ADC.c ****     *  Results in Volts
 784:.\Generated_Source\PSoC4/ADC.c ****     *
 785:.\Generated_Source\PSoC4/ADC.c ****     * Global variables:
 786:.\Generated_Source\PSoC4/ADC.c ****     *  ADC_countsPer10Volt:  used to convert ADC counts to Volts.
 787:.\Generated_Source\PSoC4/ADC.c ****     *  ADC_Offset:  Used as the offset while converting ADC counts 
 788:.\Generated_Source\PSoC4/ADC.c ****     *   to mVolts.
 789:.\Generated_Source\PSoC4/ADC.c ****     *
 790:.\Generated_Source\PSoC4/ADC.c ****     *******************************************************************************/
 791:.\Generated_Source\PSoC4/ADC.c ****     float32 ADC_CountsTo_Volts(uint32 chan, int16 adcCounts)
 792:.\Generated_Source\PSoC4/ADC.c ****     {
 959              		.loc 1 792 0
 960              		.cfi_startproc
 961              	.LVL74:
 962 0000 38B5     		push	{r3, r4, r5, lr}
 963              	.LCFI9:
 964              		.cfi_def_cfa_offset 16
 965              		.cfi_offset 3, -16
 966              		.cfi_offset 4, -12
 967              		.cfi_offset 5, -8
 968              		.cfi_offset 14, -4
 969              		.loc 1 792 0
 970 0002 041C     		mov	r4, r0
 971 0004 0D1C     		mov	r5, r1
 793:.\Generated_Source\PSoC4/ADC.c ****         float32 volts;
 794:.\Generated_Source\PSoC4/ADC.c **** 
ARM GAS  C:\Users\Computer\AppData\Local\Temp\ccY9ea9E.s 			page 33


 795:.\Generated_Source\PSoC4/ADC.c ****         /* Halt CPU in debug mode if channel is out of valid range */
 796:.\Generated_Source\PSoC4/ADC.c ****         CYASSERT(chan < ADC_TOTAL_CHANNELS_NUM);
 972              		.loc 1 796 0
 973 0006 0728     		cmp	r0, #7
 974 0008 02D9     		bls	.L75
 975              		.loc 1 796 0 is_stmt 0 discriminator 1
 976 000a 0020     		mov	r0, #0
 977              	.LVL75:
 978 000c FFF7FEFF 		bl	CyHalt
 979              	.LVL76:
 980              	.L75:
 797:.\Generated_Source\PSoC4/ADC.c **** 
 798:.\Generated_Source\PSoC4/ADC.c ****         /* Divide the adcCount when accumulate averaging mode selected */
 799:.\Generated_Source\PSoC4/ADC.c ****         #if(ADC_DEFAULT_AVG_MODE == ADC__ACCUMULATE)
 800:.\Generated_Source\PSoC4/ADC.c ****             if((ADC_channelsConfig[chan] & ADC_AVERAGING_EN) != 0u)
 801:.\Generated_Source\PSoC4/ADC.c ****             {
 802:.\Generated_Source\PSoC4/ADC.c ****                 adcCounts /= ADC_DEFAULT_AVG_SAMPLES_DIV;
 803:.\Generated_Source\PSoC4/ADC.c ****             }    
 804:.\Generated_Source\PSoC4/ADC.c ****         #endif /* ADC_DEFAULT_AVG_MODE == ADC__ACCUMULATE */
 805:.\Generated_Source\PSoC4/ADC.c **** 
 806:.\Generated_Source\PSoC4/ADC.c ****         /* Subtract ADC offset */
 807:.\Generated_Source\PSoC4/ADC.c ****         adcCounts -= ADC_offset[chan];
 981              		.loc 1 807 0 is_stmt 1
 982 0010 0A4B     		ldr	r3, .L76
 983 0012 6200     		lsl	r2, r4, #1
 984 0014 D05A     		ldrh	r0, [r2, r3]
 808:.\Generated_Source\PSoC4/ADC.c **** 
 809:.\Generated_Source\PSoC4/ADC.c ****         volts = ((float32)adcCounts * ADC_10V_COUNTS) / (float32)ADC_countsPer10Volt[chan];
 985              		.loc 1 809 0
 986 0016 A400     		lsl	r4, r4, #2
 987              	.LVL77:
 807:.\Generated_Source\PSoC4/ADC.c ****         adcCounts -= ADC_offset[chan];
 988              		.loc 1 807 0
 989 0018 291A     		sub	r1, r5, r0
 990              	.LVL78:
 991              		.loc 1 809 0
 992 001a 08B2     		sxth	r0, r1
 993 001c FFF7FEFF 		bl	__aeabi_i2f
 994              	.LVL79:
 995 0020 0749     		ldr	r1, .L76+4
 996 0022 FFF7FEFF 		bl	__aeabi_fmul
 997              	.LVL80:
 998 0026 074D     		ldr	r5, .L76+8
 810:.\Generated_Source\PSoC4/ADC.c **** 
 811:.\Generated_Source\PSoC4/ADC.c ****         return( volts );
 812:.\Generated_Source\PSoC4/ADC.c ****     }
 999              		.loc 1 812 0
 1000              		@ sp needed for prologue
 809:.\Generated_Source\PSoC4/ADC.c ****         volts = ((float32)adcCounts * ADC_10V_COUNTS) / (float32)ADC_countsPer10Volt[chan];
 1001              		.loc 1 809 0
 1002 0028 6559     		ldr	r5, [r4, r5]
 1003 002a 041C     		add	r4, r0, #0
 1004 002c 281C     		mov	r0, r5
 1005 002e FFF7FEFF 		bl	__aeabi_i2f
 1006              	.LVL81:
 1007 0032 011C     		add	r1, r0, #0
 1008 0034 201C     		add	r0, r4, #0
ARM GAS  C:\Users\Computer\AppData\Local\Temp\ccY9ea9E.s 			page 34


 1009 0036 FFF7FEFF 		bl	__aeabi_fdiv
 1010              	.LVL82:
 1011              		.loc 1 812 0
 1012 003a 38BD     		pop	{r3, r4, r5, pc}
 1013              	.L77:
 1014              		.align	2
 1015              	.L76:
 1016 003c 00000000 		.word	ADC_offset
 1017 0040 00002041 		.word	1092616192
 1018 0044 00000000 		.word	ADC_countsPer10Volt
 1019              		.cfi_endproc
 1020              	.LFE17:
 1021              		.size	ADC_CountsTo_Volts, .-ADC_CountsTo_Volts
 1022              		.comm	ADC_countsPer10Volt,32,4
 1023              		.comm	ADC_offset,16,4
 1024              		.global	ADC_initVar
 1025              		.bss
 1026              		.set	.LANCHOR0,. + 0
 1027              		.type	ADC_initVar, %object
 1028              		.size	ADC_initVar, 1
 1029              	ADC_initVar:
 1030 0000 00       		.space	1
 1031              		.text
 1032              	.Letext0:
 1033              		.file 2 ".\\Generated_Source\\PSoC4\\cytypes.h"
 1034              		.file 3 ".\\Generated_Source\\PSoC4\\CyLib.h"