ARM GAS  C:\Users\Steve\AppData\Local\Temp\cc8wnACi.s 			page 1


   1              		.cpu cortex-m0
   2              		.fpu softvfp
   3              		.eabi_attribute 20, 1
   4              		.eabi_attribute 21, 1
   5              		.eabi_attribute 23, 3
   6              		.eabi_attribute 24, 1
   7              		.eabi_attribute 25, 1
   8              		.eabi_attribute 26, 1
   9              		.eabi_attribute 30, 2
  10              		.eabi_attribute 34, 0
  11              		.eabi_attribute 18, 4
  12              		.code	16
  13              		.file	"ADC_SAR_Seq_1.c"
  14              		.text
  15              	.Ltext0:
  16              		.cfi_sections	.debug_frame
  17              		.section	.text.ADC_SAR_Seq_1_Init,"ax",%progbits
  18              		.align	2
  19              		.global	ADC_SAR_Seq_1_Init
  20              		.code	16
  21              		.thumb_func
  22              		.type	ADC_SAR_Seq_1_Init, %function
  23              	ADC_SAR_Seq_1_Init:
  24              	.LFB1:
  25              		.file 1 ".\\Generated_Source\\PSoC4\\ADC_SAR_Seq_1.c"
   1:.\Generated_Source\PSoC4/ADC_SAR_Seq_1.c **** /*******************************************************************************
   2:.\Generated_Source\PSoC4/ADC_SAR_Seq_1.c **** * File Name: ADC_SAR_Seq_1.c
   3:.\Generated_Source\PSoC4/ADC_SAR_Seq_1.c **** * Version 1.10
   4:.\Generated_Source\PSoC4/ADC_SAR_Seq_1.c **** *
   5:.\Generated_Source\PSoC4/ADC_SAR_Seq_1.c **** * Description:
   6:.\Generated_Source\PSoC4/ADC_SAR_Seq_1.c **** *  This file provides the source code to the API for the Sequencing Successive
   7:.\Generated_Source\PSoC4/ADC_SAR_Seq_1.c **** *  Approximation ADC Component Component.
   8:.\Generated_Source\PSoC4/ADC_SAR_Seq_1.c **** *
   9:.\Generated_Source\PSoC4/ADC_SAR_Seq_1.c **** * Note:
  10:.\Generated_Source\PSoC4/ADC_SAR_Seq_1.c **** *
  11:.\Generated_Source\PSoC4/ADC_SAR_Seq_1.c **** ********************************************************************************
  12:.\Generated_Source\PSoC4/ADC_SAR_Seq_1.c **** * Copyright 2008-2013, Cypress Semiconductor Corporation.  All rights reserved.
  13:.\Generated_Source\PSoC4/ADC_SAR_Seq_1.c **** * You may use this file only in accordance with the license, terms, conditions,
  14:.\Generated_Source\PSoC4/ADC_SAR_Seq_1.c **** * disclaimers, and limitations in the end user license agreement accompanying
  15:.\Generated_Source\PSoC4/ADC_SAR_Seq_1.c **** * the software package with which this file was provided.
  16:.\Generated_Source\PSoC4/ADC_SAR_Seq_1.c **** *******************************************************************************/
  17:.\Generated_Source\PSoC4/ADC_SAR_Seq_1.c **** 
  18:.\Generated_Source\PSoC4/ADC_SAR_Seq_1.c **** #include "CyLib.h"
  19:.\Generated_Source\PSoC4/ADC_SAR_Seq_1.c **** #include "ADC_SAR_Seq_1.h"
  20:.\Generated_Source\PSoC4/ADC_SAR_Seq_1.c **** 
  21:.\Generated_Source\PSoC4/ADC_SAR_Seq_1.c **** 
  22:.\Generated_Source\PSoC4/ADC_SAR_Seq_1.c **** /***************************************
  23:.\Generated_Source\PSoC4/ADC_SAR_Seq_1.c **** * Global data allocation
  24:.\Generated_Source\PSoC4/ADC_SAR_Seq_1.c **** ***************************************/
  25:.\Generated_Source\PSoC4/ADC_SAR_Seq_1.c **** uint8 ADC_SAR_Seq_1_initVar = 0u;
  26:.\Generated_Source\PSoC4/ADC_SAR_Seq_1.c **** volatile int16 ADC_SAR_Seq_1_offset[ADC_SAR_Seq_1_TOTAL_CHANNELS_NUM];
  27:.\Generated_Source\PSoC4/ADC_SAR_Seq_1.c **** volatile int32 ADC_SAR_Seq_1_countsPer10Volt[ADC_SAR_Seq_1_TOTAL_CHANNELS_NUM];   /* Gain compensat
  28:.\Generated_Source\PSoC4/ADC_SAR_Seq_1.c **** 
  29:.\Generated_Source\PSoC4/ADC_SAR_Seq_1.c **** 
  30:.\Generated_Source\PSoC4/ADC_SAR_Seq_1.c **** /***************************************
  31:.\Generated_Source\PSoC4/ADC_SAR_Seq_1.c **** * Local data allocation
  32:.\Generated_Source\PSoC4/ADC_SAR_Seq_1.c **** ***************************************/
ARM GAS  C:\Users\Steve\AppData\Local\Temp\cc8wnACi.s 			page 2


  33:.\Generated_Source\PSoC4/ADC_SAR_Seq_1.c **** /* Channels configuration generated by customiser */
  34:.\Generated_Source\PSoC4/ADC_SAR_Seq_1.c **** static const uint32 CYCODE ADC_SAR_Seq_1_channelsConfig[] = { 0x00000000u };
  35:.\Generated_Source\PSoC4/ADC_SAR_Seq_1.c **** 
  36:.\Generated_Source\PSoC4/ADC_SAR_Seq_1.c **** 
  37:.\Generated_Source\PSoC4/ADC_SAR_Seq_1.c **** /*******************************************************************************
  38:.\Generated_Source\PSoC4/ADC_SAR_Seq_1.c **** * Function Name: ADC_SAR_Seq_1_Start
  39:.\Generated_Source\PSoC4/ADC_SAR_Seq_1.c **** ********************************************************************************
  40:.\Generated_Source\PSoC4/ADC_SAR_Seq_1.c **** *
  41:.\Generated_Source\PSoC4/ADC_SAR_Seq_1.c **** * Summary:
  42:.\Generated_Source\PSoC4/ADC_SAR_Seq_1.c **** *  Performs all required initialization for this component
  43:.\Generated_Source\PSoC4/ADC_SAR_Seq_1.c **** *  and enables the power. The power will be set to the appropriate
  44:.\Generated_Source\PSoC4/ADC_SAR_Seq_1.c **** *  power based on the clock frequency.
  45:.\Generated_Source\PSoC4/ADC_SAR_Seq_1.c **** *
  46:.\Generated_Source\PSoC4/ADC_SAR_Seq_1.c **** * Parameters:
  47:.\Generated_Source\PSoC4/ADC_SAR_Seq_1.c **** *  None.
  48:.\Generated_Source\PSoC4/ADC_SAR_Seq_1.c **** *
  49:.\Generated_Source\PSoC4/ADC_SAR_Seq_1.c **** * Return:
  50:.\Generated_Source\PSoC4/ADC_SAR_Seq_1.c **** *  None.
  51:.\Generated_Source\PSoC4/ADC_SAR_Seq_1.c **** *
  52:.\Generated_Source\PSoC4/ADC_SAR_Seq_1.c **** * Global variables:
  53:.\Generated_Source\PSoC4/ADC_SAR_Seq_1.c **** *  The ADC_SAR_Seq_1_initVar variable is used to indicate when/if initial
  54:.\Generated_Source\PSoC4/ADC_SAR_Seq_1.c **** *  configuration of this component has happened. The variable is initialized to
  55:.\Generated_Source\PSoC4/ADC_SAR_Seq_1.c **** *  zero and set to 1 the first time ADC_Start() is called. This allows for
  56:.\Generated_Source\PSoC4/ADC_SAR_Seq_1.c **** *  component Re-Start without re-initialization in all subsequent calls to the
  57:.\Generated_Source\PSoC4/ADC_SAR_Seq_1.c **** *  ADC_SAR_Seq_1_Start() routine.
  58:.\Generated_Source\PSoC4/ADC_SAR_Seq_1.c **** *  If re-initialization of the component is required the variable should be set
  59:.\Generated_Source\PSoC4/ADC_SAR_Seq_1.c **** *  to zero before call of ADC_SAR_Seq_1_Start() routine, or the user may call
  60:.\Generated_Source\PSoC4/ADC_SAR_Seq_1.c **** *  ADC_SAR_Seq_1_Init() and ADC_SAR_Seq_1_Enable() as done in the
  61:.\Generated_Source\PSoC4/ADC_SAR_Seq_1.c **** *  ADC_SAR_Seq_1_Start() routine.
  62:.\Generated_Source\PSoC4/ADC_SAR_Seq_1.c **** *
  63:.\Generated_Source\PSoC4/ADC_SAR_Seq_1.c **** *******************************************************************************/
  64:.\Generated_Source\PSoC4/ADC_SAR_Seq_1.c **** void ADC_SAR_Seq_1_Start(void)
  65:.\Generated_Source\PSoC4/ADC_SAR_Seq_1.c **** {
  66:.\Generated_Source\PSoC4/ADC_SAR_Seq_1.c ****     /* If not Initialized then initialize all required hardware and software */
  67:.\Generated_Source\PSoC4/ADC_SAR_Seq_1.c ****     if(ADC_SAR_Seq_1_initVar == 0u)
  68:.\Generated_Source\PSoC4/ADC_SAR_Seq_1.c ****     {
  69:.\Generated_Source\PSoC4/ADC_SAR_Seq_1.c ****         ADC_SAR_Seq_1_Init();
  70:.\Generated_Source\PSoC4/ADC_SAR_Seq_1.c ****         ADC_SAR_Seq_1_initVar = 1u;
  71:.\Generated_Source\PSoC4/ADC_SAR_Seq_1.c ****     }
  72:.\Generated_Source\PSoC4/ADC_SAR_Seq_1.c ****     ADC_SAR_Seq_1_Enable();
  73:.\Generated_Source\PSoC4/ADC_SAR_Seq_1.c **** }
  74:.\Generated_Source\PSoC4/ADC_SAR_Seq_1.c **** 
  75:.\Generated_Source\PSoC4/ADC_SAR_Seq_1.c **** 
  76:.\Generated_Source\PSoC4/ADC_SAR_Seq_1.c **** /*******************************************************************************
  77:.\Generated_Source\PSoC4/ADC_SAR_Seq_1.c **** * Function Name: ADC_SAR_Seq_1_Init
  78:.\Generated_Source\PSoC4/ADC_SAR_Seq_1.c **** ********************************************************************************
  79:.\Generated_Source\PSoC4/ADC_SAR_Seq_1.c **** *
  80:.\Generated_Source\PSoC4/ADC_SAR_Seq_1.c **** * Summary:
  81:.\Generated_Source\PSoC4/ADC_SAR_Seq_1.c **** *  Initialize component's parameters to the parameters set by user in the
  82:.\Generated_Source\PSoC4/ADC_SAR_Seq_1.c **** *  customizer of the component placed onto schematic. Usually called in
  83:.\Generated_Source\PSoC4/ADC_SAR_Seq_1.c **** *  ADC_SAR_Seq_1_Start().
  84:.\Generated_Source\PSoC4/ADC_SAR_Seq_1.c **** *
  85:.\Generated_Source\PSoC4/ADC_SAR_Seq_1.c **** * Parameters:
  86:.\Generated_Source\PSoC4/ADC_SAR_Seq_1.c **** *  None.
  87:.\Generated_Source\PSoC4/ADC_SAR_Seq_1.c **** *
  88:.\Generated_Source\PSoC4/ADC_SAR_Seq_1.c **** * Return:
  89:.\Generated_Source\PSoC4/ADC_SAR_Seq_1.c **** *  None.
ARM GAS  C:\Users\Steve\AppData\Local\Temp\cc8wnACi.s 			page 3


  90:.\Generated_Source\PSoC4/ADC_SAR_Seq_1.c **** *
  91:.\Generated_Source\PSoC4/ADC_SAR_Seq_1.c **** * Global variables:
  92:.\Generated_Source\PSoC4/ADC_SAR_Seq_1.c **** *  The ADC_SAR_Seq_1_offset variable is initialized.
  93:.\Generated_Source\PSoC4/ADC_SAR_Seq_1.c **** *
  94:.\Generated_Source\PSoC4/ADC_SAR_Seq_1.c **** *******************************************************************************/
  95:.\Generated_Source\PSoC4/ADC_SAR_Seq_1.c **** void ADC_SAR_Seq_1_Init(void)
  96:.\Generated_Source\PSoC4/ADC_SAR_Seq_1.c **** {
  26              		.loc 1 96 0
  27              		.cfi_startproc
  28 0000 10B5     		push	{r4, lr}
  29              	.LCFI0:
  30              		.cfi_def_cfa_offset 8
  31              		.cfi_offset 4, -8
  32              		.cfi_offset 14, -4
  97:.\Generated_Source\PSoC4/ADC_SAR_Seq_1.c ****     uint32 chNum;
  98:.\Generated_Source\PSoC4/ADC_SAR_Seq_1.c ****     uint32 tmpRegVal;
  99:.\Generated_Source\PSoC4/ADC_SAR_Seq_1.c ****     int32 counts;
 100:.\Generated_Source\PSoC4/ADC_SAR_Seq_1.c **** 
 101:.\Generated_Source\PSoC4/ADC_SAR_Seq_1.c ****     #if(ADC_SAR_Seq_1_TOTAL_CHANNELS_NUM > 1u)
 102:.\Generated_Source\PSoC4/ADC_SAR_Seq_1.c ****         static const uint8 CYCODE ADC_SAR_Seq_1_InputsPlacement[] =
 103:.\Generated_Source\PSoC4/ADC_SAR_Seq_1.c ****         {
 104:.\Generated_Source\PSoC4/ADC_SAR_Seq_1.c ****             (uint8)(ADC_SAR_Seq_1_cy_psoc4_sarmux_8__CH_0_PORT << 4u) |
 105:.\Generated_Source\PSoC4/ADC_SAR_Seq_1.c ****             (uint8)ADC_SAR_Seq_1_cy_psoc4_sarmux_8__CH_0_PIN
 106:.\Generated_Source\PSoC4/ADC_SAR_Seq_1.c ****             ,(uint8)(ADC_SAR_Seq_1_cy_psoc4_sarmux_8__CH_1_PORT << 4u) |
 107:.\Generated_Source\PSoC4/ADC_SAR_Seq_1.c ****              (uint8)ADC_SAR_Seq_1_cy_psoc4_sarmux_8__CH_1_PIN
 108:.\Generated_Source\PSoC4/ADC_SAR_Seq_1.c ****             #if(ADC_SAR_Seq_1_TOTAL_CHANNELS_NUM > 2u)
 109:.\Generated_Source\PSoC4/ADC_SAR_Seq_1.c ****                 ,(uint8)(ADC_SAR_Seq_1_cy_psoc4_sarmux_8__CH_2_PORT << 4u) |
 110:.\Generated_Source\PSoC4/ADC_SAR_Seq_1.c ****                  (uint8)ADC_SAR_Seq_1_cy_psoc4_sarmux_8__CH_2_PIN
 111:.\Generated_Source\PSoC4/ADC_SAR_Seq_1.c ****             #endif /* End ADC_SAR_Seq_1_TOTAL_CHANNELS_NUM > 2u */
 112:.\Generated_Source\PSoC4/ADC_SAR_Seq_1.c ****             #if(ADC_SAR_Seq_1_TOTAL_CHANNELS_NUM > 3u)
 113:.\Generated_Source\PSoC4/ADC_SAR_Seq_1.c ****                 ,(uint8)(ADC_SAR_Seq_1_cy_psoc4_sarmux_8__CH_3_PORT << 4u) |
 114:.\Generated_Source\PSoC4/ADC_SAR_Seq_1.c ****                  (uint8)ADC_SAR_Seq_1_cy_psoc4_sarmux_8__CH_3_PIN
 115:.\Generated_Source\PSoC4/ADC_SAR_Seq_1.c ****             #endif /* End ADC_SAR_Seq_1_TOTAL_CHANNELS_NUM > 3u */
 116:.\Generated_Source\PSoC4/ADC_SAR_Seq_1.c ****             #if(ADC_SAR_Seq_1_TOTAL_CHANNELS_NUM > 4u)
 117:.\Generated_Source\PSoC4/ADC_SAR_Seq_1.c ****                 ,(uint8)(ADC_SAR_Seq_1_cy_psoc4_sarmux_8__CH_4_PORT << 4u) |
 118:.\Generated_Source\PSoC4/ADC_SAR_Seq_1.c ****                  (uint8)ADC_SAR_Seq_1_cy_psoc4_sarmux_8__CH_4_PIN
 119:.\Generated_Source\PSoC4/ADC_SAR_Seq_1.c ****             #endif /* End ADC_SAR_Seq_1_TOTAL_CHANNELS_NUM > 4u */
 120:.\Generated_Source\PSoC4/ADC_SAR_Seq_1.c ****             #if(ADC_SAR_Seq_1_TOTAL_CHANNELS_NUM > 5u)
 121:.\Generated_Source\PSoC4/ADC_SAR_Seq_1.c ****                 ,(uint8)(ADC_SAR_Seq_1_cy_psoc4_sarmux_8__CH_5_PORT << 4u) |
 122:.\Generated_Source\PSoC4/ADC_SAR_Seq_1.c ****                  (uint8)ADC_SAR_Seq_1_cy_psoc4_sarmux_8__CH_5_PIN
 123:.\Generated_Source\PSoC4/ADC_SAR_Seq_1.c ****             #endif /* End ADC_SAR_Seq_1_TOTAL_CHANNELS_NUM > 5u */
 124:.\Generated_Source\PSoC4/ADC_SAR_Seq_1.c ****             #if(ADC_SAR_Seq_1_TOTAL_CHANNELS_NUM > 6u)
 125:.\Generated_Source\PSoC4/ADC_SAR_Seq_1.c ****                 ,(uint8)(ADC_SAR_Seq_1_cy_psoc4_sarmux_8__CH_6_PORT << 4u) |
 126:.\Generated_Source\PSoC4/ADC_SAR_Seq_1.c ****                  (uint8)ADC_SAR_Seq_1_cy_psoc4_sarmux_8__CH_6_PIN
 127:.\Generated_Source\PSoC4/ADC_SAR_Seq_1.c ****             #endif /* End ADC_SAR_Seq_1_TOTAL_CHANNELS_NUM > 6u */
 128:.\Generated_Source\PSoC4/ADC_SAR_Seq_1.c ****             #if(ADC_SAR_Seq_1_TOTAL_CHANNELS_NUM > 7u)
 129:.\Generated_Source\PSoC4/ADC_SAR_Seq_1.c ****                 ,(uint8)(ADC_SAR_Seq_1_cy_psoc4_sarmux_8__CH_7_PORT << 4u) |
 130:.\Generated_Source\PSoC4/ADC_SAR_Seq_1.c ****                  (uint8)ADC_SAR_Seq_1_cy_psoc4_sarmux_8__CH_7_PIN
 131:.\Generated_Source\PSoC4/ADC_SAR_Seq_1.c ****             #endif /* End ADC_SAR_Seq_1_TOTAL_CHANNELS_NUM > 7u */
 132:.\Generated_Source\PSoC4/ADC_SAR_Seq_1.c ****             #if(ADC_SAR_Seq_1_TOTAL_CHANNELS_NUM > 8u)
 133:.\Generated_Source\PSoC4/ADC_SAR_Seq_1.c ****                 ,(uint8)(ADC_SAR_Seq_1_cy_psoc4_sarmux_8__CH_8_PORT << 4u) |
 134:.\Generated_Source\PSoC4/ADC_SAR_Seq_1.c ****                  (uint8)ADC_SAR_Seq_1_cy_psoc4_sarmux_8__CH_8_PIN
 135:.\Generated_Source\PSoC4/ADC_SAR_Seq_1.c ****             #endif /* End ADC_SAR_Seq_1_TOTAL_CHANNELS_NUM > 8u */
 136:.\Generated_Source\PSoC4/ADC_SAR_Seq_1.c ****         };
 137:.\Generated_Source\PSoC4/ADC_SAR_Seq_1.c ****     #endif /* End ADC_SAR_Seq_1_TOTAL_CHANNELS_NUM > 1u */
 138:.\Generated_Source\PSoC4/ADC_SAR_Seq_1.c **** 
 139:.\Generated_Source\PSoC4/ADC_SAR_Seq_1.c ****     #if(ADC_SAR_Seq_1_IRQ_REMOVE == 0u)
ARM GAS  C:\Users\Steve\AppData\Local\Temp\cc8wnACi.s 			page 4


 140:.\Generated_Source\PSoC4/ADC_SAR_Seq_1.c ****         /* Start and set interrupt vector */
 141:.\Generated_Source\PSoC4/ADC_SAR_Seq_1.c ****         CyIntSetPriority(ADC_SAR_Seq_1_INTC_NUMBER, ADC_SAR_Seq_1_INTC_PRIOR_NUMBER);
  33              		.loc 1 141 0
  34 0002 0E20     		mov	r0, #14
  35 0004 0321     		mov	r1, #3
  36 0006 FFF7FEFF 		bl	CyIntSetPriority
  37              	.LVL0:
 142:.\Generated_Source\PSoC4/ADC_SAR_Seq_1.c ****         (void)CyIntSetVector(ADC_SAR_Seq_1_INTC_NUMBER, &ADC_SAR_Seq_1_ISR);
  38              		.loc 1 142 0
  39 000a 1A49     		ldr	r1, .L2
  40 000c 0E20     		mov	r0, #14
  41 000e FFF7FEFF 		bl	CyIntSetVector
  42              	.LVL1:
 143:.\Generated_Source\PSoC4/ADC_SAR_Seq_1.c ****     #endif   /* End ADC_SAR_Seq_1_IRQ_REMOVE */
 144:.\Generated_Source\PSoC4/ADC_SAR_Seq_1.c **** 
 145:.\Generated_Source\PSoC4/ADC_SAR_Seq_1.c ****     /* Init SAR and MUX registers */
 146:.\Generated_Source\PSoC4/ADC_SAR_Seq_1.c ****     ADC_SAR_Seq_1_SAR_CHAN_EN_REG = ADC_SAR_Seq_1_DEFAULT_EN_CHANNELS;
  43              		.loc 1 146 0
  44 0012 194B     		ldr	r3, .L2+4
  45 0014 0122     		mov	r2, #1
  46 0016 1A60     		str	r2, [r3]
 147:.\Generated_Source\PSoC4/ADC_SAR_Seq_1.c ****     ADC_SAR_Seq_1_SAR_CTRL_REG = ADC_SAR_Seq_1_DEFAULT_CTRL_REG_CFG;
  47              		.loc 1 147 0
  48 0018 1849     		ldr	r1, .L2+8
  49 001a 1948     		ldr	r0, .L2+12
 148:.\Generated_Source\PSoC4/ADC_SAR_Seq_1.c ****     ADC_SAR_Seq_1_SAR_SAMPLE_CTRL_REG = ADC_SAR_Seq_1_DEFAULT_SAMPLE_CTRL_REG_CFG;
  50              		.loc 1 148 0
  51 001c 194C     		ldr	r4, .L2+16
  52 001e 1A4B     		ldr	r3, .L2+20
 147:.\Generated_Source\PSoC4/ADC_SAR_Seq_1.c ****     ADC_SAR_Seq_1_SAR_CTRL_REG = ADC_SAR_Seq_1_DEFAULT_CTRL_REG_CFG;
  53              		.loc 1 147 0
  54 0020 0160     		str	r1, [r0]
  55              		.loc 1 148 0
  56 0022 1C60     		str	r4, [r3]
 149:.\Generated_Source\PSoC4/ADC_SAR_Seq_1.c ****     ADC_SAR_Seq_1_SAR_RANGE_THRES_REG = ADC_SAR_Seq_1_DEFAULT_RANGE_THRES_REG_CFG;
  57              		.loc 1 149 0
  58 0024 1949     		ldr	r1, .L2+24
  59 0026 1A48     		ldr	r0, .L2+28
 150:.\Generated_Source\PSoC4/ADC_SAR_Seq_1.c ****     ADC_SAR_Seq_1_SAR_RANGE_COND_REG  = ADC_SAR_Seq_1_COMPARE_MODE;
  60              		.loc 1 150 0
  61 0028 1A4C     		ldr	r4, .L2+32
  62 002a 0023     		mov	r3, #0
 149:.\Generated_Source\PSoC4/ADC_SAR_Seq_1.c ****     ADC_SAR_Seq_1_SAR_RANGE_THRES_REG = ADC_SAR_Seq_1_DEFAULT_RANGE_THRES_REG_CFG;
  63              		.loc 1 149 0
  64 002c 0160     		str	r1, [r0]
  65              		.loc 1 150 0
  66 002e 2360     		str	r3, [r4]
 151:.\Generated_Source\PSoC4/ADC_SAR_Seq_1.c ****     ADC_SAR_Seq_1_SAR_SAMPLE_TIME01_REG = ADC_SAR_Seq_1_DEFAULT_SAMPLE_TIME01_REG_CFG;
  67              		.loc 1 151 0
  68 0030 1949     		ldr	r1, .L2+36
  69 0032 1A48     		ldr	r0, .L2+40
 152:.\Generated_Source\PSoC4/ADC_SAR_Seq_1.c ****     ADC_SAR_Seq_1_SAR_SAMPLE_TIME23_REG = ADC_SAR_Seq_1_DEFAULT_SAMPLE_TIME23_REG_CFG;
  70              		.loc 1 152 0
  71 0034 1A4C     		ldr	r4, .L2+44
 151:.\Generated_Source\PSoC4/ADC_SAR_Seq_1.c ****     ADC_SAR_Seq_1_SAR_SAMPLE_TIME01_REG = ADC_SAR_Seq_1_DEFAULT_SAMPLE_TIME01_REG_CFG;
  72              		.loc 1 151 0
  73 0036 0160     		str	r1, [r0]
ARM GAS  C:\Users\Steve\AppData\Local\Temp\cc8wnACi.s 			page 5


  74              		.loc 1 152 0
  75 0038 2160     		str	r1, [r4]
 153:.\Generated_Source\PSoC4/ADC_SAR_Seq_1.c ****     /* Connect Vm to VSSA when even one channel is single-ended or multiple channels configured */
 154:.\Generated_Source\PSoC4/ADC_SAR_Seq_1.c ****     #if(ADC_SAR_Seq_1_DEFAULT_MUX_SWITCH0 != 0u)
 155:.\Generated_Source\PSoC4/ADC_SAR_Seq_1.c ****         ADC_SAR_Seq_1_MUX_SWITCH0_REG |= ADC_SAR_Seq_1_DEFAULT_MUX_SWITCH0; 
  76              		.loc 1 155 0
  77 003a 1A49     		ldr	r1, .L2+48
  78 003c 8020     		mov	r0, #128
  79 003e 0C68     		ldr	r4, [r1]
  80 0040 4002     		lsl	r0, r0, #9
  81 0042 2043     		orr	r0, r4
  82 0044 0860     		str	r0, [r1]
 156:.\Generated_Source\PSoC4/ADC_SAR_Seq_1.c ****         /* Set MUX_HW_CTRL_VSSA in MUX_SWITCH_HW_CTRL when multiple channels enabled */
 157:.\Generated_Source\PSoC4/ADC_SAR_Seq_1.c ****         #if(ADC_SAR_Seq_1_TOTAL_CHANNELS_NUM > 1u)
 158:.\Generated_Source\PSoC4/ADC_SAR_Seq_1.c ****             ADC_SAR_Seq_1_MUX_SWITCH_HW_CTRL_REG |= ADC_SAR_Seq_1_DEFAULT_MUX_SWITCH0; 
 159:.\Generated_Source\PSoC4/ADC_SAR_Seq_1.c ****         #endif /* ADC_SAR_Seq_1_TOTAL_CHANNELS_NUM > 1u */
 160:.\Generated_Source\PSoC4/ADC_SAR_Seq_1.c ****     #endif /*ADC_SAR_Seq_1_CHANNELS_MODE !=0 */    
 161:.\Generated_Source\PSoC4/ADC_SAR_Seq_1.c **** 
 162:.\Generated_Source\PSoC4/ADC_SAR_Seq_1.c ****     ADC_SAR_Seq_1_SAR_SATURATE_INTR_MASK_REG = 0u;
  83              		.loc 1 162 0
  84 0046 1849     		ldr	r1, .L2+52
 163:.\Generated_Source\PSoC4/ADC_SAR_Seq_1.c ****     ADC_SAR_Seq_1_SAR_RANGE_INTR_MASK_REG = 0u;
  85              		.loc 1 163 0
  86 0048 184C     		ldr	r4, .L2+56
 162:.\Generated_Source\PSoC4/ADC_SAR_Seq_1.c ****     ADC_SAR_Seq_1_SAR_SATURATE_INTR_MASK_REG = 0u;
  87              		.loc 1 162 0
  88 004a 0B60     		str	r3, [r1]
 164:.\Generated_Source\PSoC4/ADC_SAR_Seq_1.c ****     ADC_SAR_Seq_1_SAR_INTR_MASK_REG = ADC_SAR_Seq_1_SAR_INTR_MASK;
  89              		.loc 1 164 0
  90 004c 1848     		ldr	r0, .L2+60
 165:.\Generated_Source\PSoC4/ADC_SAR_Seq_1.c ****     ADC_SAR_Seq_1_ANA_TRIM_REG = ADC_SAR_Seq_1_TRIM_COEF;
  91              		.loc 1 165 0
  92 004e 1949     		ldr	r1, .L2+64
 163:.\Generated_Source\PSoC4/ADC_SAR_Seq_1.c ****     ADC_SAR_Seq_1_SAR_RANGE_INTR_MASK_REG = 0u;
  93              		.loc 1 163 0
  94 0050 2360     		str	r3, [r4]
  95              		.loc 1 165 0
  96 0052 0224     		mov	r4, #2
 164:.\Generated_Source\PSoC4/ADC_SAR_Seq_1.c ****     ADC_SAR_Seq_1_SAR_INTR_MASK_REG = ADC_SAR_Seq_1_SAR_INTR_MASK;
  97              		.loc 1 164 0
  98 0054 0260     		str	r2, [r0]
  99              		.loc 1 165 0
 100 0056 0C60     		str	r4, [r1]
 166:.\Generated_Source\PSoC4/ADC_SAR_Seq_1.c ****     
 167:.\Generated_Source\PSoC4/ADC_SAR_Seq_1.c ****     /* Read and modify default configuration based on characterization */
 168:.\Generated_Source\PSoC4/ADC_SAR_Seq_1.c ****     tmpRegVal = ADC_SAR_Seq_1_SAR_DFT_CTRL_REG;
 101              		.loc 1 168 0
 102 0058 174C     		ldr	r4, .L2+68
 169:.\Generated_Source\PSoC4/ADC_SAR_Seq_1.c ****     #if(ADC_SAR_Seq_1_NOMINAL_CLOCK_FREQ > (ADC_SAR_Seq_1_MAX_FREQUENCY / 2))
 170:.\Generated_Source\PSoC4/ADC_SAR_Seq_1.c ****         tmpRegVal &= (uint32)~ADC_SAR_Seq_1_DCEN;
 171:.\Generated_Source\PSoC4/ADC_SAR_Seq_1.c ****         tmpRegVal |= ADC_SAR_Seq_1_SEL_CSEL_DFT_CHAR;
 172:.\Generated_Source\PSoC4/ADC_SAR_Seq_1.c ****     #else  /* clock speed < 9 Mhz */  
 173:.\Generated_Source\PSoC4/ADC_SAR_Seq_1.c ****         tmpRegVal |= ADC_SAR_Seq_1_DLY_INC;
 174:.\Generated_Source\PSoC4/ADC_SAR_Seq_1.c ****     #endif /* clock speed > 9 Mhz */
 175:.\Generated_Source\PSoC4/ADC_SAR_Seq_1.c ****     ADC_SAR_Seq_1_SAR_DFT_CTRL_REG = tmpRegVal;
 176:.\Generated_Source\PSoC4/ADC_SAR_Seq_1.c ****     
 177:.\Generated_Source\PSoC4/ADC_SAR_Seq_1.c ****     #if(ADC_SAR_Seq_1_MAX_RESOLUTION != ADC_SAR_Seq_1_RESOLUTION_12)
ARM GAS  C:\Users\Steve\AppData\Local\Temp\cc8wnACi.s 			page 6


 178:.\Generated_Source\PSoC4/ADC_SAR_Seq_1.c ****         ADC_SAR_Seq_1_WOUNDING_REG = ADC_SAR_Seq_1_ALT_WOUNDING;
 179:.\Generated_Source\PSoC4/ADC_SAR_Seq_1.c ****     #endif /* ADC_SAR_Seq_1_MAX_RESOLUTION != ADC_SAR_Seq_1_RESOLUTION_12 */
 180:.\Generated_Source\PSoC4/ADC_SAR_Seq_1.c **** 
 181:.\Generated_Source\PSoC4/ADC_SAR_Seq_1.c ****     for(chNum = 0u; chNum < ADC_SAR_Seq_1_TOTAL_CHANNELS_NUM; chNum++)
 182:.\Generated_Source\PSoC4/ADC_SAR_Seq_1.c ****     {
 183:.\Generated_Source\PSoC4/ADC_SAR_Seq_1.c ****         tmpRegVal = (ADC_SAR_Seq_1_channelsConfig[chNum] & ADC_SAR_Seq_1_CHANNEL_CONFIG_MASK);
 184:.\Generated_Source\PSoC4/ADC_SAR_Seq_1.c ****         #if(ADC_SAR_Seq_1_TOTAL_CHANNELS_NUM > 1u)
 185:.\Generated_Source\PSoC4/ADC_SAR_Seq_1.c ****             tmpRegVal |= ADC_SAR_Seq_1_InputsPlacement[chNum];
 186:.\Generated_Source\PSoC4/ADC_SAR_Seq_1.c ****         #endif /* End ADC_SAR_Seq_1_TOTAL_CHANNELS_NUM > 1u */
 187:.\Generated_Source\PSoC4/ADC_SAR_Seq_1.c ****         /* When the part is wounded to 10-bit then the SUB_RESOLUTION bit 
 188:.\Generated_Source\PSoC4/ADC_SAR_Seq_1.c ****         *  will be ignored and the RESOLUTION bit selects between 10-bit 
 189:.\Generated_Source\PSoC4/ADC_SAR_Seq_1.c ****         *  (0) and 8-bit (1) resolution.
 190:.\Generated_Source\PSoC4/ADC_SAR_Seq_1.c ****         */
 191:.\Generated_Source\PSoC4/ADC_SAR_Seq_1.c ****         #if((ADC_SAR_Seq_1_MAX_RESOLUTION != ADC_SAR_Seq_1_RESOLUTION_12) && \
 192:.\Generated_Source\PSoC4/ADC_SAR_Seq_1.c ****             (ADC_SAR_Seq_1_ALT_WOUNDING == ADC_SAR_Seq_1_WOUNDING_10BIT))
 193:.\Generated_Source\PSoC4/ADC_SAR_Seq_1.c ****             tmpRegVal &= (uint32)(~ADC_SAR_Seq_1_ALT_RESOLUTION_ON);
 194:.\Generated_Source\PSoC4/ADC_SAR_Seq_1.c ****         #endif /* ADC_SAR_Seq_1_MAX_RESOLUTION != ADC_SAR_Seq_1_RESOLUTION_12 */
 195:.\Generated_Source\PSoC4/ADC_SAR_Seq_1.c **** 
 196:.\Generated_Source\PSoC4/ADC_SAR_Seq_1.c ****         #if(ADC_SAR_Seq_1_INJ_CHANNEL_ENABLED)
 197:.\Generated_Source\PSoC4/ADC_SAR_Seq_1.c ****         if(chNum < ADC_SAR_Seq_1_SEQUENCED_CHANNELS_NUM)
 198:.\Generated_Source\PSoC4/ADC_SAR_Seq_1.c ****         #endif /* ADC_SAR_Seq_1_INJ_CHANNEL_ENABLED */
 199:.\Generated_Source\PSoC4/ADC_SAR_Seq_1.c ****         {
 200:.\Generated_Source\PSoC4/ADC_SAR_Seq_1.c ****             CY_SET_REG32((reg32 *)(ADC_SAR_Seq_1_SAR_CHAN_CONFIG_IND + (uint32)(chNum << 2)), tmpRe
 201:.\Generated_Source\PSoC4/ADC_SAR_Seq_1.c **** 
 202:.\Generated_Source\PSoC4/ADC_SAR_Seq_1.c ****             if((ADC_SAR_Seq_1_channelsConfig[chNum] & ADC_SAR_Seq_1_IS_SATURATE_EN_MASK) != 0u)
 203:.\Generated_Source\PSoC4/ADC_SAR_Seq_1.c ****             {
 204:.\Generated_Source\PSoC4/ADC_SAR_Seq_1.c ****                 ADC_SAR_Seq_1_SAR_SATURATE_INTR_MASK_REG |= (uint16)((uint16)1 << chNum);
 205:.\Generated_Source\PSoC4/ADC_SAR_Seq_1.c ****             }
 206:.\Generated_Source\PSoC4/ADC_SAR_Seq_1.c **** 
 207:.\Generated_Source\PSoC4/ADC_SAR_Seq_1.c ****             if((ADC_SAR_Seq_1_channelsConfig[chNum] & ADC_SAR_Seq_1_IS_RANGE_CTRL_EN_MASK) != 0u)
 208:.\Generated_Source\PSoC4/ADC_SAR_Seq_1.c ****             {
 209:.\Generated_Source\PSoC4/ADC_SAR_Seq_1.c ****                 ADC_SAR_Seq_1_SAR_RANGE_INTR_MASK_REG |= (uint16)((uint16)1 << chNum);
 210:.\Generated_Source\PSoC4/ADC_SAR_Seq_1.c ****             }
 211:.\Generated_Source\PSoC4/ADC_SAR_Seq_1.c ****         }
 212:.\Generated_Source\PSoC4/ADC_SAR_Seq_1.c ****         #if(ADC_SAR_Seq_1_INJ_CHANNEL_ENABLED)
 213:.\Generated_Source\PSoC4/ADC_SAR_Seq_1.c ****             else
 214:.\Generated_Source\PSoC4/ADC_SAR_Seq_1.c ****             {
 215:.\Generated_Source\PSoC4/ADC_SAR_Seq_1.c ****                 CY_SET_REG32(ADC_SAR_Seq_1_SAR_INJ_CHAN_CONFIG_PTR, tmpRegVal | ADC_SAR_Seq_1_INJ_T
 216:.\Generated_Source\PSoC4/ADC_SAR_Seq_1.c **** 
 217:.\Generated_Source\PSoC4/ADC_SAR_Seq_1.c ****                 if((ADC_SAR_Seq_1_channelsConfig[chNum] & ADC_SAR_Seq_1_IS_SATURATE_EN_MASK) != 0u)
 218:.\Generated_Source\PSoC4/ADC_SAR_Seq_1.c ****                 {
 219:.\Generated_Source\PSoC4/ADC_SAR_Seq_1.c ****                     ADC_SAR_Seq_1_SAR_INTR_MASK_REG |= ADC_SAR_Seq_1_INJ_SATURATE_MASK;
 220:.\Generated_Source\PSoC4/ADC_SAR_Seq_1.c ****                 }
 221:.\Generated_Source\PSoC4/ADC_SAR_Seq_1.c **** 
 222:.\Generated_Source\PSoC4/ADC_SAR_Seq_1.c ****                 if((ADC_SAR_Seq_1_channelsConfig[chNum] & ADC_SAR_Seq_1_IS_RANGE_CTRL_EN_MASK) != 0
 223:.\Generated_Source\PSoC4/ADC_SAR_Seq_1.c ****                 {
 224:.\Generated_Source\PSoC4/ADC_SAR_Seq_1.c ****                     ADC_SAR_Seq_1_SAR_INTR_MASK_REG |= ADC_SAR_Seq_1_INJ_RANGE_MASK;
 225:.\Generated_Source\PSoC4/ADC_SAR_Seq_1.c ****                 }
 226:.\Generated_Source\PSoC4/ADC_SAR_Seq_1.c ****             }
 227:.\Generated_Source\PSoC4/ADC_SAR_Seq_1.c ****         #endif /* ADC_SAR_Seq_1_INJ_CHANNEL_ENABLED */
 228:.\Generated_Source\PSoC4/ADC_SAR_Seq_1.c **** 
 229:.\Generated_Source\PSoC4/ADC_SAR_Seq_1.c ****         if((ADC_SAR_Seq_1_channelsConfig[chNum] & ADC_SAR_Seq_1_ALT_RESOLUTION_ON) != 0u)
 230:.\Generated_Source\PSoC4/ADC_SAR_Seq_1.c ****         {
 231:.\Generated_Source\PSoC4/ADC_SAR_Seq_1.c ****                counts = (int32)ADC_SAR_Seq_1_DEFAULT_MAX_WRK_ALT;
 232:.\Generated_Source\PSoC4/ADC_SAR_Seq_1.c ****         }
 233:.\Generated_Source\PSoC4/ADC_SAR_Seq_1.c ****         else
 234:.\Generated_Source\PSoC4/ADC_SAR_Seq_1.c ****         {
ARM GAS  C:\Users\Steve\AppData\Local\Temp\cc8wnACi.s 			page 7


 235:.\Generated_Source\PSoC4/ADC_SAR_Seq_1.c ****                counts = (int32)ADC_SAR_Seq_1_SAR_WRK_MAX_12BIT;
 236:.\Generated_Source\PSoC4/ADC_SAR_Seq_1.c ****         }
 237:.\Generated_Source\PSoC4/ADC_SAR_Seq_1.c **** 
 238:.\Generated_Source\PSoC4/ADC_SAR_Seq_1.c ****         if((ADC_SAR_Seq_1_channelsConfig[chNum] & ADC_SAR_Seq_1_DIFFERENTIAL_EN) == 0u)
 239:.\Generated_Source\PSoC4/ADC_SAR_Seq_1.c ****         {  
 240:.\Generated_Source\PSoC4/ADC_SAR_Seq_1.c ****             #if((ADC_SAR_Seq_1_DEFAULT_SE_RESULT_FORMAT_SEL == ADC_SAR_Seq_1__FSIGNED) && \
 241:.\Generated_Source\PSoC4/ADC_SAR_Seq_1.c ****                 (ADC_SAR_Seq_1_DEFAULT_NEG_INPUT_SEL == ADC_SAR_Seq_1__VREF))
 242:.\Generated_Source\PSoC4/ADC_SAR_Seq_1.c ****                 /* Set offset to the minus half scale to convert results to unsigned format */
 243:.\Generated_Source\PSoC4/ADC_SAR_Seq_1.c ****                 ADC_SAR_Seq_1_offset[chNum] = (int16)(counts / -2);
 244:.\Generated_Source\PSoC4/ADC_SAR_Seq_1.c ****             #else    
 245:.\Generated_Source\PSoC4/ADC_SAR_Seq_1.c ****                 ADC_SAR_Seq_1_offset[chNum] = 0;
 103              		.loc 1 245 0
 104 005a 1849     		ldr	r1, .L2+72
 168:.\Generated_Source\PSoC4/ADC_SAR_Seq_1.c ****     tmpRegVal = ADC_SAR_Seq_1_SAR_DFT_CTRL_REG;
 105              		.loc 1 168 0
 106 005c 2068     		ldr	r0, [r4]
 107              	.LVL2:
 246:.\Generated_Source\PSoC4/ADC_SAR_Seq_1.c ****             #endif /* end DEFAULT_SE_RESULT_FORMAT_SEL == ADC_SAR_Seq_1__FSIGNED */    
 247:.\Generated_Source\PSoC4/ADC_SAR_Seq_1.c ****         }
 248:.\Generated_Source\PSoC4/ADC_SAR_Seq_1.c ****         else    /* Differential channel */
 249:.\Generated_Source\PSoC4/ADC_SAR_Seq_1.c ****         {
 250:.\Generated_Source\PSoC4/ADC_SAR_Seq_1.c ****             #if(ADC_SAR_Seq_1_DEFAULT_DIFF_RESULT_FORMAT_SEL == ADC_SAR_Seq_1__FUNSIGNED)
 251:.\Generated_Source\PSoC4/ADC_SAR_Seq_1.c ****                 /* Set offset to the half scale to convert results to signed format */
 252:.\Generated_Source\PSoC4/ADC_SAR_Seq_1.c ****                 ADC_SAR_Seq_1_offset[chNum] = (int16)(counts / 2);
 253:.\Generated_Source\PSoC4/ADC_SAR_Seq_1.c ****             #else    
 254:.\Generated_Source\PSoC4/ADC_SAR_Seq_1.c ****                 ADC_SAR_Seq_1_offset[chNum] = 0;
 255:.\Generated_Source\PSoC4/ADC_SAR_Seq_1.c ****             #endif /* end ADC_SAR_Seq_1_DEFAULT_DIFF_RESULT_FORMAT_SEL == ADC_SAR_Seq_1__FUNSIGNED 
 256:.\Generated_Source\PSoC4/ADC_SAR_Seq_1.c ****         }
 257:.\Generated_Source\PSoC4/ADC_SAR_Seq_1.c ****         /* Calculate gain in counts per 10 volts with rounding */
 258:.\Generated_Source\PSoC4/ADC_SAR_Seq_1.c ****         ADC_SAR_Seq_1_countsPer10Volt[chNum] = (int16)(((counts * ADC_SAR_Seq_1_10MV_COUNTS) + 
 259:.\Generated_Source\PSoC4/ADC_SAR_Seq_1.c ****                             ADC_SAR_Seq_1_DEFAULT_VREF_MV_VALUE) / (ADC_SAR_Seq_1_DEFAULT_VREF_MV_V
 260:.\Generated_Source\PSoC4/ADC_SAR_Seq_1.c ****     }
 261:.\Generated_Source\PSoC4/ADC_SAR_Seq_1.c **** }
 108              		.loc 1 261 0
 109              		@ sp needed for prologue
 173:.\Generated_Source\PSoC4/ADC_SAR_Seq_1.c ****         tmpRegVal |= ADC_SAR_Seq_1_DLY_INC;
 110              		.loc 1 173 0
 111 005e 0243     		orr	r2, r0
 112              	.LVL3:
 175:.\Generated_Source\PSoC4/ADC_SAR_Seq_1.c ****     ADC_SAR_Seq_1_SAR_DFT_CTRL_REG = tmpRegVal;
 113              		.loc 1 175 0
 114 0060 2260     		str	r2, [r4]
 115              	.LVL4:
 200:.\Generated_Source\PSoC4/ADC_SAR_Seq_1.c ****             CY_SET_REG32((reg32 *)(ADC_SAR_Seq_1_SAR_CHAN_CONFIG_IND + (uint32)(chNum << 2)), tmpRe
 116              		.loc 1 200 0
 117 0062 174A     		ldr	r2, .L2+76
 258:.\Generated_Source\PSoC4/ADC_SAR_Seq_1.c ****         ADC_SAR_Seq_1_countsPer10Volt[chNum] = (int16)(((counts * ADC_SAR_Seq_1_10MV_COUNTS) + 
 118              		.loc 1 258 0
 119 0064 1748     		ldr	r0, .L2+80
 200:.\Generated_Source\PSoC4/ADC_SAR_Seq_1.c ****             CY_SET_REG32((reg32 *)(ADC_SAR_Seq_1_SAR_CHAN_CONFIG_IND + (uint32)(chNum << 2)), tmpRe
 120              		.loc 1 200 0
 121 0066 1360     		str	r3, [r2]
 122              	.LVL5:
 245:.\Generated_Source\PSoC4/ADC_SAR_Seq_1.c ****                 ADC_SAR_Seq_1_offset[chNum] = 0;
 123              		.loc 1 245 0
 124 0068 0B80     		strh	r3, [r1]
 258:.\Generated_Source\PSoC4/ADC_SAR_Seq_1.c ****         ADC_SAR_Seq_1_countsPer10Volt[chNum] = (int16)(((counts * ADC_SAR_Seq_1_10MV_COUNTS) + 
ARM GAS  C:\Users\Steve\AppData\Local\Temp\cc8wnACi.s 			page 8


 125              		.loc 1 258 0
 126 006a 8023     		mov	r3, #128
 127 006c 5C01     		lsl	r4, r3, #5
 128 006e 0460     		str	r4, [r0]
 129              	.LVL6:
 130              		.loc 1 261 0
 131 0070 10BD     		pop	{r4, pc}
 132              	.L3:
 133 0072 C046     		.align	2
 134              	.L2:
 135 0074 00000000 		.word	ADC_SAR_Seq_1_ISR
 136 0078 20001A40 		.word	1075445792
 137 007c 70020051 		.word	1358955120
 138 0080 00001A40 		.word	1075445760
 139 0084 84000080 		.word	-2147483516
 140 0088 04001A40 		.word	1075445764
 141 008c 0000FF07 		.word	134152192
 142 0090 18001A40 		.word	1075445784
 143 0094 1C001A40 		.word	1075445788
 144 0098 04000400 		.word	262148
 145 009c 10001A40 		.word	1075445776
 146 00a0 14001A40 		.word	1075445780
 147 00a4 00031A40 		.word	1075446528
 148 00a8 28021A40 		.word	1075446312
 149 00ac 38021A40 		.word	1075446328
 150 00b0 18021A40 		.word	1075446296
 151 00b4 000F1A40 		.word	1075449600
 152 00b8 30001A40 		.word	1075445808
 153 00bc 00000000 		.word	ADC_SAR_Seq_1_offset
 154 00c0 80001A40 		.word	1075445888
 155 00c4 00000000 		.word	ADC_SAR_Seq_1_countsPer10Volt
 156              		.cfi_endproc
 157              	.LFE1:
 158              		.size	ADC_SAR_Seq_1_Init, .-ADC_SAR_Seq_1_Init
 159              		.section	.text.ADC_SAR_Seq_1_Enable,"ax",%progbits
 160              		.align	2
 161              		.global	ADC_SAR_Seq_1_Enable
 162              		.code	16
 163              		.thumb_func
 164              		.type	ADC_SAR_Seq_1_Enable, %function
 165              	ADC_SAR_Seq_1_Enable:
 166              	.LFB2:
 262:.\Generated_Source\PSoC4/ADC_SAR_Seq_1.c **** 
 263:.\Generated_Source\PSoC4/ADC_SAR_Seq_1.c **** /*******************************************************************************
 264:.\Generated_Source\PSoC4/ADC_SAR_Seq_1.c **** * Function Name: ADC_SAR_1_Enable
 265:.\Generated_Source\PSoC4/ADC_SAR_Seq_1.c **** ********************************************************************************
 266:.\Generated_Source\PSoC4/ADC_SAR_Seq_1.c **** *
 267:.\Generated_Source\PSoC4/ADC_SAR_Seq_1.c **** * Summary:
 268:.\Generated_Source\PSoC4/ADC_SAR_Seq_1.c **** *  Enables the clock and analog power for SAR ADC.
 269:.\Generated_Source\PSoC4/ADC_SAR_Seq_1.c **** *
 270:.\Generated_Source\PSoC4/ADC_SAR_Seq_1.c **** * Parameters:
 271:.\Generated_Source\PSoC4/ADC_SAR_Seq_1.c **** *  None.
 272:.\Generated_Source\PSoC4/ADC_SAR_Seq_1.c **** *
 273:.\Generated_Source\PSoC4/ADC_SAR_Seq_1.c **** * Return:
 274:.\Generated_Source\PSoC4/ADC_SAR_Seq_1.c **** *  None.
 275:.\Generated_Source\PSoC4/ADC_SAR_Seq_1.c **** *
 276:.\Generated_Source\PSoC4/ADC_SAR_Seq_1.c **** *******************************************************************************/
ARM GAS  C:\Users\Steve\AppData\Local\Temp\cc8wnACi.s 			page 9


 277:.\Generated_Source\PSoC4/ADC_SAR_Seq_1.c **** void ADC_SAR_Seq_1_Enable(void)
 278:.\Generated_Source\PSoC4/ADC_SAR_Seq_1.c **** {
 167              		.loc 1 278 0
 168              		.cfi_startproc
 169 0000 08B5     		push	{r3, lr}
 170              	.LCFI1:
 171              		.cfi_def_cfa_offset 8
 172              		.cfi_offset 3, -8
 173              		.cfi_offset 14, -4
 279:.\Generated_Source\PSoC4/ADC_SAR_Seq_1.c ****     ADC_SAR_Seq_1_SAR_CTRL_REG |= ADC_SAR_Seq_1_ENABLE;
 174              		.loc 1 279 0
 175 0002 054B     		ldr	r3, .L5
 176 0004 8022     		mov	r2, #128
 177 0006 1968     		ldr	r1, [r3]
 178 0008 1006     		lsl	r0, r2, #24
 179 000a 0843     		orr	r0, r1
 180 000c 1860     		str	r0, [r3]
 280:.\Generated_Source\PSoC4/ADC_SAR_Seq_1.c ****     /* The block is ready to use 10 us after the enable signal is set high. */
 281:.\Generated_Source\PSoC4/ADC_SAR_Seq_1.c ****     CyDelayUs(ADC_SAR_Seq_1_10US_DELAY);
 181              		.loc 1 281 0
 182 000e 0A20     		mov	r0, #10
 183 0010 FFF7FEFF 		bl	CyDelayUs
 184              	.LVL7:
 282:.\Generated_Source\PSoC4/ADC_SAR_Seq_1.c **** }
 185              		.loc 1 282 0
 186              		@ sp needed for prologue
 187 0014 08BD     		pop	{r3, pc}
 188              	.L6:
 189 0016 C046     		.align	2
 190              	.L5:
 191 0018 00001A40 		.word	1075445760
 192              		.cfi_endproc
 193              	.LFE2:
 194              		.size	ADC_SAR_Seq_1_Enable, .-ADC_SAR_Seq_1_Enable
 195              		.section	.text.ADC_SAR_Seq_1_Start,"ax",%progbits
 196              		.align	2
 197              		.global	ADC_SAR_Seq_1_Start
 198              		.code	16
 199              		.thumb_func
 200              		.type	ADC_SAR_Seq_1_Start, %function
 201              	ADC_SAR_Seq_1_Start:
 202              	.LFB0:
  65:.\Generated_Source\PSoC4/ADC_SAR_Seq_1.c **** {
 203              		.loc 1 65 0
 204              		.cfi_startproc
 205 0000 10B5     		push	{r4, lr}
 206              	.LCFI2:
 207              		.cfi_def_cfa_offset 8
 208              		.cfi_offset 4, -8
 209              		.cfi_offset 14, -4
  67:.\Generated_Source\PSoC4/ADC_SAR_Seq_1.c ****     if(ADC_SAR_Seq_1_initVar == 0u)
 210              		.loc 1 67 0
 211 0002 054C     		ldr	r4, .L10
 212 0004 2378     		ldrb	r3, [r4]
 213 0006 002B     		cmp	r3, #0
 214 0008 03D1     		bne	.L8
  69:.\Generated_Source\PSoC4/ADC_SAR_Seq_1.c ****         ADC_SAR_Seq_1_Init();
ARM GAS  C:\Users\Steve\AppData\Local\Temp\cc8wnACi.s 			page 10


 215              		.loc 1 69 0
 216 000a FFF7FEFF 		bl	ADC_SAR_Seq_1_Init
 217              	.LVL8:
  70:.\Generated_Source\PSoC4/ADC_SAR_Seq_1.c ****         ADC_SAR_Seq_1_initVar = 1u;
 218              		.loc 1 70 0
 219 000e 0120     		mov	r0, #1
 220 0010 2070     		strb	r0, [r4]
 221              	.L8:
  72:.\Generated_Source\PSoC4/ADC_SAR_Seq_1.c ****     ADC_SAR_Seq_1_Enable();
 222              		.loc 1 72 0
 223 0012 FFF7FEFF 		bl	ADC_SAR_Seq_1_Enable
 224              	.LVL9:
  73:.\Generated_Source\PSoC4/ADC_SAR_Seq_1.c **** }
 225              		.loc 1 73 0
 226              		@ sp needed for prologue
 227 0016 10BD     		pop	{r4, pc}
 228              	.L11:
 229              		.align	2
 230              	.L10:
 231 0018 00000000 		.word	.LANCHOR0
 232              		.cfi_endproc
 233              	.LFE0:
 234              		.size	ADC_SAR_Seq_1_Start, .-ADC_SAR_Seq_1_Start
 235              		.section	.text.ADC_SAR_Seq_1_Stop,"ax",%progbits
 236              		.align	2
 237              		.global	ADC_SAR_Seq_1_Stop
 238              		.code	16
 239              		.thumb_func
 240              		.type	ADC_SAR_Seq_1_Stop, %function
 241              	ADC_SAR_Seq_1_Stop:
 242              	.LFB3:
 283:.\Generated_Source\PSoC4/ADC_SAR_Seq_1.c **** 
 284:.\Generated_Source\PSoC4/ADC_SAR_Seq_1.c **** 
 285:.\Generated_Source\PSoC4/ADC_SAR_Seq_1.c **** /*******************************************************************************
 286:.\Generated_Source\PSoC4/ADC_SAR_Seq_1.c **** * Function Name: ADC_SAR_Seq_1_Stop
 287:.\Generated_Source\PSoC4/ADC_SAR_Seq_1.c **** ********************************************************************************
 288:.\Generated_Source\PSoC4/ADC_SAR_Seq_1.c **** *
 289:.\Generated_Source\PSoC4/ADC_SAR_Seq_1.c **** * Summary:
 290:.\Generated_Source\PSoC4/ADC_SAR_Seq_1.c **** *  This function stops ADC conversions and puts the ADC into its lowest power
 291:.\Generated_Source\PSoC4/ADC_SAR_Seq_1.c **** *  mode.
 292:.\Generated_Source\PSoC4/ADC_SAR_Seq_1.c **** *
 293:.\Generated_Source\PSoC4/ADC_SAR_Seq_1.c **** * Parameters:
 294:.\Generated_Source\PSoC4/ADC_SAR_Seq_1.c **** *  None.
 295:.\Generated_Source\PSoC4/ADC_SAR_Seq_1.c **** *
 296:.\Generated_Source\PSoC4/ADC_SAR_Seq_1.c **** * Return:
 297:.\Generated_Source\PSoC4/ADC_SAR_Seq_1.c **** *  None.
 298:.\Generated_Source\PSoC4/ADC_SAR_Seq_1.c **** *
 299:.\Generated_Source\PSoC4/ADC_SAR_Seq_1.c **** *******************************************************************************/
 300:.\Generated_Source\PSoC4/ADC_SAR_Seq_1.c **** void ADC_SAR_Seq_1_Stop(void)
 301:.\Generated_Source\PSoC4/ADC_SAR_Seq_1.c **** {
 243              		.loc 1 301 0
 244              		.cfi_startproc
 302:.\Generated_Source\PSoC4/ADC_SAR_Seq_1.c ****     ADC_SAR_Seq_1_SAR_CTRL_REG &= (uint32)~ADC_SAR_Seq_1_ENABLE;
 245              		.loc 1 302 0
 246 0000 024B     		ldr	r3, .L13
 303:.\Generated_Source\PSoC4/ADC_SAR_Seq_1.c **** }
 247              		.loc 1 303 0
ARM GAS  C:\Users\Steve\AppData\Local\Temp\cc8wnACi.s 			page 11


 248              		@ sp needed for prologue
 302:.\Generated_Source\PSoC4/ADC_SAR_Seq_1.c ****     ADC_SAR_Seq_1_SAR_CTRL_REG &= (uint32)~ADC_SAR_Seq_1_ENABLE;
 249              		.loc 1 302 0
 250 0002 1A68     		ldr	r2, [r3]
 251 0004 5000     		lsl	r0, r2, #1
 252 0006 4108     		lsr	r1, r0, #1
 253 0008 1960     		str	r1, [r3]
 254              		.loc 1 303 0
 255 000a 7047     		bx	lr
 256              	.L14:
 257              		.align	2
 258              	.L13:
 259 000c 00001A40 		.word	1075445760
 260              		.cfi_endproc
 261              	.LFE3:
 262              		.size	ADC_SAR_Seq_1_Stop, .-ADC_SAR_Seq_1_Stop
 263              		.section	.text.ADC_SAR_Seq_1_StartConvert,"ax",%progbits
 264              		.align	2
 265              		.global	ADC_SAR_Seq_1_StartConvert
 266              		.code	16
 267              		.thumb_func
 268              		.type	ADC_SAR_Seq_1_StartConvert, %function
 269              	ADC_SAR_Seq_1_StartConvert:
 270              	.LFB4:
 304:.\Generated_Source\PSoC4/ADC_SAR_Seq_1.c **** 
 305:.\Generated_Source\PSoC4/ADC_SAR_Seq_1.c **** 
 306:.\Generated_Source\PSoC4/ADC_SAR_Seq_1.c **** /*******************************************************************************
 307:.\Generated_Source\PSoC4/ADC_SAR_Seq_1.c **** * Function Name: ADC_SAR_Seq_1_StartConvert
 308:.\Generated_Source\PSoC4/ADC_SAR_Seq_1.c **** ********************************************************************************
 309:.\Generated_Source\PSoC4/ADC_SAR_Seq_1.c **** *
 310:.\Generated_Source\PSoC4/ADC_SAR_Seq_1.c **** * Summary:
 311:.\Generated_Source\PSoC4/ADC_SAR_Seq_1.c **** *  Description:
 312:.\Generated_Source\PSoC4/ADC_SAR_Seq_1.c **** *  For free running mode, this API starts the conversion process and it
 313:.\Generated_Source\PSoC4/ADC_SAR_Seq_1.c **** *  runs continuously.
 314:.\Generated_Source\PSoC4/ADC_SAR_Seq_1.c **** *
 315:.\Generated_Source\PSoC4/ADC_SAR_Seq_1.c **** *  In a triggered mode, this routine triggers every conversion by
 316:.\Generated_Source\PSoC4/ADC_SAR_Seq_1.c **** *  writing into the FW_TRIGGER bit in SAR_START_CTRL reg. In triggered mode,
 317:.\Generated_Source\PSoC4/ADC_SAR_Seq_1.c **** *  every conversion has to start by this API.
 318:.\Generated_Source\PSoC4/ADC_SAR_Seq_1.c **** *
 319:.\Generated_Source\PSoC4/ADC_SAR_Seq_1.c **** * Parameters:
 320:.\Generated_Source\PSoC4/ADC_SAR_Seq_1.c **** *  None.
 321:.\Generated_Source\PSoC4/ADC_SAR_Seq_1.c **** *
 322:.\Generated_Source\PSoC4/ADC_SAR_Seq_1.c **** * Return:
 323:.\Generated_Source\PSoC4/ADC_SAR_Seq_1.c **** *  None.
 324:.\Generated_Source\PSoC4/ADC_SAR_Seq_1.c **** *
 325:.\Generated_Source\PSoC4/ADC_SAR_Seq_1.c **** *******************************************************************************/
 326:.\Generated_Source\PSoC4/ADC_SAR_Seq_1.c **** void ADC_SAR_Seq_1_StartConvert(void)
 327:.\Generated_Source\PSoC4/ADC_SAR_Seq_1.c **** {
 271              		.loc 1 327 0
 272              		.cfi_startproc
 328:.\Generated_Source\PSoC4/ADC_SAR_Seq_1.c ****     #if(ADC_SAR_Seq_1_DEFAULT_SAMPLE_MODE_SEL == ADC_SAR_Seq_1__FREERUNNING)
 329:.\Generated_Source\PSoC4/ADC_SAR_Seq_1.c ****         ADC_SAR_Seq_1_SAR_SAMPLE_CTRL_REG |= ADC_SAR_Seq_1_CONTINUOUS_EN;
 273              		.loc 1 329 0
 274 0000 034B     		ldr	r3, .L16
 275 0002 8022     		mov	r2, #128
 276 0004 1968     		ldr	r1, [r3]
 277 0006 5002     		lsl	r0, r2, #9
ARM GAS  C:\Users\Steve\AppData\Local\Temp\cc8wnACi.s 			page 12


 278 0008 0843     		orr	r0, r1
 279 000a 1860     		str	r0, [r3]
 330:.\Generated_Source\PSoC4/ADC_SAR_Seq_1.c ****     #else /* Firmware trigger */
 331:.\Generated_Source\PSoC4/ADC_SAR_Seq_1.c ****         ADC_SAR_Seq_1_SAR_START_CTRL_REG = ADC_SAR_Seq_1_FW_TRIGGER;
 332:.\Generated_Source\PSoC4/ADC_SAR_Seq_1.c ****     #endif /* End ADC_SAR_Seq_1_DEFAULT_SAMPLE_MODE == ADC_SAR_Seq_1__FREERUNNING */
 333:.\Generated_Source\PSoC4/ADC_SAR_Seq_1.c **** 
 334:.\Generated_Source\PSoC4/ADC_SAR_Seq_1.c **** }
 280              		.loc 1 334 0
 281              		@ sp needed for prologue
 282 000c 7047     		bx	lr
 283              	.L17:
 284 000e C046     		.align	2
 285              	.L16:
 286 0010 04001A40 		.word	1075445764
 287              		.cfi_endproc
 288              	.LFE4:
 289              		.size	ADC_SAR_Seq_1_StartConvert, .-ADC_SAR_Seq_1_StartConvert
 290              		.section	.text.ADC_SAR_Seq_1_StopConvert,"ax",%progbits
 291              		.align	2
 292              		.global	ADC_SAR_Seq_1_StopConvert
 293              		.code	16
 294              		.thumb_func
 295              		.type	ADC_SAR_Seq_1_StopConvert, %function
 296              	ADC_SAR_Seq_1_StopConvert:
 297              	.LFB5:
 335:.\Generated_Source\PSoC4/ADC_SAR_Seq_1.c **** 
 336:.\Generated_Source\PSoC4/ADC_SAR_Seq_1.c **** 
 337:.\Generated_Source\PSoC4/ADC_SAR_Seq_1.c **** /*******************************************************************************
 338:.\Generated_Source\PSoC4/ADC_SAR_Seq_1.c **** * Function Name: ADC_SAR_Seq_1_StopConvert
 339:.\Generated_Source\PSoC4/ADC_SAR_Seq_1.c **** ********************************************************************************
 340:.\Generated_Source\PSoC4/ADC_SAR_Seq_1.c **** *
 341:.\Generated_Source\PSoC4/ADC_SAR_Seq_1.c **** * Summary:
 342:.\Generated_Source\PSoC4/ADC_SAR_Seq_1.c **** *  Forces the ADC to stop all conversions.
 343:.\Generated_Source\PSoC4/ADC_SAR_Seq_1.c **** *
 344:.\Generated_Source\PSoC4/ADC_SAR_Seq_1.c **** * Parameters:
 345:.\Generated_Source\PSoC4/ADC_SAR_Seq_1.c **** *  None.
 346:.\Generated_Source\PSoC4/ADC_SAR_Seq_1.c **** *
 347:.\Generated_Source\PSoC4/ADC_SAR_Seq_1.c **** * Return:
 348:.\Generated_Source\PSoC4/ADC_SAR_Seq_1.c **** *  None.
 349:.\Generated_Source\PSoC4/ADC_SAR_Seq_1.c **** *
 350:.\Generated_Source\PSoC4/ADC_SAR_Seq_1.c **** *******************************************************************************/
 351:.\Generated_Source\PSoC4/ADC_SAR_Seq_1.c **** void ADC_SAR_Seq_1_StopConvert(void)
 352:.\Generated_Source\PSoC4/ADC_SAR_Seq_1.c **** {
 298              		.loc 1 352 0
 299              		.cfi_startproc
 353:.\Generated_Source\PSoC4/ADC_SAR_Seq_1.c ****     #if(ADC_SAR_Seq_1_DEFAULT_SAMPLE_MODE_SEL == ADC_SAR_Seq_1__FREERUNNING)
 354:.\Generated_Source\PSoC4/ADC_SAR_Seq_1.c ****         ADC_SAR_Seq_1_SAR_SAMPLE_CTRL_REG &= (uint32)(~ADC_SAR_Seq_1_CONTINUOUS_EN);
 300              		.loc 1 354 0
 301 0000 024B     		ldr	r3, .L19
 302 0002 034A     		ldr	r2, .L19+4
 303 0004 1968     		ldr	r1, [r3]
 355:.\Generated_Source\PSoC4/ADC_SAR_Seq_1.c ****     #endif /* ADC_SAR_Seq_1_DEFAULT_SAMPLE_MODE == ADC_SAR_Seq_1__FREERUNNING */
 356:.\Generated_Source\PSoC4/ADC_SAR_Seq_1.c **** }
 304              		.loc 1 356 0
 305              		@ sp needed for prologue
 354:.\Generated_Source\PSoC4/ADC_SAR_Seq_1.c ****         ADC_SAR_Seq_1_SAR_SAMPLE_CTRL_REG &= (uint32)(~ADC_SAR_Seq_1_CONTINUOUS_EN);
 306              		.loc 1 354 0
ARM GAS  C:\Users\Steve\AppData\Local\Temp\cc8wnACi.s 			page 13


 307 0006 0A40     		and	r2, r1
 308 0008 1A60     		str	r2, [r3]
 309              		.loc 1 356 0
 310 000a 7047     		bx	lr
 311              	.L20:
 312              		.align	2
 313              	.L19:
 314 000c 04001A40 		.word	1075445764
 315 0010 FFFFFEFF 		.word	-65537
 316              		.cfi_endproc
 317              	.LFE5:
 318              		.size	ADC_SAR_Seq_1_StopConvert, .-ADC_SAR_Seq_1_StopConvert
 319              		.section	.text.ADC_SAR_Seq_1_IsEndConversion,"ax",%progbits
 320              		.align	2
 321              		.global	ADC_SAR_Seq_1_IsEndConversion
 322              		.code	16
 323              		.thumb_func
 324              		.type	ADC_SAR_Seq_1_IsEndConversion, %function
 325              	ADC_SAR_Seq_1_IsEndConversion:
 326              	.LFB6:
 357:.\Generated_Source\PSoC4/ADC_SAR_Seq_1.c **** 
 358:.\Generated_Source\PSoC4/ADC_SAR_Seq_1.c **** 
 359:.\Generated_Source\PSoC4/ADC_SAR_Seq_1.c **** /*******************************************************************************
 360:.\Generated_Source\PSoC4/ADC_SAR_Seq_1.c **** * Function Name: ADC_SAR_Seq_1_IsEndConversion
 361:.\Generated_Source\PSoC4/ADC_SAR_Seq_1.c **** ********************************************************************************
 362:.\Generated_Source\PSoC4/ADC_SAR_Seq_1.c **** *
 363:.\Generated_Source\PSoC4/ADC_SAR_Seq_1.c **** * Summary:
 364:.\Generated_Source\PSoC4/ADC_SAR_Seq_1.c **** *  Description: Checks for ADC end of conversion for the case one
 365:.\Generated_Source\PSoC4/ADC_SAR_Seq_1.c **** *  channel and end of scan for the case of multiple channels. It acts
 366:.\Generated_Source\PSoC4/ADC_SAR_Seq_1.c **** *  as a software version of the EOC. This function provides the
 367:.\Generated_Source\PSoC4/ADC_SAR_Seq_1.c **** *  programmer with two options. In one mode this function
 368:.\Generated_Source\PSoC4/ADC_SAR_Seq_1.c **** *  immediately returns with the conversion status. In the other mode,
 369:.\Generated_Source\PSoC4/ADC_SAR_Seq_1.c **** *  the function does not return (blocking) until the conversion has
 370:.\Generated_Source\PSoC4/ADC_SAR_Seq_1.c **** *  completed.
 371:.\Generated_Source\PSoC4/ADC_SAR_Seq_1.c **** *
 372:.\Generated_Source\PSoC4/ADC_SAR_Seq_1.c **** * Parameters:
 373:.\Generated_Source\PSoC4/ADC_SAR_Seq_1.c **** *  ADC_RETURN_STATUS        -> Immediately returns conversion result status
 374:.\Generated_Source\PSoC4/ADC_SAR_Seq_1.c **** *  ADC_WAIT_FOR_RESULT      -> Does not return until ADC complete
 375:.\Generated_Source\PSoC4/ADC_SAR_Seq_1.c **** *  ADC_RETURN_STATUS_INJ    -> Immediately returns conversion result status
 376:.\Generated_Source\PSoC4/ADC_SAR_Seq_1.c **** *                              for injection channel
 377:.\Generated_Source\PSoC4/ADC_SAR_Seq_1.c **** *  ADC_WAIT_FOR_RESULT_INJ  -> Does not return until ADC completes injection
 378:.\Generated_Source\PSoC4/ADC_SAR_Seq_1.c **** *                              channel conversion
 379:.\Generated_Source\PSoC4/ADC_SAR_Seq_1.c **** *
 380:.\Generated_Source\PSoC4/ADC_SAR_Seq_1.c **** * Return:
 381:.\Generated_Source\PSoC4/ADC_SAR_Seq_1.c **** *  If a non-zero value is returned, the last conversion or scan has completed.
 382:.\Generated_Source\PSoC4/ADC_SAR_Seq_1.c **** *  If the returned value is zero, the ADC is still in the process of a scan.
 383:.\Generated_Source\PSoC4/ADC_SAR_Seq_1.c **** *
 384:.\Generated_Source\PSoC4/ADC_SAR_Seq_1.c **** *******************************************************************************/
 385:.\Generated_Source\PSoC4/ADC_SAR_Seq_1.c **** uint32 ADC_SAR_Seq_1_IsEndConversion(uint32 retMode)
 386:.\Generated_Source\PSoC4/ADC_SAR_Seq_1.c **** {
 327              		.loc 1 386 0
 328              		.cfi_startproc
 329              	.LVL10:
 330 0000 011C     		mov	r1, r0
 331 0002 00B5     		push	{lr}
 332              	.LCFI3:
 333              		.cfi_def_cfa_offset 4
ARM GAS  C:\Users\Steve\AppData\Local\Temp\cc8wnACi.s 			page 14


 334              		.cfi_offset 14, -4
 387:.\Generated_Source\PSoC4/ADC_SAR_Seq_1.c ****     uint32 status = 0u;
 335              		.loc 1 387 0
 336 0004 0020     		mov	r0, #0
 337              	.LVL11:
 388:.\Generated_Source\PSoC4/ADC_SAR_Seq_1.c **** 
 389:.\Generated_Source\PSoC4/ADC_SAR_Seq_1.c ****     if((retMode & (ADC_SAR_Seq_1_RETURN_STATUS | ADC_SAR_Seq_1_WAIT_FOR_RESULT)) != 0u)
 338              		.loc 1 389 0
 339 0006 8B07     		lsl	r3, r1, #30
 340 0008 0DD0     		beq	.L26
 390:.\Generated_Source\PSoC4/ADC_SAR_Seq_1.c ****     {
 391:.\Generated_Source\PSoC4/ADC_SAR_Seq_1.c ****         do
 392:.\Generated_Source\PSoC4/ADC_SAR_Seq_1.c ****         {
 393:.\Generated_Source\PSoC4/ADC_SAR_Seq_1.c ****             status = ADC_SAR_Seq_1_SAR_INTR_REG & ADC_SAR_Seq_1_EOS_MASK;
 394:.\Generated_Source\PSoC4/ADC_SAR_Seq_1.c ****         }while((status == 0u) && ((retMode & ADC_SAR_Seq_1_WAIT_FOR_RESULT) != 0u));
 341              		.loc 1 394 0
 342 000a 0220     		mov	r0, #2
 393:.\Generated_Source\PSoC4/ADC_SAR_Seq_1.c ****             status = ADC_SAR_Seq_1_SAR_INTR_REG & ADC_SAR_Seq_1_EOS_MASK;
 343              		.loc 1 393 0
 344 000c 064A     		ldr	r2, .L31
 345 000e 0123     		mov	r3, #1
 346              		.loc 1 394 0
 347 0010 0140     		and	r1, r0
 348              	.LVL12:
 349 0012 01E0     		b	.L27
 350              	.LVL13:
 351              	.L30:
 352              		.loc 1 394 0 is_stmt 0 discriminator 1
 353 0014 0029     		cmp	r1, #0
 354 0016 06D0     		beq	.L26
 355              	.LVL14:
 356              	.L27:
 393:.\Generated_Source\PSoC4/ADC_SAR_Seq_1.c ****             status = ADC_SAR_Seq_1_SAR_INTR_REG & ADC_SAR_Seq_1_EOS_MASK;
 357              		.loc 1 393 0 is_stmt 1
 358 0018 1068     		ldr	r0, [r2]
 359 001a 1840     		and	r0, r3
 360              	.LVL15:
 361              		.loc 1 394 0
 362 001c FAD0     		beq	.L30
 395:.\Generated_Source\PSoC4/ADC_SAR_Seq_1.c **** 
 396:.\Generated_Source\PSoC4/ADC_SAR_Seq_1.c ****         if(status != 0u)
 397:.\Generated_Source\PSoC4/ADC_SAR_Seq_1.c ****         {
 398:.\Generated_Source\PSoC4/ADC_SAR_Seq_1.c ****             /* Clear EOS bit */
 399:.\Generated_Source\PSoC4/ADC_SAR_Seq_1.c ****             ADC_SAR_Seq_1_SAR_INTR_REG = ADC_SAR_Seq_1_EOS_MASK;
 363              		.loc 1 399 0
 364 001e 024A     		ldr	r2, .L31
 365 0020 0121     		mov	r1, #1
 366 0022 1160     		str	r1, [r2]
 367 0024 0120     		mov	r0, #1
 368              	.LVL16:
 369              	.L26:
 400:.\Generated_Source\PSoC4/ADC_SAR_Seq_1.c ****         }
 401:.\Generated_Source\PSoC4/ADC_SAR_Seq_1.c ****     }
 402:.\Generated_Source\PSoC4/ADC_SAR_Seq_1.c **** 
 403:.\Generated_Source\PSoC4/ADC_SAR_Seq_1.c ****     #if(ADC_SAR_Seq_1_INJ_CHANNEL_ENABLED)
 404:.\Generated_Source\PSoC4/ADC_SAR_Seq_1.c ****         if((retMode & (ADC_SAR_Seq_1_RETURN_STATUS_INJ | ADC_SAR_Seq_1_WAIT_FOR_RESULT_INJ)) != 0u)
 405:.\Generated_Source\PSoC4/ADC_SAR_Seq_1.c ****         {
ARM GAS  C:\Users\Steve\AppData\Local\Temp\cc8wnACi.s 			page 15


 406:.\Generated_Source\PSoC4/ADC_SAR_Seq_1.c ****             do
 407:.\Generated_Source\PSoC4/ADC_SAR_Seq_1.c ****             {
 408:.\Generated_Source\PSoC4/ADC_SAR_Seq_1.c ****                 status |= ADC_SAR_Seq_1_SAR_INTR_REG & ADC_SAR_Seq_1_INJ_EOC_MASK;
 409:.\Generated_Source\PSoC4/ADC_SAR_Seq_1.c ****             }while(((status & ADC_SAR_Seq_1_INJ_EOC_MASK) != 0u) &&
 410:.\Generated_Source\PSoC4/ADC_SAR_Seq_1.c ****                    ((retMode & ADC_SAR_Seq_1_WAIT_FOR_RESULT_INJ) != 0u));
 411:.\Generated_Source\PSoC4/ADC_SAR_Seq_1.c **** 
 412:.\Generated_Source\PSoC4/ADC_SAR_Seq_1.c ****             if((status & ADC_SAR_Seq_1_INJ_EOC_MASK) != 0u)
 413:.\Generated_Source\PSoC4/ADC_SAR_Seq_1.c ****             {
 414:.\Generated_Source\PSoC4/ADC_SAR_Seq_1.c ****                 /* Clear Injection EOS bit */
 415:.\Generated_Source\PSoC4/ADC_SAR_Seq_1.c ****                 ADC_SAR_Seq_1_SAR_INTR_REG = ADC_SAR_Seq_1_INJ_EOC_MASK;
 416:.\Generated_Source\PSoC4/ADC_SAR_Seq_1.c ****             }
 417:.\Generated_Source\PSoC4/ADC_SAR_Seq_1.c ****         }
 418:.\Generated_Source\PSoC4/ADC_SAR_Seq_1.c ****     #endif /* ADC_SAR_Seq_1_INJ_CHANNEL_ENABLED */
 419:.\Generated_Source\PSoC4/ADC_SAR_Seq_1.c **** 
 420:.\Generated_Source\PSoC4/ADC_SAR_Seq_1.c ****     return (status);
 421:.\Generated_Source\PSoC4/ADC_SAR_Seq_1.c **** }
 370              		.loc 1 421 0
 371              		@ sp needed for prologue
 372 0026 00BD     		pop	{pc}
 373              	.L32:
 374              		.align	2
 375              	.L31:
 376 0028 10021A40 		.word	1075446288
 377              		.cfi_endproc
 378              	.LFE6:
 379              		.size	ADC_SAR_Seq_1_IsEndConversion, .-ADC_SAR_Seq_1_IsEndConversion
 380              		.section	.text.ADC_SAR_Seq_1_GetResult16,"ax",%progbits
 381              		.align	2
 382              		.global	ADC_SAR_Seq_1_GetResult16
 383              		.code	16
 384              		.thumb_func
 385              		.type	ADC_SAR_Seq_1_GetResult16, %function
 386              	ADC_SAR_Seq_1_GetResult16:
 387              	.LFB7:
 422:.\Generated_Source\PSoC4/ADC_SAR_Seq_1.c **** 
 423:.\Generated_Source\PSoC4/ADC_SAR_Seq_1.c **** 
 424:.\Generated_Source\PSoC4/ADC_SAR_Seq_1.c **** /*******************************************************************************
 425:.\Generated_Source\PSoC4/ADC_SAR_Seq_1.c **** * Function Name: ADC_SAR_Seq_1_GetResult16
 426:.\Generated_Source\PSoC4/ADC_SAR_Seq_1.c **** ********************************************************************************
 427:.\Generated_Source\PSoC4/ADC_SAR_Seq_1.c **** *
 428:.\Generated_Source\PSoC4/ADC_SAR_Seq_1.c **** * Summary:
 429:.\Generated_Source\PSoC4/ADC_SAR_Seq_1.c **** *  Gets the data available in the SAR DATA register.
 430:.\Generated_Source\PSoC4/ADC_SAR_Seq_1.c **** *
 431:.\Generated_Source\PSoC4/ADC_SAR_Seq_1.c **** * Parameters:
 432:.\Generated_Source\PSoC4/ADC_SAR_Seq_1.c **** *  chan: The ADC channel in which to return the result. The first channel
 433:.\Generated_Source\PSoC4/ADC_SAR_Seq_1.c **** *  is 0 and the injection channel if enabled is the number of valid channels.
 434:.\Generated_Source\PSoC4/ADC_SAR_Seq_1.c **** *
 435:.\Generated_Source\PSoC4/ADC_SAR_Seq_1.c **** * Return:
 436:.\Generated_Source\PSoC4/ADC_SAR_Seq_1.c **** *  Returns converted data as a signed 16-bit integer
 437:.\Generated_Source\PSoC4/ADC_SAR_Seq_1.c **** *
 438:.\Generated_Source\PSoC4/ADC_SAR_Seq_1.c **** *******************************************************************************/
 439:.\Generated_Source\PSoC4/ADC_SAR_Seq_1.c **** int16 ADC_SAR_Seq_1_GetResult16(uint32 chan)
 440:.\Generated_Source\PSoC4/ADC_SAR_Seq_1.c **** {
 388              		.loc 1 440 0
 389              		.cfi_startproc
 390              	.LVL17:
 391 0000 08B5     		push	{r3, lr}
ARM GAS  C:\Users\Steve\AppData\Local\Temp\cc8wnACi.s 			page 16


 392              	.LCFI4:
 393              		.cfi_def_cfa_offset 8
 394              		.cfi_offset 3, -8
 395              		.cfi_offset 14, -4
 441:.\Generated_Source\PSoC4/ADC_SAR_Seq_1.c ****     uint32 result;
 442:.\Generated_Source\PSoC4/ADC_SAR_Seq_1.c **** 
 443:.\Generated_Source\PSoC4/ADC_SAR_Seq_1.c ****     /* Halt CPU in debug mode if channel is out of valid range */
 444:.\Generated_Source\PSoC4/ADC_SAR_Seq_1.c ****     CYASSERT(chan < ADC_SAR_Seq_1_TOTAL_CHANNELS_NUM);
 396              		.loc 1 444 0
 397 0002 0028     		cmp	r0, #0
 398 0004 05D1     		bne	.L37
 445:.\Generated_Source\PSoC4/ADC_SAR_Seq_1.c **** 
 446:.\Generated_Source\PSoC4/ADC_SAR_Seq_1.c ****     if(chan < ADC_SAR_Seq_1_SEQUENCED_CHANNELS_NUM)
 447:.\Generated_Source\PSoC4/ADC_SAR_Seq_1.c ****     {
 448:.\Generated_Source\PSoC4/ADC_SAR_Seq_1.c ****         result = CY_GET_REG32((reg32 *)(ADC_SAR_Seq_1_SAR_CHAN_RESULT_IND + (uint32)(chan << 2u))) 
 399              		.loc 1 448 0
 400 0006 054B     		ldr	r3, .L38
 401 0008 1868     		ldr	r0, [r3]
 402              	.LVL18:
 403 000a 0104     		lsl	r1, r0, #16
 404 000c 0A0C     		lsr	r2, r1, #16
 405              	.LVL19:
 406              	.L35:
 449:.\Generated_Source\PSoC4/ADC_SAR_Seq_1.c ****                 ADC_SAR_Seq_1_RESULT_MASK;
 450:.\Generated_Source\PSoC4/ADC_SAR_Seq_1.c ****     }
 451:.\Generated_Source\PSoC4/ADC_SAR_Seq_1.c ****     else
 452:.\Generated_Source\PSoC4/ADC_SAR_Seq_1.c ****     {
 453:.\Generated_Source\PSoC4/ADC_SAR_Seq_1.c ****         #if(ADC_SAR_Seq_1_INJ_CHANNEL_ENABLED)
 454:.\Generated_Source\PSoC4/ADC_SAR_Seq_1.c ****             result = ADC_SAR_Seq_1_SAR_INJ_RESULT_REG & ADC_SAR_Seq_1_RESULT_MASK;
 455:.\Generated_Source\PSoC4/ADC_SAR_Seq_1.c ****         #else
 456:.\Generated_Source\PSoC4/ADC_SAR_Seq_1.c ****             result = 0u;
 457:.\Generated_Source\PSoC4/ADC_SAR_Seq_1.c ****         #endif /* ADC_SAR_Seq_1_INJ_CHANNEL_ENABLED */
 458:.\Generated_Source\PSoC4/ADC_SAR_Seq_1.c ****     }
 459:.\Generated_Source\PSoC4/ADC_SAR_Seq_1.c **** 
 460:.\Generated_Source\PSoC4/ADC_SAR_Seq_1.c ****     return ( (int16)result );
 407              		.loc 1 460 0
 408 000e 10B2     		sxth	r0, r2
 461:.\Generated_Source\PSoC4/ADC_SAR_Seq_1.c **** }
 409              		.loc 1 461 0
 410              		@ sp needed for prologue
 411 0010 08BD     		pop	{r3, pc}
 412              	.LVL20:
 413              	.L37:
 444:.\Generated_Source\PSoC4/ADC_SAR_Seq_1.c ****     CYASSERT(chan < ADC_SAR_Seq_1_TOTAL_CHANNELS_NUM);
 414              		.loc 1 444 0 discriminator 1
 415 0012 0020     		mov	r0, #0
 416              	.LVL21:
 417 0014 FFF7FEFF 		bl	CyHalt
 418              	.LVL22:
 419 0018 0022     		mov	r2, #0
 420 001a F8E7     		b	.L35
 421              	.L39:
 422              		.align	2
 423              	.L38:
 424 001c 80011A40 		.word	1075446144
 425              		.cfi_endproc
 426              	.LFE7:
ARM GAS  C:\Users\Steve\AppData\Local\Temp\cc8wnACi.s 			page 17


 427              		.size	ADC_SAR_Seq_1_GetResult16, .-ADC_SAR_Seq_1_GetResult16
 428              		.section	.text.ADC_SAR_Seq_1_SetChanMask,"ax",%progbits
 429              		.align	2
 430              		.global	ADC_SAR_Seq_1_SetChanMask
 431              		.code	16
 432              		.thumb_func
 433              		.type	ADC_SAR_Seq_1_SetChanMask, %function
 434              	ADC_SAR_Seq_1_SetChanMask:
 435              	.LFB8:
 462:.\Generated_Source\PSoC4/ADC_SAR_Seq_1.c **** 
 463:.\Generated_Source\PSoC4/ADC_SAR_Seq_1.c **** 
 464:.\Generated_Source\PSoC4/ADC_SAR_Seq_1.c **** /*******************************************************************************
 465:.\Generated_Source\PSoC4/ADC_SAR_Seq_1.c **** * Function Name: ADC_SAR_Seq_1_SetChanMask
 466:.\Generated_Source\PSoC4/ADC_SAR_Seq_1.c **** ********************************************************************************
 467:.\Generated_Source\PSoC4/ADC_SAR_Seq_1.c **** *
 468:.\Generated_Source\PSoC4/ADC_SAR_Seq_1.c **** * Summary:
 469:.\Generated_Source\PSoC4/ADC_SAR_Seq_1.c **** *  Sets the channel enable mask.
 470:.\Generated_Source\PSoC4/ADC_SAR_Seq_1.c **** *
 471:.\Generated_Source\PSoC4/ADC_SAR_Seq_1.c **** * Parameters:
 472:.\Generated_Source\PSoC4/ADC_SAR_Seq_1.c **** *  mask: Sets which channels that will be
 473:.\Generated_Source\PSoC4/ADC_SAR_Seq_1.c **** *  scanned. Setting bits for channels that do not exist will have no
 474:.\Generated_Source\PSoC4/ADC_SAR_Seq_1.c **** *  effect. For example, if only 6 channels were enabled, setting a
 475:.\Generated_Source\PSoC4/ADC_SAR_Seq_1.c **** *  mask of 0x0103 would only enable the last two channels (0 and 1).
 476:.\Generated_Source\PSoC4/ADC_SAR_Seq_1.c **** *  This API will not enable the injection channel.
 477:.\Generated_Source\PSoC4/ADC_SAR_Seq_1.c **** *  Examples: If the component is setup to sequence through 8
 478:.\Generated_Source\PSoC4/ADC_SAR_Seq_1.c **** *  channels, a mask of 0x000F would enable channels 0, 1, 2, and 3.
 479:.\Generated_Source\PSoC4/ADC_SAR_Seq_1.c **** *
 480:.\Generated_Source\PSoC4/ADC_SAR_Seq_1.c **** * Return:
 481:.\Generated_Source\PSoC4/ADC_SAR_Seq_1.c **** *  None.
 482:.\Generated_Source\PSoC4/ADC_SAR_Seq_1.c **** *
 483:.\Generated_Source\PSoC4/ADC_SAR_Seq_1.c **** *******************************************************************************/
 484:.\Generated_Source\PSoC4/ADC_SAR_Seq_1.c **** void ADC_SAR_Seq_1_SetChanMask(uint32 mask)
 485:.\Generated_Source\PSoC4/ADC_SAR_Seq_1.c **** {
 436              		.loc 1 485 0
 437              		.cfi_startproc
 438              	.LVL23:
 486:.\Generated_Source\PSoC4/ADC_SAR_Seq_1.c ****     ADC_SAR_Seq_1_SAR_CHAN_EN_REG = mask & ADC_SAR_Seq_1_MAX_CHANNELS_EN_MASK;
 439              		.loc 1 486 0
 440 0000 0123     		mov	r3, #1
 441 0002 0249     		ldr	r1, .L41
 442 0004 1840     		and	r0, r3
 443              	.LVL24:
 444 0006 0860     		str	r0, [r1]
 487:.\Generated_Source\PSoC4/ADC_SAR_Seq_1.c **** }
 445              		.loc 1 487 0
 446              		@ sp needed for prologue
 447 0008 7047     		bx	lr
 448              	.L42:
 449 000a C046     		.align	2
 450              	.L41:
 451 000c 20001A40 		.word	1075445792
 452              		.cfi_endproc
 453              	.LFE8:
 454              		.size	ADC_SAR_Seq_1_SetChanMask, .-ADC_SAR_Seq_1_SetChanMask
 455              		.section	.text.ADC_SAR_Seq_1_SetLowLimit,"ax",%progbits
 456              		.align	2
 457              		.global	ADC_SAR_Seq_1_SetLowLimit
ARM GAS  C:\Users\Steve\AppData\Local\Temp\cc8wnACi.s 			page 18


 458              		.code	16
 459              		.thumb_func
 460              		.type	ADC_SAR_Seq_1_SetLowLimit, %function
 461              	ADC_SAR_Seq_1_SetLowLimit:
 462              	.LFB9:
 488:.\Generated_Source\PSoC4/ADC_SAR_Seq_1.c **** 
 489:.\Generated_Source\PSoC4/ADC_SAR_Seq_1.c **** #if(ADC_SAR_Seq_1_INJ_CHANNEL_ENABLED)
 490:.\Generated_Source\PSoC4/ADC_SAR_Seq_1.c **** 
 491:.\Generated_Source\PSoC4/ADC_SAR_Seq_1.c **** 
 492:.\Generated_Source\PSoC4/ADC_SAR_Seq_1.c ****     /*******************************************************************************
 493:.\Generated_Source\PSoC4/ADC_SAR_Seq_1.c ****     * Function Name: ADC_SAR_Seq_1_EnableInjection
 494:.\Generated_Source\PSoC4/ADC_SAR_Seq_1.c ****     ********************************************************************************
 495:.\Generated_Source\PSoC4/ADC_SAR_Seq_1.c ****     *
 496:.\Generated_Source\PSoC4/ADC_SAR_Seq_1.c ****     * Summary:
 497:.\Generated_Source\PSoC4/ADC_SAR_Seq_1.c ****     *  Enables the injection channel for the next scan only.
 498:.\Generated_Source\PSoC4/ADC_SAR_Seq_1.c ****     *
 499:.\Generated_Source\PSoC4/ADC_SAR_Seq_1.c ****     * Parameters:
 500:.\Generated_Source\PSoC4/ADC_SAR_Seq_1.c ****     *  None.
 501:.\Generated_Source\PSoC4/ADC_SAR_Seq_1.c ****     *
 502:.\Generated_Source\PSoC4/ADC_SAR_Seq_1.c ****     * Return:
 503:.\Generated_Source\PSoC4/ADC_SAR_Seq_1.c ****     *  None.
 504:.\Generated_Source\PSoC4/ADC_SAR_Seq_1.c ****     *
 505:.\Generated_Source\PSoC4/ADC_SAR_Seq_1.c ****     *******************************************************************************/
 506:.\Generated_Source\PSoC4/ADC_SAR_Seq_1.c ****     void ADC_SAR_Seq_1_EnableInjection(void)
 507:.\Generated_Source\PSoC4/ADC_SAR_Seq_1.c ****     {
 508:.\Generated_Source\PSoC4/ADC_SAR_Seq_1.c ****         ADC_SAR_Seq_1_SAR_INJ_CHAN_CONFIG_REG |= ADC_SAR_Seq_1_INJ_CHAN_EN;
 509:.\Generated_Source\PSoC4/ADC_SAR_Seq_1.c ****     }
 510:.\Generated_Source\PSoC4/ADC_SAR_Seq_1.c **** 
 511:.\Generated_Source\PSoC4/ADC_SAR_Seq_1.c **** #endif /* ADC_SAR_Seq_1_INJ_CHANNEL_ENABLED */
 512:.\Generated_Source\PSoC4/ADC_SAR_Seq_1.c **** 
 513:.\Generated_Source\PSoC4/ADC_SAR_Seq_1.c **** 
 514:.\Generated_Source\PSoC4/ADC_SAR_Seq_1.c **** /*******************************************************************************
 515:.\Generated_Source\PSoC4/ADC_SAR_Seq_1.c **** * Function Name: ADC_SAR_Seq_1_SetLowLimit
 516:.\Generated_Source\PSoC4/ADC_SAR_Seq_1.c **** ********************************************************************************
 517:.\Generated_Source\PSoC4/ADC_SAR_Seq_1.c **** *
 518:.\Generated_Source\PSoC4/ADC_SAR_Seq_1.c **** * Summary:
 519:.\Generated_Source\PSoC4/ADC_SAR_Seq_1.c **** *  Sets the low limit parameter for a limit condition.
 520:.\Generated_Source\PSoC4/ADC_SAR_Seq_1.c **** *
 521:.\Generated_Source\PSoC4/ADC_SAR_Seq_1.c **** * Parameters:
 522:.\Generated_Source\PSoC4/ADC_SAR_Seq_1.c **** *  lowLimit: The low limit for a limit condition.
 523:.\Generated_Source\PSoC4/ADC_SAR_Seq_1.c **** *
 524:.\Generated_Source\PSoC4/ADC_SAR_Seq_1.c **** * Return:
 525:.\Generated_Source\PSoC4/ADC_SAR_Seq_1.c **** *  None.
 526:.\Generated_Source\PSoC4/ADC_SAR_Seq_1.c **** *
 527:.\Generated_Source\PSoC4/ADC_SAR_Seq_1.c **** *******************************************************************************/
 528:.\Generated_Source\PSoC4/ADC_SAR_Seq_1.c **** void ADC_SAR_Seq_1_SetLowLimit(uint32 lowLimit)
 529:.\Generated_Source\PSoC4/ADC_SAR_Seq_1.c **** {
 463              		.loc 1 529 0
 464              		.cfi_startproc
 465              	.LVL25:
 530:.\Generated_Source\PSoC4/ADC_SAR_Seq_1.c ****     ADC_SAR_Seq_1_SAR_RANGE_THRES_REG &= (uint32)(~ADC_SAR_Seq_1_RANGE_LOW_MASK);
 466              		.loc 1 530 0
 467 0000 054B     		ldr	r3, .L44
 531:.\Generated_Source\PSoC4/ADC_SAR_Seq_1.c ****     ADC_SAR_Seq_1_SAR_RANGE_THRES_REG |= lowLimit & ADC_SAR_Seq_1_RANGE_LOW_MASK;
 468              		.loc 1 531 0
 469 0002 0004     		lsl	r0, r0, #16
 470              	.LVL26:
ARM GAS  C:\Users\Steve\AppData\Local\Temp\cc8wnACi.s 			page 19


 530:.\Generated_Source\PSoC4/ADC_SAR_Seq_1.c ****     ADC_SAR_Seq_1_SAR_RANGE_THRES_REG &= (uint32)(~ADC_SAR_Seq_1_RANGE_LOW_MASK);
 471              		.loc 1 530 0
 472 0004 1A68     		ldr	r2, [r3]
 532:.\Generated_Source\PSoC4/ADC_SAR_Seq_1.c **** }
 473              		.loc 1 532 0
 474              		@ sp needed for prologue
 530:.\Generated_Source\PSoC4/ADC_SAR_Seq_1.c ****     ADC_SAR_Seq_1_SAR_RANGE_THRES_REG &= (uint32)(~ADC_SAR_Seq_1_RANGE_LOW_MASK);
 475              		.loc 1 530 0
 476 0006 110C     		lsr	r1, r2, #16
 477 0008 0A04     		lsl	r2, r1, #16
 478 000a 1A60     		str	r2, [r3]
 531:.\Generated_Source\PSoC4/ADC_SAR_Seq_1.c ****     ADC_SAR_Seq_1_SAR_RANGE_THRES_REG |= lowLimit & ADC_SAR_Seq_1_RANGE_LOW_MASK;
 479              		.loc 1 531 0
 480 000c 1968     		ldr	r1, [r3]
 481 000e 020C     		lsr	r2, r0, #16
 482 0010 0A43     		orr	r2, r1
 483 0012 1A60     		str	r2, [r3]
 484              		.loc 1 532 0
 485 0014 7047     		bx	lr
 486              	.L45:
 487 0016 C046     		.align	2
 488              	.L44:
 489 0018 18001A40 		.word	1075445784
 490              		.cfi_endproc
 491              	.LFE9:
 492              		.size	ADC_SAR_Seq_1_SetLowLimit, .-ADC_SAR_Seq_1_SetLowLimit
 493              		.section	.text.ADC_SAR_Seq_1_SetHighLimit,"ax",%progbits
 494              		.align	2
 495              		.global	ADC_SAR_Seq_1_SetHighLimit
 496              		.code	16
 497              		.thumb_func
 498              		.type	ADC_SAR_Seq_1_SetHighLimit, %function
 499              	ADC_SAR_Seq_1_SetHighLimit:
 500              	.LFB10:
 533:.\Generated_Source\PSoC4/ADC_SAR_Seq_1.c **** 
 534:.\Generated_Source\PSoC4/ADC_SAR_Seq_1.c **** 
 535:.\Generated_Source\PSoC4/ADC_SAR_Seq_1.c **** /*******************************************************************************
 536:.\Generated_Source\PSoC4/ADC_SAR_Seq_1.c **** * Function Name: ADC_SAR_Seq_1_SetHighLimit
 537:.\Generated_Source\PSoC4/ADC_SAR_Seq_1.c **** ********************************************************************************
 538:.\Generated_Source\PSoC4/ADC_SAR_Seq_1.c **** *
 539:.\Generated_Source\PSoC4/ADC_SAR_Seq_1.c **** * Summary:
 540:.\Generated_Source\PSoC4/ADC_SAR_Seq_1.c **** *  Sets the low limit parameter for a limit condition.
 541:.\Generated_Source\PSoC4/ADC_SAR_Seq_1.c **** *
 542:.\Generated_Source\PSoC4/ADC_SAR_Seq_1.c **** * Parameters:
 543:.\Generated_Source\PSoC4/ADC_SAR_Seq_1.c **** *  highLimit: The high limit for a limit condition.
 544:.\Generated_Source\PSoC4/ADC_SAR_Seq_1.c **** *
 545:.\Generated_Source\PSoC4/ADC_SAR_Seq_1.c **** * Return:
 546:.\Generated_Source\PSoC4/ADC_SAR_Seq_1.c **** *  None.
 547:.\Generated_Source\PSoC4/ADC_SAR_Seq_1.c **** *
 548:.\Generated_Source\PSoC4/ADC_SAR_Seq_1.c **** *******************************************************************************/
 549:.\Generated_Source\PSoC4/ADC_SAR_Seq_1.c **** void ADC_SAR_Seq_1_SetHighLimit(uint32 highLimit)
 550:.\Generated_Source\PSoC4/ADC_SAR_Seq_1.c **** {
 501              		.loc 1 550 0
 502              		.cfi_startproc
 503              	.LVL27:
 551:.\Generated_Source\PSoC4/ADC_SAR_Seq_1.c ****     ADC_SAR_Seq_1_SAR_RANGE_THRES_REG &= (uint32)(~ADC_SAR_Seq_1_RANGE_HIGH_MASK);
 504              		.loc 1 551 0
ARM GAS  C:\Users\Steve\AppData\Local\Temp\cc8wnACi.s 			page 20


 505 0000 044B     		ldr	r3, .L47
 552:.\Generated_Source\PSoC4/ADC_SAR_Seq_1.c ****     ADC_SAR_Seq_1_SAR_RANGE_THRES_REG |= (uint32)(highLimit << ADC_SAR_Seq_1_RANGE_HIGH_OFFSET);
 506              		.loc 1 552 0
 507 0002 0004     		lsl	r0, r0, #16
 508              	.LVL28:
 551:.\Generated_Source\PSoC4/ADC_SAR_Seq_1.c ****     ADC_SAR_Seq_1_SAR_RANGE_THRES_REG &= (uint32)(~ADC_SAR_Seq_1_RANGE_HIGH_MASK);
 509              		.loc 1 551 0
 510 0004 1A68     		ldr	r2, [r3]
 553:.\Generated_Source\PSoC4/ADC_SAR_Seq_1.c **** }
 511              		.loc 1 553 0
 512              		@ sp needed for prologue
 551:.\Generated_Source\PSoC4/ADC_SAR_Seq_1.c ****     ADC_SAR_Seq_1_SAR_RANGE_THRES_REG &= (uint32)(~ADC_SAR_Seq_1_RANGE_HIGH_MASK);
 513              		.loc 1 551 0
 514 0006 1104     		lsl	r1, r2, #16
 515 0008 0A0C     		lsr	r2, r1, #16
 516 000a 1A60     		str	r2, [r3]
 552:.\Generated_Source\PSoC4/ADC_SAR_Seq_1.c ****     ADC_SAR_Seq_1_SAR_RANGE_THRES_REG |= (uint32)(highLimit << ADC_SAR_Seq_1_RANGE_HIGH_OFFSET);
 517              		.loc 1 552 0
 518 000c 1968     		ldr	r1, [r3]
 519 000e 0843     		orr	r0, r1
 520 0010 1860     		str	r0, [r3]
 521              		.loc 1 553 0
 522 0012 7047     		bx	lr
 523              	.L48:
 524              		.align	2
 525              	.L47:
 526 0014 18001A40 		.word	1075445784
 527              		.cfi_endproc
 528              	.LFE10:
 529              		.size	ADC_SAR_Seq_1_SetHighLimit, .-ADC_SAR_Seq_1_SetHighLimit
 530              		.section	.text.ADC_SAR_Seq_1_SetLimitMask,"ax",%progbits
 531              		.align	2
 532              		.global	ADC_SAR_Seq_1_SetLimitMask
 533              		.code	16
 534              		.thumb_func
 535              		.type	ADC_SAR_Seq_1_SetLimitMask, %function
 536              	ADC_SAR_Seq_1_SetLimitMask:
 537              	.LFB11:
 554:.\Generated_Source\PSoC4/ADC_SAR_Seq_1.c **** 
 555:.\Generated_Source\PSoC4/ADC_SAR_Seq_1.c **** 
 556:.\Generated_Source\PSoC4/ADC_SAR_Seq_1.c **** /*******************************************************************************
 557:.\Generated_Source\PSoC4/ADC_SAR_Seq_1.c **** * Function Name: ADC_SAR_Seq_1_SetLimitMask
 558:.\Generated_Source\PSoC4/ADC_SAR_Seq_1.c **** ********************************************************************************
 559:.\Generated_Source\PSoC4/ADC_SAR_Seq_1.c **** *
 560:.\Generated_Source\PSoC4/ADC_SAR_Seq_1.c **** * Summary:
 561:.\Generated_Source\PSoC4/ADC_SAR_Seq_1.c **** *  Sets the channel limit condition mask.
 562:.\Generated_Source\PSoC4/ADC_SAR_Seq_1.c **** *
 563:.\Generated_Source\PSoC4/ADC_SAR_Seq_1.c **** * Parameters:
 564:.\Generated_Source\PSoC4/ADC_SAR_Seq_1.c **** *  mask: Sets which channels that may cause a
 565:.\Generated_Source\PSoC4/ADC_SAR_Seq_1.c **** *  limit condition interrupt. Setting bits for channels that do not exist
 566:.\Generated_Source\PSoC4/ADC_SAR_Seq_1.c **** *  will have no effect. For example, if only 6 channels were enabled,
 567:.\Generated_Source\PSoC4/ADC_SAR_Seq_1.c **** *  setting a mask of 0x0103 would only enable the last two channels (0 and 1).
 568:.\Generated_Source\PSoC4/ADC_SAR_Seq_1.c **** *
 569:.\Generated_Source\PSoC4/ADC_SAR_Seq_1.c **** * Return:
 570:.\Generated_Source\PSoC4/ADC_SAR_Seq_1.c **** *  None.
 571:.\Generated_Source\PSoC4/ADC_SAR_Seq_1.c **** *
 572:.\Generated_Source\PSoC4/ADC_SAR_Seq_1.c **** *******************************************************************************/
ARM GAS  C:\Users\Steve\AppData\Local\Temp\cc8wnACi.s 			page 21


 573:.\Generated_Source\PSoC4/ADC_SAR_Seq_1.c **** void ADC_SAR_Seq_1_SetLimitMask(uint32 mask)
 574:.\Generated_Source\PSoC4/ADC_SAR_Seq_1.c **** {
 538              		.loc 1 574 0
 539              		.cfi_startproc
 540              	.LVL29:
 575:.\Generated_Source\PSoC4/ADC_SAR_Seq_1.c ****     ADC_SAR_Seq_1_SAR_RANGE_INTR_MASK_REG = mask & ADC_SAR_Seq_1_MAX_CHANNELS_EN_MASK;
 541              		.loc 1 575 0
 542 0000 0123     		mov	r3, #1
 543 0002 0249     		ldr	r1, .L50
 544 0004 1840     		and	r0, r3
 545              	.LVL30:
 546 0006 0860     		str	r0, [r1]
 576:.\Generated_Source\PSoC4/ADC_SAR_Seq_1.c **** }
 547              		.loc 1 576 0
 548              		@ sp needed for prologue
 549 0008 7047     		bx	lr
 550              	.L51:
 551 000a C046     		.align	2
 552              	.L50:
 553 000c 38021A40 		.word	1075446328
 554              		.cfi_endproc
 555              	.LFE11:
 556              		.size	ADC_SAR_Seq_1_SetLimitMask, .-ADC_SAR_Seq_1_SetLimitMask
 557              		.section	.text.ADC_SAR_Seq_1_SetSatMask,"ax",%progbits
 558              		.align	2
 559              		.global	ADC_SAR_Seq_1_SetSatMask
 560              		.code	16
 561              		.thumb_func
 562              		.type	ADC_SAR_Seq_1_SetSatMask, %function
 563              	ADC_SAR_Seq_1_SetSatMask:
 564              	.LFB12:
 577:.\Generated_Source\PSoC4/ADC_SAR_Seq_1.c **** 
 578:.\Generated_Source\PSoC4/ADC_SAR_Seq_1.c **** 
 579:.\Generated_Source\PSoC4/ADC_SAR_Seq_1.c **** /*******************************************************************************
 580:.\Generated_Source\PSoC4/ADC_SAR_Seq_1.c **** * Function Name: ADC_SAR_Seq_1_SetSatMask
 581:.\Generated_Source\PSoC4/ADC_SAR_Seq_1.c **** ********************************************************************************
 582:.\Generated_Source\PSoC4/ADC_SAR_Seq_1.c **** *
 583:.\Generated_Source\PSoC4/ADC_SAR_Seq_1.c **** * Summary:
 584:.\Generated_Source\PSoC4/ADC_SAR_Seq_1.c **** *  Sets the channel saturation event mask.
 585:.\Generated_Source\PSoC4/ADC_SAR_Seq_1.c **** *
 586:.\Generated_Source\PSoC4/ADC_SAR_Seq_1.c **** * Parameters:
 587:.\Generated_Source\PSoC4/ADC_SAR_Seq_1.c **** *  mask: Sets which channels that may cause a
 588:.\Generated_Source\PSoC4/ADC_SAR_Seq_1.c **** *  saturation event interrupt. Setting bits for channels that do not exist
 589:.\Generated_Source\PSoC4/ADC_SAR_Seq_1.c **** *  will have no effect. For example, if only 8 channels were enabled,
 590:.\Generated_Source\PSoC4/ADC_SAR_Seq_1.c **** *  setting a mask of 0x01C0 would only enable two channels (6 and 7).
 591:.\Generated_Source\PSoC4/ADC_SAR_Seq_1.c **** *
 592:.\Generated_Source\PSoC4/ADC_SAR_Seq_1.c **** * Return:
 593:.\Generated_Source\PSoC4/ADC_SAR_Seq_1.c **** *  None.
 594:.\Generated_Source\PSoC4/ADC_SAR_Seq_1.c **** *
 595:.\Generated_Source\PSoC4/ADC_SAR_Seq_1.c **** *******************************************************************************/
 596:.\Generated_Source\PSoC4/ADC_SAR_Seq_1.c **** void ADC_SAR_Seq_1_SetSatMask(uint32 mask)
 597:.\Generated_Source\PSoC4/ADC_SAR_Seq_1.c **** {
 565              		.loc 1 597 0
 566              		.cfi_startproc
 567              	.LVL31:
 598:.\Generated_Source\PSoC4/ADC_SAR_Seq_1.c ****     ADC_SAR_Seq_1_SAR_SATURATE_INTR_MASK_REG = mask & ADC_SAR_Seq_1_MAX_CHANNELS_EN_MASK;
 568              		.loc 1 598 0
ARM GAS  C:\Users\Steve\AppData\Local\Temp\cc8wnACi.s 			page 22


 569 0000 0123     		mov	r3, #1
 570 0002 0249     		ldr	r1, .L53
 571 0004 1840     		and	r0, r3
 572              	.LVL32:
 573 0006 0860     		str	r0, [r1]
 599:.\Generated_Source\PSoC4/ADC_SAR_Seq_1.c **** }
 574              		.loc 1 599 0
 575              		@ sp needed for prologue
 576 0008 7047     		bx	lr
 577              	.L54:
 578 000a C046     		.align	2
 579              	.L53:
 580 000c 28021A40 		.word	1075446312
 581              		.cfi_endproc
 582              	.LFE12:
 583              		.size	ADC_SAR_Seq_1_SetSatMask, .-ADC_SAR_Seq_1_SetSatMask
 584              		.section	.text.ADC_SAR_Seq_1_SetOffset,"ax",%progbits
 585              		.align	2
 586              		.global	ADC_SAR_Seq_1_SetOffset
 587              		.code	16
 588              		.thumb_func
 589              		.type	ADC_SAR_Seq_1_SetOffset, %function
 590              	ADC_SAR_Seq_1_SetOffset:
 591              	.LFB13:
 600:.\Generated_Source\PSoC4/ADC_SAR_Seq_1.c **** 
 601:.\Generated_Source\PSoC4/ADC_SAR_Seq_1.c **** 
 602:.\Generated_Source\PSoC4/ADC_SAR_Seq_1.c **** /*******************************************************************************
 603:.\Generated_Source\PSoC4/ADC_SAR_Seq_1.c **** * Function Name: ADC_SAR_Seq_1_SetOffset
 604:.\Generated_Source\PSoC4/ADC_SAR_Seq_1.c **** ********************************************************************************
 605:.\Generated_Source\PSoC4/ADC_SAR_Seq_1.c **** *
 606:.\Generated_Source\PSoC4/ADC_SAR_Seq_1.c **** * Summary:
 607:.\Generated_Source\PSoC4/ADC_SAR_Seq_1.c **** *   Description: Sets the ADC offset which is used by the functions
 608:.\Generated_Source\PSoC4/ADC_SAR_Seq_1.c **** *   ADC_CountsTo_uVolts, ADC_CountsTo_mVolts and ADC_CountsTo_Volts
 609:.\Generated_Source\PSoC4/ADC_SAR_Seq_1.c **** *   to substract the offset from the given reading
 610:.\Generated_Source\PSoC4/ADC_SAR_Seq_1.c **** *   before calculating the voltage conversion.
 611:.\Generated_Source\PSoC4/ADC_SAR_Seq_1.c **** *
 612:.\Generated_Source\PSoC4/ADC_SAR_Seq_1.c **** * Parameters:
 613:.\Generated_Source\PSoC4/ADC_SAR_Seq_1.c **** *  chan: ADC channel number.
 614:.\Generated_Source\PSoC4/ADC_SAR_Seq_1.c **** *  offset: This value is a measured value when the
 615:.\Generated_Source\PSoC4/ADC_SAR_Seq_1.c **** *          inputs are shorted or connected to the same input voltage.
 616:.\Generated_Source\PSoC4/ADC_SAR_Seq_1.c **** *
 617:.\Generated_Source\PSoC4/ADC_SAR_Seq_1.c **** * Return:
 618:.\Generated_Source\PSoC4/ADC_SAR_Seq_1.c **** *  None.
 619:.\Generated_Source\PSoC4/ADC_SAR_Seq_1.c **** *
 620:.\Generated_Source\PSoC4/ADC_SAR_Seq_1.c **** * Global variables:
 621:.\Generated_Source\PSoC4/ADC_SAR_Seq_1.c **** *  ADC_SAR_Seq_1_Offset:  Modified to set the user provided offset.
 622:.\Generated_Source\PSoC4/ADC_SAR_Seq_1.c **** *
 623:.\Generated_Source\PSoC4/ADC_SAR_Seq_1.c **** *******************************************************************************/
 624:.\Generated_Source\PSoC4/ADC_SAR_Seq_1.c **** void ADC_SAR_Seq_1_SetOffset(uint32 chan, int16 offset)
 625:.\Generated_Source\PSoC4/ADC_SAR_Seq_1.c **** {
 592              		.loc 1 625 0
 593              		.cfi_startproc
 594              	.LVL33:
 595 0000 38B5     		push	{r3, r4, r5, lr}
 596              	.LCFI5:
 597              		.cfi_def_cfa_offset 16
 598              		.cfi_offset 3, -16
ARM GAS  C:\Users\Steve\AppData\Local\Temp\cc8wnACi.s 			page 23


 599              		.cfi_offset 4, -12
 600              		.cfi_offset 5, -8
 601              		.cfi_offset 14, -4
 602              		.loc 1 625 0
 603 0002 041C     		mov	r4, r0
 604 0004 0D1C     		mov	r5, r1
 626:.\Generated_Source\PSoC4/ADC_SAR_Seq_1.c ****     /* Halt CPU in debug mode if channel is out of valid range */
 627:.\Generated_Source\PSoC4/ADC_SAR_Seq_1.c ****     CYASSERT(chan < ADC_SAR_Seq_1_TOTAL_CHANNELS_NUM);
 605              		.loc 1 627 0
 606 0006 0028     		cmp	r0, #0
 607 0008 02D0     		beq	.L56
 608              		.loc 1 627 0 is_stmt 0 discriminator 1
 609 000a 0020     		mov	r0, #0
 610              	.LVL34:
 611 000c FFF7FEFF 		bl	CyHalt
 612              	.LVL35:
 613              	.L56:
 628:.\Generated_Source\PSoC4/ADC_SAR_Seq_1.c **** 
 629:.\Generated_Source\PSoC4/ADC_SAR_Seq_1.c ****     ADC_SAR_Seq_1_offset[chan] = offset;
 614              		.loc 1 629 0 is_stmt 1
 615 0010 014B     		ldr	r3, .L60
 616 0012 6000     		lsl	r0, r4, #1
 617 0014 C552     		strh	r5, [r0, r3]
 630:.\Generated_Source\PSoC4/ADC_SAR_Seq_1.c **** }
 618              		.loc 1 630 0
 619              		@ sp needed for prologue
 620              	.LVL36:
 621 0016 38BD     		pop	{r3, r4, r5, pc}
 622              	.L61:
 623              		.align	2
 624              	.L60:
 625 0018 00000000 		.word	ADC_SAR_Seq_1_offset
 626              		.cfi_endproc
 627              	.LFE13:
 628              		.size	ADC_SAR_Seq_1_SetOffset, .-ADC_SAR_Seq_1_SetOffset
 629              		.section	.text.ADC_SAR_Seq_1_SetGain,"ax",%progbits
 630              		.align	2
 631              		.global	ADC_SAR_Seq_1_SetGain
 632              		.code	16
 633              		.thumb_func
 634              		.type	ADC_SAR_Seq_1_SetGain, %function
 635              	ADC_SAR_Seq_1_SetGain:
 636              	.LFB14:
 631:.\Generated_Source\PSoC4/ADC_SAR_Seq_1.c **** 
 632:.\Generated_Source\PSoC4/ADC_SAR_Seq_1.c **** 
 633:.\Generated_Source\PSoC4/ADC_SAR_Seq_1.c **** /*******************************************************************************
 634:.\Generated_Source\PSoC4/ADC_SAR_Seq_1.c **** * Function Name: ADC_SAR_Seq_1_SetGain
 635:.\Generated_Source\PSoC4/ADC_SAR_Seq_1.c **** ********************************************************************************
 636:.\Generated_Source\PSoC4/ADC_SAR_Seq_1.c **** *
 637:.\Generated_Source\PSoC4/ADC_SAR_Seq_1.c **** * Summary:
 638:.\Generated_Source\PSoC4/ADC_SAR_Seq_1.c **** *  Description: Sets the ADC gain in counts per 10 volt for the voltage
 639:.\Generated_Source\PSoC4/ADC_SAR_Seq_1.c **** *  conversion functions below. This value is set by default by the
 640:.\Generated_Source\PSoC4/ADC_SAR_Seq_1.c **** *  reference and input range settings. It should only be used to further
 641:.\Generated_Source\PSoC4/ADC_SAR_Seq_1.c **** *  calibrate the ADC with a known input or if an external reference is
 642:.\Generated_Source\PSoC4/ADC_SAR_Seq_1.c **** *  used. Affects the ADC_CountsTo_uVolts, ADC_CountsTo_mVolts
 643:.\Generated_Source\PSoC4/ADC_SAR_Seq_1.c **** *  and ADC_CountsTo_Volts functions by supplying the correct
 644:.\Generated_Source\PSoC4/ADC_SAR_Seq_1.c **** *  conversion between ADC counts and voltage.
ARM GAS  C:\Users\Steve\AppData\Local\Temp\cc8wnACi.s 			page 24


 645:.\Generated_Source\PSoC4/ADC_SAR_Seq_1.c **** *
 646:.\Generated_Source\PSoC4/ADC_SAR_Seq_1.c **** * Parameters:
 647:.\Generated_Source\PSoC4/ADC_SAR_Seq_1.c **** *  chan: ADC channel number.
 648:.\Generated_Source\PSoC4/ADC_SAR_Seq_1.c **** *  adcGain: ADC gain in counts per 10 volts.
 649:.\Generated_Source\PSoC4/ADC_SAR_Seq_1.c **** *
 650:.\Generated_Source\PSoC4/ADC_SAR_Seq_1.c **** * Return:
 651:.\Generated_Source\PSoC4/ADC_SAR_Seq_1.c **** *  None.
 652:.\Generated_Source\PSoC4/ADC_SAR_Seq_1.c **** *
 653:.\Generated_Source\PSoC4/ADC_SAR_Seq_1.c **** * Global variables:
 654:.\Generated_Source\PSoC4/ADC_SAR_Seq_1.c **** *  ADC_SAR_Seq_1_CountsPer10Volt:  modified to set the ADC gain in counts 
 655:.\Generated_Source\PSoC4/ADC_SAR_Seq_1.c **** *   per 10 volt.
 656:.\Generated_Source\PSoC4/ADC_SAR_Seq_1.c **** *
 657:.\Generated_Source\PSoC4/ADC_SAR_Seq_1.c **** *******************************************************************************/
 658:.\Generated_Source\PSoC4/ADC_SAR_Seq_1.c **** void ADC_SAR_Seq_1_SetGain(uint32 chan, int32 adcGain)
 659:.\Generated_Source\PSoC4/ADC_SAR_Seq_1.c **** {
 637              		.loc 1 659 0
 638              		.cfi_startproc
 639              	.LVL37:
 640 0000 38B5     		push	{r3, r4, r5, lr}
 641              	.LCFI6:
 642              		.cfi_def_cfa_offset 16
 643              		.cfi_offset 3, -16
 644              		.cfi_offset 4, -12
 645              		.cfi_offset 5, -8
 646              		.cfi_offset 14, -4
 647              		.loc 1 659 0
 648 0002 041C     		mov	r4, r0
 649 0004 0D1C     		mov	r5, r1
 660:.\Generated_Source\PSoC4/ADC_SAR_Seq_1.c ****     /* Halt CPU in debug mode if channel is out of valid range */
 661:.\Generated_Source\PSoC4/ADC_SAR_Seq_1.c ****     CYASSERT(chan < ADC_SAR_Seq_1_TOTAL_CHANNELS_NUM);
 650              		.loc 1 661 0
 651 0006 0028     		cmp	r0, #0
 652 0008 02D0     		beq	.L63
 653              		.loc 1 661 0 is_stmt 0 discriminator 1
 654 000a 0020     		mov	r0, #0
 655              	.LVL38:
 656 000c FFF7FEFF 		bl	CyHalt
 657              	.LVL39:
 658              	.L63:
 662:.\Generated_Source\PSoC4/ADC_SAR_Seq_1.c **** 
 663:.\Generated_Source\PSoC4/ADC_SAR_Seq_1.c ****     ADC_SAR_Seq_1_countsPer10Volt[chan] = adcGain;
 659              		.loc 1 663 0 is_stmt 1
 660 0010 014B     		ldr	r3, .L67
 661 0012 A000     		lsl	r0, r4, #2
 662 0014 C550     		str	r5, [r0, r3]
 664:.\Generated_Source\PSoC4/ADC_SAR_Seq_1.c **** }
 663              		.loc 1 664 0
 664              		@ sp needed for prologue
 665              	.LVL40:
 666              	.LVL41:
 667 0016 38BD     		pop	{r3, r4, r5, pc}
 668              	.L68:
 669              		.align	2
 670              	.L67:
 671 0018 00000000 		.word	ADC_SAR_Seq_1_countsPer10Volt
 672              		.cfi_endproc
 673              	.LFE14:
ARM GAS  C:\Users\Steve\AppData\Local\Temp\cc8wnACi.s 			page 25


 674              		.size	ADC_SAR_Seq_1_SetGain, .-ADC_SAR_Seq_1_SetGain
 675              		.global	__aeabi_idiv
 676              		.section	.text.ADC_SAR_Seq_1_CountsTo_mVolts,"ax",%progbits
 677              		.align	2
 678              		.global	ADC_SAR_Seq_1_CountsTo_mVolts
 679              		.code	16
 680              		.thumb_func
 681              		.type	ADC_SAR_Seq_1_CountsTo_mVolts, %function
 682              	ADC_SAR_Seq_1_CountsTo_mVolts:
 683              	.LFB15:
 665:.\Generated_Source\PSoC4/ADC_SAR_Seq_1.c **** 
 666:.\Generated_Source\PSoC4/ADC_SAR_Seq_1.c **** 
 667:.\Generated_Source\PSoC4/ADC_SAR_Seq_1.c **** #if(ADC_SAR_Seq_1_DEFAULT_JUSTIFICATION_SEL == ADC_SAR_Seq_1__RIGHT)
 668:.\Generated_Source\PSoC4/ADC_SAR_Seq_1.c **** 
 669:.\Generated_Source\PSoC4/ADC_SAR_Seq_1.c **** 
 670:.\Generated_Source\PSoC4/ADC_SAR_Seq_1.c ****     /*******************************************************************************
 671:.\Generated_Source\PSoC4/ADC_SAR_Seq_1.c ****     * Function Name: ADC_SAR_Seq_1_CountsTo_mVolts
 672:.\Generated_Source\PSoC4/ADC_SAR_Seq_1.c ****     ********************************************************************************
 673:.\Generated_Source\PSoC4/ADC_SAR_Seq_1.c ****     *
 674:.\Generated_Source\PSoC4/ADC_SAR_Seq_1.c ****     * Summary:
 675:.\Generated_Source\PSoC4/ADC_SAR_Seq_1.c ****     *  This function converts ADC counts to mVolts
 676:.\Generated_Source\PSoC4/ADC_SAR_Seq_1.c ****     *  This function is not available when left data format justification selected.
 677:.\Generated_Source\PSoC4/ADC_SAR_Seq_1.c ****     *
 678:.\Generated_Source\PSoC4/ADC_SAR_Seq_1.c ****     * Parameters:
 679:.\Generated_Source\PSoC4/ADC_SAR_Seq_1.c ****     *  chan: The ADC channel number.
 680:.\Generated_Source\PSoC4/ADC_SAR_Seq_1.c ****     *  adcCounts: Result from the ADC conversion
 681:.\Generated_Source\PSoC4/ADC_SAR_Seq_1.c ****     *
 682:.\Generated_Source\PSoC4/ADC_SAR_Seq_1.c ****     * Return:
 683:.\Generated_Source\PSoC4/ADC_SAR_Seq_1.c ****     *  Results in mVolts
 684:.\Generated_Source\PSoC4/ADC_SAR_Seq_1.c ****     *
 685:.\Generated_Source\PSoC4/ADC_SAR_Seq_1.c ****     * Global variables:
 686:.\Generated_Source\PSoC4/ADC_SAR_Seq_1.c ****     *  ADC_SAR_Seq_1_countsPer10Volt:  used to convert ADC counts to mVolts.
 687:.\Generated_Source\PSoC4/ADC_SAR_Seq_1.c ****     *  ADC_SAR_Seq_1_Offset:  Used as the offset while converting ADC counts 
 688:.\Generated_Source\PSoC4/ADC_SAR_Seq_1.c ****     *   to mVolts.
 689:.\Generated_Source\PSoC4/ADC_SAR_Seq_1.c ****     *
 690:.\Generated_Source\PSoC4/ADC_SAR_Seq_1.c ****     *******************************************************************************/
 691:.\Generated_Source\PSoC4/ADC_SAR_Seq_1.c ****     int16 ADC_SAR_Seq_1_CountsTo_mVolts(uint32 chan, int16 adcCounts)
 692:.\Generated_Source\PSoC4/ADC_SAR_Seq_1.c ****     {
 684              		.loc 1 692 0
 685              		.cfi_startproc
 686              	.LVL42:
 687 0000 38B5     		push	{r3, r4, r5, lr}
 688              	.LCFI7:
 689              		.cfi_def_cfa_offset 16
 690              		.cfi_offset 3, -16
 691              		.cfi_offset 4, -12
 692              		.cfi_offset 5, -8
 693              		.cfi_offset 14, -4
 694              		.loc 1 692 0
 695 0002 041C     		mov	r4, r0
 696 0004 0D1C     		mov	r5, r1
 693:.\Generated_Source\PSoC4/ADC_SAR_Seq_1.c ****         int16 mVolts;
 694:.\Generated_Source\PSoC4/ADC_SAR_Seq_1.c **** 
 695:.\Generated_Source\PSoC4/ADC_SAR_Seq_1.c ****         /* Halt CPU in debug mode if channel is out of valid range */
 696:.\Generated_Source\PSoC4/ADC_SAR_Seq_1.c ****         CYASSERT(chan < ADC_SAR_Seq_1_TOTAL_CHANNELS_NUM);
 697              		.loc 1 696 0
 698 0006 0028     		cmp	r0, #0
ARM GAS  C:\Users\Steve\AppData\Local\Temp\cc8wnACi.s 			page 26


 699 0008 1AD1     		bne	.L76
 700              	.LVL43:
 701              	.L70:
 697:.\Generated_Source\PSoC4/ADC_SAR_Seq_1.c **** 
 698:.\Generated_Source\PSoC4/ADC_SAR_Seq_1.c ****         /* Divide the adcCount when accumulate averaging mode selected */
 699:.\Generated_Source\PSoC4/ADC_SAR_Seq_1.c ****         #if(ADC_SAR_Seq_1_DEFAULT_AVG_MODE == ADC_SAR_Seq_1__ACCUMULATE)
 700:.\Generated_Source\PSoC4/ADC_SAR_Seq_1.c ****             if((ADC_SAR_Seq_1_channelsConfig[chan] & ADC_SAR_Seq_1_AVERAGING_EN) != 0u)
 701:.\Generated_Source\PSoC4/ADC_SAR_Seq_1.c ****             {
 702:.\Generated_Source\PSoC4/ADC_SAR_Seq_1.c ****                 adcCounts /= ADC_SAR_Seq_1_DEFAULT_AVG_SAMPLES_DIV;
 703:.\Generated_Source\PSoC4/ADC_SAR_Seq_1.c ****             }    
 704:.\Generated_Source\PSoC4/ADC_SAR_Seq_1.c ****         #endif /* ADC_SAR_Seq_1_DEFAULT_AVG_MODE == ADC_SAR_Seq_1__ACCUMULATE */
 705:.\Generated_Source\PSoC4/ADC_SAR_Seq_1.c **** 
 706:.\Generated_Source\PSoC4/ADC_SAR_Seq_1.c ****         /* Subtract ADC offset */
 707:.\Generated_Source\PSoC4/ADC_SAR_Seq_1.c ****         adcCounts -= ADC_SAR_Seq_1_offset[chan];
 702              		.loc 1 707 0
 703 000a 0F4B     		ldr	r3, .L77
 704 000c 6200     		lsl	r2, r4, #1
 705 000e D15A     		ldrh	r1, [r2, r3]
 708:.\Generated_Source\PSoC4/ADC_SAR_Seq_1.c **** 
 709:.\Generated_Source\PSoC4/ADC_SAR_Seq_1.c ****         mVolts = (int16)((((int32)adcCounts * ADC_SAR_Seq_1_10MV_COUNTS) + ( (adcCounts > 0) ? 
 706              		.loc 1 709 0
 707 0010 0E4A     		ldr	r2, .L77+4
 707:.\Generated_Source\PSoC4/ADC_SAR_Seq_1.c ****         adcCounts -= ADC_SAR_Seq_1_offset[chan];
 708              		.loc 1 707 0
 709 0012 681A     		sub	r0, r5, r1
 710 0014 05B2     		sxth	r5, r0
 711              	.LVL44:
 712              		.loc 1 709 0
 713 0016 6A43     		mul	r2, r5
 710:.\Generated_Source\PSoC4/ADC_SAR_Seq_1.c ****                  (ADC_SAR_Seq_1_countsPer10Volt[chan] / 2) : (-(ADC_SAR_Seq_1_countsPer10Volt[chan]
 714              		.loc 1 710 0
 715 0018 0D4B     		ldr	r3, .L77+8
 716 001a A400     		lsl	r4, r4, #2
 717              	.LVL45:
 718 001c 002D     		cmp	r5, #0
 719 001e 09DD     		ble	.L71
 720              		.loc 1 710 0 is_stmt 0 discriminator 1
 721 0020 1D59     		ldr	r5, [r3, r4]
 722 0022 E90F     		lsr	r1, r5, #31
 723 0024 4819     		add	r0, r1, r5
 724              	.LVL46:
 725 0026 4010     		asr	r0, r0, #1
 726              	.L72:
 711:.\Generated_Source\PSoC4/ADC_SAR_Seq_1.c ****                  / ADC_SAR_Seq_1_countsPer10Volt[chan]);
 727              		.loc 1 711 0 is_stmt 1
 728 0028 1959     		ldr	r1, [r3, r4]
 729              	.LVL47:
 709:.\Generated_Source\PSoC4/ADC_SAR_Seq_1.c ****         mVolts = (int16)((((int32)adcCounts * ADC_SAR_Seq_1_10MV_COUNTS) + ( (adcCounts > 0) ? 
 730              		.loc 1 709 0
 731 002a 1018     		add	r0, r2, r0
 732              	.LVL48:
 733              		.loc 1 711 0
 734 002c FFF7FEFF 		bl	__aeabi_idiv
 735              	.LVL49:
 712:.\Generated_Source\PSoC4/ADC_SAR_Seq_1.c **** 
 713:.\Generated_Source\PSoC4/ADC_SAR_Seq_1.c ****         return( mVolts );
 714:.\Generated_Source\PSoC4/ADC_SAR_Seq_1.c ****     }
ARM GAS  C:\Users\Steve\AppData\Local\Temp\cc8wnACi.s 			page 27


 736              		.loc 1 714 0
 737              		@ sp needed for prologue
 713:.\Generated_Source\PSoC4/ADC_SAR_Seq_1.c ****         return( mVolts );
 738              		.loc 1 713 0
 739 0030 00B2     		sxth	r0, r0
 740              		.loc 1 714 0
 741 0032 38BD     		pop	{r3, r4, r5, pc}
 742              	.LVL50:
 743              	.L71:
 710:.\Generated_Source\PSoC4/ADC_SAR_Seq_1.c ****                  (ADC_SAR_Seq_1_countsPer10Volt[chan] / 2) : (-(ADC_SAR_Seq_1_countsPer10Volt[chan]
 744              		.loc 1 710 0 discriminator 2
 745 0034 1959     		ldr	r1, [r3, r4]
 746 0036 C80F     		lsr	r0, r1, #31
 747              	.LVL51:
 748 0038 4518     		add	r5, r0, r1
 749              	.LVL52:
 750 003a 6910     		asr	r1, r5, #1
 751 003c 4842     		neg	r0, r1
 752 003e F3E7     		b	.L72
 753              	.LVL53:
 754              	.L76:
 696:.\Generated_Source\PSoC4/ADC_SAR_Seq_1.c ****         CYASSERT(chan < ADC_SAR_Seq_1_TOTAL_CHANNELS_NUM);
 755              		.loc 1 696 0 discriminator 1
 756 0040 0020     		mov	r0, #0
 757              	.LVL54:
 758 0042 FFF7FEFF 		bl	CyHalt
 759              	.LVL55:
 760 0046 E0E7     		b	.L70
 761              	.L78:
 762              		.align	2
 763              	.L77:
 764 0048 00000000 		.word	ADC_SAR_Seq_1_offset
 765 004c 10270000 		.word	10000
 766 0050 00000000 		.word	ADC_SAR_Seq_1_countsPer10Volt
 767              		.cfi_endproc
 768              	.LFE15:
 769              		.size	ADC_SAR_Seq_1_CountsTo_mVolts, .-ADC_SAR_Seq_1_CountsTo_mVolts
 770              		.global	__aeabi_lmul
 771              		.global	__aeabi_ldivmod
 772              		.section	.text.ADC_SAR_Seq_1_CountsTo_uVolts,"ax",%progbits
 773              		.align	2
 774              		.global	ADC_SAR_Seq_1_CountsTo_uVolts
 775              		.code	16
 776              		.thumb_func
 777              		.type	ADC_SAR_Seq_1_CountsTo_uVolts, %function
 778              	ADC_SAR_Seq_1_CountsTo_uVolts:
 779              	.LFB16:
 715:.\Generated_Source\PSoC4/ADC_SAR_Seq_1.c **** 
 716:.\Generated_Source\PSoC4/ADC_SAR_Seq_1.c **** 
 717:.\Generated_Source\PSoC4/ADC_SAR_Seq_1.c ****     /*******************************************************************************
 718:.\Generated_Source\PSoC4/ADC_SAR_Seq_1.c ****     * Function Name: ADC_SAR_Seq_1_CountsTo_uVolts
 719:.\Generated_Source\PSoC4/ADC_SAR_Seq_1.c ****     ********************************************************************************
 720:.\Generated_Source\PSoC4/ADC_SAR_Seq_1.c ****     *
 721:.\Generated_Source\PSoC4/ADC_SAR_Seq_1.c ****     * Summary:
 722:.\Generated_Source\PSoC4/ADC_SAR_Seq_1.c ****     *  This function converts ADC counts to micro Volts
 723:.\Generated_Source\PSoC4/ADC_SAR_Seq_1.c ****     *  This function is not available when left data format justification selected.
 724:.\Generated_Source\PSoC4/ADC_SAR_Seq_1.c ****     *
ARM GAS  C:\Users\Steve\AppData\Local\Temp\cc8wnACi.s 			page 28


 725:.\Generated_Source\PSoC4/ADC_SAR_Seq_1.c ****     * Parameters:
 726:.\Generated_Source\PSoC4/ADC_SAR_Seq_1.c ****     *  chan: The ADC channel number.
 727:.\Generated_Source\PSoC4/ADC_SAR_Seq_1.c ****     *  adcCounts: Result from the ADC conversion
 728:.\Generated_Source\PSoC4/ADC_SAR_Seq_1.c ****     *
 729:.\Generated_Source\PSoC4/ADC_SAR_Seq_1.c ****     * Return:
 730:.\Generated_Source\PSoC4/ADC_SAR_Seq_1.c ****     *  Results in uVolts
 731:.\Generated_Source\PSoC4/ADC_SAR_Seq_1.c ****     *
 732:.\Generated_Source\PSoC4/ADC_SAR_Seq_1.c ****     * Global variables:
 733:.\Generated_Source\PSoC4/ADC_SAR_Seq_1.c ****     *  ADC_SAR_Seq_1_countsPer10Volt:  used to convert ADC counts to uVolts.
 734:.\Generated_Source\PSoC4/ADC_SAR_Seq_1.c ****     *  ADC_SAR_Seq_1_Offset:  Used as the offset while converting ADC counts 
 735:.\Generated_Source\PSoC4/ADC_SAR_Seq_1.c ****     *   to mVolts.
 736:.\Generated_Source\PSoC4/ADC_SAR_Seq_1.c ****     *
 737:.\Generated_Source\PSoC4/ADC_SAR_Seq_1.c ****     * Theory: 
 738:.\Generated_Source\PSoC4/ADC_SAR_Seq_1.c ****     *  Care must be taken to not exceed the maximum value for a 31 bit signed
 739:.\Generated_Source\PSoC4/ADC_SAR_Seq_1.c ****     *  number in the conversion to uVolts and at the same time not loose 
 740:.\Generated_Source\PSoC4/ADC_SAR_Seq_1.c ****     *  resolution.
 741:.\Generated_Source\PSoC4/ADC_SAR_Seq_1.c ****     *  To convert adcCounts to microVolts it is required to be multiplied
 742:.\Generated_Source\PSoC4/ADC_SAR_Seq_1.c ****     *  on 10 million and later divide on gain in counts per 10V. 
 743:.\Generated_Source\PSoC4/ADC_SAR_Seq_1.c ****     *
 744:.\Generated_Source\PSoC4/ADC_SAR_Seq_1.c ****     *******************************************************************************/
 745:.\Generated_Source\PSoC4/ADC_SAR_Seq_1.c ****     int32 ADC_SAR_Seq_1_CountsTo_uVolts(uint32 chan, int16 adcCounts)
 746:.\Generated_Source\PSoC4/ADC_SAR_Seq_1.c ****     {
 780              		.loc 1 746 0
 781              		.cfi_startproc
 782              	.LVL56:
 783 0000 38B5     		push	{r3, r4, r5, lr}
 784              	.LCFI8:
 785              		.cfi_def_cfa_offset 16
 786              		.cfi_offset 3, -16
 787              		.cfi_offset 4, -12
 788              		.cfi_offset 5, -8
 789              		.cfi_offset 14, -4
 790              		.loc 1 746 0
 791 0002 041C     		mov	r4, r0
 792 0004 0D1C     		mov	r5, r1
 747:.\Generated_Source\PSoC4/ADC_SAR_Seq_1.c ****         int64 uVolts;
 748:.\Generated_Source\PSoC4/ADC_SAR_Seq_1.c **** 
 749:.\Generated_Source\PSoC4/ADC_SAR_Seq_1.c ****         /* Halt CPU in debug mode if channel is out of valid range */
 750:.\Generated_Source\PSoC4/ADC_SAR_Seq_1.c ****         CYASSERT(chan < ADC_SAR_Seq_1_TOTAL_CHANNELS_NUM);
 793              		.loc 1 750 0
 794 0006 0028     		cmp	r0, #0
 795 0008 02D0     		beq	.L80
 796              		.loc 1 750 0 is_stmt 0 discriminator 1
 797 000a 0020     		mov	r0, #0
 798              	.LVL57:
 799 000c FFF7FEFF 		bl	CyHalt
 800              	.LVL58:
 801              	.L80:
 751:.\Generated_Source\PSoC4/ADC_SAR_Seq_1.c **** 
 752:.\Generated_Source\PSoC4/ADC_SAR_Seq_1.c ****         /* Divide the adcCount when accumulate averaging mode selected */
 753:.\Generated_Source\PSoC4/ADC_SAR_Seq_1.c ****         #if(ADC_SAR_Seq_1_DEFAULT_AVG_MODE == ADC_SAR_Seq_1__ACCUMULATE)
 754:.\Generated_Source\PSoC4/ADC_SAR_Seq_1.c ****             if((ADC_SAR_Seq_1_channelsConfig[chan] & ADC_SAR_Seq_1_AVERAGING_EN) != 0u)
 755:.\Generated_Source\PSoC4/ADC_SAR_Seq_1.c ****             {
 756:.\Generated_Source\PSoC4/ADC_SAR_Seq_1.c ****                 adcCounts /= ADC_SAR_Seq_1_DEFAULT_AVG_SAMPLES_DIV;
 757:.\Generated_Source\PSoC4/ADC_SAR_Seq_1.c ****             }    
 758:.\Generated_Source\PSoC4/ADC_SAR_Seq_1.c ****         #endif /* ADC_SAR_Seq_1_DEFAULT_AVG_MODE == ADC_SAR_Seq_1__ACCUMULATE */
 759:.\Generated_Source\PSoC4/ADC_SAR_Seq_1.c **** 
ARM GAS  C:\Users\Steve\AppData\Local\Temp\cc8wnACi.s 			page 29


 760:.\Generated_Source\PSoC4/ADC_SAR_Seq_1.c ****         /* Subtract ADC offset */
 761:.\Generated_Source\PSoC4/ADC_SAR_Seq_1.c ****         adcCounts -= ADC_SAR_Seq_1_offset[chan];
 802              		.loc 1 761 0 is_stmt 1
 803 0010 0B4B     		ldr	r3, .L84+8
 804 0012 6200     		lsl	r2, r4, #1
 805 0014 D05A     		ldrh	r0, [r2, r3]
 762:.\Generated_Source\PSoC4/ADC_SAR_Seq_1.c **** 
 763:.\Generated_Source\PSoC4/ADC_SAR_Seq_1.c ****         uVolts = ((int64)adcCounts * ADC_SAR_Seq_1_10UV_COUNTS) / ADC_SAR_Seq_1_countsPer10Volt[cha
 806              		.loc 1 763 0
 807 0016 A400     		lsl	r4, r4, #2
 808              	.LVL59:
 761:.\Generated_Source\PSoC4/ADC_SAR_Seq_1.c ****         adcCounts -= ADC_SAR_Seq_1_offset[chan];
 809              		.loc 1 761 0
 810 0018 291A     		sub	r1, r5, r0
 811              	.LVL60:
 812              		.loc 1 763 0
 813 001a 0A4D     		ldr	r5, .L84+12
 814 001c 08B2     		sxth	r0, r1
 815 001e 6459     		ldr	r4, [r4, r5]
 816              	.LVL61:
 817 0020 064B     		ldr	r3, .L84+4
 818 0022 054A     		ldr	r2, .L84
 819 0024 C117     		asr	r1, r0, #31
 820              	.LVL62:
 821 0026 FFF7FEFF 		bl	__aeabi_lmul
 822              	.LVL63:
 823 002a E317     		asr	r3, r4, #31
 824 002c 221C     		mov	r2, r4
 825 002e FFF7FEFF 		bl	__aeabi_ldivmod
 826              	.LVL64:
 764:.\Generated_Source\PSoC4/ADC_SAR_Seq_1.c **** 
 765:.\Generated_Source\PSoC4/ADC_SAR_Seq_1.c ****         return( (int32)uVolts );
 766:.\Generated_Source\PSoC4/ADC_SAR_Seq_1.c ****     }
 827              		.loc 1 766 0
 828              		@ sp needed for prologue
 829 0032 38BD     		pop	{r3, r4, r5, pc}
 830              	.L85:
 831 0034 C046C046 		.align	3
 832              	.L84:
 833 0038 80969800 		.word	10000000
 834 003c 00000000 		.word	0
 835 0040 00000000 		.word	ADC_SAR_Seq_1_offset
 836 0044 00000000 		.word	ADC_SAR_Seq_1_countsPer10Volt
 837              		.cfi_endproc
 838              	.LFE16:
 839              		.size	ADC_SAR_Seq_1_CountsTo_uVolts, .-ADC_SAR_Seq_1_CountsTo_uVolts
 840              		.global	__aeabi_i2f
 841              		.global	__aeabi_fmul
 842              		.global	__aeabi_fdiv
 843              		.section	.text.ADC_SAR_Seq_1_CountsTo_Volts,"ax",%progbits
 844              		.align	2
 845              		.global	ADC_SAR_Seq_1_CountsTo_Volts
 846              		.code	16
 847              		.thumb_func
 848              		.type	ADC_SAR_Seq_1_CountsTo_Volts, %function
 849              	ADC_SAR_Seq_1_CountsTo_Volts:
 850              	.LFB17:
ARM GAS  C:\Users\Steve\AppData\Local\Temp\cc8wnACi.s 			page 30


 767:.\Generated_Source\PSoC4/ADC_SAR_Seq_1.c **** 
 768:.\Generated_Source\PSoC4/ADC_SAR_Seq_1.c **** 
 769:.\Generated_Source\PSoC4/ADC_SAR_Seq_1.c ****     /*******************************************************************************
 770:.\Generated_Source\PSoC4/ADC_SAR_Seq_1.c ****     * Function Name: ADC_SAR_Seq_1_CountsTo_Volts
 771:.\Generated_Source\PSoC4/ADC_SAR_Seq_1.c ****     ********************************************************************************
 772:.\Generated_Source\PSoC4/ADC_SAR_Seq_1.c ****     *
 773:.\Generated_Source\PSoC4/ADC_SAR_Seq_1.c ****     * Summary:
 774:.\Generated_Source\PSoC4/ADC_SAR_Seq_1.c ****     *  Converts the ADC output to Volts as a floating point number.
 775:.\Generated_Source\PSoC4/ADC_SAR_Seq_1.c ****     *  This function is not available when left data format justification selected.
 776:.\Generated_Source\PSoC4/ADC_SAR_Seq_1.c ****     *
 777:.\Generated_Source\PSoC4/ADC_SAR_Seq_1.c ****     * Parameters:
 778:.\Generated_Source\PSoC4/ADC_SAR_Seq_1.c ****     *  chan: The ADC channel number.
 779:.\Generated_Source\PSoC4/ADC_SAR_Seq_1.c ****     *  Result from the ADC conversion
 780:.\Generated_Source\PSoC4/ADC_SAR_Seq_1.c ****     *
 781:.\Generated_Source\PSoC4/ADC_SAR_Seq_1.c ****     * Return:
 782:.\Generated_Source\PSoC4/ADC_SAR_Seq_1.c ****     *  Results in Volts
 783:.\Generated_Source\PSoC4/ADC_SAR_Seq_1.c ****     *
 784:.\Generated_Source\PSoC4/ADC_SAR_Seq_1.c ****     * Global variables:
 785:.\Generated_Source\PSoC4/ADC_SAR_Seq_1.c ****     *  ADC_SAR_Seq_1_countsPer10Volt:  used to convert ADC counts to Volts.
 786:.\Generated_Source\PSoC4/ADC_SAR_Seq_1.c ****     *  ADC_SAR_Seq_1_Offset:  Used as the offset while converting ADC counts 
 787:.\Generated_Source\PSoC4/ADC_SAR_Seq_1.c ****     *   to mVolts.
 788:.\Generated_Source\PSoC4/ADC_SAR_Seq_1.c ****     *
 789:.\Generated_Source\PSoC4/ADC_SAR_Seq_1.c ****     *******************************************************************************/
 790:.\Generated_Source\PSoC4/ADC_SAR_Seq_1.c ****     float32 ADC_SAR_Seq_1_CountsTo_Volts(uint32 chan, int16 adcCounts)
 791:.\Generated_Source\PSoC4/ADC_SAR_Seq_1.c ****     {
 851              		.loc 1 791 0
 852              		.cfi_startproc
 853              	.LVL65:
 854 0000 38B5     		push	{r3, r4, r5, lr}
 855              	.LCFI9:
 856              		.cfi_def_cfa_offset 16
 857              		.cfi_offset 3, -16
 858              		.cfi_offset 4, -12
 859              		.cfi_offset 5, -8
 860              		.cfi_offset 14, -4
 861              		.loc 1 791 0
 862 0002 041C     		mov	r4, r0
 863 0004 0D1C     		mov	r5, r1
 792:.\Generated_Source\PSoC4/ADC_SAR_Seq_1.c ****         float32 volts;
 793:.\Generated_Source\PSoC4/ADC_SAR_Seq_1.c **** 
 794:.\Generated_Source\PSoC4/ADC_SAR_Seq_1.c ****         /* Halt CPU in debug mode if channel is out of valid range */
 795:.\Generated_Source\PSoC4/ADC_SAR_Seq_1.c ****         CYASSERT(chan < ADC_SAR_Seq_1_TOTAL_CHANNELS_NUM);
 864              		.loc 1 795 0
 865 0006 0028     		cmp	r0, #0
 866 0008 02D0     		beq	.L87
 867              		.loc 1 795 0 is_stmt 0 discriminator 1
 868 000a 0020     		mov	r0, #0
 869              	.LVL66:
 870 000c FFF7FEFF 		bl	CyHalt
 871              	.LVL67:
 872              	.L87:
 796:.\Generated_Source\PSoC4/ADC_SAR_Seq_1.c **** 
 797:.\Generated_Source\PSoC4/ADC_SAR_Seq_1.c ****         /* Divide the adcCount when accumulate averaging mode selected */
 798:.\Generated_Source\PSoC4/ADC_SAR_Seq_1.c ****         #if(ADC_SAR_Seq_1_DEFAULT_AVG_MODE == ADC_SAR_Seq_1__ACCUMULATE)
 799:.\Generated_Source\PSoC4/ADC_SAR_Seq_1.c ****             if((ADC_SAR_Seq_1_channelsConfig[chan] & ADC_SAR_Seq_1_AVERAGING_EN) != 0u)
 800:.\Generated_Source\PSoC4/ADC_SAR_Seq_1.c ****             {
 801:.\Generated_Source\PSoC4/ADC_SAR_Seq_1.c ****                 adcCounts /= ADC_SAR_Seq_1_DEFAULT_AVG_SAMPLES_DIV;
ARM GAS  C:\Users\Steve\AppData\Local\Temp\cc8wnACi.s 			page 31


 802:.\Generated_Source\PSoC4/ADC_SAR_Seq_1.c ****             }    
 803:.\Generated_Source\PSoC4/ADC_SAR_Seq_1.c ****         #endif /* ADC_SAR_Seq_1_DEFAULT_AVG_MODE == ADC_SAR_Seq_1__ACCUMULATE */
 804:.\Generated_Source\PSoC4/ADC_SAR_Seq_1.c **** 
 805:.\Generated_Source\PSoC4/ADC_SAR_Seq_1.c ****         /* Subtract ADC offset */
 806:.\Generated_Source\PSoC4/ADC_SAR_Seq_1.c ****         adcCounts -= ADC_SAR_Seq_1_offset[chan];
 873              		.loc 1 806 0 is_stmt 1
 874 0010 0A4B     		ldr	r3, .L91
 875 0012 6200     		lsl	r2, r4, #1
 876 0014 D05A     		ldrh	r0, [r2, r3]
 807:.\Generated_Source\PSoC4/ADC_SAR_Seq_1.c **** 
 808:.\Generated_Source\PSoC4/ADC_SAR_Seq_1.c ****         volts = ((float32)adcCounts * ADC_SAR_Seq_1_10V_COUNTS) / (float32)ADC_SAR_Seq_1_countsPer1
 877              		.loc 1 808 0
 878 0016 A400     		lsl	r4, r4, #2
 879              	.LVL68:
 806:.\Generated_Source\PSoC4/ADC_SAR_Seq_1.c ****         adcCounts -= ADC_SAR_Seq_1_offset[chan];
 880              		.loc 1 806 0
 881 0018 291A     		sub	r1, r5, r0
 882              	.LVL69:
 883              		.loc 1 808 0
 884 001a 08B2     		sxth	r0, r1
 885 001c FFF7FEFF 		bl	__aeabi_i2f
 886              	.LVL70:
 887 0020 0749     		ldr	r1, .L91+4
 888 0022 FFF7FEFF 		bl	__aeabi_fmul
 889              	.LVL71:
 890 0026 074D     		ldr	r5, .L91+8
 809:.\Generated_Source\PSoC4/ADC_SAR_Seq_1.c **** 
 810:.\Generated_Source\PSoC4/ADC_SAR_Seq_1.c ****         return( volts );
 811:.\Generated_Source\PSoC4/ADC_SAR_Seq_1.c ****     }
 891              		.loc 1 811 0
 892              		@ sp needed for prologue
 808:.\Generated_Source\PSoC4/ADC_SAR_Seq_1.c ****         volts = ((float32)adcCounts * ADC_SAR_Seq_1_10V_COUNTS) / (float32)ADC_SAR_Seq_1_countsPer1
 893              		.loc 1 808 0
 894 0028 6559     		ldr	r5, [r4, r5]
 895 002a 041C     		add	r4, r0, #0
 896 002c 281C     		mov	r0, r5
 897 002e FFF7FEFF 		bl	__aeabi_i2f
 898              	.LVL72:
 899 0032 011C     		add	r1, r0, #0
 900 0034 201C     		add	r0, r4, #0
 901 0036 FFF7FEFF 		bl	__aeabi_fdiv
 902              	.LVL73:
 903              		.loc 1 811 0
 904 003a 38BD     		pop	{r3, r4, r5, pc}
 905              	.L92:
 906              		.align	2
 907              	.L91:
 908 003c 00000000 		.word	ADC_SAR_Seq_1_offset
 909 0040 00002041 		.word	1092616192
 910 0044 00000000 		.word	ADC_SAR_Seq_1_countsPer10Volt
 911              		.cfi_endproc
 912              	.LFE17:
 913              		.size	ADC_SAR_Seq_1_CountsTo_Volts, .-ADC_SAR_Seq_1_CountsTo_Volts
 914              		.comm	ADC_SAR_Seq_1_countsPer10Volt,4,4
 915              		.comm	ADC_SAR_Seq_1_offset,2,4
 916              		.global	ADC_SAR_Seq_1_initVar
 917              		.bss
ARM GAS  C:\Users\Steve\AppData\Local\Temp\cc8wnACi.s 			page 32


 918              		.set	.LANCHOR0,. + 0
 919              		.type	ADC_SAR_Seq_1_initVar, %object
 920              		.size	ADC_SAR_Seq_1_initVar, 1
 921              	ADC_SAR_Seq_1_initVar:
 922 0000 00       		.space	1
 923              		.text
 924              	.Letext0:
 925              		.file 2 ".\\Generated_Source\\PSoC4\\cytypes.h"
 926              		.file 3 ".\\Generated_Source\\PSoC4\\CyLib.h"