ARM GAS  C:\Users\Steve\AppData\Local\Temp\cclp5o4r.s 			page 1


   1              		.cpu cortex-m0
   2              		.fpu softvfp
   3              		.eabi_attribute 20, 1
   4              		.eabi_attribute 21, 1
   5              		.eabi_attribute 23, 3
   6              		.eabi_attribute 24, 1
   7              		.eabi_attribute 25, 1
   8              		.eabi_attribute 26, 1
   9              		.eabi_attribute 30, 2
  10              		.eabi_attribute 34, 0
  11              		.eabi_attribute 18, 4
  12              		.code	16
  13              		.file	"cyfitter_cfg.c"
  14              		.text
  15              	.Ltext0:
  16              		.cfi_sections	.debug_frame
  17              		.section	.psocinit,"ax",%progbits
  18              		.align	2
  19              		.global	cyfitter_cfg
  20              		.code	16
  21              		.thumb_func
  22              		.type	cyfitter_cfg, %function
  23              	cyfitter_cfg:
  24              	.LFB7:
  25              		.file 1 ".\\Generated_Source\\PSoC4\\cyfitter_cfg.c"
   1:.\Generated_Source\PSoC4/cyfitter_cfg.c **** /*******************************************************************************
   2:.\Generated_Source\PSoC4/cyfitter_cfg.c **** * FILENAME: cyfitter_cfg.c
   3:.\Generated_Source\PSoC4/cyfitter_cfg.c **** * PSoC Creator 3.0 Component Pack 7
   4:.\Generated_Source\PSoC4/cyfitter_cfg.c **** *
   5:.\Generated_Source\PSoC4/cyfitter_cfg.c **** * Description:
   6:.\Generated_Source\PSoC4/cyfitter_cfg.c **** * This file is automatically generated by PSoC Creator with device 
   7:.\Generated_Source\PSoC4/cyfitter_cfg.c **** * initialization code.  Except for the user defined sections in
   8:.\Generated_Source\PSoC4/cyfitter_cfg.c **** * CyClockStartupError(), this file should not be modified.
   9:.\Generated_Source\PSoC4/cyfitter_cfg.c **** *
  10:.\Generated_Source\PSoC4/cyfitter_cfg.c **** ********************************************************************************
  11:.\Generated_Source\PSoC4/cyfitter_cfg.c **** * Copyright 2013, Cypress Semiconductor Corporation.  All rights reserved.
  12:.\Generated_Source\PSoC4/cyfitter_cfg.c **** * You may use this file only in accordance with the license, terms, conditions, 
  13:.\Generated_Source\PSoC4/cyfitter_cfg.c **** * disclaimers, and limitations in the end user license agreement accompanying 
  14:.\Generated_Source\PSoC4/cyfitter_cfg.c **** * the software package with which this file was provided.
  15:.\Generated_Source\PSoC4/cyfitter_cfg.c **** ********************************************************************************/
  16:.\Generated_Source\PSoC4/cyfitter_cfg.c **** 
  17:.\Generated_Source\PSoC4/cyfitter_cfg.c **** #include <string.h>
  18:.\Generated_Source\PSoC4/cyfitter_cfg.c **** #include <cytypes.h>
  19:.\Generated_Source\PSoC4/cyfitter_cfg.c **** #include <cydevice_trm.h>
  20:.\Generated_Source\PSoC4/cyfitter_cfg.c **** #include <cyfitter.h>
  21:.\Generated_Source\PSoC4/cyfitter_cfg.c **** #include <CyLib.h>
  22:.\Generated_Source\PSoC4/cyfitter_cfg.c **** #include <cyfitter_cfg.h>
  23:.\Generated_Source\PSoC4/cyfitter_cfg.c **** 
  24:.\Generated_Source\PSoC4/cyfitter_cfg.c **** 
  25:.\Generated_Source\PSoC4/cyfitter_cfg.c **** #if defined(__GNUC__) || defined(__ARMCC_VERSION)
  26:.\Generated_Source\PSoC4/cyfitter_cfg.c ****     #define CYPACKED 
  27:.\Generated_Source\PSoC4/cyfitter_cfg.c ****     #define CYPACKED_ATTR __attribute__ ((packed))
  28:.\Generated_Source\PSoC4/cyfitter_cfg.c ****     #define CYALIGNED __attribute__ ((aligned))
  29:.\Generated_Source\PSoC4/cyfitter_cfg.c ****     #define CY_CFG_UNUSED __attribute__ ((unused))
  30:.\Generated_Source\PSoC4/cyfitter_cfg.c ****     #define CY_CFG_SECTION __attribute__ ((section(".psocinit")))
  31:.\Generated_Source\PSoC4/cyfitter_cfg.c ****     
  32:.\Generated_Source\PSoC4/cyfitter_cfg.c ****     #if defined(__ARMCC_VERSION)
ARM GAS  C:\Users\Steve\AppData\Local\Temp\cclp5o4r.s 			page 2


  33:.\Generated_Source\PSoC4/cyfitter_cfg.c ****         #define CY_CFG_MEMORY_BARRIER() __memory_changed()
  34:.\Generated_Source\PSoC4/cyfitter_cfg.c ****     #else
  35:.\Generated_Source\PSoC4/cyfitter_cfg.c ****         #define CY_CFG_MEMORY_BARRIER() __sync_synchronize()
  36:.\Generated_Source\PSoC4/cyfitter_cfg.c ****     #endif
  37:.\Generated_Source\PSoC4/cyfitter_cfg.c ****     
  38:.\Generated_Source\PSoC4/cyfitter_cfg.c **** #elif defined(__ICCARM__)
  39:.\Generated_Source\PSoC4/cyfitter_cfg.c ****     #include <intrinsics.h>
  40:.\Generated_Source\PSoC4/cyfitter_cfg.c **** 
  41:.\Generated_Source\PSoC4/cyfitter_cfg.c ****     #define CYPACKED __packed
  42:.\Generated_Source\PSoC4/cyfitter_cfg.c ****     #define CYPACKED_ATTR 
  43:.\Generated_Source\PSoC4/cyfitter_cfg.c ****     #define CYALIGNED _Pragma("data_alignment=4")
  44:.\Generated_Source\PSoC4/cyfitter_cfg.c ****     #define CY_CFG_UNUSED _Pragma("diag_suppress=Pe177")
  45:.\Generated_Source\PSoC4/cyfitter_cfg.c ****     #define CY_CFG_SECTION _Pragma("location=\".psocinit\"")
  46:.\Generated_Source\PSoC4/cyfitter_cfg.c ****     
  47:.\Generated_Source\PSoC4/cyfitter_cfg.c ****     #define CY_CFG_MEMORY_BARRIER() __DMB()
  48:.\Generated_Source\PSoC4/cyfitter_cfg.c ****     
  49:.\Generated_Source\PSoC4/cyfitter_cfg.c **** #else
  50:.\Generated_Source\PSoC4/cyfitter_cfg.c ****     #error Unsupported toolchain
  51:.\Generated_Source\PSoC4/cyfitter_cfg.c **** #endif
  52:.\Generated_Source\PSoC4/cyfitter_cfg.c **** 
  53:.\Generated_Source\PSoC4/cyfitter_cfg.c **** 
  54:.\Generated_Source\PSoC4/cyfitter_cfg.c **** CY_CFG_UNUSED
  55:.\Generated_Source\PSoC4/cyfitter_cfg.c **** static void CYMEMZERO(void *s, size_t n);
  56:.\Generated_Source\PSoC4/cyfitter_cfg.c **** CY_CFG_UNUSED
  57:.\Generated_Source\PSoC4/cyfitter_cfg.c **** static void CYMEMZERO(void *s, size_t n)
  58:.\Generated_Source\PSoC4/cyfitter_cfg.c **** {
  59:.\Generated_Source\PSoC4/cyfitter_cfg.c **** 	(void)memset(s, 0, n);
  60:.\Generated_Source\PSoC4/cyfitter_cfg.c **** }
  61:.\Generated_Source\PSoC4/cyfitter_cfg.c **** CY_CFG_UNUSED
  62:.\Generated_Source\PSoC4/cyfitter_cfg.c **** static void CYCONFIGCPY(void *dest, const void *src, size_t n);
  63:.\Generated_Source\PSoC4/cyfitter_cfg.c **** CY_CFG_UNUSED
  64:.\Generated_Source\PSoC4/cyfitter_cfg.c **** static void CYCONFIGCPY(void *dest, const void *src, size_t n)
  65:.\Generated_Source\PSoC4/cyfitter_cfg.c **** {
  66:.\Generated_Source\PSoC4/cyfitter_cfg.c **** 	(void)memcpy(dest, src, n);
  67:.\Generated_Source\PSoC4/cyfitter_cfg.c **** }
  68:.\Generated_Source\PSoC4/cyfitter_cfg.c **** CY_CFG_UNUSED
  69:.\Generated_Source\PSoC4/cyfitter_cfg.c **** static void CYCONFIGCPYCODE(void *dest, const void *src, size_t n);
  70:.\Generated_Source\PSoC4/cyfitter_cfg.c **** CY_CFG_UNUSED
  71:.\Generated_Source\PSoC4/cyfitter_cfg.c **** static void CYCONFIGCPYCODE(void *dest, const void *src, size_t n)
  72:.\Generated_Source\PSoC4/cyfitter_cfg.c **** {
  73:.\Generated_Source\PSoC4/cyfitter_cfg.c **** 	(void)memcpy(dest, src, n);
  74:.\Generated_Source\PSoC4/cyfitter_cfg.c **** }
  75:.\Generated_Source\PSoC4/cyfitter_cfg.c **** 
  76:.\Generated_Source\PSoC4/cyfitter_cfg.c **** 
  77:.\Generated_Source\PSoC4/cyfitter_cfg.c **** 
  78:.\Generated_Source\PSoC4/cyfitter_cfg.c **** /* Clock startup error codes                                                   */
  79:.\Generated_Source\PSoC4/cyfitter_cfg.c **** #define CYCLOCKSTART_NO_ERROR    0u
  80:.\Generated_Source\PSoC4/cyfitter_cfg.c **** #define CYCLOCKSTART_XTAL_ERROR  1u
  81:.\Generated_Source\PSoC4/cyfitter_cfg.c **** #define CYCLOCKSTART_32KHZ_ERROR 2u
  82:.\Generated_Source\PSoC4/cyfitter_cfg.c **** #define CYCLOCKSTART_PLL_ERROR   3u
  83:.\Generated_Source\PSoC4/cyfitter_cfg.c **** 
  84:.\Generated_Source\PSoC4/cyfitter_cfg.c **** #ifdef CY_NEED_CYCLOCKSTARTUPERROR
  85:.\Generated_Source\PSoC4/cyfitter_cfg.c **** /*******************************************************************************
  86:.\Generated_Source\PSoC4/cyfitter_cfg.c **** * Function Name: CyClockStartupError
  87:.\Generated_Source\PSoC4/cyfitter_cfg.c **** ********************************************************************************
  88:.\Generated_Source\PSoC4/cyfitter_cfg.c **** * Summary:
  89:.\Generated_Source\PSoC4/cyfitter_cfg.c **** *  If an error is encountered during clock configuration (crystal startup error,
ARM GAS  C:\Users\Steve\AppData\Local\Temp\cclp5o4r.s 			page 3


  90:.\Generated_Source\PSoC4/cyfitter_cfg.c **** *  PLL lock error, etc.), the system will end up here.  Unless reimplemented by
  91:.\Generated_Source\PSoC4/cyfitter_cfg.c **** *  the customer, this function will stop in an infinite loop.
  92:.\Generated_Source\PSoC4/cyfitter_cfg.c **** *
  93:.\Generated_Source\PSoC4/cyfitter_cfg.c **** * Parameters:
  94:.\Generated_Source\PSoC4/cyfitter_cfg.c **** *   void
  95:.\Generated_Source\PSoC4/cyfitter_cfg.c **** *
  96:.\Generated_Source\PSoC4/cyfitter_cfg.c **** * Return:
  97:.\Generated_Source\PSoC4/cyfitter_cfg.c **** *   void
  98:.\Generated_Source\PSoC4/cyfitter_cfg.c **** *
  99:.\Generated_Source\PSoC4/cyfitter_cfg.c **** *******************************************************************************/
 100:.\Generated_Source\PSoC4/cyfitter_cfg.c **** CY_CFG_UNUSED
 101:.\Generated_Source\PSoC4/cyfitter_cfg.c **** static void CyClockStartupError(uint8 errorCode);
 102:.\Generated_Source\PSoC4/cyfitter_cfg.c **** CY_CFG_UNUSED
 103:.\Generated_Source\PSoC4/cyfitter_cfg.c **** static void CyClockStartupError(uint8 errorCode)
 104:.\Generated_Source\PSoC4/cyfitter_cfg.c **** {
 105:.\Generated_Source\PSoC4/cyfitter_cfg.c ****     /* To remove the compiler warning if errorCode not used.                */
 106:.\Generated_Source\PSoC4/cyfitter_cfg.c ****     errorCode = errorCode;
 107:.\Generated_Source\PSoC4/cyfitter_cfg.c **** 
 108:.\Generated_Source\PSoC4/cyfitter_cfg.c ****     /* `#START CyClockStartupError` */
 109:.\Generated_Source\PSoC4/cyfitter_cfg.c **** 
 110:.\Generated_Source\PSoC4/cyfitter_cfg.c ****     /* If we have a clock startup error (bad MHz crystal, PLL lock, etc.),  */
 111:.\Generated_Source\PSoC4/cyfitter_cfg.c ****     /* we will end up here to allow the customer to implement something to  */
 112:.\Generated_Source\PSoC4/cyfitter_cfg.c ****     /* deal with the clock condition.                                       */
 113:.\Generated_Source\PSoC4/cyfitter_cfg.c **** 
 114:.\Generated_Source\PSoC4/cyfitter_cfg.c ****     /* `#END` */
 115:.\Generated_Source\PSoC4/cyfitter_cfg.c **** 
 116:.\Generated_Source\PSoC4/cyfitter_cfg.c ****     /* If nothing else, stop here since the clocks have not started         */
 117:.\Generated_Source\PSoC4/cyfitter_cfg.c ****     /* correctly.                                                           */
 118:.\Generated_Source\PSoC4/cyfitter_cfg.c ****     while(1) {}
 119:.\Generated_Source\PSoC4/cyfitter_cfg.c **** }
 120:.\Generated_Source\PSoC4/cyfitter_cfg.c **** #endif
 121:.\Generated_Source\PSoC4/cyfitter_cfg.c **** 
 122:.\Generated_Source\PSoC4/cyfitter_cfg.c **** #define CY_CFG_BASE_ADDR_COUNT 9u
 123:.\Generated_Source\PSoC4/cyfitter_cfg.c **** CYPACKED typedef struct
 124:.\Generated_Source\PSoC4/cyfitter_cfg.c **** {
 125:.\Generated_Source\PSoC4/cyfitter_cfg.c **** 	uint8 offset;
 126:.\Generated_Source\PSoC4/cyfitter_cfg.c **** 	uint8 value;
 127:.\Generated_Source\PSoC4/cyfitter_cfg.c **** } CYPACKED_ATTR cy_cfg_addrvalue_t;
 128:.\Generated_Source\PSoC4/cyfitter_cfg.c **** 
 129:.\Generated_Source\PSoC4/cyfitter_cfg.c **** 
 130:.\Generated_Source\PSoC4/cyfitter_cfg.c **** 
 131:.\Generated_Source\PSoC4/cyfitter_cfg.c **** /*******************************************************************************
 132:.\Generated_Source\PSoC4/cyfitter_cfg.c **** * Function Name: cfg_write_bytes32
 133:.\Generated_Source\PSoC4/cyfitter_cfg.c **** ********************************************************************************
 134:.\Generated_Source\PSoC4/cyfitter_cfg.c **** * Summary:
 135:.\Generated_Source\PSoC4/cyfitter_cfg.c **** *  This function is used for setting up the chip configuration areas that
 136:.\Generated_Source\PSoC4/cyfitter_cfg.c **** *  contain relatively sparse data.
 137:.\Generated_Source\PSoC4/cyfitter_cfg.c **** *
 138:.\Generated_Source\PSoC4/cyfitter_cfg.c **** * Parameters:
 139:.\Generated_Source\PSoC4/cyfitter_cfg.c **** *   void
 140:.\Generated_Source\PSoC4/cyfitter_cfg.c **** *
 141:.\Generated_Source\PSoC4/cyfitter_cfg.c **** * Return:
 142:.\Generated_Source\PSoC4/cyfitter_cfg.c **** *   void
 143:.\Generated_Source\PSoC4/cyfitter_cfg.c **** *
 144:.\Generated_Source\PSoC4/cyfitter_cfg.c **** *******************************************************************************/
 145:.\Generated_Source\PSoC4/cyfitter_cfg.c **** static void cfg_write_bytes32(const uint32 addr_table[], const cy_cfg_addrvalue_t data_table[]);
 146:.\Generated_Source\PSoC4/cyfitter_cfg.c **** static void cfg_write_bytes32(const uint32 addr_table[], const cy_cfg_addrvalue_t data_table[])
ARM GAS  C:\Users\Steve\AppData\Local\Temp\cclp5o4r.s 			page 4


 147:.\Generated_Source\PSoC4/cyfitter_cfg.c **** {
 148:.\Generated_Source\PSoC4/cyfitter_cfg.c **** 	/* For 32-bit little-endian architectures */
 149:.\Generated_Source\PSoC4/cyfitter_cfg.c **** 	uint32 i, j = 0u;
 150:.\Generated_Source\PSoC4/cyfitter_cfg.c **** 	for (i = 0u; i < CY_CFG_BASE_ADDR_COUNT; i++)
 151:.\Generated_Source\PSoC4/cyfitter_cfg.c **** 	{
 152:.\Generated_Source\PSoC4/cyfitter_cfg.c **** 		uint32 baseAddr = addr_table[i];
 153:.\Generated_Source\PSoC4/cyfitter_cfg.c **** 		uint8 count = (uint8)baseAddr;
 154:.\Generated_Source\PSoC4/cyfitter_cfg.c **** 		baseAddr &= 0xFFFFFF00u;
 155:.\Generated_Source\PSoC4/cyfitter_cfg.c **** 		while (count != 0u)
 156:.\Generated_Source\PSoC4/cyfitter_cfg.c **** 		{
 157:.\Generated_Source\PSoC4/cyfitter_cfg.c **** 			CY_SET_XTND_REG8((void CYFAR *)(baseAddr + data_table[j].offset), data_table[j].value);
 158:.\Generated_Source\PSoC4/cyfitter_cfg.c **** 			j++;
 159:.\Generated_Source\PSoC4/cyfitter_cfg.c **** 			count--;
 160:.\Generated_Source\PSoC4/cyfitter_cfg.c **** 		}
 161:.\Generated_Source\PSoC4/cyfitter_cfg.c **** 	}
 162:.\Generated_Source\PSoC4/cyfitter_cfg.c **** }
 163:.\Generated_Source\PSoC4/cyfitter_cfg.c **** 
 164:.\Generated_Source\PSoC4/cyfitter_cfg.c **** /*******************************************************************************
 165:.\Generated_Source\PSoC4/cyfitter_cfg.c **** * Function Name: SetIMOBGTrims
 166:.\Generated_Source\PSoC4/cyfitter_cfg.c **** ********************************************************************************
 167:.\Generated_Source\PSoC4/cyfitter_cfg.c **** *
 168:.\Generated_Source\PSoC4/cyfitter_cfg.c **** * Summary:
 169:.\Generated_Source\PSoC4/cyfitter_cfg.c **** *   Performs the configuration of the bandgap trim for the IMO based on the given
 170:.\Generated_Source\PSoC4/cyfitter_cfg.c **** *   expected frequency of the IMO. 
 171:.\Generated_Source\PSoC4/cyfitter_cfg.c **** *
 172:.\Generated_Source\PSoC4/cyfitter_cfg.c **** * Parameters:
 173:.\Generated_Source\PSoC4/cyfitter_cfg.c **** *   imoFreq: Frequency for operation of the IMO.
 174:.\Generated_Source\PSoC4/cyfitter_cfg.c **** *
 175:.\Generated_Source\PSoC4/cyfitter_cfg.c **** * Return:
 176:.\Generated_Source\PSoC4/cyfitter_cfg.c **** *   void
 177:.\Generated_Source\PSoC4/cyfitter_cfg.c **** *
 178:.\Generated_Source\PSoC4/cyfitter_cfg.c **** *******************************************************************************/
 179:.\Generated_Source\PSoC4/cyfitter_cfg.c **** static void SetIMOBGTrims(uint8 imoFreq);
 180:.\Generated_Source\PSoC4/cyfitter_cfg.c **** CY_CFG_SECTION
 181:.\Generated_Source\PSoC4/cyfitter_cfg.c **** static void SetIMOBGTrims(uint8 imoFreq)
 182:.\Generated_Source\PSoC4/cyfitter_cfg.c **** {
 183:.\Generated_Source\PSoC4/cyfitter_cfg.c **** 	CYPACKED typedef struct {
 184:.\Generated_Source\PSoC4/cyfitter_cfg.c **** 		uint8 freq;
 185:.\Generated_Source\PSoC4/cyfitter_cfg.c **** 		uint8 absolute;
 186:.\Generated_Source\PSoC4/cyfitter_cfg.c **** 		uint8 tmpco;
 187:.\Generated_Source\PSoC4/cyfitter_cfg.c **** 	} CYPACKED_ATTR imo_trim_entry_t;
 188:.\Generated_Source\PSoC4/cyfitter_cfg.c **** 
 189:.\Generated_Source\PSoC4/cyfitter_cfg.c **** 	CYPACKED typedef struct {
 190:.\Generated_Source\PSoC4/cyfitter_cfg.c **** 		imo_trim_entry_t entries[4];
 191:.\Generated_Source\PSoC4/cyfitter_cfg.c **** 	} CYPACKED_ATTR imo_trim_table_t;
 192:.\Generated_Source\PSoC4/cyfitter_cfg.c **** 
 193:.\Generated_Source\PSoC4/cyfitter_cfg.c **** 	static const imo_trim_table_t *imo_trim_table = (const imo_trim_table_t *)CYREG_SFLASH_IMO_MAXF0;
 194:.\Generated_Source\PSoC4/cyfitter_cfg.c **** 	static const uint32 IMO_TRIM_FREQ_TABLE_ENTRIES = sizeof(imo_trim_table->entries)/sizeof(imo_trim_
 195:.\Generated_Source\PSoC4/cyfitter_cfg.c **** 
 196:.\Generated_Source\PSoC4/cyfitter_cfg.c **** 	int32 imoTrimIndex;
 197:.\Generated_Source\PSoC4/cyfitter_cfg.c **** 	uint8 setAbs;
 198:.\Generated_Source\PSoC4/cyfitter_cfg.c **** 	uint8 setTmpCo;
 199:.\Generated_Source\PSoC4/cyfitter_cfg.c **** 
 200:.\Generated_Source\PSoC4/cyfitter_cfg.c **** 	/* Traverse the SFLASH IMO frequency-dependent bandgap trim table to
 201:.\Generated_Source\PSoC4/cyfitter_cfg.c **** 	 * locate the appropriate value to trim the IMO bandgap based on freq. */
 202:.\Generated_Source\PSoC4/cyfitter_cfg.c **** 	setAbs = CY_GET_REG8((const void *)CYREG_SFLASH_IMO_ABS4);
 203:.\Generated_Source\PSoC4/cyfitter_cfg.c **** 	setTmpCo = CY_GET_REG8((const void *)CYREG_SFLASH_IMO_TMPCO4);
ARM GAS  C:\Users\Steve\AppData\Local\Temp\cclp5o4r.s 			page 5


 204:.\Generated_Source\PSoC4/cyfitter_cfg.c **** 	for (imoTrimIndex = ((int32)IMO_TRIM_FREQ_TABLE_ENTRIES)-1;
 205:.\Generated_Source\PSoC4/cyfitter_cfg.c **** 	     (imoTrimIndex >= 0) && (imoFreq <= imo_trim_table->entries[imoTrimIndex].freq);
 206:.\Generated_Source\PSoC4/cyfitter_cfg.c **** 	     imoTrimIndex--)
 207:.\Generated_Source\PSoC4/cyfitter_cfg.c **** 	{
 208:.\Generated_Source\PSoC4/cyfitter_cfg.c **** 		setAbs = imo_trim_table->entries[imoTrimIndex].absolute;
 209:.\Generated_Source\PSoC4/cyfitter_cfg.c **** 		setTmpCo = imo_trim_table->entries[imoTrimIndex].tmpco;
 210:.\Generated_Source\PSoC4/cyfitter_cfg.c **** 	}
 211:.\Generated_Source\PSoC4/cyfitter_cfg.c **** 
 212:.\Generated_Source\PSoC4/cyfitter_cfg.c **** 	CY_SET_REG32((void *)CYREG_PWR_BG_TRIM4, setAbs);
 213:.\Generated_Source\PSoC4/cyfitter_cfg.c **** 	CY_SET_REG32((void *)CYREG_PWR_BG_TRIM5, setTmpCo);
 214:.\Generated_Source\PSoC4/cyfitter_cfg.c **** }
 215:.\Generated_Source\PSoC4/cyfitter_cfg.c **** 
 216:.\Generated_Source\PSoC4/cyfitter_cfg.c **** 
 217:.\Generated_Source\PSoC4/cyfitter_cfg.c **** 
 218:.\Generated_Source\PSoC4/cyfitter_cfg.c **** /*******************************************************************************
 219:.\Generated_Source\PSoC4/cyfitter_cfg.c **** * Function Name: ClockSetup
 220:.\Generated_Source\PSoC4/cyfitter_cfg.c **** ********************************************************************************
 221:.\Generated_Source\PSoC4/cyfitter_cfg.c **** *
 222:.\Generated_Source\PSoC4/cyfitter_cfg.c **** * Summary:
 223:.\Generated_Source\PSoC4/cyfitter_cfg.c **** *   Performs the initialization of all of the clocks in the device based on the
 224:.\Generated_Source\PSoC4/cyfitter_cfg.c **** *   settings in the Clock tab of the DWR.  This includes enabling the requested
 225:.\Generated_Source\PSoC4/cyfitter_cfg.c **** *   clocks and setting the necessary dividers to produce the desired frequency. 
 226:.\Generated_Source\PSoC4/cyfitter_cfg.c **** *
 227:.\Generated_Source\PSoC4/cyfitter_cfg.c **** * Parameters:
 228:.\Generated_Source\PSoC4/cyfitter_cfg.c **** *   void
 229:.\Generated_Source\PSoC4/cyfitter_cfg.c **** *
 230:.\Generated_Source\PSoC4/cyfitter_cfg.c **** * Return:
 231:.\Generated_Source\PSoC4/cyfitter_cfg.c **** *   void
 232:.\Generated_Source\PSoC4/cyfitter_cfg.c **** *
 233:.\Generated_Source\PSoC4/cyfitter_cfg.c **** *******************************************************************************/
 234:.\Generated_Source\PSoC4/cyfitter_cfg.c **** static void ClockSetup(void);
 235:.\Generated_Source\PSoC4/cyfitter_cfg.c **** CY_CFG_SECTION
 236:.\Generated_Source\PSoC4/cyfitter_cfg.c **** static void ClockSetup(void)
 237:.\Generated_Source\PSoC4/cyfitter_cfg.c **** {
 238:.\Generated_Source\PSoC4/cyfitter_cfg.c **** 	/* Enable HALF_EN before trimming for the flash accelerator. */
 239:.\Generated_Source\PSoC4/cyfitter_cfg.c **** 	CY_SET_REG32((void CYXDATA *)(CYREG_CLK_SELECT), (CY_GET_REG32((void *)CYREG_CLK_SELECT) | 0x00040
 240:.\Generated_Source\PSoC4/cyfitter_cfg.c **** 
 241:.\Generated_Source\PSoC4/cyfitter_cfg.c **** 	/* Trim IMO BG based on desired frequency. */
 242:.\Generated_Source\PSoC4/cyfitter_cfg.c **** 	SetIMOBGTrims(48u);
 243:.\Generated_Source\PSoC4/cyfitter_cfg.c **** 
 244:.\Generated_Source\PSoC4/cyfitter_cfg.c **** 	/* Going faster than 24MHz, so update trim value then adjust to new clock speed. */
 245:.\Generated_Source\PSoC4/cyfitter_cfg.c **** 	CY_SET_REG32((void CYXDATA *)(CYREG_CLK_IMO_TRIM1), (CY_GET_REG8((void *)CYREG_SFLASH_IMO_TRIM45))
 246:.\Generated_Source\PSoC4/cyfitter_cfg.c **** 	CyDelayUs(5u);
 247:.\Generated_Source\PSoC4/cyfitter_cfg.c **** 	CY_SET_REG32((void CYXDATA *)(CYREG_CLK_IMO_TRIM2), (53u));
 248:.\Generated_Source\PSoC4/cyfitter_cfg.c **** 
 249:.\Generated_Source\PSoC4/cyfitter_cfg.c **** 	/* CYDEV_CLK_SELECT00 Starting address: CYDEV_CLK_SELECT00 */
 250:.\Generated_Source\PSoC4/cyfitter_cfg.c **** 	CY_SET_XTND_REG32((void CYFAR *)(CYREG_CLK_SELECT07), 0x00000010u);
 251:.\Generated_Source\PSoC4/cyfitter_cfg.c **** 
 252:.\Generated_Source\PSoC4/cyfitter_cfg.c **** 	/* CYDEV_CLK_IMO_CONFIG Starting address: CYDEV_CLK_IMO_CONFIG */
 253:.\Generated_Source\PSoC4/cyfitter_cfg.c **** 	CY_SET_XTND_REG32((void CYFAR *)(CYREG_CLK_IMO_CONFIG), 0x82000000u);
 254:.\Generated_Source\PSoC4/cyfitter_cfg.c **** 
 255:.\Generated_Source\PSoC4/cyfitter_cfg.c **** 	/* CYDEV_CLK_ILO_CONFIG Starting address: CYDEV_CLK_ILO_CONFIG */
 256:.\Generated_Source\PSoC4/cyfitter_cfg.c **** 	CY_SET_XTND_REG32((void CYFAR *)(CYREG_CLK_ILO_CONFIG), 0x80000000u);
 257:.\Generated_Source\PSoC4/cyfitter_cfg.c **** 
 258:.\Generated_Source\PSoC4/cyfitter_cfg.c **** 	/* CYDEV_CLK_SELECT Starting address: CYDEV_CLK_SELECT */
 259:.\Generated_Source\PSoC4/cyfitter_cfg.c **** 	CY_SET_XTND_REG32((void CYFAR *)(CYREG_CLK_SELECT), 0x00040000u);
 260:.\Generated_Source\PSoC4/cyfitter_cfg.c **** 
ARM GAS  C:\Users\Steve\AppData\Local\Temp\cclp5o4r.s 			page 6


 261:.\Generated_Source\PSoC4/cyfitter_cfg.c **** 	/* CYDEV_CLK_DIVIDER_A00 Starting address: CYDEV_CLK_DIVIDER_A00 */
 262:.\Generated_Source\PSoC4/cyfitter_cfg.c **** 	CY_SET_XTND_REG32((void CYFAR *)(CYREG_CLK_DIVIDER_A00), 0x8000000Fu);
 263:.\Generated_Source\PSoC4/cyfitter_cfg.c **** 
 264:.\Generated_Source\PSoC4/cyfitter_cfg.c **** }
 265:.\Generated_Source\PSoC4/cyfitter_cfg.c **** 
 266:.\Generated_Source\PSoC4/cyfitter_cfg.c **** 
 267:.\Generated_Source\PSoC4/cyfitter_cfg.c **** /* Analog API Functions */
 268:.\Generated_Source\PSoC4/cyfitter_cfg.c **** 
 269:.\Generated_Source\PSoC4/cyfitter_cfg.c **** 
 270:.\Generated_Source\PSoC4/cyfitter_cfg.c **** /*******************************************************************************
 271:.\Generated_Source\PSoC4/cyfitter_cfg.c **** * Function Name: AnalogSetDefault
 272:.\Generated_Source\PSoC4/cyfitter_cfg.c **** ********************************************************************************
 273:.\Generated_Source\PSoC4/cyfitter_cfg.c **** *
 274:.\Generated_Source\PSoC4/cyfitter_cfg.c **** * Summary:
 275:.\Generated_Source\PSoC4/cyfitter_cfg.c **** *  Sets up the analog portions of the chip to default values based on chip
 276:.\Generated_Source\PSoC4/cyfitter_cfg.c **** *  configuration options from the project.
 277:.\Generated_Source\PSoC4/cyfitter_cfg.c **** *
 278:.\Generated_Source\PSoC4/cyfitter_cfg.c **** * Parameters:
 279:.\Generated_Source\PSoC4/cyfitter_cfg.c **** *  void
 280:.\Generated_Source\PSoC4/cyfitter_cfg.c **** *
 281:.\Generated_Source\PSoC4/cyfitter_cfg.c **** * Return:
 282:.\Generated_Source\PSoC4/cyfitter_cfg.c **** *  void
 283:.\Generated_Source\PSoC4/cyfitter_cfg.c **** *
 284:.\Generated_Source\PSoC4/cyfitter_cfg.c **** *******************************************************************************/
 285:.\Generated_Source\PSoC4/cyfitter_cfg.c **** static void AnalogSetDefault(void);
 286:.\Generated_Source\PSoC4/cyfitter_cfg.c **** static void AnalogSetDefault(void)
 287:.\Generated_Source\PSoC4/cyfitter_cfg.c **** {
 288:.\Generated_Source\PSoC4/cyfitter_cfg.c **** 	CY_SET_XTND_REG32((void CYFAR *)CYREG_SAR_MUX_SWITCH0, 0x00000001u);
 289:.\Generated_Source\PSoC4/cyfitter_cfg.c **** }
 290:.\Generated_Source\PSoC4/cyfitter_cfg.c **** 
 291:.\Generated_Source\PSoC4/cyfitter_cfg.c **** #define CY_AMUX_UNUSED CYREG_CM0_ROM_DWT
 292:.\Generated_Source\PSoC4/cyfitter_cfg.c **** 
 293:.\Generated_Source\PSoC4/cyfitter_cfg.c **** 
 294:.\Generated_Source\PSoC4/cyfitter_cfg.c **** /*******************************************************************************
 295:.\Generated_Source\PSoC4/cyfitter_cfg.c **** * Function Name: cyfitter_cfg
 296:.\Generated_Source\PSoC4/cyfitter_cfg.c **** ********************************************************************************
 297:.\Generated_Source\PSoC4/cyfitter_cfg.c **** * Summary:
 298:.\Generated_Source\PSoC4/cyfitter_cfg.c **** *  This function is called by the start-up code for the selected device. It
 299:.\Generated_Source\PSoC4/cyfitter_cfg.c **** *  performs all of the necessary device configuration based on the design
 300:.\Generated_Source\PSoC4/cyfitter_cfg.c **** *  settings.  This includes settings from the Design Wide Resources (DWR) such
 301:.\Generated_Source\PSoC4/cyfitter_cfg.c **** *  as Clocks and Pins as well as any component configuration that is necessary.
 302:.\Generated_Source\PSoC4/cyfitter_cfg.c **** *
 303:.\Generated_Source\PSoC4/cyfitter_cfg.c **** * Parameters:  
 304:.\Generated_Source\PSoC4/cyfitter_cfg.c **** *   void
 305:.\Generated_Source\PSoC4/cyfitter_cfg.c **** *
 306:.\Generated_Source\PSoC4/cyfitter_cfg.c **** * Return:
 307:.\Generated_Source\PSoC4/cyfitter_cfg.c **** *   void
 308:.\Generated_Source\PSoC4/cyfitter_cfg.c **** *
 309:.\Generated_Source\PSoC4/cyfitter_cfg.c **** *******************************************************************************/
 310:.\Generated_Source\PSoC4/cyfitter_cfg.c **** CY_CFG_SECTION
 311:.\Generated_Source\PSoC4/cyfitter_cfg.c **** void cyfitter_cfg(void)
 312:.\Generated_Source\PSoC4/cyfitter_cfg.c **** {
  26              		.loc 1 312 0
  27              		.cfi_startproc
  28 0000 F0B5     		push	{r4, r5, r6, r7, lr}
  29              	.LCFI0:
  30              		.cfi_def_cfa_offset 20
ARM GAS  C:\Users\Steve\AppData\Local\Temp\cclp5o4r.s 			page 7


  31              		.cfi_offset 4, -20
  32              		.cfi_offset 5, -16
  33              		.cfi_offset 6, -12
  34              		.cfi_offset 7, -8
  35              		.cfi_offset 14, -4
  36 0002 5746     		mov	r7, sl
  37 0004 4E46     		mov	r6, r9
  38 0006 4546     		mov	r5, r8
  39 0008 E0B4     		push	{r5, r6, r7}
  40              	.LCFI1:
  41              		.cfi_def_cfa_offset 32
  42              		.cfi_offset 8, -32
  43              		.cfi_offset 9, -28
  44              		.cfi_offset 10, -24
 313:.\Generated_Source\PSoC4/cyfitter_cfg.c **** 	/* Disable interrupts by default. Let user enable if/when they want. */
 314:.\Generated_Source\PSoC4/cyfitter_cfg.c **** 	CyGlobalIntDisable;
  45              		.loc 1 314 0
  46              	@ 314 ".\Generated_Source\PSoC4\cyfitter_cfg.c" 1
  47 000a 72B6     		CPSID   i
  48              	@ 0 "" 2
 315:.\Generated_Source\PSoC4/cyfitter_cfg.c **** 
 316:.\Generated_Source\PSoC4/cyfitter_cfg.c **** 	/* Enable the clock in the interrupt controller for the routed interrupts */
 317:.\Generated_Source\PSoC4/cyfitter_cfg.c **** 	CY_SET_REG8((void *)CYREG_UDB_UDBIF_INT_CLK_CTL, 0x01u);
  49              		.loc 1 317 0
  50              		.code	16
  51 000c 684B     		ldr	r3, .L20
  52 000e 0122     		mov	r2, #1
  53              	.LBB22:
  54              	.LBB23:
  55              	.LBB24:
  56              	.LBB25:
  59:.\Generated_Source\PSoC4/cyfitter_cfg.c **** 	(void)memset(s, 0, n);
  57              		.loc 1 59 0
  58 0010 8024     		mov	r4, #128
  59              	.LBE25:
  60              	.LBE24:
  61              	.LBE23:
  62              	.LBE22:
  63              		.loc 1 317 0
  64 0012 1A70     		strb	r2, [r3]
  65              	.LVL0:
  66              	.LBB38:
  67              	.LBB30:
  68              	.LBB28:
  69              	.LBB26:
  59:.\Generated_Source\PSoC4/cyfitter_cfg.c **** 	(void)memset(s, 0, n);
  70              		.loc 1 59 0
  71 0014 0021     		mov	r1, #0
  72 0016 E200     		lsl	r2, r4, #3
  73 0018 6648     		ldr	r0, .L20+4
  74 001a 8025     		mov	r5, #128
  75 001c FFF7FEFF 		bl	memset
  76              	.LVL1:
  77 0020 0021     		mov	r1, #0
  78 0022 EA00     		lsl	r2, r5, #3
  79 0024 6448     		ldr	r0, .L20+8
  80 0026 FFF7FEFF 		bl	memset
ARM GAS  C:\Users\Steve\AppData\Local\Temp\cclp5o4r.s 			page 8


  81              	.LVL2:
 318:.\Generated_Source\PSoC4/cyfitter_cfg.c **** 	{
 319:.\Generated_Source\PSoC4/cyfitter_cfg.c **** 		static const uint32 CYCODE cy_cfg_addr_table[] = {
 320:.\Generated_Source\PSoC4/cyfitter_cfg.c **** 			0x400F3049u, /* Base address: 0x400F3000 Count: 73 */
 321:.\Generated_Source\PSoC4/cyfitter_cfg.c **** 			0x400F3128u, /* Base address: 0x400F3100 Count: 40 */
 322:.\Generated_Source\PSoC4/cyfitter_cfg.c **** 			0x400F324Fu, /* Base address: 0x400F3200 Count: 79 */
 323:.\Generated_Source\PSoC4/cyfitter_cfg.c **** 			0x400F333Eu, /* Base address: 0x400F3300 Count: 62 */
 324:.\Generated_Source\PSoC4/cyfitter_cfg.c **** 			0x400F4009u, /* Base address: 0x400F4000 Count: 9 */
 325:.\Generated_Source\PSoC4/cyfitter_cfg.c **** 			0x400F4116u, /* Base address: 0x400F4100 Count: 22 */
 326:.\Generated_Source\PSoC4/cyfitter_cfg.c **** 			0x400F4201u, /* Base address: 0x400F4200 Count: 1 */
 327:.\Generated_Source\PSoC4/cyfitter_cfg.c **** 			0x400F430Fu, /* Base address: 0x400F4300 Count: 15 */
 328:.\Generated_Source\PSoC4/cyfitter_cfg.c **** 			0x400F6002u, /* Base address: 0x400F6000 Count: 2 */
 329:.\Generated_Source\PSoC4/cyfitter_cfg.c **** 		};
 330:.\Generated_Source\PSoC4/cyfitter_cfg.c **** 
 331:.\Generated_Source\PSoC4/cyfitter_cfg.c **** 		static const cy_cfg_addrvalue_t CYCODE cy_cfg_data_table[] = {
 332:.\Generated_Source\PSoC4/cyfitter_cfg.c **** 			{0x01u, 0x80u},
 333:.\Generated_Source\PSoC4/cyfitter_cfg.c **** 			{0x05u, 0x08u},
 334:.\Generated_Source\PSoC4/cyfitter_cfg.c **** 			{0x07u, 0x04u},
 335:.\Generated_Source\PSoC4/cyfitter_cfg.c **** 			{0x09u, 0x04u},
 336:.\Generated_Source\PSoC4/cyfitter_cfg.c **** 			{0x0Bu, 0x08u},
 337:.\Generated_Source\PSoC4/cyfitter_cfg.c **** 			{0x0Du, 0x01u},
 338:.\Generated_Source\PSoC4/cyfitter_cfg.c **** 			{0x0Fu, 0x02u},
 339:.\Generated_Source\PSoC4/cyfitter_cfg.c **** 			{0x15u, 0xD3u},
 340:.\Generated_Source\PSoC4/cyfitter_cfg.c **** 			{0x17u, 0x0Cu},
 341:.\Generated_Source\PSoC4/cyfitter_cfg.c **** 			{0x19u, 0x10u},
 342:.\Generated_Source\PSoC4/cyfitter_cfg.c **** 			{0x1Bu, 0x20u},
 343:.\Generated_Source\PSoC4/cyfitter_cfg.c **** 			{0x1Du, 0x40u},
 344:.\Generated_Source\PSoC4/cyfitter_cfg.c **** 			{0x21u, 0x6Fu},
 345:.\Generated_Source\PSoC4/cyfitter_cfg.c **** 			{0x23u, 0x90u},
 346:.\Generated_Source\PSoC4/cyfitter_cfg.c **** 			{0x25u, 0x02u},
 347:.\Generated_Source\PSoC4/cyfitter_cfg.c **** 			{0x27u, 0x01u},
 348:.\Generated_Source\PSoC4/cyfitter_cfg.c **** 			{0x29u, 0xDCu},
 349:.\Generated_Source\PSoC4/cyfitter_cfg.c **** 			{0x2Bu, 0x23u},
 350:.\Generated_Source\PSoC4/cyfitter_cfg.c **** 			{0x31u, 0x03u},
 351:.\Generated_Source\PSoC4/cyfitter_cfg.c **** 			{0x33u, 0x0Cu},
 352:.\Generated_Source\PSoC4/cyfitter_cfg.c **** 			{0x35u, 0x30u},
 353:.\Generated_Source\PSoC4/cyfitter_cfg.c **** 			{0x37u, 0xC0u},
 354:.\Generated_Source\PSoC4/cyfitter_cfg.c **** 			{0x3Bu, 0xAAu},
 355:.\Generated_Source\PSoC4/cyfitter_cfg.c **** 			{0x40u, 0x62u},
 356:.\Generated_Source\PSoC4/cyfitter_cfg.c **** 			{0x41u, 0x04u},
 357:.\Generated_Source\PSoC4/cyfitter_cfg.c **** 			{0x45u, 0x0Bu},
 358:.\Generated_Source\PSoC4/cyfitter_cfg.c **** 			{0x48u, 0x01u},
 359:.\Generated_Source\PSoC4/cyfitter_cfg.c **** 			{0x49u, 0xFFu},
 360:.\Generated_Source\PSoC4/cyfitter_cfg.c **** 			{0x4Au, 0xFFu},
 361:.\Generated_Source\PSoC4/cyfitter_cfg.c **** 			{0x4Bu, 0xFFu},
 362:.\Generated_Source\PSoC4/cyfitter_cfg.c **** 			{0x4Fu, 0x40u},
 363:.\Generated_Source\PSoC4/cyfitter_cfg.c **** 			{0x50u, 0x30u},
 364:.\Generated_Source\PSoC4/cyfitter_cfg.c **** 			{0x59u, 0x0Cu},
 365:.\Generated_Source\PSoC4/cyfitter_cfg.c **** 			{0x5Au, 0x0Cu},
 366:.\Generated_Source\PSoC4/cyfitter_cfg.c **** 			{0x5Bu, 0x04u},
 367:.\Generated_Source\PSoC4/cyfitter_cfg.c **** 			{0x5Cu, 0x90u},
 368:.\Generated_Source\PSoC4/cyfitter_cfg.c **** 			{0x5Du, 0x09u},
 369:.\Generated_Source\PSoC4/cyfitter_cfg.c **** 			{0x5Fu, 0x01u},
 370:.\Generated_Source\PSoC4/cyfitter_cfg.c **** 			{0x60u, 0xF0u},
 371:.\Generated_Source\PSoC4/cyfitter_cfg.c **** 			{0x62u, 0x40u},
 372:.\Generated_Source\PSoC4/cyfitter_cfg.c **** 			{0x63u, 0x02u},
 373:.\Generated_Source\PSoC4/cyfitter_cfg.c **** 			{0x64u, 0x10u},
ARM GAS  C:\Users\Steve\AppData\Local\Temp\cclp5o4r.s 			page 9


 374:.\Generated_Source\PSoC4/cyfitter_cfg.c **** 			{0x65u, 0x12u},
 375:.\Generated_Source\PSoC4/cyfitter_cfg.c **** 			{0x81u, 0x10u},
 376:.\Generated_Source\PSoC4/cyfitter_cfg.c **** 			{0x83u, 0x20u},
 377:.\Generated_Source\PSoC4/cyfitter_cfg.c **** 			{0x85u, 0x0Fu},
 378:.\Generated_Source\PSoC4/cyfitter_cfg.c **** 			{0x87u, 0xF0u},
 379:.\Generated_Source\PSoC4/cyfitter_cfg.c **** 			{0x89u, 0x40u},
 380:.\Generated_Source\PSoC4/cyfitter_cfg.c **** 			{0x8Bu, 0x80u},
 381:.\Generated_Source\PSoC4/cyfitter_cfg.c **** 			{0x8Du, 0x08u},
 382:.\Generated_Source\PSoC4/cyfitter_cfg.c **** 			{0x91u, 0x04u},
 383:.\Generated_Source\PSoC4/cyfitter_cfg.c **** 			{0x95u, 0xFCu},
 384:.\Generated_Source\PSoC4/cyfitter_cfg.c **** 			{0x97u, 0x03u},
 385:.\Generated_Source\PSoC4/cyfitter_cfg.c **** 			{0x99u, 0x01u},
 386:.\Generated_Source\PSoC4/cyfitter_cfg.c **** 			{0x9Bu, 0x02u},
 387:.\Generated_Source\PSoC4/cyfitter_cfg.c **** 			{0x9Du, 0x08u},
 388:.\Generated_Source\PSoC4/cyfitter_cfg.c **** 			{0xA1u, 0x80u},
 389:.\Generated_Source\PSoC4/cyfitter_cfg.c **** 			{0xA3u, 0x40u},
 390:.\Generated_Source\PSoC4/cyfitter_cfg.c **** 			{0xA5u, 0x02u},
 391:.\Generated_Source\PSoC4/cyfitter_cfg.c **** 			{0xA7u, 0x01u},
 392:.\Generated_Source\PSoC4/cyfitter_cfg.c **** 			{0xA9u, 0x20u},
 393:.\Generated_Source\PSoC4/cyfitter_cfg.c **** 			{0xABu, 0x10u},
 394:.\Generated_Source\PSoC4/cyfitter_cfg.c **** 			{0xADu, 0xF7u},
 395:.\Generated_Source\PSoC4/cyfitter_cfg.c **** 			{0xAFu, 0x08u},
 396:.\Generated_Source\PSoC4/cyfitter_cfg.c **** 			{0xB1u, 0x30u},
 397:.\Generated_Source\PSoC4/cyfitter_cfg.c **** 			{0xB3u, 0x03u},
 398:.\Generated_Source\PSoC4/cyfitter_cfg.c **** 			{0xB5u, 0xC0u},
 399:.\Generated_Source\PSoC4/cyfitter_cfg.c **** 			{0xB7u, 0x0Cu},
 400:.\Generated_Source\PSoC4/cyfitter_cfg.c **** 			{0xBBu, 0xAAu},
 401:.\Generated_Source\PSoC4/cyfitter_cfg.c **** 			{0xD9u, 0x0Cu},
 402:.\Generated_Source\PSoC4/cyfitter_cfg.c **** 			{0xDBu, 0x04u},
 403:.\Generated_Source\PSoC4/cyfitter_cfg.c **** 			{0xDCu, 0x90u},
 404:.\Generated_Source\PSoC4/cyfitter_cfg.c **** 			{0xDFu, 0x01u},
 405:.\Generated_Source\PSoC4/cyfitter_cfg.c **** 			{0x20u, 0x50u},
 406:.\Generated_Source\PSoC4/cyfitter_cfg.c **** 			{0x21u, 0x60u},
 407:.\Generated_Source\PSoC4/cyfitter_cfg.c **** 			{0x22u, 0x80u},
 408:.\Generated_Source\PSoC4/cyfitter_cfg.c **** 			{0x25u, 0x11u},
 409:.\Generated_Source\PSoC4/cyfitter_cfg.c **** 			{0x27u, 0x22u},
 410:.\Generated_Source\PSoC4/cyfitter_cfg.c **** 			{0x29u, 0x15u},
 411:.\Generated_Source\PSoC4/cyfitter_cfg.c **** 			{0x2Du, 0x08u},
 412:.\Generated_Source\PSoC4/cyfitter_cfg.c **** 			{0x2Eu, 0x42u},
 413:.\Generated_Source\PSoC4/cyfitter_cfg.c **** 			{0x2Fu, 0x04u},
 414:.\Generated_Source\PSoC4/cyfitter_cfg.c **** 			{0x31u, 0x20u},
 415:.\Generated_Source\PSoC4/cyfitter_cfg.c **** 			{0x32u, 0x88u},
 416:.\Generated_Source\PSoC4/cyfitter_cfg.c **** 			{0x36u, 0x88u},
 417:.\Generated_Source\PSoC4/cyfitter_cfg.c **** 			{0x37u, 0x22u},
 418:.\Generated_Source\PSoC4/cyfitter_cfg.c **** 			{0x38u, 0x52u},
 419:.\Generated_Source\PSoC4/cyfitter_cfg.c **** 			{0x3Bu, 0x08u},
 420:.\Generated_Source\PSoC4/cyfitter_cfg.c **** 			{0x3Cu, 0x04u},
 421:.\Generated_Source\PSoC4/cyfitter_cfg.c **** 			{0x3Du, 0xA2u},
 422:.\Generated_Source\PSoC4/cyfitter_cfg.c **** 			{0x40u, 0x04u},
 423:.\Generated_Source\PSoC4/cyfitter_cfg.c **** 			{0x42u, 0x40u},
 424:.\Generated_Source\PSoC4/cyfitter_cfg.c **** 			{0x4Au, 0x08u},
 425:.\Generated_Source\PSoC4/cyfitter_cfg.c **** 			{0x4Bu, 0x08u},
 426:.\Generated_Source\PSoC4/cyfitter_cfg.c **** 			{0x68u, 0x08u},
 427:.\Generated_Source\PSoC4/cyfitter_cfg.c **** 			{0x69u, 0x40u},
 428:.\Generated_Source\PSoC4/cyfitter_cfg.c **** 			{0x6Au, 0x80u},
 429:.\Generated_Source\PSoC4/cyfitter_cfg.c **** 			{0x6Cu, 0x02u},
 430:.\Generated_Source\PSoC4/cyfitter_cfg.c **** 			{0x6Eu, 0x20u},
ARM GAS  C:\Users\Steve\AppData\Local\Temp\cclp5o4r.s 			page 10


 431:.\Generated_Source\PSoC4/cyfitter_cfg.c **** 			{0x6Fu, 0x10u},
 432:.\Generated_Source\PSoC4/cyfitter_cfg.c **** 			{0x79u, 0x40u},
 433:.\Generated_Source\PSoC4/cyfitter_cfg.c **** 			{0x7Du, 0x40u},
 434:.\Generated_Source\PSoC4/cyfitter_cfg.c **** 			{0x80u, 0x40u},
 435:.\Generated_Source\PSoC4/cyfitter_cfg.c **** 			{0x8Bu, 0x20u},
 436:.\Generated_Source\PSoC4/cyfitter_cfg.c **** 			{0x8Cu, 0x08u},
 437:.\Generated_Source\PSoC4/cyfitter_cfg.c **** 			{0xCAu, 0xF7u},
 438:.\Generated_Source\PSoC4/cyfitter_cfg.c **** 			{0xCCu, 0xFEu},
 439:.\Generated_Source\PSoC4/cyfitter_cfg.c **** 			{0xCEu, 0xFFu},
 440:.\Generated_Source\PSoC4/cyfitter_cfg.c **** 			{0xD0u, 0x05u},
 441:.\Generated_Source\PSoC4/cyfitter_cfg.c **** 			{0xD2u, 0x04u},
 442:.\Generated_Source\PSoC4/cyfitter_cfg.c **** 			{0xDEu, 0x18u},
 443:.\Generated_Source\PSoC4/cyfitter_cfg.c **** 			{0xE4u, 0x04u},
 444:.\Generated_Source\PSoC4/cyfitter_cfg.c **** 			{0xE6u, 0x30u},
 445:.\Generated_Source\PSoC4/cyfitter_cfg.c **** 			{0x00u, 0xBAu},
 446:.\Generated_Source\PSoC4/cyfitter_cfg.c **** 			{0x01u, 0x80u},
 447:.\Generated_Source\PSoC4/cyfitter_cfg.c **** 			{0x02u, 0x45u},
 448:.\Generated_Source\PSoC4/cyfitter_cfg.c **** 			{0x03u, 0x40u},
 449:.\Generated_Source\PSoC4/cyfitter_cfg.c **** 			{0x04u, 0x4Du},
 450:.\Generated_Source\PSoC4/cyfitter_cfg.c **** 			{0x06u, 0xB2u},
 451:.\Generated_Source\PSoC4/cyfitter_cfg.c **** 			{0x07u, 0x08u},
 452:.\Generated_Source\PSoC4/cyfitter_cfg.c **** 			{0x08u, 0x55u},
 453:.\Generated_Source\PSoC4/cyfitter_cfg.c **** 			{0x09u, 0x40u},
 454:.\Generated_Source\PSoC4/cyfitter_cfg.c **** 			{0x0Au, 0x8Au},
 455:.\Generated_Source\PSoC4/cyfitter_cfg.c **** 			{0x0Bu, 0x80u},
 456:.\Generated_Source\PSoC4/cyfitter_cfg.c **** 			{0x0Cu, 0x45u},
 457:.\Generated_Source\PSoC4/cyfitter_cfg.c **** 			{0x0Du, 0x28u},
 458:.\Generated_Source\PSoC4/cyfitter_cfg.c **** 			{0x11u, 0x08u},
 459:.\Generated_Source\PSoC4/cyfitter_cfg.c **** 			{0x14u, 0x01u},
 460:.\Generated_Source\PSoC4/cyfitter_cfg.c **** 			{0x15u, 0xF0u},
 461:.\Generated_Source\PSoC4/cyfitter_cfg.c **** 			{0x16u, 0x02u},
 462:.\Generated_Source\PSoC4/cyfitter_cfg.c **** 			{0x17u, 0x03u},
 463:.\Generated_Source\PSoC4/cyfitter_cfg.c **** 			{0x18u, 0x04u},
 464:.\Generated_Source\PSoC4/cyfitter_cfg.c **** 			{0x19u, 0x31u},
 465:.\Generated_Source\PSoC4/cyfitter_cfg.c **** 			{0x1Au, 0x41u},
 466:.\Generated_Source\PSoC4/cyfitter_cfg.c **** 			{0x1Bu, 0xC4u},
 467:.\Generated_Source\PSoC4/cyfitter_cfg.c **** 			{0x1Cu, 0x40u},
 468:.\Generated_Source\PSoC4/cyfitter_cfg.c **** 			{0x1Du, 0x08u},
 469:.\Generated_Source\PSoC4/cyfitter_cfg.c **** 			{0x1Eu, 0x80u},
 470:.\Generated_Source\PSoC4/cyfitter_cfg.c **** 			{0x20u, 0x45u},
 471:.\Generated_Source\PSoC4/cyfitter_cfg.c **** 			{0x27u, 0x02u},
 472:.\Generated_Source\PSoC4/cyfitter_cfg.c **** 			{0x28u, 0x22u},
 473:.\Generated_Source\PSoC4/cyfitter_cfg.c **** 			{0x2Cu, 0x45u},
 474:.\Generated_Source\PSoC4/cyfitter_cfg.c **** 			{0x2Du, 0xC0u},
 475:.\Generated_Source\PSoC4/cyfitter_cfg.c **** 			{0x2Fu, 0x1Cu},
 476:.\Generated_Source\PSoC4/cyfitter_cfg.c **** 			{0x30u, 0x08u},
 477:.\Generated_Source\PSoC4/cyfitter_cfg.c **** 			{0x32u, 0x03u},
 478:.\Generated_Source\PSoC4/cyfitter_cfg.c **** 			{0x33u, 0x0Fu},
 479:.\Generated_Source\PSoC4/cyfitter_cfg.c **** 			{0x34u, 0x3Cu},
 480:.\Generated_Source\PSoC4/cyfitter_cfg.c **** 			{0x35u, 0xC0u},
 481:.\Generated_Source\PSoC4/cyfitter_cfg.c **** 			{0x36u, 0xC0u},
 482:.\Generated_Source\PSoC4/cyfitter_cfg.c **** 			{0x37u, 0x30u},
 483:.\Generated_Source\PSoC4/cyfitter_cfg.c **** 			{0x38u, 0x20u},
 484:.\Generated_Source\PSoC4/cyfitter_cfg.c **** 			{0x3Au, 0x88u},
 485:.\Generated_Source\PSoC4/cyfitter_cfg.c **** 			{0x3Bu, 0xA0u},
 486:.\Generated_Source\PSoC4/cyfitter_cfg.c **** 			{0x40u, 0x62u},
 487:.\Generated_Source\PSoC4/cyfitter_cfg.c **** 			{0x41u, 0x04u},
ARM GAS  C:\Users\Steve\AppData\Local\Temp\cclp5o4r.s 			page 11


 488:.\Generated_Source\PSoC4/cyfitter_cfg.c **** 			{0x45u, 0x0Du},
 489:.\Generated_Source\PSoC4/cyfitter_cfg.c **** 			{0x47u, 0xBFu},
 490:.\Generated_Source\PSoC4/cyfitter_cfg.c **** 			{0x48u, 0x31u},
 491:.\Generated_Source\PSoC4/cyfitter_cfg.c **** 			{0x49u, 0xFFu},
 492:.\Generated_Source\PSoC4/cyfitter_cfg.c **** 			{0x4Au, 0xFFu},
 493:.\Generated_Source\PSoC4/cyfitter_cfg.c **** 			{0x4Bu, 0xFFu},
 494:.\Generated_Source\PSoC4/cyfitter_cfg.c **** 			{0x4Fu, 0x40u},
 495:.\Generated_Source\PSoC4/cyfitter_cfg.c **** 			{0x50u, 0x30u},
 496:.\Generated_Source\PSoC4/cyfitter_cfg.c **** 			{0x58u, 0x0Fu},
 497:.\Generated_Source\PSoC4/cyfitter_cfg.c **** 			{0x59u, 0x0Fu},
 498:.\Generated_Source\PSoC4/cyfitter_cfg.c **** 			{0x5Au, 0x0Fu},
 499:.\Generated_Source\PSoC4/cyfitter_cfg.c **** 			{0x5Cu, 0x99u},
 500:.\Generated_Source\PSoC4/cyfitter_cfg.c **** 			{0x5Du, 0x09u},
 501:.\Generated_Source\PSoC4/cyfitter_cfg.c **** 			{0x5Fu, 0x01u},
 502:.\Generated_Source\PSoC4/cyfitter_cfg.c **** 			{0x60u, 0xF0u},
 503:.\Generated_Source\PSoC4/cyfitter_cfg.c **** 			{0x62u, 0x40u},
 504:.\Generated_Source\PSoC4/cyfitter_cfg.c **** 			{0x63u, 0x02u},
 505:.\Generated_Source\PSoC4/cyfitter_cfg.c **** 			{0x64u, 0x10u},
 506:.\Generated_Source\PSoC4/cyfitter_cfg.c **** 			{0x65u, 0x12u},
 507:.\Generated_Source\PSoC4/cyfitter_cfg.c **** 			{0xC0u, 0x62u},
 508:.\Generated_Source\PSoC4/cyfitter_cfg.c **** 			{0xC1u, 0x04u},
 509:.\Generated_Source\PSoC4/cyfitter_cfg.c **** 			{0xC5u, 0x0Bu},
 510:.\Generated_Source\PSoC4/cyfitter_cfg.c **** 			{0xC8u, 0x01u},
 511:.\Generated_Source\PSoC4/cyfitter_cfg.c **** 			{0xC9u, 0xFFu},
 512:.\Generated_Source\PSoC4/cyfitter_cfg.c **** 			{0xCAu, 0xFFu},
 513:.\Generated_Source\PSoC4/cyfitter_cfg.c **** 			{0xCBu, 0xFFu},
 514:.\Generated_Source\PSoC4/cyfitter_cfg.c **** 			{0xCFu, 0x40u},
 515:.\Generated_Source\PSoC4/cyfitter_cfg.c **** 			{0xD0u, 0x30u},
 516:.\Generated_Source\PSoC4/cyfitter_cfg.c **** 			{0xDAu, 0x0Cu},
 517:.\Generated_Source\PSoC4/cyfitter_cfg.c **** 			{0xDDu, 0x09u},
 518:.\Generated_Source\PSoC4/cyfitter_cfg.c **** 			{0xDFu, 0x01u},
 519:.\Generated_Source\PSoC4/cyfitter_cfg.c **** 			{0xE0u, 0xF0u},
 520:.\Generated_Source\PSoC4/cyfitter_cfg.c **** 			{0xE2u, 0x40u},
 521:.\Generated_Source\PSoC4/cyfitter_cfg.c **** 			{0xE3u, 0x02u},
 522:.\Generated_Source\PSoC4/cyfitter_cfg.c **** 			{0xE4u, 0x10u},
 523:.\Generated_Source\PSoC4/cyfitter_cfg.c **** 			{0xE5u, 0x12u},
 524:.\Generated_Source\PSoC4/cyfitter_cfg.c **** 			{0x04u, 0x24u},
 525:.\Generated_Source\PSoC4/cyfitter_cfg.c **** 			{0x05u, 0x01u},
 526:.\Generated_Source\PSoC4/cyfitter_cfg.c **** 			{0x07u, 0x01u},
 527:.\Generated_Source\PSoC4/cyfitter_cfg.c **** 			{0x0Eu, 0x22u},
 528:.\Generated_Source\PSoC4/cyfitter_cfg.c **** 			{0x0Fu, 0x08u},
 529:.\Generated_Source\PSoC4/cyfitter_cfg.c **** 			{0x15u, 0x80u},
 530:.\Generated_Source\PSoC4/cyfitter_cfg.c **** 			{0x16u, 0x08u},
 531:.\Generated_Source\PSoC4/cyfitter_cfg.c **** 			{0x17u, 0x02u},
 532:.\Generated_Source\PSoC4/cyfitter_cfg.c **** 			{0x1Cu, 0x04u},
 533:.\Generated_Source\PSoC4/cyfitter_cfg.c **** 			{0x1Du, 0x33u},
 534:.\Generated_Source\PSoC4/cyfitter_cfg.c **** 			{0x1Eu, 0x6Au},
 535:.\Generated_Source\PSoC4/cyfitter_cfg.c **** 			{0x24u, 0x22u},
 536:.\Generated_Source\PSoC4/cyfitter_cfg.c **** 			{0x25u, 0x50u},
 537:.\Generated_Source\PSoC4/cyfitter_cfg.c **** 			{0x26u, 0x08u},
 538:.\Generated_Source\PSoC4/cyfitter_cfg.c **** 			{0x27u, 0x21u},
 539:.\Generated_Source\PSoC4/cyfitter_cfg.c **** 			{0x2Eu, 0x48u},
 540:.\Generated_Source\PSoC4/cyfitter_cfg.c **** 			{0x36u, 0x84u},
 541:.\Generated_Source\PSoC4/cyfitter_cfg.c **** 			{0x37u, 0x22u},
 542:.\Generated_Source\PSoC4/cyfitter_cfg.c **** 			{0x3Du, 0xA0u},
 543:.\Generated_Source\PSoC4/cyfitter_cfg.c **** 			{0x3Eu, 0x02u},
 544:.\Generated_Source\PSoC4/cyfitter_cfg.c **** 			{0x3Fu, 0x08u},
ARM GAS  C:\Users\Steve\AppData\Local\Temp\cclp5o4r.s 			page 12


 545:.\Generated_Source\PSoC4/cyfitter_cfg.c **** 			{0x40u, 0x04u},
 546:.\Generated_Source\PSoC4/cyfitter_cfg.c **** 			{0x42u, 0x40u},
 547:.\Generated_Source\PSoC4/cyfitter_cfg.c **** 			{0x45u, 0x22u},
 548:.\Generated_Source\PSoC4/cyfitter_cfg.c **** 			{0x49u, 0x0Cu},
 549:.\Generated_Source\PSoC4/cyfitter_cfg.c **** 			{0x4Au, 0x08u},
 550:.\Generated_Source\PSoC4/cyfitter_cfg.c **** 			{0x4Eu, 0x08u},
 551:.\Generated_Source\PSoC4/cyfitter_cfg.c **** 			{0x4Fu, 0x08u},
 552:.\Generated_Source\PSoC4/cyfitter_cfg.c **** 			{0x56u, 0x0Au},
 553:.\Generated_Source\PSoC4/cyfitter_cfg.c **** 			{0x79u, 0x40u},
 554:.\Generated_Source\PSoC4/cyfitter_cfg.c **** 			{0x7Eu, 0x40u},
 555:.\Generated_Source\PSoC4/cyfitter_cfg.c **** 			{0x81u, 0x10u},
 556:.\Generated_Source\PSoC4/cyfitter_cfg.c **** 			{0x86u, 0x10u},
 557:.\Generated_Source\PSoC4/cyfitter_cfg.c **** 			{0x8Eu, 0x01u},
 558:.\Generated_Source\PSoC4/cyfitter_cfg.c **** 			{0x8Fu, 0x10u},
 559:.\Generated_Source\PSoC4/cyfitter_cfg.c **** 			{0x91u, 0xC0u},
 560:.\Generated_Source\PSoC4/cyfitter_cfg.c **** 			{0x92u, 0x80u},
 561:.\Generated_Source\PSoC4/cyfitter_cfg.c **** 			{0x94u, 0x06u},
 562:.\Generated_Source\PSoC4/cyfitter_cfg.c **** 			{0x96u, 0x40u},
 563:.\Generated_Source\PSoC4/cyfitter_cfg.c **** 			{0x9Bu, 0x12u},
 564:.\Generated_Source\PSoC4/cyfitter_cfg.c **** 			{0x9Du, 0x1Du},
 565:.\Generated_Source\PSoC4/cyfitter_cfg.c **** 			{0x9Eu, 0x02u},
 566:.\Generated_Source\PSoC4/cyfitter_cfg.c **** 			{0xA2u, 0x80u},
 567:.\Generated_Source\PSoC4/cyfitter_cfg.c **** 			{0xA5u, 0x40u},
 568:.\Generated_Source\PSoC4/cyfitter_cfg.c **** 			{0xA6u, 0x08u},
 569:.\Generated_Source\PSoC4/cyfitter_cfg.c **** 			{0xA9u, 0x11u},
 570:.\Generated_Source\PSoC4/cyfitter_cfg.c **** 			{0xACu, 0x02u},
 571:.\Generated_Source\PSoC4/cyfitter_cfg.c **** 			{0xAEu, 0x10u},
 572:.\Generated_Source\PSoC4/cyfitter_cfg.c **** 			{0xB4u, 0x10u},
 573:.\Generated_Source\PSoC4/cyfitter_cfg.c **** 			{0xB5u, 0x20u},
 574:.\Generated_Source\PSoC4/cyfitter_cfg.c **** 			{0xC0u, 0xF0u},
 575:.\Generated_Source\PSoC4/cyfitter_cfg.c **** 			{0xC2u, 0xE0u},
 576:.\Generated_Source\PSoC4/cyfitter_cfg.c **** 			{0xC4u, 0xD0u},
 577:.\Generated_Source\PSoC4/cyfitter_cfg.c **** 			{0xCAu, 0x50u},
 578:.\Generated_Source\PSoC4/cyfitter_cfg.c **** 			{0xCCu, 0xF0u},
 579:.\Generated_Source\PSoC4/cyfitter_cfg.c **** 			{0xCEu, 0xF0u},
 580:.\Generated_Source\PSoC4/cyfitter_cfg.c **** 			{0xD0u, 0xA5u},
 581:.\Generated_Source\PSoC4/cyfitter_cfg.c **** 			{0xD2u, 0x24u},
 582:.\Generated_Source\PSoC4/cyfitter_cfg.c **** 			{0xDEu, 0x88u},
 583:.\Generated_Source\PSoC4/cyfitter_cfg.c **** 			{0xE0u, 0x01u},
 584:.\Generated_Source\PSoC4/cyfitter_cfg.c **** 			{0xE2u, 0x10u},
 585:.\Generated_Source\PSoC4/cyfitter_cfg.c **** 			{0xE6u, 0x40u},
 586:.\Generated_Source\PSoC4/cyfitter_cfg.c **** 			{0x52u, 0x20u},
 587:.\Generated_Source\PSoC4/cyfitter_cfg.c **** 			{0x5Bu, 0x04u},
 588:.\Generated_Source\PSoC4/cyfitter_cfg.c **** 			{0x5Cu, 0x01u},
 589:.\Generated_Source\PSoC4/cyfitter_cfg.c **** 			{0x6Fu, 0x20u},
 590:.\Generated_Source\PSoC4/cyfitter_cfg.c **** 			{0x8Au, 0x10u},
 591:.\Generated_Source\PSoC4/cyfitter_cfg.c **** 			{0x8Fu, 0x04u},
 592:.\Generated_Source\PSoC4/cyfitter_cfg.c **** 			{0xD4u, 0x20u},
 593:.\Generated_Source\PSoC4/cyfitter_cfg.c **** 			{0xD6u, 0xC0u},
 594:.\Generated_Source\PSoC4/cyfitter_cfg.c **** 			{0xDAu, 0x80u},
 595:.\Generated_Source\PSoC4/cyfitter_cfg.c **** 			{0x52u, 0x80u},
 596:.\Generated_Source\PSoC4/cyfitter_cfg.c **** 			{0x53u, 0x02u},
 597:.\Generated_Source\PSoC4/cyfitter_cfg.c **** 			{0x56u, 0x10u},
 598:.\Generated_Source\PSoC4/cyfitter_cfg.c **** 			{0x57u, 0x01u},
 599:.\Generated_Source\PSoC4/cyfitter_cfg.c **** 			{0x65u, 0x80u},
 600:.\Generated_Source\PSoC4/cyfitter_cfg.c **** 			{0x66u, 0x08u},
 601:.\Generated_Source\PSoC4/cyfitter_cfg.c **** 			{0x86u, 0x80u},
ARM GAS  C:\Users\Steve\AppData\Local\Temp\cclp5o4r.s 			page 13


 602:.\Generated_Source\PSoC4/cyfitter_cfg.c **** 			{0x87u, 0x20u},
 603:.\Generated_Source\PSoC4/cyfitter_cfg.c **** 			{0x8Du, 0x80u},
 604:.\Generated_Source\PSoC4/cyfitter_cfg.c **** 			{0x8Eu, 0x08u},
 605:.\Generated_Source\PSoC4/cyfitter_cfg.c **** 			{0x9Au, 0x10u},
 606:.\Generated_Source\PSoC4/cyfitter_cfg.c **** 			{0xA3u, 0x03u},
 607:.\Generated_Source\PSoC4/cyfitter_cfg.c **** 			{0xA7u, 0x20u},
 608:.\Generated_Source\PSoC4/cyfitter_cfg.c **** 			{0xA8u, 0x01u},
 609:.\Generated_Source\PSoC4/cyfitter_cfg.c **** 			{0xAAu, 0x20u},
 610:.\Generated_Source\PSoC4/cyfitter_cfg.c **** 			{0xAFu, 0x03u},
 611:.\Generated_Source\PSoC4/cyfitter_cfg.c **** 			{0xD4u, 0xE0u},
 612:.\Generated_Source\PSoC4/cyfitter_cfg.c **** 			{0xD6u, 0xA0u},
 613:.\Generated_Source\PSoC4/cyfitter_cfg.c **** 			{0xD8u, 0x80u},
 614:.\Generated_Source\PSoC4/cyfitter_cfg.c **** 			{0xE6u, 0x10u},
 615:.\Generated_Source\PSoC4/cyfitter_cfg.c **** 			{0xEAu, 0x90u},
 616:.\Generated_Source\PSoC4/cyfitter_cfg.c **** 			{0xEEu, 0x90u},
 617:.\Generated_Source\PSoC4/cyfitter_cfg.c **** 			{0x82u, 0x02u},
 618:.\Generated_Source\PSoC4/cyfitter_cfg.c **** 			{0x50u, 0x10u},
 619:.\Generated_Source\PSoC4/cyfitter_cfg.c **** 			{0x5Au, 0x80u},
 620:.\Generated_Source\PSoC4/cyfitter_cfg.c **** 			{0x5Bu, 0x04u},
 621:.\Generated_Source\PSoC4/cyfitter_cfg.c **** 			{0x66u, 0x02u},
 622:.\Generated_Source\PSoC4/cyfitter_cfg.c **** 			{0x83u, 0x04u},
 623:.\Generated_Source\PSoC4/cyfitter_cfg.c **** 			{0x90u, 0x20u},
 624:.\Generated_Source\PSoC4/cyfitter_cfg.c **** 			{0x92u, 0x80u},
 625:.\Generated_Source\PSoC4/cyfitter_cfg.c **** 			{0x9Au, 0x02u},
 626:.\Generated_Source\PSoC4/cyfitter_cfg.c **** 			{0xB4u, 0x10u},
 627:.\Generated_Source\PSoC4/cyfitter_cfg.c **** 			{0xB6u, 0x40u},
 628:.\Generated_Source\PSoC4/cyfitter_cfg.c **** 			{0xD4u, 0x05u},
 629:.\Generated_Source\PSoC4/cyfitter_cfg.c **** 			{0xD6u, 0x02u},
 630:.\Generated_Source\PSoC4/cyfitter_cfg.c **** 			{0xD8u, 0x01u},
 631:.\Generated_Source\PSoC4/cyfitter_cfg.c **** 			{0xE8u, 0x08u},
 632:.\Generated_Source\PSoC4/cyfitter_cfg.c **** 			{0xECu, 0x02u},
 633:.\Generated_Source\PSoC4/cyfitter_cfg.c **** 			{0x02u, 0x01u},
 634:.\Generated_Source\PSoC4/cyfitter_cfg.c **** 			{0x11u, 0x01u},
 635:.\Generated_Source\PSoC4/cyfitter_cfg.c **** 		};
 636:.\Generated_Source\PSoC4/cyfitter_cfg.c **** 
 637:.\Generated_Source\PSoC4/cyfitter_cfg.c **** 
 638:.\Generated_Source\PSoC4/cyfitter_cfg.c **** 
 639:.\Generated_Source\PSoC4/cyfitter_cfg.c **** 		CYPACKED typedef struct {
 640:.\Generated_Source\PSoC4/cyfitter_cfg.c **** 			void CYFAR *address;
 641:.\Generated_Source\PSoC4/cyfitter_cfg.c **** 			uint16 size;
 642:.\Generated_Source\PSoC4/cyfitter_cfg.c **** 		} CYPACKED_ATTR cfg_memset_t;
 643:.\Generated_Source\PSoC4/cyfitter_cfg.c **** 
 644:.\Generated_Source\PSoC4/cyfitter_cfg.c **** 		static const cfg_memset_t CYCODE cfg_memset_list [] = {
 645:.\Generated_Source\PSoC4/cyfitter_cfg.c **** 			/* address, size */
 646:.\Generated_Source\PSoC4/cyfitter_cfg.c **** 			{(void CYFAR *)(CYDEV_UDB_P0_U0_BASE), 1024u},
 647:.\Generated_Source\PSoC4/cyfitter_cfg.c **** 			{(void CYFAR *)(CYDEV_UDB_DSI0_BASE), 1024u},
 648:.\Generated_Source\PSoC4/cyfitter_cfg.c **** 		};
 649:.\Generated_Source\PSoC4/cyfitter_cfg.c **** 
 650:.\Generated_Source\PSoC4/cyfitter_cfg.c **** 		uint8 CYDATA i;
 651:.\Generated_Source\PSoC4/cyfitter_cfg.c **** 
 652:.\Generated_Source\PSoC4/cyfitter_cfg.c **** 		/* Zero out critical memory blocks before beginning configuration */
 653:.\Generated_Source\PSoC4/cyfitter_cfg.c **** 		for (i = 0u; i < (sizeof(cfg_memset_list)/sizeof(cfg_memset_list[0])); i++)
 654:.\Generated_Source\PSoC4/cyfitter_cfg.c **** 		{
 655:.\Generated_Source\PSoC4/cyfitter_cfg.c **** 			const cfg_memset_t CYCODE * CYDATA ms = &cfg_memset_list[i];
 656:.\Generated_Source\PSoC4/cyfitter_cfg.c **** 			CYMEMZERO(ms->address, (uint32)(ms->size));
 657:.\Generated_Source\PSoC4/cyfitter_cfg.c **** 		}
 658:.\Generated_Source\PSoC4/cyfitter_cfg.c **** 
ARM GAS  C:\Users\Steve\AppData\Local\Temp\cclp5o4r.s 			page 14


 659:.\Generated_Source\PSoC4/cyfitter_cfg.c **** 		cfg_write_bytes32(cy_cfg_addr_table, cy_cfg_data_table);
  82              		.loc 1 659 0
  83 002a 644E     		ldr	r6, .L20+12
 311:.\Generated_Source\PSoC4/cyfitter_cfg.c **** void cyfitter_cfg(void)
  84              		.loc 1 311 0
  85 002c 2420     		mov	r0, #36
  86 002e 8119     		add	r1, r0, r6
  87              	.LBE26:
  88              	.LBE28:
  89              	.LBE30:
  90              	.LBB31:
  91              	.LBB32:
  92              	.LBB33:
 154:.\Generated_Source\PSoC4/cyfitter_cfg.c **** 		baseAddr &= 0xFFFFFF00u;
  93              		.loc 1 154 0
  94 0030 FF22     		mov	r2, #255
  95              	.LBE33:
  96              	.LBE32:
  97              	.LBE31:
  98              	.LBB36:
  99              	.LBB29:
 100              	.LBB27:
 311:.\Generated_Source\PSoC4/cyfitter_cfg.c **** void cyfitter_cfg(void)
 101              		.loc 1 311 0
 102 0032 8846     		mov	r8, r1
 103              	.LBE27:
 104              	.LBE29:
 105              	.LBE36:
 106              	.LBE38:
 107 0034 0027     		mov	r7, #0
 108              	.LBB39:
 109              	.LBB37:
 110              	.LBB35:
 111              	.LBB34:
 154:.\Generated_Source\PSoC4/cyfitter_cfg.c **** 		baseAddr &= 0xFFFFFF00u;
 112              		.loc 1 154 0
 113 0036 9146     		mov	r9, r2
 311:.\Generated_Source\PSoC4/cyfitter_cfg.c **** void cyfitter_cfg(void)
 114              		.loc 1 311 0
 115 0038 8A46     		mov	sl, r1
 116              	.LVL3:
 117              	.L4:
 152:.\Generated_Source\PSoC4/cyfitter_cfg.c **** 		uint32 baseAddr = addr_table[i];
 118              		.loc 1 152 0
 119 003a 02CE     		ldmia	r6!, {r1}
 120              	.LVL4:
 154:.\Generated_Source\PSoC4/cyfitter_cfg.c **** 		baseAddr &= 0xFFFFFF00u;
 121              		.loc 1 154 0
 122 003c 4C46     		mov	r4, r9
 153:.\Generated_Source\PSoC4/cyfitter_cfg.c **** 		uint8 count = (uint8)baseAddr;
 123              		.loc 1 153 0
 124 003e CBB2     		uxtb	r3, r1
 125              	.LVL5:
 154:.\Generated_Source\PSoC4/cyfitter_cfg.c **** 		baseAddr &= 0xFFFFFF00u;
 126              		.loc 1 154 0
 127 0040 A143     		bic	r1, r4
 128              	.LVL6:
ARM GAS  C:\Users\Steve\AppData\Local\Temp\cclp5o4r.s 			page 15


 155:.\Generated_Source\PSoC4/cyfitter_cfg.c **** 		while (count != 0u)
 129              		.loc 1 155 0
 130 0042 002B     		cmp	r3, #0
 131 0044 2AD0     		beq	.L2
 311:.\Generated_Source\PSoC4/cyfitter_cfg.c **** void cyfitter_cfg(void)
 132              		.loc 1 311 0
 133 0046 013B     		sub	r3, r3, #1
 134              	.LVL7:
 135 0048 DDB2     		uxtb	r5, r3
 136 004a 281C     		mov	r0, r5
 137 004c 7A00     		lsl	r2, r7, #1
 138 004e 0130     		add	r0, r0, #1
 139 0050 5244     		add	r2, r2, sl
 140 0052 AC46     		mov	ip, r5
 141 0054 4500     		lsl	r5, r0, #1
 157:.\Generated_Source\PSoC4/cyfitter_cfg.c **** 			CY_SET_XTND_REG8((void CYFAR *)(baseAddr + data_table[j].offset), data_table[j].value);
 142              		.loc 1 157 0
 143 0056 1078     		ldrb	r0, [r2]
 144 0058 AB1E     		sub	r3, r5, #2
 145              	.LVL8:
 146 005a 9C07     		lsl	r4, r3, #30
 147 005c 4318     		add	r3, r0, r1
 148 005e 5078     		ldrb	r0, [r2, #1]
 149 0060 E40F     		lsr	r4, r4, #31
 150 0062 1870     		strb	r0, [r3]
 151              	.LVL9:
 152 0064 0223     		mov	r3, #2
 155:.\Generated_Source\PSoC4/cyfitter_cfg.c **** 		while (count != 0u)
 153              		.loc 1 155 0
 154 0066 AB42     		cmp	r3, r5
 155 0068 16D0     		beq	.L18
 156 006a 002C     		cmp	r4, #0
 157 006c 06D0     		beq	.L3
 157:.\Generated_Source\PSoC4/cyfitter_cfg.c **** 			CY_SET_XTND_REG8((void CYFAR *)(baseAddr + data_table[j].offset), data_table[j].value);
 158              		.loc 1 157 0
 159 006e 9478     		ldrb	r4, [r2, #2]
 160 0070 D078     		ldrb	r0, [r2, #3]
 161 0072 6318     		add	r3, r4, r1
 162 0074 1870     		strb	r0, [r3]
 163 0076 0423     		mov	r3, #4
 155:.\Generated_Source\PSoC4/cyfitter_cfg.c **** 		while (count != 0u)
 164              		.loc 1 155 0
 165 0078 AB42     		cmp	r3, r5
 166 007a 0DD0     		beq	.L18
 167              	.L3:
 157:.\Generated_Source\PSoC4/cyfitter_cfg.c **** 			CY_SET_XTND_REG8((void CYFAR *)(baseAddr + data_table[j].offset), data_table[j].value);
 168              		.loc 1 157 0
 169 007c D45C     		ldrb	r4, [r2, r3]
 170 007e 6018     		add	r0, r4, r1
 311:.\Generated_Source\PSoC4/cyfitter_cfg.c **** void cyfitter_cfg(void)
 171              		.loc 1 311 0
 172 0080 D418     		add	r4, r2, r3
 157:.\Generated_Source\PSoC4/cyfitter_cfg.c **** 			CY_SET_XTND_REG8((void CYFAR *)(baseAddr + data_table[j].offset), data_table[j].value);
 173              		.loc 1 157 0
 174 0082 6478     		ldrb	r4, [r4, #1]
 175 0084 0233     		add	r3, r3, #2
 176 0086 0470     		strb	r4, [r0]
ARM GAS  C:\Users\Steve\AppData\Local\Temp\cclp5o4r.s 			page 16


 177 0088 D05C     		ldrb	r0, [r2, r3]
 311:.\Generated_Source\PSoC4/cyfitter_cfg.c **** void cyfitter_cfg(void)
 178              		.loc 1 311 0
 179 008a D418     		add	r4, r2, r3
 157:.\Generated_Source\PSoC4/cyfitter_cfg.c **** 			CY_SET_XTND_REG8((void CYFAR *)(baseAddr + data_table[j].offset), data_table[j].value);
 180              		.loc 1 157 0
 181 008c 6478     		ldrb	r4, [r4, #1]
 182 008e 4018     		add	r0, r0, r1
 183 0090 0233     		add	r3, r3, #2
 184 0092 0470     		strb	r4, [r0]
 155:.\Generated_Source\PSoC4/cyfitter_cfg.c **** 		while (count != 0u)
 185              		.loc 1 155 0
 186 0094 AB42     		cmp	r3, r5
 187 0096 F1D1     		bne	.L3
 188              	.L18:
 311:.\Generated_Source\PSoC4/cyfitter_cfg.c **** void cyfitter_cfg(void)
 189              		.loc 1 311 0
 190 0098 0137     		add	r7, r7, #1
 191 009a 6744     		add	r7, r7, ip
 192              	.L2:
 193              	.LVL10:
 194              	.LBE34:
 150:.\Generated_Source\PSoC4/cyfitter_cfg.c **** 	for (i = 0u; i < CY_CFG_BASE_ADDR_COUNT; i++)
 195              		.loc 1 150 0
 196 009c 4645     		cmp	r6, r8
 197 009e CCD1     		bne	.L4
 198              	.LBE35:
 199              	.LBE37:
 660:.\Generated_Source\PSoC4/cyfitter_cfg.c **** 
 661:.\Generated_Source\PSoC4/cyfitter_cfg.c **** 		/* HSIOM Starting address: CYDEV_HSIOM_BASE */
 662:.\Generated_Source\PSoC4/cyfitter_cfg.c **** 		CY_SET_XTND_REG32((void CYFAR *)(CYDEV_HSIOM_BASE), 0x33000003u);
 200              		.loc 1 662 0
 201 00a0 4749     		ldr	r1, .L20+16
 202              	.LVL11:
 203 00a2 484D     		ldr	r5, .L20+20
 663:.\Generated_Source\PSoC4/cyfitter_cfg.c **** 		CY_SET_XTND_REG32((void CYFAR *)(CYREG_HSIOM_PORT_SEL1), 0x00333333u);
 204              		.loc 1 663 0
 205 00a4 484A     		ldr	r2, .L20+24
 206 00a6 494B     		ldr	r3, .L20+28
 664:.\Generated_Source\PSoC4/cyfitter_cfg.c **** 		CY_SET_XTND_REG32((void CYFAR *)(CYREG_HSIOM_PORT_SEL3), 0x3030EE33u);
 207              		.loc 1 664 0
 208 00a8 494E     		ldr	r6, .L20+32
 209              	.LVL12:
 210 00aa 4A4F     		ldr	r7, .L20+36
 211              	.LVL13:
 662:.\Generated_Source\PSoC4/cyfitter_cfg.c **** 		CY_SET_XTND_REG32((void CYFAR *)(CYDEV_HSIOM_BASE), 0x33000003u);
 212              		.loc 1 662 0
 213 00ac 2960     		str	r1, [r5]
 665:.\Generated_Source\PSoC4/cyfitter_cfg.c **** 
 666:.\Generated_Source\PSoC4/cyfitter_cfg.c **** 		/* IOPINS0_0 Starting address: CYDEV_PRT0_DR */
 667:.\Generated_Source\PSoC4/cyfitter_cfg.c **** 		CY_SET_XTND_REG32((void CYFAR *)(CYREG_PRT0_DR), 0x000000C1u);
 214              		.loc 1 667 0
 215 00ae 4A4C     		ldr	r4, .L20+40
 663:.\Generated_Source\PSoC4/cyfitter_cfg.c **** 		CY_SET_XTND_REG32((void CYFAR *)(CYREG_HSIOM_PORT_SEL1), 0x00333333u);
 216              		.loc 1 663 0
 217 00b0 1A60     		str	r2, [r3]
 668:.\Generated_Source\PSoC4/cyfitter_cfg.c **** 		CY_SET_XTND_REG32((void CYFAR *)(CYREG_PRT0_PC), 0x00D80006u);
ARM GAS  C:\Users\Steve\AppData\Local\Temp\cclp5o4r.s 			page 17


 218              		.loc 1 668 0
 219 00b2 4A49     		ldr	r1, .L20+44
 664:.\Generated_Source\PSoC4/cyfitter_cfg.c **** 		CY_SET_XTND_REG32((void CYFAR *)(CYREG_HSIOM_PORT_SEL3), 0x3030EE33u);
 220              		.loc 1 664 0
 221 00b4 3E60     		str	r6, [r7]
 222              		.loc 1 668 0
 223 00b6 4A4D     		ldr	r5, .L20+48
 669:.\Generated_Source\PSoC4/cyfitter_cfg.c **** 
 670:.\Generated_Source\PSoC4/cyfitter_cfg.c **** 		/* IOPINS0_1 Starting address: CYDEV_PRT1_DR */
 671:.\Generated_Source\PSoC4/cyfitter_cfg.c **** 		CY_SET_XTND_REG32((void CYFAR *)(CYREG_PRT1_DR), 0x0000003Fu);
 224              		.loc 1 671 0
 225 00b8 4A4B     		ldr	r3, .L20+52
 672:.\Generated_Source\PSoC4/cyfitter_cfg.c **** 		CY_SET_XTND_REG32((void CYFAR *)(CYREG_PRT1_PC), 0x00036DB6u);
 226              		.loc 1 672 0
 227 00ba 4B4E     		ldr	r6, .L20+56
 228 00bc 4B4F     		ldr	r7, .L20+60
 667:.\Generated_Source\PSoC4/cyfitter_cfg.c **** 		CY_SET_XTND_REG32((void CYFAR *)(CYREG_PRT0_DR), 0x000000C1u);
 229              		.loc 1 667 0
 230 00be C120     		mov	r0, #193
 671:.\Generated_Source\PSoC4/cyfitter_cfg.c **** 		CY_SET_XTND_REG32((void CYFAR *)(CYREG_PRT1_DR), 0x0000003Fu);
 231              		.loc 1 671 0
 232 00c0 3F22     		mov	r2, #63
 667:.\Generated_Source\PSoC4/cyfitter_cfg.c **** 		CY_SET_XTND_REG32((void CYFAR *)(CYREG_PRT0_DR), 0x000000C1u);
 233              		.loc 1 667 0
 234 00c2 2060     		str	r0, [r4]
 668:.\Generated_Source\PSoC4/cyfitter_cfg.c **** 		CY_SET_XTND_REG32((void CYFAR *)(CYREG_PRT0_PC), 0x00D80006u);
 235              		.loc 1 668 0
 236 00c4 2960     		str	r1, [r5]
 673:.\Generated_Source\PSoC4/cyfitter_cfg.c **** 
 674:.\Generated_Source\PSoC4/cyfitter_cfg.c **** 		/* IOPINS0_2 Starting address: CYDEV_PRT2_DR */
 675:.\Generated_Source\PSoC4/cyfitter_cfg.c **** 		CY_SET_XTND_REG32((void CYFAR *)(CYREG_PRT2_DR), 0x00000001u);
 237              		.loc 1 675 0
 238 00c6 4A48     		ldr	r0, .L20+64
 671:.\Generated_Source\PSoC4/cyfitter_cfg.c **** 		CY_SET_XTND_REG32((void CYFAR *)(CYREG_PRT1_DR), 0x0000003Fu);
 239              		.loc 1 671 0
 240 00c8 1A60     		str	r2, [r3]
 676:.\Generated_Source\PSoC4/cyfitter_cfg.c **** 		CY_SET_XTND_REG32((void CYFAR *)(CYREG_PRT2_PC2), 0x00000001u);
 241              		.loc 1 676 0
 242 00ca 4A49     		ldr	r1, .L20+68
 672:.\Generated_Source\PSoC4/cyfitter_cfg.c **** 		CY_SET_XTND_REG32((void CYFAR *)(CYREG_PRT1_PC), 0x00036DB6u);
 243              		.loc 1 672 0
 244 00cc 3E60     		str	r6, [r7]
 677:.\Generated_Source\PSoC4/cyfitter_cfg.c **** 
 678:.\Generated_Source\PSoC4/cyfitter_cfg.c **** 		/* IOPINS0_3 Starting address: CYDEV_PRT3_DR */
 679:.\Generated_Source\PSoC4/cyfitter_cfg.c **** 		CY_SET_XTND_REG32((void CYFAR *)(CYREG_PRT3_DR), 0x000000A3u);
 245              		.loc 1 679 0
 246 00ce 4A4A     		ldr	r2, .L20+72
 680:.\Generated_Source\PSoC4/cyfitter_cfg.c **** 		CY_SET_XTND_REG32((void CYFAR *)(CYREG_PRT3_PC), 0x00C30DB6u);
 247              		.loc 1 680 0
 248 00d0 4A4E     		ldr	r6, .L20+76
 249 00d2 4B4B     		ldr	r3, .L20+80
 675:.\Generated_Source\PSoC4/cyfitter_cfg.c **** 		CY_SET_XTND_REG32((void CYFAR *)(CYREG_PRT2_DR), 0x00000001u);
 250              		.loc 1 675 0
 251 00d4 0124     		mov	r4, #1
 679:.\Generated_Source\PSoC4/cyfitter_cfg.c **** 		CY_SET_XTND_REG32((void CYFAR *)(CYREG_PRT3_DR), 0x000000A3u);
 252              		.loc 1 679 0
 253 00d6 A325     		mov	r5, #163
ARM GAS  C:\Users\Steve\AppData\Local\Temp\cclp5o4r.s 			page 18


 675:.\Generated_Source\PSoC4/cyfitter_cfg.c **** 		CY_SET_XTND_REG32((void CYFAR *)(CYREG_PRT2_DR), 0x00000001u);
 254              		.loc 1 675 0
 255 00d8 0460     		str	r4, [r0]
 681:.\Generated_Source\PSoC4/cyfitter_cfg.c **** 
 682:.\Generated_Source\PSoC4/cyfitter_cfg.c **** 		/* UDB_PA_0 Starting address: CYDEV_UDB_PA0_BASE */
 683:.\Generated_Source\PSoC4/cyfitter_cfg.c **** 		CY_SET_XTND_REG32((void CYFAR *)(CYDEV_UDB_PA0_BASE), 0x00990000u);
 256              		.loc 1 683 0
 257 00da 9927     		mov	r7, #153
 676:.\Generated_Source\PSoC4/cyfitter_cfg.c **** 		CY_SET_XTND_REG32((void CYFAR *)(CYREG_PRT2_PC2), 0x00000001u);
 258              		.loc 1 676 0
 259 00dc 0C60     		str	r4, [r1]
 260              		.loc 1 683 0
 261 00de 4948     		ldr	r0, .L20+84
 679:.\Generated_Source\PSoC4/cyfitter_cfg.c **** 		CY_SET_XTND_REG32((void CYFAR *)(CYREG_PRT3_DR), 0x000000A3u);
 262              		.loc 1 679 0
 263 00e0 1560     		str	r5, [r2]
 684:.\Generated_Source\PSoC4/cyfitter_cfg.c **** 		CY_SET_XTND_REG32((void CYFAR *)(CYREG_UDB_PA0_CFG8), 0x40000000u);
 264              		.loc 1 684 0
 265 00e2 8021     		mov	r1, #128
 680:.\Generated_Source\PSoC4/cyfitter_cfg.c **** 		CY_SET_XTND_REG32((void CYFAR *)(CYREG_PRT3_PC), 0x00C30DB6u);
 266              		.loc 1 680 0
 267 00e4 1E60     		str	r6, [r3]
 268              		.loc 1 684 0
 269 00e6 484E     		ldr	r6, .L20+88
 683:.\Generated_Source\PSoC4/cyfitter_cfg.c **** 		CY_SET_XTND_REG32((void CYFAR *)(CYDEV_UDB_PA0_BASE), 0x00990000u);
 270              		.loc 1 683 0
 271 00e8 3D04     		lsl	r5, r7, #16
 272              		.loc 1 684 0
 273 00ea CA05     		lsl	r2, r1, #23
 683:.\Generated_Source\PSoC4/cyfitter_cfg.c **** 		CY_SET_XTND_REG32((void CYFAR *)(CYDEV_UDB_PA0_BASE), 0x00990000u);
 274              		.loc 1 683 0
 275 00ec 0560     		str	r5, [r0]
 685:.\Generated_Source\PSoC4/cyfitter_cfg.c **** 
 686:.\Generated_Source\PSoC4/cyfitter_cfg.c **** 		/* UDB_PA_1 Starting address: CYDEV_UDB_PA1_BASE */
 687:.\Generated_Source\PSoC4/cyfitter_cfg.c **** 		CY_SET_XTND_REG32((void CYFAR *)(CYDEV_UDB_PA1_BASE), 0x00990000u);
 276              		.loc 1 687 0
 277 00ee 474B     		ldr	r3, .L20+92
 684:.\Generated_Source\PSoC4/cyfitter_cfg.c **** 		CY_SET_XTND_REG32((void CYFAR *)(CYREG_UDB_PA0_CFG8), 0x40000000u);
 278              		.loc 1 684 0
 279 00f0 3260     		str	r2, [r6]
 688:.\Generated_Source\PSoC4/cyfitter_cfg.c **** 		CY_SET_XTND_REG32((void CYFAR *)(CYREG_UDB_PA1_CFG8), 0x072D0000u);
 280              		.loc 1 688 0
 281 00f2 474F     		ldr	r7, .L20+96
 282 00f4 4748     		ldr	r0, .L20+100
 689:.\Generated_Source\PSoC4/cyfitter_cfg.c **** 
 690:.\Generated_Source\PSoC4/cyfitter_cfg.c **** 		/* UDB_PA_2 Starting address: CYDEV_UDB_PA2_BASE */
 691:.\Generated_Source\PSoC4/cyfitter_cfg.c **** 		CY_SET_XTND_REG32((void CYFAR *)(CYDEV_UDB_PA2_BASE), 0x00990000u);
 283              		.loc 1 691 0
 284 00f6 4849     		ldr	r1, .L20+104
 692:.\Generated_Source\PSoC4/cyfitter_cfg.c **** 
 693:.\Generated_Source\PSoC4/cyfitter_cfg.c **** 		/* UDB_PA_3 Starting address: CYDEV_UDB_PA3_BASE */
 694:.\Generated_Source\PSoC4/cyfitter_cfg.c **** 		CY_SET_XTND_REG32((void CYFAR *)(CYDEV_UDB_PA3_BASE), 0x00990000u);
 285              		.loc 1 694 0
 286 00f8 484A     		ldr	r2, .L20+108
 687:.\Generated_Source\PSoC4/cyfitter_cfg.c **** 		CY_SET_XTND_REG32((void CYFAR *)(CYDEV_UDB_PA1_BASE), 0x00990000u);
 287              		.loc 1 687 0
 288 00fa 1D60     		str	r5, [r3]
ARM GAS  C:\Users\Steve\AppData\Local\Temp\cclp5o4r.s 			page 19


 695:.\Generated_Source\PSoC4/cyfitter_cfg.c **** 		CY_SET_XTND_REG32((void CYFAR *)(CYREG_UDB_PA3_CFG8), 0xC0020000u);
 289              		.loc 1 695 0
 290 00fc 484E     		ldr	r6, .L20+112
 688:.\Generated_Source\PSoC4/cyfitter_cfg.c **** 		CY_SET_XTND_REG32((void CYFAR *)(CYREG_UDB_PA1_CFG8), 0x072D0000u);
 291              		.loc 1 688 0
 292 00fe 0760     		str	r7, [r0]
 696:.\Generated_Source\PSoC4/cyfitter_cfg.c **** 
 697:.\Generated_Source\PSoC4/cyfitter_cfg.c **** 		/* INT_SELECT Starting address: CYDEV_CPUSS_INTR_SELECT */
 698:.\Generated_Source\PSoC4/cyfitter_cfg.c **** 		CY_SET_XTND_REG32((void CYFAR *)(CYREG_CPUSS_INTR_SELECT), 0x00000001u);
 293              		.loc 1 698 0
 294 0100 484B     		ldr	r3, .L20+116
 691:.\Generated_Source\PSoC4/cyfitter_cfg.c **** 		CY_SET_XTND_REG32((void CYFAR *)(CYDEV_UDB_PA2_BASE), 0x00990000u);
 295              		.loc 1 691 0
 296 0102 0D60     		str	r5, [r1]
 694:.\Generated_Source\PSoC4/cyfitter_cfg.c **** 		CY_SET_XTND_REG32((void CYFAR *)(CYDEV_UDB_PA3_BASE), 0x00990000u);
 297              		.loc 1 694 0
 298 0104 1560     		str	r5, [r2]
 695:.\Generated_Source\PSoC4/cyfitter_cfg.c **** 		CY_SET_XTND_REG32((void CYFAR *)(CYREG_UDB_PA3_CFG8), 0xC0020000u);
 299              		.loc 1 695 0
 300 0106 484D     		ldr	r5, .L20+120
 699:.\Generated_Source\PSoC4/cyfitter_cfg.c **** 
 700:.\Generated_Source\PSoC4/cyfitter_cfg.c **** 		/* INT_CONFIG Starting address: CYDEV_UDB_INT_CFG */
 701:.\Generated_Source\PSoC4/cyfitter_cfg.c **** 		CY_SET_XTND_REG32((void CYFAR *)(CYREG_UDB_INT_CFG), 0x00000002u);
 301              		.loc 1 701 0
 302 0108 484F     		ldr	r7, .L20+124
 695:.\Generated_Source\PSoC4/cyfitter_cfg.c **** 		CY_SET_XTND_REG32((void CYFAR *)(CYREG_UDB_PA3_CFG8), 0xC0020000u);
 303              		.loc 1 695 0
 304 010a 3560     		str	r5, [r6]
 702:.\Generated_Source\PSoC4/cyfitter_cfg.c **** 
 703:.\Generated_Source\PSoC4/cyfitter_cfg.c **** 		/* Enable digital routing */
 704:.\Generated_Source\PSoC4/cyfitter_cfg.c **** 		CY_SET_XTND_REG8((void *)CYREG_UDB_UDBIF_BANK_CTL, CY_GET_XTND_REG8((void *)CYREG_UDB_UDBIF_BANK_
 305              		.loc 1 704 0
 306 010c 4848     		ldr	r0, .L20+128
 698:.\Generated_Source\PSoC4/cyfitter_cfg.c **** 		CY_SET_XTND_REG32((void CYFAR *)(CYREG_CPUSS_INTR_SELECT), 0x00000001u);
 307              		.loc 1 698 0
 308 010e 1C60     		str	r4, [r3]
 701:.\Generated_Source\PSoC4/cyfitter_cfg.c **** 		CY_SET_XTND_REG32((void CYFAR *)(CYREG_UDB_INT_CFG), 0x00000002u);
 309              		.loc 1 701 0
 310 0110 0224     		mov	r4, #2
 311 0112 3C60     		str	r4, [r7]
 312              		.loc 1 704 0
 313 0114 0178     		ldrb	r1, [r0]
 705:.\Generated_Source\PSoC4/cyfitter_cfg.c **** 
 706:.\Generated_Source\PSoC4/cyfitter_cfg.c **** 		/* Enable UDB array */
 707:.\Generated_Source\PSoC4/cyfitter_cfg.c **** 		CY_SET_XTND_REG8((void *)CYREG_UDB_UDBIF_BANK_CTL, CY_GET_XTND_REG8((void *)CYREG_UDB_UDBIF_BANK_
 314              		.loc 1 707 0
 315 0116 0622     		mov	r2, #6
 704:.\Generated_Source\PSoC4/cyfitter_cfg.c **** 		CY_SET_XTND_REG8((void *)CYREG_UDB_UDBIF_BANK_CTL, CY_GET_XTND_REG8((void *)CYREG_UDB_UDBIF_BANK_
 316              		.loc 1 704 0
 317 0118 0C43     		orr	r4, r1
 318 011a 0470     		strb	r4, [r0]
 319              		.loc 1 707 0
 320 011c 0578     		ldrb	r5, [r0]
 321              	.LBE39:
 322              	.LBB40:
 323              	.LBB41:
 239:.\Generated_Source\PSoC4/cyfitter_cfg.c **** 	CY_SET_REG32((void CYXDATA *)(CYREG_CLK_SELECT), (CY_GET_REG32((void *)CYREG_CLK_SELECT) | 0x00040
ARM GAS  C:\Users\Steve\AppData\Local\Temp\cclp5o4r.s 			page 20


 324              		.loc 1 239 0
 325 011e 454E     		ldr	r6, .L20+132
 326              	.LBE41:
 327              	.LBE40:
 328              	.LBB50:
 329              		.loc 1 707 0
 330 0120 2A43     		orr	r2, r5
 331 0122 0270     		strb	r2, [r0]
 332              	.LBE50:
 333              	.LBB51:
 334              	.LBB46:
 239:.\Generated_Source\PSoC4/cyfitter_cfg.c **** 	CY_SET_REG32((void CYXDATA *)(CYREG_CLK_SELECT), (CY_GET_REG32((void *)CYREG_CLK_SELECT) | 0x00040
 335              		.loc 1 239 0
 336 0124 3368     		ldr	r3, [r6]
 337 0126 8024     		mov	r4, #128
 338 0128 E702     		lsl	r7, r4, #11
 339 012a 1F43     		orr	r7, r3
 340 012c 3760     		str	r7, [r6]
 341              	.LVL14:
 342              	.LBB42:
 343              	.LBB43:
 205:.\Generated_Source\PSoC4/cyfitter_cfg.c **** 	     (imoTrimIndex >= 0) && (imoFreq <= imo_trim_table->entries[imoTrimIndex].freq);
 344              		.loc 1 205 0
 345 012e 424E     		ldr	r6, .L20+136
 202:.\Generated_Source\PSoC4/cyfitter_cfg.c **** 	setAbs = CY_GET_REG8((const void *)CYREG_SFLASH_IMO_ABS4);
 346              		.loc 1 202 0
 347 0130 4248     		ldr	r0, .L20+140
 203:.\Generated_Source\PSoC4/cyfitter_cfg.c **** 	setTmpCo = CY_GET_REG8((const void *)CYREG_SFLASH_IMO_TMPCO4);
 348              		.loc 1 203 0
 349 0132 434D     		ldr	r5, .L20+144
 205:.\Generated_Source\PSoC4/cyfitter_cfg.c **** 	     (imoTrimIndex >= 0) && (imoFreq <= imo_trim_table->entries[imoTrimIndex].freq);
 350              		.loc 1 205 0
 351 0134 737A     		ldrb	r3, [r6, #9]
 202:.\Generated_Source\PSoC4/cyfitter_cfg.c **** 	setAbs = CY_GET_REG8((const void *)CYREG_SFLASH_IMO_ABS4);
 352              		.loc 1 202 0
 353 0136 0178     		ldrb	r1, [r0]
 354              	.LVL15:
 203:.\Generated_Source\PSoC4/cyfitter_cfg.c **** 	setTmpCo = CY_GET_REG8((const void *)CYREG_SFLASH_IMO_TMPCO4);
 355              		.loc 1 203 0
 356 0138 2A78     		ldrb	r2, [r5]
 357              	.LVL16:
 205:.\Generated_Source\PSoC4/cyfitter_cfg.c **** 	     (imoTrimIndex >= 0) && (imoFreq <= imo_trim_table->entries[imoTrimIndex].freq);
 358              		.loc 1 205 0
 359 013a 2F2B     		cmp	r3, #47
 360 013c 10D9     		bls	.L6
 361 013e B479     		ldrb	r4, [r6, #6]
 208:.\Generated_Source\PSoC4/cyfitter_cfg.c **** 		setAbs = imo_trim_table->entries[imoTrimIndex].absolute;
 362              		.loc 1 208 0
 363 0140 B17A     		ldrb	r1, [r6, #10]
 364              	.LVL17:
 209:.\Generated_Source\PSoC4/cyfitter_cfg.c **** 		setTmpCo = imo_trim_table->entries[imoTrimIndex].tmpco;
 365              		.loc 1 209 0
 366 0142 F27A     		ldrb	r2, [r6, #11]
 367              	.LVL18:
 205:.\Generated_Source\PSoC4/cyfitter_cfg.c **** 	     (imoTrimIndex >= 0) && (imoFreq <= imo_trim_table->entries[imoTrimIndex].freq);
 368              		.loc 1 205 0
 369 0144 2F2C     		cmp	r4, #47
ARM GAS  C:\Users\Steve\AppData\Local\Temp\cclp5o4r.s 			page 21


 370 0146 0BD9     		bls	.L6
 371 0148 F778     		ldrb	r7, [r6, #3]
 208:.\Generated_Source\PSoC4/cyfitter_cfg.c **** 		setAbs = imo_trim_table->entries[imoTrimIndex].absolute;
 372              		.loc 1 208 0
 373 014a F179     		ldrb	r1, [r6, #7]
 374              	.LVL19:
 209:.\Generated_Source\PSoC4/cyfitter_cfg.c **** 		setTmpCo = imo_trim_table->entries[imoTrimIndex].tmpco;
 375              		.loc 1 209 0
 376 014c 327A     		ldrb	r2, [r6, #8]
 377              	.LVL20:
 205:.\Generated_Source\PSoC4/cyfitter_cfg.c **** 	     (imoTrimIndex >= 0) && (imoFreq <= imo_trim_table->entries[imoTrimIndex].freq);
 378              		.loc 1 205 0
 379 014e 2F2F     		cmp	r7, #47
 380 0150 06D9     		bls	.L6
 381 0152 3078     		ldrb	r0, [r6]
 208:.\Generated_Source\PSoC4/cyfitter_cfg.c **** 		setAbs = imo_trim_table->entries[imoTrimIndex].absolute;
 382              		.loc 1 208 0
 383 0154 3179     		ldrb	r1, [r6, #4]
 384              	.LVL21:
 209:.\Generated_Source\PSoC4/cyfitter_cfg.c **** 		setTmpCo = imo_trim_table->entries[imoTrimIndex].tmpco;
 385              		.loc 1 209 0
 386 0156 7279     		ldrb	r2, [r6, #5]
 387              	.LVL22:
 205:.\Generated_Source\PSoC4/cyfitter_cfg.c **** 	     (imoTrimIndex >= 0) && (imoFreq <= imo_trim_table->entries[imoTrimIndex].freq);
 388              		.loc 1 205 0
 389 0158 2F28     		cmp	r0, #47
 390 015a 01D9     		bls	.L6
 208:.\Generated_Source\PSoC4/cyfitter_cfg.c **** 		setAbs = imo_trim_table->entries[imoTrimIndex].absolute;
 391              		.loc 1 208 0
 392 015c 7178     		ldrb	r1, [r6, #1]
 393              	.LVL23:
 209:.\Generated_Source\PSoC4/cyfitter_cfg.c **** 		setTmpCo = imo_trim_table->entries[imoTrimIndex].tmpco;
 394              		.loc 1 209 0
 395 015e B278     		ldrb	r2, [r6, #2]
 396              	.LVL24:
 397              	.L6:
 212:.\Generated_Source\PSoC4/cyfitter_cfg.c **** 	CY_SET_REG32((void *)CYREG_PWR_BG_TRIM4, setAbs);
 398              		.loc 1 212 0
 399 0160 384D     		ldr	r5, .L20+148
 213:.\Generated_Source\PSoC4/cyfitter_cfg.c **** 	CY_SET_REG32((void *)CYREG_PWR_BG_TRIM5, setTmpCo);
 400              		.loc 1 213 0
 401 0162 394E     		ldr	r6, .L20+152
 402              	.LBE43:
 403              	.LBE42:
 245:.\Generated_Source\PSoC4/cyfitter_cfg.c **** 	CY_SET_REG32((void CYXDATA *)(CYREG_CLK_IMO_TRIM1), (CY_GET_REG8((void *)CYREG_SFLASH_IMO_TRIM45))
 404              		.loc 1 245 0
 405 0164 394B     		ldr	r3, .L20+156
 406              	.LBB45:
 407              	.LBB44:
 212:.\Generated_Source\PSoC4/cyfitter_cfg.c **** 	CY_SET_REG32((void *)CYREG_PWR_BG_TRIM4, setAbs);
 408              		.loc 1 212 0
 409 0166 2960     		str	r1, [r5]
 213:.\Generated_Source\PSoC4/cyfitter_cfg.c **** 	CY_SET_REG32((void *)CYREG_PWR_BG_TRIM5, setTmpCo);
 410              		.loc 1 213 0
 411 0168 3260     		str	r2, [r6]
 412              	.LBE44:
 413              	.LBE45:
ARM GAS  C:\Users\Steve\AppData\Local\Temp\cclp5o4r.s 			page 22


 245:.\Generated_Source\PSoC4/cyfitter_cfg.c **** 	CY_SET_REG32((void CYXDATA *)(CYREG_CLK_IMO_TRIM1), (CY_GET_REG8((void *)CYREG_SFLASH_IMO_TRIM45))
 414              		.loc 1 245 0
 415 016a 1C78     		ldrb	r4, [r3]
 416 016c 384F     		ldr	r7, .L20+160
 246:.\Generated_Source\PSoC4/cyfitter_cfg.c **** 	CyDelayUs(5u);
 417              		.loc 1 246 0
 418 016e 0520     		mov	r0, #5
 245:.\Generated_Source\PSoC4/cyfitter_cfg.c **** 	CY_SET_REG32((void CYXDATA *)(CYREG_CLK_IMO_TRIM1), (CY_GET_REG8((void *)CYREG_SFLASH_IMO_TRIM45))
 419              		.loc 1 245 0
 420 0170 3C60     		str	r4, [r7]
 246:.\Generated_Source\PSoC4/cyfitter_cfg.c **** 	CyDelayUs(5u);
 421              		.loc 1 246 0
 422 0172 FFF7FEFF 		bl	CyDelayUs
 423              	.LVL25:
 247:.\Generated_Source\PSoC4/cyfitter_cfg.c **** 	CY_SET_REG32((void CYXDATA *)(CYREG_CLK_IMO_TRIM2), (53u));
 424              		.loc 1 247 0
 425 0176 3749     		ldr	r1, .L20+164
 426 0178 3520     		mov	r0, #53
 427 017a 0860     		str	r0, [r1]
 250:.\Generated_Source\PSoC4/cyfitter_cfg.c **** 	CY_SET_XTND_REG32((void CYFAR *)(CYREG_CLK_SELECT07), 0x00000010u);
 428              		.loc 1 250 0
 429 017c 364D     		ldr	r5, .L20+168
 253:.\Generated_Source\PSoC4/cyfitter_cfg.c **** 	CY_SET_XTND_REG32((void CYFAR *)(CYREG_CLK_IMO_CONFIG), 0x82000000u);
 430              		.loc 1 253 0
 431 017e 8226     		mov	r6, #130
 432 0180 364B     		ldr	r3, .L20+172
 256:.\Generated_Source\PSoC4/cyfitter_cfg.c **** 	CY_SET_XTND_REG32((void CYFAR *)(CYREG_CLK_ILO_CONFIG), 0x80000000u);
 433              		.loc 1 256 0
 434 0182 8027     		mov	r7, #128
 435 0184 3649     		ldr	r1, .L20+176
 253:.\Generated_Source\PSoC4/cyfitter_cfg.c **** 	CY_SET_XTND_REG32((void CYFAR *)(CYREG_CLK_IMO_CONFIG), 0x82000000u);
 436              		.loc 1 253 0
 437 0186 3406     		lsl	r4, r6, #24
 256:.\Generated_Source\PSoC4/cyfitter_cfg.c **** 	CY_SET_XTND_REG32((void CYFAR *)(CYREG_CLK_ILO_CONFIG), 0x80000000u);
 438              		.loc 1 256 0
 439 0188 3806     		lsl	r0, r7, #24
 250:.\Generated_Source\PSoC4/cyfitter_cfg.c **** 	CY_SET_XTND_REG32((void CYFAR *)(CYREG_CLK_SELECT07), 0x00000010u);
 440              		.loc 1 250 0
 441 018a 1022     		mov	r2, #16
 442 018c 2A60     		str	r2, [r5]
 259:.\Generated_Source\PSoC4/cyfitter_cfg.c **** 	CY_SET_XTND_REG32((void CYFAR *)(CYREG_CLK_SELECT), 0x00040000u);
 443              		.loc 1 259 0
 444 018e 294E     		ldr	r6, .L20+132
 253:.\Generated_Source\PSoC4/cyfitter_cfg.c **** 	CY_SET_XTND_REG32((void CYFAR *)(CYREG_CLK_IMO_CONFIG), 0x82000000u);
 445              		.loc 1 253 0
 446 0190 1C60     		str	r4, [r3]
 259:.\Generated_Source\PSoC4/cyfitter_cfg.c **** 	CY_SET_XTND_REG32((void CYFAR *)(CYREG_CLK_SELECT), 0x00040000u);
 447              		.loc 1 259 0
 448 0192 8022     		mov	r2, #128
 256:.\Generated_Source\PSoC4/cyfitter_cfg.c **** 	CY_SET_XTND_REG32((void CYFAR *)(CYREG_CLK_ILO_CONFIG), 0x80000000u);
 449              		.loc 1 256 0
 450 0194 0860     		str	r0, [r1]
 262:.\Generated_Source\PSoC4/cyfitter_cfg.c **** 	CY_SET_XTND_REG32((void CYFAR *)(CYREG_CLK_DIVIDER_A00), 0x8000000Fu);
 451              		.loc 1 262 0
 452 0196 334C     		ldr	r4, .L20+180
 453 0198 334B     		ldr	r3, .L20+184
 454              	.LBE46:
ARM GAS  C:\Users\Steve\AppData\Local\Temp\cclp5o4r.s 			page 23


 455              	.LBE51:
 456              	.LBB52:
 457              	.LBB53:
 288:.\Generated_Source\PSoC4/cyfitter_cfg.c **** 	CY_SET_XTND_REG32((void CYFAR *)CYREG_SAR_MUX_SWITCH0, 0x00000001u);
 458              		.loc 1 288 0
 459 019a 3448     		ldr	r0, .L20+188
 460              	.LBE53:
 461              	.LBE52:
 462              	.LBB56:
 463              	.LBB47:
 259:.\Generated_Source\PSoC4/cyfitter_cfg.c **** 	CY_SET_XTND_REG32((void CYFAR *)(CYREG_CLK_SELECT), 0x00040000u);
 464              		.loc 1 259 0
 465 019c D502     		lsl	r5, r2, #11
 466              	.LBE47:
 467              	.LBE56:
 468              	.LBB57:
 469              	.LBB54:
 288:.\Generated_Source\PSoC4/cyfitter_cfg.c **** 	CY_SET_XTND_REG32((void CYFAR *)CYREG_SAR_MUX_SWITCH0, 0x00000001u);
 470              		.loc 1 288 0
 471 019e 0127     		mov	r7, #1
 472              	.LBE54:
 473              	.LBE57:
 474              	.LBB58:
 475              	.LBB48:
 259:.\Generated_Source\PSoC4/cyfitter_cfg.c **** 	CY_SET_XTND_REG32((void CYFAR *)(CYREG_CLK_SELECT), 0x00040000u);
 476              		.loc 1 259 0
 477 01a0 3560     		str	r5, [r6]
 478              	.LBE48:
 479              	.LBE58:
 708:.\Generated_Source\PSoC4/cyfitter_cfg.c **** 	}
 709:.\Generated_Source\PSoC4/cyfitter_cfg.c **** 
 710:.\Generated_Source\PSoC4/cyfitter_cfg.c **** 	/* Setup clocks based on selections from Clock DWR */
 711:.\Generated_Source\PSoC4/cyfitter_cfg.c **** 	ClockSetup();
 712:.\Generated_Source\PSoC4/cyfitter_cfg.c **** 
 713:.\Generated_Source\PSoC4/cyfitter_cfg.c **** 	/* Perform basic analog initialization to defaults */
 714:.\Generated_Source\PSoC4/cyfitter_cfg.c **** 	AnalogSetDefault();
 715:.\Generated_Source\PSoC4/cyfitter_cfg.c **** 
 716:.\Generated_Source\PSoC4/cyfitter_cfg.c **** }
 480              		.loc 1 716 0
 481              		@ sp needed for prologue
 482              	.LBB59:
 483              	.LBB49:
 262:.\Generated_Source\PSoC4/cyfitter_cfg.c **** 	CY_SET_XTND_REG32((void CYFAR *)(CYREG_CLK_DIVIDER_A00), 0x8000000Fu);
 484              		.loc 1 262 0
 485 01a2 1C60     		str	r4, [r3]
 486              	.LBE49:
 487              	.LBE59:
 488              	.LBB60:
 489              	.LBB55:
 288:.\Generated_Source\PSoC4/cyfitter_cfg.c **** 	CY_SET_XTND_REG32((void CYFAR *)CYREG_SAR_MUX_SWITCH0, 0x00000001u);
 490              		.loc 1 288 0
 491 01a4 0760     		str	r7, [r0]
 492              	.LBE55:
 493              	.LBE60:
 494              		.loc 1 716 0
 495 01a6 1CBC     		pop	{r2, r3, r4}
 496 01a8 9046     		mov	r8, r2
ARM GAS  C:\Users\Steve\AppData\Local\Temp\cclp5o4r.s 			page 24


 497 01aa 9946     		mov	r9, r3
 498 01ac A246     		mov	sl, r4
 499 01ae F0BD     		pop	{r4, r5, r6, r7, pc}
 500              	.L21:
 501              		.align	2
 502              	.L20:
 503 01b0 1C700F40 		.word	1074753564
 504 01b4 00300F40 		.word	1074737152
 505 01b8 00400F40 		.word	1074741248
 506 01bc 00000000 		.word	.LANCHOR0
 507 01c0 03000033 		.word	855638019
 508 01c4 00000140 		.word	1073807360
 509 01c8 33333300 		.word	3355443
 510 01cc 04000140 		.word	1073807364
 511 01d0 33EE3030 		.word	808513075
 512 01d4 0C000140 		.word	1073807372
 513 01d8 00000440 		.word	1074003968
 514 01dc 0600D800 		.word	14155782
 515 01e0 08000440 		.word	1074003976
 516 01e4 00010440 		.word	1074004224
 517 01e8 B66D0300 		.word	224694
 518 01ec 08010440 		.word	1074004232
 519 01f0 00020440 		.word	1074004480
 520 01f4 18020440 		.word	1074004504
 521 01f8 00030440 		.word	1074004736
 522 01fc B60DC300 		.word	12783030
 523 0200 08030440 		.word	1074004744
 524 0204 00500F40 		.word	1074745344
 525 0208 08500F40 		.word	1074745352
 526 020c 10500F40 		.word	1074745360
 527 0210 00002D07 		.word	120389632
 528 0214 18500F40 		.word	1074745368
 529 0218 20500F40 		.word	1074745376
 530 021c 30500F40 		.word	1074745392
 531 0220 38500F40 		.word	1074745400
 532 0224 20000040 		.word	1073741856
 533 0228 000002C0 		.word	-1073610752
 534 022c 00800F40 		.word	1074757632
 535 0230 00700F40 		.word	1074753536
 536 0234 00010B40 		.word	1074462976
 537 0238 C0F1FF0F 		.word	268431808
 538 023c CCF1FF0F 		.word	268431820
 539 0240 CDF1FF0F 		.word	268431821
 540 0244 1CFF0B40 		.word	1074528028
 541 0248 20FF0B40 		.word	1074528032
 542 024c FDF1FF0F 		.word	268431869
 543 0250 28FF0B40 		.word	1074528040
 544 0254 2CFF0B40 		.word	1074528044
 545 0258 1C020240 		.word	1073873436
 546 025c 08010B40 		.word	1074462984
 547 0260 04010B40 		.word	1074462980
 548 0264 0F000080 		.word	-2147483633
 549 0268 00000240 		.word	1073872896
 550 026c 00031A40 		.word	1075446528
 551              		.cfi_endproc
 552              	.LFE7:
 553              		.size	cyfitter_cfg, .-cyfitter_cfg
ARM GAS  C:\Users\Steve\AppData\Local\Temp\cclp5o4r.s 			page 25


 554              		.section	.rodata
 555              		.align	2
 556              		.set	.LANCHOR0,. + 0
 557              		.type	cy_cfg_addr_table.4660, %object
 558              		.size	cy_cfg_addr_table.4660, 36
 559              	cy_cfg_addr_table.4660:
 560 0000 49300F40 		.word	1074737225
 561 0004 28310F40 		.word	1074737448
 562 0008 4F320F40 		.word	1074737743
 563 000c 3E330F40 		.word	1074737982
 564 0010 09400F40 		.word	1074741257
 565 0014 16410F40 		.word	1074741526
 566 0018 01420F40 		.word	1074741761
 567 001c 0F430F40 		.word	1074742031
 568 0020 02600F40 		.word	1074749442
 569              		.type	cy_cfg_data_table.4661, %object
 570              		.size	cy_cfg_data_table.4661, 606
 571              	cy_cfg_data_table.4661:
 572 0024 01       		.byte	1
 573 0025 80       		.byte	-128
 574 0026 05       		.byte	5
 575 0027 08       		.byte	8
 576 0028 07       		.byte	7
 577 0029 04       		.byte	4
 578 002a 09       		.byte	9
 579 002b 04       		.byte	4
 580 002c 0B       		.byte	11
 581 002d 08       		.byte	8
 582 002e 0D       		.byte	13
 583 002f 01       		.byte	1
 584 0030 0F       		.byte	15
 585 0031 02       		.byte	2
 586 0032 15       		.byte	21
 587 0033 D3       		.byte	-45
 588 0034 17       		.byte	23
 589 0035 0C       		.byte	12
 590 0036 19       		.byte	25
 591 0037 10       		.byte	16
 592 0038 1B       		.byte	27
 593 0039 20       		.byte	32
 594 003a 1D       		.byte	29
 595 003b 40       		.byte	64
 596 003c 21       		.byte	33
 597 003d 6F       		.byte	111
 598 003e 23       		.byte	35
 599 003f 90       		.byte	-112
 600 0040 25       		.byte	37
 601 0041 02       		.byte	2
 602 0042 27       		.byte	39
 603 0043 01       		.byte	1
 604 0044 29       		.byte	41
 605 0045 DC       		.byte	-36
 606 0046 2B       		.byte	43
 607 0047 23       		.byte	35
 608 0048 31       		.byte	49
 609 0049 03       		.byte	3
 610 004a 33       		.byte	51
ARM GAS  C:\Users\Steve\AppData\Local\Temp\cclp5o4r.s 			page 26


 611 004b 0C       		.byte	12
 612 004c 35       		.byte	53
 613 004d 30       		.byte	48
 614 004e 37       		.byte	55
 615 004f C0       		.byte	-64
 616 0050 3B       		.byte	59
 617 0051 AA       		.byte	-86
 618 0052 40       		.byte	64
 619 0053 62       		.byte	98
 620 0054 41       		.byte	65
 621 0055 04       		.byte	4
 622 0056 45       		.byte	69
 623 0057 0B       		.byte	11
 624 0058 48       		.byte	72
 625 0059 01       		.byte	1
 626 005a 49       		.byte	73
 627 005b FF       		.byte	-1
 628 005c 4A       		.byte	74
 629 005d FF       		.byte	-1
 630 005e 4B       		.byte	75
 631 005f FF       		.byte	-1
 632 0060 4F       		.byte	79
 633 0061 40       		.byte	64
 634 0062 50       		.byte	80
 635 0063 30       		.byte	48
 636 0064 59       		.byte	89
 637 0065 0C       		.byte	12
 638 0066 5A       		.byte	90
 639 0067 0C       		.byte	12
 640 0068 5B       		.byte	91
 641 0069 04       		.byte	4
 642 006a 5C       		.byte	92
 643 006b 90       		.byte	-112
 644 006c 5D       		.byte	93
 645 006d 09       		.byte	9
 646 006e 5F       		.byte	95
 647 006f 01       		.byte	1
 648 0070 60       		.byte	96
 649 0071 F0       		.byte	-16
 650 0072 62       		.byte	98
 651 0073 40       		.byte	64
 652 0074 63       		.byte	99
 653 0075 02       		.byte	2
 654 0076 64       		.byte	100
 655 0077 10       		.byte	16
 656 0078 65       		.byte	101
 657 0079 12       		.byte	18
 658 007a 81       		.byte	-127
 659 007b 10       		.byte	16
 660 007c 83       		.byte	-125
 661 007d 20       		.byte	32
 662 007e 85       		.byte	-123
 663 007f 0F       		.byte	15
 664 0080 87       		.byte	-121
 665 0081 F0       		.byte	-16
 666 0082 89       		.byte	-119
 667 0083 40       		.byte	64
ARM GAS  C:\Users\Steve\AppData\Local\Temp\cclp5o4r.s 			page 27


 668 0084 8B       		.byte	-117
 669 0085 80       		.byte	-128
 670 0086 8D       		.byte	-115
 671 0087 08       		.byte	8
 672 0088 91       		.byte	-111
 673 0089 04       		.byte	4
 674 008a 95       		.byte	-107
 675 008b FC       		.byte	-4
 676 008c 97       		.byte	-105
 677 008d 03       		.byte	3
 678 008e 99       		.byte	-103
 679 008f 01       		.byte	1
 680 0090 9B       		.byte	-101
 681 0091 02       		.byte	2
 682 0092 9D       		.byte	-99
 683 0093 08       		.byte	8
 684 0094 A1       		.byte	-95
 685 0095 80       		.byte	-128
 686 0096 A3       		.byte	-93
 687 0097 40       		.byte	64
 688 0098 A5       		.byte	-91
 689 0099 02       		.byte	2
 690 009a A7       		.byte	-89
 691 009b 01       		.byte	1
 692 009c A9       		.byte	-87
 693 009d 20       		.byte	32
 694 009e AB       		.byte	-85
 695 009f 10       		.byte	16
 696 00a0 AD       		.byte	-83
 697 00a1 F7       		.byte	-9
 698 00a2 AF       		.byte	-81
 699 00a3 08       		.byte	8
 700 00a4 B1       		.byte	-79
 701 00a5 30       		.byte	48
 702 00a6 B3       		.byte	-77
 703 00a7 03       		.byte	3
 704 00a8 B5       		.byte	-75
 705 00a9 C0       		.byte	-64
 706 00aa B7       		.byte	-73
 707 00ab 0C       		.byte	12
 708 00ac BB       		.byte	-69
 709 00ad AA       		.byte	-86
 710 00ae D9       		.byte	-39
 711 00af 0C       		.byte	12
 712 00b0 DB       		.byte	-37
 713 00b1 04       		.byte	4
 714 00b2 DC       		.byte	-36
 715 00b3 90       		.byte	-112
 716 00b4 DF       		.byte	-33
 717 00b5 01       		.byte	1
 718 00b6 20       		.byte	32
 719 00b7 50       		.byte	80
 720 00b8 21       		.byte	33
 721 00b9 60       		.byte	96
 722 00ba 22       		.byte	34
 723 00bb 80       		.byte	-128
 724 00bc 25       		.byte	37
ARM GAS  C:\Users\Steve\AppData\Local\Temp\cclp5o4r.s 			page 28


 725 00bd 11       		.byte	17
 726 00be 27       		.byte	39
 727 00bf 22       		.byte	34
 728 00c0 29       		.byte	41
 729 00c1 15       		.byte	21
 730 00c2 2D       		.byte	45
 731 00c3 08       		.byte	8
 732 00c4 2E       		.byte	46
 733 00c5 42       		.byte	66
 734 00c6 2F       		.byte	47
 735 00c7 04       		.byte	4
 736 00c8 31       		.byte	49
 737 00c9 20       		.byte	32
 738 00ca 32       		.byte	50
 739 00cb 88       		.byte	-120
 740 00cc 36       		.byte	54
 741 00cd 88       		.byte	-120
 742 00ce 37       		.byte	55
 743 00cf 22       		.byte	34
 744 00d0 38       		.byte	56
 745 00d1 52       		.byte	82
 746 00d2 3B       		.byte	59
 747 00d3 08       		.byte	8
 748 00d4 3C       		.byte	60
 749 00d5 04       		.byte	4
 750 00d6 3D       		.byte	61
 751 00d7 A2       		.byte	-94
 752 00d8 40       		.byte	64
 753 00d9 04       		.byte	4
 754 00da 42       		.byte	66
 755 00db 40       		.byte	64
 756 00dc 4A       		.byte	74
 757 00dd 08       		.byte	8
 758 00de 4B       		.byte	75
 759 00df 08       		.byte	8
 760 00e0 68       		.byte	104
 761 00e1 08       		.byte	8
 762 00e2 69       		.byte	105
 763 00e3 40       		.byte	64
 764 00e4 6A       		.byte	106
 765 00e5 80       		.byte	-128
 766 00e6 6C       		.byte	108
 767 00e7 02       		.byte	2
 768 00e8 6E       		.byte	110
 769 00e9 20       		.byte	32
 770 00ea 6F       		.byte	111
 771 00eb 10       		.byte	16
 772 00ec 79       		.byte	121
 773 00ed 40       		.byte	64
 774 00ee 7D       		.byte	125
 775 00ef 40       		.byte	64
 776 00f0 80       		.byte	-128
 777 00f1 40       		.byte	64
 778 00f2 8B       		.byte	-117
 779 00f3 20       		.byte	32
 780 00f4 8C       		.byte	-116
 781 00f5 08       		.byte	8
ARM GAS  C:\Users\Steve\AppData\Local\Temp\cclp5o4r.s 			page 29


 782 00f6 CA       		.byte	-54
 783 00f7 F7       		.byte	-9
 784 00f8 CC       		.byte	-52
 785 00f9 FE       		.byte	-2
 786 00fa CE       		.byte	-50
 787 00fb FF       		.byte	-1
 788 00fc D0       		.byte	-48
 789 00fd 05       		.byte	5
 790 00fe D2       		.byte	-46
 791 00ff 04       		.byte	4
 792 0100 DE       		.byte	-34
 793 0101 18       		.byte	24
 794 0102 E4       		.byte	-28
 795 0103 04       		.byte	4
 796 0104 E6       		.byte	-26
 797 0105 30       		.byte	48
 798 0106 00       		.byte	0
 799 0107 BA       		.byte	-70
 800 0108 01       		.byte	1
 801 0109 80       		.byte	-128
 802 010a 02       		.byte	2
 803 010b 45       		.byte	69
 804 010c 03       		.byte	3
 805 010d 40       		.byte	64
 806 010e 04       		.byte	4
 807 010f 4D       		.byte	77
 808 0110 06       		.byte	6
 809 0111 B2       		.byte	-78
 810 0112 07       		.byte	7
 811 0113 08       		.byte	8
 812 0114 08       		.byte	8
 813 0115 55       		.byte	85
 814 0116 09       		.byte	9
 815 0117 40       		.byte	64
 816 0118 0A       		.byte	10
 817 0119 8A       		.byte	-118
 818 011a 0B       		.byte	11
 819 011b 80       		.byte	-128
 820 011c 0C       		.byte	12
 821 011d 45       		.byte	69
 822 011e 0D       		.byte	13
 823 011f 28       		.byte	40
 824 0120 11       		.byte	17
 825 0121 08       		.byte	8
 826 0122 14       		.byte	20
 827 0123 01       		.byte	1
 828 0124 15       		.byte	21
 829 0125 F0       		.byte	-16
 830 0126 16       		.byte	22
 831 0127 02       		.byte	2
 832 0128 17       		.byte	23
 833 0129 03       		.byte	3
 834 012a 18       		.byte	24
 835 012b 04       		.byte	4
 836 012c 19       		.byte	25
 837 012d 31       		.byte	49
 838 012e 1A       		.byte	26
ARM GAS  C:\Users\Steve\AppData\Local\Temp\cclp5o4r.s 			page 30


 839 012f 41       		.byte	65
 840 0130 1B       		.byte	27
 841 0131 C4       		.byte	-60
 842 0132 1C       		.byte	28
 843 0133 40       		.byte	64
 844 0134 1D       		.byte	29
 845 0135 08       		.byte	8
 846 0136 1E       		.byte	30
 847 0137 80       		.byte	-128
 848 0138 20       		.byte	32
 849 0139 45       		.byte	69
 850 013a 27       		.byte	39
 851 013b 02       		.byte	2
 852 013c 28       		.byte	40
 853 013d 22       		.byte	34
 854 013e 2C       		.byte	44
 855 013f 45       		.byte	69
 856 0140 2D       		.byte	45
 857 0141 C0       		.byte	-64
 858 0142 2F       		.byte	47
 859 0143 1C       		.byte	28
 860 0144 30       		.byte	48
 861 0145 08       		.byte	8
 862 0146 32       		.byte	50
 863 0147 03       		.byte	3
 864 0148 33       		.byte	51
 865 0149 0F       		.byte	15
 866 014a 34       		.byte	52
 867 014b 3C       		.byte	60
 868 014c 35       		.byte	53
 869 014d C0       		.byte	-64
 870 014e 36       		.byte	54
 871 014f C0       		.byte	-64
 872 0150 37       		.byte	55
 873 0151 30       		.byte	48
 874 0152 38       		.byte	56
 875 0153 20       		.byte	32
 876 0154 3A       		.byte	58
 877 0155 88       		.byte	-120
 878 0156 3B       		.byte	59
 879 0157 A0       		.byte	-96
 880 0158 40       		.byte	64
 881 0159 62       		.byte	98
 882 015a 41       		.byte	65
 883 015b 04       		.byte	4
 884 015c 45       		.byte	69
 885 015d 0D       		.byte	13
 886 015e 47       		.byte	71
 887 015f BF       		.byte	-65
 888 0160 48       		.byte	72
 889 0161 31       		.byte	49
 890 0162 49       		.byte	73
 891 0163 FF       		.byte	-1
 892 0164 4A       		.byte	74
 893 0165 FF       		.byte	-1
 894 0166 4B       		.byte	75
 895 0167 FF       		.byte	-1
ARM GAS  C:\Users\Steve\AppData\Local\Temp\cclp5o4r.s 			page 31


 896 0168 4F       		.byte	79
 897 0169 40       		.byte	64
 898 016a 50       		.byte	80
 899 016b 30       		.byte	48
 900 016c 58       		.byte	88
 901 016d 0F       		.byte	15
 902 016e 59       		.byte	89
 903 016f 0F       		.byte	15
 904 0170 5A       		.byte	90
 905 0171 0F       		.byte	15
 906 0172 5C       		.byte	92
 907 0173 99       		.byte	-103
 908 0174 5D       		.byte	93
 909 0175 09       		.byte	9
 910 0176 5F       		.byte	95
 911 0177 01       		.byte	1
 912 0178 60       		.byte	96
 913 0179 F0       		.byte	-16
 914 017a 62       		.byte	98
 915 017b 40       		.byte	64
 916 017c 63       		.byte	99
 917 017d 02       		.byte	2
 918 017e 64       		.byte	100
 919 017f 10       		.byte	16
 920 0180 65       		.byte	101
 921 0181 12       		.byte	18
 922 0182 C0       		.byte	-64
 923 0183 62       		.byte	98
 924 0184 C1       		.byte	-63
 925 0185 04       		.byte	4
 926 0186 C5       		.byte	-59
 927 0187 0B       		.byte	11
 928 0188 C8       		.byte	-56
 929 0189 01       		.byte	1
 930 018a C9       		.byte	-55
 931 018b FF       		.byte	-1
 932 018c CA       		.byte	-54
 933 018d FF       		.byte	-1
 934 018e CB       		.byte	-53
 935 018f FF       		.byte	-1
 936 0190 CF       		.byte	-49
 937 0191 40       		.byte	64
 938 0192 D0       		.byte	-48
 939 0193 30       		.byte	48
 940 0194 DA       		.byte	-38
 941 0195 0C       		.byte	12
 942 0196 DD       		.byte	-35
 943 0197 09       		.byte	9
 944 0198 DF       		.byte	-33
 945 0199 01       		.byte	1
 946 019a E0       		.byte	-32
 947 019b F0       		.byte	-16
 948 019c E2       		.byte	-30
 949 019d 40       		.byte	64
 950 019e E3       		.byte	-29
 951 019f 02       		.byte	2
 952 01a0 E4       		.byte	-28
ARM GAS  C:\Users\Steve\AppData\Local\Temp\cclp5o4r.s 			page 32


 953 01a1 10       		.byte	16
 954 01a2 E5       		.byte	-27
 955 01a3 12       		.byte	18
 956 01a4 04       		.byte	4
 957 01a5 24       		.byte	36
 958 01a6 05       		.byte	5
 959 01a7 01       		.byte	1
 960 01a8 07       		.byte	7
 961 01a9 01       		.byte	1
 962 01aa 0E       		.byte	14
 963 01ab 22       		.byte	34
 964 01ac 0F       		.byte	15
 965 01ad 08       		.byte	8
 966 01ae 15       		.byte	21
 967 01af 80       		.byte	-128
 968 01b0 16       		.byte	22
 969 01b1 08       		.byte	8
 970 01b2 17       		.byte	23
 971 01b3 02       		.byte	2
 972 01b4 1C       		.byte	28
 973 01b5 04       		.byte	4
 974 01b6 1D       		.byte	29
 975 01b7 33       		.byte	51
 976 01b8 1E       		.byte	30
 977 01b9 6A       		.byte	106
 978 01ba 24       		.byte	36
 979 01bb 22       		.byte	34
 980 01bc 25       		.byte	37
 981 01bd 50       		.byte	80
 982 01be 26       		.byte	38
 983 01bf 08       		.byte	8
 984 01c0 27       		.byte	39
 985 01c1 21       		.byte	33
 986 01c2 2E       		.byte	46
 987 01c3 48       		.byte	72
 988 01c4 36       		.byte	54
 989 01c5 84       		.byte	-124
 990 01c6 37       		.byte	55
 991 01c7 22       		.byte	34
 992 01c8 3D       		.byte	61
 993 01c9 A0       		.byte	-96
 994 01ca 3E       		.byte	62
 995 01cb 02       		.byte	2
 996 01cc 3F       		.byte	63
 997 01cd 08       		.byte	8
 998 01ce 40       		.byte	64
 999 01cf 04       		.byte	4
 1000 01d0 42       		.byte	66
 1001 01d1 40       		.byte	64
 1002 01d2 45       		.byte	69
 1003 01d3 22       		.byte	34
 1004 01d4 49       		.byte	73
 1005 01d5 0C       		.byte	12
 1006 01d6 4A       		.byte	74
 1007 01d7 08       		.byte	8
 1008 01d8 4E       		.byte	78
 1009 01d9 08       		.byte	8
ARM GAS  C:\Users\Steve\AppData\Local\Temp\cclp5o4r.s 			page 33


 1010 01da 4F       		.byte	79
 1011 01db 08       		.byte	8
 1012 01dc 56       		.byte	86
 1013 01dd 0A       		.byte	10
 1014 01de 79       		.byte	121
 1015 01df 40       		.byte	64
 1016 01e0 7E       		.byte	126
 1017 01e1 40       		.byte	64
 1018 01e2 81       		.byte	-127
 1019 01e3 10       		.byte	16
 1020 01e4 86       		.byte	-122
 1021 01e5 10       		.byte	16
 1022 01e6 8E       		.byte	-114
 1023 01e7 01       		.byte	1
 1024 01e8 8F       		.byte	-113
 1025 01e9 10       		.byte	16
 1026 01ea 91       		.byte	-111
 1027 01eb C0       		.byte	-64
 1028 01ec 92       		.byte	-110
 1029 01ed 80       		.byte	-128
 1030 01ee 94       		.byte	-108
 1031 01ef 06       		.byte	6
 1032 01f0 96       		.byte	-106
 1033 01f1 40       		.byte	64
 1034 01f2 9B       		.byte	-101
 1035 01f3 12       		.byte	18
 1036 01f4 9D       		.byte	-99
 1037 01f5 1D       		.byte	29
 1038 01f6 9E       		.byte	-98
 1039 01f7 02       		.byte	2
 1040 01f8 A2       		.byte	-94
 1041 01f9 80       		.byte	-128
 1042 01fa A5       		.byte	-91
 1043 01fb 40       		.byte	64
 1044 01fc A6       		.byte	-90
 1045 01fd 08       		.byte	8
 1046 01fe A9       		.byte	-87
 1047 01ff 11       		.byte	17
 1048 0200 AC       		.byte	-84
 1049 0201 02       		.byte	2
 1050 0202 AE       		.byte	-82
 1051 0203 10       		.byte	16
 1052 0204 B4       		.byte	-76
 1053 0205 10       		.byte	16
 1054 0206 B5       		.byte	-75
 1055 0207 20       		.byte	32
 1056 0208 C0       		.byte	-64
 1057 0209 F0       		.byte	-16
 1058 020a C2       		.byte	-62
 1059 020b E0       		.byte	-32
 1060 020c C4       		.byte	-60
 1061 020d D0       		.byte	-48
 1062 020e CA       		.byte	-54
 1063 020f 50       		.byte	80
 1064 0210 CC       		.byte	-52
 1065 0211 F0       		.byte	-16
 1066 0212 CE       		.byte	-50
ARM GAS  C:\Users\Steve\AppData\Local\Temp\cclp5o4r.s 			page 34


 1067 0213 F0       		.byte	-16
 1068 0214 D0       		.byte	-48
 1069 0215 A5       		.byte	-91
 1070 0216 D2       		.byte	-46
 1071 0217 24       		.byte	36
 1072 0218 DE       		.byte	-34
 1073 0219 88       		.byte	-120
 1074 021a E0       		.byte	-32
 1075 021b 01       		.byte	1
 1076 021c E2       		.byte	-30
 1077 021d 10       		.byte	16
 1078 021e E6       		.byte	-26
 1079 021f 40       		.byte	64
 1080 0220 52       		.byte	82
 1081 0221 20       		.byte	32
 1082 0222 5B       		.byte	91
 1083 0223 04       		.byte	4
 1084 0224 5C       		.byte	92
 1085 0225 01       		.byte	1
 1086 0226 6F       		.byte	111
 1087 0227 20       		.byte	32
 1088 0228 8A       		.byte	-118
 1089 0229 10       		.byte	16
 1090 022a 8F       		.byte	-113
 1091 022b 04       		.byte	4
 1092 022c D4       		.byte	-44
 1093 022d 20       		.byte	32
 1094 022e D6       		.byte	-42
 1095 022f C0       		.byte	-64
 1096 0230 DA       		.byte	-38
 1097 0231 80       		.byte	-128
 1098 0232 52       		.byte	82
 1099 0233 80       		.byte	-128
 1100 0234 53       		.byte	83
 1101 0235 02       		.byte	2
 1102 0236 56       		.byte	86
 1103 0237 10       		.byte	16
 1104 0238 57       		.byte	87
 1105 0239 01       		.byte	1
 1106 023a 65       		.byte	101
 1107 023b 80       		.byte	-128
 1108 023c 66       		.byte	102
 1109 023d 08       		.byte	8
 1110 023e 86       		.byte	-122
 1111 023f 80       		.byte	-128
 1112 0240 87       		.byte	-121
 1113 0241 20       		.byte	32
 1114 0242 8D       		.byte	-115
 1115 0243 80       		.byte	-128
 1116 0244 8E       		.byte	-114
 1117 0245 08       		.byte	8
 1118 0246 9A       		.byte	-102
 1119 0247 10       		.byte	16
 1120 0248 A3       		.byte	-93
 1121 0249 03       		.byte	3
 1122 024a A7       		.byte	-89
 1123 024b 20       		.byte	32
ARM GAS  C:\Users\Steve\AppData\Local\Temp\cclp5o4r.s 			page 35


 1124 024c A8       		.byte	-88
 1125 024d 01       		.byte	1
 1126 024e AA       		.byte	-86
 1127 024f 20       		.byte	32
 1128 0250 AF       		.byte	-81
 1129 0251 03       		.byte	3
 1130 0252 D4       		.byte	-44
 1131 0253 E0       		.byte	-32
 1132 0254 D6       		.byte	-42
 1133 0255 A0       		.byte	-96
 1134 0256 D8       		.byte	-40
 1135 0257 80       		.byte	-128
 1136 0258 E6       		.byte	-26
 1137 0259 10       		.byte	16
 1138 025a EA       		.byte	-22
 1139 025b 90       		.byte	-112
 1140 025c EE       		.byte	-18
 1141 025d 90       		.byte	-112
 1142 025e 82       		.byte	-126
 1143 025f 02       		.byte	2
 1144 0260 50       		.byte	80
 1145 0261 10       		.byte	16
 1146 0262 5A       		.byte	90
 1147 0263 80       		.byte	-128
 1148 0264 5B       		.byte	91
 1149 0265 04       		.byte	4
 1150 0266 66       		.byte	102
 1151 0267 02       		.byte	2
 1152 0268 83       		.byte	-125
 1153 0269 04       		.byte	4
 1154 026a 90       		.byte	-112
 1155 026b 20       		.byte	32
 1156 026c 92       		.byte	-110
 1157 026d 80       		.byte	-128
 1158 026e 9A       		.byte	-102
 1159 026f 02       		.byte	2
 1160 0270 B4       		.byte	-76
 1161 0271 10       		.byte	16
 1162 0272 B6       		.byte	-74
 1163 0273 40       		.byte	64
 1164 0274 D4       		.byte	-44
 1165 0275 05       		.byte	5
 1166 0276 D6       		.byte	-42
 1167 0277 02       		.byte	2
 1168 0278 D8       		.byte	-40
 1169 0279 01       		.byte	1
 1170 027a E8       		.byte	-24
 1171 027b 08       		.byte	8
 1172 027c EC       		.byte	-20
 1173 027d 02       		.byte	2
 1174 027e 02       		.byte	2
 1175 027f 01       		.byte	1
 1176 0280 11       		.byte	17
 1177 0281 01       		.byte	1
 1178 0282 0000     		.text
 1179              	.Letext0:
 1180              		.file 2 "c:\\program files (x86)\\cypress\\psoc creator\\3.0\\psoc creator\\import\\gnu_cs\\arm\\4
ARM GAS  C:\Users\Steve\AppData\Local\Temp\cclp5o4r.s 			page 36


 1181              		.file 3 "./Generated_Source/PSoC4/cytypes.h"
 1182              		.file 4 "./Generated_Source/PSoC4/CyLib.h"