ARM GAS  C:\Users\Steve\AppData\Local\Temp\ccbnCQNa.s 			page 1


   1              		.cpu cortex-m0
   2              		.fpu softvfp
   3              		.eabi_attribute 20, 1
   4              		.eabi_attribute 21, 1
   5              		.eabi_attribute 23, 3
   6              		.eabi_attribute 24, 1
   7              		.eabi_attribute 25, 1
   8              		.eabi_attribute 26, 1
   9              		.eabi_attribute 30, 2
  10              		.eabi_attribute 34, 0
  11              		.eabi_attribute 18, 4
  12              		.code	16
  13              		.file	"CyFlash.c"
  14              		.text
  15              	.Ltext0:
  16              		.cfi_sections	.debug_frame
  17              		.section	.text.CySysFlashWriteRow,"ax",%progbits
  18              		.align	2
  19              		.global	CySysFlashWriteRow
  20              		.code	16
  21              		.thumb_func
  22              		.type	CySysFlashWriteRow, %function
  23              	CySysFlashWriteRow:
  24              	.LFB0:
  25              		.file 1 ".\\Generated_Source\\PSoC4\\CyFlash.c"
   1:.\Generated_Source\PSoC4/CyFlash.c **** /*******************************************************************************
   2:.\Generated_Source\PSoC4/CyFlash.c **** * File Name: CyFlash.c
   3:.\Generated_Source\PSoC4/CyFlash.c **** * Version 4.0
   4:.\Generated_Source\PSoC4/CyFlash.c **** *
   5:.\Generated_Source\PSoC4/CyFlash.c **** *  Description:
   6:.\Generated_Source\PSoC4/CyFlash.c **** *   Provides an API for the FLASH.
   7:.\Generated_Source\PSoC4/CyFlash.c **** *
   8:.\Generated_Source\PSoC4/CyFlash.c **** *  Note:
   9:.\Generated_Source\PSoC4/CyFlash.c **** *   This code is endian agnostic.
  10:.\Generated_Source\PSoC4/CyFlash.c **** *
  11:.\Generated_Source\PSoC4/CyFlash.c **** *  Note:
  12:.\Generated_Source\PSoC4/CyFlash.c **** *   Documentation of the API's in this file is located in the
  13:.\Generated_Source\PSoC4/CyFlash.c **** *   System Reference Guide provided with PSoC Creator.
  14:.\Generated_Source\PSoC4/CyFlash.c **** *
  15:.\Generated_Source\PSoC4/CyFlash.c **** ********************************************************************************
  16:.\Generated_Source\PSoC4/CyFlash.c **** * Copyright 2010-2013, Cypress Semiconductor Corporation.  All rights reserved.
  17:.\Generated_Source\PSoC4/CyFlash.c **** * You may use this file only in accordance with the license, terms, conditions,
  18:.\Generated_Source\PSoC4/CyFlash.c **** * disclaimers, and limitations in the end user license agreement accompanying
  19:.\Generated_Source\PSoC4/CyFlash.c **** * the software package with which this file was provided.
  20:.\Generated_Source\PSoC4/CyFlash.c **** *******************************************************************************/
  21:.\Generated_Source\PSoC4/CyFlash.c **** 
  22:.\Generated_Source\PSoC4/CyFlash.c **** #include "CyFlash.h"
  23:.\Generated_Source\PSoC4/CyFlash.c **** 
  24:.\Generated_Source\PSoC4/CyFlash.c **** 
  25:.\Generated_Source\PSoC4/CyFlash.c **** /*******************************************************************************
  26:.\Generated_Source\PSoC4/CyFlash.c **** * Function Name: CySysFlashWriteRow
  27:.\Generated_Source\PSoC4/CyFlash.c **** ********************************************************************************
  28:.\Generated_Source\PSoC4/CyFlash.c **** *
  29:.\Generated_Source\PSoC4/CyFlash.c **** * Summary:
  30:.\Generated_Source\PSoC4/CyFlash.c **** *  Writes a row of Flash.
  31:.\Generated_Source\PSoC4/CyFlash.c **** *
  32:.\Generated_Source\PSoC4/CyFlash.c **** * Parameters:
ARM GAS  C:\Users\Steve\AppData\Local\Temp\ccbnCQNa.s 			page 2


  33:.\Generated_Source\PSoC4/CyFlash.c **** *  uint16 rowNum:
  34:.\Generated_Source\PSoC4/CyFlash.c **** *   Row number. Each row is 128 bytes so a 32KB flash memory will have a valid
  35:.\Generated_Source\PSoC4/CyFlash.c **** *   range of [0-255].
  36:.\Generated_Source\PSoC4/CyFlash.c **** *
  37:.\Generated_Source\PSoC4/CyFlash.c **** *  uint8* rowData:
  38:.\Generated_Source\PSoC4/CyFlash.c **** *   Array of bytes to write.
  39:.\Generated_Source\PSoC4/CyFlash.c **** *
  40:.\Generated_Source\PSoC4/CyFlash.c **** * Return:
  41:.\Generated_Source\PSoC4/CyFlash.c **** *  Status
  42:.\Generated_Source\PSoC4/CyFlash.c **** *     Value             Description
  43:.\Generated_Source\PSoC4/CyFlash.c **** *    CYRET_SUCCESS     Successful
  44:.\Generated_Source\PSoC4/CyFlash.c **** *    CYRET_LOCKED      Flash writing already in use
  45:.\Generated_Source\PSoC4/CyFlash.c **** *    CYRET_CANCELED    Command not accepted
  46:.\Generated_Source\PSoC4/CyFlash.c **** *    CYRET_BAD_PARAM   One or more invalid parameters
  47:.\Generated_Source\PSoC4/CyFlash.c **** *    Other non-zero    Failure
  48:.\Generated_Source\PSoC4/CyFlash.c **** *
  49:.\Generated_Source\PSoC4/CyFlash.c **** *******************************************************************************/
  50:.\Generated_Source\PSoC4/CyFlash.c **** cystatus CySysFlashWriteRow(uint32 rowNum, const uint8 rowData[])
  51:.\Generated_Source\PSoC4/CyFlash.c **** {
  26              		.loc 1 51 0
  27              		.cfi_startproc
  28              	.LVL0:
  29 0000 10B5     		push	{r4, lr}
  30              	.LCFI0:
  31              		.cfi_def_cfa_offset 8
  32              		.cfi_offset 4, -8
  33              		.cfi_offset 14, -4
  52:.\Generated_Source\PSoC4/CyFlash.c ****     volatile cystatus retValue = CYRET_SUCCESS;
  34              		.loc 1 52 0
  35 0002 0023     		mov	r3, #0
  51:.\Generated_Source\PSoC4/CyFlash.c **** {
  36              		.loc 1 51 0
  37 0004 A6B0     		sub	sp, sp, #152
  38              	.LCFI1:
  39              		.cfi_def_cfa_offset 160
  51:.\Generated_Source\PSoC4/CyFlash.c **** {
  40              		.loc 1 51 0
  41 0006 041C     		mov	r4, r0
  42              		.loc 1 52 0
  43 0008 0193     		str	r3, [sp, #4]
  44              	.LVL1:
  53:.\Generated_Source\PSoC4/CyFlash.c ****     volatile uint32   *ptr;
  54:.\Generated_Source\PSoC4/CyFlash.c ****     volatile uint32   cpuValue;
  55:.\Generated_Source\PSoC4/CyFlash.c ****     volatile uint32   localData[(CY_FLASH_SIZEOF_ROW + CY_FLASH_SRAM_ROM_DATA)/4u];
  56:.\Generated_Source\PSoC4/CyFlash.c ****     uint8  interruptState;
  57:.\Generated_Source\PSoC4/CyFlash.c **** 
  58:.\Generated_Source\PSoC4/CyFlash.c ****     #if(CY_PSOC4A)
  59:.\Generated_Source\PSoC4/CyFlash.c ****         volatile uint32   imoConfigReg;
  60:.\Generated_Source\PSoC4/CyFlash.c ****     #endif
  61:.\Generated_Source\PSoC4/CyFlash.c **** 
  62:.\Generated_Source\PSoC4/CyFlash.c ****     if ((rowNum < CY_FLASH_NUMBER_ROWS) && (rowData != 0u))
  45              		.loc 1 62 0
  46 000a FF28     		cmp	r0, #255
  47 000c 48D8     		bhi	.L2
  48              		.loc 1 62 0 is_stmt 0 discriminator 1
  49 000e 0029     		cmp	r1, #0
  50 0010 46D0     		beq	.L2
ARM GAS  C:\Users\Steve\AppData\Local\Temp\ccbnCQNa.s 			page 3


  51              	.LVL2:
  63:.\Generated_Source\PSoC4/CyFlash.c ****     {
  64:.\Generated_Source\PSoC4/CyFlash.c ****         /* First load the data. Then invoke Write row command. */
  65:.\Generated_Source\PSoC4/CyFlash.c ****         ptr = &localData[CY_FLASH_SRAM_ROM_KEY1];
  66:.\Generated_Source\PSoC4/CyFlash.c **** 
  67:.\Generated_Source\PSoC4/CyFlash.c ****         CY_FLASH_CPUSS_SYSARG_REG = (uint32)ptr;
  52              		.loc 1 67 0 is_stmt 1
  53 0012 294B     		ldr	r3, .L21
  68:.\Generated_Source\PSoC4/CyFlash.c **** 
  69:.\Generated_Source\PSoC4/CyFlash.c ****         #if(CY_FLASH_NUMBER_ROWS > 255u)
  70:.\Generated_Source\PSoC4/CyFlash.c ****             localData[CY_FLASH_SRAM_ROM_KEY1] = CY_FLASH_SROM_LOAD_CMD | (uint32)((rowNum & 0x100u)
  54              		.loc 1 70 0
  55 0014 2948     		ldr	r0, .L21+4
  56              	.LVL3:
  67:.\Generated_Source\PSoC4/CyFlash.c ****         CY_FLASH_CPUSS_SYSARG_REG = (uint32)ptr;
  57              		.loc 1 67 0
  58 0016 04AA     		add	r2, sp, #16
  59              	.LVL4:
  60 0018 1A60     		str	r2, [r3]
  61              		.loc 1 70 0
  62 001a 0490     		str	r0, [sp, #16]
  71:.\Generated_Source\PSoC4/CyFlash.c ****         #else
  72:.\Generated_Source\PSoC4/CyFlash.c ****             localData[CY_FLASH_SRAM_ROM_KEY1] = CY_FLASH_SROM_LOAD_CMD;
  73:.\Generated_Source\PSoC4/CyFlash.c ****         #endif /* (CY_FLASH_SIZEOF_ROW > 255) */
  74:.\Generated_Source\PSoC4/CyFlash.c **** 
  75:.\Generated_Source\PSoC4/CyFlash.c ****         localData[CY_FLASH_SRAM_ROM_PARAM2/4u] = ((uint32)(CYDEV_FLS_ROW_SIZE - 1u));
  63              		.loc 1 75 0
  64 001c 7F23     		mov	r3, #127
  76:.\Generated_Source\PSoC4/CyFlash.c **** 
  77:.\Generated_Source\PSoC4/CyFlash.c ****         /* Copy row data from 8bit to 32bit array with shift for CPUSS commands */
  78:.\Generated_Source\PSoC4/CyFlash.c ****         (void)memcpy((void *)&localData[CY_FLASH_SRAM_ROM_DATA/4u], rowData, CYDEV_FLS_ROW_SIZE);
  65              		.loc 1 78 0
  66 001e 8022     		mov	r2, #128
  67              	.LVL5:
  68 0020 06A8     		add	r0, sp, #24
  75:.\Generated_Source\PSoC4/CyFlash.c ****         localData[CY_FLASH_SRAM_ROM_PARAM2/4u] = ((uint32)(CYDEV_FLS_ROW_SIZE - 1u));
  69              		.loc 1 75 0
  70 0022 0593     		str	r3, [sp, #20]
  71              		.loc 1 78 0
  72 0024 FFF7FEFF 		bl	memcpy
  73              	.LVL6:
  79:.\Generated_Source\PSoC4/CyFlash.c **** 
  80:.\Generated_Source\PSoC4/CyFlash.c ****         /* Perform sysreq load data, opcode 0x80000004h */
  81:.\Generated_Source\PSoC4/CyFlash.c ****         CY_FLASH_CPUSS_SYSREQ_REG = CY_FLASH_LOAD_BYTE_OPCODE | CY_FLASH_CPUSS_REQ_START;
  74              		.loc 1 81 0
  75 0028 2549     		ldr	r1, .L21+8
  76 002a 264A     		ldr	r2, .L21+12
  77 002c 0A60     		str	r2, [r1]
  78              	.L3:
  82:.\Generated_Source\PSoC4/CyFlash.c **** 
  83:.\Generated_Source\PSoC4/CyFlash.c ****         while((CY_FLASH_CPUSS_SYSREQ_REG & CY_FLASH_CPUSS_REQ_START) == CY_FLASH_CPUSS_REQ_START)
  79              		.loc 1 83 0 discriminator 1
  80 002e 0868     		ldr	r0, [r1]
  81 0030 0028     		cmp	r0, #0
  82 0032 FCDB     		blt	.L3
  84:.\Generated_Source\PSoC4/CyFlash.c ****         {
  85:.\Generated_Source\PSoC4/CyFlash.c ****             /* Wait till the CY_FLASH_CPUSS_REQ_START bit goes low */
ARM GAS  C:\Users\Steve\AppData\Local\Temp\ccbnCQNa.s 			page 4


  86:.\Generated_Source\PSoC4/CyFlash.c ****         }
  87:.\Generated_Source\PSoC4/CyFlash.c **** 
  88:.\Generated_Source\PSoC4/CyFlash.c ****         /* Check if the value is written to the SRAM_BASE */
  89:.\Generated_Source\PSoC4/CyFlash.c ****         cpuValue = CY_FLASH_CPUSS_SYSARG_REG;
  83              		.loc 1 89 0
  84 0034 2049     		ldr	r1, .L21
  90:.\Generated_Source\PSoC4/CyFlash.c ****         if (cpuValue == CY_FLASH_SROM_CMD_RETURN_SUCC)
  85              		.loc 1 90 0
  86 0036 A022     		mov	r2, #160
  89:.\Generated_Source\PSoC4/CyFlash.c ****         cpuValue = CY_FLASH_CPUSS_SYSARG_REG;
  87              		.loc 1 89 0
  88 0038 0B68     		ldr	r3, [r1]
  89              	.LVL7:
  90              		.loc 1 90 0
  91 003a 1206     		lsl	r2, r2, #24
  89:.\Generated_Source\PSoC4/CyFlash.c ****         cpuValue = CY_FLASH_CPUSS_SYSARG_REG;
  92              		.loc 1 89 0
  93 003c 0293     		str	r3, [sp, #8]
  94              		.loc 1 90 0
  95 003e 0298     		ldr	r0, [sp, #8]
  96 0040 9042     		cmp	r0, r2
  97 0042 35D0     		beq	.L19
  91:.\Generated_Source\PSoC4/CyFlash.c ****         {
  92:.\Generated_Source\PSoC4/CyFlash.c ****             retValue = CYRET_SUCCESS;
  93:.\Generated_Source\PSoC4/CyFlash.c ****         }
  94:.\Generated_Source\PSoC4/CyFlash.c ****         else if((cpuValue & CY_FLASH_SROM_CMD_RETURN_MASK) == CY_FLASH_SROM_CMD_RETURN_MASK)
  98              		.loc 1 94 0
  99 0044 029B     		ldr	r3, [sp, #8]
 100 0046 180F     		lsr	r0, r3, #28
 101 0048 0F28     		cmp	r0, #15
 102 004a 2ED0     		beq	.L20
 103              	.L13:
  95:.\Generated_Source\PSoC4/CyFlash.c ****         {
  96:.\Generated_Source\PSoC4/CyFlash.c ****             /* Error value, cant proceed */
  97:.\Generated_Source\PSoC4/CyFlash.c ****             retValue = CYRET_CANCELED;
  98:.\Generated_Source\PSoC4/CyFlash.c ****         }
  99:.\Generated_Source\PSoC4/CyFlash.c ****         else
 100:.\Generated_Source\PSoC4/CyFlash.c ****         {
 101:.\Generated_Source\PSoC4/CyFlash.c ****             while((CY_FLASH_CPUSS_SYSARG_REG & CY_FLASH_SROM_CMD_RETURN_MASK) != CY_FLASH_SROM_CMD_
 104              		.loc 1 101 0
 105 004c 0B68     		ldr	r3, [r1]
 106 004e 180F     		lsr	r0, r3, #28
 107 0050 0307     		lsl	r3, r0, #28
 108 0052 9342     		cmp	r3, r2
 109 0054 FAD1     		bne	.L13
 110              	.LVL8:
 111              	.L5:
 102:.\Generated_Source\PSoC4/CyFlash.c ****             {
 103:.\Generated_Source\PSoC4/CyFlash.c ****                 /* Wait till the request is completed */
 104:.\Generated_Source\PSoC4/CyFlash.c ****             }
 105:.\Generated_Source\PSoC4/CyFlash.c ****         }
 106:.\Generated_Source\PSoC4/CyFlash.c **** 
 107:.\Generated_Source\PSoC4/CyFlash.c ****         if(retValue == CYRET_SUCCESS)
 112              		.loc 1 107 0
 113 0056 0198     		ldr	r0, [sp, #4]
 114 0058 0028     		cmp	r0, #0
 115 005a 23D1     		bne	.L8
ARM GAS  C:\Users\Steve\AppData\Local\Temp\ccbnCQNa.s 			page 5


 108:.\Generated_Source\PSoC4/CyFlash.c ****         {
 109:.\Generated_Source\PSoC4/CyFlash.c ****             ptr = &localData[CY_FLASH_SRAM_ROM_KEY1/4u];
 110:.\Generated_Source\PSoC4/CyFlash.c ****             CY_FLASH_CPUSS_SYSARG_REG = (uint32)ptr;
 116              		.loc 1 110 0
 117 005c 164B     		ldr	r3, .L21
 111:.\Generated_Source\PSoC4/CyFlash.c **** 
 112:.\Generated_Source\PSoC4/CyFlash.c ****             /* Write row command to SROM */
 113:.\Generated_Source\PSoC4/CyFlash.c ****             localData[CY_FLASH_SRAM_ROM_KEY1/4u] =  (uint32)(rowNum << 16u) |
 114:.\Generated_Source\PSoC4/CyFlash.c ****                                                     (uint32)(CY_FLASH_SROM_KEY2_WRITE << 8u) |
 118              		.loc 1 114 0
 119 005e 1A4A     		ldr	r2, .L21+16
 110:.\Generated_Source\PSoC4/CyFlash.c ****             CY_FLASH_CPUSS_SYSARG_REG = (uint32)ptr;
 120              		.loc 1 110 0
 121 0060 04A9     		add	r1, sp, #16
 122              	.LVL9:
 113:.\Generated_Source\PSoC4/CyFlash.c ****             localData[CY_FLASH_SRAM_ROM_KEY1/4u] =  (uint32)(rowNum << 16u) |
 123              		.loc 1 113 0
 124 0062 2404     		lsl	r4, r4, #16
 125              	.LVL10:
 110:.\Generated_Source\PSoC4/CyFlash.c ****             CY_FLASH_CPUSS_SYSARG_REG = (uint32)ptr;
 126              		.loc 1 110 0
 127 0064 1960     		str	r1, [r3]
 128              		.loc 1 114 0
 129 0066 1443     		orr	r4, r2
 113:.\Generated_Source\PSoC4/CyFlash.c ****             localData[CY_FLASH_SRAM_ROM_KEY1/4u] =  (uint32)(rowNum << 16u) |
 130              		.loc 1 113 0
 131 0068 0494     		str	r4, [sp, #16]
 115:.\Generated_Source\PSoC4/CyFlash.c ****                                                     CY_FLASH_SROM_KEY1;
 116:.\Generated_Source\PSoC4/CyFlash.c **** 
 117:.\Generated_Source\PSoC4/CyFlash.c ****             /* Mask all exceptions to guarantee that IMO configuration will be changed
 118:.\Generated_Source\PSoC4/CyFlash.c ****             * in the atomic way. It will not affect syscall execution (flash row write)
 119:.\Generated_Source\PSoC4/CyFlash.c ****             * since it is executed in the NMI context.
 120:.\Generated_Source\PSoC4/CyFlash.c ****             */
 121:.\Generated_Source\PSoC4/CyFlash.c ****             interruptState = CyEnterCriticalSection();
 132              		.loc 1 121 0
 133 006a FFF7FEFF 		bl	CyEnterCriticalSection
 134              	.LVL11:
 122:.\Generated_Source\PSoC4/CyFlash.c **** 
 123:.\Generated_Source\PSoC4/CyFlash.c ****             #if(CY_PSOC4A)
 124:.\Generated_Source\PSoC4/CyFlash.c ****                 /* Preserve IMO configuration that could be changed
 125:.\Generated_Source\PSoC4/CyFlash.c ****                 * during syscall execution (Cypress ID #150448).
 126:.\Generated_Source\PSoC4/CyFlash.c ****                 */
 127:.\Generated_Source\PSoC4/CyFlash.c ****                 imoConfigReg = CY_SYS_CLK_IMO_CONFIG_REG;
 135              		.loc 1 127 0
 136 006e 174B     		ldr	r3, .L21+20
 128:.\Generated_Source\PSoC4/CyFlash.c ****             #endif
 129:.\Generated_Source\PSoC4/CyFlash.c **** 
 130:.\Generated_Source\PSoC4/CyFlash.c ****             /* Perform sysreq for Write row, opcode 0x80000005 */
 131:.\Generated_Source\PSoC4/CyFlash.c ****             CY_FLASH_CPUSS_SYSREQ_REG = CY_FLASH_WRITE_ROW_OPCODE | CY_FLASH_CPUSS_REQ_START;
 137              		.loc 1 131 0
 138 0070 134C     		ldr	r4, .L21+8
 127:.\Generated_Source\PSoC4/CyFlash.c ****                 imoConfigReg = CY_SYS_CLK_IMO_CONFIG_REG;
 139              		.loc 1 127 0
 140 0072 1968     		ldr	r1, [r3]
 141              	.LVL12:
 142              		.loc 1 131 0
 143 0074 164A     		ldr	r2, .L21+24
ARM GAS  C:\Users\Steve\AppData\Local\Temp\ccbnCQNa.s 			page 6


 127:.\Generated_Source\PSoC4/CyFlash.c ****                 imoConfigReg = CY_SYS_CLK_IMO_CONFIG_REG;
 144              		.loc 1 127 0
 145 0076 0391     		str	r1, [sp, #12]
 146              		.loc 1 131 0
 147 0078 2260     		str	r2, [r4]
 148              	.L9:
 132:.\Generated_Source\PSoC4/CyFlash.c **** 
 133:.\Generated_Source\PSoC4/CyFlash.c ****             while((CY_FLASH_CPUSS_SYSREQ_REG & CY_FLASH_CPUSS_REQ_START) == CY_FLASH_CPUSS_REQ_STAR
 149              		.loc 1 133 0 discriminator 1
 150 007a 2368     		ldr	r3, [r4]
 151 007c 002B     		cmp	r3, #0
 152 007e FCDB     		blt	.L9
 134:.\Generated_Source\PSoC4/CyFlash.c ****             {
 135:.\Generated_Source\PSoC4/CyFlash.c ****                 /* Wait till the CY_FLASH_CPUSS_REQ_START bit goes low */
 136:.\Generated_Source\PSoC4/CyFlash.c ****             }
 137:.\Generated_Source\PSoC4/CyFlash.c **** 
 138:.\Generated_Source\PSoC4/CyFlash.c ****             #if(CY_PSOC4A)
 139:.\Generated_Source\PSoC4/CyFlash.c ****                 /* Restore IMO configuration */
 140:.\Generated_Source\PSoC4/CyFlash.c ****                 CY_SYS_CLK_IMO_CONFIG_REG = imoConfigReg;
 153              		.loc 1 140 0
 154 0080 0399     		ldr	r1, [sp, #12]
 155 0082 124C     		ldr	r4, .L21+20
 156 0084 2160     		str	r1, [r4]
 141:.\Generated_Source\PSoC4/CyFlash.c ****             #endif
 142:.\Generated_Source\PSoC4/CyFlash.c **** 
 143:.\Generated_Source\PSoC4/CyFlash.c ****             CyExitCriticalSection(interruptState);
 157              		.loc 1 143 0
 158 0086 FFF7FEFF 		bl	CyExitCriticalSection
 159              	.LVL13:
 144:.\Generated_Source\PSoC4/CyFlash.c **** 
 145:.\Generated_Source\PSoC4/CyFlash.c ****             cpuValue = CY_FLASH_CPUSS_SYSARG_REG;
 160              		.loc 1 145 0
 161 008a 0B48     		ldr	r0, .L21
 146:.\Generated_Source\PSoC4/CyFlash.c ****             if (cpuValue != CY_FLASH_SROM_CMD_RETURN_SUCC)
 162              		.loc 1 146 0
 163 008c A023     		mov	r3, #160
 145:.\Generated_Source\PSoC4/CyFlash.c ****             cpuValue = CY_FLASH_CPUSS_SYSARG_REG;
 164              		.loc 1 145 0
 165 008e 0268     		ldr	r2, [r0]
 166              	.LVL14:
 167              		.loc 1 146 0
 168 0090 1C06     		lsl	r4, r3, #24
 145:.\Generated_Source\PSoC4/CyFlash.c ****             cpuValue = CY_FLASH_CPUSS_SYSARG_REG;
 169              		.loc 1 145 0
 170 0092 0292     		str	r2, [sp, #8]
 171              		.loc 1 146 0
 172 0094 0299     		ldr	r1, [sp, #8]
 173 0096 A142     		cmp	r1, r4
 174 0098 04D0     		beq	.L8
 147:.\Generated_Source\PSoC4/CyFlash.c ****             {
 148:.\Generated_Source\PSoC4/CyFlash.c ****                 retValue = cpuValue;
 175              		.loc 1 148 0
 176 009a 0298     		ldr	r0, [sp, #8]
 177              	.LVL15:
 178 009c 0190     		str	r0, [sp, #4]
 179 009e 01E0     		b	.L8
 180              	.LVL16:
ARM GAS  C:\Users\Steve\AppData\Local\Temp\ccbnCQNa.s 			page 7


 181              	.L2:
 149:.\Generated_Source\PSoC4/CyFlash.c ****             }
 150:.\Generated_Source\PSoC4/CyFlash.c ****         }
 151:.\Generated_Source\PSoC4/CyFlash.c ****     }
 152:.\Generated_Source\PSoC4/CyFlash.c ****     else
 153:.\Generated_Source\PSoC4/CyFlash.c ****     {
 154:.\Generated_Source\PSoC4/CyFlash.c ****         retValue = CYRET_BAD_PARAM;
 182              		.loc 1 154 0
 183 00a0 0120     		mov	r0, #1
 184              	.LVL17:
 185 00a2 0190     		str	r0, [sp, #4]
 186              	.LVL18:
 187              	.L8:
 155:.\Generated_Source\PSoC4/CyFlash.c ****     }
 156:.\Generated_Source\PSoC4/CyFlash.c **** 
 157:.\Generated_Source\PSoC4/CyFlash.c ****     return (retValue);
 188              		.loc 1 157 0
 189 00a4 0198     		ldr	r0, [sp, #4]
 158:.\Generated_Source\PSoC4/CyFlash.c **** }
 190              		.loc 1 158 0
 191 00a6 26B0     		add	sp, sp, #152
 192              		@ sp needed for prologue
 193 00a8 10BD     		pop	{r4, pc}
 194              	.LVL19:
 195              	.L20:
  97:.\Generated_Source\PSoC4/CyFlash.c ****             retValue = CYRET_CANCELED;
 196              		.loc 1 97 0
 197 00aa 0921     		mov	r1, #9
 198 00ac 0191     		str	r1, [sp, #4]
 199 00ae D2E7     		b	.L5
 200              	.L19:
  92:.\Generated_Source\PSoC4/CyFlash.c ****             retValue = CYRET_SUCCESS;
 201              		.loc 1 92 0
 202 00b0 0022     		mov	r2, #0
 203 00b2 0192     		str	r2, [sp, #4]
 204 00b4 CFE7     		b	.L5
 205              	.L22:
 206 00b6 C046     		.align	2
 207              	.L21:
 208 00b8 08000040 		.word	1073741832
 209 00bc B6D70000 		.word	55222
 210 00c0 04000040 		.word	1073741828
 211 00c4 04000080 		.word	-2147483644
 212 00c8 B6D80000 		.word	55478
 213 00cc 08010B40 		.word	1074462984
 214 00d0 05000080 		.word	-2147483643
 215              		.cfi_endproc
 216              	.LFE0:
 217              		.size	CySysFlashWriteRow, .-CySysFlashWriteRow
 218              		.section	.text.CySysFlashSetWaitCycles,"ax",%progbits
 219              		.align	2
 220              		.global	CySysFlashSetWaitCycles
 221              		.code	16
 222              		.thumb_func
 223              		.type	CySysFlashSetWaitCycles, %function
 224              	CySysFlashSetWaitCycles:
 225              	.LFB1:
ARM GAS  C:\Users\Steve\AppData\Local\Temp\ccbnCQNa.s 			page 8


 159:.\Generated_Source\PSoC4/CyFlash.c **** 
 160:.\Generated_Source\PSoC4/CyFlash.c **** #if(CY_PSOC4A)
 161:.\Generated_Source\PSoC4/CyFlash.c **** 
 162:.\Generated_Source\PSoC4/CyFlash.c ****     /*******************************************************************************
 163:.\Generated_Source\PSoC4/CyFlash.c ****     * Function Name: CySysFlashSetWaitCycles
 164:.\Generated_Source\PSoC4/CyFlash.c ****     ********************************************************************************
 165:.\Generated_Source\PSoC4/CyFlash.c ****     *
 166:.\Generated_Source\PSoC4/CyFlash.c ****     * Summary:
 167:.\Generated_Source\PSoC4/CyFlash.c ****     *  Sets the number of clock cycles the cache will wait before it samples data
 168:.\Generated_Source\PSoC4/CyFlash.c ****     *  coming back from Flash. This function must be called before increasing SYSCLK
 169:.\Generated_Source\PSoC4/CyFlash.c ****     *  clock frequency. It can optionally be called after lowering SYSCLK clock
 170:.\Generated_Source\PSoC4/CyFlash.c ****     *  frequency in order to improve CPU performance.
 171:.\Generated_Source\PSoC4/CyFlash.c ****     *
 172:.\Generated_Source\PSoC4/CyFlash.c ****     * Parameters:
 173:.\Generated_Source\PSoC4/CyFlash.c ****     *  freq: Valid range [3-48].  Frequency for operation of the IMO.
 174:.\Generated_Source\PSoC4/CyFlash.c ****     *  Note: Invalid frequency will be ignored.
 175:.\Generated_Source\PSoC4/CyFlash.c ****     *
 176:.\Generated_Source\PSoC4/CyFlash.c ****     * Return:
 177:.\Generated_Source\PSoC4/CyFlash.c ****     *  None
 178:.\Generated_Source\PSoC4/CyFlash.c ****     *
 179:.\Generated_Source\PSoC4/CyFlash.c ****     *******************************************************************************/
 180:.\Generated_Source\PSoC4/CyFlash.c ****     void CySysFlashSetWaitCycles(uint32 freq)
 181:.\Generated_Source\PSoC4/CyFlash.c ****     {
 226              		.loc 1 181 0
 227              		.cfi_startproc
 228              	.LVL20:
 229 0000 08B5     		push	{r3, lr}
 230              	.LCFI2:
 231              		.cfi_def_cfa_offset 8
 232              		.cfi_offset 3, -8
 233              		.cfi_offset 14, -4
 182:.\Generated_Source\PSoC4/CyFlash.c ****         if ((freq >= CY_SYS_CLK_IMO_MIN_FREQ_MHZ) && (freq <= CY_SYS_CLK_IMO_MAX_FREQ_MHZ))
 234              		.loc 1 182 0
 235 0002 C31E     		sub	r3, r0, #3
 236 0004 2D2B     		cmp	r3, #45
 237 0006 0CD8     		bhi	.L24
 183:.\Generated_Source\PSoC4/CyFlash.c ****         {
 184:.\Generated_Source\PSoC4/CyFlash.c ****             if ( freq <= CY_FLASH_SYSCLK_BOUNDARY_MHZ )
 185:.\Generated_Source\PSoC4/CyFlash.c ****             {
 186:.\Generated_Source\PSoC4/CyFlash.c ****                 CY_SYS_CLK_SELECT_REG &= (uint32)(~CY_FLASH_WAIT_STATE_EN);
 238              		.loc 1 186 0
 239 0008 084B     		ldr	r3, .L28
 240 000a 1968     		ldr	r1, [r3]
 184:.\Generated_Source\PSoC4/CyFlash.c ****             if ( freq <= CY_FLASH_SYSCLK_BOUNDARY_MHZ )
 241              		.loc 1 184 0
 242 000c 1828     		cmp	r0, #24
 243 000e 04D9     		bls	.L27
 187:.\Generated_Source\PSoC4/CyFlash.c ****             }
 188:.\Generated_Source\PSoC4/CyFlash.c ****             else
 189:.\Generated_Source\PSoC4/CyFlash.c ****             {
 190:.\Generated_Source\PSoC4/CyFlash.c ****                 CY_SYS_CLK_SELECT_REG |= CY_FLASH_WAIT_STATE_EN;
 244              		.loc 1 190 0
 245 0010 8022     		mov	r2, #128
 246 0012 D002     		lsl	r0, r2, #11
 247              	.LVL21:
 248 0014 0843     		orr	r0, r1
 249 0016 1860     		str	r0, [r3]
ARM GAS  C:\Users\Steve\AppData\Local\Temp\ccbnCQNa.s 			page 9


 250              	.L23:
 191:.\Generated_Source\PSoC4/CyFlash.c ****             }
 192:.\Generated_Source\PSoC4/CyFlash.c ****         }
 193:.\Generated_Source\PSoC4/CyFlash.c ****         else
 194:.\Generated_Source\PSoC4/CyFlash.c ****         {
 195:.\Generated_Source\PSoC4/CyFlash.c ****             /* Halt CPU in debug mode if frequency is invalid */
 196:.\Generated_Source\PSoC4/CyFlash.c ****             CYASSERT(0u != 0u);
 197:.\Generated_Source\PSoC4/CyFlash.c ****         }
 198:.\Generated_Source\PSoC4/CyFlash.c ****     }
 251              		.loc 1 198 0
 252              		@ sp needed for prologue
 253 0018 08BD     		pop	{r3, pc}
 254              	.LVL22:
 255              	.L27:
 186:.\Generated_Source\PSoC4/CyFlash.c ****                 CY_SYS_CLK_SELECT_REG &= (uint32)(~CY_FLASH_WAIT_STATE_EN);
 256              		.loc 1 186 0
 257 001a 054A     		ldr	r2, .L28+4
 258 001c 0A40     		and	r2, r1
 259 001e 1A60     		str	r2, [r3]
 260 0020 FAE7     		b	.L23
 261              	.L24:
 196:.\Generated_Source\PSoC4/CyFlash.c ****             CYASSERT(0u != 0u);
 262              		.loc 1 196 0 discriminator 1
 263 0022 0020     		mov	r0, #0
 264              	.LVL23:
 265 0024 FFF7FEFF 		bl	CyHalt
 266              	.LVL24:
 267 0028 F6E7     		b	.L23
 268              	.L29:
 269 002a C046     		.align	2
 270              	.L28:
 271 002c 00010B40 		.word	1074462976
 272 0030 FFFFFBFF 		.word	-262145
 273              		.cfi_endproc
 274              	.LFE1:
 275              		.size	CySysFlashSetWaitCycles, .-CySysFlashSetWaitCycles
 276              		.text
 277              	.Letext0:
 278              		.file 2 ".\\Generated_Source\\PSoC4\\cytypes.h"
 279              		.file 3 ".\\Generated_Source\\PSoC4\\CyLib.h"