ARM GAS  C:\Users\Steve\AppData\Local\Temp\ccc4U1xk.s 			page 1


   1              		.cpu cortex-m0
   2              		.fpu softvfp
   3              		.eabi_attribute 20, 1
   4              		.eabi_attribute 21, 1
   5              		.eabi_attribute 23, 3
   6              		.eabi_attribute 24, 1
   7              		.eabi_attribute 25, 1
   8              		.eabi_attribute 26, 1
   9              		.eabi_attribute 30, 2
  10              		.eabi_attribute 34, 0
  11              		.eabi_attribute 18, 4
  12              		.code	16
  13              		.file	"CyLib.c"
  14              		.text
  15              	.Ltext0:
  16              		.cfi_sections	.debug_frame
  17              		.section	.text.CySysClkImoStart,"ax",%progbits
  18              		.align	2
  19              		.global	CySysClkImoStart
  20              		.code	16
  21              		.thumb_func
  22              		.type	CySysClkImoStart, %function
  23              	CySysClkImoStart:
  24              	.LFB0:
  25              		.file 1 ".\\Generated_Source\\PSoC4\\CyLib.c"
   1:.\Generated_Source\PSoC4/CyLib.c **** /*******************************************************************************
   2:.\Generated_Source\PSoC4/CyLib.c **** * File Name: CyLib.c
   3:.\Generated_Source\PSoC4/CyLib.c **** * Version 4.0
   4:.\Generated_Source\PSoC4/CyLib.c **** *
   5:.\Generated_Source\PSoC4/CyLib.c **** *  Description:
   6:.\Generated_Source\PSoC4/CyLib.c **** *   Provides system API for the clocking, interrupts and watchdog timer.
   7:.\Generated_Source\PSoC4/CyLib.c **** *
   8:.\Generated_Source\PSoC4/CyLib.c **** *  Note:
   9:.\Generated_Source\PSoC4/CyLib.c **** *   Documentation of the API's in this file is located in the
  10:.\Generated_Source\PSoC4/CyLib.c **** *   System Reference Guide provided with PSoC Creator.
  11:.\Generated_Source\PSoC4/CyLib.c **** *
  12:.\Generated_Source\PSoC4/CyLib.c **** ********************************************************************************
  13:.\Generated_Source\PSoC4/CyLib.c **** * Copyright 2010-2013, Cypress Semiconductor Corporation.  All rights reserved.
  14:.\Generated_Source\PSoC4/CyLib.c **** * You may use this file only in accordance with the license, terms, conditions,
  15:.\Generated_Source\PSoC4/CyLib.c **** * disclaimers, and limitations in the end user license agreement accompanying
  16:.\Generated_Source\PSoC4/CyLib.c **** * the software package with which this file was provided.
  17:.\Generated_Source\PSoC4/CyLib.c **** *******************************************************************************/
  18:.\Generated_Source\PSoC4/CyLib.c **** 
  19:.\Generated_Source\PSoC4/CyLib.c **** #include "CyLib.h"
  20:.\Generated_Source\PSoC4/CyLib.c **** 
  21:.\Generated_Source\PSoC4/CyLib.c **** 
  22:.\Generated_Source\PSoC4/CyLib.c **** /* Do not use these definitions directly in your application */
  23:.\Generated_Source\PSoC4/CyLib.c **** uint32 cydelayFreqHz  = CYDEV_BCLK__SYSCLK__HZ;
  24:.\Generated_Source\PSoC4/CyLib.c **** uint32 cydelayFreqKhz = (CYDEV_BCLK__SYSCLK__HZ + CY_DELAY_1K_MINUS_1_THRESHOLD) / CY_DELAY_1K_THRE
  25:.\Generated_Source\PSoC4/CyLib.c **** uint8  cydelayFreqMhz = (uint8)((CYDEV_BCLK__SYSCLK__HZ + CY_DELAY_1M_MINUS_1_THRESHOLD) / CY_DELAY
  26:.\Generated_Source\PSoC4/CyLib.c **** uint32 cydelay32kMs   = CY_DELAY_MS_OVERFLOW * ((CYDEV_BCLK__SYSCLK__HZ + CY_DELAY_1K_MINUS_1_THRES
  27:.\Generated_Source\PSoC4/CyLib.c ****                         CY_DELAY_1K_THRESHOLD);
  28:.\Generated_Source\PSoC4/CyLib.c **** 
  29:.\Generated_Source\PSoC4/CyLib.c **** 
  30:.\Generated_Source\PSoC4/CyLib.c **** /*******************************************************************************
  31:.\Generated_Source\PSoC4/CyLib.c **** * Function Name: CySysClkImoStart
  32:.\Generated_Source\PSoC4/CyLib.c **** ********************************************************************************
ARM GAS  C:\Users\Steve\AppData\Local\Temp\ccc4U1xk.s 			page 2


  33:.\Generated_Source\PSoC4/CyLib.c **** *
  34:.\Generated_Source\PSoC4/CyLib.c **** * Summary:
  35:.\Generated_Source\PSoC4/CyLib.c **** *  Enables the IMO.
  36:.\Generated_Source\PSoC4/CyLib.c **** *
  37:.\Generated_Source\PSoC4/CyLib.c **** * Parameters:
  38:.\Generated_Source\PSoC4/CyLib.c **** *  None
  39:.\Generated_Source\PSoC4/CyLib.c **** *
  40:.\Generated_Source\PSoC4/CyLib.c **** * Return:
  41:.\Generated_Source\PSoC4/CyLib.c **** *  None
  42:.\Generated_Source\PSoC4/CyLib.c **** *
  43:.\Generated_Source\PSoC4/CyLib.c **** *******************************************************************************/
  44:.\Generated_Source\PSoC4/CyLib.c **** void CySysClkImoStart(void)
  45:.\Generated_Source\PSoC4/CyLib.c **** {
  26              		.loc 1 45 0
  27              		.cfi_startproc
  46:.\Generated_Source\PSoC4/CyLib.c ****     CY_SYS_CLK_IMO_CONFIG_REG |= CY_SYS_CLK_IMO_CONFIG_ENABLE;
  28              		.loc 1 46 0
  29 0000 034B     		ldr	r3, .L2
  30 0002 8022     		mov	r2, #128
  31 0004 1968     		ldr	r1, [r3]
  32 0006 1006     		lsl	r0, r2, #24
  33 0008 0843     		orr	r0, r1
  34 000a 1860     		str	r0, [r3]
  47:.\Generated_Source\PSoC4/CyLib.c **** }
  35              		.loc 1 47 0
  36              		@ sp needed for prologue
  37 000c 7047     		bx	lr
  38              	.L3:
  39 000e C046     		.align	2
  40              	.L2:
  41 0010 08010B40 		.word	1074462984
  42              		.cfi_endproc
  43              	.LFE0:
  44              		.size	CySysClkImoStart, .-CySysClkImoStart
  45              		.section	.text.CySysClkImoStop,"ax",%progbits
  46              		.align	2
  47              		.global	CySysClkImoStop
  48              		.code	16
  49              		.thumb_func
  50              		.type	CySysClkImoStop, %function
  51              	CySysClkImoStop:
  52              	.LFB1:
  48:.\Generated_Source\PSoC4/CyLib.c **** 
  49:.\Generated_Source\PSoC4/CyLib.c **** 
  50:.\Generated_Source\PSoC4/CyLib.c **** /*******************************************************************************
  51:.\Generated_Source\PSoC4/CyLib.c **** * Function Name: CySysClkImoStop
  52:.\Generated_Source\PSoC4/CyLib.c **** ********************************************************************************
  53:.\Generated_Source\PSoC4/CyLib.c **** *
  54:.\Generated_Source\PSoC4/CyLib.c **** * Summary:
  55:.\Generated_Source\PSoC4/CyLib.c **** *  Disables the IMO.
  56:.\Generated_Source\PSoC4/CyLib.c **** *
  57:.\Generated_Source\PSoC4/CyLib.c **** * Parameters:
  58:.\Generated_Source\PSoC4/CyLib.c **** *  None
  59:.\Generated_Source\PSoC4/CyLib.c **** *
  60:.\Generated_Source\PSoC4/CyLib.c **** * Return:
  61:.\Generated_Source\PSoC4/CyLib.c **** *  None
  62:.\Generated_Source\PSoC4/CyLib.c **** *
ARM GAS  C:\Users\Steve\AppData\Local\Temp\ccc4U1xk.s 			page 3


  63:.\Generated_Source\PSoC4/CyLib.c **** *******************************************************************************/
  64:.\Generated_Source\PSoC4/CyLib.c **** void CySysClkImoStop(void)
  65:.\Generated_Source\PSoC4/CyLib.c **** {
  53              		.loc 1 65 0
  54              		.cfi_startproc
  66:.\Generated_Source\PSoC4/CyLib.c ****     CY_SYS_CLK_IMO_CONFIG_REG &= ( uint32 ) ( ~( uint32 )CY_SYS_CLK_IMO_CONFIG_ENABLE);
  55              		.loc 1 66 0
  56 0000 024B     		ldr	r3, .L5
  67:.\Generated_Source\PSoC4/CyLib.c **** }
  57              		.loc 1 67 0
  58              		@ sp needed for prologue
  66:.\Generated_Source\PSoC4/CyLib.c ****     CY_SYS_CLK_IMO_CONFIG_REG &= ( uint32 ) ( ~( uint32 )CY_SYS_CLK_IMO_CONFIG_ENABLE);
  59              		.loc 1 66 0
  60 0002 1A68     		ldr	r2, [r3]
  61 0004 5000     		lsl	r0, r2, #1
  62 0006 4108     		lsr	r1, r0, #1
  63 0008 1960     		str	r1, [r3]
  64              		.loc 1 67 0
  65 000a 7047     		bx	lr
  66              	.L6:
  67              		.align	2
  68              	.L5:
  69 000c 08010B40 		.word	1074462984
  70              		.cfi_endproc
  71              	.LFE1:
  72              		.size	CySysClkImoStop, .-CySysClkImoStop
  73              		.section	.text.CySysClkIloStart,"ax",%progbits
  74              		.align	2
  75              		.global	CySysClkIloStart
  76              		.code	16
  77              		.thumb_func
  78              		.type	CySysClkIloStart, %function
  79              	CySysClkIloStart:
  80              	.LFB2:
  68:.\Generated_Source\PSoC4/CyLib.c **** 
  69:.\Generated_Source\PSoC4/CyLib.c **** 
  70:.\Generated_Source\PSoC4/CyLib.c **** /*******************************************************************************
  71:.\Generated_Source\PSoC4/CyLib.c **** * Function Name: CySysClkIloStart
  72:.\Generated_Source\PSoC4/CyLib.c **** ********************************************************************************
  73:.\Generated_Source\PSoC4/CyLib.c **** *
  74:.\Generated_Source\PSoC4/CyLib.c **** * Summary:
  75:.\Generated_Source\PSoC4/CyLib.c **** *  Enables the ILO.
  76:.\Generated_Source\PSoC4/CyLib.c **** *
  77:.\Generated_Source\PSoC4/CyLib.c **** * Parameters:
  78:.\Generated_Source\PSoC4/CyLib.c **** *  None
  79:.\Generated_Source\PSoC4/CyLib.c **** *
  80:.\Generated_Source\PSoC4/CyLib.c **** * Return:
  81:.\Generated_Source\PSoC4/CyLib.c **** *  None
  82:.\Generated_Source\PSoC4/CyLib.c **** *
  83:.\Generated_Source\PSoC4/CyLib.c **** *******************************************************************************/
  84:.\Generated_Source\PSoC4/CyLib.c **** void CySysClkIloStart(void)
  85:.\Generated_Source\PSoC4/CyLib.c **** {
  81              		.loc 1 85 0
  82              		.cfi_startproc
  86:.\Generated_Source\PSoC4/CyLib.c ****     CY_SYS_CLK_ILO_CONFIG_REG |= CY_SYS_CLK_ILO_CONFIG_ENABLE;
  83              		.loc 1 86 0
  84 0000 034B     		ldr	r3, .L8
ARM GAS  C:\Users\Steve\AppData\Local\Temp\ccc4U1xk.s 			page 4


  85 0002 8022     		mov	r2, #128
  86 0004 1968     		ldr	r1, [r3]
  87 0006 1006     		lsl	r0, r2, #24
  88 0008 0843     		orr	r0, r1
  89 000a 1860     		str	r0, [r3]
  87:.\Generated_Source\PSoC4/CyLib.c **** }
  90              		.loc 1 87 0
  91              		@ sp needed for prologue
  92 000c 7047     		bx	lr
  93              	.L9:
  94 000e C046     		.align	2
  95              	.L8:
  96 0010 04010B40 		.word	1074462980
  97              		.cfi_endproc
  98              	.LFE2:
  99              		.size	CySysClkIloStart, .-CySysClkIloStart
 100              		.section	.text.CySysClkIloStop,"ax",%progbits
 101              		.align	2
 102              		.global	CySysClkIloStop
 103              		.code	16
 104              		.thumb_func
 105              		.type	CySysClkIloStop, %function
 106              	CySysClkIloStop:
 107              	.LFB3:
  88:.\Generated_Source\PSoC4/CyLib.c **** 
  89:.\Generated_Source\PSoC4/CyLib.c **** 
  90:.\Generated_Source\PSoC4/CyLib.c **** /*******************************************************************************
  91:.\Generated_Source\PSoC4/CyLib.c **** * Function Name: CySysClkIloStop
  92:.\Generated_Source\PSoC4/CyLib.c **** ********************************************************************************
  93:.\Generated_Source\PSoC4/CyLib.c **** *
  94:.\Generated_Source\PSoC4/CyLib.c **** * Summary:
  95:.\Generated_Source\PSoC4/CyLib.c **** *  Disables the ILO.
  96:.\Generated_Source\PSoC4/CyLib.c **** *
  97:.\Generated_Source\PSoC4/CyLib.c **** * Parameters:
  98:.\Generated_Source\PSoC4/CyLib.c **** *  None
  99:.\Generated_Source\PSoC4/CyLib.c **** *
 100:.\Generated_Source\PSoC4/CyLib.c **** * Return:
 101:.\Generated_Source\PSoC4/CyLib.c **** *  None
 102:.\Generated_Source\PSoC4/CyLib.c **** *
 103:.\Generated_Source\PSoC4/CyLib.c **** * Side Effects:
 104:.\Generated_Source\PSoC4/CyLib.c **** *  This function will have no effect if WDT is locked (CySysWdtLock() is
 105:.\Generated_Source\PSoC4/CyLib.c **** *  called). Call CySysWdtUnlock() to unlock WDT and be able to stop ILO.
 106:.\Generated_Source\PSoC4/CyLib.c **** *  Note that ILO is required for WDT's operation.
 107:.\Generated_Source\PSoC4/CyLib.c **** *
 108:.\Generated_Source\PSoC4/CyLib.c **** *******************************************************************************/
 109:.\Generated_Source\PSoC4/CyLib.c **** void CySysClkIloStop(void)
 110:.\Generated_Source\PSoC4/CyLib.c **** {
 108              		.loc 1 110 0
 109              		.cfi_startproc
 111:.\Generated_Source\PSoC4/CyLib.c ****     CY_SYS_CLK_ILO_CONFIG_REG &= ( uint32 ) ( ~( uint32 )CY_SYS_CLK_ILO_CONFIG_ENABLE);
 110              		.loc 1 111 0
 111 0000 024B     		ldr	r3, .L11
 112:.\Generated_Source\PSoC4/CyLib.c **** }
 112              		.loc 1 112 0
 113              		@ sp needed for prologue
 111:.\Generated_Source\PSoC4/CyLib.c ****     CY_SYS_CLK_ILO_CONFIG_REG &= ( uint32 ) ( ~( uint32 )CY_SYS_CLK_ILO_CONFIG_ENABLE);
 114              		.loc 1 111 0
ARM GAS  C:\Users\Steve\AppData\Local\Temp\ccc4U1xk.s 			page 5


 115 0002 1A68     		ldr	r2, [r3]
 116 0004 5000     		lsl	r0, r2, #1
 117 0006 4108     		lsr	r1, r0, #1
 118 0008 1960     		str	r1, [r3]
 119              		.loc 1 112 0
 120 000a 7047     		bx	lr
 121              	.L12:
 122              		.align	2
 123              	.L11:
 124 000c 04010B40 		.word	1074462980
 125              		.cfi_endproc
 126              	.LFE3:
 127              		.size	CySysClkIloStop, .-CySysClkIloStop
 128              		.section	.text.CySysClkWriteHfclkDirect,"ax",%progbits
 129              		.align	2
 130              		.global	CySysClkWriteHfclkDirect
 131              		.code	16
 132              		.thumb_func
 133              		.type	CySysClkWriteHfclkDirect, %function
 134              	CySysClkWriteHfclkDirect:
 135              	.LFB4:
 113:.\Generated_Source\PSoC4/CyLib.c **** 
 114:.\Generated_Source\PSoC4/CyLib.c **** 
 115:.\Generated_Source\PSoC4/CyLib.c **** #if(CY_PSOC4A)
 116:.\Generated_Source\PSoC4/CyLib.c **** 
 117:.\Generated_Source\PSoC4/CyLib.c ****     /*******************************************************************************
 118:.\Generated_Source\PSoC4/CyLib.c ****     * Function Name: CySysClkWriteHfclkDirect
 119:.\Generated_Source\PSoC4/CyLib.c ****     ********************************************************************************
 120:.\Generated_Source\PSoC4/CyLib.c ****     *
 121:.\Generated_Source\PSoC4/CyLib.c ****     * Summary:
 122:.\Generated_Source\PSoC4/CyLib.c ****     *  Selects the direct source for the HFCLK.
 123:.\Generated_Source\PSoC4/CyLib.c ****     *
 124:.\Generated_Source\PSoC4/CyLib.c ****     * Parameters:
 125:.\Generated_Source\PSoC4/CyLib.c ****     *  clkSelect: One of the available HFCLK direct sources:
 126:.\Generated_Source\PSoC4/CyLib.c ****     *   Value        Define                    Source
 127:.\Generated_Source\PSoC4/CyLib.c ****     *    0            CY_SYS_CLK_HFCLK_IMO      IMO
 128:.\Generated_Source\PSoC4/CyLib.c ****     *    1            CY_SYS_CLK_HFCLK_EXTCLK   External clock pin
 129:.\Generated_Source\PSoC4/CyLib.c ****     *
 130:.\Generated_Source\PSoC4/CyLib.c ****     * Return:
 131:.\Generated_Source\PSoC4/CyLib.c ****     *  None
 132:.\Generated_Source\PSoC4/CyLib.c ****     *
 133:.\Generated_Source\PSoC4/CyLib.c ****     * Side Effects:
 134:.\Generated_Source\PSoC4/CyLib.c ****     *  The new source must be running and stable before calling this function.
 135:.\Generated_Source\PSoC4/CyLib.c ****     *  Direct source is default option for HFCLK.
 136:.\Generated_Source\PSoC4/CyLib.c ****     *
 137:.\Generated_Source\PSoC4/CyLib.c ****     *  If the SYSCLK clock frequency increases during device operation, call
 138:.\Generated_Source\PSoC4/CyLib.c ****     *  CySysFlashSetWaitCycles() with the appropriate parameter to adjust the number
 139:.\Generated_Source\PSoC4/CyLib.c ****     *  of clock cycles cache will wait before sampling data coming back from Flash.
 140:.\Generated_Source\PSoC4/CyLib.c ****     *  If the SYSCLK clock frequency decreases, you can call CyFlash_SetWaitCycles()
 141:.\Generated_Source\PSoC4/CyLib.c ****     *  to improve CPU performance. See CySysFlashSetWaitCycles() for more
 142:.\Generated_Source\PSoC4/CyLib.c ****     *  information.
 143:.\Generated_Source\PSoC4/CyLib.c ****     *
 144:.\Generated_Source\PSoC4/CyLib.c ****     *******************************************************************************/
 145:.\Generated_Source\PSoC4/CyLib.c ****     void CySysClkWriteHfclkDirect(uint32 clkSelect)
 146:.\Generated_Source\PSoC4/CyLib.c ****     {
 136              		.loc 1 146 0
 137              		.cfi_startproc
ARM GAS  C:\Users\Steve\AppData\Local\Temp\ccc4U1xk.s 			page 6


 138              	.LVL0:
 147:.\Generated_Source\PSoC4/CyLib.c ****         CY_SYS_CLK_SELECT_REG = ((CY_SYS_CLK_SELECT_REG & (( uint32 ) ~(( uint32 )CY_SYS_CLK_SELECT
 139              		.loc 1 147 0
 140 0000 044B     		ldr	r3, .L14
 148:.\Generated_Source\PSoC4/CyLib.c ****                             (( uint32 ) ( ( uint32 )clkSelect & ( uint32 )CY_SYS_CLK_SELECT_DIRECT_
 141              		.loc 1 148 0
 142 0002 0121     		mov	r1, #1
 147:.\Generated_Source\PSoC4/CyLib.c ****         CY_SYS_CLK_SELECT_REG = ((CY_SYS_CLK_SELECT_REG & (( uint32 ) ~(( uint32 )CY_SYS_CLK_SELECT
 143              		.loc 1 147 0
 144 0004 1A68     		ldr	r2, [r3]
 145              		.loc 1 148 0
 146 0006 0840     		and	r0, r1
 147              	.LVL1:
 147:.\Generated_Source\PSoC4/CyLib.c ****         CY_SYS_CLK_SELECT_REG = ((CY_SYS_CLK_SELECT_REG & (( uint32 ) ~(( uint32 )CY_SYS_CLK_SELECT
 148              		.loc 1 147 0
 149 0008 0721     		mov	r1, #7
 150 000a 8A43     		bic	r2, r1
 151 000c 1043     		orr	r0, r2
 152 000e 1860     		str	r0, [r3]
 149:.\Generated_Source\PSoC4/CyLib.c ****     }
 153              		.loc 1 149 0
 154              		@ sp needed for prologue
 155 0010 7047     		bx	lr
 156              	.L15:
 157 0012 C046     		.align	2
 158              	.L14:
 159 0014 00010B40 		.word	1074462976
 160              		.cfi_endproc
 161              	.LFE4:
 162              		.size	CySysClkWriteHfclkDirect, .-CySysClkWriteHfclkDirect
 163              		.section	.text.CySysClkWriteSysclkDiv,"ax",%progbits
 164              		.align	2
 165              		.global	CySysClkWriteSysclkDiv
 166              		.code	16
 167              		.thumb_func
 168              		.type	CySysClkWriteSysclkDiv, %function
 169              	CySysClkWriteSysclkDiv:
 170              	.LFB5:
 150:.\Generated_Source\PSoC4/CyLib.c **** 
 151:.\Generated_Source\PSoC4/CyLib.c **** 
 152:.\Generated_Source\PSoC4/CyLib.c ****     /*******************************************************************************
 153:.\Generated_Source\PSoC4/CyLib.c ****     * Function Name: CySysClkWriteSysclkDiv
 154:.\Generated_Source\PSoC4/CyLib.c ****     ********************************************************************************
 155:.\Generated_Source\PSoC4/CyLib.c ****     *
 156:.\Generated_Source\PSoC4/CyLib.c ****     * Summary:
 157:.\Generated_Source\PSoC4/CyLib.c ****     *  Selects SYSCLK from HFCLK pre-scaler value.
 158:.\Generated_Source\PSoC4/CyLib.c ****     *
 159:.\Generated_Source\PSoC4/CyLib.c ****     * Parameters:
 160:.\Generated_Source\PSoC4/CyLib.c ****     *  divider: Power of 2 prescaler selection
 161:.\Generated_Source\PSoC4/CyLib.c ****     *
 162:.\Generated_Source\PSoC4/CyLib.c ****     *   Define                        Description
 163:.\Generated_Source\PSoC4/CyLib.c ****     *   CY_SYS_CLK_SYSCLK_DIV1        SYSCLK = HFCLK / 1
 164:.\Generated_Source\PSoC4/CyLib.c ****     *   CY_SYS_CLK_SYSCLK_DIV2        SYSCLK = HFCLK / 2
 165:.\Generated_Source\PSoC4/CyLib.c ****     *   CY_SYS_CLK_SYSCLK_DIV4        SYSCLK = HFCLK / 4
 166:.\Generated_Source\PSoC4/CyLib.c ****     *   CY_SYS_CLK_SYSCLK_DIV8        SYSCLK = HFCLK / 8
 167:.\Generated_Source\PSoC4/CyLib.c ****     *   CY_SYS_CLK_SYSCLK_DIV16       SYSCLK = HFCLK / 16
 168:.\Generated_Source\PSoC4/CyLib.c ****     *   CY_SYS_CLK_SYSCLK_DIV32       SYSCLK = HFCLK / 32
ARM GAS  C:\Users\Steve\AppData\Local\Temp\ccc4U1xk.s 			page 7


 169:.\Generated_Source\PSoC4/CyLib.c ****     *   CY_SYS_CLK_SYSCLK_DIV64       SYSCLK = HFCLK / 64
 170:.\Generated_Source\PSoC4/CyLib.c ****     *   CY_SYS_CLK_SYSCLK_DIV128      SYSCLK = HFCLK / 128
 171:.\Generated_Source\PSoC4/CyLib.c ****     *
 172:.\Generated_Source\PSoC4/CyLib.c ****     * Return:
 173:.\Generated_Source\PSoC4/CyLib.c ****     *  None
 174:.\Generated_Source\PSoC4/CyLib.c ****     *
 175:.\Generated_Source\PSoC4/CyLib.c ****     * Side Effects:
 176:.\Generated_Source\PSoC4/CyLib.c ****     *  If the SYSCLK clock frequency increases during device operation, call
 177:.\Generated_Source\PSoC4/CyLib.c ****     *  CySysFlashSetWaitCycles() with the appropriate parameter to adjust the number
 178:.\Generated_Source\PSoC4/CyLib.c ****     *  of clock cycles cache will wait before sampling data coming back from Flash.
 179:.\Generated_Source\PSoC4/CyLib.c ****     *  If the SYSCLK clock frequency decreases, you can call CyFlash_SetWaitCycles()
 180:.\Generated_Source\PSoC4/CyLib.c ****     *  to improve CPU performance. See CySysFlashSetWaitCycles() for more
 181:.\Generated_Source\PSoC4/CyLib.c ****     *  information.
 182:.\Generated_Source\PSoC4/CyLib.c ****     *
 183:.\Generated_Source\PSoC4/CyLib.c ****     *******************************************************************************/
 184:.\Generated_Source\PSoC4/CyLib.c ****     void CySysClkWriteSysclkDiv(uint32 divider)
 185:.\Generated_Source\PSoC4/CyLib.c ****     {
 171              		.loc 1 185 0
 172              		.cfi_startproc
 173              	.LVL2:
 186:.\Generated_Source\PSoC4/CyLib.c ****         CY_SYS_CLK_SELECT_REG = ((uint32)(((uint32)divider & CY_SYS_CLK_SELECT_SYSCLK_DIV_MASK) <<
 187:.\Generated_Source\PSoC4/CyLib.c ****                                         CY_SYS_CLK_SELECT_SYSCLK_DIV_SHIFT)) |
 188:.\Generated_Source\PSoC4/CyLib.c ****                                 (CY_SYS_CLK_SELECT_REG & ((uint32)(~(uint32)(CY_SYS_CLK_SELECT_SYSC
 174              		.loc 1 188 0
 175 0000 054B     		ldr	r3, .L17
 185:.\Generated_Source\PSoC4/CyLib.c ****     {
 176              		.loc 1 185 0
 177 0002 10B5     		push	{r4, lr}
 178              	.LCFI0:
 179              		.cfi_def_cfa_offset 8
 180              		.cfi_offset 4, -8
 181              		.cfi_offset 14, -4
 186:.\Generated_Source\PSoC4/CyLib.c ****         CY_SYS_CLK_SELECT_REG = ((uint32)(((uint32)divider & CY_SYS_CLK_SELECT_SYSCLK_DIV_MASK) <<
 182              		.loc 1 186 0
 183 0004 0722     		mov	r2, #7
 184              		.loc 1 188 0
 185 0006 1C68     		ldr	r4, [r3]
 186:.\Generated_Source\PSoC4/CyLib.c ****         CY_SYS_CLK_SELECT_REG = ((uint32)(((uint32)divider & CY_SYS_CLK_SELECT_SYSCLK_DIV_MASK) <<
 186              		.loc 1 186 0
 187 0008 1040     		and	r0, r2
 188              	.LVL3:
 189              		.loc 1 188 0
 190 000a 0449     		ldr	r1, .L17+4
 186:.\Generated_Source\PSoC4/CyLib.c ****         CY_SYS_CLK_SELECT_REG = ((uint32)(((uint32)divider & CY_SYS_CLK_SELECT_SYSCLK_DIV_MASK) <<
 191              		.loc 1 186 0
 192 000c C204     		lsl	r2, r0, #19
 193              		.loc 1 188 0
 194 000e 201C     		mov	r0, r4
 195 0010 0840     		and	r0, r1
 187:.\Generated_Source\PSoC4/CyLib.c ****                                         CY_SYS_CLK_SELECT_SYSCLK_DIV_SHIFT)) |
 196              		.loc 1 187 0
 197 0012 1043     		orr	r0, r2
 186:.\Generated_Source\PSoC4/CyLib.c ****         CY_SYS_CLK_SELECT_REG = ((uint32)(((uint32)divider & CY_SYS_CLK_SELECT_SYSCLK_DIV_MASK) <<
 198              		.loc 1 186 0
 199 0014 1860     		str	r0, [r3]
 189:.\Generated_Source\PSoC4/CyLib.c ****                                         CY_SYS_CLK_SELECT_SYSCLK_DIV_SHIFT))));
 190:.\Generated_Source\PSoC4/CyLib.c ****     }
ARM GAS  C:\Users\Steve\AppData\Local\Temp\ccc4U1xk.s 			page 8


 200              		.loc 1 190 0
 201              		@ sp needed for prologue
 202 0016 10BD     		pop	{r4, pc}
 203              	.L18:
 204              		.align	2
 205              	.L17:
 206 0018 00010B40 		.word	1074462976
 207 001c FFFFC7FF 		.word	-3670017
 208              		.cfi_endproc
 209              	.LFE5:
 210              		.size	CySysClkWriteSysclkDiv, .-CySysClkWriteSysclkDiv
 211              		.section	.text.CySysWdtLock,"ax",%progbits
 212              		.align	2
 213              		.global	CySysWdtLock
 214              		.code	16
 215              		.thumb_func
 216              		.type	CySysWdtLock, %function
 217              	CySysWdtLock:
 218              	.LFB7:
 191:.\Generated_Source\PSoC4/CyLib.c **** 
 192:.\Generated_Source\PSoC4/CyLib.c **** 
 193:.\Generated_Source\PSoC4/CyLib.c ****     /*******************************************************************************
 194:.\Generated_Source\PSoC4/CyLib.c ****     * Function Name: CySysClkWriteImoFreq
 195:.\Generated_Source\PSoC4/CyLib.c ****     ********************************************************************************
 196:.\Generated_Source\PSoC4/CyLib.c ****     *
 197:.\Generated_Source\PSoC4/CyLib.c ****     * Summary:
 198:.\Generated_Source\PSoC4/CyLib.c ****     *  Sets the frequency of the IMO.
 199:.\Generated_Source\PSoC4/CyLib.c ****     *
 200:.\Generated_Source\PSoC4/CyLib.c ****     * Parameters:
 201:.\Generated_Source\PSoC4/CyLib.c ****     *  freq: Valid range [3-48].  Frequency for operation of the IMO.
 202:.\Generated_Source\PSoC4/CyLib.c ****     *  Note: Invalid frequency will be ignored.
 203:.\Generated_Source\PSoC4/CyLib.c ****     *
 204:.\Generated_Source\PSoC4/CyLib.c ****     * Return:
 205:.\Generated_Source\PSoC4/CyLib.c ****     *  None
 206:.\Generated_Source\PSoC4/CyLib.c ****     *
 207:.\Generated_Source\PSoC4/CyLib.c ****     * Side Effects:
 208:.\Generated_Source\PSoC4/CyLib.c ****     *  If the SYSCLK clock frequency increases during device operation, call
 209:.\Generated_Source\PSoC4/CyLib.c ****     *  CySysFlashSetWaitCycles() with the appropriate parameter to adjust the number
 210:.\Generated_Source\PSoC4/CyLib.c ****     *  of clock cycles cache will wait before sampling data coming back from Flash.
 211:.\Generated_Source\PSoC4/CyLib.c ****     *  If the SYSCLK clock frequency decreases, you can call CyFlash_SetWaitCycles()
 212:.\Generated_Source\PSoC4/CyLib.c ****     *  to improve CPU performance. See CySysFlashSetWaitCycles() for more
 213:.\Generated_Source\PSoC4/CyLib.c ****     *  information.
 214:.\Generated_Source\PSoC4/CyLib.c ****     *
 215:.\Generated_Source\PSoC4/CyLib.c ****     *******************************************************************************/
 216:.\Generated_Source\PSoC4/CyLib.c ****     void CySysClkWriteImoFreq(uint32 freq)
 217:.\Generated_Source\PSoC4/CyLib.c ****     {
 218:.\Generated_Source\PSoC4/CyLib.c ****         uint8  bgTrim4;
 219:.\Generated_Source\PSoC4/CyLib.c ****         uint8  bgTrim5;
 220:.\Generated_Source\PSoC4/CyLib.c ****         uint32 currentFreq = CY_SYS_CLK_IMO_MAX_FREQ_MHZ;
 221:.\Generated_Source\PSoC4/CyLib.c ****         uint8  interruptState;
 222:.\Generated_Source\PSoC4/CyLib.c ****         uint32 i;
 223:.\Generated_Source\PSoC4/CyLib.c **** 
 224:.\Generated_Source\PSoC4/CyLib.c ****         /* Convertion between CySysClkWriteImoFreq() parameter and register's value */
 225:.\Generated_Source\PSoC4/CyLib.c ****         static const uint8 cyImoFreqMhz2Reg[CY_SYS_CLK_IMO_FREQ_TABLE_SIZE] = {
 226:.\Generated_Source\PSoC4/CyLib.c ****             /*  3 MHz */ 0x03u,  /*  4 MHz */ 0x04u,  /*  5 MHz */ 0x05u,  /*  6 MHz */ 0x06u,
 227:.\Generated_Source\PSoC4/CyLib.c ****             /*  7 MHz */ 0x07u,  /*  8 MHz */ 0x08u,  /*  9 MHz */ 0x09u,  /* 10 MHz */ 0x0Au,
 228:.\Generated_Source\PSoC4/CyLib.c ****             /* 11 MHz */ 0x0Bu,  /* 12 MHz */ 0x0Cu,  /* 13 MHz */ 0x0Eu,  /* 14 MHz */ 0x0Fu,
ARM GAS  C:\Users\Steve\AppData\Local\Temp\ccc4U1xk.s 			page 9


 229:.\Generated_Source\PSoC4/CyLib.c ****             /* 15 MHz */ 0x10u,  /* 16 MHz */ 0x11u,  /* 17 MHz */ 0x12u,  /* 18 MHz */ 0x13u,
 230:.\Generated_Source\PSoC4/CyLib.c ****             /* 19 MHz */ 0x14u,  /* 20 MHz */ 0x15u,  /* 21 MHz */ 0x16u,  /* 22 MHz */ 0x17u,
 231:.\Generated_Source\PSoC4/CyLib.c ****             /* 23 MHz */ 0x18u,  /* 24 MHz */ 0x19u,  /* 25 MHz */ 0x1Bu,  /* 26 MHz */ 0x1Cu,
 232:.\Generated_Source\PSoC4/CyLib.c ****             /* 27 MHz */ 0x1Du,  /* 28 MHz */ 0x1Eu,  /* 29 MHz */ 0x1Fu,  /* 30 MHz */ 0x20u,
 233:.\Generated_Source\PSoC4/CyLib.c ****             /* 31 MHz */ 0x21u,  /* 32 MHz */ 0x22u,  /* 33 MHz */ 0x23u,  /* 34 MHz */ 0x25u,
 234:.\Generated_Source\PSoC4/CyLib.c ****             /* 35 MHz */ 0x26u,  /* 36 MHz */ 0x27u,  /* 37 MHz */ 0x28u,  /* 38 MHz */ 0x29u,
 235:.\Generated_Source\PSoC4/CyLib.c ****             /* 39 MHz */ 0x2Au,  /* 40 MHz */ 0x2Bu,  /* 41 MHz */ 0x2Eu,  /* 42 MHz */ 0x2Fu,
 236:.\Generated_Source\PSoC4/CyLib.c ****             /* 43 MHz */ 0x30u,  /* 44 MHz */ 0x31u,  /* 45 MHz */ 0x32u,  /* 46 MHz */ 0x33u,
 237:.\Generated_Source\PSoC4/CyLib.c ****             /* 47 MHz */ 0x34u,  /* 48 MHz */ 0x35u };
 238:.\Generated_Source\PSoC4/CyLib.c **** 
 239:.\Generated_Source\PSoC4/CyLib.c **** 
 240:.\Generated_Source\PSoC4/CyLib.c ****         if ((freq >= CY_SYS_CLK_IMO_MIN_FREQ_MHZ) && (freq <= CY_SYS_CLK_IMO_MAX_FREQ_MHZ))
 241:.\Generated_Source\PSoC4/CyLib.c ****         {
 242:.\Generated_Source\PSoC4/CyLib.c ****             interruptState = CyEnterCriticalSection();
 243:.\Generated_Source\PSoC4/CyLib.c **** 
 244:.\Generated_Source\PSoC4/CyLib.c ****             /* Get current IMO frequency */
 245:.\Generated_Source\PSoC4/CyLib.c ****             for (i = 0u; i < CY_SYS_CLK_IMO_FREQ_TABLE_SIZE; i++)
 246:.\Generated_Source\PSoC4/CyLib.c ****             {
 247:.\Generated_Source\PSoC4/CyLib.c ****                 if (cyImoFreqMhz2Reg[i] == (CY_SYS_CLK_IMO_TRIM2_REG & CY_SYS_CLK_IMO_FREQ_BITS_MAS
 248:.\Generated_Source\PSoC4/CyLib.c ****                 {
 249:.\Generated_Source\PSoC4/CyLib.c ****                     currentFreq = i + CY_SYS_CLK_IMO_FREQ_TABLE_OFFSET;
 250:.\Generated_Source\PSoC4/CyLib.c ****                     break;
 251:.\Generated_Source\PSoC4/CyLib.c ****                 }
 252:.\Generated_Source\PSoC4/CyLib.c ****             }
 253:.\Generated_Source\PSoC4/CyLib.c **** 
 254:.\Generated_Source\PSoC4/CyLib.c ****             if(freq <= CY_SFLASH_IMO_MAXF0_REG)
 255:.\Generated_Source\PSoC4/CyLib.c ****             {
 256:.\Generated_Source\PSoC4/CyLib.c ****                 bgTrim4 = CY_SFLASH_IMO_ABS0_REG;
 257:.\Generated_Source\PSoC4/CyLib.c ****                 bgTrim5 = CY_SFLASH_IMO_TMPCO0_REG;
 258:.\Generated_Source\PSoC4/CyLib.c ****             }
 259:.\Generated_Source\PSoC4/CyLib.c ****             else if(freq <= CY_SFLASH_IMO_MAXF1_REG)
 260:.\Generated_Source\PSoC4/CyLib.c ****             {
 261:.\Generated_Source\PSoC4/CyLib.c ****                 bgTrim4 = CY_SFLASH_IMO_ABS1_REG;
 262:.\Generated_Source\PSoC4/CyLib.c ****                 bgTrim5 = CY_SFLASH_IMO_TMPCO1_REG;
 263:.\Generated_Source\PSoC4/CyLib.c ****             }
 264:.\Generated_Source\PSoC4/CyLib.c ****             else if(freq <= CY_SFLASH_IMO_MAXF2_REG)
 265:.\Generated_Source\PSoC4/CyLib.c ****             {
 266:.\Generated_Source\PSoC4/CyLib.c ****                 bgTrim4 = CY_SFLASH_IMO_ABS2_REG;
 267:.\Generated_Source\PSoC4/CyLib.c ****                 bgTrim5 = CY_SFLASH_IMO_TMPCO2_REG;
 268:.\Generated_Source\PSoC4/CyLib.c ****             }
 269:.\Generated_Source\PSoC4/CyLib.c ****             else if(freq <= CY_SFLASH_IMO_MAXF3_REG)
 270:.\Generated_Source\PSoC4/CyLib.c ****             {
 271:.\Generated_Source\PSoC4/CyLib.c ****                 bgTrim4 = CY_SFLASH_IMO_ABS3_REG;
 272:.\Generated_Source\PSoC4/CyLib.c ****                 bgTrim5 = CY_SFLASH_IMO_TMPCO3_REG;
 273:.\Generated_Source\PSoC4/CyLib.c ****             }
 274:.\Generated_Source\PSoC4/CyLib.c ****             else
 275:.\Generated_Source\PSoC4/CyLib.c ****             {
 276:.\Generated_Source\PSoC4/CyLib.c ****                 bgTrim4 = CY_SFLASH_IMO_ABS4_REG;
 277:.\Generated_Source\PSoC4/CyLib.c ****                 bgTrim5 = CY_SFLASH_IMO_TMPCO4_REG;
 278:.\Generated_Source\PSoC4/CyLib.c ****             }
 279:.\Generated_Source\PSoC4/CyLib.c **** 
 280:.\Generated_Source\PSoC4/CyLib.c **** 
 281:.\Generated_Source\PSoC4/CyLib.c ****             /***************************************************************************
 282:.\Generated_Source\PSoC4/CyLib.c ****             * The IMO can have a different trim per frequency. To avoid possible corner
 283:.\Generated_Source\PSoC4/CyLib.c ****             * cases where a trim change can exceed the maximum frequency, the trim must
 284:.\Generated_Source\PSoC4/CyLib.c ****             * be applied at a frequency that is low enough.
 285:.\Generated_Source\PSoC4/CyLib.c ****             ***************************************************************************/
ARM GAS  C:\Users\Steve\AppData\Local\Temp\ccc4U1xk.s 			page 10


 286:.\Generated_Source\PSoC4/CyLib.c ****             if ((currentFreq >= CY_SYS_CLK_IMO_BOUNDARY_FREQ_MHZ) && (freq >= CY_SYS_CLK_IMO_BOUNDA
 287:.\Generated_Source\PSoC4/CyLib.c ****             {
 288:.\Generated_Source\PSoC4/CyLib.c ****                 /* Set boundary IMO frequency: safe for IMO above 48 MHZ trimming */
 289:.\Generated_Source\PSoC4/CyLib.c ****                 CY_SYS_CLK_IMO_TRIM2_REG = (uint32) cyImoFreqMhz2Reg[CY_SYS_CLK_IMO_TEMP_FREQ_MHZ -
 290:.\Generated_Source\PSoC4/CyLib.c ****                                                                      CY_SYS_CLK_IMO_FREQ_TABLE_OFFS
 291:.\Generated_Source\PSoC4/CyLib.c **** 
 292:.\Generated_Source\PSoC4/CyLib.c ****                 CyDelayCycles(CY_SYS_CLK_IMO_FREQ_TIMEOUT_CYCLES);
 293:.\Generated_Source\PSoC4/CyLib.c **** 
 294:.\Generated_Source\PSoC4/CyLib.c ****                 currentFreq = CY_SYS_CLK_IMO_TEMP_FREQ_MHZ;
 295:.\Generated_Source\PSoC4/CyLib.c ****             }
 296:.\Generated_Source\PSoC4/CyLib.c **** 
 297:.\Generated_Source\PSoC4/CyLib.c **** 
 298:.\Generated_Source\PSoC4/CyLib.c ****             /***************************************************************************
 299:.\Generated_Source\PSoC4/CyLib.c ****             * Trim change need to allowed to settle (within 5us) before the Freq can be
 300:.\Generated_Source\PSoC4/CyLib.c ****             * changed to the new frequency.
 301:.\Generated_Source\PSoC4/CyLib.c ****             ***************************************************************************/
 302:.\Generated_Source\PSoC4/CyLib.c ****             if (freq > currentFreq)
 303:.\Generated_Source\PSoC4/CyLib.c ****             {
 304:.\Generated_Source\PSoC4/CyLib.c ****                 /* Set trims for the new IMO frequency */
 305:.\Generated_Source\PSoC4/CyLib.c ****                 CY_SYS_CLK_IMO_TRIM1_REG = (uint32) CY_SFLASH_IMO_TRIM_REG(freq - CY_SYS_CLK_IMO_FR
 306:.\Generated_Source\PSoC4/CyLib.c ****                 CY_PWR_BG_TRIM4_REG  = bgTrim4;
 307:.\Generated_Source\PSoC4/CyLib.c ****                 CY_PWR_BG_TRIM5_REG  = bgTrim5;
 308:.\Generated_Source\PSoC4/CyLib.c ****                 CyDelayUs(CY_SYS_CLK_IMO_TRIM_TIMEOUT_US);
 309:.\Generated_Source\PSoC4/CyLib.c **** 
 310:.\Generated_Source\PSoC4/CyLib.c ****                 /* Set new IMO frequency */
 311:.\Generated_Source\PSoC4/CyLib.c ****                 CY_SYS_CLK_IMO_TRIM2_REG = cyImoFreqMhz2Reg[freq - CY_SYS_CLK_IMO_FREQ_TABLE_OFFSET
 312:.\Generated_Source\PSoC4/CyLib.c ****                 CyDelayCycles(CY_SYS_CLK_IMO_FREQ_TIMEOUT_CYCLES);
 313:.\Generated_Source\PSoC4/CyLib.c ****             }
 314:.\Generated_Source\PSoC4/CyLib.c ****             else
 315:.\Generated_Source\PSoC4/CyLib.c ****             {
 316:.\Generated_Source\PSoC4/CyLib.c ****                 /* Set new IMO frequency */
 317:.\Generated_Source\PSoC4/CyLib.c ****                 CY_SYS_CLK_IMO_TRIM2_REG = cyImoFreqMhz2Reg[freq - CY_SYS_CLK_IMO_FREQ_TABLE_OFFSET
 318:.\Generated_Source\PSoC4/CyLib.c ****                 CyDelayCycles(CY_SYS_CLK_IMO_FREQ_TIMEOUT_CYCLES);
 319:.\Generated_Source\PSoC4/CyLib.c **** 
 320:.\Generated_Source\PSoC4/CyLib.c ****                 /* Set trims for the new IMO frequency */
 321:.\Generated_Source\PSoC4/CyLib.c ****                 CY_SYS_CLK_IMO_TRIM1_REG = CY_SFLASH_IMO_TRIM_REG(freq - CY_SYS_CLK_IMO_FREQ_TABLE_
 322:.\Generated_Source\PSoC4/CyLib.c ****                 CY_PWR_BG_TRIM4_REG  = bgTrim4;
 323:.\Generated_Source\PSoC4/CyLib.c ****                 CY_PWR_BG_TRIM5_REG  = bgTrim5;
 324:.\Generated_Source\PSoC4/CyLib.c ****                 CyDelayUs(CY_SYS_CLK_IMO_TRIM_TIMEOUT_US);
 325:.\Generated_Source\PSoC4/CyLib.c ****             }
 326:.\Generated_Source\PSoC4/CyLib.c **** 
 327:.\Generated_Source\PSoC4/CyLib.c ****             CyExitCriticalSection(interruptState);
 328:.\Generated_Source\PSoC4/CyLib.c ****         }
 329:.\Generated_Source\PSoC4/CyLib.c ****         else
 330:.\Generated_Source\PSoC4/CyLib.c ****         {
 331:.\Generated_Source\PSoC4/CyLib.c ****             /* Halt CPU in debug mode if new frequency is invalid */
 332:.\Generated_Source\PSoC4/CyLib.c ****             CYASSERT(0u != 0u);
 333:.\Generated_Source\PSoC4/CyLib.c ****         }
 334:.\Generated_Source\PSoC4/CyLib.c ****     }
 335:.\Generated_Source\PSoC4/CyLib.c **** 
 336:.\Generated_Source\PSoC4/CyLib.c **** 
 337:.\Generated_Source\PSoC4/CyLib.c ****     /*******************************************************************************
 338:.\Generated_Source\PSoC4/CyLib.c ****     * Function Name: CySysWdtLock
 339:.\Generated_Source\PSoC4/CyLib.c ****     ********************************************************************************
 340:.\Generated_Source\PSoC4/CyLib.c ****     *
 341:.\Generated_Source\PSoC4/CyLib.c ****     * Summary:
 342:.\Generated_Source\PSoC4/CyLib.c ****     *  Locks out configuration changes to the Watchdog timer registers and ILO
ARM GAS  C:\Users\Steve\AppData\Local\Temp\ccc4U1xk.s 			page 11


 343:.\Generated_Source\PSoC4/CyLib.c ****     *  config register.
 344:.\Generated_Source\PSoC4/CyLib.c ****     *
 345:.\Generated_Source\PSoC4/CyLib.c ****     * Parameters:
 346:.\Generated_Source\PSoC4/CyLib.c ****     *  None
 347:.\Generated_Source\PSoC4/CyLib.c ****     *
 348:.\Generated_Source\PSoC4/CyLib.c ****     * Return:
 349:.\Generated_Source\PSoC4/CyLib.c ****     *  None
 350:.\Generated_Source\PSoC4/CyLib.c ****     *
 351:.\Generated_Source\PSoC4/CyLib.c ****     * Side effects:
 352:.\Generated_Source\PSoC4/CyLib.c ****     *  This API enables ILO, if it was disabled.
 353:.\Generated_Source\PSoC4/CyLib.c ****     *  After this API was called, ILO clock can't be disabled untill calling of
 354:.\Generated_Source\PSoC4/CyLib.c ****     *  CySysWdtUnlock().
 355:.\Generated_Source\PSoC4/CyLib.c ****     *
 356:.\Generated_Source\PSoC4/CyLib.c ****     *******************************************************************************/
 357:.\Generated_Source\PSoC4/CyLib.c ****     void CySysWdtLock(void)
 358:.\Generated_Source\PSoC4/CyLib.c ****     {
 219              		.loc 1 358 0
 220              		.cfi_startproc
 221 0000 08B5     		push	{r3, lr}
 222              	.LCFI1:
 223              		.cfi_def_cfa_offset 8
 224              		.cfi_offset 3, -8
 225              		.cfi_offset 14, -4
 359:.\Generated_Source\PSoC4/CyLib.c ****         uint8 interruptState;
 360:.\Generated_Source\PSoC4/CyLib.c ****         interruptState = CyEnterCriticalSection();
 226              		.loc 1 360 0
 227 0002 FFF7FEFF 		bl	CyEnterCriticalSection
 228              	.LVL4:
 361:.\Generated_Source\PSoC4/CyLib.c **** 
 362:.\Generated_Source\PSoC4/CyLib.c ****         /* Configuring the WDT involves passing control signals between clock domains,
 363:.\Generated_Source\PSoC4/CyLib.c ****         * which requires the ILO to be enabled.
 364:.\Generated_Source\PSoC4/CyLib.c ****         */
 365:.\Generated_Source\PSoC4/CyLib.c ****         if (0u == (CY_SYS_CLK_ILO_CONFIG_REG & CY_SYS_CLK_ILO_CONFIG_ENABLE))
 229              		.loc 1 365 0
 230 0006 094B     		ldr	r3, .L22
 231 0008 1A68     		ldr	r2, [r3]
 232 000a 002A     		cmp	r2, #0
 233 000c 04DB     		blt	.L20
 234              	.LBB78:
 235              	.LBB79:
  86:.\Generated_Source\PSoC4/CyLib.c ****     CY_SYS_CLK_ILO_CONFIG_REG |= CY_SYS_CLK_ILO_CONFIG_ENABLE;
 236              		.loc 1 86 0
 237 000e 1968     		ldr	r1, [r3]
 238 0010 8022     		mov	r2, #128
 239 0012 1206     		lsl	r2, r2, #24
 240 0014 0A43     		orr	r2, r1
 241 0016 1A60     		str	r2, [r3]
 242              	.L20:
 243              	.LBE79:
 244              	.LBE78:
 366:.\Generated_Source\PSoC4/CyLib.c ****         {
 367:.\Generated_Source\PSoC4/CyLib.c ****             CySysClkIloStart();
 368:.\Generated_Source\PSoC4/CyLib.c ****         }
 369:.\Generated_Source\PSoC4/CyLib.c **** 
 370:.\Generated_Source\PSoC4/CyLib.c ****         /* CLK_SELECT register's bits 15:14 are WDT_LOCK */
 371:.\Generated_Source\PSoC4/CyLib.c ****         CY_SYS_CLK_SELECT_REG = (CY_SYS_CLK_SELECT_REG & (uint32)(~CY_SYS_WDT_CLK_LOCK_BITS_MASK)) 
 245              		.loc 1 371 0
ARM GAS  C:\Users\Steve\AppData\Local\Temp\ccc4U1xk.s 			page 12


 246 0018 054B     		ldr	r3, .L22+4
 247 001a C022     		mov	r2, #192
 248 001c 1968     		ldr	r1, [r3]
 249 001e 1202     		lsl	r2, r2, #8
 250 0020 0A43     		orr	r2, r1
 251 0022 1A60     		str	r2, [r3]
 372:.\Generated_Source\PSoC4/CyLib.c ****                  CY_SYS_WDT_CLK_LOCK_BITS_MASK;
 373:.\Generated_Source\PSoC4/CyLib.c **** 
 374:.\Generated_Source\PSoC4/CyLib.c ****         CyExitCriticalSection(interruptState);
 252              		.loc 1 374 0
 253 0024 FFF7FEFF 		bl	CyExitCriticalSection
 254              	.LVL5:
 375:.\Generated_Source\PSoC4/CyLib.c ****     }
 255              		.loc 1 375 0
 256              		@ sp needed for prologue
 257 0028 08BD     		pop	{r3, pc}
 258              	.L23:
 259 002a C046     		.align	2
 260              	.L22:
 261 002c 04010B40 		.word	1074462980
 262 0030 00010B40 		.word	1074462976
 263              		.cfi_endproc
 264              	.LFE7:
 265              		.size	CySysWdtLock, .-CySysWdtLock
 266              		.section	.text.CySysWdtUnlock,"ax",%progbits
 267              		.align	2
 268              		.global	CySysWdtUnlock
 269              		.code	16
 270              		.thumb_func
 271              		.type	CySysWdtUnlock, %function
 272              	CySysWdtUnlock:
 273              	.LFB8:
 376:.\Generated_Source\PSoC4/CyLib.c **** 
 377:.\Generated_Source\PSoC4/CyLib.c **** 
 378:.\Generated_Source\PSoC4/CyLib.c ****     /*******************************************************************************
 379:.\Generated_Source\PSoC4/CyLib.c ****     * Function Name: CySysWdtUnlock
 380:.\Generated_Source\PSoC4/CyLib.c ****     ********************************************************************************
 381:.\Generated_Source\PSoC4/CyLib.c ****     *
 382:.\Generated_Source\PSoC4/CyLib.c ****     * Summary:
 383:.\Generated_Source\PSoC4/CyLib.c ****     *  Unlocks the Watchdog Timer configuration register.
 384:.\Generated_Source\PSoC4/CyLib.c ****     *
 385:.\Generated_Source\PSoC4/CyLib.c ****     * Parameters:
 386:.\Generated_Source\PSoC4/CyLib.c ****     *  None
 387:.\Generated_Source\PSoC4/CyLib.c ****     *
 388:.\Generated_Source\PSoC4/CyLib.c ****     * Return:
 389:.\Generated_Source\PSoC4/CyLib.c ****     *  None
 390:.\Generated_Source\PSoC4/CyLib.c ****     *
 391:.\Generated_Source\PSoC4/CyLib.c ****     * Side effects:
 392:.\Generated_Source\PSoC4/CyLib.c ****     *  This API enables ILO, if it was disabled.
 393:.\Generated_Source\PSoC4/CyLib.c ****     *
 394:.\Generated_Source\PSoC4/CyLib.c ****     *******************************************************************************/
 395:.\Generated_Source\PSoC4/CyLib.c ****     void CySysWdtUnlock(void)
 396:.\Generated_Source\PSoC4/CyLib.c ****     {
 274              		.loc 1 396 0
 275              		.cfi_startproc
 276 0000 10B5     		push	{r4, lr}
 277              	.LCFI2:
ARM GAS  C:\Users\Steve\AppData\Local\Temp\ccc4U1xk.s 			page 13


 278              		.cfi_def_cfa_offset 8
 279              		.cfi_offset 4, -8
 280              		.cfi_offset 14, -4
 397:.\Generated_Source\PSoC4/CyLib.c ****         uint8 interruptState;
 398:.\Generated_Source\PSoC4/CyLib.c ****         interruptState = CyEnterCriticalSection();
 281              		.loc 1 398 0
 282 0002 FFF7FEFF 		bl	CyEnterCriticalSection
 283              	.LVL6:
 399:.\Generated_Source\PSoC4/CyLib.c **** 
 400:.\Generated_Source\PSoC4/CyLib.c ****         /* Configuring the WDT involves passing control signals between clock domains,
 401:.\Generated_Source\PSoC4/CyLib.c ****         * which requires the ILO to be enabled.
 402:.\Generated_Source\PSoC4/CyLib.c ****         */
 403:.\Generated_Source\PSoC4/CyLib.c ****         if (0u == (CY_SYS_CLK_ILO_CONFIG_REG & CY_SYS_CLK_ILO_CONFIG_ENABLE))
 284              		.loc 1 403 0
 285 0006 0D4B     		ldr	r3, .L26
 286 0008 1A68     		ldr	r2, [r3]
 287 000a 002A     		cmp	r2, #0
 288 000c 04DB     		blt	.L25
 289              	.LBB80:
 290              	.LBB81:
  86:.\Generated_Source\PSoC4/CyLib.c ****     CY_SYS_CLK_ILO_CONFIG_REG |= CY_SYS_CLK_ILO_CONFIG_ENABLE;
 291              		.loc 1 86 0
 292 000e 1968     		ldr	r1, [r3]
 293 0010 8024     		mov	r4, #128
 294 0012 2206     		lsl	r2, r4, #24
 295 0014 0A43     		orr	r2, r1
 296 0016 1A60     		str	r2, [r3]
 297              	.L25:
 298              	.LBE81:
 299              	.LBE80:
 404:.\Generated_Source\PSoC4/CyLib.c ****         {
 405:.\Generated_Source\PSoC4/CyLib.c ****             CySysClkIloStart();
 406:.\Generated_Source\PSoC4/CyLib.c ****         }
 407:.\Generated_Source\PSoC4/CyLib.c **** 
 408:.\Generated_Source\PSoC4/CyLib.c ****         /* Removing WDT lock requires two writes */
 409:.\Generated_Source\PSoC4/CyLib.c ****         CY_SYS_CLK_SELECT_REG = ((CY_SYS_CLK_SELECT_REG & (uint32)(~CY_SYS_WDT_CLK_LOCK_BITS_MASK))
 300              		.loc 1 409 0
 301 0018 094B     		ldr	r3, .L26+4
 302 001a 0A4A     		ldr	r2, .L26+8
 303 001c 1968     		ldr	r1, [r3]
 304 001e 8024     		mov	r4, #128
 305 0020 1140     		and	r1, r2
 306 0022 E401     		lsl	r4, r4, #7
 307 0024 2143     		orr	r1, r4
 308 0026 1960     		str	r1, [r3]
 410:.\Generated_Source\PSoC4/CyLib.c ****                 CY_SYS_WDT_CLK_LOCK_BIT0);
 411:.\Generated_Source\PSoC4/CyLib.c **** 
 412:.\Generated_Source\PSoC4/CyLib.c ****         CY_SYS_CLK_SELECT_REG = ((CY_SYS_CLK_SELECT_REG & (uint32)(~CY_SYS_WDT_CLK_LOCK_BITS_MASK))
 309              		.loc 1 412 0
 310 0028 1968     		ldr	r1, [r3]
 311 002a 8024     		mov	r4, #128
 312 002c 0A40     		and	r2, r1
 313 002e 2102     		lsl	r1, r4, #8
 314 0030 0A43     		orr	r2, r1
 315 0032 1A60     		str	r2, [r3]
 413:.\Generated_Source\PSoC4/CyLib.c ****                 CY_SYS_WDT_CLK_LOCK_BIT1);
 414:.\Generated_Source\PSoC4/CyLib.c **** 
ARM GAS  C:\Users\Steve\AppData\Local\Temp\ccc4U1xk.s 			page 14


 415:.\Generated_Source\PSoC4/CyLib.c ****         CyExitCriticalSection(interruptState);
 316              		.loc 1 415 0
 317 0034 FFF7FEFF 		bl	CyExitCriticalSection
 318              	.LVL7:
 416:.\Generated_Source\PSoC4/CyLib.c ****     }
 319              		.loc 1 416 0
 320              		@ sp needed for prologue
 321 0038 10BD     		pop	{r4, pc}
 322              	.L27:
 323 003a C046     		.align	2
 324              	.L26:
 325 003c 04010B40 		.word	1074462980
 326 0040 00010B40 		.word	1074462976
 327 0044 FF3FFFFF 		.word	-49153
 328              		.cfi_endproc
 329              	.LFE8:
 330              		.size	CySysWdtUnlock, .-CySysWdtUnlock
 331              		.section	.text.CySysWdtReadEnabledStatus,"ax",%progbits
 332              		.align	2
 333              		.global	CySysWdtReadEnabledStatus
 334              		.code	16
 335              		.thumb_func
 336              		.type	CySysWdtReadEnabledStatus, %function
 337              	CySysWdtReadEnabledStatus:
 338              	.LFB9:
 417:.\Generated_Source\PSoC4/CyLib.c **** 
 418:.\Generated_Source\PSoC4/CyLib.c **** 
 419:.\Generated_Source\PSoC4/CyLib.c ****     /*******************************************************************************
 420:.\Generated_Source\PSoC4/CyLib.c ****     * Function Name: CySysWdtReadEnabledStatus
 421:.\Generated_Source\PSoC4/CyLib.c ****     ********************************************************************************
 422:.\Generated_Source\PSoC4/CyLib.c ****     *
 423:.\Generated_Source\PSoC4/CyLib.c ****     * Summary:
 424:.\Generated_Source\PSoC4/CyLib.c ****     *  Reads the enabled staus of one of the three WDT counters.
 425:.\Generated_Source\PSoC4/CyLib.c ****     *
 426:.\Generated_Source\PSoC4/CyLib.c ****     * Parameters:
 427:.\Generated_Source\PSoC4/CyLib.c ****     *  counterNum: Valid range [0-2].  Number of the WDT counter.
 428:.\Generated_Source\PSoC4/CyLib.c ****     *
 429:.\Generated_Source\PSoC4/CyLib.c ****     * Return:
 430:.\Generated_Source\PSoC4/CyLib.c ****     *  Status of WDT counter:
 431:.\Generated_Source\PSoC4/CyLib.c ****     *   0 - counter is disabled
 432:.\Generated_Source\PSoC4/CyLib.c ****     *   1 - counter is enabled
 433:.\Generated_Source\PSoC4/CyLib.c ****     *
 434:.\Generated_Source\PSoC4/CyLib.c ****     * Side Effects:
 435:.\Generated_Source\PSoC4/CyLib.c ****     *  This API returns actual WDT counter status from status register.
 436:.\Generated_Source\PSoC4/CyLib.c ****     *  It may take up to 3 LFCLK cycles since WDT counter was enabled for WDT status
 437:.\Generated_Source\PSoC4/CyLib.c ****     *  register to contain actual data.
 438:.\Generated_Source\PSoC4/CyLib.c ****     *
 439:.\Generated_Source\PSoC4/CyLib.c ****     *******************************************************************************/
 440:.\Generated_Source\PSoC4/CyLib.c ****     uint32 CySysWdtReadEnabledStatus(uint32 counterNum)
 441:.\Generated_Source\PSoC4/CyLib.c ****     {
 339              		.loc 1 441 0
 340              		.cfi_startproc
 341              	.LVL8:
 342 0000 00B5     		push	{lr}
 343              	.LCFI3:
 344              		.cfi_def_cfa_offset 4
 345              		.cfi_offset 14, -4
ARM GAS  C:\Users\Steve\AppData\Local\Temp\ccc4U1xk.s 			page 15


 442:.\Generated_Source\PSoC4/CyLib.c ****         CYASSERT(counterNum < CY_SYS_WDT_COUNTERS_MAX);
 346              		.loc 1 442 0
 347 0002 0228     		cmp	r0, #2
 348 0004 00D9     		bls	.L29
 349              	.LVL9:
 350              	.LBB82:
 351              	.LBB83:
 443:.\Generated_Source\PSoC4/CyLib.c ****         return ((CY_SYS_WDT_CONTROL_REG >> ((CY_SYS_WDT_CNT_SHIFT * counterNum) + CY_SYS_WDT_CNT_ST
 444:.\Generated_Source\PSoC4/CyLib.c ****     }
 445:.\Generated_Source\PSoC4/CyLib.c **** 
 446:.\Generated_Source\PSoC4/CyLib.c **** 
 447:.\Generated_Source\PSoC4/CyLib.c ****     /*******************************************************************************
 448:.\Generated_Source\PSoC4/CyLib.c ****     * Function Name: CySysWdtWriteMode
 449:.\Generated_Source\PSoC4/CyLib.c ****     ********************************************************************************
 450:.\Generated_Source\PSoC4/CyLib.c ****     *
 451:.\Generated_Source\PSoC4/CyLib.c ****     * Summary:
 452:.\Generated_Source\PSoC4/CyLib.c ****     *   Writes the mode of one of the three WDT counters.
 453:.\Generated_Source\PSoC4/CyLib.c ****     *
 454:.\Generated_Source\PSoC4/CyLib.c ****     * Parameters:
 455:.\Generated_Source\PSoC4/CyLib.c ****     *   counterNum: Valid range [0-2].  Number of the WDT counter.
 456:.\Generated_Source\PSoC4/CyLib.c ****     *   mode:       Mode of operation for the counter
 457:.\Generated_Source\PSoC4/CyLib.c ****     *       Define                   Mode
 458:.\Generated_Source\PSoC4/CyLib.c ****     *    CY_SYS_WDT_MODE_NONE       Free running
 459:.\Generated_Source\PSoC4/CyLib.c ****     *    CY_SYS_WDT_MODE_INT        Interrupt generated on match for counter 0
 460:.\Generated_Source\PSoC4/CyLib.c ****     *                               and 1, and on bit toggle for counter 2.
 461:.\Generated_Source\PSoC4/CyLib.c ****     *    CY_SYS_WDT_MODE_RESET      Reset on match (valid for counter 0 and 1
 462:.\Generated_Source\PSoC4/CyLib.c ****     *                               only)
 463:.\Generated_Source\PSoC4/CyLib.c ****     *    CY_SYS_WDT_MODE_INT_RESET  Generate an interrupt.  Generate a reset on
 464:.\Generated_Source\PSoC4/CyLib.c ****     *                                    the 3rd unhandled interrupt.
 465:.\Generated_Source\PSoC4/CyLib.c ****     *                                    (valid for counter 0 and 1 only)
 466:.\Generated_Source\PSoC4/CyLib.c ****     * Return:
 467:.\Generated_Source\PSoC4/CyLib.c ****     *   None
 468:.\Generated_Source\PSoC4/CyLib.c ****     *
 469:.\Generated_Source\PSoC4/CyLib.c ****     * Side Effects:
 470:.\Generated_Source\PSoC4/CyLib.c ****     *   WDT counter counterNum should be disabled to set mode. Othetwise function
 471:.\Generated_Source\PSoC4/CyLib.c ****     *   call will have no effect.
 472:.\Generated_Source\PSoC4/CyLib.c ****     *   This API enables ILO, if it was disabled.
 473:.\Generated_Source\PSoC4/CyLib.c ****     *
 474:.\Generated_Source\PSoC4/CyLib.c ****     *******************************************************************************/
 475:.\Generated_Source\PSoC4/CyLib.c ****     void CySysWdtWriteMode(uint32 counterNum, uint32 mode)
 476:.\Generated_Source\PSoC4/CyLib.c ****     {
 477:.\Generated_Source\PSoC4/CyLib.c ****         uint32 configRegValue;
 478:.\Generated_Source\PSoC4/CyLib.c **** 
 479:.\Generated_Source\PSoC4/CyLib.c ****         CYASSERT(counterNum < CY_SYS_WDT_COUNTERS_MAX);
 480:.\Generated_Source\PSoC4/CyLib.c **** 
 481:.\Generated_Source\PSoC4/CyLib.c ****         /* Configuring the WDT involves passing control signals between clock domains,
 482:.\Generated_Source\PSoC4/CyLib.c ****         * which requires the ILO to be enabled.
 483:.\Generated_Source\PSoC4/CyLib.c ****         */
 484:.\Generated_Source\PSoC4/CyLib.c ****         if (0u == (CY_SYS_CLK_ILO_CONFIG_REG & CY_SYS_CLK_ILO_CONFIG_ENABLE))
 485:.\Generated_Source\PSoC4/CyLib.c ****         {
 486:.\Generated_Source\PSoC4/CyLib.c ****             CySysClkIloStart();
 487:.\Generated_Source\PSoC4/CyLib.c ****         }
 488:.\Generated_Source\PSoC4/CyLib.c **** 
 489:.\Generated_Source\PSoC4/CyLib.c ****         if(0u == CySysWdtReadEnabledStatus(counterNum))
 490:.\Generated_Source\PSoC4/CyLib.c ****         {
 491:.\Generated_Source\PSoC4/CyLib.c ****             configRegValue = CY_SYS_WDT_CONFIG_REG &
 492:.\Generated_Source\PSoC4/CyLib.c ****                                 (uint32)~((uint32)(CY_SYS_WDT_MODE_MASK << (counterNum * CY_SYS_WDT
ARM GAS  C:\Users\Steve\AppData\Local\Temp\ccc4U1xk.s 			page 16


 493:.\Generated_Source\PSoC4/CyLib.c ****             configRegValue |= (uint32)((mode & CY_SYS_WDT_MODE_MASK) << (counterNum * CY_SYS_WDT_CN
 494:.\Generated_Source\PSoC4/CyLib.c ****             CY_SYS_WDT_CONFIG_REG = configRegValue;
 495:.\Generated_Source\PSoC4/CyLib.c ****         }
 496:.\Generated_Source\PSoC4/CyLib.c ****     }
 497:.\Generated_Source\PSoC4/CyLib.c **** 
 498:.\Generated_Source\PSoC4/CyLib.c **** 
 499:.\Generated_Source\PSoC4/CyLib.c ****     /*******************************************************************************
 500:.\Generated_Source\PSoC4/CyLib.c ****     * Function Name: CySysWdtReadMode
 501:.\Generated_Source\PSoC4/CyLib.c ****     ********************************************************************************
 502:.\Generated_Source\PSoC4/CyLib.c ****     *
 503:.\Generated_Source\PSoC4/CyLib.c ****     * Summary:
 504:.\Generated_Source\PSoC4/CyLib.c ****     *  Reads the mode of one of the three WDT counters.
 505:.\Generated_Source\PSoC4/CyLib.c ****     *
 506:.\Generated_Source\PSoC4/CyLib.c ****     * Parameters:
 507:.\Generated_Source\PSoC4/CyLib.c ****     *  counterNum: Valid range [0-2].  Number of the WDT counter.
 508:.\Generated_Source\PSoC4/CyLib.c ****     *
 509:.\Generated_Source\PSoC4/CyLib.c ****     * Return:
 510:.\Generated_Source\PSoC4/CyLib.c ****     *  Mode of the counter.  Same enumerated values as mode parameter used in
 511:.\Generated_Source\PSoC4/CyLib.c ****     *  CySysWdtWriteMode().
 512:.\Generated_Source\PSoC4/CyLib.c ****     *
 513:.\Generated_Source\PSoC4/CyLib.c ****     *******************************************************************************/
 514:.\Generated_Source\PSoC4/CyLib.c ****     uint32 CySysWdtReadMode(uint32 counterNum)
 515:.\Generated_Source\PSoC4/CyLib.c ****     {
 516:.\Generated_Source\PSoC4/CyLib.c ****         return ((CY_SYS_WDT_CONFIG_REG >> (counterNum * CY_SYS_WDT_CNT_SHIFT)) & CY_SYS_WDT_MODE_MA
 517:.\Generated_Source\PSoC4/CyLib.c ****     }
 518:.\Generated_Source\PSoC4/CyLib.c **** 
 519:.\Generated_Source\PSoC4/CyLib.c **** 
 520:.\Generated_Source\PSoC4/CyLib.c ****     /*******************************************************************************
 521:.\Generated_Source\PSoC4/CyLib.c ****     * Function Name: CySysWdtWriteClearOnMatch
 522:.\Generated_Source\PSoC4/CyLib.c ****     ********************************************************************************
 523:.\Generated_Source\PSoC4/CyLib.c ****     *
 524:.\Generated_Source\PSoC4/CyLib.c ****     * Summary:
 525:.\Generated_Source\PSoC4/CyLib.c ****     *  Configures the WDT counter clear on a match setting.  If configured to clear
 526:.\Generated_Source\PSoC4/CyLib.c ****     *  on match the counter will count from 0 to the MatchValue giving it a
 527:.\Generated_Source\PSoC4/CyLib.c ****     *  period of (MatchValue + 1).
 528:.\Generated_Source\PSoC4/CyLib.c ****     *
 529:.\Generated_Source\PSoC4/CyLib.c ****     * Parameters:
 530:.\Generated_Source\PSoC4/CyLib.c ****     *  counterNum:
 531:.\Generated_Source\PSoC4/CyLib.c ****     *   Valid range [0-1].  Number of the WDT counter.  Match values are not
 532:.\Generated_Source\PSoC4/CyLib.c ****     *   supported by counter 2.
 533:.\Generated_Source\PSoC4/CyLib.c ****     *
 534:.\Generated_Source\PSoC4/CyLib.c ****     * enable:
 535:.\Generated_Source\PSoC4/CyLib.c ****     *   0 to disable, 1 to enable
 536:.\Generated_Source\PSoC4/CyLib.c ****     *
 537:.\Generated_Source\PSoC4/CyLib.c ****     * Return:
 538:.\Generated_Source\PSoC4/CyLib.c ****     *   None
 539:.\Generated_Source\PSoC4/CyLib.c ****     *
 540:.\Generated_Source\PSoC4/CyLib.c ****     * Side Effects:
 541:.\Generated_Source\PSoC4/CyLib.c ****     *   WDT counter counterNum should be disabled. Othetwise function
 542:.\Generated_Source\PSoC4/CyLib.c ****     *   call will have no effect.
 543:.\Generated_Source\PSoC4/CyLib.c ****     *   This API enables ILO, if it was disabled.
 544:.\Generated_Source\PSoC4/CyLib.c ****     *
 545:.\Generated_Source\PSoC4/CyLib.c ****     *
 546:.\Generated_Source\PSoC4/CyLib.c ****     *******************************************************************************/
 547:.\Generated_Source\PSoC4/CyLib.c ****     void CySysWdtWriteClearOnMatch(uint32 counterNum, uint32 enable)
 548:.\Generated_Source\PSoC4/CyLib.c ****     {
 549:.\Generated_Source\PSoC4/CyLib.c ****         CYASSERT((counterNum == CY_SYS_WDT_COUNTER0) ||
ARM GAS  C:\Users\Steve\AppData\Local\Temp\ccc4U1xk.s 			page 17


 550:.\Generated_Source\PSoC4/CyLib.c ****                                              (counterNum == CY_SYS_WDT_COUNTER1));
 551:.\Generated_Source\PSoC4/CyLib.c **** 
 552:.\Generated_Source\PSoC4/CyLib.c ****         /* Configuring the WDT involves passing control signals between clock domains,
 553:.\Generated_Source\PSoC4/CyLib.c ****         * which requires the ILO to be enabled.
 554:.\Generated_Source\PSoC4/CyLib.c ****         */
 555:.\Generated_Source\PSoC4/CyLib.c ****         if (0u == (CY_SYS_CLK_ILO_CONFIG_REG & CY_SYS_CLK_ILO_CONFIG_ENABLE))
 556:.\Generated_Source\PSoC4/CyLib.c ****         {
 557:.\Generated_Source\PSoC4/CyLib.c ****             CySysClkIloStart();
 558:.\Generated_Source\PSoC4/CyLib.c ****         }
 559:.\Generated_Source\PSoC4/CyLib.c **** 
 560:.\Generated_Source\PSoC4/CyLib.c ****         if(0u == CySysWdtReadEnabledStatus(counterNum))
 561:.\Generated_Source\PSoC4/CyLib.c ****         {
 562:.\Generated_Source\PSoC4/CyLib.c ****             CY_SYS_WDT_CONFIG_REG |= (uint32)(enable << ((counterNum * CY_SYS_WDT_CNT_SHIFT) +
 563:.\Generated_Source\PSoC4/CyLib.c ****                                                             CY_SYS_WDT_CNT_MATCH_CLR_SHIFT));
 564:.\Generated_Source\PSoC4/CyLib.c ****         }
 565:.\Generated_Source\PSoC4/CyLib.c ****     }
 566:.\Generated_Source\PSoC4/CyLib.c **** 
 567:.\Generated_Source\PSoC4/CyLib.c **** 
 568:.\Generated_Source\PSoC4/CyLib.c ****     /*******************************************************************************
 569:.\Generated_Source\PSoC4/CyLib.c ****     * Function Name: CySysWdtReadClearOnMatch
 570:.\Generated_Source\PSoC4/CyLib.c ****     ********************************************************************************
 571:.\Generated_Source\PSoC4/CyLib.c ****     *
 572:.\Generated_Source\PSoC4/CyLib.c ****     * Summary:
 573:.\Generated_Source\PSoC4/CyLib.c ****     *  Reads the clear on match setting for the specified counter.
 574:.\Generated_Source\PSoC4/CyLib.c ****     *
 575:.\Generated_Source\PSoC4/CyLib.c ****     * Parameters:
 576:.\Generated_Source\PSoC4/CyLib.c ****     *   counterNum: Valid range [0-1].  Number of the WDT counter.  Match values are
 577:.\Generated_Source\PSoC4/CyLib.c ****     *               not supported by counter 2.
 578:.\Generated_Source\PSoC4/CyLib.c ****     *
 579:.\Generated_Source\PSoC4/CyLib.c ****     * Return:
 580:.\Generated_Source\PSoC4/CyLib.c ****     *   Clear on Match status: 1 if enabled, 0 if disabled
 581:.\Generated_Source\PSoC4/CyLib.c ****     *
 582:.\Generated_Source\PSoC4/CyLib.c ****     *******************************************************************************/
 583:.\Generated_Source\PSoC4/CyLib.c ****     uint32 CySysWdtReadClearOnMatch(uint32 counterNum)
 584:.\Generated_Source\PSoC4/CyLib.c ****     {
 585:.\Generated_Source\PSoC4/CyLib.c ****         CYASSERT((counterNum == CY_SYS_WDT_COUNTER0) ||
 586:.\Generated_Source\PSoC4/CyLib.c ****                                              (counterNum == CY_SYS_WDT_COUNTER1));
 587:.\Generated_Source\PSoC4/CyLib.c **** 
 588:.\Generated_Source\PSoC4/CyLib.c ****         return (uint32)((CY_SYS_WDT_CONFIG_REG >>
 589:.\Generated_Source\PSoC4/CyLib.c ****                             ((counterNum * CY_SYS_WDT_CNT_SHIFT) + CY_SYS_WDT_CNT_MATCH_CLR_SHIFT))
 590:.\Generated_Source\PSoC4/CyLib.c ****     }
 591:.\Generated_Source\PSoC4/CyLib.c **** 
 592:.\Generated_Source\PSoC4/CyLib.c **** 
 593:.\Generated_Source\PSoC4/CyLib.c ****     /*******************************************************************************
 594:.\Generated_Source\PSoC4/CyLib.c ****     * Function Name: CySysWdtEnable
 595:.\Generated_Source\PSoC4/CyLib.c ****     ********************************************************************************
 596:.\Generated_Source\PSoC4/CyLib.c ****     *
 597:.\Generated_Source\PSoC4/CyLib.c ****     * Summary:
 598:.\Generated_Source\PSoC4/CyLib.c ****     *  Enables the specified WDT counters.  All counters specified in the mask are
 599:.\Generated_Source\PSoC4/CyLib.c ****     *  enabled.
 600:.\Generated_Source\PSoC4/CyLib.c ****     *
 601:.\Generated_Source\PSoC4/CyLib.c ****     * Parameters:
 602:.\Generated_Source\PSoC4/CyLib.c ****     *  counterMask: Mask of all counters to enable
 603:.\Generated_Source\PSoC4/CyLib.c ****     *       Define                       Counter
 604:.\Generated_Source\PSoC4/CyLib.c ****     *      CY_SYS_WDT_COUNTER0_MASK      0
 605:.\Generated_Source\PSoC4/CyLib.c ****     *      CY_SYS_WDT_COUNTER1_MASK      1
 606:.\Generated_Source\PSoC4/CyLib.c ****     *      CY_SYS_WDT_COUNTER2_MASK      2
ARM GAS  C:\Users\Steve\AppData\Local\Temp\ccc4U1xk.s 			page 18


 607:.\Generated_Source\PSoC4/CyLib.c ****     *
 608:.\Generated_Source\PSoC4/CyLib.c ****     * Return:
 609:.\Generated_Source\PSoC4/CyLib.c ****     *  None
 610:.\Generated_Source\PSoC4/CyLib.c ****     *
 611:.\Generated_Source\PSoC4/CyLib.c ****     * Side Effects:
 612:.\Generated_Source\PSoC4/CyLib.c ****     *  Enabling or disabling a WDT requires 3 LF Clock cycles to come into effect.
 613:.\Generated_Source\PSoC4/CyLib.c ****     *  This API enables ILO, if it was disabled.
 614:.\Generated_Source\PSoC4/CyLib.c ****     *
 615:.\Generated_Source\PSoC4/CyLib.c ****     *******************************************************************************/
 616:.\Generated_Source\PSoC4/CyLib.c ****     void CySysWdtEnable(uint32 counterMask)
 617:.\Generated_Source\PSoC4/CyLib.c ****     {
 618:.\Generated_Source\PSoC4/CyLib.c ****         /* Configuring the WDT involves passing control signals between clock domains,
 619:.\Generated_Source\PSoC4/CyLib.c ****         * which requires the ILO to be enabled.
 620:.\Generated_Source\PSoC4/CyLib.c ****         */
 621:.\Generated_Source\PSoC4/CyLib.c ****         if (0u == (CY_SYS_CLK_ILO_CONFIG_REG & CY_SYS_CLK_ILO_CONFIG_ENABLE))
 622:.\Generated_Source\PSoC4/CyLib.c ****         {
 623:.\Generated_Source\PSoC4/CyLib.c ****             CySysClkIloStart();
 624:.\Generated_Source\PSoC4/CyLib.c ****         }
 625:.\Generated_Source\PSoC4/CyLib.c **** 
 626:.\Generated_Source\PSoC4/CyLib.c ****         CY_SYS_WDT_CONTROL_REG |= counterMask;
 627:.\Generated_Source\PSoC4/CyLib.c ****     }
 628:.\Generated_Source\PSoC4/CyLib.c **** 
 629:.\Generated_Source\PSoC4/CyLib.c **** 
 630:.\Generated_Source\PSoC4/CyLib.c ****     /*******************************************************************************
 631:.\Generated_Source\PSoC4/CyLib.c ****     * Function Name: CySysWdtDisable
 632:.\Generated_Source\PSoC4/CyLib.c ****     ********************************************************************************
 633:.\Generated_Source\PSoC4/CyLib.c ****     *
 634:.\Generated_Source\PSoC4/CyLib.c ****     * Summary:
 635:.\Generated_Source\PSoC4/CyLib.c ****     *  Disables the specified WDT counters.  All counters specified in the mask are
 636:.\Generated_Source\PSoC4/CyLib.c ****     *  disabled.
 637:.\Generated_Source\PSoC4/CyLib.c ****     *
 638:.\Generated_Source\PSoC4/CyLib.c ****     * Parameters:
 639:.\Generated_Source\PSoC4/CyLib.c ****     *  uint32 counterMask: Mask of all counters to disable
 640:.\Generated_Source\PSoC4/CyLib.c ****     *    Define                       Counter
 641:.\Generated_Source\PSoC4/CyLib.c ****     *   CY_SYS_WDT_COUNTER0_MASK      0
 642:.\Generated_Source\PSoC4/CyLib.c ****     *   CY_SYS_WDT_COUNTER1_MASK      1
 643:.\Generated_Source\PSoC4/CyLib.c ****     *   CY_SYS_WDT_COUNTER2_MASK      2
 644:.\Generated_Source\PSoC4/CyLib.c ****     *
 645:.\Generated_Source\PSoC4/CyLib.c ****     * Return:
 646:.\Generated_Source\PSoC4/CyLib.c ****     *   None
 647:.\Generated_Source\PSoC4/CyLib.c ****     *
 648:.\Generated_Source\PSoC4/CyLib.c ****     * Side Effects:
 649:.\Generated_Source\PSoC4/CyLib.c ****     *  Enabling or disabling a WDT requires 3 LF Clock cycles to come into effect.
 650:.\Generated_Source\PSoC4/CyLib.c ****     *  This API enables ILO, if it was disabled.
 651:.\Generated_Source\PSoC4/CyLib.c ****     *
 652:.\Generated_Source\PSoC4/CyLib.c ****     *******************************************************************************/
 653:.\Generated_Source\PSoC4/CyLib.c ****     void CySysWdtDisable(uint32 counterMask)
 654:.\Generated_Source\PSoC4/CyLib.c ****     {
 655:.\Generated_Source\PSoC4/CyLib.c ****         /* Configuring the WDT involves passing control signals between clock domains,
 656:.\Generated_Source\PSoC4/CyLib.c ****         * which requires the ILO to be enabled.
 657:.\Generated_Source\PSoC4/CyLib.c ****         */
 658:.\Generated_Source\PSoC4/CyLib.c ****         if (0u == (CY_SYS_CLK_ILO_CONFIG_REG & CY_SYS_CLK_ILO_CONFIG_ENABLE))
 659:.\Generated_Source\PSoC4/CyLib.c ****         {
 660:.\Generated_Source\PSoC4/CyLib.c ****             CySysClkIloStart();
 661:.\Generated_Source\PSoC4/CyLib.c ****         }
 662:.\Generated_Source\PSoC4/CyLib.c **** 
 663:.\Generated_Source\PSoC4/CyLib.c ****         CY_SYS_WDT_CONTROL_REG &= ~counterMask;
ARM GAS  C:\Users\Steve\AppData\Local\Temp\ccc4U1xk.s 			page 19


 664:.\Generated_Source\PSoC4/CyLib.c ****     }
 665:.\Generated_Source\PSoC4/CyLib.c **** 
 666:.\Generated_Source\PSoC4/CyLib.c **** 
 667:.\Generated_Source\PSoC4/CyLib.c ****     /*******************************************************************************
 668:.\Generated_Source\PSoC4/CyLib.c ****     * Function Name: CySysWdtWriteCascade
 669:.\Generated_Source\PSoC4/CyLib.c ****     ********************************************************************************
 670:.\Generated_Source\PSoC4/CyLib.c ****     *
 671:.\Generated_Source\PSoC4/CyLib.c ****     * Summary:
 672:.\Generated_Source\PSoC4/CyLib.c ****     *   Writes the two WDT cascade values based on the combination of mask values
 673:.\Generated_Source\PSoC4/CyLib.c ****     *   specified.
 674:.\Generated_Source\PSoC4/CyLib.c ****     *
 675:.\Generated_Source\PSoC4/CyLib.c ****     * Parameters:
 676:.\Generated_Source\PSoC4/CyLib.c ****     *   cascadeMask: Mask value used to set or clear the cascade values.
 677:.\Generated_Source\PSoC4/CyLib.c ****     *   Define                     Cascade
 678:.\Generated_Source\PSoC4/CyLib.c ****     *   CY_SYS_WDT_CASCADE_NONE    Neither
 679:.\Generated_Source\PSoC4/CyLib.c ****     *   CY_SYS_WDT_CASCADE_01      Cascade 01
 680:.\Generated_Source\PSoC4/CyLib.c ****     *   CY_SYS_WDT_CASCADE_12      Cascade 12
 681:.\Generated_Source\PSoC4/CyLib.c ****     *
 682:.\Generated_Source\PSoC4/CyLib.c ****     * Return:
 683:.\Generated_Source\PSoC4/CyLib.c ****     *   None
 684:.\Generated_Source\PSoC4/CyLib.c ****     *
 685:.\Generated_Source\PSoC4/CyLib.c ****     * Side effects:
 686:.\Generated_Source\PSoC4/CyLib.c ****     *   If only one cascasde mask is specified, the second cascade is disabled.
 687:.\Generated_Source\PSoC4/CyLib.c ****     *   To set both cascade modes two defines should be ORed:
 688:.\Generated_Source\PSoC4/CyLib.c ****     *    (CY_SYS_WDT_CASCADE_01 | CY_SYS_WDT_CASCADE_12)
 689:.\Generated_Source\PSoC4/CyLib.c ****     *   This API enables ILO, if it was disabled.
 690:.\Generated_Source\PSoC4/CyLib.c ****     *
 691:.\Generated_Source\PSoC4/CyLib.c ****     *******************************************************************************/
 692:.\Generated_Source\PSoC4/CyLib.c ****     void CySysWdtWriteCascade(uint32 cascadeMask)
 693:.\Generated_Source\PSoC4/CyLib.c ****     {
 694:.\Generated_Source\PSoC4/CyLib.c ****         uint32 configRegValue;
 695:.\Generated_Source\PSoC4/CyLib.c ****         uint32 countersEnableStatus;
 696:.\Generated_Source\PSoC4/CyLib.c **** 
 697:.\Generated_Source\PSoC4/CyLib.c ****         countersEnableStatus = CySysWdtReadEnabledStatus(CY_SYS_WDT_COUNTER0) |
 698:.\Generated_Source\PSoC4/CyLib.c ****                             CySysWdtReadEnabledStatus(CY_SYS_WDT_COUNTER1) |
 699:.\Generated_Source\PSoC4/CyLib.c ****                             CySysWdtReadEnabledStatus(CY_SYS_WDT_COUNTER2);
 700:.\Generated_Source\PSoC4/CyLib.c **** 
 701:.\Generated_Source\PSoC4/CyLib.c ****         if (0u == countersEnableStatus)
 702:.\Generated_Source\PSoC4/CyLib.c ****         {
 703:.\Generated_Source\PSoC4/CyLib.c ****             /* Configuring the WDT involves passing control signals between clock domains,
 704:.\Generated_Source\PSoC4/CyLib.c ****             * which requires the ILO to be enabled.
 705:.\Generated_Source\PSoC4/CyLib.c ****             */
 706:.\Generated_Source\PSoC4/CyLib.c ****             if (0u == (CY_SYS_CLK_ILO_CONFIG_REG & CY_SYS_CLK_ILO_CONFIG_ENABLE))
 707:.\Generated_Source\PSoC4/CyLib.c ****             {
 708:.\Generated_Source\PSoC4/CyLib.c ****                 CySysClkIloStart();
 709:.\Generated_Source\PSoC4/CyLib.c ****             }
 710:.\Generated_Source\PSoC4/CyLib.c **** 
 711:.\Generated_Source\PSoC4/CyLib.c ****             configRegValue = CY_SYS_WDT_CONFIG_REG;
 712:.\Generated_Source\PSoC4/CyLib.c ****             configRegValue &= ((uint32)(~(CY_SYS_WDT_CASCADE_01|CY_SYS_WDT_CASCADE_12)));
 713:.\Generated_Source\PSoC4/CyLib.c ****             configRegValue |= cascadeMask;
 714:.\Generated_Source\PSoC4/CyLib.c ****             CY_SYS_WDT_CONFIG_REG = configRegValue;
 715:.\Generated_Source\PSoC4/CyLib.c ****         }
 716:.\Generated_Source\PSoC4/CyLib.c ****     }
 717:.\Generated_Source\PSoC4/CyLib.c **** 
 718:.\Generated_Source\PSoC4/CyLib.c **** 
 719:.\Generated_Source\PSoC4/CyLib.c ****     /*******************************************************************************
 720:.\Generated_Source\PSoC4/CyLib.c ****     * Function Name: CySysWdtReadCascade
ARM GAS  C:\Users\Steve\AppData\Local\Temp\ccc4U1xk.s 			page 20


 721:.\Generated_Source\PSoC4/CyLib.c ****     ********************************************************************************
 722:.\Generated_Source\PSoC4/CyLib.c ****     *
 723:.\Generated_Source\PSoC4/CyLib.c ****     * Summary:
 724:.\Generated_Source\PSoC4/CyLib.c ****     *   Reads the two WDT cascade values returning a mask of the bits set.
 725:.\Generated_Source\PSoC4/CyLib.c ****     *
 726:.\Generated_Source\PSoC4/CyLib.c ****     * Parameters:
 727:.\Generated_Source\PSoC4/CyLib.c ****     *   None
 728:.\Generated_Source\PSoC4/CyLib.c ****     *
 729:.\Generated_Source\PSoC4/CyLib.c ****     * Return:
 730:.\Generated_Source\PSoC4/CyLib.c ****     *   Mask of cascade values set.
 731:.\Generated_Source\PSoC4/CyLib.c ****     *   Define                     Cascade
 732:.\Generated_Source\PSoC4/CyLib.c ****     *   CY_SYS_WDT_CASCADE_NONE    Neither
 733:.\Generated_Source\PSoC4/CyLib.c ****     *   CY_SYS_WDT_CASCADE_01      Cascade 01
 734:.\Generated_Source\PSoC4/CyLib.c ****     *   CY_SYS_WDT_CASCADE_12      Cascade 12
 735:.\Generated_Source\PSoC4/CyLib.c ****     *
 736:.\Generated_Source\PSoC4/CyLib.c ****     *******************************************************************************/
 737:.\Generated_Source\PSoC4/CyLib.c ****     uint32 CySysWdtReadCascade(void)
 738:.\Generated_Source\PSoC4/CyLib.c ****     {
 739:.\Generated_Source\PSoC4/CyLib.c ****         return (CY_SYS_WDT_CONFIG_REG & (CY_SYS_WDT_CASCADE_01 | CY_SYS_WDT_CASCADE_12));
 740:.\Generated_Source\PSoC4/CyLib.c ****     }
 741:.\Generated_Source\PSoC4/CyLib.c **** 
 742:.\Generated_Source\PSoC4/CyLib.c **** 
 743:.\Generated_Source\PSoC4/CyLib.c ****     /*******************************************************************************
 744:.\Generated_Source\PSoC4/CyLib.c ****     * Function Name: CySysWdtWriteMatch
 745:.\Generated_Source\PSoC4/CyLib.c ****     ********************************************************************************
 746:.\Generated_Source\PSoC4/CyLib.c ****     *
 747:.\Generated_Source\PSoC4/CyLib.c ****     * Summary:
 748:.\Generated_Source\PSoC4/CyLib.c ****     *  Configures the WDT counter match comparison value.
 749:.\Generated_Source\PSoC4/CyLib.c ****     *
 750:.\Generated_Source\PSoC4/CyLib.c ****     * Parameters:
 751:.\Generated_Source\PSoC4/CyLib.c ****     *  counterNum:
 752:.\Generated_Source\PSoC4/CyLib.c ****     *   Valid range [0-1]. Number of the WDT counter. Match values are not
 753:.\Generated_Source\PSoC4/CyLib.c ****     *   supported by counter 2.
 754:.\Generated_Source\PSoC4/CyLib.c ****     *
 755:.\Generated_Source\PSoC4/CyLib.c ****     *  match:
 756:.\Generated_Source\PSoC4/CyLib.c ****     *   Valid range [0-65535]. Value to be used to match against the counter.
 757:.\Generated_Source\PSoC4/CyLib.c ****     *
 758:.\Generated_Source\PSoC4/CyLib.c ****     * Return:
 759:.\Generated_Source\PSoC4/CyLib.c ****     *   None
 760:.\Generated_Source\PSoC4/CyLib.c ****     *
 761:.\Generated_Source\PSoC4/CyLib.c ****     * Side effects:
 762:.\Generated_Source\PSoC4/CyLib.c ****     *   This API enables ILO, if it was disabled.
 763:.\Generated_Source\PSoC4/CyLib.c ****     *
 764:.\Generated_Source\PSoC4/CyLib.c ****     *******************************************************************************/
 765:.\Generated_Source\PSoC4/CyLib.c ****     void CySysWdtWriteMatch(uint32 counterNum, uint32 match)
 766:.\Generated_Source\PSoC4/CyLib.c ****     {
 767:.\Generated_Source\PSoC4/CyLib.c ****         uint32 regValue;
 768:.\Generated_Source\PSoC4/CyLib.c **** 
 769:.\Generated_Source\PSoC4/CyLib.c ****         CYASSERT((counterNum == CY_SYS_WDT_COUNTER0) ||
 770:.\Generated_Source\PSoC4/CyLib.c ****                                              (counterNum == CY_SYS_WDT_COUNTER1));
 771:.\Generated_Source\PSoC4/CyLib.c **** 
 772:.\Generated_Source\PSoC4/CyLib.c ****         /* Configuring the WDT involves passing control signals between clock domains,
 773:.\Generated_Source\PSoC4/CyLib.c ****         * which requires the ILO to be enabled.
 774:.\Generated_Source\PSoC4/CyLib.c ****         */
 775:.\Generated_Source\PSoC4/CyLib.c ****         if (0u == (CY_SYS_CLK_ILO_CONFIG_REG & CY_SYS_CLK_ILO_CONFIG_ENABLE))
 776:.\Generated_Source\PSoC4/CyLib.c ****         {
 777:.\Generated_Source\PSoC4/CyLib.c ****             CySysClkIloStart();
ARM GAS  C:\Users\Steve\AppData\Local\Temp\ccc4U1xk.s 			page 21


 778:.\Generated_Source\PSoC4/CyLib.c ****         }
 779:.\Generated_Source\PSoC4/CyLib.c **** 
 780:.\Generated_Source\PSoC4/CyLib.c ****         /* Delay ~ 3LFCK in order to male sure previos changes are applied */
 781:.\Generated_Source\PSoC4/CyLib.c ****         CyDelayUs(CY_SYS_WDT_3LFCLK_DELAY_US);
 782:.\Generated_Source\PSoC4/CyLib.c **** 
 783:.\Generated_Source\PSoC4/CyLib.c ****         regValue = CY_SYS_WDT_MATCH_REG;
 784:.\Generated_Source\PSoC4/CyLib.c ****         regValue &= (uint32)~((uint32)(CY_SYS_WDT_LOWER_16BITS_MASK << (counterNum * CY_SYS_WDT_CNT
 785:.\Generated_Source\PSoC4/CyLib.c ****         CY_SYS_WDT_MATCH_REG = (regValue | (match << (counterNum * CY_SYS_WDT_CNT_MATCH_SHIFT)));
 786:.\Generated_Source\PSoC4/CyLib.c ****     }
 787:.\Generated_Source\PSoC4/CyLib.c **** 
 788:.\Generated_Source\PSoC4/CyLib.c **** 
 789:.\Generated_Source\PSoC4/CyLib.c ****     /*******************************************************************************
 790:.\Generated_Source\PSoC4/CyLib.c ****     * Function Name: CySysWdtWriteToggleBit
 791:.\Generated_Source\PSoC4/CyLib.c ****     ********************************************************************************
 792:.\Generated_Source\PSoC4/CyLib.c ****     *
 793:.\Generated_Source\PSoC4/CyLib.c ****     * Summary:
 794:.\Generated_Source\PSoC4/CyLib.c ****     *  Configures which bit in the WDT counter 2 to monitor for a toggle.  When that
 795:.\Generated_Source\PSoC4/CyLib.c ****     *  bit toggles an interrupt is generated if the mode for counter 2 has
 796:.\Generated_Source\PSoC4/CyLib.c ****     *  interrupts enabled.
 797:.\Generated_Source\PSoC4/CyLib.c ****     *
 798:.\Generated_Source\PSoC4/CyLib.c ****     * Parameters:
 799:.\Generated_Source\PSoC4/CyLib.c ****     *  bit:
 800:.\Generated_Source\PSoC4/CyLib.c ****     *   Valid range [0-31].  Counter 2 bit to monitor for a toggle.
 801:.\Generated_Source\PSoC4/CyLib.c ****     *
 802:.\Generated_Source\PSoC4/CyLib.c ****     * Return:
 803:.\Generated_Source\PSoC4/CyLib.c ****     *   None
 804:.\Generated_Source\PSoC4/CyLib.c ****     *
 805:.\Generated_Source\PSoC4/CyLib.c ****     * Side effects:
 806:.\Generated_Source\PSoC4/CyLib.c ****     *   WDT counter 2 should be disabled. Othetwise function
 807:.\Generated_Source\PSoC4/CyLib.c ****     *   call will have no effect.
 808:.\Generated_Source\PSoC4/CyLib.c ****     *   This API enables ILO, if it was disabled.
 809:.\Generated_Source\PSoC4/CyLib.c ****     *
 810:.\Generated_Source\PSoC4/CyLib.c ****     *******************************************************************************/
 811:.\Generated_Source\PSoC4/CyLib.c ****     void CySysWdtWriteToggleBit(uint32 bits)
 812:.\Generated_Source\PSoC4/CyLib.c ****     {
 813:.\Generated_Source\PSoC4/CyLib.c ****         uint32 configRegValue;
 814:.\Generated_Source\PSoC4/CyLib.c **** 
 815:.\Generated_Source\PSoC4/CyLib.c ****         if (0u == CySysWdtReadEnabledStatus(CY_SYS_WDT_COUNTER2))
 816:.\Generated_Source\PSoC4/CyLib.c ****         {
 817:.\Generated_Source\PSoC4/CyLib.c ****             /* Configuring the WDT involves passing control signals between clock domains,
 818:.\Generated_Source\PSoC4/CyLib.c ****             * which requires the ILO to be enabled.
 819:.\Generated_Source\PSoC4/CyLib.c ****             */
 820:.\Generated_Source\PSoC4/CyLib.c ****             if (0u == (CY_SYS_CLK_ILO_CONFIG_REG & CY_SYS_CLK_ILO_CONFIG_ENABLE))
 821:.\Generated_Source\PSoC4/CyLib.c ****             {
 822:.\Generated_Source\PSoC4/CyLib.c ****                 CySysClkIloStart();
 823:.\Generated_Source\PSoC4/CyLib.c ****             }
 824:.\Generated_Source\PSoC4/CyLib.c **** 
 825:.\Generated_Source\PSoC4/CyLib.c ****             configRegValue = CY_SYS_WDT_CONFIG_REG;
 826:.\Generated_Source\PSoC4/CyLib.c ****             configRegValue &= (uint32)(~((uint32)(CY_SYS_WDT_CONFIG_BITS2_MASK << CY_SYS_WDT_CONFIG
 827:.\Generated_Source\PSoC4/CyLib.c ****             configRegValue |= ((bits & CY_SYS_WDT_CONFIG_BITS2_MASK) << CY_SYS_WDT_CONFIG_BITS2_POS
 828:.\Generated_Source\PSoC4/CyLib.c ****             CY_SYS_WDT_CONFIG_REG = configRegValue;
 829:.\Generated_Source\PSoC4/CyLib.c ****         }
 830:.\Generated_Source\PSoC4/CyLib.c ****     }
 831:.\Generated_Source\PSoC4/CyLib.c **** 
 832:.\Generated_Source\PSoC4/CyLib.c **** 
 833:.\Generated_Source\PSoC4/CyLib.c ****     /*******************************************************************************
 834:.\Generated_Source\PSoC4/CyLib.c ****     * Function Name: CySysWdtReadToggleBit
ARM GAS  C:\Users\Steve\AppData\Local\Temp\ccc4U1xk.s 			page 22


 835:.\Generated_Source\PSoC4/CyLib.c ****     ********************************************************************************
 836:.\Generated_Source\PSoC4/CyLib.c ****     *
 837:.\Generated_Source\PSoC4/CyLib.c ****     * Summary:
 838:.\Generated_Source\PSoC4/CyLib.c ****     *  Reads which bit in the WDT counter 2 is monitored for a toggle.
 839:.\Generated_Source\PSoC4/CyLib.c ****     *
 840:.\Generated_Source\PSoC4/CyLib.c ****     * Parameters:
 841:.\Generated_Source\PSoC4/CyLib.c ****     *  None
 842:.\Generated_Source\PSoC4/CyLib.c ****     *
 843:.\Generated_Source\PSoC4/CyLib.c ****     * Return:
 844:.\Generated_Source\PSoC4/CyLib.c ****     *  Bit that is monitored (range of 0 to 31)
 845:.\Generated_Source\PSoC4/CyLib.c ****     *
 846:.\Generated_Source\PSoC4/CyLib.c ****     *******************************************************************************/
 847:.\Generated_Source\PSoC4/CyLib.c ****     uint32 CySysWdtReadToggleBit(void)
 848:.\Generated_Source\PSoC4/CyLib.c ****     {
 849:.\Generated_Source\PSoC4/CyLib.c ****         return ((CY_SYS_WDT_CONFIG_REG >> CY_SYS_WDT_CONFIG_BITS2_POS) & CY_SYS_WDT_CONFIG_BITS2_MA
 850:.\Generated_Source\PSoC4/CyLib.c ****     }
 851:.\Generated_Source\PSoC4/CyLib.c **** 
 852:.\Generated_Source\PSoC4/CyLib.c **** 
 853:.\Generated_Source\PSoC4/CyLib.c ****     /*******************************************************************************
 854:.\Generated_Source\PSoC4/CyLib.c ****     * Function Name: CySysWdtReadMatch
 855:.\Generated_Source\PSoC4/CyLib.c ****     ********************************************************************************
 856:.\Generated_Source\PSoC4/CyLib.c ****     *
 857:.\Generated_Source\PSoC4/CyLib.c ****     * Summary:
 858:.\Generated_Source\PSoC4/CyLib.c ****     *  Reads the WDT counter match comparison value.
 859:.\Generated_Source\PSoC4/CyLib.c ****     *
 860:.\Generated_Source\PSoC4/CyLib.c ****     * Parameters:
 861:.\Generated_Source\PSoC4/CyLib.c ****     *  counterNum: Valid range [0-1].  Number of the WDT counter.  Match values
 862:.\Generated_Source\PSoC4/CyLib.c ****     *               are not supported by counter 2.
 863:.\Generated_Source\PSoC4/CyLib.c ****     *
 864:.\Generated_Source\PSoC4/CyLib.c ****     * Return:
 865:.\Generated_Source\PSoC4/CyLib.c ****     *  Counter match value
 866:.\Generated_Source\PSoC4/CyLib.c ****     *
 867:.\Generated_Source\PSoC4/CyLib.c ****     *******************************************************************************/
 868:.\Generated_Source\PSoC4/CyLib.c ****     uint32 CySysWdtReadMatch(uint32 counterNum)
 869:.\Generated_Source\PSoC4/CyLib.c ****     {
 870:.\Generated_Source\PSoC4/CyLib.c ****         CYASSERT((counterNum == CY_SYS_WDT_COUNTER0) ||
 871:.\Generated_Source\PSoC4/CyLib.c ****                                              (counterNum == CY_SYS_WDT_COUNTER1));
 872:.\Generated_Source\PSoC4/CyLib.c ****         return ((uint32)(CY_SYS_WDT_MATCH_REG >> (counterNum * CY_SYS_WDT_CNT_MATCH_SHIFT)) & CY_SY
 873:.\Generated_Source\PSoC4/CyLib.c ****     }
 874:.\Generated_Source\PSoC4/CyLib.c **** 
 875:.\Generated_Source\PSoC4/CyLib.c **** 
 876:.\Generated_Source\PSoC4/CyLib.c ****     /*******************************************************************************
 877:.\Generated_Source\PSoC4/CyLib.c ****     * Function Name: CySysWdtReadCount
 878:.\Generated_Source\PSoC4/CyLib.c ****     ********************************************************************************
 879:.\Generated_Source\PSoC4/CyLib.c ****     *
 880:.\Generated_Source\PSoC4/CyLib.c ****     * Summary:
 881:.\Generated_Source\PSoC4/CyLib.c ****     *  Reads the current WDT counter value.
 882:.\Generated_Source\PSoC4/CyLib.c ****     *
 883:.\Generated_Source\PSoC4/CyLib.c ****     * Parameters:
 884:.\Generated_Source\PSoC4/CyLib.c ****     *  counterNum: Valid range [0-2].  Number of the WDT counter.
 885:.\Generated_Source\PSoC4/CyLib.c ****     *
 886:.\Generated_Source\PSoC4/CyLib.c ****     * Return:
 887:.\Generated_Source\PSoC4/CyLib.c ****     *  Live counter value.  Counter 0 and 1 are 16 bit counters and counter
 888:.\Generated_Source\PSoC4/CyLib.c ****     *  2 is a 32 bit counter.
 889:.\Generated_Source\PSoC4/CyLib.c ****     *
 890:.\Generated_Source\PSoC4/CyLib.c ****     *******************************************************************************/
 891:.\Generated_Source\PSoC4/CyLib.c ****     uint32 CySysWdtReadCount(uint32 counterNum)
ARM GAS  C:\Users\Steve\AppData\Local\Temp\ccc4U1xk.s 			page 23


 892:.\Generated_Source\PSoC4/CyLib.c ****     {
 893:.\Generated_Source\PSoC4/CyLib.c ****         uint32 regValue = 0u;
 894:.\Generated_Source\PSoC4/CyLib.c **** 
 895:.\Generated_Source\PSoC4/CyLib.c ****         switch(counterNum)
 896:.\Generated_Source\PSoC4/CyLib.c ****         {
 897:.\Generated_Source\PSoC4/CyLib.c ****             /* WDT Counter 0 */
 898:.\Generated_Source\PSoC4/CyLib.c ****             case 0u:
 899:.\Generated_Source\PSoC4/CyLib.c ****                 regValue = CY_SYS_WDT_CTRLOW_REG & CY_SYS_WDT_LOWER_16BITS_MASK;
 900:.\Generated_Source\PSoC4/CyLib.c ****             break;
 901:.\Generated_Source\PSoC4/CyLib.c **** 
 902:.\Generated_Source\PSoC4/CyLib.c ****             /* WDT Counter 1 */
 903:.\Generated_Source\PSoC4/CyLib.c ****             case 1u:
 904:.\Generated_Source\PSoC4/CyLib.c ****                 regValue = (CY_SYS_WDT_CTRLOW_REG >> CY_SYS_WDT_CNT_MATCH_SHIFT) & CY_SYS_WDT_LOWER
 905:.\Generated_Source\PSoC4/CyLib.c ****             break;
 906:.\Generated_Source\PSoC4/CyLib.c **** 
 907:.\Generated_Source\PSoC4/CyLib.c ****             /* WDT Counter 2 */
 908:.\Generated_Source\PSoC4/CyLib.c ****             case 2u:
 909:.\Generated_Source\PSoC4/CyLib.c ****                 regValue = CY_SYS_WDT_CTRHIGH_REG;
 910:.\Generated_Source\PSoC4/CyLib.c ****             break;
 911:.\Generated_Source\PSoC4/CyLib.c **** 
 912:.\Generated_Source\PSoC4/CyLib.c ****             default:
 913:.\Generated_Source\PSoC4/CyLib.c ****                 CYASSERT(0u != 0u);
 914:.\Generated_Source\PSoC4/CyLib.c ****             break;
 915:.\Generated_Source\PSoC4/CyLib.c ****         }
 916:.\Generated_Source\PSoC4/CyLib.c **** 
 917:.\Generated_Source\PSoC4/CyLib.c ****         return (regValue);
 918:.\Generated_Source\PSoC4/CyLib.c ****     }
 919:.\Generated_Source\PSoC4/CyLib.c **** 
 920:.\Generated_Source\PSoC4/CyLib.c **** 
 921:.\Generated_Source\PSoC4/CyLib.c ****     /*******************************************************************************
 922:.\Generated_Source\PSoC4/CyLib.c ****     * Function Name: CySysWdtGetInterruptSource
 923:.\Generated_Source\PSoC4/CyLib.c ****     ********************************************************************************
 924:.\Generated_Source\PSoC4/CyLib.c ****     *
 925:.\Generated_Source\PSoC4/CyLib.c ****     * Summary:
 926:.\Generated_Source\PSoC4/CyLib.c ****     *   Reads a mask containing all the WDT counters interrupts that are currently
 927:.\Generated_Source\PSoC4/CyLib.c ****     *   set by hardware, if corresponding mode is selected.
 928:.\Generated_Source\PSoC4/CyLib.c ****     *
 929:.\Generated_Source\PSoC4/CyLib.c ****     * Parameters:
 930:.\Generated_Source\PSoC4/CyLib.c ****     *   None
 931:.\Generated_Source\PSoC4/CyLib.c ****     *
 932:.\Generated_Source\PSoC4/CyLib.c ****     * Return:
 933:.\Generated_Source\PSoC4/CyLib.c ****     *   Mask of interrupts set.
 934:.\Generated_Source\PSoC4/CyLib.c ****     *   Define                    Counter
 935:.\Generated_Source\PSoC4/CyLib.c ****     *   CY_SYS_WDT_COUNTER0_INT    0
 936:.\Generated_Source\PSoC4/CyLib.c ****     *   CY_SYS_WDT_COUNTER1_INT    1
 937:.\Generated_Source\PSoC4/CyLib.c ****     *   CY_SYS_WDT_COUNTER2_INT    2
 938:.\Generated_Source\PSoC4/CyLib.c ****     *
 939:.\Generated_Source\PSoC4/CyLib.c ****     *******************************************************************************/
 940:.\Generated_Source\PSoC4/CyLib.c ****     uint32 CySysWdtGetInterruptSource(void)
 941:.\Generated_Source\PSoC4/CyLib.c ****     {
 942:.\Generated_Source\PSoC4/CyLib.c ****         return (CY_SYS_WDT_CONTROL_REG & (CY_SYS_WDT_COUNTER0_INT | CY_SYS_WDT_COUNTER1_INT | CY_SY
 943:.\Generated_Source\PSoC4/CyLib.c ****     }
 944:.\Generated_Source\PSoC4/CyLib.c **** 
 945:.\Generated_Source\PSoC4/CyLib.c **** 
 946:.\Generated_Source\PSoC4/CyLib.c ****     /*******************************************************************************
 947:.\Generated_Source\PSoC4/CyLib.c ****     * Function Name: CySysWdtClearInterrupt
 948:.\Generated_Source\PSoC4/CyLib.c ****     ********************************************************************************
ARM GAS  C:\Users\Steve\AppData\Local\Temp\ccc4U1xk.s 			page 24


 949:.\Generated_Source\PSoC4/CyLib.c ****     *
 950:.\Generated_Source\PSoC4/CyLib.c ****     * Summary:
 951:.\Generated_Source\PSoC4/CyLib.c ****     *   Clears all WDT counter interrupts set in the mask. Calling this API also
 952:.\Generated_Source\PSoC4/CyLib.c ****     *   prevents Reset from happening when counter mode is set to generate
 953:.\Generated_Source\PSoC4/CyLib.c ****     *   3 interrupts and then reset device.
 954:.\Generated_Source\PSoC4/CyLib.c ****     *   All WDT interrupts are to be cleared by firmware, otherwise interrupts will
 955:.\Generated_Source\PSoC4/CyLib.c ****     *   be generated continuously.
 956:.\Generated_Source\PSoC4/CyLib.c ****     *
 957:.\Generated_Source\PSoC4/CyLib.c ****     * Parameters:
 958:.\Generated_Source\PSoC4/CyLib.c ****     *   counterMask: Mask of all counters to enable
 959:.\Generated_Source\PSoC4/CyLib.c ****     *   Define                    Counter
 960:.\Generated_Source\PSoC4/CyLib.c ****     *   CY_SYS_WDT_COUNTER0_INT    0
 961:.\Generated_Source\PSoC4/CyLib.c ****     *   CY_SYS_WDT_COUNTER1_INT    1
 962:.\Generated_Source\PSoC4/CyLib.c ****     *   CY_SYS_WDT_COUNTER2_INT    2
 963:.\Generated_Source\PSoC4/CyLib.c ****     *
 964:.\Generated_Source\PSoC4/CyLib.c ****     * Return:
 965:.\Generated_Source\PSoC4/CyLib.c ****     *   None
 966:.\Generated_Source\PSoC4/CyLib.c ****     *
 967:.\Generated_Source\PSoC4/CyLib.c ****     * Side effects:
 968:.\Generated_Source\PSoC4/CyLib.c ****     *   This API enables ILO, if it was disabled and temporary removes Watchdog
 969:.\Generated_Source\PSoC4/CyLib.c ****     *   lock, if it was set, and restores lock state, after cleaning WDT interrupts,
 970:.\Generated_Source\PSoC4/CyLib.c ****     *   that are set in mask.
 971:.\Generated_Source\PSoC4/CyLib.c ****     *
 972:.\Generated_Source\PSoC4/CyLib.c ****     *******************************************************************************/
 973:.\Generated_Source\PSoC4/CyLib.c ****     void CySysWdtClearInterrupt(uint32 counterMask)
 974:.\Generated_Source\PSoC4/CyLib.c ****     {
 975:.\Generated_Source\PSoC4/CyLib.c ****         uint8 interruptState;
 976:.\Generated_Source\PSoC4/CyLib.c ****         uint32 wdtLockState;
 977:.\Generated_Source\PSoC4/CyLib.c **** 
 978:.\Generated_Source\PSoC4/CyLib.c ****         interruptState = CyEnterCriticalSection();
 979:.\Generated_Source\PSoC4/CyLib.c **** 
 980:.\Generated_Source\PSoC4/CyLib.c ****         /* Configuring the WDT involves passing control signals between clock domains,
 981:.\Generated_Source\PSoC4/CyLib.c ****         * which requires the ILO to be enabled.
 982:.\Generated_Source\PSoC4/CyLib.c ****         */
 983:.\Generated_Source\PSoC4/CyLib.c ****         if (0u == (CY_SYS_CLK_ILO_CONFIG_REG & CY_SYS_CLK_ILO_CONFIG_ENABLE))
 984:.\Generated_Source\PSoC4/CyLib.c ****         {
 985:.\Generated_Source\PSoC4/CyLib.c ****             CySysClkIloStart();
 986:.\Generated_Source\PSoC4/CyLib.c ****         }
 987:.\Generated_Source\PSoC4/CyLib.c **** 
 988:.\Generated_Source\PSoC4/CyLib.c ****         if ((CY_SYS_CLK_SELECT_REG & (uint32)(CY_SYS_WDT_CLK_LOCK_BITS_MASK)) == CY_SYS_WDT_CLK_LOC
 989:.\Generated_Source\PSoC4/CyLib.c ****         {
 990:.\Generated_Source\PSoC4/CyLib.c ****             wdtLockState = 1u;
 991:.\Generated_Source\PSoC4/CyLib.c **** 
 992:.\Generated_Source\PSoC4/CyLib.c ****             /* Removing WDT lock requires two writes */
 993:.\Generated_Source\PSoC4/CyLib.c ****             CY_SYS_CLK_SELECT_REG = ((CY_SYS_CLK_SELECT_REG & (uint32)(~CY_SYS_WDT_CLK_LOCK_BITS_MA
 994:.\Generated_Source\PSoC4/CyLib.c ****                     CY_SYS_WDT_CLK_LOCK_BIT0);
 995:.\Generated_Source\PSoC4/CyLib.c **** 
 996:.\Generated_Source\PSoC4/CyLib.c ****             CY_SYS_CLK_SELECT_REG = ((CY_SYS_CLK_SELECT_REG & (uint32)(~CY_SYS_WDT_CLK_LOCK_BITS_MA
 997:.\Generated_Source\PSoC4/CyLib.c ****                     CY_SYS_WDT_CLK_LOCK_BIT1);
 998:.\Generated_Source\PSoC4/CyLib.c ****         }
 999:.\Generated_Source\PSoC4/CyLib.c ****         else
1000:.\Generated_Source\PSoC4/CyLib.c ****         {
1001:.\Generated_Source\PSoC4/CyLib.c ****             wdtLockState = 0u;
1002:.\Generated_Source\PSoC4/CyLib.c ****         }
1003:.\Generated_Source\PSoC4/CyLib.c **** 
1004:.\Generated_Source\PSoC4/CyLib.c ****         /* Set the new WDT control register value */
1005:.\Generated_Source\PSoC4/CyLib.c ****         CY_SYS_WDT_CONTROL_REG |= (counterMask & (CY_SYS_WDT_COUNTER0_INT |
ARM GAS  C:\Users\Steve\AppData\Local\Temp\ccc4U1xk.s 			page 25


1006:.\Generated_Source\PSoC4/CyLib.c ****             CY_SYS_WDT_COUNTER1_INT | CY_SYS_WDT_COUNTER2_INT));
1007:.\Generated_Source\PSoC4/CyLib.c **** 
1008:.\Generated_Source\PSoC4/CyLib.c ****         if (1u == wdtLockState)
1009:.\Generated_Source\PSoC4/CyLib.c ****         {
1010:.\Generated_Source\PSoC4/CyLib.c ****             /* CLK_SELECT register's bits 15:14 are WDT_LOCK */
1011:.\Generated_Source\PSoC4/CyLib.c ****             CY_SYS_CLK_SELECT_REG = (CY_SYS_CLK_SELECT_REG & (uint32)(~CY_SYS_WDT_CLK_LOCK_BITS_MAS
1012:.\Generated_Source\PSoC4/CyLib.c ****                      CY_SYS_WDT_CLK_LOCK_BITS_MASK;
1013:.\Generated_Source\PSoC4/CyLib.c ****         }
1014:.\Generated_Source\PSoC4/CyLib.c **** 
1015:.\Generated_Source\PSoC4/CyLib.c ****         CyExitCriticalSection(interruptState);
1016:.\Generated_Source\PSoC4/CyLib.c ****     }
1017:.\Generated_Source\PSoC4/CyLib.c **** 
1018:.\Generated_Source\PSoC4/CyLib.c **** 
1019:.\Generated_Source\PSoC4/CyLib.c ****     /*******************************************************************************
1020:.\Generated_Source\PSoC4/CyLib.c ****     * Function Name: CySysWdtResetCounters
1021:.\Generated_Source\PSoC4/CyLib.c ****     ********************************************************************************
1022:.\Generated_Source\PSoC4/CyLib.c ****     *
1023:.\Generated_Source\PSoC4/CyLib.c ****     * Summary:
1024:.\Generated_Source\PSoC4/CyLib.c ****     *  Resets all WDT counters set in the mask.
1025:.\Generated_Source\PSoC4/CyLib.c ****     *
1026:.\Generated_Source\PSoC4/CyLib.c ****     * Parameters:
1027:.\Generated_Source\PSoC4/CyLib.c ****     *  counterMask: Mask of all counters to reset.
1028:.\Generated_Source\PSoC4/CyLib.c ****     *   Define                       Counter
1029:.\Generated_Source\PSoC4/CyLib.c ****     *   CY_SYS_WDT_COUNTER0_RESET    0
1030:.\Generated_Source\PSoC4/CyLib.c ****     *   CY_SYS_WDT_COUNTER1_RESET    1
1031:.\Generated_Source\PSoC4/CyLib.c ****     *   CY_SYS_WDT_COUNTER2_RESET    2
1032:.\Generated_Source\PSoC4/CyLib.c ****     *
1033:.\Generated_Source\PSoC4/CyLib.c ****     * Return:
1034:.\Generated_Source\PSoC4/CyLib.c ****     *   None
1035:.\Generated_Source\PSoC4/CyLib.c ****     *
1036:.\Generated_Source\PSoC4/CyLib.c ****     * Side effects:
1037:.\Generated_Source\PSoC4/CyLib.c ****     *   This API enables ILO, if it was disabled, this API call will not reset
1038:.\Generated_Source\PSoC4/CyLib.c ****     *   counter values, if Watchdog is locked.
1039:.\Generated_Source\PSoC4/CyLib.c ****     *
1040:.\Generated_Source\PSoC4/CyLib.c ****     *******************************************************************************/
1041:.\Generated_Source\PSoC4/CyLib.c ****     void CySysWdtResetCounters(uint32 countersMask)
1042:.\Generated_Source\PSoC4/CyLib.c ****     {
1043:.\Generated_Source\PSoC4/CyLib.c ****         /* Configuring the WDT involves passing control signals between clock domains,
1044:.\Generated_Source\PSoC4/CyLib.c ****         * which requires the ILO to be enabled.
1045:.\Generated_Source\PSoC4/CyLib.c ****         */
1046:.\Generated_Source\PSoC4/CyLib.c ****         if (0u == (CY_SYS_CLK_ILO_CONFIG_REG & CY_SYS_CLK_ILO_CONFIG_ENABLE))
1047:.\Generated_Source\PSoC4/CyLib.c ****         {
1048:.\Generated_Source\PSoC4/CyLib.c ****             CySysClkIloStart();
1049:.\Generated_Source\PSoC4/CyLib.c ****         }
1050:.\Generated_Source\PSoC4/CyLib.c **** 
1051:.\Generated_Source\PSoC4/CyLib.c ****         /* Set the new WDT reset value */
1052:.\Generated_Source\PSoC4/CyLib.c ****         CY_SYS_WDT_CONTROL_REG |= (countersMask & (CY_SYS_WDT_COUNTER0_RESET |
1053:.\Generated_Source\PSoC4/CyLib.c ****             CY_SYS_WDT_COUNTER1_RESET | CY_SYS_WDT_COUNTER2_RESET));
1054:.\Generated_Source\PSoC4/CyLib.c ****     }
1055:.\Generated_Source\PSoC4/CyLib.c **** 
1056:.\Generated_Source\PSoC4/CyLib.c **** #else
1057:.\Generated_Source\PSoC4/CyLib.c **** 
1058:.\Generated_Source\PSoC4/CyLib.c ****     /*******************************************************************************
1059:.\Generated_Source\PSoC4/CyLib.c ****     * Function Name: CySysClkWriteImoFreq
1060:.\Generated_Source\PSoC4/CyLib.c ****     ********************************************************************************
1061:.\Generated_Source\PSoC4/CyLib.c ****     *
1062:.\Generated_Source\PSoC4/CyLib.c ****     * Summary:
ARM GAS  C:\Users\Steve\AppData\Local\Temp\ccc4U1xk.s 			page 26


1063:.\Generated_Source\PSoC4/CyLib.c ****     *  Sets the frequency of the IMO.
1064:.\Generated_Source\PSoC4/CyLib.c ****     *
1065:.\Generated_Source\PSoC4/CyLib.c ****     * Parameters:
1066:.\Generated_Source\PSoC4/CyLib.c ****     *  freq: Valid range [24-48] with step size equal to 4.
1067:.\Generated_Source\PSoC4/CyLib.c ****     *        Frequency for operation of the IMO.
1068:.\Generated_Source\PSoC4/CyLib.c ****     *  Note: Invalid frequency will be ignored.
1069:.\Generated_Source\PSoC4/CyLib.c ****     *
1070:.\Generated_Source\PSoC4/CyLib.c ****     * Return:
1071:.\Generated_Source\PSoC4/CyLib.c ****     *  None
1072:.\Generated_Source\PSoC4/CyLib.c ****     *
1073:.\Generated_Source\PSoC4/CyLib.c ****     * Side Effects:
1074:.\Generated_Source\PSoC4/CyLib.c ****     *  If the SYSCLK clock frequency increases during device operation, call
1075:.\Generated_Source\PSoC4/CyLib.c ****     *  CySysFlashSetWaitCycles() with the appropriate parameter to adjust the number
1076:.\Generated_Source\PSoC4/CyLib.c ****     *  of clock cycles cache will wait before sampling data coming back from Flash.
1077:.\Generated_Source\PSoC4/CyLib.c ****     *  If the SYSCLK clock frequency decreases, you can call CyFlash_SetWaitCycles()
1078:.\Generated_Source\PSoC4/CyLib.c ****     *  to improve CPU performance. See CySysFlashSetWaitCycles() for more
1079:.\Generated_Source\PSoC4/CyLib.c ****     *  information.
1080:.\Generated_Source\PSoC4/CyLib.c ****     *
1081:.\Generated_Source\PSoC4/CyLib.c ****     *******************************************************************************/
1082:.\Generated_Source\PSoC4/CyLib.c ****     void CySysClkWriteImoFreq(uint32 freq)
1083:.\Generated_Source\PSoC4/CyLib.c ****     {
1084:.\Generated_Source\PSoC4/CyLib.c ****         uint8  interruptState;
1085:.\Generated_Source\PSoC4/CyLib.c **** 
1086:.\Generated_Source\PSoC4/CyLib.c ****         /* IMO frequency constrained to 24MHz-48MHz */
1087:.\Generated_Source\PSoC4/CyLib.c ****         if ((freq >= CY_SYS_CLK_IMO_MIN_FREQ_MHZ) &&
1088:.\Generated_Source\PSoC4/CyLib.c ****             (freq <= CY_SYS_CLK_IMO_MAX_FREQ_MHZ) &&
1089:.\Generated_Source\PSoC4/CyLib.c ****             ((freq & 3u) == 0u))
1090:.\Generated_Source\PSoC4/CyLib.c ****         {
1091:.\Generated_Source\PSoC4/CyLib.c ****             interruptState = CyEnterCriticalSection();
1092:.\Generated_Source\PSoC4/CyLib.c **** 
1093:.\Generated_Source\PSoC4/CyLib.c ****             CY_SYS_CLK_IMO_TRIM1_REG = 0u;
1094:.\Generated_Source\PSoC4/CyLib.c ****             CY_SYS_CLK_IMO_TRIM2_REG = 0u;
1095:.\Generated_Source\PSoC4/CyLib.c ****             CY_SYS_CLK_IMO_SELECT_REG = (freq - CY_SYS_CLK_IMO_MIN_FREQ_MHZ) >> 2u;
1096:.\Generated_Source\PSoC4/CyLib.c ****             CY_SYS_CLK_IMO_TRIM3_REG = CY_SFLASH_IMO_TCTRIM_REG(freq - CY_SYS_CLK_IMO_MIN_FREQ_MHZ)
1097:.\Generated_Source\PSoC4/CyLib.c ****             CY_SYS_CLK_IMO_TRIM1_REG = CY_SFLASH_IMO_TRIM_REG(freq - CY_SYS_CLK_IMO_MIN_FREQ_MHZ);
1098:.\Generated_Source\PSoC4/CyLib.c **** 
1099:.\Generated_Source\PSoC4/CyLib.c ****             CyExitCriticalSection(interruptState);
1100:.\Generated_Source\PSoC4/CyLib.c ****         }
1101:.\Generated_Source\PSoC4/CyLib.c ****         else
1102:.\Generated_Source\PSoC4/CyLib.c ****         {
1103:.\Generated_Source\PSoC4/CyLib.c ****             /* Halt CPU in debug mode if new frequency is invalid */
1104:.\Generated_Source\PSoC4/CyLib.c ****             CYASSERT(0u != 0u);
1105:.\Generated_Source\PSoC4/CyLib.c ****         }
1106:.\Generated_Source\PSoC4/CyLib.c ****     }
1107:.\Generated_Source\PSoC4/CyLib.c **** 
1108:.\Generated_Source\PSoC4/CyLib.c **** 
1109:.\Generated_Source\PSoC4/CyLib.c ****     /*******************************************************************************
1110:.\Generated_Source\PSoC4/CyLib.c ****     * Function Name: CySysWdtReadEnabledStatus
1111:.\Generated_Source\PSoC4/CyLib.c ****     ********************************************************************************
1112:.\Generated_Source\PSoC4/CyLib.c ****     *
1113:.\Generated_Source\PSoC4/CyLib.c ****     * Summary:
1114:.\Generated_Source\PSoC4/CyLib.c ****     *  Reads the enabled staus WDT counter.
1115:.\Generated_Source\PSoC4/CyLib.c ****     *
1116:.\Generated_Source\PSoC4/CyLib.c ****     * Parameters:
1117:.\Generated_Source\PSoC4/CyLib.c ****     *  None
1118:.\Generated_Source\PSoC4/CyLib.c ****     *
1119:.\Generated_Source\PSoC4/CyLib.c ****     * Return:
ARM GAS  C:\Users\Steve\AppData\Local\Temp\ccc4U1xk.s 			page 27


1120:.\Generated_Source\PSoC4/CyLib.c ****     *  Status of WDT counter:
1121:.\Generated_Source\PSoC4/CyLib.c ****     *   0 - counter is disabled
1122:.\Generated_Source\PSoC4/CyLib.c ****     *   1 - counter is enabled
1123:.\Generated_Source\PSoC4/CyLib.c ****     *
1124:.\Generated_Source\PSoC4/CyLib.c ****     * Side Effects:
1125:.\Generated_Source\PSoC4/CyLib.c ****     *  None
1126:.\Generated_Source\PSoC4/CyLib.c ****     *
1127:.\Generated_Source\PSoC4/CyLib.c ****     *******************************************************************************/
1128:.\Generated_Source\PSoC4/CyLib.c ****     uint32 CySysWdtReadEnabledStatus(void)
1129:.\Generated_Source\PSoC4/CyLib.c ****     {
1130:.\Generated_Source\PSoC4/CyLib.c ****         return ((CY_SYS_WDT_DISABLE_KEY_REG == CY_SYS_WDT_KEY) ? 0u : 1u);
1131:.\Generated_Source\PSoC4/CyLib.c ****     }
1132:.\Generated_Source\PSoC4/CyLib.c **** 
1133:.\Generated_Source\PSoC4/CyLib.c **** 
1134:.\Generated_Source\PSoC4/CyLib.c ****     /*******************************************************************************
1135:.\Generated_Source\PSoC4/CyLib.c ****     * Function Name: CySysWdtEnable
1136:.\Generated_Source\PSoC4/CyLib.c ****     ********************************************************************************
1137:.\Generated_Source\PSoC4/CyLib.c ****     *
1138:.\Generated_Source\PSoC4/CyLib.c ****     * Summary:
1139:.\Generated_Source\PSoC4/CyLib.c ****     *  Enables the WDT counter.
1140:.\Generated_Source\PSoC4/CyLib.c ****     *
1141:.\Generated_Source\PSoC4/CyLib.c ****     * Parameters:
1142:.\Generated_Source\PSoC4/CyLib.c ****     *  None
1143:.\Generated_Source\PSoC4/CyLib.c ****     *
1144:.\Generated_Source\PSoC4/CyLib.c ****     * Return:
1145:.\Generated_Source\PSoC4/CyLib.c ****     *  None
1146:.\Generated_Source\PSoC4/CyLib.c ****     *
1147:.\Generated_Source\PSoC4/CyLib.c ****     * Side Effects:
1148:.\Generated_Source\PSoC4/CyLib.c ****     *  This API enables ILO, if it was disabled.
1149:.\Generated_Source\PSoC4/CyLib.c ****     *
1150:.\Generated_Source\PSoC4/CyLib.c ****     *******************************************************************************/
1151:.\Generated_Source\PSoC4/CyLib.c ****     void CySysWdtEnable(void)
1152:.\Generated_Source\PSoC4/CyLib.c ****     {
1153:.\Generated_Source\PSoC4/CyLib.c ****         /* Configuring the WDT involves passing control signals between clock domains,
1154:.\Generated_Source\PSoC4/CyLib.c ****         * which requires the ILO to be enabled.
1155:.\Generated_Source\PSoC4/CyLib.c ****         */
1156:.\Generated_Source\PSoC4/CyLib.c ****         if (0u == (CY_SYS_CLK_ILO_CONFIG_REG & CY_SYS_CLK_ILO_CONFIG_ENABLE))
1157:.\Generated_Source\PSoC4/CyLib.c ****         {
1158:.\Generated_Source\PSoC4/CyLib.c ****             CySysClkIloStart();
1159:.\Generated_Source\PSoC4/CyLib.c ****         }
1160:.\Generated_Source\PSoC4/CyLib.c **** 
1161:.\Generated_Source\PSoC4/CyLib.c ****         CY_SYS_WDT_DISABLE_KEY_REG = 0u;
1162:.\Generated_Source\PSoC4/CyLib.c ****     }
1163:.\Generated_Source\PSoC4/CyLib.c **** 
1164:.\Generated_Source\PSoC4/CyLib.c **** 
1165:.\Generated_Source\PSoC4/CyLib.c ****     /*******************************************************************************
1166:.\Generated_Source\PSoC4/CyLib.c ****     * Function Name: CySysWdtDisable
1167:.\Generated_Source\PSoC4/CyLib.c ****     ********************************************************************************
1168:.\Generated_Source\PSoC4/CyLib.c ****     *
1169:.\Generated_Source\PSoC4/CyLib.c ****     * Summary:
1170:.\Generated_Source\PSoC4/CyLib.c ****     *  Disables the WDT counter.
1171:.\Generated_Source\PSoC4/CyLib.c ****     *
1172:.\Generated_Source\PSoC4/CyLib.c ****     * Parameters:
1173:.\Generated_Source\PSoC4/CyLib.c ****     *  None
1174:.\Generated_Source\PSoC4/CyLib.c ****     *
1175:.\Generated_Source\PSoC4/CyLib.c ****     * Return:
1176:.\Generated_Source\PSoC4/CyLib.c ****     *  None
ARM GAS  C:\Users\Steve\AppData\Local\Temp\ccc4U1xk.s 			page 28


1177:.\Generated_Source\PSoC4/CyLib.c ****     *
1178:.\Generated_Source\PSoC4/CyLib.c ****     * Side Effects:
1179:.\Generated_Source\PSoC4/CyLib.c ****     *  In order to disable ILO clock WDT counter should be disabled.
1180:.\Generated_Source\PSoC4/CyLib.c ****     *
1181:.\Generated_Source\PSoC4/CyLib.c ****     *******************************************************************************/
1182:.\Generated_Source\PSoC4/CyLib.c ****     void CySysWdtDisable(void)
1183:.\Generated_Source\PSoC4/CyLib.c ****     {
1184:.\Generated_Source\PSoC4/CyLib.c ****         CY_SYS_WDT_DISABLE_KEY_REG = CY_SYS_WDT_KEY;
1185:.\Generated_Source\PSoC4/CyLib.c ****     }
1186:.\Generated_Source\PSoC4/CyLib.c **** 
1187:.\Generated_Source\PSoC4/CyLib.c **** 
1188:.\Generated_Source\PSoC4/CyLib.c ****     /*******************************************************************************
1189:.\Generated_Source\PSoC4/CyLib.c ****     * Function Name: CySysWdtWriteMatch
1190:.\Generated_Source\PSoC4/CyLib.c ****     ********************************************************************************
1191:.\Generated_Source\PSoC4/CyLib.c ****     *
1192:.\Generated_Source\PSoC4/CyLib.c ****     * Summary:
1193:.\Generated_Source\PSoC4/CyLib.c ****     *  Configures the WDT counter match comparison value.
1194:.\Generated_Source\PSoC4/CyLib.c ****     *
1195:.\Generated_Source\PSoC4/CyLib.c ****     * Parameters:
1196:.\Generated_Source\PSoC4/CyLib.c ****     *  match:
1197:.\Generated_Source\PSoC4/CyLib.c ****     *   Valid range [0-65535]. Value to be used to match against the counter.
1198:.\Generated_Source\PSoC4/CyLib.c ****     *
1199:.\Generated_Source\PSoC4/CyLib.c ****     * Return:
1200:.\Generated_Source\PSoC4/CyLib.c ****     *  None
1201:.\Generated_Source\PSoC4/CyLib.c ****     *
1202:.\Generated_Source\PSoC4/CyLib.c ****     * Side Effects:
1203:.\Generated_Source\PSoC4/CyLib.c ****     *  This API enables ILO, if it was disabled.
1204:.\Generated_Source\PSoC4/CyLib.c ****     *
1205:.\Generated_Source\PSoC4/CyLib.c ****     *******************************************************************************/
1206:.\Generated_Source\PSoC4/CyLib.c ****     void CySysWdtWriteMatch(uint32 match)
1207:.\Generated_Source\PSoC4/CyLib.c ****     {
1208:.\Generated_Source\PSoC4/CyLib.c ****         /* Configuring the WDT involves passing control signals between clock domains,
1209:.\Generated_Source\PSoC4/CyLib.c ****         * which requires the ILO to be enabled.
1210:.\Generated_Source\PSoC4/CyLib.c ****         */
1211:.\Generated_Source\PSoC4/CyLib.c ****         if (0u == (CY_SYS_CLK_ILO_CONFIG_REG & CY_SYS_CLK_ILO_CONFIG_ENABLE))
1212:.\Generated_Source\PSoC4/CyLib.c ****         {
1213:.\Generated_Source\PSoC4/CyLib.c ****             CySysClkIloStart();
1214:.\Generated_Source\PSoC4/CyLib.c ****         }
1215:.\Generated_Source\PSoC4/CyLib.c **** 
1216:.\Generated_Source\PSoC4/CyLib.c ****         CY_SYS_WDT_MATCH_REG = (CY_SYS_WDT_MATCH_REG & (uint32)(~CY_SYS_WDT_MATCH_MASK)) | match;
1217:.\Generated_Source\PSoC4/CyLib.c ****     }
1218:.\Generated_Source\PSoC4/CyLib.c **** 
1219:.\Generated_Source\PSoC4/CyLib.c **** 
1220:.\Generated_Source\PSoC4/CyLib.c ****     /*******************************************************************************
1221:.\Generated_Source\PSoC4/CyLib.c ****     * Function Name: CySysWdtReadMatch
1222:.\Generated_Source\PSoC4/CyLib.c ****     ********************************************************************************
1223:.\Generated_Source\PSoC4/CyLib.c ****     *
1224:.\Generated_Source\PSoC4/CyLib.c ****     * Summary:
1225:.\Generated_Source\PSoC4/CyLib.c ****     *  Reads the WDT counter match comparison value.
1226:.\Generated_Source\PSoC4/CyLib.c ****     *
1227:.\Generated_Source\PSoC4/CyLib.c ****     * Parameters:
1228:.\Generated_Source\PSoC4/CyLib.c ****     *  None
1229:.\Generated_Source\PSoC4/CyLib.c ****     *
1230:.\Generated_Source\PSoC4/CyLib.c ****     * Return:
1231:.\Generated_Source\PSoC4/CyLib.c ****     *  Counter match value
1232:.\Generated_Source\PSoC4/CyLib.c ****     *
1233:.\Generated_Source\PSoC4/CyLib.c ****     * Side Effects:
ARM GAS  C:\Users\Steve\AppData\Local\Temp\ccc4U1xk.s 			page 29


1234:.\Generated_Source\PSoC4/CyLib.c ****     *  None
1235:.\Generated_Source\PSoC4/CyLib.c ****     *
1236:.\Generated_Source\PSoC4/CyLib.c ****     *******************************************************************************/
1237:.\Generated_Source\PSoC4/CyLib.c ****     uint32 CySysWdtReadMatch(void)
1238:.\Generated_Source\PSoC4/CyLib.c ****     {
1239:.\Generated_Source\PSoC4/CyLib.c ****         return (CY_SYS_WDT_MATCH_REG & CY_SYS_WDT_MATCH_MASK);
1240:.\Generated_Source\PSoC4/CyLib.c ****     }
1241:.\Generated_Source\PSoC4/CyLib.c **** 
1242:.\Generated_Source\PSoC4/CyLib.c **** 
1243:.\Generated_Source\PSoC4/CyLib.c ****     /*******************************************************************************
1244:.\Generated_Source\PSoC4/CyLib.c ****     * Function Name: CySysWdtReadCount
1245:.\Generated_Source\PSoC4/CyLib.c ****     ********************************************************************************
1246:.\Generated_Source\PSoC4/CyLib.c ****     *
1247:.\Generated_Source\PSoC4/CyLib.c ****     * Summary:
1248:.\Generated_Source\PSoC4/CyLib.c ****     *  Reads the current WDT counter value.
1249:.\Generated_Source\PSoC4/CyLib.c ****     *
1250:.\Generated_Source\PSoC4/CyLib.c ****     * Parameters:
1251:.\Generated_Source\PSoC4/CyLib.c ****     *  None
1252:.\Generated_Source\PSoC4/CyLib.c ****     *
1253:.\Generated_Source\PSoC4/CyLib.c ****     * Return:
1254:.\Generated_Source\PSoC4/CyLib.c ****     *  Live counter value
1255:.\Generated_Source\PSoC4/CyLib.c ****     *
1256:.\Generated_Source\PSoC4/CyLib.c ****     * Side Effects:
1257:.\Generated_Source\PSoC4/CyLib.c ****     *  None
1258:.\Generated_Source\PSoC4/CyLib.c ****     *
1259:.\Generated_Source\PSoC4/CyLib.c ****     *******************************************************************************/
1260:.\Generated_Source\PSoC4/CyLib.c ****     uint32 CySysWdtReadCount(void)
1261:.\Generated_Source\PSoC4/CyLib.c ****     {
1262:.\Generated_Source\PSoC4/CyLib.c ****         return ((uint32)CY_SYS_WDT_COUNTER_REG);
1263:.\Generated_Source\PSoC4/CyLib.c ****     }
1264:.\Generated_Source\PSoC4/CyLib.c **** 
1265:.\Generated_Source\PSoC4/CyLib.c **** 
1266:.\Generated_Source\PSoC4/CyLib.c ****     /*******************************************************************************
1267:.\Generated_Source\PSoC4/CyLib.c ****     * Function Name: CySysWdtWriteIgnoreBits
1268:.\Generated_Source\PSoC4/CyLib.c ****     ********************************************************************************
1269:.\Generated_Source\PSoC4/CyLib.c ****     *
1270:.\Generated_Source\PSoC4/CyLib.c ****     * Summary:
1271:.\Generated_Source\PSoC4/CyLib.c ****     *  Configures the number of MSB bits of the watchdog timer that are not
1272:.\Generated_Source\PSoC4/CyLib.c ****     *  checked against match.
1273:.\Generated_Source\PSoC4/CyLib.c ****     *
1274:.\Generated_Source\PSoC4/CyLib.c ****     * Parameters:
1275:.\Generated_Source\PSoC4/CyLib.c ****     *  bitsNum:
1276:.\Generated_Source\PSoC4/CyLib.c ****     *   Valid range [0-15]. Number of MSB bits.
1277:.\Generated_Source\PSoC4/CyLib.c ****     *
1278:.\Generated_Source\PSoC4/CyLib.c ****     * Return:
1279:.\Generated_Source\PSoC4/CyLib.c ****     *  None
1280:.\Generated_Source\PSoC4/CyLib.c ****     *
1281:.\Generated_Source\PSoC4/CyLib.c ****     * Side Effects:
1282:.\Generated_Source\PSoC4/CyLib.c ****     *  The value of bitsNum provides control over the time-to-reset of the watchdog
1283:.\Generated_Source\PSoC4/CyLib.c ****     *  (which happens after 3 successive matches).
1284:.\Generated_Source\PSoC4/CyLib.c ****     *
1285:.\Generated_Source\PSoC4/CyLib.c ****     *******************************************************************************/
1286:.\Generated_Source\PSoC4/CyLib.c ****     void CySysWdtWriteIgnoreBits(uint32 bitsNum)
1287:.\Generated_Source\PSoC4/CyLib.c ****     {
1288:.\Generated_Source\PSoC4/CyLib.c ****         bitsNum = ((uint32)(bitsNum << 16u) & CY_SYS_WDT_IGNORE_BITS_MASK);
1289:.\Generated_Source\PSoC4/CyLib.c ****         CY_SYS_WDT_MATCH_REG = (CY_SYS_WDT_MATCH_REG & (uint32)(~CY_SYS_WDT_IGNORE_BITS_MASK)) | bi
1290:.\Generated_Source\PSoC4/CyLib.c ****     }
ARM GAS  C:\Users\Steve\AppData\Local\Temp\ccc4U1xk.s 			page 30


1291:.\Generated_Source\PSoC4/CyLib.c **** 
1292:.\Generated_Source\PSoC4/CyLib.c **** 
1293:.\Generated_Source\PSoC4/CyLib.c ****     /*******************************************************************************
1294:.\Generated_Source\PSoC4/CyLib.c ****     * Function Name: CySysWdtReadIgnoreBits
1295:.\Generated_Source\PSoC4/CyLib.c ****     ********************************************************************************
1296:.\Generated_Source\PSoC4/CyLib.c ****     *
1297:.\Generated_Source\PSoC4/CyLib.c ****     * Summary:
1298:.\Generated_Source\PSoC4/CyLib.c ****     *  Reads the number of MSB bits of the watchdog timer that are not
1299:.\Generated_Source\PSoC4/CyLib.c ****     *  checked against match.
1300:.\Generated_Source\PSoC4/CyLib.c ****     *
1301:.\Generated_Source\PSoC4/CyLib.c ****     * Parameters:
1302:.\Generated_Source\PSoC4/CyLib.c ****     *  None
1303:.\Generated_Source\PSoC4/CyLib.c ****     *
1304:.\Generated_Source\PSoC4/CyLib.c ****     * Return:
1305:.\Generated_Source\PSoC4/CyLib.c ****     *  Number of MSB bits.
1306:.\Generated_Source\PSoC4/CyLib.c ****     *
1307:.\Generated_Source\PSoC4/CyLib.c ****     * Side Effects:
1308:.\Generated_Source\PSoC4/CyLib.c ****     *  None
1309:.\Generated_Source\PSoC4/CyLib.c ****     *
1310:.\Generated_Source\PSoC4/CyLib.c ****     *******************************************************************************/
1311:.\Generated_Source\PSoC4/CyLib.c ****     uint32 CySysWdtReadIgnoreBits(void)
1312:.\Generated_Source\PSoC4/CyLib.c ****     {
1313:.\Generated_Source\PSoC4/CyLib.c ****         return((uint32)(CY_SYS_WDT_MATCH_REG  >> 16u) & CY_SYS_WDT_IGNORE_BITS_MASK);
1314:.\Generated_Source\PSoC4/CyLib.c ****     }
1315:.\Generated_Source\PSoC4/CyLib.c **** 
1316:.\Generated_Source\PSoC4/CyLib.c **** 
1317:.\Generated_Source\PSoC4/CyLib.c ****     /*******************************************************************************
1318:.\Generated_Source\PSoC4/CyLib.c ****     * Function Name: CySysWdtClearInterrupt
1319:.\Generated_Source\PSoC4/CyLib.c ****     ********************************************************************************
1320:.\Generated_Source\PSoC4/CyLib.c ****     *
1321:.\Generated_Source\PSoC4/CyLib.c ****     * Summary:
1322:.\Generated_Source\PSoC4/CyLib.c ****     *  Cleans WDT match flag, which is set every time WDT counter reaches WDT match
1323:.\Generated_Source\PSoC4/CyLib.c ****     *  value.
1324:.\Generated_Source\PSoC4/CyLib.c ****     *
1325:.\Generated_Source\PSoC4/CyLib.c ****     * Parameters:
1326:.\Generated_Source\PSoC4/CyLib.c ****     *  None
1327:.\Generated_Source\PSoC4/CyLib.c ****     *
1328:.\Generated_Source\PSoC4/CyLib.c ****     * Return:
1329:.\Generated_Source\PSoC4/CyLib.c ****     *  None
1330:.\Generated_Source\PSoC4/CyLib.c ****     *
1331:.\Generated_Source\PSoC4/CyLib.c ****     * Side Effects:
1332:.\Generated_Source\PSoC4/CyLib.c ****     *  Clearing this bit also feeds the watch dog.  Missing 2 interrupts in a row
1333:.\Generated_Source\PSoC4/CyLib.c ****     *  will generate brown-out reset.
1334:.\Generated_Source\PSoC4/CyLib.c ****     *
1335:.\Generated_Source\PSoC4/CyLib.c ****     *******************************************************************************/
1336:.\Generated_Source\PSoC4/CyLib.c ****     void CySysWdtClearInterrupt(void)
1337:.\Generated_Source\PSoC4/CyLib.c ****     {
1338:.\Generated_Source\PSoC4/CyLib.c ****         CY_SYS_SRSS_INTR_REG |= CY_SYS_WDT_LOWER_BIT_MASK;
1339:.\Generated_Source\PSoC4/CyLib.c ****     }
1340:.\Generated_Source\PSoC4/CyLib.c **** 
1341:.\Generated_Source\PSoC4/CyLib.c **** 
1342:.\Generated_Source\PSoC4/CyLib.c ****     /*******************************************************************************
1343:.\Generated_Source\PSoC4/CyLib.c ****     * Function Name: CySysWdtMaskInterrupt
1344:.\Generated_Source\PSoC4/CyLib.c ****     ********************************************************************************
1345:.\Generated_Source\PSoC4/CyLib.c ****     *
1346:.\Generated_Source\PSoC4/CyLib.c ****     * Summary:
1347:.\Generated_Source\PSoC4/CyLib.c ****     *  After masking interrupts from WDT, they are not passed to CPU.
ARM GAS  C:\Users\Steve\AppData\Local\Temp\ccc4U1xk.s 			page 31


1348:.\Generated_Source\PSoC4/CyLib.c ****     *
1349:.\Generated_Source\PSoC4/CyLib.c ****     * Parameters:
1350:.\Generated_Source\PSoC4/CyLib.c ****     *  None
1351:.\Generated_Source\PSoC4/CyLib.c ****     *
1352:.\Generated_Source\PSoC4/CyLib.c ****     * Return:
1353:.\Generated_Source\PSoC4/CyLib.c ****     *  None
1354:.\Generated_Source\PSoC4/CyLib.c ****     *
1355:.\Generated_Source\PSoC4/CyLib.c ****     * Side Effects:
1356:.\Generated_Source\PSoC4/CyLib.c ****     *  This API does notdisable the WDT reset generation on 2 missed interrupts.
1357:.\Generated_Source\PSoC4/CyLib.c ****     *
1358:.\Generated_Source\PSoC4/CyLib.c ****     *******************************************************************************/
1359:.\Generated_Source\PSoC4/CyLib.c ****     void CySysWdtMaskInterrupt(void)
1360:.\Generated_Source\PSoC4/CyLib.c ****     {
1361:.\Generated_Source\PSoC4/CyLib.c ****         CY_SYS_SRSS_INTR_MASK_REG &= (uint32)(~CY_SYS_WDT_LOWER_BIT_MASK);
1362:.\Generated_Source\PSoC4/CyLib.c ****     }
1363:.\Generated_Source\PSoC4/CyLib.c **** 
1364:.\Generated_Source\PSoC4/CyLib.c **** 
1365:.\Generated_Source\PSoC4/CyLib.c ****     /*******************************************************************************
1366:.\Generated_Source\PSoC4/CyLib.c ****     * Function Name: CySysWdtUnmaskInterrupt
1367:.\Generated_Source\PSoC4/CyLib.c ****     ********************************************************************************
1368:.\Generated_Source\PSoC4/CyLib.c ****     *
1369:.\Generated_Source\PSoC4/CyLib.c ****     * Summary:
1370:.\Generated_Source\PSoC4/CyLib.c ****     *  Unmasks WDT interrupts.
1371:.\Generated_Source\PSoC4/CyLib.c ****     *
1372:.\Generated_Source\PSoC4/CyLib.c ****     * Parameters:
1373:.\Generated_Source\PSoC4/CyLib.c ****     *  None
1374:.\Generated_Source\PSoC4/CyLib.c ****     *
1375:.\Generated_Source\PSoC4/CyLib.c ****     * Return:
1376:.\Generated_Source\PSoC4/CyLib.c ****     *  None
1377:.\Generated_Source\PSoC4/CyLib.c ****     *
1378:.\Generated_Source\PSoC4/CyLib.c ****     * Side Effects:
1379:.\Generated_Source\PSoC4/CyLib.c ****     *  None
1380:.\Generated_Source\PSoC4/CyLib.c ****     *
1381:.\Generated_Source\PSoC4/CyLib.c ****     *******************************************************************************/
1382:.\Generated_Source\PSoC4/CyLib.c ****     void CySysWdtUnmaskInterrupt(void)
1383:.\Generated_Source\PSoC4/CyLib.c ****     {
1384:.\Generated_Source\PSoC4/CyLib.c ****         CY_SYS_SRSS_INTR_MASK_REG |= CY_SYS_WDT_LOWER_BIT_MASK;
1385:.\Generated_Source\PSoC4/CyLib.c ****     }
1386:.\Generated_Source\PSoC4/CyLib.c **** 
1387:.\Generated_Source\PSoC4/CyLib.c **** #endif /* (CY_PSOC4A) */
1388:.\Generated_Source\PSoC4/CyLib.c **** 
1389:.\Generated_Source\PSoC4/CyLib.c **** 
1390:.\Generated_Source\PSoC4/CyLib.c **** #if(CY_PSOC4A)
1391:.\Generated_Source\PSoC4/CyLib.c **** 
1392:.\Generated_Source\PSoC4/CyLib.c ****     /*******************************************************************************
1393:.\Generated_Source\PSoC4/CyLib.c ****     * Function Name: CySysLvdEnable
1394:.\Generated_Source\PSoC4/CyLib.c ****     ********************************************************************************
1395:.\Generated_Source\PSoC4/CyLib.c ****     *
1396:.\Generated_Source\PSoC4/CyLib.c ****     * Summary:
1397:.\Generated_Source\PSoC4/CyLib.c ****     *  Enables the output of the low-voltage monitor when Vddd is at or below the
1398:.\Generated_Source\PSoC4/CyLib.c ****     *  trip point, configures device to generate an interrupt, and sets the voltage
1399:.\Generated_Source\PSoC4/CyLib.c ****     *  trip level.
1400:.\Generated_Source\PSoC4/CyLib.c ****     *
1401:.\Generated_Source\PSoC4/CyLib.c ****     * Parameters:
1402:.\Generated_Source\PSoC4/CyLib.c ****     *  threshold: Threshold selection for Low Voltage Detect circuit.
1403:.\Generated_Source\PSoC4/CyLib.c ****     *  Threshold variation is +/- 2.5% from these typical voltage choices.
1404:.\Generated_Source\PSoC4/CyLib.c ****     *         Define                     Voltage threshold
ARM GAS  C:\Users\Steve\AppData\Local\Temp\ccc4U1xk.s 			page 32


1405:.\Generated_Source\PSoC4/CyLib.c ****     *    CY_LVD_THRESHOLD_1_75_V       1.7500 V
1406:.\Generated_Source\PSoC4/CyLib.c ****     *    CY_LVD_THRESHOLD_1_80_V       1.8000 V
1407:.\Generated_Source\PSoC4/CyLib.c ****     *    CY_LVD_THRESHOLD_1_90_V       1.9000 V
1408:.\Generated_Source\PSoC4/CyLib.c ****     *    CY_LVD_THRESHOLD_2_00_V       2.0000 V
1409:.\Generated_Source\PSoC4/CyLib.c ****     *    CY_LVD_THRESHOLD_2_10_V       2.1000 V
1410:.\Generated_Source\PSoC4/CyLib.c ****     *    CY_LVD_THRESHOLD_2_20_V       2.2000 V
1411:.\Generated_Source\PSoC4/CyLib.c ****     *    CY_LVD_THRESHOLD_2_30_V       2.3000 V
1412:.\Generated_Source\PSoC4/CyLib.c ****     *    CY_LVD_THRESHOLD_2_40_V       2.4000 V
1413:.\Generated_Source\PSoC4/CyLib.c ****     *    CY_LVD_THRESHOLD_2_50_V       2.5000 V
1414:.\Generated_Source\PSoC4/CyLib.c ****     *    CY_LVD_THRESHOLD_2_60_V       2.6000 V
1415:.\Generated_Source\PSoC4/CyLib.c ****     *    CY_LVD_THRESHOLD_2_70_V       2.7000 V
1416:.\Generated_Source\PSoC4/CyLib.c ****     *    CY_LVD_THRESHOLD_2_80_V       2.8000 V
1417:.\Generated_Source\PSoC4/CyLib.c ****     *    CY_LVD_THRESHOLD_2_90_V       2.9000 V
1418:.\Generated_Source\PSoC4/CyLib.c ****     *    CY_LVD_THRESHOLD_3_00_V       3.0000 V
1419:.\Generated_Source\PSoC4/CyLib.c ****     *    CY_LVD_THRESHOLD_3_20_V       3.2000 V
1420:.\Generated_Source\PSoC4/CyLib.c ****     *    CY_LVD_THRESHOLD_4_50_V       4.5000 V
1421:.\Generated_Source\PSoC4/CyLib.c ****     *
1422:.\Generated_Source\PSoC4/CyLib.c ****     * Return:
1423:.\Generated_Source\PSoC4/CyLib.c ****     *  None
1424:.\Generated_Source\PSoC4/CyLib.c ****     *
1425:.\Generated_Source\PSoC4/CyLib.c ****     *******************************************************************************/
1426:.\Generated_Source\PSoC4/CyLib.c ****     void CySysLvdEnable(uint32 threshold)
1427:.\Generated_Source\PSoC4/CyLib.c ****     {
1428:.\Generated_Source\PSoC4/CyLib.c ****         /* Set threshold */
1429:.\Generated_Source\PSoC4/CyLib.c ****         CY_LVD_PWR_VMON_CONFIG_REG = (CY_LVD_PWR_VMON_CONFIG_REG & ~CY_LVD_PWR_VMON_CONFIG_LVD_SEL_
1430:.\Generated_Source\PSoC4/CyLib.c ****                 ((threshold << CY_LVD_PWR_VMON_CONFIG_LVD_SEL_SHIFT) & CY_LVD_PWR_VMON_CONFIG_LVD_S
1431:.\Generated_Source\PSoC4/CyLib.c **** 
1432:.\Generated_Source\PSoC4/CyLib.c ****         CY_LVD_PWR_VMON_CONFIG_REG |= CY_LVD_PWR_VMON_CONFIG_LVD_EN;
1433:.\Generated_Source\PSoC4/CyLib.c ****         CY_LVD_PWR_INTR_MASK_REG   |= CY_LVD_PROPAGATE_INT_TO_CPU;
1434:.\Generated_Source\PSoC4/CyLib.c ****     }
1435:.\Generated_Source\PSoC4/CyLib.c **** 
1436:.\Generated_Source\PSoC4/CyLib.c **** 
1437:.\Generated_Source\PSoC4/CyLib.c ****     /*******************************************************************************
1438:.\Generated_Source\PSoC4/CyLib.c ****     * Function Name: CySysLvdDisable
1439:.\Generated_Source\PSoC4/CyLib.c ****     ********************************************************************************
1440:.\Generated_Source\PSoC4/CyLib.c ****     *
1441:.\Generated_Source\PSoC4/CyLib.c ****     * Summary:
1442:.\Generated_Source\PSoC4/CyLib.c ****     *  Disables the low voltage detection. Low voltage interrupt is disabled.
1443:.\Generated_Source\PSoC4/CyLib.c ****     *
1444:.\Generated_Source\PSoC4/CyLib.c ****     * Parameters:
1445:.\Generated_Source\PSoC4/CyLib.c ****     *  None
1446:.\Generated_Source\PSoC4/CyLib.c ****     *
1447:.\Generated_Source\PSoC4/CyLib.c ****     * Return:
1448:.\Generated_Source\PSoC4/CyLib.c ****     *  None
1449:.\Generated_Source\PSoC4/CyLib.c ****     *
1450:.\Generated_Source\PSoC4/CyLib.c ****     *******************************************************************************/
1451:.\Generated_Source\PSoC4/CyLib.c ****     void CySysLvdDisable(void)
1452:.\Generated_Source\PSoC4/CyLib.c ****     {
1453:.\Generated_Source\PSoC4/CyLib.c ****         CY_LVD_PWR_INTR_MASK_REG   &= ~CY_LVD_PROPAGATE_INT_TO_CPU;
1454:.\Generated_Source\PSoC4/CyLib.c ****         CY_LVD_PWR_VMON_CONFIG_REG &= ~CY_LVD_PWR_VMON_CONFIG_LVD_EN;
1455:.\Generated_Source\PSoC4/CyLib.c ****     }
1456:.\Generated_Source\PSoC4/CyLib.c **** 
1457:.\Generated_Source\PSoC4/CyLib.c **** 
1458:.\Generated_Source\PSoC4/CyLib.c ****     /*******************************************************************************
1459:.\Generated_Source\PSoC4/CyLib.c ****     * Function Name: CySysLvdGetInterruptSource
1460:.\Generated_Source\PSoC4/CyLib.c ****     ********************************************************************************
1461:.\Generated_Source\PSoC4/CyLib.c ****     *
ARM GAS  C:\Users\Steve\AppData\Local\Temp\ccc4U1xk.s 			page 33


1462:.\Generated_Source\PSoC4/CyLib.c ****     * Summary:
1463:.\Generated_Source\PSoC4/CyLib.c ****     *  Gets the low voltage detection interrupt status (without clearing).
1464:.\Generated_Source\PSoC4/CyLib.c ****     *
1465:.\Generated_Source\PSoC4/CyLib.c ****     * Parameters:
1466:.\Generated_Source\PSoC4/CyLib.c ****     *  None
1467:.\Generated_Source\PSoC4/CyLib.c ****     *
1468:.\Generated_Source\PSoC4/CyLib.c ****     * Return:
1469:.\Generated_Source\PSoC4/CyLib.c ****     *  Interrupt request value:
1470:.\Generated_Source\PSoC4/CyLib.c ****     *    CY_SYS_LVD_INT - Indicates an Low Voltage Detect interrupt
1471:.\Generated_Source\PSoC4/CyLib.c ****     *
1472:.\Generated_Source\PSoC4/CyLib.c ****     *******************************************************************************/
1473:.\Generated_Source\PSoC4/CyLib.c ****     uint32 CySysLvdGetInterruptSource(void)
1474:.\Generated_Source\PSoC4/CyLib.c ****     {
1475:.\Generated_Source\PSoC4/CyLib.c ****         return (CY_LVD_PWR_INTR_REG & CY_SYS_LVD_INT);
1476:.\Generated_Source\PSoC4/CyLib.c ****     }
1477:.\Generated_Source\PSoC4/CyLib.c **** 
1478:.\Generated_Source\PSoC4/CyLib.c **** 
1479:.\Generated_Source\PSoC4/CyLib.c ****     /*******************************************************************************
1480:.\Generated_Source\PSoC4/CyLib.c ****     * Function Name: CySysLvdClearInterrupt
1481:.\Generated_Source\PSoC4/CyLib.c ****     ********************************************************************************
1482:.\Generated_Source\PSoC4/CyLib.c ****     *
1483:.\Generated_Source\PSoC4/CyLib.c ****     * Summary:
1484:.\Generated_Source\PSoC4/CyLib.c ****     *  Clears the low voltage detection interrupt status.
1485:.\Generated_Source\PSoC4/CyLib.c ****     *
1486:.\Generated_Source\PSoC4/CyLib.c ****     * Parameters:
1487:.\Generated_Source\PSoC4/CyLib.c ****     *  None
1488:.\Generated_Source\PSoC4/CyLib.c ****     *
1489:.\Generated_Source\PSoC4/CyLib.c ****     * Return:
1490:.\Generated_Source\PSoC4/CyLib.c ****     *  None
1491:.\Generated_Source\PSoC4/CyLib.c ****     *
1492:.\Generated_Source\PSoC4/CyLib.c ****     *******************************************************************************/
1493:.\Generated_Source\PSoC4/CyLib.c ****     void CySysLvdClearInterrupt(void)
1494:.\Generated_Source\PSoC4/CyLib.c ****     {
1495:.\Generated_Source\PSoC4/CyLib.c ****         CY_LVD_PWR_INTR_REG = CY_SYS_LVD_INT;
1496:.\Generated_Source\PSoC4/CyLib.c ****     }
1497:.\Generated_Source\PSoC4/CyLib.c **** 
1498:.\Generated_Source\PSoC4/CyLib.c **** #endif /* (CY_PSOC4A) */
1499:.\Generated_Source\PSoC4/CyLib.c **** 
1500:.\Generated_Source\PSoC4/CyLib.c **** 
1501:.\Generated_Source\PSoC4/CyLib.c **** /*******************************************************************************
1502:.\Generated_Source\PSoC4/CyLib.c **** * Function Name: CyDisableInts
1503:.\Generated_Source\PSoC4/CyLib.c **** ********************************************************************************
1504:.\Generated_Source\PSoC4/CyLib.c **** *
1505:.\Generated_Source\PSoC4/CyLib.c **** * Summary:
1506:.\Generated_Source\PSoC4/CyLib.c **** *  Disables all interrupts.
1507:.\Generated_Source\PSoC4/CyLib.c **** *
1508:.\Generated_Source\PSoC4/CyLib.c **** * Parameters:
1509:.\Generated_Source\PSoC4/CyLib.c **** *  None
1510:.\Generated_Source\PSoC4/CyLib.c **** *
1511:.\Generated_Source\PSoC4/CyLib.c **** * Return:
1512:.\Generated_Source\PSoC4/CyLib.c **** *  32 bit mask of previously enabled interrupts.
1513:.\Generated_Source\PSoC4/CyLib.c **** *
1514:.\Generated_Source\PSoC4/CyLib.c **** *******************************************************************************/
1515:.\Generated_Source\PSoC4/CyLib.c **** uint32 CyDisableInts(void)
1516:.\Generated_Source\PSoC4/CyLib.c **** {
1517:.\Generated_Source\PSoC4/CyLib.c ****     uint32 intState;
1518:.\Generated_Source\PSoC4/CyLib.c **** 
ARM GAS  C:\Users\Steve\AppData\Local\Temp\ccc4U1xk.s 			page 34


1519:.\Generated_Source\PSoC4/CyLib.c ****     /* Get the curreent interrupt state. */
1520:.\Generated_Source\PSoC4/CyLib.c ****     intState = CY_INT_CLEAR_REG;
1521:.\Generated_Source\PSoC4/CyLib.c **** 
1522:.\Generated_Source\PSoC4/CyLib.c ****     /* Disable all of the interrupts. */
1523:.\Generated_Source\PSoC4/CyLib.c ****     CY_INT_CLEAR_REG = CY_INT_CLEAR_DISABLE_ALL;
1524:.\Generated_Source\PSoC4/CyLib.c **** 
1525:.\Generated_Source\PSoC4/CyLib.c ****     return (intState);
1526:.\Generated_Source\PSoC4/CyLib.c **** }
1527:.\Generated_Source\PSoC4/CyLib.c **** 
1528:.\Generated_Source\PSoC4/CyLib.c **** 
1529:.\Generated_Source\PSoC4/CyLib.c **** /*******************************************************************************
1530:.\Generated_Source\PSoC4/CyLib.c **** * Function Name: CyEnableInts
1531:.\Generated_Source\PSoC4/CyLib.c **** ********************************************************************************
1532:.\Generated_Source\PSoC4/CyLib.c **** *
1533:.\Generated_Source\PSoC4/CyLib.c **** * Summary:
1534:.\Generated_Source\PSoC4/CyLib.c **** *  Enables interrupts to a given state.
1535:.\Generated_Source\PSoC4/CyLib.c **** *
1536:.\Generated_Source\PSoC4/CyLib.c **** * Parameters:
1537:.\Generated_Source\PSoC4/CyLib.c **** *   mask, 32 bit mask of interrupts to enable.
1538:.\Generated_Source\PSoC4/CyLib.c **** *
1539:.\Generated_Source\PSoC4/CyLib.c **** * Return:
1540:.\Generated_Source\PSoC4/CyLib.c **** *  None
1541:.\Generated_Source\PSoC4/CyLib.c **** *
1542:.\Generated_Source\PSoC4/CyLib.c **** *******************************************************************************/
1543:.\Generated_Source\PSoC4/CyLib.c **** void CyEnableInts(uint32 mask)
1544:.\Generated_Source\PSoC4/CyLib.c **** {
1545:.\Generated_Source\PSoC4/CyLib.c ****     CY_INT_ENABLE_REG = mask;
1546:.\Generated_Source\PSoC4/CyLib.c **** }
1547:.\Generated_Source\PSoC4/CyLib.c **** 
1548:.\Generated_Source\PSoC4/CyLib.c **** 
1549:.\Generated_Source\PSoC4/CyLib.c **** /*******************************************************************************
1550:.\Generated_Source\PSoC4/CyLib.c **** * Function Name: CyIntSetSysVector
1551:.\Generated_Source\PSoC4/CyLib.c **** ********************************************************************************
1552:.\Generated_Source\PSoC4/CyLib.c **** *
1553:.\Generated_Source\PSoC4/CyLib.c **** * Summary:
1554:.\Generated_Source\PSoC4/CyLib.c **** *  Sets the interrupt vector of the specified system interrupt number. These
1555:.\Generated_Source\PSoC4/CyLib.c **** *  interrupts are for SysTick, PendSV and others.
1556:.\Generated_Source\PSoC4/CyLib.c **** *
1557:.\Generated_Source\PSoC4/CyLib.c **** * Parameters:
1558:.\Generated_Source\PSoC4/CyLib.c **** *  number: Interrupt number, valid range [0-15].
1559:.\Generated_Source\PSoC4/CyLib.c **** *  address: Pointer to an interrupt service routine.
1560:.\Generated_Source\PSoC4/CyLib.c **** *
1561:.\Generated_Source\PSoC4/CyLib.c **** * Return:
1562:.\Generated_Source\PSoC4/CyLib.c **** *  The old ISR vector at this location.
1563:.\Generated_Source\PSoC4/CyLib.c **** *
1564:.\Generated_Source\PSoC4/CyLib.c **** *******************************************************************************/
1565:.\Generated_Source\PSoC4/CyLib.c **** cyisraddress CyIntSetSysVector(uint8 number, cyisraddress address)
1566:.\Generated_Source\PSoC4/CyLib.c **** {
1567:.\Generated_Source\PSoC4/CyLib.c ****     cyisraddress oldIsr;
1568:.\Generated_Source\PSoC4/CyLib.c ****     cyisraddress *ramVectorTable = (cyisraddress *) CY_INT_VECT_TABLE;
1569:.\Generated_Source\PSoC4/CyLib.c **** 
1570:.\Generated_Source\PSoC4/CyLib.c ****     CYASSERT(number < CY_INT_IRQ_BASE);
1571:.\Generated_Source\PSoC4/CyLib.c **** 
1572:.\Generated_Source\PSoC4/CyLib.c ****     /* Save old Interrupt service routine. */
1573:.\Generated_Source\PSoC4/CyLib.c ****     oldIsr = ramVectorTable[number];
1574:.\Generated_Source\PSoC4/CyLib.c **** 
1575:.\Generated_Source\PSoC4/CyLib.c ****     /* Set new Interrupt service routine. */
ARM GAS  C:\Users\Steve\AppData\Local\Temp\ccc4U1xk.s 			page 35


1576:.\Generated_Source\PSoC4/CyLib.c ****     ramVectorTable[number] = address;
1577:.\Generated_Source\PSoC4/CyLib.c **** 
1578:.\Generated_Source\PSoC4/CyLib.c ****     return(oldIsr);
1579:.\Generated_Source\PSoC4/CyLib.c **** }
1580:.\Generated_Source\PSoC4/CyLib.c **** 
1581:.\Generated_Source\PSoC4/CyLib.c **** 
1582:.\Generated_Source\PSoC4/CyLib.c **** /*******************************************************************************
1583:.\Generated_Source\PSoC4/CyLib.c **** * Function Name: CyIntGetSysVector
1584:.\Generated_Source\PSoC4/CyLib.c **** ********************************************************************************
1585:.\Generated_Source\PSoC4/CyLib.c **** *
1586:.\Generated_Source\PSoC4/CyLib.c **** * Summary:
1587:.\Generated_Source\PSoC4/CyLib.c **** *   Gets the interrupt vector of the specified system interrupt number. These
1588:.\Generated_Source\PSoC4/CyLib.c **** *   interrupts are for SysTick, PendSV and others.
1589:.\Generated_Source\PSoC4/CyLib.c **** *
1590:.\Generated_Source\PSoC4/CyLib.c **** * Parameters:
1591:.\Generated_Source\PSoC4/CyLib.c **** *   number: The interrupt number, valid range [0-15].
1592:.\Generated_Source\PSoC4/CyLib.c **** *
1593:.\Generated_Source\PSoC4/CyLib.c **** * Return:
1594:.\Generated_Source\PSoC4/CyLib.c **** *   Address of the ISR in the interrupt vector table.
1595:.\Generated_Source\PSoC4/CyLib.c **** *
1596:.\Generated_Source\PSoC4/CyLib.c **** *******************************************************************************/
1597:.\Generated_Source\PSoC4/CyLib.c **** cyisraddress CyIntGetSysVector(uint8 number)
1598:.\Generated_Source\PSoC4/CyLib.c **** {
1599:.\Generated_Source\PSoC4/CyLib.c ****     cyisraddress *ramVectorTable = (cyisraddress *) CY_INT_VECT_TABLE;
1600:.\Generated_Source\PSoC4/CyLib.c **** 
1601:.\Generated_Source\PSoC4/CyLib.c ****     CYASSERT(number < CY_INT_IRQ_BASE);
1602:.\Generated_Source\PSoC4/CyLib.c **** 
1603:.\Generated_Source\PSoC4/CyLib.c ****     return(ramVectorTable[number]);
1604:.\Generated_Source\PSoC4/CyLib.c **** }
1605:.\Generated_Source\PSoC4/CyLib.c **** 
1606:.\Generated_Source\PSoC4/CyLib.c **** 
1607:.\Generated_Source\PSoC4/CyLib.c **** /*******************************************************************************
1608:.\Generated_Source\PSoC4/CyLib.c **** * Function Name: CyIntSetVector
1609:.\Generated_Source\PSoC4/CyLib.c **** ********************************************************************************
1610:.\Generated_Source\PSoC4/CyLib.c **** *
1611:.\Generated_Source\PSoC4/CyLib.c **** * Summary:
1612:.\Generated_Source\PSoC4/CyLib.c **** *  Sets the interrupt vector of the specified interrupt number.
1613:.\Generated_Source\PSoC4/CyLib.c **** *
1614:.\Generated_Source\PSoC4/CyLib.c **** * Parameters:
1615:.\Generated_Source\PSoC4/CyLib.c **** *  number: Valid range [0-31].  Interrupt number
1616:.\Generated_Source\PSoC4/CyLib.c **** *  address: Pointer to an interrupt service routine
1617:.\Generated_Source\PSoC4/CyLib.c **** *
1618:.\Generated_Source\PSoC4/CyLib.c **** * Return:
1619:.\Generated_Source\PSoC4/CyLib.c **** *   Previous interrupt vector value.
1620:.\Generated_Source\PSoC4/CyLib.c **** *
1621:.\Generated_Source\PSoC4/CyLib.c **** *******************************************************************************/
1622:.\Generated_Source\PSoC4/CyLib.c **** cyisraddress CyIntSetVector(uint8 number, cyisraddress address)
1623:.\Generated_Source\PSoC4/CyLib.c **** {
1624:.\Generated_Source\PSoC4/CyLib.c ****     cyisraddress oldIsr;
1625:.\Generated_Source\PSoC4/CyLib.c ****     cyisraddress *ramVectorTable = (cyisraddress *) CY_INT_VECT_TABLE;
1626:.\Generated_Source\PSoC4/CyLib.c **** 
1627:.\Generated_Source\PSoC4/CyLib.c ****     CYASSERT(number < CY_NUM_INTERRUPTS);
1628:.\Generated_Source\PSoC4/CyLib.c **** 
1629:.\Generated_Source\PSoC4/CyLib.c ****     /* Save old Interrupt service routine. */
1630:.\Generated_Source\PSoC4/CyLib.c ****     oldIsr = ramVectorTable[CY_INT_IRQ_BASE + number];
1631:.\Generated_Source\PSoC4/CyLib.c **** 
1632:.\Generated_Source\PSoC4/CyLib.c ****     /* Set new Interrupt service routine. */
ARM GAS  C:\Users\Steve\AppData\Local\Temp\ccc4U1xk.s 			page 36


1633:.\Generated_Source\PSoC4/CyLib.c ****     ramVectorTable[CY_INT_IRQ_BASE + number] = address;
1634:.\Generated_Source\PSoC4/CyLib.c **** 
1635:.\Generated_Source\PSoC4/CyLib.c ****     return(oldIsr);
1636:.\Generated_Source\PSoC4/CyLib.c **** }
1637:.\Generated_Source\PSoC4/CyLib.c **** 
1638:.\Generated_Source\PSoC4/CyLib.c **** 
1639:.\Generated_Source\PSoC4/CyLib.c **** /*******************************************************************************
1640:.\Generated_Source\PSoC4/CyLib.c **** * Function Name: CyIntGetVector
1641:.\Generated_Source\PSoC4/CyLib.c **** ********************************************************************************
1642:.\Generated_Source\PSoC4/CyLib.c **** *
1643:.\Generated_Source\PSoC4/CyLib.c **** * Summary:
1644:.\Generated_Source\PSoC4/CyLib.c **** *  Gets the interrupt vector of the specified interrupt number.
1645:.\Generated_Source\PSoC4/CyLib.c **** *
1646:.\Generated_Source\PSoC4/CyLib.c **** * Parameters:
1647:.\Generated_Source\PSoC4/CyLib.c **** *  number: Valid range [0-31].  Interrupt number
1648:.\Generated_Source\PSoC4/CyLib.c **** *
1649:.\Generated_Source\PSoC4/CyLib.c **** * Return:
1650:.\Generated_Source\PSoC4/CyLib.c **** *  Address of the ISR in the interrupt vector table.
1651:.\Generated_Source\PSoC4/CyLib.c **** *
1652:.\Generated_Source\PSoC4/CyLib.c **** *******************************************************************************/
1653:.\Generated_Source\PSoC4/CyLib.c **** cyisraddress CyIntGetVector(uint8 number)
1654:.\Generated_Source\PSoC4/CyLib.c **** {
1655:.\Generated_Source\PSoC4/CyLib.c ****     cyisraddress *ramVectorTable = (cyisraddress *) CY_INT_VECT_TABLE;
1656:.\Generated_Source\PSoC4/CyLib.c **** 
1657:.\Generated_Source\PSoC4/CyLib.c ****     CYASSERT(number < CY_NUM_INTERRUPTS);
1658:.\Generated_Source\PSoC4/CyLib.c **** 
1659:.\Generated_Source\PSoC4/CyLib.c ****     return (ramVectorTable[CY_INT_IRQ_BASE + number]);
1660:.\Generated_Source\PSoC4/CyLib.c **** }
1661:.\Generated_Source\PSoC4/CyLib.c **** 
1662:.\Generated_Source\PSoC4/CyLib.c **** /*******************************************************************************
1663:.\Generated_Source\PSoC4/CyLib.c **** * Function Name: CyIntSetPriority
1664:.\Generated_Source\PSoC4/CyLib.c **** ********************************************************************************
1665:.\Generated_Source\PSoC4/CyLib.c **** *
1666:.\Generated_Source\PSoC4/CyLib.c **** * Summary:
1667:.\Generated_Source\PSoC4/CyLib.c **** *  Sets the priority of the interrupt.
1668:.\Generated_Source\PSoC4/CyLib.c **** *
1669:.\Generated_Source\PSoC4/CyLib.c **** * Parameters:
1670:.\Generated_Source\PSoC4/CyLib.c **** *  priority: Priority of the interrupt. 0 - 3, 0 being the highest.
1671:.\Generated_Source\PSoC4/CyLib.c **** *  number: The number of the interrupt, 0 - 31.
1672:.\Generated_Source\PSoC4/CyLib.c **** *
1673:.\Generated_Source\PSoC4/CyLib.c **** * Return:
1674:.\Generated_Source\PSoC4/CyLib.c **** *  None
1675:.\Generated_Source\PSoC4/CyLib.c **** *
1676:.\Generated_Source\PSoC4/CyLib.c **** *******************************************************************************/
1677:.\Generated_Source\PSoC4/CyLib.c **** void CyIntSetPriority(uint8 number, uint8 priority)
1678:.\Generated_Source\PSoC4/CyLib.c **** {
1679:.\Generated_Source\PSoC4/CyLib.c ****     uint8 interruptState;
1680:.\Generated_Source\PSoC4/CyLib.c ****     uint32 shift;
1681:.\Generated_Source\PSoC4/CyLib.c ****     uint32 value;
1682:.\Generated_Source\PSoC4/CyLib.c **** 
1683:.\Generated_Source\PSoC4/CyLib.c ****     CYASSERT(priority <= CY_MIN_PRIORITY);
1684:.\Generated_Source\PSoC4/CyLib.c ****     CYASSERT(number < CY_NUM_INTERRUPTS);
1685:.\Generated_Source\PSoC4/CyLib.c **** 
1686:.\Generated_Source\PSoC4/CyLib.c ****     shift = CY_INT_PRIORITY_SHIFT(number);
1687:.\Generated_Source\PSoC4/CyLib.c **** 
1688:.\Generated_Source\PSoC4/CyLib.c ****     interruptState = CyEnterCriticalSection();
1689:.\Generated_Source\PSoC4/CyLib.c **** 
ARM GAS  C:\Users\Steve\AppData\Local\Temp\ccc4U1xk.s 			page 37


1690:.\Generated_Source\PSoC4/CyLib.c ****     value = CY_INT_PRIORITY_REG(number);
1691:.\Generated_Source\PSoC4/CyLib.c ****     value &= (uint32)(~((uint32)(CY_INT_PRIORITY_MASK << shift)));
1692:.\Generated_Source\PSoC4/CyLib.c ****     value |= ((uint32)priority << shift);
1693:.\Generated_Source\PSoC4/CyLib.c ****     CY_INT_PRIORITY_REG(number) = value;
1694:.\Generated_Source\PSoC4/CyLib.c **** 
1695:.\Generated_Source\PSoC4/CyLib.c ****     CyExitCriticalSection(interruptState);
1696:.\Generated_Source\PSoC4/CyLib.c **** }
1697:.\Generated_Source\PSoC4/CyLib.c **** 
1698:.\Generated_Source\PSoC4/CyLib.c **** 
1699:.\Generated_Source\PSoC4/CyLib.c **** /*******************************************************************************
1700:.\Generated_Source\PSoC4/CyLib.c **** * Function Name: CyIntGetPriority
1701:.\Generated_Source\PSoC4/CyLib.c **** ********************************************************************************
1702:.\Generated_Source\PSoC4/CyLib.c **** *
1703:.\Generated_Source\PSoC4/CyLib.c **** * Summary:
1704:.\Generated_Source\PSoC4/CyLib.c **** *  Gets the priority of the interrupt.
1705:.\Generated_Source\PSoC4/CyLib.c **** *
1706:.\Generated_Source\PSoC4/CyLib.c **** * Parameters:
1707:.\Generated_Source\PSoC4/CyLib.c **** *  number: The number of the interrupt, 0 - 31.
1708:.\Generated_Source\PSoC4/CyLib.c **** *
1709:.\Generated_Source\PSoC4/CyLib.c **** * Return:
1710:.\Generated_Source\PSoC4/CyLib.c **** *  Priority of the interrupt. 0 - 3, 0 being the highest.
1711:.\Generated_Source\PSoC4/CyLib.c **** *
1712:.\Generated_Source\PSoC4/CyLib.c **** *******************************************************************************/
1713:.\Generated_Source\PSoC4/CyLib.c **** uint8 CyIntGetPriority(uint8 number)
1714:.\Generated_Source\PSoC4/CyLib.c **** {
1715:.\Generated_Source\PSoC4/CyLib.c ****     uint8 priority;
1716:.\Generated_Source\PSoC4/CyLib.c **** 
1717:.\Generated_Source\PSoC4/CyLib.c ****     CYASSERT(number < CY_NUM_INTERRUPTS);
1718:.\Generated_Source\PSoC4/CyLib.c **** 
1719:.\Generated_Source\PSoC4/CyLib.c ****     priority = (uint8) (CY_INT_PRIORITY_REG(number) >> CY_INT_PRIORITY_SHIFT(number));
1720:.\Generated_Source\PSoC4/CyLib.c **** 
1721:.\Generated_Source\PSoC4/CyLib.c ****     return (priority & (uint8) CY_INT_PRIORITY_MASK);
1722:.\Generated_Source\PSoC4/CyLib.c **** }
1723:.\Generated_Source\PSoC4/CyLib.c **** 
1724:.\Generated_Source\PSoC4/CyLib.c **** 
1725:.\Generated_Source\PSoC4/CyLib.c **** /*******************************************************************************
1726:.\Generated_Source\PSoC4/CyLib.c **** * Function Name: CyIntEnable
1727:.\Generated_Source\PSoC4/CyLib.c **** ********************************************************************************
1728:.\Generated_Source\PSoC4/CyLib.c **** *
1729:.\Generated_Source\PSoC4/CyLib.c **** * Summary:
1730:.\Generated_Source\PSoC4/CyLib.c **** *  Enables the specified interrupt number.
1731:.\Generated_Source\PSoC4/CyLib.c **** *
1732:.\Generated_Source\PSoC4/CyLib.c **** * Parameters:
1733:.\Generated_Source\PSoC4/CyLib.c **** *  number: Valid range [0-31].  Interrupt number
1734:.\Generated_Source\PSoC4/CyLib.c **** *
1735:.\Generated_Source\PSoC4/CyLib.c **** * Return:
1736:.\Generated_Source\PSoC4/CyLib.c **** *  None
1737:.\Generated_Source\PSoC4/CyLib.c **** *
1738:.\Generated_Source\PSoC4/CyLib.c **** *******************************************************************************/
1739:.\Generated_Source\PSoC4/CyLib.c **** void CyIntEnable(uint8 number)
1740:.\Generated_Source\PSoC4/CyLib.c **** {
1741:.\Generated_Source\PSoC4/CyLib.c ****     CY_INT_ENABLE_REG = ((uint32) 0x01u << (CY_INT_ENABLE_RANGE_MASK & number));
1742:.\Generated_Source\PSoC4/CyLib.c **** }
1743:.\Generated_Source\PSoC4/CyLib.c **** 
1744:.\Generated_Source\PSoC4/CyLib.c **** 
1745:.\Generated_Source\PSoC4/CyLib.c **** /*******************************************************************************
1746:.\Generated_Source\PSoC4/CyLib.c **** * Function Name: CyIntGetState
ARM GAS  C:\Users\Steve\AppData\Local\Temp\ccc4U1xk.s 			page 38


1747:.\Generated_Source\PSoC4/CyLib.c **** ********************************************************************************
1748:.\Generated_Source\PSoC4/CyLib.c **** *
1749:.\Generated_Source\PSoC4/CyLib.c **** * Summary:
1750:.\Generated_Source\PSoC4/CyLib.c **** *  Gets the enable state of the specified interrupt number.
1751:.\Generated_Source\PSoC4/CyLib.c **** *
1752:.\Generated_Source\PSoC4/CyLib.c **** * Parameters:
1753:.\Generated_Source\PSoC4/CyLib.c **** *  number: Valid range [0-31].  Interrupt number.
1754:.\Generated_Source\PSoC4/CyLib.c **** *
1755:.\Generated_Source\PSoC4/CyLib.c **** * Return:
1756:.\Generated_Source\PSoC4/CyLib.c **** *  Enable status: 1 if enabled, 0 if disabled
1757:.\Generated_Source\PSoC4/CyLib.c **** *
1758:.\Generated_Source\PSoC4/CyLib.c **** *******************************************************************************/
1759:.\Generated_Source\PSoC4/CyLib.c **** uint8 CyIntGetState(uint8 number)
1760:.\Generated_Source\PSoC4/CyLib.c **** {
1761:.\Generated_Source\PSoC4/CyLib.c ****     /* Get the state of the interrupt. */
1762:.\Generated_Source\PSoC4/CyLib.c ****     return ((0u != (CY_INT_ENABLE_REG & ((uint32) 0x01u << (CY_INT_ENABLE_RANGE_MASK & number)))) ?
1763:.\Generated_Source\PSoC4/CyLib.c **** }
1764:.\Generated_Source\PSoC4/CyLib.c **** 
1765:.\Generated_Source\PSoC4/CyLib.c **** 
1766:.\Generated_Source\PSoC4/CyLib.c **** /*******************************************************************************
1767:.\Generated_Source\PSoC4/CyLib.c **** * Function Name: CyIntDisable
1768:.\Generated_Source\PSoC4/CyLib.c **** ********************************************************************************
1769:.\Generated_Source\PSoC4/CyLib.c **** *
1770:.\Generated_Source\PSoC4/CyLib.c **** * Summary:
1771:.\Generated_Source\PSoC4/CyLib.c **** *   Disables the specified interrupt number.
1772:.\Generated_Source\PSoC4/CyLib.c **** *
1773:.\Generated_Source\PSoC4/CyLib.c **** * Parameters:
1774:.\Generated_Source\PSoC4/CyLib.c **** *   number: Valid range [0-31].  Interrupt number.
1775:.\Generated_Source\PSoC4/CyLib.c **** *
1776:.\Generated_Source\PSoC4/CyLib.c **** * Return:
1777:.\Generated_Source\PSoC4/CyLib.c **** *  None
1778:.\Generated_Source\PSoC4/CyLib.c **** *
1779:.\Generated_Source\PSoC4/CyLib.c **** *******************************************************************************/
1780:.\Generated_Source\PSoC4/CyLib.c **** void CyIntDisable(uint8 number)
1781:.\Generated_Source\PSoC4/CyLib.c **** {
1782:.\Generated_Source\PSoC4/CyLib.c ****     CY_INT_CLEAR_REG = ((uint32) 0x01u << (CY_INT_ENABLE_RANGE_MASK & number));
1783:.\Generated_Source\PSoC4/CyLib.c **** }
1784:.\Generated_Source\PSoC4/CyLib.c **** 
1785:.\Generated_Source\PSoC4/CyLib.c **** /*******************************************************************************
1786:.\Generated_Source\PSoC4/CyLib.c **** * Function Name: CyIntSetPending
1787:.\Generated_Source\PSoC4/CyLib.c **** ********************************************************************************
1788:.\Generated_Source\PSoC4/CyLib.c **** *
1789:.\Generated_Source\PSoC4/CyLib.c **** * Summary:
1790:.\Generated_Source\PSoC4/CyLib.c **** *  Forces the specified interrupt number to be pending.
1791:.\Generated_Source\PSoC4/CyLib.c **** *
1792:.\Generated_Source\PSoC4/CyLib.c **** * Parameters:
1793:.\Generated_Source\PSoC4/CyLib.c **** *  number: Valid range [0-31].  Interrupt number.
1794:.\Generated_Source\PSoC4/CyLib.c **** *
1795:.\Generated_Source\PSoC4/CyLib.c **** * Return:
1796:.\Generated_Source\PSoC4/CyLib.c **** *  None
1797:.\Generated_Source\PSoC4/CyLib.c **** *
1798:.\Generated_Source\PSoC4/CyLib.c **** *******************************************************************************/
1799:.\Generated_Source\PSoC4/CyLib.c **** void CyIntSetPending(uint8 number)
1800:.\Generated_Source\PSoC4/CyLib.c **** {
1801:.\Generated_Source\PSoC4/CyLib.c ****     CY_INT_SET_PEND_REG = ((uint32) 0x01u << (CY_INT_ENABLE_RANGE_MASK & number));
1802:.\Generated_Source\PSoC4/CyLib.c **** }
1803:.\Generated_Source\PSoC4/CyLib.c **** 
ARM GAS  C:\Users\Steve\AppData\Local\Temp\ccc4U1xk.s 			page 39


1804:.\Generated_Source\PSoC4/CyLib.c **** 
1805:.\Generated_Source\PSoC4/CyLib.c **** /*******************************************************************************
1806:.\Generated_Source\PSoC4/CyLib.c **** * Function Name: CyIntClearPending
1807:.\Generated_Source\PSoC4/CyLib.c **** ********************************************************************************
1808:.\Generated_Source\PSoC4/CyLib.c **** *
1809:.\Generated_Source\PSoC4/CyLib.c **** * Summary:
1810:.\Generated_Source\PSoC4/CyLib.c **** *  Clears any pending interrupt for the specified interrupt number.
1811:.\Generated_Source\PSoC4/CyLib.c **** *
1812:.\Generated_Source\PSoC4/CyLib.c **** * Parameters:
1813:.\Generated_Source\PSoC4/CyLib.c **** *  number: Valid range [0-31].  Interrupt number.
1814:.\Generated_Source\PSoC4/CyLib.c **** *
1815:.\Generated_Source\PSoC4/CyLib.c **** * Return:
1816:.\Generated_Source\PSoC4/CyLib.c **** *  None
1817:.\Generated_Source\PSoC4/CyLib.c **** *
1818:.\Generated_Source\PSoC4/CyLib.c **** *******************************************************************************/
1819:.\Generated_Source\PSoC4/CyLib.c **** void CyIntClearPending(uint8 number)
1820:.\Generated_Source\PSoC4/CyLib.c **** {
1821:.\Generated_Source\PSoC4/CyLib.c ****     CY_INT_CLR_PEND_REG = ((uint32) 0x01u << (CY_INT_ENABLE_RANGE_MASK & number));
1822:.\Generated_Source\PSoC4/CyLib.c **** }
1823:.\Generated_Source\PSoC4/CyLib.c **** 
1824:.\Generated_Source\PSoC4/CyLib.c **** 
1825:.\Generated_Source\PSoC4/CyLib.c **** /*******************************************************************************
1826:.\Generated_Source\PSoC4/CyLib.c **** * Function Name: CyHalt
1827:.\Generated_Source\PSoC4/CyLib.c **** ********************************************************************************
1828:.\Generated_Source\PSoC4/CyLib.c **** *
1829:.\Generated_Source\PSoC4/CyLib.c **** * Summary:
1830:.\Generated_Source\PSoC4/CyLib.c **** *  Halts the CPU.
1831:.\Generated_Source\PSoC4/CyLib.c **** *
1832:.\Generated_Source\PSoC4/CyLib.c **** * Parameters:
1833:.\Generated_Source\PSoC4/CyLib.c **** *  reason: Value to be used during debugging.
1834:.\Generated_Source\PSoC4/CyLib.c **** *
1835:.\Generated_Source\PSoC4/CyLib.c **** * Return:
1836:.\Generated_Source\PSoC4/CyLib.c **** *  None
1837:.\Generated_Source\PSoC4/CyLib.c **** *
1838:.\Generated_Source\PSoC4/CyLib.c **** *******************************************************************************/
1839:.\Generated_Source\PSoC4/CyLib.c **** void CyHalt(uint8 reason)
1840:.\Generated_Source\PSoC4/CyLib.c **** {
1841:.\Generated_Source\PSoC4/CyLib.c ****     if(0u != reason)
1842:.\Generated_Source\PSoC4/CyLib.c ****     {
1843:.\Generated_Source\PSoC4/CyLib.c ****         /* To remove unreferenced local variable warning */
1844:.\Generated_Source\PSoC4/CyLib.c ****     }
1845:.\Generated_Source\PSoC4/CyLib.c **** 
1846:.\Generated_Source\PSoC4/CyLib.c ****     #if defined (__ARMCC_VERSION)
1847:.\Generated_Source\PSoC4/CyLib.c ****         __breakpoint(0x0);
1848:.\Generated_Source\PSoC4/CyLib.c ****     #elif defined(__GNUC__) || defined (__ICCARM__)
1849:.\Generated_Source\PSoC4/CyLib.c ****         __asm("    bkpt    1");
 352              		.loc 1 1849 0
 353              	@ 1849 ".\Generated_Source\PSoC4\CyLib.c" 1
 354 0006 01BE     		    bkpt    1
 355              	@ 0 "" 2
 356              	.LVL10:
 357              		.code	16
 358              	.L29:
 359              	.LBE83:
 360              	.LBE82:
 443:.\Generated_Source\PSoC4/CyLib.c ****         return ((CY_SYS_WDT_CONTROL_REG >> ((CY_SYS_WDT_CNT_SHIFT * counterNum) + CY_SYS_WDT_CNT_ST
 361              		.loc 1 443 0
ARM GAS  C:\Users\Steve\AppData\Local\Temp\ccc4U1xk.s 			page 40


 362 0008 044B     		ldr	r3, .L30
 363 000a C000     		lsl	r0, r0, #3
 364              	.LVL11:
 365 000c 1968     		ldr	r1, [r3]
 366 000e 0130     		add	r0, r0, #1
 367 0010 C140     		lsr	r1, r1, r0
 368 0012 081C     		mov	r0, r1
 369 0014 0122     		mov	r2, #1
 370 0016 1040     		and	r0, r2
 444:.\Generated_Source\PSoC4/CyLib.c ****     }
 371              		.loc 1 444 0
 372              		@ sp needed for prologue
 373 0018 00BD     		pop	{pc}
 374              	.L31:
 375 001a C046     		.align	2
 376              	.L30:
 377 001c 10020B40 		.word	1074463248
 378              		.cfi_endproc
 379              	.LFE9:
 380              		.size	CySysWdtReadEnabledStatus, .-CySysWdtReadEnabledStatus
 381              		.section	.text.CySysWdtWriteMode,"ax",%progbits
 382              		.align	2
 383              		.global	CySysWdtWriteMode
 384              		.code	16
 385              		.thumb_func
 386              		.type	CySysWdtWriteMode, %function
 387              	CySysWdtWriteMode:
 388              	.LFB10:
 476:.\Generated_Source\PSoC4/CyLib.c ****     {
 389              		.loc 1 476 0
 390              		.cfi_startproc
 391              	.LVL12:
 392 0000 30B5     		push	{r4, r5, lr}
 393              	.LCFI4:
 394              		.cfi_def_cfa_offset 12
 395              		.cfi_offset 4, -12
 396              		.cfi_offset 5, -8
 397              		.cfi_offset 14, -4
 479:.\Generated_Source\PSoC4/CyLib.c ****         CYASSERT(counterNum < CY_SYS_WDT_COUNTERS_MAX);
 398              		.loc 1 479 0
 399 0002 0228     		cmp	r0, #2
 400 0004 00D9     		bls	.L33
 401              	.LVL13:
 402              	.LBB84:
 403              	.LBB85:
 404              		.loc 1 1849 0
 405              	@ 1849 ".\Generated_Source\PSoC4\CyLib.c" 1
 406 0006 01BE     		    bkpt    1
 407              	@ 0 "" 2
 408              	.LVL14:
 409              		.code	16
 410              	.L33:
 411              	.LBE85:
 412              	.LBE84:
 484:.\Generated_Source\PSoC4/CyLib.c ****         if (0u == (CY_SYS_CLK_ILO_CONFIG_REG & CY_SYS_CLK_ILO_CONFIG_ENABLE))
 413              		.loc 1 484 0
 414 0008 0F4B     		ldr	r3, .L37
ARM GAS  C:\Users\Steve\AppData\Local\Temp\ccc4U1xk.s 			page 41


 415 000a 1A68     		ldr	r2, [r3]
 416 000c 002A     		cmp	r2, #0
 417 000e 04DB     		blt	.L34
 418              	.LBB86:
 419              	.LBB87:
  86:.\Generated_Source\PSoC4/CyLib.c ****     CY_SYS_CLK_ILO_CONFIG_REG |= CY_SYS_CLK_ILO_CONFIG_ENABLE;
 420              		.loc 1 86 0
 421 0010 1C68     		ldr	r4, [r3]
 422 0012 8025     		mov	r5, #128
 423 0014 2A06     		lsl	r2, r5, #24
 424 0016 2243     		orr	r2, r4
 425 0018 1A60     		str	r2, [r3]
 426              	.L34:
 427              	.LVL15:
 428              	.LBE87:
 429              	.LBE86:
 430              	.LBB88:
 431              	.LBB89:
 442:.\Generated_Source\PSoC4/CyLib.c ****         CYASSERT(counterNum < CY_SYS_WDT_COUNTERS_MAX);
 432              		.loc 1 442 0
 433 001a 0228     		cmp	r0, #2
 434 001c 00D9     		bls	.L35
 435              	.LVL16:
 436              	.LBB90:
 437              	.LBB91:
 438              		.loc 1 1849 0
 439              	@ 1849 ".\Generated_Source\PSoC4\CyLib.c" 1
 440 001e 01BE     		    bkpt    1
 441              	@ 0 "" 2
 442              	.LVL17:
 443              		.code	16
 444              	.L35:
 445              	.LBE91:
 446              	.LBE90:
 443:.\Generated_Source\PSoC4/CyLib.c ****         return ((CY_SYS_WDT_CONTROL_REG >> ((CY_SYS_WDT_CNT_SHIFT * counterNum) + CY_SYS_WDT_CNT_ST
 447              		.loc 1 443 0
 448 0020 0A4B     		ldr	r3, .L37+4
 449 0022 C000     		lsl	r0, r0, #3
 450              	.LVL18:
 451 0024 1C68     		ldr	r4, [r3]
 452 0026 451C     		add	r5, r0, #1
 453 0028 EC40     		lsr	r4, r4, r5
 454 002a 221C     		mov	r2, r4
 455              	.LBE89:
 456              	.LBE88:
 489:.\Generated_Source\PSoC4/CyLib.c ****         if(0u == CySysWdtReadEnabledStatus(counterNum))
 457              		.loc 1 489 0
 458 002c D207     		lsl	r2, r2, #31
 459 002e 0AD4     		bmi	.L32
 491:.\Generated_Source\PSoC4/CyLib.c ****             configRegValue = CY_SYS_WDT_CONFIG_REG &
 460              		.loc 1 491 0
 461 0030 074B     		ldr	r3, .L37+8
 492:.\Generated_Source\PSoC4/CyLib.c ****                                 (uint32)~((uint32)(CY_SYS_WDT_MODE_MASK << (counterNum * CY_SYS_WDT
 462              		.loc 1 492 0
 463 0032 0322     		mov	r2, #3
 491:.\Generated_Source\PSoC4/CyLib.c ****             configRegValue = CY_SYS_WDT_CONFIG_REG &
 464              		.loc 1 491 0
ARM GAS  C:\Users\Steve\AppData\Local\Temp\ccc4U1xk.s 			page 42


 465 0034 1C68     		ldr	r4, [r3]
 492:.\Generated_Source\PSoC4/CyLib.c ****                                 (uint32)~((uint32)(CY_SYS_WDT_MODE_MASK << (counterNum * CY_SYS_WDT
 466              		.loc 1 492 0
 467 0036 151C     		mov	r5, r2
 468 0038 8540     		lsl	r5, r5, r0
 493:.\Generated_Source\PSoC4/CyLib.c ****             configRegValue |= (uint32)((mode & CY_SYS_WDT_MODE_MASK) << (counterNum * CY_SYS_WDT_CN
 469              		.loc 1 493 0
 470 003a 0A40     		and	r2, r1
 491:.\Generated_Source\PSoC4/CyLib.c ****             configRegValue = CY_SYS_WDT_CONFIG_REG &
 471              		.loc 1 491 0
 472 003c AC43     		bic	r4, r5
 473              	.LVL19:
 493:.\Generated_Source\PSoC4/CyLib.c ****             configRegValue |= (uint32)((mode & CY_SYS_WDT_MODE_MASK) << (counterNum * CY_SYS_WDT_CN
 474              		.loc 1 493 0
 475 003e 8240     		lsl	r2, r2, r0
 476 0040 211C     		mov	r1, r4
 477              	.LVL20:
 478 0042 1143     		orr	r1, r2
 479              	.LVL21:
 494:.\Generated_Source\PSoC4/CyLib.c ****             CY_SYS_WDT_CONFIG_REG = configRegValue;
 480              		.loc 1 494 0
 481 0044 1960     		str	r1, [r3]
 482              	.LVL22:
 483              	.L32:
 496:.\Generated_Source\PSoC4/CyLib.c ****     }
 484              		.loc 1 496 0
 485              		@ sp needed for prologue
 486 0046 30BD     		pop	{r4, r5, pc}
 487              	.L38:
 488              		.align	2
 489              	.L37:
 490 0048 04010B40 		.word	1074462980
 491 004c 10020B40 		.word	1074463248
 492 0050 0C020B40 		.word	1074463244
 493              		.cfi_endproc
 494              	.LFE10:
 495              		.size	CySysWdtWriteMode, .-CySysWdtWriteMode
 496              		.section	.text.CySysWdtReadMode,"ax",%progbits
 497              		.align	2
 498              		.global	CySysWdtReadMode
 499              		.code	16
 500              		.thumb_func
 501              		.type	CySysWdtReadMode, %function
 502              	CySysWdtReadMode:
 503              	.LFB11:
 515:.\Generated_Source\PSoC4/CyLib.c ****     {
 504              		.loc 1 515 0
 505              		.cfi_startproc
 506              	.LVL23:
 516:.\Generated_Source\PSoC4/CyLib.c ****         return ((CY_SYS_WDT_CONFIG_REG >> (counterNum * CY_SYS_WDT_CNT_SHIFT)) & CY_SYS_WDT_MODE_MA
 507              		.loc 1 516 0
 508 0000 034B     		ldr	r3, .L40
 509 0002 C000     		lsl	r0, r0, #3
 510              	.LVL24:
 511 0004 1968     		ldr	r1, [r3]
 512 0006 0322     		mov	r2, #3
 513 0008 C140     		lsr	r1, r1, r0
ARM GAS  C:\Users\Steve\AppData\Local\Temp\ccc4U1xk.s 			page 43


 514 000a 081C     		mov	r0, r1
 515 000c 1040     		and	r0, r2
 517:.\Generated_Source\PSoC4/CyLib.c ****     }
 516              		.loc 1 517 0
 517              		@ sp needed for prologue
 518 000e 7047     		bx	lr
 519              	.L41:
 520              		.align	2
 521              	.L40:
 522 0010 0C020B40 		.word	1074463244
 523              		.cfi_endproc
 524              	.LFE11:
 525              		.size	CySysWdtReadMode, .-CySysWdtReadMode
 526              		.section	.text.CySysWdtWriteClearOnMatch,"ax",%progbits
 527              		.align	2
 528              		.global	CySysWdtWriteClearOnMatch
 529              		.code	16
 530              		.thumb_func
 531              		.type	CySysWdtWriteClearOnMatch, %function
 532              	CySysWdtWriteClearOnMatch:
 533              	.LFB12:
 548:.\Generated_Source\PSoC4/CyLib.c ****     {
 534              		.loc 1 548 0
 535              		.cfi_startproc
 536              	.LVL25:
 537 0000 10B5     		push	{r4, lr}
 538              	.LCFI5:
 539              		.cfi_def_cfa_offset 8
 540              		.cfi_offset 4, -8
 541              		.cfi_offset 14, -4
 549:.\Generated_Source\PSoC4/CyLib.c ****         CYASSERT((counterNum == CY_SYS_WDT_COUNTER0) ||
 542              		.loc 1 549 0
 543 0002 0128     		cmp	r0, #1
 544 0004 00D9     		bls	.L43
 545              	.LVL26:
 546              	.LBB92:
 547              	.LBB93:
 548              		.loc 1 1849 0
 549              	@ 1849 ".\Generated_Source\PSoC4\CyLib.c" 1
 550 0006 01BE     		    bkpt    1
 551              	@ 0 "" 2
 552              	.LVL27:
 553              		.code	16
 554              	.L43:
 555              	.LBE93:
 556              	.LBE92:
 555:.\Generated_Source\PSoC4/CyLib.c ****         if (0u == (CY_SYS_CLK_ILO_CONFIG_REG & CY_SYS_CLK_ILO_CONFIG_ENABLE))
 557              		.loc 1 555 0
 558 0008 0C4B     		ldr	r3, .L47
 559 000a 1A68     		ldr	r2, [r3]
 560 000c 002A     		cmp	r2, #0
 561 000e 04DB     		blt	.L44
 562              	.LBB94:
 563              	.LBB95:
  86:.\Generated_Source\PSoC4/CyLib.c ****     CY_SYS_CLK_ILO_CONFIG_REG |= CY_SYS_CLK_ILO_CONFIG_ENABLE;
 564              		.loc 1 86 0
 565 0010 1C68     		ldr	r4, [r3]
ARM GAS  C:\Users\Steve\AppData\Local\Temp\ccc4U1xk.s 			page 44


 566 0012 8022     		mov	r2, #128
 567 0014 1206     		lsl	r2, r2, #24
 568 0016 2243     		orr	r2, r4
 569 0018 1A60     		str	r2, [r3]
 570              	.L44:
 571              	.LVL28:
 572              	.LBE95:
 573              	.LBE94:
 574              	.LBB96:
 575              	.LBB97:
 442:.\Generated_Source\PSoC4/CyLib.c ****         CYASSERT(counterNum < CY_SYS_WDT_COUNTERS_MAX);
 576              		.loc 1 442 0
 577 001a 0228     		cmp	r0, #2
 578 001c 00D9     		bls	.L45
 579              	.LVL29:
 580              	.LBB98:
 581              	.LBB99:
 582              		.loc 1 1849 0
 583              	@ 1849 ".\Generated_Source\PSoC4\CyLib.c" 1
 584 001e 01BE     		    bkpt    1
 585              	@ 0 "" 2
 586              	.LVL30:
 587              		.code	16
 588              	.L45:
 589              	.LBE99:
 590              	.LBE98:
 443:.\Generated_Source\PSoC4/CyLib.c ****         return ((CY_SYS_WDT_CONTROL_REG >> ((CY_SYS_WDT_CNT_SHIFT * counterNum) + CY_SYS_WDT_CNT_ST
 591              		.loc 1 443 0
 592 0020 074B     		ldr	r3, .L47+4
 593 0022 C000     		lsl	r0, r0, #3
 594              	.LVL31:
 595 0024 1C68     		ldr	r4, [r3]
 596 0026 421C     		add	r2, r0, #1
 597 0028 D440     		lsr	r4, r4, r2
 598              	.LBE97:
 599              	.LBE96:
 560:.\Generated_Source\PSoC4/CyLib.c ****         if(0u == CySysWdtReadEnabledStatus(counterNum))
 600              		.loc 1 560 0
 601 002a E207     		lsl	r2, r4, #31
 602 002c 05D4     		bmi	.L42
 562:.\Generated_Source\PSoC4/CyLib.c ****             CY_SYS_WDT_CONFIG_REG |= (uint32)(enable << ((counterNum * CY_SYS_WDT_CNT_SHIFT) +
 603              		.loc 1 562 0
 604 002e 054C     		ldr	r4, .L47+8
 605 0030 0230     		add	r0, r0, #2
 606 0032 2268     		ldr	r2, [r4]
 607 0034 8140     		lsl	r1, r1, r0
 608              	.LVL32:
 609 0036 1143     		orr	r1, r2
 610 0038 2160     		str	r1, [r4]
 611              	.L42:
 565:.\Generated_Source\PSoC4/CyLib.c ****     }
 612              		.loc 1 565 0
 613              		@ sp needed for prologue
 614 003a 10BD     		pop	{r4, pc}
 615              	.L48:
 616              		.align	2
 617              	.L47:
ARM GAS  C:\Users\Steve\AppData\Local\Temp\ccc4U1xk.s 			page 45


 618 003c 04010B40 		.word	1074462980
 619 0040 10020B40 		.word	1074463248
 620 0044 0C020B40 		.word	1074463244
 621              		.cfi_endproc
 622              	.LFE12:
 623              		.size	CySysWdtWriteClearOnMatch, .-CySysWdtWriteClearOnMatch
 624              		.section	.text.CySysWdtReadClearOnMatch,"ax",%progbits
 625              		.align	2
 626              		.global	CySysWdtReadClearOnMatch
 627              		.code	16
 628              		.thumb_func
 629              		.type	CySysWdtReadClearOnMatch, %function
 630              	CySysWdtReadClearOnMatch:
 631              	.LFB13:
 584:.\Generated_Source\PSoC4/CyLib.c ****     {
 632              		.loc 1 584 0
 633              		.cfi_startproc
 634              	.LVL33:
 635 0000 00B5     		push	{lr}
 636              	.LCFI6:
 637              		.cfi_def_cfa_offset 4
 638              		.cfi_offset 14, -4
 585:.\Generated_Source\PSoC4/CyLib.c ****         CYASSERT((counterNum == CY_SYS_WDT_COUNTER0) ||
 639              		.loc 1 585 0
 640 0002 0128     		cmp	r0, #1
 641 0004 00D9     		bls	.L50
 642              	.LVL34:
 643              	.LBB100:
 644              	.LBB101:
 645              		.loc 1 1849 0
 646              	@ 1849 ".\Generated_Source\PSoC4\CyLib.c" 1
 647 0006 01BE     		    bkpt    1
 648              	@ 0 "" 2
 649              	.LVL35:
 650              		.code	16
 651              	.L50:
 652              	.LBE101:
 653              	.LBE100:
 588:.\Generated_Source\PSoC4/CyLib.c ****         return (uint32)((CY_SYS_WDT_CONFIG_REG >>
 654              		.loc 1 588 0
 655 0008 044B     		ldr	r3, .L51
 589:.\Generated_Source\PSoC4/CyLib.c ****                             ((counterNum * CY_SYS_WDT_CNT_SHIFT) + CY_SYS_WDT_CNT_MATCH_CLR_SHIFT))
 656              		.loc 1 589 0
 657 000a C000     		lsl	r0, r0, #3
 658              	.LVL36:
 588:.\Generated_Source\PSoC4/CyLib.c ****         return (uint32)((CY_SYS_WDT_CONFIG_REG >>
 659              		.loc 1 588 0
 660 000c 1968     		ldr	r1, [r3]
 589:.\Generated_Source\PSoC4/CyLib.c ****                             ((counterNum * CY_SYS_WDT_CNT_SHIFT) + CY_SYS_WDT_CNT_MATCH_CLR_SHIFT))
 661              		.loc 1 589 0
 662 000e 0230     		add	r0, r0, #2
 588:.\Generated_Source\PSoC4/CyLib.c ****         return (uint32)((CY_SYS_WDT_CONFIG_REG >>
 663              		.loc 1 588 0
 664 0010 C140     		lsr	r1, r1, r0
 665 0012 081C     		mov	r0, r1
 666 0014 0122     		mov	r2, #1
 667 0016 1040     		and	r0, r2
ARM GAS  C:\Users\Steve\AppData\Local\Temp\ccc4U1xk.s 			page 46


 590:.\Generated_Source\PSoC4/CyLib.c ****     }
 668              		.loc 1 590 0
 669              		@ sp needed for prologue
 670 0018 00BD     		pop	{pc}
 671              	.L52:
 672 001a C046     		.align	2
 673              	.L51:
 674 001c 0C020B40 		.word	1074463244
 675              		.cfi_endproc
 676              	.LFE13:
 677              		.size	CySysWdtReadClearOnMatch, .-CySysWdtReadClearOnMatch
 678              		.section	.text.CySysWdtEnable,"ax",%progbits
 679              		.align	2
 680              		.global	CySysWdtEnable
 681              		.code	16
 682              		.thumb_func
 683              		.type	CySysWdtEnable, %function
 684              	CySysWdtEnable:
 685              	.LFB14:
 617:.\Generated_Source\PSoC4/CyLib.c ****     {
 686              		.loc 1 617 0
 687              		.cfi_startproc
 688              	.LVL37:
 621:.\Generated_Source\PSoC4/CyLib.c ****         if (0u == (CY_SYS_CLK_ILO_CONFIG_REG & CY_SYS_CLK_ILO_CONFIG_ENABLE))
 689              		.loc 1 621 0
 690 0000 074B     		ldr	r3, .L55
 617:.\Generated_Source\PSoC4/CyLib.c ****     {
 691              		.loc 1 617 0
 692 0002 00B5     		push	{lr}
 693              	.LCFI7:
 694              		.cfi_def_cfa_offset 4
 695              		.cfi_offset 14, -4
 621:.\Generated_Source\PSoC4/CyLib.c ****         if (0u == (CY_SYS_CLK_ILO_CONFIG_REG & CY_SYS_CLK_ILO_CONFIG_ENABLE))
 696              		.loc 1 621 0
 697 0004 1A68     		ldr	r2, [r3]
 698 0006 002A     		cmp	r2, #0
 699 0008 04DB     		blt	.L54
 700              	.LBB102:
 701              	.LBB103:
  86:.\Generated_Source\PSoC4/CyLib.c ****     CY_SYS_CLK_ILO_CONFIG_REG |= CY_SYS_CLK_ILO_CONFIG_ENABLE;
 702              		.loc 1 86 0
 703 000a 1968     		ldr	r1, [r3]
 704 000c 8022     		mov	r2, #128
 705 000e 1206     		lsl	r2, r2, #24
 706 0010 0A43     		orr	r2, r1
 707 0012 1A60     		str	r2, [r3]
 708              	.L54:
 709              	.LBE103:
 710              	.LBE102:
 626:.\Generated_Source\PSoC4/CyLib.c ****         CY_SYS_WDT_CONTROL_REG |= counterMask;
 711              		.loc 1 626 0
 712 0014 034B     		ldr	r3, .L55+4
 627:.\Generated_Source\PSoC4/CyLib.c ****     }
 713              		.loc 1 627 0
 714              		@ sp needed for prologue
 626:.\Generated_Source\PSoC4/CyLib.c ****         CY_SYS_WDT_CONTROL_REG |= counterMask;
 715              		.loc 1 626 0
ARM GAS  C:\Users\Steve\AppData\Local\Temp\ccc4U1xk.s 			page 47


 716 0016 1968     		ldr	r1, [r3]
 717 0018 0843     		orr	r0, r1
 718              	.LVL38:
 719 001a 1860     		str	r0, [r3]
 627:.\Generated_Source\PSoC4/CyLib.c ****     }
 720              		.loc 1 627 0
 721 001c 00BD     		pop	{pc}
 722              	.L56:
 723 001e C046     		.align	2
 724              	.L55:
 725 0020 04010B40 		.word	1074462980
 726 0024 10020B40 		.word	1074463248
 727              		.cfi_endproc
 728              	.LFE14:
 729              		.size	CySysWdtEnable, .-CySysWdtEnable
 730              		.section	.text.CySysWdtDisable,"ax",%progbits
 731              		.align	2
 732              		.global	CySysWdtDisable
 733              		.code	16
 734              		.thumb_func
 735              		.type	CySysWdtDisable, %function
 736              	CySysWdtDisable:
 737              	.LFB15:
 654:.\Generated_Source\PSoC4/CyLib.c ****     {
 738              		.loc 1 654 0
 739              		.cfi_startproc
 740              	.LVL39:
 658:.\Generated_Source\PSoC4/CyLib.c ****         if (0u == (CY_SYS_CLK_ILO_CONFIG_REG & CY_SYS_CLK_ILO_CONFIG_ENABLE))
 741              		.loc 1 658 0
 742 0000 074B     		ldr	r3, .L59
 654:.\Generated_Source\PSoC4/CyLib.c ****     {
 743              		.loc 1 654 0
 744 0002 00B5     		push	{lr}
 745              	.LCFI8:
 746              		.cfi_def_cfa_offset 4
 747              		.cfi_offset 14, -4
 658:.\Generated_Source\PSoC4/CyLib.c ****         if (0u == (CY_SYS_CLK_ILO_CONFIG_REG & CY_SYS_CLK_ILO_CONFIG_ENABLE))
 748              		.loc 1 658 0
 749 0004 1A68     		ldr	r2, [r3]
 750 0006 002A     		cmp	r2, #0
 751 0008 04DB     		blt	.L58
 752              	.LBB104:
 753              	.LBB105:
  86:.\Generated_Source\PSoC4/CyLib.c ****     CY_SYS_CLK_ILO_CONFIG_REG |= CY_SYS_CLK_ILO_CONFIG_ENABLE;
 754              		.loc 1 86 0
 755 000a 1968     		ldr	r1, [r3]
 756 000c 8022     		mov	r2, #128
 757 000e 1206     		lsl	r2, r2, #24
 758 0010 0A43     		orr	r2, r1
 759 0012 1A60     		str	r2, [r3]
 760              	.L58:
 761              	.LBE105:
 762              	.LBE104:
 663:.\Generated_Source\PSoC4/CyLib.c ****         CY_SYS_WDT_CONTROL_REG &= ~counterMask;
 763              		.loc 1 663 0
 764 0014 034B     		ldr	r3, .L59+4
 664:.\Generated_Source\PSoC4/CyLib.c ****     }
ARM GAS  C:\Users\Steve\AppData\Local\Temp\ccc4U1xk.s 			page 48


 765              		.loc 1 664 0
 766              		@ sp needed for prologue
 663:.\Generated_Source\PSoC4/CyLib.c ****         CY_SYS_WDT_CONTROL_REG &= ~counterMask;
 767              		.loc 1 663 0
 768 0016 1968     		ldr	r1, [r3]
 769 0018 8143     		bic	r1, r0
 770 001a 1960     		str	r1, [r3]
 664:.\Generated_Source\PSoC4/CyLib.c ****     }
 771              		.loc 1 664 0
 772 001c 00BD     		pop	{pc}
 773              	.L60:
 774 001e C046     		.align	2
 775              	.L59:
 776 0020 04010B40 		.word	1074462980
 777 0024 10020B40 		.word	1074463248
 778              		.cfi_endproc
 779              	.LFE15:
 780              		.size	CySysWdtDisable, .-CySysWdtDisable
 781              		.section	.text.CySysWdtWriteCascade,"ax",%progbits
 782              		.align	2
 783              		.global	CySysWdtWriteCascade
 784              		.code	16
 785              		.thumb_func
 786              		.type	CySysWdtWriteCascade, %function
 787              	CySysWdtWriteCascade:
 788              	.LFB16:
 693:.\Generated_Source\PSoC4/CyLib.c ****     {
 789              		.loc 1 693 0
 790              		.cfi_startproc
 791              	.LVL40:
 792              	.LBB106:
 793              	.LBB107:
 443:.\Generated_Source\PSoC4/CyLib.c ****         return ((CY_SYS_WDT_CONTROL_REG >> ((CY_SYS_WDT_CNT_SHIFT * counterNum) + CY_SYS_WDT_CNT_ST
 794              		.loc 1 443 0
 795 0000 0D4B     		ldr	r3, .L64
 796              	.LBE107:
 797              	.LBE106:
 693:.\Generated_Source\PSoC4/CyLib.c ****     {
 798              		.loc 1 693 0
 799 0002 10B5     		push	{r4, lr}
 800              	.LCFI9:
 801              		.cfi_def_cfa_offset 8
 802              		.cfi_offset 4, -8
 803              		.cfi_offset 14, -4
 804              	.LBB110:
 805              	.LBB108:
 443:.\Generated_Source\PSoC4/CyLib.c ****         return ((CY_SYS_WDT_CONTROL_REG >> ((CY_SYS_WDT_CNT_SHIFT * counterNum) + CY_SYS_WDT_CNT_ST
 806              		.loc 1 443 0
 807 0004 1C68     		ldr	r4, [r3]
 808              	.LVL41:
 809              	.LBE108:
 810              	.LBE110:
 811              	.LBB111:
 812              	.LBB112:
 813 0006 1968     		ldr	r1, [r3]
 814              	.LVL42:
 815              	.LBE112:
ARM GAS  C:\Users\Steve\AppData\Local\Temp\ccc4U1xk.s 			page 49


 816              	.LBE111:
 817              	.LBB114:
 818              	.LBB115:
 819 0008 1A68     		ldr	r2, [r3]
 820              	.LVL43:
 821              	.LBE115:
 822              	.LBE114:
 823              	.LBB117:
 824              	.LBB113:
 825 000a 490A     		lsr	r1, r1, #9
 826              	.LVL44:
 827              	.LBE113:
 828              	.LBE117:
 829              	.LBB118:
 830              	.LBB109:
 831 000c 6308     		lsr	r3, r4, #1
 832 000e 0B43     		orr	r3, r1
 833              	.LBE109:
 834              	.LBE118:
 835              	.LBB119:
 836              	.LBB116:
 837 0010 540C     		lsr	r4, r2, #17
 838 0012 2343     		orr	r3, r4
 839              	.LBE116:
 840              	.LBE119:
 701:.\Generated_Source\PSoC4/CyLib.c ****         if (0u == countersEnableStatus)
 841              		.loc 1 701 0
 842 0014 DA07     		lsl	r2, r3, #31
 843 0016 0ED4     		bmi	.L61
 706:.\Generated_Source\PSoC4/CyLib.c ****             if (0u == (CY_SYS_CLK_ILO_CONFIG_REG & CY_SYS_CLK_ILO_CONFIG_ENABLE))
 844              		.loc 1 706 0
 845 0018 084B     		ldr	r3, .L64+4
 846 001a 1A68     		ldr	r2, [r3]
 847 001c 002A     		cmp	r2, #0
 848 001e 04DB     		blt	.L63
 849              	.LBB120:
 850              	.LBB121:
  86:.\Generated_Source\PSoC4/CyLib.c ****     CY_SYS_CLK_ILO_CONFIG_REG |= CY_SYS_CLK_ILO_CONFIG_ENABLE;
 851              		.loc 1 86 0
 852 0020 1968     		ldr	r1, [r3]
 853 0022 8024     		mov	r4, #128
 854 0024 2206     		lsl	r2, r4, #24
 855 0026 0A43     		orr	r2, r1
 856 0028 1A60     		str	r2, [r3]
 857              	.L63:
 858              	.LBE121:
 859              	.LBE120:
 711:.\Generated_Source\PSoC4/CyLib.c ****             configRegValue = CY_SYS_WDT_CONFIG_REG;
 860              		.loc 1 711 0
 861 002a 054B     		ldr	r3, .L64+8
 712:.\Generated_Source\PSoC4/CyLib.c ****             configRegValue &= ((uint32)(~(CY_SYS_WDT_CASCADE_01|CY_SYS_WDT_CASCADE_12)));
 862              		.loc 1 712 0
 863 002c 054C     		ldr	r4, .L64+12
 711:.\Generated_Source\PSoC4/CyLib.c ****             configRegValue = CY_SYS_WDT_CONFIG_REG;
 864              		.loc 1 711 0
 865 002e 1968     		ldr	r1, [r3]
 866              	.LVL45:
ARM GAS  C:\Users\Steve\AppData\Local\Temp\ccc4U1xk.s 			page 50


 712:.\Generated_Source\PSoC4/CyLib.c ****             configRegValue &= ((uint32)(~(CY_SYS_WDT_CASCADE_01|CY_SYS_WDT_CASCADE_12)));
 867              		.loc 1 712 0
 868 0030 0C40     		and	r4, r1
 869              	.LVL46:
 713:.\Generated_Source\PSoC4/CyLib.c ****             configRegValue |= cascadeMask;
 870              		.loc 1 713 0
 871 0032 2043     		orr	r0, r4
 872              	.LVL47:
 714:.\Generated_Source\PSoC4/CyLib.c ****             CY_SYS_WDT_CONFIG_REG = configRegValue;
 873              		.loc 1 714 0
 874 0034 1860     		str	r0, [r3]
 875              	.LVL48:
 876              	.L61:
 716:.\Generated_Source\PSoC4/CyLib.c ****     }
 877              		.loc 1 716 0
 878              		@ sp needed for prologue
 879 0036 10BD     		pop	{r4, pc}
 880              	.L65:
 881              		.align	2
 882              	.L64:
 883 0038 10020B40 		.word	1074463248
 884 003c 04010B40 		.word	1074462980
 885 0040 0C020B40 		.word	1074463244
 886 0044 F7F7FFFF 		.word	-2057
 887              		.cfi_endproc
 888              	.LFE16:
 889              		.size	CySysWdtWriteCascade, .-CySysWdtWriteCascade
 890              		.section	.text.CySysWdtReadCascade,"ax",%progbits
 891              		.align	2
 892              		.global	CySysWdtReadCascade
 893              		.code	16
 894              		.thumb_func
 895              		.type	CySysWdtReadCascade, %function
 896              	CySysWdtReadCascade:
 897              	.LFB17:
 738:.\Generated_Source\PSoC4/CyLib.c ****     {
 898              		.loc 1 738 0
 899              		.cfi_startproc
 739:.\Generated_Source\PSoC4/CyLib.c ****         return (CY_SYS_WDT_CONFIG_REG & (CY_SYS_WDT_CASCADE_01 | CY_SYS_WDT_CASCADE_12));
 900              		.loc 1 739 0
 901 0000 024B     		ldr	r3, .L67
 902 0002 0349     		ldr	r1, .L67+4
 903 0004 1868     		ldr	r0, [r3]
 740:.\Generated_Source\PSoC4/CyLib.c ****     }
 904              		.loc 1 740 0
 905              		@ sp needed for prologue
 739:.\Generated_Source\PSoC4/CyLib.c ****         return (CY_SYS_WDT_CONFIG_REG & (CY_SYS_WDT_CASCADE_01 | CY_SYS_WDT_CASCADE_12));
 906              		.loc 1 739 0
 907 0006 0840     		and	r0, r1
 740:.\Generated_Source\PSoC4/CyLib.c ****     }
 908              		.loc 1 740 0
 909 0008 7047     		bx	lr
 910              	.L68:
 911 000a C046     		.align	2
 912              	.L67:
 913 000c 0C020B40 		.word	1074463244
 914 0010 08080000 		.word	2056
ARM GAS  C:\Users\Steve\AppData\Local\Temp\ccc4U1xk.s 			page 51


 915              		.cfi_endproc
 916              	.LFE17:
 917              		.size	CySysWdtReadCascade, .-CySysWdtReadCascade
 918              		.section	.text.CySysWdtWriteToggleBit,"ax",%progbits
 919              		.align	2
 920              		.global	CySysWdtWriteToggleBit
 921              		.code	16
 922              		.thumb_func
 923              		.type	CySysWdtWriteToggleBit, %function
 924              	CySysWdtWriteToggleBit:
 925              	.LFB19:
 812:.\Generated_Source\PSoC4/CyLib.c ****     {
 926              		.loc 1 812 0
 927              		.cfi_startproc
 928              	.LVL49:
 929              	.LBB122:
 930              	.LBB123:
 443:.\Generated_Source\PSoC4/CyLib.c ****         return ((CY_SYS_WDT_CONTROL_REG >> ((CY_SYS_WDT_CNT_SHIFT * counterNum) + CY_SYS_WDT_CNT_ST
 931              		.loc 1 443 0
 932 0000 0B4B     		ldr	r3, .L72
 933              	.LBE123:
 934              	.LBE122:
 812:.\Generated_Source\PSoC4/CyLib.c ****     {
 935              		.loc 1 812 0
 936 0002 00B5     		push	{lr}
 937              	.LCFI10:
 938              		.cfi_def_cfa_offset 4
 939              		.cfi_offset 14, -4
 940              	.LBB125:
 941              	.LBB124:
 443:.\Generated_Source\PSoC4/CyLib.c ****         return ((CY_SYS_WDT_CONTROL_REG >> ((CY_SYS_WDT_CNT_SHIFT * counterNum) + CY_SYS_WDT_CNT_ST
 942              		.loc 1 443 0
 943 0004 1968     		ldr	r1, [r3]
 944              	.LBE124:
 945              	.LBE125:
 815:.\Generated_Source\PSoC4/CyLib.c ****         if (0u == CySysWdtReadEnabledStatus(CY_SYS_WDT_COUNTER2))
 946              		.loc 1 815 0
 947 0006 8A03     		lsl	r2, r1, #14
 948 0008 11D4     		bmi	.L69
 820:.\Generated_Source\PSoC4/CyLib.c ****             if (0u == (CY_SYS_CLK_ILO_CONFIG_REG & CY_SYS_CLK_ILO_CONFIG_ENABLE))
 949              		.loc 1 820 0
 950 000a 0A4B     		ldr	r3, .L72+4
 951 000c 1A68     		ldr	r2, [r3]
 952 000e 002A     		cmp	r2, #0
 953 0010 04DB     		blt	.L71
 954              	.LBB126:
 955              	.LBB127:
  86:.\Generated_Source\PSoC4/CyLib.c ****     CY_SYS_CLK_ILO_CONFIG_REG |= CY_SYS_CLK_ILO_CONFIG_ENABLE;
 956              		.loc 1 86 0
 957 0012 1968     		ldr	r1, [r3]
 958 0014 8022     		mov	r2, #128
 959 0016 1206     		lsl	r2, r2, #24
 960 0018 0A43     		orr	r2, r1
 961 001a 1A60     		str	r2, [r3]
 962              	.L71:
 963              	.LBE127:
 964              	.LBE126:
ARM GAS  C:\Users\Steve\AppData\Local\Temp\ccc4U1xk.s 			page 52


 825:.\Generated_Source\PSoC4/CyLib.c ****             configRegValue = CY_SYS_WDT_CONFIG_REG;
 965              		.loc 1 825 0
 966 001c 064B     		ldr	r3, .L72+8
 826:.\Generated_Source\PSoC4/CyLib.c ****             configRegValue &= (uint32)(~((uint32)(CY_SYS_WDT_CONFIG_BITS2_MASK << CY_SYS_WDT_CONFIG
 967              		.loc 1 826 0
 968 001e 074A     		ldr	r2, .L72+12
 825:.\Generated_Source\PSoC4/CyLib.c ****             configRegValue = CY_SYS_WDT_CONFIG_REG;
 969              		.loc 1 825 0
 970 0020 1968     		ldr	r1, [r3]
 971              	.LVL50:
 826:.\Generated_Source\PSoC4/CyLib.c ****             configRegValue &= (uint32)(~((uint32)(CY_SYS_WDT_CONFIG_BITS2_MASK << CY_SYS_WDT_CONFIG
 972              		.loc 1 826 0
 973 0022 0A40     		and	r2, r1
 974              	.LVL51:
 827:.\Generated_Source\PSoC4/CyLib.c ****             configRegValue |= ((bits & CY_SYS_WDT_CONFIG_BITS2_MASK) << CY_SYS_WDT_CONFIG_BITS2_POS
 975              		.loc 1 827 0
 976 0024 1F21     		mov	r1, #31
 977 0026 0840     		and	r0, r1
 978              	.LVL52:
 979 0028 0006     		lsl	r0, r0, #24
 980 002a 1043     		orr	r0, r2
 981              	.LVL53:
 828:.\Generated_Source\PSoC4/CyLib.c ****             CY_SYS_WDT_CONFIG_REG = configRegValue;
 982              		.loc 1 828 0
 983 002c 1860     		str	r0, [r3]
 984              	.LVL54:
 985              	.L69:
 830:.\Generated_Source\PSoC4/CyLib.c ****     }
 986              		.loc 1 830 0
 987              		@ sp needed for prologue
 988 002e 00BD     		pop	{pc}
 989              	.L73:
 990              		.align	2
 991              	.L72:
 992 0030 10020B40 		.word	1074463248
 993 0034 04010B40 		.word	1074462980
 994 0038 0C020B40 		.word	1074463244
 995 003c FFFFFFE0 		.word	-520093697
 996              		.cfi_endproc
 997              	.LFE19:
 998              		.size	CySysWdtWriteToggleBit, .-CySysWdtWriteToggleBit
 999              		.section	.text.CySysWdtReadToggleBit,"ax",%progbits
 1000              		.align	2
 1001              		.global	CySysWdtReadToggleBit
 1002              		.code	16
 1003              		.thumb_func
 1004              		.type	CySysWdtReadToggleBit, %function
 1005              	CySysWdtReadToggleBit:
 1006              	.LFB20:
 848:.\Generated_Source\PSoC4/CyLib.c ****     {
 1007              		.loc 1 848 0
 1008              		.cfi_startproc
 849:.\Generated_Source\PSoC4/CyLib.c ****         return ((CY_SYS_WDT_CONFIG_REG >> CY_SYS_WDT_CONFIG_BITS2_POS) & CY_SYS_WDT_CONFIG_BITS2_MA
 1009              		.loc 1 849 0
 1010 0000 024B     		ldr	r3, .L75
 850:.\Generated_Source\PSoC4/CyLib.c ****     }
 1011              		.loc 1 850 0
ARM GAS  C:\Users\Steve\AppData\Local\Temp\ccc4U1xk.s 			page 53


 1012              		@ sp needed for prologue
 849:.\Generated_Source\PSoC4/CyLib.c ****         return ((CY_SYS_WDT_CONFIG_REG >> CY_SYS_WDT_CONFIG_BITS2_POS) & CY_SYS_WDT_CONFIG_BITS2_MA
 1013              		.loc 1 849 0
 1014 0002 1868     		ldr	r0, [r3]
 1015 0004 C100     		lsl	r1, r0, #3
 1016 0006 C80E     		lsr	r0, r1, #27
 850:.\Generated_Source\PSoC4/CyLib.c ****     }
 1017              		.loc 1 850 0
 1018 0008 7047     		bx	lr
 1019              	.L76:
 1020 000a C046     		.align	2
 1021              	.L75:
 1022 000c 0C020B40 		.word	1074463244
 1023              		.cfi_endproc
 1024              	.LFE20:
 1025              		.size	CySysWdtReadToggleBit, .-CySysWdtReadToggleBit
 1026              		.section	.text.CySysWdtReadMatch,"ax",%progbits
 1027              		.align	2
 1028              		.global	CySysWdtReadMatch
 1029              		.code	16
 1030              		.thumb_func
 1031              		.type	CySysWdtReadMatch, %function
 1032              	CySysWdtReadMatch:
 1033              	.LFB21:
 869:.\Generated_Source\PSoC4/CyLib.c ****     {
 1034              		.loc 1 869 0
 1035              		.cfi_startproc
 1036              	.LVL55:
 1037 0000 00B5     		push	{lr}
 1038              	.LCFI11:
 1039              		.cfi_def_cfa_offset 4
 1040              		.cfi_offset 14, -4
 870:.\Generated_Source\PSoC4/CyLib.c ****         CYASSERT((counterNum == CY_SYS_WDT_COUNTER0) ||
 1041              		.loc 1 870 0
 1042 0002 0128     		cmp	r0, #1
 1043 0004 00D9     		bls	.L78
 1044              	.LVL56:
 1045              	.LBB128:
 1046              	.LBB129:
 1047              		.loc 1 1849 0
 1048              	@ 1849 ".\Generated_Source\PSoC4\CyLib.c" 1
 1049 0006 01BE     		    bkpt    1
 1050              	@ 0 "" 2
 1051              	.LVL57:
 1052              		.code	16
 1053              	.L78:
 1054              	.LBE129:
 1055              	.LBE128:
 872:.\Generated_Source\PSoC4/CyLib.c ****         return ((uint32)(CY_SYS_WDT_MATCH_REG >> (counterNum * CY_SYS_WDT_CNT_MATCH_SHIFT)) & CY_SY
 1056              		.loc 1 872 0
 1057 0008 034B     		ldr	r3, .L79
 1058 000a 0001     		lsl	r0, r0, #4
 1059              	.LVL58:
 1060 000c 1968     		ldr	r1, [r3]
 873:.\Generated_Source\PSoC4/CyLib.c ****     }
 1061              		.loc 1 873 0
 1062              		@ sp needed for prologue
ARM GAS  C:\Users\Steve\AppData\Local\Temp\ccc4U1xk.s 			page 54


 872:.\Generated_Source\PSoC4/CyLib.c ****         return ((uint32)(CY_SYS_WDT_MATCH_REG >> (counterNum * CY_SYS_WDT_CNT_MATCH_SHIFT)) & CY_SY
 1063              		.loc 1 872 0
 1064 000e C140     		lsr	r1, r1, r0
 1065 0010 0B04     		lsl	r3, r1, #16
 1066 0012 180C     		lsr	r0, r3, #16
 873:.\Generated_Source\PSoC4/CyLib.c ****     }
 1067              		.loc 1 873 0
 1068 0014 00BD     		pop	{pc}
 1069              	.L80:
 1070 0016 C046     		.align	2
 1071              	.L79:
 1072 0018 08020B40 		.word	1074463240
 1073              		.cfi_endproc
 1074              	.LFE21:
 1075              		.size	CySysWdtReadMatch, .-CySysWdtReadMatch
 1076              		.section	.text.CySysWdtReadCount,"ax",%progbits
 1077              		.align	2
 1078              		.global	CySysWdtReadCount
 1079              		.code	16
 1080              		.thumb_func
 1081              		.type	CySysWdtReadCount, %function
 1082              	CySysWdtReadCount:
 1083              	.LFB22:
 892:.\Generated_Source\PSoC4/CyLib.c ****     {
 1084              		.loc 1 892 0
 1085              		.cfi_startproc
 1086              	.LVL59:
 1087 0000 00B5     		push	{lr}
 1088              	.LCFI12:
 1089              		.cfi_def_cfa_offset 4
 1090              		.cfi_offset 14, -4
 895:.\Generated_Source\PSoC4/CyLib.c ****         switch(counterNum)
 1091              		.loc 1 895 0
 1092 0002 0128     		cmp	r0, #1
 1093 0004 0BD0     		beq	.L84
 1094 0006 0028     		cmp	r0, #0
 1095 0008 04D0     		beq	.L83
 1096 000a 0228     		cmp	r0, #2
 1097 000c 0BD0     		beq	.L88
 1098              	.LVL60:
 1099              	.LBB130:
 1100              	.LBB131:
 1101              		.loc 1 1849 0
 1102              	@ 1849 ".\Generated_Source\PSoC4\CyLib.c" 1
 1103 000e 01BE     		    bkpt    1
 1104              	@ 0 "" 2
 893:.\Generated_Source\PSoC4/CyLib.c ****         uint32 regValue = 0u;
 1105              		.loc 1 893 0
 1106              		.code	16
 1107 0010 0020     		mov	r0, #0
 1108              	.LVL61:
 1109              	.L86:
 1110              	.LBE131:
 1111              	.LBE130:
 918:.\Generated_Source\PSoC4/CyLib.c ****     }
 1112              		.loc 1 918 0
 1113              		@ sp needed for prologue
ARM GAS  C:\Users\Steve\AppData\Local\Temp\ccc4U1xk.s 			page 55


 1114 0012 00BD     		pop	{pc}
 1115              	.LVL62:
 1116              	.L83:
 899:.\Generated_Source\PSoC4/CyLib.c ****                 regValue = CY_SYS_WDT_CTRLOW_REG & CY_SYS_WDT_LOWER_16BITS_MASK;
 1117              		.loc 1 899 0
 1118 0014 0548     		ldr	r0, .L89
 1119              	.LVL63:
 1120 0016 0168     		ldr	r1, [r0]
 1121 0018 0A04     		lsl	r2, r1, #16
 1122 001a 100C     		lsr	r0, r2, #16
 1123              	.LVL64:
 900:.\Generated_Source\PSoC4/CyLib.c ****             break;
 1124              		.loc 1 900 0
 1125 001c F9E7     		b	.L86
 1126              	.LVL65:
 1127              	.L84:
 904:.\Generated_Source\PSoC4/CyLib.c ****                 regValue = (CY_SYS_WDT_CTRLOW_REG >> CY_SYS_WDT_CNT_MATCH_SHIFT) & CY_SYS_WDT_LOWER
 1128              		.loc 1 904 0
 1129 001e 034B     		ldr	r3, .L89
 1130 0020 1868     		ldr	r0, [r3]
 1131              	.LVL66:
 1132 0022 000C     		lsr	r0, r0, #16
 1133              	.LVL67:
 905:.\Generated_Source\PSoC4/CyLib.c ****             break;
 1134              		.loc 1 905 0
 1135 0024 F5E7     		b	.L86
 1136              	.LVL68:
 1137              	.L88:
 909:.\Generated_Source\PSoC4/CyLib.c ****                 regValue = CY_SYS_WDT_CTRHIGH_REG;
 1138              		.loc 1 909 0
 1139 0026 024B     		ldr	r3, .L89+4
 1140 0028 1868     		ldr	r0, [r3]
 1141              	.LVL69:
 910:.\Generated_Source\PSoC4/CyLib.c ****             break;
 1142              		.loc 1 910 0
 1143 002a F2E7     		b	.L86
 1144              	.L90:
 1145              		.align	2
 1146              	.L89:
 1147 002c 00020B40 		.word	1074463232
 1148 0030 04020B40 		.word	1074463236
 1149              		.cfi_endproc
 1150              	.LFE22:
 1151              		.size	CySysWdtReadCount, .-CySysWdtReadCount
 1152              		.section	.text.CySysWdtGetInterruptSource,"ax",%progbits
 1153              		.align	2
 1154              		.global	CySysWdtGetInterruptSource
 1155              		.code	16
 1156              		.thumb_func
 1157              		.type	CySysWdtGetInterruptSource, %function
 1158              	CySysWdtGetInterruptSource:
 1159              	.LFB23:
 941:.\Generated_Source\PSoC4/CyLib.c ****     {
 1160              		.loc 1 941 0
 1161              		.cfi_startproc
 942:.\Generated_Source\PSoC4/CyLib.c ****         return (CY_SYS_WDT_CONTROL_REG & (CY_SYS_WDT_COUNTER0_INT | CY_SYS_WDT_COUNTER1_INT | CY_SY
 1162              		.loc 1 942 0
ARM GAS  C:\Users\Steve\AppData\Local\Temp\ccc4U1xk.s 			page 56


 1163 0000 024B     		ldr	r3, .L92
 1164 0002 0349     		ldr	r1, .L92+4
 1165 0004 1868     		ldr	r0, [r3]
 943:.\Generated_Source\PSoC4/CyLib.c ****     }
 1166              		.loc 1 943 0
 1167              		@ sp needed for prologue
 942:.\Generated_Source\PSoC4/CyLib.c ****         return (CY_SYS_WDT_CONTROL_REG & (CY_SYS_WDT_COUNTER0_INT | CY_SYS_WDT_COUNTER1_INT | CY_SY
 1168              		.loc 1 942 0
 1169 0006 0840     		and	r0, r1
 943:.\Generated_Source\PSoC4/CyLib.c ****     }
 1170              		.loc 1 943 0
 1171 0008 7047     		bx	lr
 1172              	.L93:
 1173 000a C046     		.align	2
 1174              	.L92:
 1175 000c 10020B40 		.word	1074463248
 1176 0010 04040400 		.word	263172
 1177              		.cfi_endproc
 1178              	.LFE23:
 1179              		.size	CySysWdtGetInterruptSource, .-CySysWdtGetInterruptSource
 1180              		.section	.text.CySysWdtClearInterrupt,"ax",%progbits
 1181              		.align	2
 1182              		.global	CySysWdtClearInterrupt
 1183              		.code	16
 1184              		.thumb_func
 1185              		.type	CySysWdtClearInterrupt, %function
 1186              	CySysWdtClearInterrupt:
 1187              	.LFB24:
 974:.\Generated_Source\PSoC4/CyLib.c ****     {
 1188              		.loc 1 974 0
 1189              		.cfi_startproc
 1190              	.LVL70:
 1191 0000 70B5     		push	{r4, r5, r6, lr}
 1192              	.LCFI13:
 1193              		.cfi_def_cfa_offset 16
 1194              		.cfi_offset 4, -16
 1195              		.cfi_offset 5, -12
 1196              		.cfi_offset 6, -8
 1197              		.cfi_offset 14, -4
 974:.\Generated_Source\PSoC4/CyLib.c ****     {
 1198              		.loc 1 974 0
 1199 0002 041C     		mov	r4, r0
 978:.\Generated_Source\PSoC4/CyLib.c ****         interruptState = CyEnterCriticalSection();
 1200              		.loc 1 978 0
 1201 0004 FFF7FEFF 		bl	CyEnterCriticalSection
 1202              	.LVL71:
 983:.\Generated_Source\PSoC4/CyLib.c ****         if (0u == (CY_SYS_CLK_ILO_CONFIG_REG & CY_SYS_CLK_ILO_CONFIG_ENABLE))
 1203              		.loc 1 983 0
 1204 0008 174B     		ldr	r3, .L100
 1205 000a 1A68     		ldr	r2, [r3]
 1206 000c 002A     		cmp	r2, #0
 1207 000e 04DB     		blt	.L95
 1208              	.LBB132:
 1209              	.LBB133:
  86:.\Generated_Source\PSoC4/CyLib.c ****     CY_SYS_CLK_ILO_CONFIG_REG |= CY_SYS_CLK_ILO_CONFIG_ENABLE;
 1210              		.loc 1 86 0
 1211 0010 1968     		ldr	r1, [r3]
ARM GAS  C:\Users\Steve\AppData\Local\Temp\ccc4U1xk.s 			page 57


 1212 0012 8025     		mov	r5, #128
 1213 0014 2E06     		lsl	r6, r5, #24
 1214 0016 0E43     		orr	r6, r1
 1215 0018 1E60     		str	r6, [r3]
 1216              	.L95:
 1217              	.LBE133:
 1218              	.LBE132:
 988:.\Generated_Source\PSoC4/CyLib.c ****         if ((CY_SYS_CLK_SELECT_REG & (uint32)(CY_SYS_WDT_CLK_LOCK_BITS_MASK)) == CY_SYS_WDT_CLK_LOC
 1219              		.loc 1 988 0
 1220 001a 144B     		ldr	r3, .L100+4
 1221 001c C022     		mov	r2, #192
 1222 001e 1968     		ldr	r1, [r3]
 1223 0020 1502     		lsl	r5, r2, #8
 1224 0022 2940     		and	r1, r5
 1225 0024 A942     		cmp	r1, r5
 1226 0026 08D0     		beq	.L99
 1227              	.LVL72:
1005:.\Generated_Source\PSoC4/CyLib.c ****         CY_SYS_WDT_CONTROL_REG |= (counterMask & (CY_SYS_WDT_COUNTER0_INT |
 1228              		.loc 1 1005 0
 1229 0028 114E     		ldr	r6, .L100+8
 1230 002a 1249     		ldr	r1, .L100+12
 1231 002c 3368     		ldr	r3, [r6]
 1232 002e 0C40     		and	r4, r1
 1233              	.LVL73:
 1234 0030 1C43     		orr	r4, r3
 1235 0032 3460     		str	r4, [r6]
 1236              	.LVL74:
 1237              	.L97:
1015:.\Generated_Source\PSoC4/CyLib.c ****         CyExitCriticalSection(interruptState);
 1238              		.loc 1 1015 0
 1239 0034 FFF7FEFF 		bl	CyExitCriticalSection
 1240              	.LVL75:
1016:.\Generated_Source\PSoC4/CyLib.c ****     }
 1241              		.loc 1 1016 0
 1242              		@ sp needed for prologue
 1243 0038 70BD     		pop	{r4, r5, r6, pc}
 1244              	.LVL76:
 1245              	.L99:
 993:.\Generated_Source\PSoC4/CyLib.c ****             CY_SYS_CLK_SELECT_REG = ((CY_SYS_CLK_SELECT_REG & (uint32)(~CY_SYS_WDT_CLK_LOCK_BITS_MA
 1246              		.loc 1 993 0
 1247 003a 1D68     		ldr	r5, [r3]
 1248 003c 0E4A     		ldr	r2, .L100+16
 1249 003e 8026     		mov	r6, #128
 1250 0040 1540     		and	r5, r2
 1251 0042 F601     		lsl	r6, r6, #7
 1252 0044 3543     		orr	r5, r6
 1253 0046 1D60     		str	r5, [r3]
 996:.\Generated_Source\PSoC4/CyLib.c ****             CY_SYS_CLK_SELECT_REG = ((CY_SYS_CLK_SELECT_REG & (uint32)(~CY_SYS_WDT_CLK_LOCK_BITS_MA
 1254              		.loc 1 996 0
 1255 0048 1D68     		ldr	r5, [r3]
 1256 004a 8026     		mov	r6, #128
 1257 004c 2A40     		and	r2, r5
 1258 004e 3502     		lsl	r5, r6, #8
 1259 0050 2A43     		orr	r2, r5
 1260 0052 1A60     		str	r2, [r3]
1005:.\Generated_Source\PSoC4/CyLib.c ****         CY_SYS_WDT_CONTROL_REG |= (counterMask & (CY_SYS_WDT_COUNTER0_INT |
 1261              		.loc 1 1005 0
ARM GAS  C:\Users\Steve\AppData\Local\Temp\ccc4U1xk.s 			page 58


 1262 0054 064A     		ldr	r2, .L100+8
 1263 0056 074E     		ldr	r6, .L100+12
 1264 0058 1568     		ldr	r5, [r2]
 1265 005a 3440     		and	r4, r6
 1266              	.LVL77:
 1267 005c 2C43     		orr	r4, r5
 1268 005e 1460     		str	r4, [r2]
1011:.\Generated_Source\PSoC4/CyLib.c ****             CY_SYS_CLK_SELECT_REG = (CY_SYS_CLK_SELECT_REG & (uint32)(~CY_SYS_WDT_CLK_LOCK_BITS_MAS
 1269              		.loc 1 1011 0
 1270 0060 1C68     		ldr	r4, [r3]
 1271 0062 2143     		orr	r1, r4
 1272 0064 1960     		str	r1, [r3]
 1273 0066 E5E7     		b	.L97
 1274              	.L101:
 1275              		.align	2
 1276              	.L100:
 1277 0068 04010B40 		.word	1074462980
 1278 006c 00010B40 		.word	1074462976
 1279 0070 10020B40 		.word	1074463248
 1280 0074 04040400 		.word	263172
 1281 0078 FF3FFFFF 		.word	-49153
 1282              		.cfi_endproc
 1283              	.LFE24:
 1284              		.size	CySysWdtClearInterrupt, .-CySysWdtClearInterrupt
 1285              		.section	.text.CySysWdtResetCounters,"ax",%progbits
 1286              		.align	2
 1287              		.global	CySysWdtResetCounters
 1288              		.code	16
 1289              		.thumb_func
 1290              		.type	CySysWdtResetCounters, %function
 1291              	CySysWdtResetCounters:
 1292              	.LFB25:
1042:.\Generated_Source\PSoC4/CyLib.c ****     {
 1293              		.loc 1 1042 0
 1294              		.cfi_startproc
 1295              	.LVL78:
1046:.\Generated_Source\PSoC4/CyLib.c ****         if (0u == (CY_SYS_CLK_ILO_CONFIG_REG & CY_SYS_CLK_ILO_CONFIG_ENABLE))
 1296              		.loc 1 1046 0
 1297 0000 084B     		ldr	r3, .L104
1042:.\Generated_Source\PSoC4/CyLib.c ****     {
 1298              		.loc 1 1042 0
 1299 0002 00B5     		push	{lr}
 1300              	.LCFI14:
 1301              		.cfi_def_cfa_offset 4
 1302              		.cfi_offset 14, -4
1046:.\Generated_Source\PSoC4/CyLib.c ****         if (0u == (CY_SYS_CLK_ILO_CONFIG_REG & CY_SYS_CLK_ILO_CONFIG_ENABLE))
 1303              		.loc 1 1046 0
 1304 0004 1A68     		ldr	r2, [r3]
 1305 0006 002A     		cmp	r2, #0
 1306 0008 04DB     		blt	.L103
 1307              	.LBB134:
 1308              	.LBB135:
  86:.\Generated_Source\PSoC4/CyLib.c ****     CY_SYS_CLK_ILO_CONFIG_REG |= CY_SYS_CLK_ILO_CONFIG_ENABLE;
 1309              		.loc 1 86 0
 1310 000a 1968     		ldr	r1, [r3]
 1311 000c 8022     		mov	r2, #128
 1312 000e 1206     		lsl	r2, r2, #24
ARM GAS  C:\Users\Steve\AppData\Local\Temp\ccc4U1xk.s 			page 59


 1313 0010 0A43     		orr	r2, r1
 1314 0012 1A60     		str	r2, [r3]
 1315              	.L103:
 1316              	.LBE135:
 1317              	.LBE134:
1052:.\Generated_Source\PSoC4/CyLib.c ****         CY_SYS_WDT_CONTROL_REG |= (countersMask & (CY_SYS_WDT_COUNTER0_RESET |
 1318              		.loc 1 1052 0
 1319 0014 044B     		ldr	r3, .L104+4
 1320 0016 0549     		ldr	r1, .L104+8
 1321 0018 1A68     		ldr	r2, [r3]
 1322 001a 0840     		and	r0, r1
 1323              	.LVL79:
 1324 001c 1043     		orr	r0, r2
 1325 001e 1860     		str	r0, [r3]
1054:.\Generated_Source\PSoC4/CyLib.c ****     }
 1326              		.loc 1 1054 0
 1327              		@ sp needed for prologue
 1328 0020 00BD     		pop	{pc}
 1329              	.L105:
 1330 0022 C046     		.align	2
 1331              	.L104:
 1332 0024 04010B40 		.word	1074462980
 1333 0028 10020B40 		.word	1074463248
 1334 002c 08080800 		.word	526344
 1335              		.cfi_endproc
 1336              	.LFE25:
 1337              		.size	CySysWdtResetCounters, .-CySysWdtResetCounters
 1338              		.section	.text.CySysLvdEnable,"ax",%progbits
 1339              		.align	2
 1340              		.global	CySysLvdEnable
 1341              		.code	16
 1342              		.thumb_func
 1343              		.type	CySysLvdEnable, %function
 1344              	CySysLvdEnable:
 1345              	.LFB26:
1427:.\Generated_Source\PSoC4/CyLib.c ****     {
 1346              		.loc 1 1427 0
 1347              		.cfi_startproc
 1348              	.LVL80:
1429:.\Generated_Source\PSoC4/CyLib.c ****         CY_LVD_PWR_VMON_CONFIG_REG = (CY_LVD_PWR_VMON_CONFIG_REG & ~CY_LVD_PWR_VMON_CONFIG_LVD_SEL_
 1349              		.loc 1 1429 0
 1350 0000 084B     		ldr	r3, .L107
1430:.\Generated_Source\PSoC4/CyLib.c ****                 ((threshold << CY_LVD_PWR_VMON_CONFIG_LVD_SEL_SHIFT) & CY_LVD_PWR_VMON_CONFIG_LVD_S
 1351              		.loc 1 1430 0
 1352 0002 1E22     		mov	r2, #30
1429:.\Generated_Source\PSoC4/CyLib.c ****         CY_LVD_PWR_VMON_CONFIG_REG = (CY_LVD_PWR_VMON_CONFIG_REG & ~CY_LVD_PWR_VMON_CONFIG_LVD_SEL_
 1353              		.loc 1 1429 0
 1354 0004 1968     		ldr	r1, [r3]
1430:.\Generated_Source\PSoC4/CyLib.c ****                 ((threshold << CY_LVD_PWR_VMON_CONFIG_LVD_SEL_SHIFT) & CY_LVD_PWR_VMON_CONFIG_LVD_S
 1355              		.loc 1 1430 0
 1356 0006 4000     		lsl	r0, r0, #1
 1357              	.LVL81:
1429:.\Generated_Source\PSoC4/CyLib.c ****         CY_LVD_PWR_VMON_CONFIG_REG = (CY_LVD_PWR_VMON_CONFIG_REG & ~CY_LVD_PWR_VMON_CONFIG_LVD_SEL_
 1358              		.loc 1 1429 0
 1359 0008 9143     		bic	r1, r2
1430:.\Generated_Source\PSoC4/CyLib.c ****                 ((threshold << CY_LVD_PWR_VMON_CONFIG_LVD_SEL_SHIFT) & CY_LVD_PWR_VMON_CONFIG_LVD_S
 1360              		.loc 1 1430 0
ARM GAS  C:\Users\Steve\AppData\Local\Temp\ccc4U1xk.s 			page 60


 1361 000a 1040     		and	r0, r2
1429:.\Generated_Source\PSoC4/CyLib.c ****         CY_LVD_PWR_VMON_CONFIG_REG = (CY_LVD_PWR_VMON_CONFIG_REG & ~CY_LVD_PWR_VMON_CONFIG_LVD_SEL_
 1362              		.loc 1 1429 0
 1363 000c 0843     		orr	r0, r1
 1364 000e 1860     		str	r0, [r3]
1432:.\Generated_Source\PSoC4/CyLib.c ****         CY_LVD_PWR_VMON_CONFIG_REG |= CY_LVD_PWR_VMON_CONFIG_LVD_EN;
 1365              		.loc 1 1432 0
 1366 0010 1868     		ldr	r0, [r3]
 1367 0012 0122     		mov	r2, #1
 1368 0014 0243     		orr	r2, r0
 1369 0016 1A60     		str	r2, [r3]
1433:.\Generated_Source\PSoC4/CyLib.c ****         CY_LVD_PWR_INTR_MASK_REG   |= CY_LVD_PROPAGATE_INT_TO_CPU;
 1370              		.loc 1 1433 0
 1371 0018 034B     		ldr	r3, .L107+4
 1372 001a 0220     		mov	r0, #2
 1373 001c 1968     		ldr	r1, [r3]
1434:.\Generated_Source\PSoC4/CyLib.c ****     }
 1374              		.loc 1 1434 0
 1375              		@ sp needed for prologue
1433:.\Generated_Source\PSoC4/CyLib.c ****         CY_LVD_PWR_INTR_MASK_REG   |= CY_LVD_PROPAGATE_INT_TO_CPU;
 1376              		.loc 1 1433 0
 1377 001e 0843     		orr	r0, r1
 1378 0020 1860     		str	r0, [r3]
1434:.\Generated_Source\PSoC4/CyLib.c ****     }
 1379              		.loc 1 1434 0
 1380 0022 7047     		bx	lr
 1381              	.L108:
 1382              		.align	2
 1383              	.L107:
 1384 0024 18000B40 		.word	1074462744
 1385 0028 08000B40 		.word	1074462728
 1386              		.cfi_endproc
 1387              	.LFE26:
 1388              		.size	CySysLvdEnable, .-CySysLvdEnable
 1389              		.section	.text.CySysLvdDisable,"ax",%progbits
 1390              		.align	2
 1391              		.global	CySysLvdDisable
 1392              		.code	16
 1393              		.thumb_func
 1394              		.type	CySysLvdDisable, %function
 1395              	CySysLvdDisable:
 1396              	.LFB27:
1452:.\Generated_Source\PSoC4/CyLib.c ****     {
 1397              		.loc 1 1452 0
 1398              		.cfi_startproc
1453:.\Generated_Source\PSoC4/CyLib.c ****         CY_LVD_PWR_INTR_MASK_REG   &= ~CY_LVD_PROPAGATE_INT_TO_CPU;
 1399              		.loc 1 1453 0
 1400 0000 054B     		ldr	r3, .L110
 1401 0002 0221     		mov	r1, #2
 1402 0004 1A68     		ldr	r2, [r3]
1454:.\Generated_Source\PSoC4/CyLib.c ****         CY_LVD_PWR_VMON_CONFIG_REG &= ~CY_LVD_PWR_VMON_CONFIG_LVD_EN;
 1403              		.loc 1 1454 0
 1404 0006 0548     		ldr	r0, .L110+4
1453:.\Generated_Source\PSoC4/CyLib.c ****         CY_LVD_PWR_INTR_MASK_REG   &= ~CY_LVD_PROPAGATE_INT_TO_CPU;
 1405              		.loc 1 1453 0
 1406 0008 8A43     		bic	r2, r1
 1407 000a 1A60     		str	r2, [r3]
ARM GAS  C:\Users\Steve\AppData\Local\Temp\ccc4U1xk.s 			page 61


1454:.\Generated_Source\PSoC4/CyLib.c ****         CY_LVD_PWR_VMON_CONFIG_REG &= ~CY_LVD_PWR_VMON_CONFIG_LVD_EN;
 1408              		.loc 1 1454 0
 1409 000c 0368     		ldr	r3, [r0]
 1410 000e 0122     		mov	r2, #1
 1411 0010 9343     		bic	r3, r2
 1412 0012 0360     		str	r3, [r0]
1455:.\Generated_Source\PSoC4/CyLib.c ****     }
 1413              		.loc 1 1455 0
 1414              		@ sp needed for prologue
 1415 0014 7047     		bx	lr
 1416              	.L111:
 1417 0016 C046     		.align	2
 1418              	.L110:
 1419 0018 08000B40 		.word	1074462728
 1420 001c 18000B40 		.word	1074462744
 1421              		.cfi_endproc
 1422              	.LFE27:
 1423              		.size	CySysLvdDisable, .-CySysLvdDisable
 1424              		.section	.text.CySysLvdGetInterruptSource,"ax",%progbits
 1425              		.align	2
 1426              		.global	CySysLvdGetInterruptSource
 1427              		.code	16
 1428              		.thumb_func
 1429              		.type	CySysLvdGetInterruptSource, %function
 1430              	CySysLvdGetInterruptSource:
 1431              	.LFB28:
1474:.\Generated_Source\PSoC4/CyLib.c ****     {
 1432              		.loc 1 1474 0
 1433              		.cfi_startproc
1475:.\Generated_Source\PSoC4/CyLib.c ****         return (CY_LVD_PWR_INTR_REG & CY_SYS_LVD_INT);
 1434              		.loc 1 1475 0
 1435 0000 024B     		ldr	r3, .L113
 1436 0002 0220     		mov	r0, #2
 1437 0004 1968     		ldr	r1, [r3]
1476:.\Generated_Source\PSoC4/CyLib.c ****     }
 1438              		.loc 1 1476 0
 1439              		@ sp needed for prologue
1475:.\Generated_Source\PSoC4/CyLib.c ****         return (CY_LVD_PWR_INTR_REG & CY_SYS_LVD_INT);
 1440              		.loc 1 1475 0
 1441 0006 0840     		and	r0, r1
1476:.\Generated_Source\PSoC4/CyLib.c ****     }
 1442              		.loc 1 1476 0
 1443 0008 7047     		bx	lr
 1444              	.L114:
 1445 000a C046     		.align	2
 1446              	.L113:
 1447 000c 04000B40 		.word	1074462724
 1448              		.cfi_endproc
 1449              	.LFE28:
 1450              		.size	CySysLvdGetInterruptSource, .-CySysLvdGetInterruptSource
 1451              		.section	.text.CySysLvdClearInterrupt,"ax",%progbits
 1452              		.align	2
 1453              		.global	CySysLvdClearInterrupt
 1454              		.code	16
 1455              		.thumb_func
 1456              		.type	CySysLvdClearInterrupt, %function
 1457              	CySysLvdClearInterrupt:
ARM GAS  C:\Users\Steve\AppData\Local\Temp\ccc4U1xk.s 			page 62


 1458              	.LFB29:
1494:.\Generated_Source\PSoC4/CyLib.c ****     {
 1459              		.loc 1 1494 0
 1460              		.cfi_startproc
1495:.\Generated_Source\PSoC4/CyLib.c ****         CY_LVD_PWR_INTR_REG = CY_SYS_LVD_INT;
 1461              		.loc 1 1495 0
 1462 0000 014B     		ldr	r3, .L116
 1463 0002 0222     		mov	r2, #2
 1464 0004 1A60     		str	r2, [r3]
1496:.\Generated_Source\PSoC4/CyLib.c ****     }
 1465              		.loc 1 1496 0
 1466              		@ sp needed for prologue
 1467 0006 7047     		bx	lr
 1468              	.L117:
 1469              		.align	2
 1470              	.L116:
 1471 0008 04000B40 		.word	1074462724
 1472              		.cfi_endproc
 1473              	.LFE29:
 1474              		.size	CySysLvdClearInterrupt, .-CySysLvdClearInterrupt
 1475              		.section	.text.CyDisableInts,"ax",%progbits
 1476              		.align	2
 1477              		.global	CyDisableInts
 1478              		.code	16
 1479              		.thumb_func
 1480              		.type	CyDisableInts, %function
 1481              	CyDisableInts:
 1482              	.LFB30:
1516:.\Generated_Source\PSoC4/CyLib.c **** {
 1483              		.loc 1 1516 0
 1484              		.cfi_startproc
1520:.\Generated_Source\PSoC4/CyLib.c ****     intState = CY_INT_CLEAR_REG;
 1485              		.loc 1 1520 0
 1486 0000 024B     		ldr	r3, .L119
1523:.\Generated_Source\PSoC4/CyLib.c ****     CY_INT_CLEAR_REG = CY_INT_CLEAR_DISABLE_ALL;
 1487              		.loc 1 1523 0
 1488 0002 0122     		mov	r2, #1
 1489 0004 5142     		neg	r1, r2
1520:.\Generated_Source\PSoC4/CyLib.c ****     intState = CY_INT_CLEAR_REG;
 1490              		.loc 1 1520 0
 1491 0006 1868     		ldr	r0, [r3]
 1492              	.LVL82:
1526:.\Generated_Source\PSoC4/CyLib.c **** }
 1493              		.loc 1 1526 0
 1494              		@ sp needed for prologue
1523:.\Generated_Source\PSoC4/CyLib.c ****     CY_INT_CLEAR_REG = CY_INT_CLEAR_DISABLE_ALL;
 1495              		.loc 1 1523 0
 1496 0008 1960     		str	r1, [r3]
1526:.\Generated_Source\PSoC4/CyLib.c **** }
 1497              		.loc 1 1526 0
 1498 000a 7047     		bx	lr
 1499              	.L120:
 1500              		.align	2
 1501              	.L119:
 1502 000c 80E100E0 		.word	-536813184
 1503              		.cfi_endproc
 1504              	.LFE30:
ARM GAS  C:\Users\Steve\AppData\Local\Temp\ccc4U1xk.s 			page 63


 1505              		.size	CyDisableInts, .-CyDisableInts
 1506              		.section	.text.CyEnableInts,"ax",%progbits
 1507              		.align	2
 1508              		.global	CyEnableInts
 1509              		.code	16
 1510              		.thumb_func
 1511              		.type	CyEnableInts, %function
 1512              	CyEnableInts:
 1513              	.LFB31:
1544:.\Generated_Source\PSoC4/CyLib.c **** {
 1514              		.loc 1 1544 0
 1515              		.cfi_startproc
 1516              	.LVL83:
1545:.\Generated_Source\PSoC4/CyLib.c ****     CY_INT_ENABLE_REG = mask;
 1517              		.loc 1 1545 0
 1518 0000 014B     		ldr	r3, .L122
1546:.\Generated_Source\PSoC4/CyLib.c **** }
 1519              		.loc 1 1546 0
 1520              		@ sp needed for prologue
1545:.\Generated_Source\PSoC4/CyLib.c ****     CY_INT_ENABLE_REG = mask;
 1521              		.loc 1 1545 0
 1522 0002 1860     		str	r0, [r3]
1546:.\Generated_Source\PSoC4/CyLib.c **** }
 1523              		.loc 1 1546 0
 1524 0004 7047     		bx	lr
 1525              	.L123:
 1526 0006 C046     		.align	2
 1527              	.L122:
 1528 0008 00E100E0 		.word	-536813312
 1529              		.cfi_endproc
 1530              	.LFE31:
 1531              		.size	CyEnableInts, .-CyEnableInts
 1532              		.section	.text.CyIntSetSysVector,"ax",%progbits
 1533              		.align	2
 1534              		.global	CyIntSetSysVector
 1535              		.code	16
 1536              		.thumb_func
 1537              		.type	CyIntSetSysVector, %function
 1538              	CyIntSetSysVector:
 1539              	.LFB32:
1566:.\Generated_Source\PSoC4/CyLib.c **** {
 1540              		.loc 1 1566 0
 1541              		.cfi_startproc
 1542              	.LVL84:
 1543 0000 00B5     		push	{lr}
 1544              	.LCFI15:
 1545              		.cfi_def_cfa_offset 4
 1546              		.cfi_offset 14, -4
1570:.\Generated_Source\PSoC4/CyLib.c ****     CYASSERT(number < CY_INT_IRQ_BASE);
 1547              		.loc 1 1570 0
 1548 0002 0F28     		cmp	r0, #15
 1549 0004 00D9     		bls	.L125
 1550              	.LVL85:
 1551              	.LBB136:
 1552              	.LBB137:
 1553              		.loc 1 1849 0
 1554              	@ 1849 ".\Generated_Source\PSoC4\CyLib.c" 1
ARM GAS  C:\Users\Steve\AppData\Local\Temp\ccc4U1xk.s 			page 64


 1555 0006 01BE     		    bkpt    1
 1556              	@ 0 "" 2
 1557              	.LVL86:
 1558              		.code	16
 1559              	.L125:
 1560              	.LBE137:
 1561              	.LBE136:
1573:.\Generated_Source\PSoC4/CyLib.c ****     oldIsr = ramVectorTable[number];
 1562              		.loc 1 1573 0
 1563 0008 8022     		mov	r2, #128
 1564 000a 8000     		lsl	r0, r0, #2
 1565              	.LVL87:
 1566 000c 9305     		lsl	r3, r2, #22
 1567 000e C218     		add	r2, r0, r3
 1568 0010 1068     		ldr	r0, [r2]
 1569              	.LVL88:
1579:.\Generated_Source\PSoC4/CyLib.c **** }
 1570              		.loc 1 1579 0
 1571              		@ sp needed for prologue
1576:.\Generated_Source\PSoC4/CyLib.c ****     ramVectorTable[number] = address;
 1572              		.loc 1 1576 0
 1573 0012 1160     		str	r1, [r2]
1579:.\Generated_Source\PSoC4/CyLib.c **** }
 1574              		.loc 1 1579 0
 1575 0014 00BD     		pop	{pc}
 1576              		.cfi_endproc
 1577              	.LFE32:
 1578              		.size	CyIntSetSysVector, .-CyIntSetSysVector
 1579 0016 C046     		.section	.text.CyIntGetSysVector,"ax",%progbits
 1580              		.align	2
 1581              		.global	CyIntGetSysVector
 1582              		.code	16
 1583              		.thumb_func
 1584              		.type	CyIntGetSysVector, %function
 1585              	CyIntGetSysVector:
 1586              	.LFB33:
1598:.\Generated_Source\PSoC4/CyLib.c **** {
 1587              		.loc 1 1598 0
 1588              		.cfi_startproc
 1589              	.LVL89:
 1590 0000 00B5     		push	{lr}
 1591              	.LCFI16:
 1592              		.cfi_def_cfa_offset 4
 1593              		.cfi_offset 14, -4
1601:.\Generated_Source\PSoC4/CyLib.c ****     CYASSERT(number < CY_INT_IRQ_BASE);
 1594              		.loc 1 1601 0
 1595 0002 0F28     		cmp	r0, #15
 1596 0004 00D9     		bls	.L127
 1597              	.LVL90:
 1598              	.LBB138:
 1599              	.LBB139:
 1600              		.loc 1 1849 0
 1601              	@ 1849 ".\Generated_Source\PSoC4\CyLib.c" 1
 1602 0006 01BE     		    bkpt    1
 1603              	@ 0 "" 2
 1604              	.LVL91:
 1605              		.code	16
ARM GAS  C:\Users\Steve\AppData\Local\Temp\ccc4U1xk.s 			page 65


 1606              	.L127:
 1607              	.LBE139:
 1608              	.LBE138:
1603:.\Generated_Source\PSoC4/CyLib.c ****     return(ramVectorTable[number]);
 1609              		.loc 1 1603 0
 1610 0008 8023     		mov	r3, #128
 1611 000a 8000     		lsl	r0, r0, #2
 1612              	.LVL92:
 1613 000c 9905     		lsl	r1, r3, #22
 1614 000e 4218     		add	r2, r0, r1
 1615 0010 1068     		ldr	r0, [r2]
1604:.\Generated_Source\PSoC4/CyLib.c **** }
 1616              		.loc 1 1604 0
 1617              		@ sp needed for prologue
 1618 0012 00BD     		pop	{pc}
 1619              		.cfi_endproc
 1620              	.LFE33:
 1621              		.size	CyIntGetSysVector, .-CyIntGetSysVector
 1622              		.section	.text.CyIntSetVector,"ax",%progbits
 1623              		.align	2
 1624              		.global	CyIntSetVector
 1625              		.code	16
 1626              		.thumb_func
 1627              		.type	CyIntSetVector, %function
 1628              	CyIntSetVector:
 1629              	.LFB34:
1623:.\Generated_Source\PSoC4/CyLib.c **** {
 1630              		.loc 1 1623 0
 1631              		.cfi_startproc
 1632              	.LVL93:
 1633 0000 00B5     		push	{lr}
 1634              	.LCFI17:
 1635              		.cfi_def_cfa_offset 4
 1636              		.cfi_offset 14, -4
1627:.\Generated_Source\PSoC4/CyLib.c ****     CYASSERT(number < CY_NUM_INTERRUPTS);
 1637              		.loc 1 1627 0
 1638 0002 1F28     		cmp	r0, #31
 1639 0004 00D9     		bls	.L129
 1640              	.LVL94:
 1641              	.LBB140:
 1642              	.LBB141:
 1643              		.loc 1 1849 0
 1644              	@ 1849 ".\Generated_Source\PSoC4\CyLib.c" 1
 1645 0006 01BE     		    bkpt    1
 1646              	@ 0 "" 2
 1647              	.LVL95:
 1648              		.code	16
 1649              	.L129:
 1650              	.LBE141:
 1651              	.LBE140:
1630:.\Generated_Source\PSoC4/CyLib.c ****     oldIsr = ramVectorTable[CY_INT_IRQ_BASE + number];
 1652              		.loc 1 1630 0
 1653 0008 024A     		ldr	r2, .L130
 1654 000a 8000     		lsl	r0, r0, #2
 1655              	.LVL96:
 1656 000c 8318     		add	r3, r0, r2
 1657 000e 1868     		ldr	r0, [r3]
ARM GAS  C:\Users\Steve\AppData\Local\Temp\ccc4U1xk.s 			page 66


 1658              	.LVL97:
1636:.\Generated_Source\PSoC4/CyLib.c **** }
 1659              		.loc 1 1636 0
 1660              		@ sp needed for prologue
1633:.\Generated_Source\PSoC4/CyLib.c ****     ramVectorTable[CY_INT_IRQ_BASE + number] = address;
 1661              		.loc 1 1633 0
 1662 0010 1960     		str	r1, [r3]
1636:.\Generated_Source\PSoC4/CyLib.c **** }
 1663              		.loc 1 1636 0
 1664 0012 00BD     		pop	{pc}
 1665              	.L131:
 1666              		.align	2
 1667              	.L130:
 1668 0014 40000020 		.word	536870976
 1669              		.cfi_endproc
 1670              	.LFE34:
 1671              		.size	CyIntSetVector, .-CyIntSetVector
 1672              		.section	.text.CyIntGetVector,"ax",%progbits
 1673              		.align	2
 1674              		.global	CyIntGetVector
 1675              		.code	16
 1676              		.thumb_func
 1677              		.type	CyIntGetVector, %function
 1678              	CyIntGetVector:
 1679              	.LFB35:
1654:.\Generated_Source\PSoC4/CyLib.c **** {
 1680              		.loc 1 1654 0
 1681              		.cfi_startproc
 1682              	.LVL98:
 1683 0000 00B5     		push	{lr}
 1684              	.LCFI18:
 1685              		.cfi_def_cfa_offset 4
 1686              		.cfi_offset 14, -4
1657:.\Generated_Source\PSoC4/CyLib.c ****     CYASSERT(number < CY_NUM_INTERRUPTS);
 1687              		.loc 1 1657 0
 1688 0002 1F28     		cmp	r0, #31
 1689 0004 00D9     		bls	.L133
 1690              	.LVL99:
 1691              	.LBB142:
 1692              	.LBB143:
 1693              		.loc 1 1849 0
 1694              	@ 1849 ".\Generated_Source\PSoC4\CyLib.c" 1
 1695 0006 01BE     		    bkpt    1
 1696              	@ 0 "" 2
 1697              	.LVL100:
 1698              		.code	16
 1699              	.L133:
 1700              	.LBE143:
 1701              	.LBE142:
1659:.\Generated_Source\PSoC4/CyLib.c ****     return (ramVectorTable[CY_INT_IRQ_BASE + number]);
 1702              		.loc 1 1659 0
 1703 0008 024B     		ldr	r3, .L134
 1704 000a 8000     		lsl	r0, r0, #2
 1705              	.LVL101:
 1706 000c C118     		add	r1, r0, r3
 1707 000e 0868     		ldr	r0, [r1]
1660:.\Generated_Source\PSoC4/CyLib.c **** }
ARM GAS  C:\Users\Steve\AppData\Local\Temp\ccc4U1xk.s 			page 67


 1708              		.loc 1 1660 0
 1709              		@ sp needed for prologue
 1710 0010 00BD     		pop	{pc}
 1711              	.L135:
 1712 0012 C046     		.align	2
 1713              	.L134:
 1714 0014 40000020 		.word	536870976
 1715              		.cfi_endproc
 1716              	.LFE35:
 1717              		.size	CyIntGetVector, .-CyIntGetVector
 1718              		.section	.text.CyIntSetPriority,"ax",%progbits
 1719              		.align	2
 1720              		.global	CyIntSetPriority
 1721              		.code	16
 1722              		.thumb_func
 1723              		.type	CyIntSetPriority, %function
 1724              	CyIntSetPriority:
 1725              	.LFB36:
1678:.\Generated_Source\PSoC4/CyLib.c **** {
 1726              		.loc 1 1678 0
 1727              		.cfi_startproc
 1728              	.LVL102:
 1729 0000 38B5     		push	{r3, r4, r5, lr}
 1730              	.LCFI19:
 1731              		.cfi_def_cfa_offset 16
 1732              		.cfi_offset 3, -16
 1733              		.cfi_offset 4, -12
 1734              		.cfi_offset 5, -8
 1735              		.cfi_offset 14, -4
1678:.\Generated_Source\PSoC4/CyLib.c **** {
 1736              		.loc 1 1678 0
 1737 0002 041C     		mov	r4, r0
 1738 0004 0D1E     		sub	r5, r1, #0
1683:.\Generated_Source\PSoC4/CyLib.c ****     CYASSERT(priority <= CY_MIN_PRIORITY);
 1739              		.loc 1 1683 0
 1740 0006 032D     		cmp	r5, #3
 1741 0008 00D9     		bls	.L137
 1742              	.LVL103:
 1743              	.LBB144:
 1744              	.LBB145:
 1745              		.loc 1 1849 0
 1746              	@ 1849 ".\Generated_Source\PSoC4\CyLib.c" 1
 1747 000a 01BE     		    bkpt    1
 1748              	@ 0 "" 2
 1749              	.LVL104:
 1750              		.code	16
 1751              	.L137:
 1752              	.LBE145:
 1753              	.LBE144:
1684:.\Generated_Source\PSoC4/CyLib.c ****     CYASSERT(number < CY_NUM_INTERRUPTS);
 1754              		.loc 1 1684 0
 1755 000c 1F2C     		cmp	r4, #31
 1756 000e 00D9     		bls	.L138
 1757              	.LVL105:
 1758              	.LBB146:
 1759              	.LBB147:
 1760              		.loc 1 1849 0
ARM GAS  C:\Users\Steve\AppData\Local\Temp\ccc4U1xk.s 			page 68


 1761              	@ 1849 ".\Generated_Source\PSoC4\CyLib.c" 1
 1762 0010 01BE     		    bkpt    1
 1763              	@ 0 "" 2
 1764              	.LVL106:
 1765              		.code	16
 1766              	.L138:
 1767              	.LBE147:
 1768              	.LBE146:
1688:.\Generated_Source\PSoC4/CyLib.c ****     interruptState = CyEnterCriticalSection();
 1769              		.loc 1 1688 0
 1770 0012 FFF7FEFF 		bl	CyEnterCriticalSection
 1771              	.LVL107:
1690:.\Generated_Source\PSoC4/CyLib.c ****     value = CY_INT_PRIORITY_REG(number);
 1772              		.loc 1 1690 0
 1773 0016 A308     		lsr	r3, r4, #2
 1774 0018 084A     		ldr	r2, .L139
 1775 001a 9900     		lsl	r1, r3, #2
 1776 001c 8B18     		add	r3, r1, r2
1686:.\Generated_Source\PSoC4/CyLib.c ****     shift = CY_INT_PRIORITY_SHIFT(number);
 1777              		.loc 1 1686 0
 1778 001e 0322     		mov	r2, #3
 1779 0020 1440     		and	r4, r2
 1780              	.LVL108:
 1781 0022 E400     		lsl	r4, r4, #3
1690:.\Generated_Source\PSoC4/CyLib.c ****     value = CY_INT_PRIORITY_REG(number);
 1782              		.loc 1 1690 0
 1783 0024 1968     		ldr	r1, [r3]
 1784              	.LVL109:
1686:.\Generated_Source\PSoC4/CyLib.c ****     shift = CY_INT_PRIORITY_SHIFT(number);
 1785              		.loc 1 1686 0
 1786 0026 0634     		add	r4, r4, #6
1691:.\Generated_Source\PSoC4/CyLib.c ****     value &= (uint32)(~((uint32)(CY_INT_PRIORITY_MASK << shift)));
 1787              		.loc 1 1691 0
 1788 0028 A240     		lsl	r2, r2, r4
 1789 002a 9143     		bic	r1, r2
 1790              	.LVL110:
1692:.\Generated_Source\PSoC4/CyLib.c ****     value |= ((uint32)priority << shift);
 1791              		.loc 1 1692 0
 1792 002c A540     		lsl	r5, r5, r4
 1793 002e 0A1C     		mov	r2, r1
 1794 0030 2A43     		orr	r2, r5
 1795              	.LVL111:
1693:.\Generated_Source\PSoC4/CyLib.c ****     CY_INT_PRIORITY_REG(number) = value;
 1796              		.loc 1 1693 0
 1797 0032 1A60     		str	r2, [r3]
1695:.\Generated_Source\PSoC4/CyLib.c ****     CyExitCriticalSection(interruptState);
 1798              		.loc 1 1695 0
 1799 0034 FFF7FEFF 		bl	CyExitCriticalSection
 1800              	.LVL112:
1696:.\Generated_Source\PSoC4/CyLib.c **** }
 1801              		.loc 1 1696 0
 1802              		@ sp needed for prologue
 1803 0038 38BD     		pop	{r3, r4, r5, pc}
 1804              	.L140:
 1805 003a C046     		.align	2
 1806              	.L139:
 1807 003c 00E400E0 		.word	-536812544
ARM GAS  C:\Users\Steve\AppData\Local\Temp\ccc4U1xk.s 			page 69


 1808              		.cfi_endproc
 1809              	.LFE36:
 1810              		.size	CyIntSetPriority, .-CyIntSetPriority
 1811              		.section	.text.CyIntGetPriority,"ax",%progbits
 1812              		.align	2
 1813              		.global	CyIntGetPriority
 1814              		.code	16
 1815              		.thumb_func
 1816              		.type	CyIntGetPriority, %function
 1817              	CyIntGetPriority:
 1818              	.LFB37:
1714:.\Generated_Source\PSoC4/CyLib.c **** {
 1819              		.loc 1 1714 0
 1820              		.cfi_startproc
 1821              	.LVL113:
 1822 0000 00B5     		push	{lr}
 1823              	.LCFI20:
 1824              		.cfi_def_cfa_offset 4
 1825              		.cfi_offset 14, -4
1717:.\Generated_Source\PSoC4/CyLib.c ****     CYASSERT(number < CY_NUM_INTERRUPTS);
 1826              		.loc 1 1717 0
 1827 0002 1F28     		cmp	r0, #31
 1828 0004 00D9     		bls	.L142
 1829              	.LVL114:
 1830              	.LBB148:
 1831              	.LBB149:
 1832              		.loc 1 1849 0
 1833              	@ 1849 ".\Generated_Source\PSoC4\CyLib.c" 1
 1834 0006 01BE     		    bkpt    1
 1835              	@ 0 "" 2
 1836              	.LVL115:
 1837              		.code	16
 1838              	.L142:
 1839              	.LBE149:
 1840              	.LBE148:
1719:.\Generated_Source\PSoC4/CyLib.c ****     priority = (uint8) (CY_INT_PRIORITY_REG(number) >> CY_INT_PRIORITY_SHIFT(number));
 1841              		.loc 1 1719 0
 1842 0008 8308     		lsr	r3, r0, #2
 1843 000a 064A     		ldr	r2, .L143
 1844 000c 9900     		lsl	r1, r3, #2
 1845 000e 8B18     		add	r3, r1, r2
 1846 0010 0322     		mov	r2, #3
 1847 0012 1040     		and	r0, r2
 1848              	.LVL116:
 1849 0014 1968     		ldr	r1, [r3]
 1850 0016 C000     		lsl	r0, r0, #3
 1851 0018 0630     		add	r0, r0, #6
 1852 001a C140     		lsr	r1, r1, r0
 1853 001c 081C     		mov	r0, r1
1721:.\Generated_Source\PSoC4/CyLib.c ****     return (priority & (uint8) CY_INT_PRIORITY_MASK);
 1854              		.loc 1 1721 0
 1855 001e 1040     		and	r0, r2
1722:.\Generated_Source\PSoC4/CyLib.c **** }
 1856              		.loc 1 1722 0
 1857              		@ sp needed for prologue
 1858 0020 00BD     		pop	{pc}
 1859              	.L144:
ARM GAS  C:\Users\Steve\AppData\Local\Temp\ccc4U1xk.s 			page 70


 1860 0022 C046     		.align	2
 1861              	.L143:
 1862 0024 00E400E0 		.word	-536812544
 1863              		.cfi_endproc
 1864              	.LFE37:
 1865              		.size	CyIntGetPriority, .-CyIntGetPriority
 1866              		.section	.text.CyIntEnable,"ax",%progbits
 1867              		.align	2
 1868              		.global	CyIntEnable
 1869              		.code	16
 1870              		.thumb_func
 1871              		.type	CyIntEnable, %function
 1872              	CyIntEnable:
 1873              	.LFB38:
1740:.\Generated_Source\PSoC4/CyLib.c **** {
 1874              		.loc 1 1740 0
 1875              		.cfi_startproc
 1876              	.LVL117:
1741:.\Generated_Source\PSoC4/CyLib.c ****     CY_INT_ENABLE_REG = ((uint32) 0x01u << (CY_INT_ENABLE_RANGE_MASK & number));
 1877              		.loc 1 1741 0
 1878 0000 1F23     		mov	r3, #31
 1879 0002 1840     		and	r0, r3
 1880              	.LVL118:
 1881 0004 024A     		ldr	r2, .L146
 1882 0006 0121     		mov	r1, #1
 1883 0008 8140     		lsl	r1, r1, r0
 1884 000a 1160     		str	r1, [r2]
1742:.\Generated_Source\PSoC4/CyLib.c **** }
 1885              		.loc 1 1742 0
 1886              		@ sp needed for prologue
 1887 000c 7047     		bx	lr
 1888              	.L147:
 1889 000e C046     		.align	2
 1890              	.L146:
 1891 0010 00E100E0 		.word	-536813312
 1892              		.cfi_endproc
 1893              	.LFE38:
 1894              		.size	CyIntEnable, .-CyIntEnable
 1895              		.section	.text.CyIntGetState,"ax",%progbits
 1896              		.align	2
 1897              		.global	CyIntGetState
 1898              		.code	16
 1899              		.thumb_func
 1900              		.type	CyIntGetState, %function
 1901              	CyIntGetState:
 1902              	.LFB39:
1760:.\Generated_Source\PSoC4/CyLib.c **** {
 1903              		.loc 1 1760 0
 1904              		.cfi_startproc
 1905              	.LVL119:
1762:.\Generated_Source\PSoC4/CyLib.c ****     return ((0u != (CY_INT_ENABLE_REG & ((uint32) 0x01u << (CY_INT_ENABLE_RANGE_MASK & number)))) ?
 1906              		.loc 1 1762 0
 1907 0000 044B     		ldr	r3, .L149
 1908 0002 1F22     		mov	r2, #31
 1909 0004 1968     		ldr	r1, [r3]
 1910 0006 1040     		and	r0, r2
 1911              	.LVL120:
ARM GAS  C:\Users\Steve\AppData\Local\Temp\ccc4U1xk.s 			page 71


 1912 0008 C140     		lsr	r1, r1, r0
 1913 000a 081C     		mov	r0, r1
 1914 000c 0123     		mov	r3, #1
 1915 000e 1840     		and	r0, r3
1763:.\Generated_Source\PSoC4/CyLib.c **** }
 1916              		.loc 1 1763 0
 1917              		@ sp needed for prologue
 1918 0010 7047     		bx	lr
 1919              	.L150:
 1920 0012 C046     		.align	2
 1921              	.L149:
 1922 0014 00E100E0 		.word	-536813312
 1923              		.cfi_endproc
 1924              	.LFE39:
 1925              		.size	CyIntGetState, .-CyIntGetState
 1926              		.section	.text.CyIntDisable,"ax",%progbits
 1927              		.align	2
 1928              		.global	CyIntDisable
 1929              		.code	16
 1930              		.thumb_func
 1931              		.type	CyIntDisable, %function
 1932              	CyIntDisable:
 1933              	.LFB40:
1781:.\Generated_Source\PSoC4/CyLib.c **** {
 1934              		.loc 1 1781 0
 1935              		.cfi_startproc
 1936              	.LVL121:
1782:.\Generated_Source\PSoC4/CyLib.c ****     CY_INT_CLEAR_REG = ((uint32) 0x01u << (CY_INT_ENABLE_RANGE_MASK & number));
 1937              		.loc 1 1782 0
 1938 0000 1F23     		mov	r3, #31
 1939 0002 1840     		and	r0, r3
 1940              	.LVL122:
 1941 0004 024A     		ldr	r2, .L152
 1942 0006 0121     		mov	r1, #1
 1943 0008 8140     		lsl	r1, r1, r0
 1944 000a 1160     		str	r1, [r2]
1783:.\Generated_Source\PSoC4/CyLib.c **** }
 1945              		.loc 1 1783 0
 1946              		@ sp needed for prologue
 1947 000c 7047     		bx	lr
 1948              	.L153:
 1949 000e C046     		.align	2
 1950              	.L152:
 1951 0010 80E100E0 		.word	-536813184
 1952              		.cfi_endproc
 1953              	.LFE40:
 1954              		.size	CyIntDisable, .-CyIntDisable
 1955              		.section	.text.CyIntSetPending,"ax",%progbits
 1956              		.align	2
 1957              		.global	CyIntSetPending
 1958              		.code	16
 1959              		.thumb_func
 1960              		.type	CyIntSetPending, %function
 1961              	CyIntSetPending:
 1962              	.LFB41:
1800:.\Generated_Source\PSoC4/CyLib.c **** {
 1963              		.loc 1 1800 0
ARM GAS  C:\Users\Steve\AppData\Local\Temp\ccc4U1xk.s 			page 72


 1964              		.cfi_startproc
 1965              	.LVL123:
1801:.\Generated_Source\PSoC4/CyLib.c ****     CY_INT_SET_PEND_REG = ((uint32) 0x01u << (CY_INT_ENABLE_RANGE_MASK & number));
 1966              		.loc 1 1801 0
 1967 0000 1F23     		mov	r3, #31
 1968 0002 1840     		and	r0, r3
 1969              	.LVL124:
 1970 0004 024A     		ldr	r2, .L155
 1971 0006 0121     		mov	r1, #1
 1972 0008 8140     		lsl	r1, r1, r0
 1973 000a 1160     		str	r1, [r2]
1802:.\Generated_Source\PSoC4/CyLib.c **** }
 1974              		.loc 1 1802 0
 1975              		@ sp needed for prologue
 1976 000c 7047     		bx	lr
 1977              	.L156:
 1978 000e C046     		.align	2
 1979              	.L155:
 1980 0010 00E200E0 		.word	-536813056
 1981              		.cfi_endproc
 1982              	.LFE41:
 1983              		.size	CyIntSetPending, .-CyIntSetPending
 1984              		.section	.text.CyIntClearPending,"ax",%progbits
 1985              		.align	2
 1986              		.global	CyIntClearPending
 1987              		.code	16
 1988              		.thumb_func
 1989              		.type	CyIntClearPending, %function
 1990              	CyIntClearPending:
 1991              	.LFB42:
1820:.\Generated_Source\PSoC4/CyLib.c **** {
 1992              		.loc 1 1820 0
 1993              		.cfi_startproc
 1994              	.LVL125:
1821:.\Generated_Source\PSoC4/CyLib.c ****     CY_INT_CLR_PEND_REG = ((uint32) 0x01u << (CY_INT_ENABLE_RANGE_MASK & number));
 1995              		.loc 1 1821 0
 1996 0000 1F23     		mov	r3, #31
 1997 0002 1840     		and	r0, r3
 1998              	.LVL126:
 1999 0004 024A     		ldr	r2, .L158
 2000 0006 0121     		mov	r1, #1
 2001 0008 8140     		lsl	r1, r1, r0
 2002 000a 1160     		str	r1, [r2]
1822:.\Generated_Source\PSoC4/CyLib.c **** }
 2003              		.loc 1 1822 0
 2004              		@ sp needed for prologue
 2005 000c 7047     		bx	lr
 2006              	.L159:
 2007 000e C046     		.align	2
 2008              	.L158:
 2009 0010 80E200E0 		.word	-536812928
 2010              		.cfi_endproc
 2011              	.LFE42:
 2012              		.size	CyIntClearPending, .-CyIntClearPending
 2013              		.section	.text.CyHalt,"ax",%progbits
 2014              		.align	2
 2015              		.global	CyHalt
ARM GAS  C:\Users\Steve\AppData\Local\Temp\ccc4U1xk.s 			page 73


 2016              		.code	16
 2017              		.thumb_func
 2018              		.type	CyHalt, %function
 2019              	CyHalt:
 2020              	.LFB43:
1840:.\Generated_Source\PSoC4/CyLib.c **** {
 2021              		.loc 1 1840 0
 2022              		.cfi_startproc
 2023              	.LVL127:
 2024              		.loc 1 1849 0
 2025              	@ 1849 ".\Generated_Source\PSoC4\CyLib.c" 1
 2026 0000 01BE     		    bkpt    1
 2027              	@ 0 "" 2
1850:.\Generated_Source\PSoC4/CyLib.c ****     #elif defined(__C51__)
1851:.\Generated_Source\PSoC4/CyLib.c ****         CYDEV_HALT_CPU;
1852:.\Generated_Source\PSoC4/CyLib.c ****     #endif  /* (__ARMCC_VERSION) */
1853:.\Generated_Source\PSoC4/CyLib.c **** }
 2028              		.loc 1 1853 0
 2029              		.code	16
 2030              		@ sp needed for prologue
 2031 0002 7047     		bx	lr
 2032              		.cfi_endproc
 2033              	.LFE43:
 2034              		.size	CyHalt, .-CyHalt
 2035              		.section	.text.CySoftwareReset,"ax",%progbits
 2036              		.align	2
 2037              		.global	CySoftwareReset
 2038              		.code	16
 2039              		.thumb_func
 2040              		.type	CySoftwareReset, %function
 2041              	CySoftwareReset:
 2042              	.LFB44:
1854:.\Generated_Source\PSoC4/CyLib.c **** 
1855:.\Generated_Source\PSoC4/CyLib.c **** 
1856:.\Generated_Source\PSoC4/CyLib.c **** /*******************************************************************************
1857:.\Generated_Source\PSoC4/CyLib.c **** * Function Name: CySoftwareReset
1858:.\Generated_Source\PSoC4/CyLib.c **** ********************************************************************************
1859:.\Generated_Source\PSoC4/CyLib.c **** *
1860:.\Generated_Source\PSoC4/CyLib.c **** * Summary:
1861:.\Generated_Source\PSoC4/CyLib.c **** *  Forces a software reset of the device.
1862:.\Generated_Source\PSoC4/CyLib.c **** *
1863:.\Generated_Source\PSoC4/CyLib.c **** * Parameters:
1864:.\Generated_Source\PSoC4/CyLib.c **** *  None
1865:.\Generated_Source\PSoC4/CyLib.c **** *
1866:.\Generated_Source\PSoC4/CyLib.c **** * Return:
1867:.\Generated_Source\PSoC4/CyLib.c **** *  None
1868:.\Generated_Source\PSoC4/CyLib.c **** *
1869:.\Generated_Source\PSoC4/CyLib.c **** *******************************************************************************/
1870:.\Generated_Source\PSoC4/CyLib.c **** void CySoftwareReset(void)
1871:.\Generated_Source\PSoC4/CyLib.c **** {
 2043              		.loc 1 1871 0
 2044              		.cfi_startproc
1872:.\Generated_Source\PSoC4/CyLib.c ****     /***************************************************************************
1873:.\Generated_Source\PSoC4/CyLib.c ****     * Setting the system reset request bit. The vector key value must be written
1874:.\Generated_Source\PSoC4/CyLib.c ****     * to the register, otherwise the register write is unpredictable.
1875:.\Generated_Source\PSoC4/CyLib.c ****     ***************************************************************************/
1876:.\Generated_Source\PSoC4/CyLib.c ****     CY_SYS_CM0_AIRCR_REG = (CY_SYS_CM0_AIRCR_REG & (uint32)(~CY_SYS_CM0_AIRCR_VECTKEY_MASK)) |
ARM GAS  C:\Users\Steve\AppData\Local\Temp\ccc4U1xk.s 			page 74


 2045              		.loc 1 1876 0
 2046 0000 034B     		ldr	r3, .L162
1877:.\Generated_Source\PSoC4/CyLib.c ****                             CY_SYS_CM0_AIRCR_VECTKEY | CY_SYS_CM0_AIRCR_SYSRESETREQ;
 2047              		.loc 1 1877 0
 2048 0002 0449     		ldr	r1, .L162+4
1876:.\Generated_Source\PSoC4/CyLib.c ****     CY_SYS_CM0_AIRCR_REG = (CY_SYS_CM0_AIRCR_REG & (uint32)(~CY_SYS_CM0_AIRCR_VECTKEY_MASK)) |
 2049              		.loc 1 1876 0
 2050 0004 1A68     		ldr	r2, [r3]
1878:.\Generated_Source\PSoC4/CyLib.c **** }
 2051              		.loc 1 1878 0
 2052              		@ sp needed for prologue
1876:.\Generated_Source\PSoC4/CyLib.c ****     CY_SYS_CM0_AIRCR_REG = (CY_SYS_CM0_AIRCR_REG & (uint32)(~CY_SYS_CM0_AIRCR_VECTKEY_MASK)) |
 2053              		.loc 1 1876 0
 2054 0006 1004     		lsl	r0, r2, #16
 2055 0008 020C     		lsr	r2, r0, #16
1877:.\Generated_Source\PSoC4/CyLib.c ****                             CY_SYS_CM0_AIRCR_VECTKEY | CY_SYS_CM0_AIRCR_SYSRESETREQ;
 2056              		.loc 1 1877 0
 2057 000a 0A43     		orr	r2, r1
1876:.\Generated_Source\PSoC4/CyLib.c ****     CY_SYS_CM0_AIRCR_REG = (CY_SYS_CM0_AIRCR_REG & (uint32)(~CY_SYS_CM0_AIRCR_VECTKEY_MASK)) |
 2058              		.loc 1 1876 0
 2059 000c 1A60     		str	r2, [r3]
 2060              		.loc 1 1878 0
 2061 000e 7047     		bx	lr
 2062              	.L163:
 2063              		.align	2
 2064              	.L162:
 2065 0010 0CED00E0 		.word	-536810228
 2066 0014 0400FA05 		.word	100270084
 2067              		.cfi_endproc
 2068              	.LFE44:
 2069              		.size	CySoftwareReset, .-CySoftwareReset
 2070              		.section	.text.CyDelay,"ax",%progbits
 2071              		.align	2
 2072              		.global	CyDelay
 2073              		.code	16
 2074              		.thumb_func
 2075              		.type	CyDelay, %function
 2076              	CyDelay:
 2077              	.LFB45:
1879:.\Generated_Source\PSoC4/CyLib.c **** 
1880:.\Generated_Source\PSoC4/CyLib.c **** 
1881:.\Generated_Source\PSoC4/CyLib.c **** /*******************************************************************************
1882:.\Generated_Source\PSoC4/CyLib.c **** * Function Name: CyDelay
1883:.\Generated_Source\PSoC4/CyLib.c **** ********************************************************************************
1884:.\Generated_Source\PSoC4/CyLib.c **** *
1885:.\Generated_Source\PSoC4/CyLib.c **** * Summary:
1886:.\Generated_Source\PSoC4/CyLib.c **** *  Blocks for milliseconds.
1887:.\Generated_Source\PSoC4/CyLib.c **** *
1888:.\Generated_Source\PSoC4/CyLib.c **** * Parameters:
1889:.\Generated_Source\PSoC4/CyLib.c **** *  milliseconds: number of milliseconds to delay.
1890:.\Generated_Source\PSoC4/CyLib.c **** *
1891:.\Generated_Source\PSoC4/CyLib.c **** * Return:
1892:.\Generated_Source\PSoC4/CyLib.c **** *  None
1893:.\Generated_Source\PSoC4/CyLib.c **** *
1894:.\Generated_Source\PSoC4/CyLib.c **** *******************************************************************************/
1895:.\Generated_Source\PSoC4/CyLib.c **** void CyDelay(uint32 milliseconds)
1896:.\Generated_Source\PSoC4/CyLib.c **** {
ARM GAS  C:\Users\Steve\AppData\Local\Temp\ccc4U1xk.s 			page 75


 2078              		.loc 1 1896 0
 2079              		.cfi_startproc
 2080              	.LVL128:
 2081 0000 F0B5     		push	{r4, r5, r6, r7, lr}
 2082              	.LCFI21:
 2083              		.cfi_def_cfa_offset 20
 2084              		.cfi_offset 4, -20
 2085              		.cfi_offset 5, -16
 2086              		.cfi_offset 6, -12
 2087              		.cfi_offset 7, -8
 2088              		.cfi_offset 14, -4
 2089 0002 4746     		mov	r7, r8
 2090 0004 80B4     		push	{r7}
 2091              	.LCFI22:
 2092              		.cfi_def_cfa_offset 24
 2093              		.cfi_offset 8, -24
1897:.\Generated_Source\PSoC4/CyLib.c ****     while (milliseconds > CY_DELAY_MS_OVERFLOW)
 2094              		.loc 1 1897 0
 2095 0006 8027     		mov	r7, #128
1896:.\Generated_Source\PSoC4/CyLib.c **** {
 2096              		.loc 1 1896 0
 2097 0008 061C     		mov	r6, r0
 2098              		.loc 1 1897 0
 2099 000a 3F02     		lsl	r7, r7, #8
 2100 000c 184D     		ldr	r5, .L177
 2101 000e B842     		cmp	r0, r7
 2102 0010 26D9     		bls	.L165
 2103 0012 184A     		ldr	r2, .L177+4
1898:.\Generated_Source\PSoC4/CyLib.c ****     {
1899:.\Generated_Source\PSoC4/CyLib.c ****         /* This loop prevents overflow.
1900:.\Generated_Source\PSoC4/CyLib.c ****          * At 100MHz, milliseconds * cydelayFreqKhz overflows at about 42 seconds
1901:.\Generated_Source\PSoC4/CyLib.c ****          */
1902:.\Generated_Source\PSoC4/CyLib.c ****         CyDelayCycles(cydelay32kMs);
1903:.\Generated_Source\PSoC4/CyLib.c ****         milliseconds -= CY_DELAY_MS_OVERFLOW;
 2104              		.loc 1 1903 0
 2105 0014 184C     		ldr	r4, .L177+8
 2106 0016 8318     		add	r3, r0, r2
 2107 0018 1804     		lsl	r0, r3, #16
 2108              	.LVL129:
 2109 001a C10F     		lsr	r1, r0, #31
 2110 001c 3419     		add	r4, r6, r4
1902:.\Generated_Source\PSoC4/CyLib.c ****         CyDelayCycles(cydelay32kMs);
 2111              		.loc 1 1902 0
 2112 001e 2868     		ldr	r0, [r5]
 2113 0020 8846     		mov	r8, r1
 2114 0022 FFF7FEFF 		bl	CyDelayCycles
 2115              	.LVL130:
1897:.\Generated_Source\PSoC4/CyLib.c ****     while (milliseconds > CY_DELAY_MS_OVERFLOW)
 2116              		.loc 1 1897 0
 2117 0026 BC42     		cmp	r4, r7
 2118 0028 13D9     		bls	.L176
 2119 002a 4246     		mov	r2, r8
 2120 002c 002A     		cmp	r2, #0
 2121 002e 06D0     		beq	.L166
1902:.\Generated_Source\PSoC4/CyLib.c ****         CyDelayCycles(cydelay32kMs);
 2122              		.loc 1 1902 0
 2123 0030 2868     		ldr	r0, [r5]
ARM GAS  C:\Users\Steve\AppData\Local\Temp\ccc4U1xk.s 			page 76


 2124 0032 FFF7FEFF 		bl	CyDelayCycles
 2125              	.LVL131:
 2126              		.loc 1 1903 0
 2127 0036 114B     		ldr	r3, .L177+12
 2128 0038 F418     		add	r4, r6, r3
 2129              	.LVL132:
1897:.\Generated_Source\PSoC4/CyLib.c ****     while (milliseconds > CY_DELAY_MS_OVERFLOW)
 2130              		.loc 1 1897 0
 2131 003a BC42     		cmp	r4, r7
 2132 003c 09D9     		bls	.L176
 2133              	.L166:
1902:.\Generated_Source\PSoC4/CyLib.c ****         CyDelayCycles(cydelay32kMs);
 2134              		.loc 1 1902 0
 2135 003e 2868     		ldr	r0, [r5]
 2136 0040 FFF7FEFF 		bl	CyDelayCycles
 2137              	.LVL133:
 2138 0044 2868     		ldr	r0, [r5]
 2139 0046 FFF7FEFF 		bl	CyDelayCycles
 2140              	.LVL134:
 2141              		.loc 1 1903 0
 2142 004a 0C48     		ldr	r0, .L177+12
 2143 004c 2418     		add	r4, r4, r0
1897:.\Generated_Source\PSoC4/CyLib.c ****     while (milliseconds > CY_DELAY_MS_OVERFLOW)
 2144              		.loc 1 1897 0
 2145 004e BC42     		cmp	r4, r7
 2146 0050 F5D8     		bhi	.L166
 2147              	.L176:
1895:.\Generated_Source\PSoC4/CyLib.c **** void CyDelay(uint32 milliseconds)
 2148              		.loc 1 1895 0
 2149 0052 084F     		ldr	r7, .L177+4
 2150 0054 084C     		ldr	r4, .L177+8
 2151 0056 F119     		add	r1, r6, r7
 2152 0058 CA0B     		lsr	r2, r1, #15
 2153 005a D303     		lsl	r3, r2, #15
 2154 005c 3619     		add	r6, r6, r4
 2155 005e F61A     		sub	r6, r6, r3
 2156              	.L165:
1904:.\Generated_Source\PSoC4/CyLib.c ****     }
1905:.\Generated_Source\PSoC4/CyLib.c **** 
1906:.\Generated_Source\PSoC4/CyLib.c ****     CyDelayCycles(milliseconds * cydelayFreqKhz);
 2157              		.loc 1 1906 0
 2158 0060 6868     		ldr	r0, [r5, #4]
1907:.\Generated_Source\PSoC4/CyLib.c **** }
 2159              		.loc 1 1907 0
 2160              		@ sp needed for prologue
1906:.\Generated_Source\PSoC4/CyLib.c ****     CyDelayCycles(milliseconds * cydelayFreqKhz);
 2161              		.loc 1 1906 0
