ARM GAS  C:\Users\Steve\AppData\Local\Temp\ccc4U1xk.s 			page 1


   1              		.cpu cortex-m0
   2              		.fpu softvfp
   3              		.eabi_attribute 20, 1
   4              		.eabi_attribute 21, 1
   5              		.eabi_attribute 23, 3
   6              		.eabi_attribute 24, 1
   7              		.eabi_attribute 25, 1
   8              		.eabi_attribute 26, 1
   9              		.eabi_attribute 30, 2
  10              		.eabi_attribute 34, 0
  11              		.eabi_attribute 18, 4
  12              		.code	16
  13              		.file	"CyLib.c"
  14              		.text
  15              	.Ltext0:
  16              		.cfi_sections	.debug_frame
  17              		.section	.text.CySysClkImoStart,"ax",%progbits
  18              		.align	2
  19              		.global	CySysClkImoStart
  20              		.code	16
  21              		.thumb_func
  22              		.type	CySysClkImoStart, %function
  23              	CySysClkImoStart:
  24              	.LFB0:
  25              		.file 1 ".\\Generated_Source\\PSoC4\\CyLib.c"
   1:.\Generated_Source\PSoC4/CyLib.c **** /*******************************************************************************
   2:.\Generated_Source\PSoC4/CyLib.c **** * File Name: CyLib.c
   3:.\Generated_Source\PSoC4/CyLib.c **** * Version 4.0
   4:.\Generated_Source\PSoC4/CyLib.c **** *
   5:.\Generated_Source\PSoC4/CyLib.c **** *  Description:
   6:.\Generated_Source\PSoC4/CyLib.c **** *   Provides system API for the clocking, interrupts and watchdog timer.
   7:.\Generated_Source\PSoC4/CyLib.c **** *
   8:.\Generated_Source\PSoC4/CyLib.c **** *  Note:
   9:.\Generated_Source\PSoC4/CyLib.c **** *   Documentation of the API's in this file is located in the
  10:.\Generated_Source\PSoC4/CyLib.c **** *   System Reference Guide provided with PSoC Creator.
  11:.\Generated_Source\PSoC4/CyLib.c **** *
  12:.\Generated_Source\PSoC4/CyLib.c **** ********************************************************************************
  13:.\Generated_Source\PSoC4/CyLib.c **** * Copyright 2010-2013, Cypress Semiconductor Corporation.  All rights reserved.
  14:.\Generated_Source\PSoC4/CyLib.c **** * You may use this file only in accordance with the license, terms, conditions,
  15:.\Generated_Source\PSoC4/CyLib.c **** * disclaimers, and limitations in the end user license agreement accompanying
  16:.\Generated_Source\PSoC4/CyLib.c **** * the software package with which this file was provided.
  17:.\Generated_Source\PSoC4/CyLib.c **** *******************************************************************************/
  18:.\Generated_Source\PSoC4/CyLib.c **** 
  19:.\Generated_Source\PSoC4/CyLib.c **** #include "CyLib.h"
  20:.\Generated_Source\PSoC4/CyLib.c **** 
  21:.\Generated_Source\PSoC4/CyLib.c **** 
  22:.\Generated_Source\PSoC4/CyLib.c **** /* Do not use these definitions directly in your application */
  23:.\Generated_Source\PSoC4/CyLib.c **** uint32 cydelayFreqHz  = CYDEV_BCLK__SYSCLK__HZ;
  24:.\Generated_Source\PSoC4/CyLib.c **** uint32 cydelayFreqKhz = (CYDEV_BCLK__SYSCLK__HZ + CY_DELAY_1K_MINUS_1_THRESHOLD) / CY_DELAY_1K_THRE
  25:.\Generated_Source\PSoC4/CyLib.c **** uint8  cydelayFreqMhz = (uint8)((CYDEV_BCLK__SYSCLK__HZ + CY_DELAY_1M_MINUS_1_THRESHOLD) / CY_DELAY
  26:.\Generated_Source\PSoC4/CyLib.c **** uint32 cydelay32kMs   = CY_DELAY_MS_OVERFLOW * ((CYDEV_BCLK__SYSCLK__HZ + CY_DELAY_1K_MINUS_1_THRES
  27:.\Generated_Source\PSoC4/CyLib.c ****                         CY_DELAY_1K_THRESHOLD);
  28:.\Generated_Source\PSoC4/CyLib.c **** 
  29:.\Generated_Source\PSoC4/CyLib.c **** 
  30:.\Generated_Source\PSoC4/CyLib.c **** /*******************************************************************************
  31:.\Generated_Source\PSoC4/CyLib.c **** * Function Name: CySysClkImoStart
  32:.\Generated_Source\PSoC4/CyLib.c **** ********************************************************************************
ARM GAS  C:\Users\Steve\AppData\Local\Temp\ccc4U1xk.s 			page 2


  33:.\Generated_Source\PSoC4/CyLib.c **** *
  34:.\Generated_Source\PSoC4/CyLib.c **** * Summary:
  35:.\Generated_Source\PSoC4/CyLib.c **** *  Enables the IMO.
  36:.\Generated_Source\PSoC4/CyLib.c **** *
  37:.\Generated_Source\PSoC4/CyLib.c **** * Parameters:
  38:.\Generated_Source\PSoC4/CyLib.c **** *  None
  39:.\Generated_Source\PSoC4/CyLib.c **** *
  40:.\Generated_Source\PSoC4/CyLib.c **** * Return:
  41:.\Generated_Source\PSoC4/CyLib.c **** *  None
  42:.\Generated_Source\PSoC4/CyLib.c **** *
  43:.\Generated_Source\PSoC4/CyLib.c **** *******************************************************************************/
  44:.\Generated_Source\PSoC4/CyLib.c **** void CySysClkImoStart(void)
  45:.\Generated_Source\PSoC4/CyLib.c **** {
  26              		.loc 1 45 0
  27              		.cfi_startproc
  46:.\Generated_Source\PSoC4/CyLib.c ****     CY_SYS_CLK_IMO_CONFIG_REG |= CY_SYS_CLK_IMO_CONFIG_ENABLE;
  28              		.loc 1 46 0
  29 0000 034B     		ldr	r3, .L2
  30 0002 8022     		mov	r2, #128
  31 0004 1968     		ldr	r1, [r3]
  32 0006 1006     		lsl	r0, r2, #24
  33 0008 0843     		orr	r0, r1
  34 000a 1860     		str	r0, [r3]
  47:.\Generated_Source\PSoC4/CyLib.c **** }
  35              		.loc 1 47 0
  36              		@ sp needed for prologue
  37 000c 7047     		bx	lr
  38              	.L3:
  39 000e C046     		.align	2
  40              	.L2:
  41 0010 08010B40 		.word	1074462984
  42              		.cfi_endproc
  43              	.LFE0:
  44              		.size	CySysClkImoStart, .-CySysClkImoStart
  45              		.section	.text.CySysClkImoStop,"ax",%progbits
  46              		.align	2
  47              		.global	CySysClkImoStop
  48              		.code	16
  49              		.thumb_func
  50              		.type	CySysClkImoStop, %function
  51              	CySysClkImoStop:
  52              	.LFB1:
  48:.\Generated_Source\PSoC4/CyLib.c **** 
  49:.\Generated_Source\PSoC4/CyLib.c **** 
  50:.\Generated_Source\PSoC4/CyLib.c **** /*******************************************************************************
  51:.\Generated_Source\PSoC4/CyLib.c **** * Function Name: CySysClkImoStop
  52:.\Generated_Source\PSoC4/CyLib.c **** ********************************************************************************
  53:.\Generated_Source\PSoC4/CyLib.c **** *
  54:.\Generated_Source\PSoC4/CyLib.c **** * Summary:
  55:.\Generated_Source\PSoC4/CyLib.c **** *  Disables the IMO.
  56:.\Generated_Source\PSoC4/CyLib.c **** *
  57:.\Generated_Source\PSoC4/CyLib.c **** * Parameters:
  58:.\Generated_Source\PSoC4/CyLib.c **** *  None
  59:.\Generated_Source\PSoC4/CyLib.c **** *
  60:.\Generated_Source\PSoC4/CyLib.c **** * Return:
  61:.\Generated_Source\PSoC4/CyLib.c **** *  None
  62:.\Generated_Source\PSoC4/CyLib.c **** *
ARM GAS  C:\Users\Steve\AppData\Local\Temp\ccc4U1xk.s 			page 3


  63:.\Generated_Source\PSoC4/CyLib.c **** *******************************************************************************/
  64:.\Generated_Source\PSoC4/CyLib.c **** void CySysClkImoStop(void)
  65:.\Generated_Source\PSoC4/CyLib.c **** {
  53              		.loc 1 65 0
  54              		.cfi_startproc
  66:.\Generated_Source\PSoC4/CyLib.c ****     CY_SYS_CLK_IMO_CONFIG_REG &= ( uint32 ) ( ~( uint32 )CY_SYS_CLK_IMO_CONFIG_ENABLE);
  55              		.loc 1 66 0
  56 0000 024B     		ldr	r3, .L5
  67:.\Generated_Source\PSoC4/CyLib.c **** }
  57              		.loc 1 67 0
  58              		@ sp needed for prologue
  66:.\Generated_Source\PSoC4/CyLib.c ****     CY_SYS_CLK_IMO_CONFIG_REG &= ( uint32 ) ( ~( uint32 )CY_SYS_CLK_IMO_CONFIG_ENABLE);
  59              		.loc 1 66 0
  60 0002 1A68     		ldr	r2, [r3]
  61 0004 5000     		lsl	r0, r2, #1
  62 0006 4108     		lsr	r1, r0, #1
  63 0008 1960     		str	r1, [r3]
  64              		.loc 1 67 0
  65 000a 7047     		bx	lr
  66              	.L6:
  67              		.align	2
  68              	.L5:
  69 000c 08010B40 		.word	1074462984
  70              		.cfi_endproc
  71              	.LFE1:
  72              		.size	CySysClkImoStop, .-CySysClkImoStop
  73              		.section	.text.CySysClkIloStart,"ax",%progbits
  74              		.align	2
  75              		.global	CySysClkIloStart
  76              		.code	16
  77              		.thumb_func
  78              		.type	CySysClkIloStart, %function
  79              	CySysClkIloStart:
  80              	.LFB2:
  68:.\Generated_Source\PSoC4/CyLib.c **** 
  69:.\Generated_Source\PSoC4/CyLib.c **** 
  70:.\Generated_Source\PSoC4/CyLib.c **** /*******************************************************************************
  71:.\Generated_Source\PSoC4/CyLib.c **** * Function Name: CySysClkIloStart
  72:.\Generated_Source\PSoC4/CyLib.c **** ********************************************************************************
  73:.\Generated_Source\PSoC4/CyLib.c **** *
  74:.\Generated_Source\PSoC4/CyLib.c **** * Summary:
  75:.\Generated_Source\PSoC4/CyLib.c **** *  Enables the ILO.
  76:.\Generated_Source\PSoC4/CyLib.c **** *
  77:.\Generated_Source\PSoC4/CyLib.c **** * Parameters:
  78:.\Generated_Source\PSoC4/CyLib.c **** *  None
  79:.\Generated_Source\PSoC4/CyLib.c **** *
  80:.\Generated_Source\PSoC4/CyLib.c **** * Return:
  81:.\Generated_Source\PSoC4/CyLib.c **** *  None
  82:.\Generated_Source\PSoC4/CyLib.c **** *
  83:.\Generated_Source\PSoC4/CyLib.c **** *******************************************************************************/
  84:.\Generated_Source\PSoC4/CyLib.c **** void CySysClkIloStart(void)
  85:.\Generated_Source\PSoC4/CyLib.c **** {
  81              		.loc 1 85 0
  82              		.cfi_startproc
  86:.\Generated_Source\PSoC4/CyLib.c ****     CY_SYS_CLK_ILO_CONFIG_REG |= CY_SYS_CLK_ILO_CONFIG_ENABLE;
  83              		.loc 1 86 0
  84 0000 034B     		ldr	r3, .L8
ARM GAS  C:\Users\Steve\AppData\Local\Temp\ccc4U1xk.s 			page 4


  85 0002 8022     		mov	r2, #128
  86 0004 1968     		ldr	r1, [r3]
  87 0006 1006     		lsl	r0, r2, #24
  88 0008 0843     		orr	r0, r1
  89 000a 1860     		str	r0, [r3]
  87:.\Generated_Source\PSoC4/CyLib.c **** }
  90              		.loc 1 87 0
  91              		@ sp needed for prologue
  92 000c 7047     		bx	lr
  93              	.L9:
  94 000e C046     		.align	2
  95              	.L8:
  96 0010 04010B40 		.word	1074462980
  97              		.cfi_endproc
  98              	.LFE2:
  99              		.size	CySysClkIloStart, .-CySysClkIloStart
 100              		.section	.text.CySysClkIloStop,"ax",%progbits
 101              		.align	2
 102              		.global	CySysClkIloStop
 103              		.code	16
 104              		.thumb_func
 105              		.type	CySysClkIloStop, %function
 106              	CySysClkIloStop:
 107              	.LFB3:
  88:.\Generated_Source\PSoC4/CyLib.c **** 
  89:.\Generated_Source\PSoC4/CyLib.c **** 
  90:.\Generated_Source\PSoC4/CyLib.c **** /*******************************************************************************
  91:.\Generated_Source\PSoC4/CyLib.c **** * Function Name: CySysClkIloStop
  92:.\Generated_Source\PSoC4/CyLib.c **** ********************************************************************************
  93:.\Generated_Source\PSoC4/CyLib.c **** *
  94:.\Generated_Source\PSoC4/CyLib.c **** * Summary:
  95:.\Generated_Source\PSoC4/CyLib.c **** *  Disables the ILO.
  96:.\Generated_Source\PSoC4/CyLib.c **** *
  97:.\Generated_Source\PSoC4/CyLib.c **** * Parameters:
  98:.\Generated_Source\PSoC4/CyLib.c **** *  None
  99:.\Generated_Source\PSoC4/CyLib.c **** *
 100:.\Generated_Source\PSoC4/CyLib.c **** * Return:
 101:.\Generated_Source\PSoC4/CyLib.c **** *  None
 102:.\Generated_Source\PSoC4/CyLib.c **** *
 103:.\Generated_Source\PSoC4/CyLib.c **** * Side Effects:
 104:.\Generated_Source\PSoC4/CyLib.c **** *  This function will have no effect if WDT is locked (CySysWdtLock() is
 105:.\Generated_Source\PSoC4/CyLib.c **** *  called). Call CySysWdtUnlock() to unlock WDT and be able to stop ILO.
 106:.\Generated_Source\PSoC4/CyLib.c **** *  Note that ILO is required for WDT's operation.
 107:.\Generated_Source\PSoC4/CyLib.c **** *
 108:.\Generated_Source\PSoC4/CyLib.c **** *******************************************************************************/
 109:.\Generated_Source\PSoC4/CyLib.c **** void CySysClkIloStop(void)
 110:.\Generated_Source\PSoC4/CyLib.c **** {
 108              		.loc 1 110 0
 109              		.cfi_startproc
 111:.\Generated_Source\PSoC4/CyLib.c ****     CY_SYS_CLK_ILO_CONFIG_REG &= ( uint32 ) ( ~( uint32 )CY_SYS_CLK_ILO_CONFIG_ENABLE);
 110              		.loc 1 111 0
 111 0000 024B     		ldr	r3, .L11
 112:.\Generated_Source\PSoC4/CyLib.c **** }
 112              		.loc 1 112 0
 113              		@ sp needed for prologue
 111:.\Generated_Source\PSoC4/CyLib.c ****     CY_SYS_CLK_ILO_CONFIG_REG &= ( uint32 ) ( ~( uint32 )CY_SYS_CLK_ILO_CONFIG_ENABLE);
 114              		.loc 1 111 0
ARM GAS  C:\Users\Steve\AppData\Local\Temp\ccc4U1xk.s 			page 5


 115 0002 1A68     		ldr	r2, [r3]
 116 0004 5000     		lsl	r0, r2, #1
 117 0006 4108     		lsr	r1, r0, #1
 118 0008 1960     		str	r1, [r3]
 119              		.loc 1 112 0
 120 000a 7047     		bx	lr
 121              	.L12:
 122              		.align	2
 123              	.L11:
 124 000c 04010B40 		.word	1074462980
 125              		.cfi_endproc
 126              	.LFE3:
 127              		.size	CySysClkIloStop, .-CySysClkIloStop
 128              		.section	.text.CySysClkWriteHfclkDirect,"ax",%progbits
 129              		.align	2
 130              		.global	CySysClkWriteHfclkDirect
 131              		.code	16
 132              		.thumb_func
 133              		.type	CySysClkWriteHfclkDirect, %function
 134              	CySysClkWriteHfclkDirect:
 135              	.LFB4:
 113:.\Generated_Source\PSoC4/CyLib.c **** 
 114:.\Generated_Source\PSoC4/CyLib.c **** 
 115:.\Generated_Source\PSoC4/CyLib.c **** #if(CY_PSOC4A)
 116:.\Generated_Source\PSoC4/CyLib.c **** 
 117:.\Generated_Source\PSoC4/CyLib.c ****     /*******************************************************************************
 118:.\Generated_Source\PSoC4/CyLib.c ****     * Function Name: CySysClkWriteHfclkDirect
 119:.\Generated_Source\PSoC4/CyLib.c ****     ********************************************************************************
 120:.\Generated_Source\PSoC4/CyLib.c ****     *
 121:.\Generated_Source\PSoC4/CyLib.c ****     * Summary:
 122:.\Generated_Source\PSoC4/CyLib.c ****     *  Selects the direct source for the HFCLK.
 123:.\Generated_Source\PSoC4/CyLib.c ****     *
 124:.\Generated_Source\PSoC4/CyLib.c ****     * Parameters:
 125:.\Generated_Source\PSoC4/CyLib.c ****     *  clkSelect: One of the available HFCLK direct sources:
 126:.\Generated_Source\PSoC4/CyLib.c ****     *   Value        Define                    Source
 127:.\Generated_Source\PSoC4/CyLib.c ****     *    0            CY_SYS_CLK_HFCLK_IMO      IMO
 128:.\Generated_Source\PSoC4/CyLib.c ****     *    1            CY_SYS_CLK_HFCLK_EXTCLK   External clock pin
 129:.\Generated_Source\PSoC4/CyLib.c ****     *
 130:.\Generated_Source\PSoC4/CyLib.c ****     * Return:
 131:.\Generated_Source\PSoC4/CyLib.c ****     *  None
 132:.\Generated_Source\PSoC4/CyLib.c ****     *
 133:.\Generated_Source\PSoC4/CyLib.c ****     * Side Effects:
 134:.\Generated_Source\PSoC4/CyLib.c ****     *  The new source must be running and stable before calling this function.
 135:.\Generated_Source\PSoC4/CyLib.c ****     *  Direct source is default option for HFCLK.
 136:.\Generated_Source\PSoC4/CyLib.c ****     *
 137:.\Generated_Source\PSoC4/CyLib.c ****     *  If the SYSCLK clock frequency increases during device operation, call
 138:.\Generated_Source\PSoC4/CyLib.c ****     *  CySysFlashSetWaitCycles() with the appropriate parameter to adjust the number
 139:.\Generated_Source\PSoC4/CyLib.c ****     *  of clock cycles cache will wait before sampling data coming back from Flash.
 140:.\Generated_Source\PSoC4/CyLib.c ****     *  If the SYSCLK clock frequency decreases, you can call CyFlash_SetWaitCycles()
 141:.\Generated_Source\PSoC4/CyLib.c ****     *  to improve CPU performance. See CySysFlashSetWaitCycles() for more
 142:.\Generated_Source\PSoC4/CyLib.c ****     *  information.
 143:.\Generated_Source\PSoC4/CyLib.c ****     *
 144:.\Generated_Source\PSoC4/CyLib.c ****     *******************************************************************************/
 145:.\Generated_Source\PSoC4/CyLib.c ****     void CySysClkWriteHfclkDirect(uint32 clkSelect)
 146:.\Generated_Source\PSoC4/CyLib.c ****     {
 136              		.loc 1 146 0
 137              		.cfi_startproc
ARM GAS  C:\Users\Steve\AppData\Local\Temp\ccc4U1xk.s 			page 6


 138              	.LVL0:
 147:.\Generated_Source\PSoC4/CyLib.c ****         CY_SYS_CLK_SELECT_REG = ((CY_SYS_CLK_SELECT_REG & (( uint32 ) ~(( uint32 )CY_SYS_CLK_SELECT
 139              		.loc 1 147 0
 140 0000 044B     		ldr	r3, .L14
 148:.\Generated_Source\PSoC4/CyLib.c ****                             (( uint32 ) ( ( uint32 )clkSelect & ( uint32 )CY_SYS_CLK_SELECT_DIRECT_
 141              		.loc 1 148 0
 142 0002 0121     		mov	r1, #1
 147:.\Generated_Source\PSoC4/CyLib.c ****         CY_SYS_CLK_SELECT_REG = ((CY_SYS_CLK_SELECT_REG & (( uint32 ) ~(( uint32 )CY_SYS_CLK_SELECT
 143              		.loc 1 147 0
 144 0004 1A68     		ldr	r2, [r3]
 145              		.loc 1 148 0
 146 0006 0840     		and	r0, r1
 147              	.LVL1:
 147:.\Generated_Source\PSoC4/CyLib.c ****         CY_SYS_CLK_SELECT_REG = ((CY_SYS_CLK_SELECT_REG & (( uint32 ) ~(( uint32 )CY_SYS_CLK_SELECT
 148              		.loc 1 147 0
 149 0008 0721     		mov	r1, #7
 150 000a 8A43     		bic	r2, r1
 151 000c 1043     		orr	r0, r2
 152 000e 1860     		str	r0, [r3]
 149:.\Generated_Source\PSoC4/CyLib.c ****     }
 153              		.loc 1 149 0
 154              		@ sp needed for prologue
 155 0010 7047     		bx	lr
 156              	.L15:
 157 0012 C046     		.align	2
 158              	.L14:
 159 0014 00010B40 		.word	1074462976
 160              		.cfi_endproc
 161              	.LFE4:
 162              		.size	CySysClkWriteHfclkDirect, .-CySysClkWriteHfclkDirect
 163              		.section	.text.CySysClkWriteSysclkDiv,"ax",%progbits
 164              		.align	2
 165              		.global	CySysClkWriteSysclkDiv
 166              		.code	16
 167              		.thumb_func
 168              		.type	CySysClkWriteSysclkDiv, %function
 169              	CySysClkWriteSysclkDiv:
 170              	.LFB5:
 150:.\Generated_Source\PSoC4/CyLib.c **** 
 151:.\Generated_Source\PSoC4/CyLib.c **** 
 152:.\Generated_Source\PSoC4/CyLib.c ****     /*******************************************************************************
 153:.\Generated_Source\PSoC4/CyLib.c ****     * Function Name: CySysClkWriteSysclkDiv
 154:.\Generated_Source\PSoC4/CyLib.c ****     ********************************************************************************
 155:.\Generated_Source\PSoC4/CyLib.c ****     *
 156:.\Generated_Source\PSoC4/CyLib.c ****     * Summary:
 157:.\Generated_Source\PSoC4/CyLib.c ****     *  Selects SYSCLK from HFCLK pre-scaler value.
 158:.\Generated_Source\PSoC4/CyLib.c ****     *
 159:.\Generated_Source\PSoC4/CyLib.c ****     * Parameters:
 160:.\Generated_Source\PSoC4/CyLib.c ****     *  divider: Power of 2 prescaler selection
 161:.\Generated_Source\PSoC4/CyLib.c ****     *
 162:.\Generated_Source\PSoC4/CyLib.c ****     *   Define                        Description
 163:.\Generated_Source\PSoC4/CyLib.c ****     *   CY_SYS_CLK_SYSCLK_DIV1        SYSCLK = HFCLK / 1
 164:.\Generated_Source\PSoC4/CyLib.c ****     *   CY_SYS_CLK_SYSCLK_DIV2        SYSCLK = HFCLK / 2
 165:.\Generated_Source\PSoC4/CyLib.c ****     *   CY_SYS_CLK_SYSCLK_DIV4        SYSCLK = HFCLK / 4
 166:.\Generated_Source\PSoC4/CyLib.c ****     *   CY_SYS_CLK_SYSCLK_DIV8        SYSCLK = HFCLK / 8
 167:.\Generated_Source\PSoC4/CyLib.c ****     *   CY_SYS_CLK_SYSCLK_DIV16       SYSCLK = HFCLK / 16
 168:.\Generated_Source\PSoC4/CyLib.c ****     *   CY_SYS_CLK_SYSCLK_DIV32       SYSCLK = HFCLK / 32
ARM GAS  C:\Users\Steve\AppData\Local\Temp\ccc4U1xk.s 			page 7


 169:.\Generated_Source\PSoC4/CyLib.c ****     *   CY_SYS_CLK_SYSCLK_DIV64       SYSCLK = HFCLK / 64
 170:.\Generated_Source\PSoC4/CyLib.c ****     *   CY_SYS_CLK_SYSCLK_DIV128      SYSCLK = HFCLK / 128
 171:.\Generated_Source\PSoC4/CyLib.c ****     *
 172:.\Generated_Source\PSoC4/CyLib.c ****     * Return:
 173:.\Generated_Source\PSoC4/CyLib.c ****     *  None
 174:.\Generated_Source\PSoC4/CyLib.c ****     *
 175:.\Generated_Source\PSoC4/CyLib.c ****     * Side Effects:
 176:.\Generated_Source\PSoC4/CyLib.c ****     *  If the SYSCLK clock frequency increases during device operation, call
 177:.\Generated_Source\PSoC4/CyLib.c ****     *  CySysFlashSetWaitCycles() with the appropriate parameter to adjust the number
 178:.\Generated_Source\PSoC4/CyLib.c ****     *  of clock cycles cache will wait before sampling data coming back from Flash.
 179:.\Generated_Source\PSoC4/CyLib.c ****     *  If the SYSCLK clock frequency decreases, you can call CyFlash_SetWaitCycles()
 180:.\Generated_Source\PSoC4/CyLib.c ****     *  to improve CPU performance. See CySysFlashSetWaitCycles() for more
 181:.\Generated_Source\PSoC4/CyLib.c ****     *  information.
 182:.\Generated_Source\PSoC4/CyLib.c ****     *
 183:.\Generated_Source\PSoC4/CyLib.c ****     *******************************************************************************/
 184:.\Generated_Source\PSoC4/CyLib.c ****     void CySysClkWriteSysclkDiv(uint32 divider)
 185:.\Generated_Source\PSoC4/CyLib.c ****     {
 171              		.loc 1 185 0
 172              		.cfi_startproc
 173              	.LVL2:
 186:.\Generated_Source\PSoC4/CyLib.c ****         CY_SYS_CLK_SELECT_REG = ((uint32)(((uint32)divider & CY_SYS_CLK_SELECT_SYSCLK_DIV_MASK) <<
 187:.\Generated_Source\PSoC4/CyLib.c ****                                         CY_SYS_CLK_SELECT_SYSCLK_DIV_SHIFT)) |
 188:.\Generated_Source\PSoC4/CyLib.c ****                                 (CY_SYS_CLK_SELECT_REG & ((uint32)(~(uint32)(CY_SYS_CLK_SELECT_SYSC
 174              		.loc 1 188 0
 175 0000 054B     		ldr	r3, .L17
 185:.\Generated_Source\PSoC4/CyLib.c ****     {
 176              		.loc 1 185 0
 177 0002 10B5     		push	{r4, lr}
 178              	.LCFI0:
 179              		.cfi_def_cfa_offset 8
 180              		.cfi_offset 4, -8
 181              		.cfi_offset 14, -4
 186:.\Generated_Source\PSoC4/CyLib.c ****         CY_SYS_CLK_SELECT_REG = ((uint32)(((uint32)divider & CY_SYS_CLK_SELECT_SYSCLK_DIV_MASK) <<
 182              		.loc 1 186 0
 183 0004 0722     		mov	r2, #7
 184              		.loc 1 188 0
 185 0006 1C68     		ldr	r4, [r3]
 186:.\Generated_Source\PSoC4/CyLib.c ****         CY_SYS_CLK_SELECT_REG = ((uint32)(((uint32)divider & CY_SYS_CLK_SELECT_SYSCLK_DIV_MASK) <<
 186              		.loc 1 186 0
 187 0008 1040     		and	r0, r2
 188              	.LVL3:
 189              		.loc 1 188 0
 190 000a 0449     		ldr	r1, .L17+4
 186:.\Generated_Source\PSoC4/CyLib.c ****         CY_SYS_CLK_SELECT_REG = ((uint32)(((uint32)divider & CY_SYS_CLK_SELECT_SYSCLK_DIV_MASK) <<
 191              		.loc 1 186 0
 192 000c C204     		lsl	r2, r0, #19
 193              		.loc 1 188 0
 194 000e 201C     		mov	r0, r4
 195 0010 0840     		and	r0, r1
 187:.\Generated_Source\PSoC4/CyLib.c ****                                         CY_SYS_CLK_SELECT_SYSCLK_DIV_SHIFT)) |
 196              		.loc 1 187 0
 197 0012 1043     		orr	r0, r2
 186:.\Generated_Source\PSoC4/CyLib.c ****         CY_SYS_CLK_SELECT_REG = ((uint32)(((uint32)divider & CY_SYS_CLK_SELECT_SYSCLK_DIV_MASK) <<
 198              		.loc 1 186 0
 199 0014 1860     		str	r0, [r3]
 189:.\Generated_Source\PSoC4/CyLib.c ****                                         CY_SYS_CLK_SELECT_SYSCLK_DIV_SHIFT))));
 190:.\Generated_Source\PSoC4/CyLib.c ****     }
ARM GAS  C:\Users\Steve\AppData\Local\Temp\ccc4U1xk.s 			page 8


 200              		.loc 1 190 0
 201              		@ sp needed for prologue
 202 0016 10BD     		pop	{r4, pc}
 203              	.L18:
 204              		.align	2
 205              	.L17:
 206 0018 00010B40 		.word	1074462976
 207 001c FFFFC7FF 		.word	-3670017
 208              		.cfi_endproc
 209              	.LFE5:
 210              		.size	CySysClkWriteSysclkDiv, .-CySysClkWriteSysclkDiv
 211              		.section	.text.CySysWdtLock,"ax",%progbits
 212              		.align	2
 213              		.global	CySysWdtLock
 214              		.code	16
 215              		.thumb_func
 216              		.type	CySysWdtLock, %function
 217              	CySysWdtLock:
 218              	.LFB7:
 191:.\Generated_Source\PSoC4/CyLib.c **** 
 192:.\Generated_Source\PSoC4/CyLib.c **** 
 193:.\Generated_Source\PSoC4/CyLib.c ****     /*******************************************************************************
 194:.\Generated_Source\PSoC4/CyLib.c ****     * Function Name: CySysClkWriteImoFreq
 195:.\Generated_Source\PSoC4/CyLib.c ****     ********************************************************************************
 196:.\Generated_Source\PSoC4/CyLib.c ****     *
 197:.\Generated_Source\PSoC4/CyLib.c ****     * Summary:
 198:.\Generated_Source\PSoC4/CyLib.c ****     *  Sets the frequency of the IMO.
 199:.\Generated_Source\PSoC4/CyLib.c ****     *
 200:.\Generated_Source\PSoC4/CyLib.c ****     * Parameters:
 201:.\Generated_Source\PSoC4/CyLib.c ****     *  freq: Valid range [3-48].  Frequency for operation of the IMO.
 202:.\Generated_Source\PSoC4/CyLib.c ****     *  Note: Invalid frequency will be ignored.
 203:.\Generated_Source\PSoC4/CyLib.c ****     *
 204:.\Generated_Source\PSoC4/CyLib.c ****     * Return:
 205:.\Generated_Source\PSoC4/CyLib.c ****     *  None
 206:.\Generated_Source\PSoC4/CyLib.c ****     *
 207:.\Generated_Source\PSoC4/CyLib.c ****     * Side Effects:
 208:.\Generated_Source\PSoC4/CyLib.c ****     *  If the SYSCLK clock frequency increases during device operation, call
 209:.\Generated_Source\PSoC4/CyLib.c ****     *  CySysFlashSetWaitCycles() with the appropriate parameter to adjust the number
 210:.\Generated_Source\PSoC4/CyLib.c ****     *  of clock cycles cache will wait before sampling data coming back from Flash.
 211:.\Generated_Source\PSoC4/CyLib.c ****     *  If the SYSCLK clock frequency decreases, you can call CyFlash_SetWaitCycles()
 212:.\Generated_Source\PSoC4/CyLib.c ****     *  to improve CPU performance. See CySysFlashSetWaitCycles() for more
 213:.\Generated_Source\PSoC4/CyLib.c ****     *  information.
 214:.\Generated_Source\PSoC4/CyLib.c ****     *
 215:.\Generated_Source\PSoC4/CyLib.c ****     *******************************************************************************/
 216:.\Generated_Source\PSoC4/CyLib.c ****     void CySysClkWriteImoFreq(uint32 freq)
 217:.\Generated_Source\PSoC4/CyLib.c ****     {
 218:.\Generated_Source\PSoC4/CyLib.c ****         uint8  bgTrim4;
 219:.\Generated_Source\PSoC4/CyLib.c ****         uint8  bgTrim5;
 220:.\Generated_Source\PSoC4/CyLib.c ****         uint32 currentFreq = CY_SYS_CLK_IMO_MAX_FREQ_MHZ;
 221:.\Generated_Source\PSoC4/CyLib.c ****         uint8  interruptState;
 222:.\Generated_Source\PSoC4/CyLib.c ****         uint32 i;
 223:.\Generated_Source\PSoC4/CyLib.c **** 
 224:.\Generated_Source\PSoC4/CyLib.c ****         /* Convertion between CySysClkWriteImoFreq() parameter and register's value */
 225:.\Generated_Source\PSoC4/CyLib.c ****         static const uint8 cyImoFreqMhz2Reg[CY_SYS_CLK_IMO_FREQ_TABLE_SIZE] = {
 226:.\Generated_Source\PSoC4/CyLib.c ****             /*  3 MHz */ 0x03u,  /*  4 MHz */ 0x04u,  /*  5 MHz */ 0x05u,  /*  6 MHz */ 0x06u,
 227:.\Generated_Source\PSoC4/CyLib.c ****             /*  7 MHz */ 0x07u,  /*  8 MHz */ 0x08u,  /*  9 MHz */ 0x09u,  /* 10 MHz */ 0x0Au,
 228:.\Generated_Source\PSoC4/CyLib.c ****             /* 11 MHz */ 0x0Bu,  /* 12 MHz */ 0x0Cu,  /* 13 MHz */ 0x0Eu,  /* 14 MHz */ 0x0Fu,
ARM GAS  C:\Users\Steve\AppData\Local\Temp\ccc4U1xk.s 			page 9


 229:.\Generated_Source\PSoC4/CyLib.c ****             /* 15 MHz */ 0x10u,  /* 16 MHz */ 0x11u,  /* 17 MHz */ 0x12u,  /* 18 MHz */ 0x13u,
 230:.\Generated_Source\PSoC4/CyLib.c ****             /* 19 MHz */ 0x14u,  /* 20 MHz */ 0x15u,  /* 21 MHz */ 0x16u,  /* 22 MHz */ 0x17u,
 231:.\Generated_Source\PSoC4/CyLib.c ****             /* 23 MHz */ 0x18u,  /* 24 MHz */ 0x19u,  /* 25 MHz */ 0x1Bu,  /* 26 MHz */ 0x1Cu,
 232:.\Generated_Source\PSoC4/CyLib.c ****             /* 27 MHz */ 0x1Du,  /* 28 MHz */ 0x1Eu,  /* 29 MHz */ 0x1Fu,  /* 30 MHz */ 0x20u,
 233:.\Generated_Source\PSoC4/CyLib.c ****             /* 31 MHz */ 0x21u,  /* 32 MHz */ 0x22u,  /* 33 MHz */ 0x23u,  /* 34 MHz */ 0x25u,
 234:.\Generated_Source\PSoC4/CyLib.c ****             /* 35 MHz */ 0x26u,  /* 36 MHz */ 0x27u,  /* 37 MHz */ 0x28u,  /* 38 MHz */ 0x29u,
 235:.\Generated_Source\PSoC4/CyLib.c ****             /* 39 MHz */ 0x2Au,  /* 40 MHz */ 0x2Bu,  /* 41 MHz */ 0x2Eu,  /* 42 MHz */ 0x2Fu,
 236:.\Generated_Source\PSoC4/CyLib.c ****             /* 43 MHz */ 0x30u,  /* 44 MHz */ 0x31u,  /* 45 MHz */ 0x32u,  /* 46 MHz */ 0x33u,
 237:.\Generated_Source\PSoC4/CyLib.c ****             /* 47 MHz */ 0x34u,  /* 48 MHz */ 0x35u };
 238:.\Generated_Source\PSoC4/CyLib.c **** 
 239:.\Generated_Source\PSoC4/CyLib.c **** 
 240:.\Generated_Source\PSoC4/CyLib.c ****         if ((freq >= CY_SYS_CLK_IMO_MIN_FREQ_MHZ) && (freq <= CY_SYS_CLK_IMO_MAX_FREQ_MHZ))
 241:.\Generated_Source\PSoC4/CyLib.c ****         {
 242:.\Generated_Source\PSoC4/CyLib.c ****             interruptState = CyEnterCriticalSection();
 243:.\Generated_Source\PSoC4/CyLib.c **** 
 244:.\Generated_Source\PSoC4/CyLib.c ****             /* Get current IMO frequency */
 245:.\Generated_Source\PSoC4/CyLib.c ****             for (i = 0u; i < CY_SYS_CLK_IMO_FREQ_TABLE_SIZE; i++)
 246:.\Generated_Source\PSoC4/CyLib.c ****             {
 247:.\Generated_Source\PSoC4/CyLib.c ****                 if (cyImoFreqMhz2Reg[i] == (CY_SYS_CLK_IMO_TRIM2_REG & CY_SYS_CLK_IMO_FREQ_BITS_MAS
 248:.\Generated_Source\PSoC4/CyLib.c ****                 {
 249:.\Generated_Source\PSoC4/CyLib.c ****                     currentFreq = i + CY_SYS_CLK_IMO_FREQ_TABLE_OFFSET;
 250:.\Generated_Source\PSoC4/CyLib.c ****                     break;
 251:.\Generated_Source\PSoC4/CyLib.c ****                 }
 252:.\Generated_Source\PSoC4/CyLib.c ****             }
 253:.\Generated_Source\PSoC4/CyLib.c **** 
 254:.\Generated_Source\PSoC4/CyLib.c ****             if(freq <= CY_SFLASH_IMO_MAXF0_REG)
 255:.\Generated_Source\PSoC4/CyLib.c ****             {
 256:.\Generated_Source\PSoC4/CyLib.c ****                 bgTrim4 = CY_SFLASH_IMO_ABS0_REG;
 257:.\Generated_Source\PSoC4/CyLib.c ****                 bgTrim5 = CY_SFLASH_IMO_TMPCO0_REG;
 258:.\Generated_Source\PSoC4/CyLib.c ****             }
 259:.\Generated_Source\PSoC4/CyLib.c ****             else if(freq <= CY_SFLASH_IMO_MAXF1_REG)
 260:.\Generated_Source\PSoC4/CyLib.c ****             {
 261:.\Generated_Source\PSoC4/CyLib.c ****                 bgTrim4 = CY_SFLASH_IMO_ABS1_REG;
 262:.\Generated_Source\PSoC4/CyLib.c ****                 bgTrim5 = CY_SFLASH_IMO_TMPCO1_REG;
 263:.\Generated_Source\PSoC4/CyLib.c ****             }
 264:.\Generated_Source\PSoC4/CyLib.c ****             else if(freq <= CY_SFLASH_IMO_MAXF2_REG)
 265:.\Generated_Source\PSoC4/CyLib.c ****             {
 266:.\Generated_Source\PSoC4/CyLib.c ****                 bgTrim4 = CY_SFLASH_IMO_ABS2_REG;
 267:.\Generated_Source\PSoC4/CyLib.c ****                 bgTrim5 = CY_SFLASH_IMO_TMPCO2_REG;
 268:.\Generated_Source\PSoC4/CyLib.c ****             }
 269:.\Generated_Source\PSoC4/CyLib.c ****             else if(freq <= CY_SFLASH_IMO_MAXF3_REG)
 270:.\Generated_Source\PSoC4/CyLib.c ****             {
 271:.\Generated_Source\PSoC4/CyLib.c ****                 bgTrim4 = CY_SFLASH_IMO_ABS3_REG;
 272:.\Generated_Source\PSoC4/CyLib.c ****                 bgTrim5 = CY_SFLASH_IMO_TMPCO3_REG;
 273:.\Generated_Source\PSoC4/CyLib.c ****             }
 274:.\Generated_Source\PSoC4/CyLib.c ****             else
 275:.\Generated_Source\PSoC4/CyLib.c ****             {
 276:.\Generated_Source\PSoC4/CyLib.c ****                 bgTrim4 = CY_SFLASH_IMO_ABS4_REG;
 277:.\Generated_Source\PSoC4/CyLib.c ****                 bgTrim5 = CY_SFLASH_IMO_TMPCO4_REG;
 278:.\Generated_Source\PSoC4/CyLib.c ****             }
 279:.\Generated_Source\PSoC4/CyLib.c **** 
 280:.\Generated_Source\PSoC4/CyLib.c **** 
 281:.\Generated_Source\PSoC4/CyLib.c ****             /***************************************************************************
 282:.\Generated_Source\PSoC4/CyLib.c ****             * The IMO can have a different trim per frequency. To avoid possible corner
 283:.\Generated_Source\PSoC4/CyLib.c ****             * cases where a trim change can exceed the maximum frequency, the trim must
 284:.\Generated_Source\PSoC4/CyLib.c ****             * be applied at a frequency that is low enough.
 285:.\Generated_Source\PSoC4/CyLib.c ****             ***************************************************************************/
ARM GAS  C:\Users\Steve\AppData\Local\Temp\ccc4U1xk.s 			page 10


 286:.\Generated_Source\PSoC4/CyLib.c ****             if ((currentFreq >= CY_SYS_CLK_IMO_BOUNDARY_FREQ_MHZ) && (freq >= CY_SYS_CLK_IMO_BOUNDA
 287:.\Generated_Source\PSoC4/CyLib.c ****             {
 288:.\Generated_Source\PSoC4/CyLib.c ****                 /* Set boundary IMO frequency: safe for IMO above 48 MHZ trimming */
 289:.\Generated_Source\PSoC4/CyLib.c ****                 CY_SYS_CLK_IMO_TRIM2_REG = (uint32) cyImoFreqMhz2Reg[CY_SYS_CLK_IMO_TEMP_FREQ_MHZ -
 290:.\Generated_Source\PSoC4/CyLib.c ****                                                                      CY_SYS_CLK_IMO_FREQ_TABLE_OFFS
 291:.\Generated_Source\PSoC4/CyLib.c **** 
 292:.\Generated_Source\PSoC4/CyLib.c ****                 CyDelayCycles(CY_SYS_CLK_IMO_FREQ_TIMEOUT_CYCLES);
 293:.\Generated_Source\PSoC4/CyLib.c **** 
 294:.\Generated_Source\PSoC4/CyLib.c ****                 currentFreq = CY_SYS_CLK_IMO_TEMP_FREQ_MHZ;
 295:.\Generated_Source\PSoC4/CyLib.c ****             }
 296:.\Generated_Source\PSoC4/CyLib.c **** 
 297:.\Generated_Source\PSoC4/CyLib.c **** 
 298:.\Generated_Source\PSoC4/CyLib.c ****             /***************************************************************************
 299:.\Generated_Source\PSoC4/CyLib.c ****             * Trim change need to allowed to settle (within 5us) before the Freq can be
 300:.\Generated_Source\PSoC4/CyLib.c ****             * changed to the new frequency.
 301:.\Generated_Source\PSoC4/CyLib.c ****             ***************************************************************************/
 302:.\Generated_Source\PSoC4/CyLib.c ****             if (freq > currentFreq)
 303:.\Generated_Source\PSoC4/CyLib.c ****             {
 304:.\Generated_Source\PSoC4/CyLib.c ****                 /* Set trims for the new IMO frequency */
 305:.\Generated_Source\PSoC4/CyLib.c ****                 CY_SYS_CLK_IMO_TRIM1_REG = (uint32) CY_SFLASH_IMO_TRIM_REG(freq - CY_SYS_CLK_IMO_FR
 306:.\Generated_Source\PSoC4/CyLib.c ****                 CY_PWR_BG_TRIM4_REG  = bgTrim4;
 307:.\Generated_Source\PSoC4/CyLib.c ****                 CY_PWR_BG_TRIM5_REG  = bgTrim5;
 308:.\Generated_Source\PSoC4/CyLib.c ****                 CyDelayUs(CY_SYS_CLK_IMO_TRIM_TIMEOUT_US);
 309:.\Generated_Source\PSoC4/CyLib.c **** 
 310:.\Generated_Source\PSoC4/CyLib.c ****                 /* Set new IMO frequency */
 311:.\Generated_Source\PSoC4/CyLib.c ****                 CY_SYS_CLK_IMO_TRIM2_REG = cyImoFreqMhz2Reg[freq - CY_SYS_CLK_IMO_FREQ_TABLE_OFFSET
 312:.\Generated_Source\PSoC4/CyLib.c ****                 CyDelayCycles(CY_SYS_CLK_IMO_FREQ_TIMEOUT_CYCLES);
 313:.\Generated_Source\PSoC4/CyLib.c ****             }
 314:.\Generated_Source\PSoC4/CyLib.c ****             else
 315:.\Generated_Source\PSoC4/CyLib.c ****             {
 316:.\Generated_Source\PSoC4/CyLib.c ****                 /* Set new IMO frequency */
 317:.\Generated_Source\PSoC4/CyLib.c ****                 CY_SYS_CLK_IMO_TRIM2_REG = cyImoFreqMhz2Reg[freq - CY_SYS_CLK_IMO_FREQ_TABLE_OFFSET
 318:.\Generated_Source\PSoC4/CyLib.c ****                 CyDelayCycles(CY_SYS_CLK_IMO_FREQ_TIMEOUT_CYCLES);
 319:.\Generated_Source\PSoC4/CyLib.c **** 
 320:.\Generated_Source\PSoC4/CyLib.c ****                 /* Set trims for the new IMO frequency */
 321:.\Generated_Source\PSoC4/CyLib.c ****                 CY_SYS_CLK_IMO_TRIM1_REG = CY_SFLASH_IMO_TRIM_REG(freq - CY_SYS_CLK_IMO_FREQ_TABLE_
 322:.\Generated_Source\PSoC4/CyLib.c ****                 CY_PWR_BG_TRIM4_REG  = bgTrim4;
 323:.\Generated_Source\PSoC4/CyLib.c ****                 CY_PWR_BG_TRIM5_REG  = bgTrim5;
 324:.\Generated_Source\PSoC4/CyLib.c ****                 CyDelayUs(CY_SYS_CLK_IMO_TRIM_TIMEOUT_US);
 325:.\Generated_Source\PSoC4/CyLib.c ****             }
 326:.\Generated_Source\PSoC4/CyLib.c **** 
 327:.\Generated_Source\PSoC4/CyLib.c ****             CyExitCriticalSection(interruptState);
 328:.\Generated_Source\PSoC4/CyLib.c ****         }
 329:.\Generated_Source\PSoC4/CyLib.c ****         else
 330:.\Generated_Source\PSoC4/CyLib.c ****         {
 331:.\Generated_Source\PSoC4/CyLib.c ****             /* Halt CPU in debug mode if new frequency is invalid */
 332:.\Generated_Source\PSoC4/CyLib.c ****             CYASSERT(0u != 0u);
 333:.\Generated_Source\PSoC4/CyLib.c ****         }
 334:.\Generated_Source\PSoC4/CyLib.c ****     }
 335:.\Generated_Source\PSoC4/CyLib.c **** 
 336:.\Generated_Source\PSoC4/CyLib.c **** 
 337:.\Generated_Source\PSoC4/CyLib.c ****     /*******************************************************************************
 338:.\Generated_Source\PSoC4/CyLib.c ****     * Function Name: CySysWdtLock
 339:.\Generated_Source\PSoC4/CyLib.c ****     ********************************************************************************
 340:.\Generated_Source\PSoC4/CyLib.c ****     *
 341:.\Generated_Source\PSoC4/CyLib.c ****     * Summary:
 342:.\Generated_Source\PSoC4/CyLib.c ****     *  Locks out configuration changes to the Watchdog timer registers and ILO
ARM GAS  C:\Users\Steve\AppData\Local\Temp\ccc4U1xk.s 			page 11


 343:.\Generated_Source\PSoC4/CyLib.c ****     *  config register.
 344:.\Generated_Source\PSoC4/CyLib.c ****     *
 345:.\Generated_Source\PSoC4/CyLib.c ****     * Parameters:
 346:.\Generated_Source\PSoC4/CyLib.c ****     *  None
 347:.\Generated_Source\PSoC4/CyLib.c ****     *
 348:.\Generated_Source\PSoC4/CyLib.c ****     * Return:
 349:.\Generated_Source\PSoC4/CyLib.c ****     *  None
 350:.\Generated_Source\PSoC4/CyLib.c ****     *
 351:.\Generated_Source\PSoC4/CyLib.c ****     * Side effects:
 352:.\Generated_Source\PSoC4/CyLib.c ****     *  This API enables ILO, if it was disabled.
 353:.\Generated_Source\PSoC4/CyLib.c ****     *  After this API was called, ILO clock can't be disabled untill calling of
 354:.\Generated_Source\PSoC4/CyLib.c ****     *  CySysWdtUnlock().
 355:.\Generated_Source\PSoC4/CyLib.c ****     *
 356:.\Generated_Source\PSoC4/CyLib.c ****     *******************************************************************************/
 357:.\Generated_Source\PSoC4/CyLib.c ****     void CySysWdtLock(void)
 358:.\Generated_Source\PSoC4/CyLib.c ****     {
 219              		.loc 1 358 0
 220              		.cfi_startproc
 221 0000 08B5     		push	{r3, lr}
 222              	.LCFI1:
 223              		.cfi_def_cfa_offset 8
 224              		.cfi_offset 3, -8
 225              		.cfi_offset 14, -4
 359:.\Generated_Source\PSoC4/CyLib.c ****         uint8 interruptState;
 360:.\Generated_Source\PSoC4/CyLib.c ****         interruptState = CyEnterCriticalSection();
 226              		.loc 1 360 0
 227 0002 FFF7FEFF 		bl	CyEnterCriticalSection
 228              	.LVL4:
 361:.\Generated_Source\PSoC4/CyLib.c **** 
 362:.\Generated_Source\PSoC4/CyLib.c ****         /* Configuring the WDT involves passing control signals between clock domains,
 363:.\Generated_Source\PSoC4/CyLib.c ****         * which requires the ILO to be enabled.
 364:.\Generated_Source\PSoC4/CyLib.c ****         */
 365:.\Generated_Source\PSoC4/CyLib.c ****         if (0u == (CY_SYS_CLK_ILO_CONFIG_REG & CY_SYS_CLK_ILO_CONFIG_ENABLE))
 229              		.loc 1 365 0
 230 0006 094B     		ldr	r3, .L22
 231 0008 1A68     		ldr	r2, [r3]
 232 000a 002A     		cmp	r2, #0
 233 000c 04DB     		blt	.L20
 234              	.LBB78:
 235              	.LBB79:
  86:.\Generated_Source\PSoC4/CyLib.c ****     CY_SYS_CLK_ILO_CONFIG_REG |= CY_SYS_CLK_ILO_CONFIG_ENABLE;
 236              		.loc 1 86 0
 237 000e 1968     		ldr	r1, [r3]
 238 0010 8022     		mov	r2, #128
 239 0012 1206     		lsl	r2, r2, #24
 240 0014 0A43     		orr	r2, r1
 241 0016 1A60     		str	r2, [r3]
 242              	.L20:
 243              	.LBE79:
 244              	.LBE78:
 366:.\Generated_Source\PSoC4/CyLib.c ****         {
 367:.\Generated_Source\PSoC4/CyLib.c ****             CySysClkIloStart();
 368:.\Generated_Source\PSoC4/CyLib.c ****         }
 369:.\Generated_Source\PSoC4/CyLib.c **** 
 370:.\Generated_Source\PSoC4/CyLib.c ****         /* CLK_SELECT register's bits 15:14 are WDT_LOCK */
 371:.\Generated_Source\PSoC4/CyLib.c ****         CY_SYS_CLK_SELECT_REG = (CY_SYS_CLK_SELECT_REG & (uint32)(~CY_SYS_WDT_CLK_LOCK_BITS_MASK)) 
 245              		.loc 1 371 0
ARM GAS  C:\Users\Steve\AppData\Local\Temp\ccc4U1xk.s 			page 12


 246 0018 054B     		ldr	r3, .L22+4
 247 001a C022     		mov	r2, #192
 248 001c 1968     		ldr	r1, [r3]
 249 001e 1202     		lsl	r2, r2, #8
 250 0020 0A43     		orr	r2, r1
 251 0022 1A60     		str	r2, [r3]
 372:.\Generated_Source\PSoC4/CyLib.c ****                  CY_SYS_WDT_CLK_LOCK_BITS_MASK;
 373:.\Generated_Source\PSoC4/CyLib.c **** 
 374:.\Generated_Source\PSoC4/CyLib.c ****         CyExitCriticalSection(interruptState);
 252              		.loc 1 374 0
 253 0024 FFF7FEFF 		bl	CyExitCriticalSection
 254              	.LVL5:
 375:.\Generated_Source\PSoC4/CyLib.c ****     }
 255              		.loc 1 375 0
 256              		@ sp needed for prologue
 257 0028 08BD     		pop	{r3, pc}
 258              	.L23:
 259 002a C046     		.align	2
 260              	.L22:
 261 002c 04010B40 		.word	1074462980
 262 0030 00010B40 		.word	1074462976
 263              		.cfi_endproc
 264              	.LFE7:
 265              		.size	CySysWdtLock, .-CySysWdtLock
 266              		.section	.text.CySysWdtUnlock,"ax",%progbits
 267              		.align	2
 268              		.global	CySysWdtUnlock
 269              		.code	16
 270              		.thumb_func
 271              		.type	CySysWdtUnlock, %function
 272              	CySysWdtUnlock:
 273              	.LFB8:
 376:.\Generated_Source\PSoC4/CyLib.c **** 
 377:.\Generated_Source\PSoC4/CyLib.c **** 
 378:.\Generated_Source\PSoC4/CyLib.c ****     /*******************************************************************************
 379:.\Generated_Source\PSoC4/CyLib.c ****     * Function Name: CySysWdtUnlock
 380:.\Generated_Source\PSoC4/CyLib.c ****     ********************************************************************************
 381:.\Generated_Source\PSoC4/CyLib.c ****     *
 382:.\Generated_Source\PSoC4/CyLib.c ****     * Summary:
 383:.\Generated_Source\PSoC4/CyLib.c ****     *  Unlocks the Watchdog Timer configuration register.
 384:.\Generated_Source\PSoC4/CyLib.c ****     *
 385:.\Generated_Source\PSoC4/CyLib.c ****     * Parameters:
 386:.\Generated_Source\PSoC4/CyLib.c ****     *  None
 387:.\Generated_Source\PSoC4/CyLib.c ****     *
 388:.\Generated_Source\PSoC4/CyLib.c ****     * Return:
 389:.\Generated_Source\PSoC4/CyLib.c ****     *  None
 390:.\Generated_Source\PSoC4/CyLib.c ****     *
 391:.\Generated_Source\PSoC4/CyLib.c ****     * Side effects:
 392:.\Generated_Source\PSoC4/CyLib.c ****     *  This API enables ILO, if it was disabled.
 393:.\Generated_Source\PSoC4/CyLib.c ****     *
 394:.\Generated_Source\PSoC4/CyLib.c ****     *******************************************************************************/
 395:.\Generated_Source\PSoC4/CyLib.c ****     void CySysWdtUnlock(void)
 396:.\Generated_Source\PSoC4/CyLib.c ****     {
 274              		.loc 1 396 0
 275              		.cfi_startproc
 276 0000 10B5     		push	{r4, lr}
 277              	.LCFI2:
ARM GAS  C:\Users\Steve\AppData\Local\Temp\ccc4U1xk.s 			page 13


 278              		.cfi_def_cfa_offset 8
 279              		.cfi_offset 4, -8
 280              		.cfi_offset 14, -4
 397:.\Generated_Source\PSoC4/CyLib.c ****         uint8 interruptState;
 398:.\Generated_Source\PSoC4/CyLib.c ****         interruptState = CyEnterCriticalSection();
 281              		.loc 1 398 0
 282 0002 FFF7FEFF 		bl	CyEnterCriticalSection
 283              	.LVL6:
 399:.\Generated_Source\PSoC4/CyLib.c **** 
 400:.\Generated_Source\PSoC4/CyLib.c ****         /* Configuring the WDT involves passing control signals between clock domains,
 401:.\Generated_Source\PSoC4/CyLib.c ****         * which requires the ILO to be enabled.
 402:.\Generated_Source\PSoC4/CyLib.c ****         */
 403:.\Generated_Source\PSoC4/CyLib.c ****         if (0u == (CY_SYS_CLK_ILO_CONFIG_REG & CY_SYS_CLK_ILO_CONFIG_ENABLE))
 284              		.loc 1 403 0
 285 0006 0D4B     		ldr	r3, .L26
 286 0008 1A68     		ldr	r2, [r3]
 287 000a 002A     		cmp	r2, #0
 288 000c 04DB     		blt	.L25
 289              	.LBB80:
 290              	.LBB81:
  86:.\Generated_Source\PSoC4/CyLib.c ****     CY_SYS_CLK_ILO_CONFIG_REG |= CY_SYS_CLK_ILO_CONFIG_ENABLE;
 291              		.loc 1 86 0
 292 000e 1968     		ldr	r1, [r3]
 293 0010 8024     		mov	r4, #128
 294 0012 2206     		lsl	r2, r4, #24
 295 0014 0A43     		orr	r2, r1
 296 0016 1A60     		str	r2, [r3]
 297              	.L25:
 298              	.LBE81:
 299              	.LBE80:
 404:.\Generated_Source\PSoC4/CyLib.c ****         {
 405:.\Generated_Source\PSoC4/CyLib.c ****             CySysClkIloStart();
 406:.\Generated_Source\PSoC4/CyLib.c ****         }
 407:.\Generated_Source\PSoC4/CyLib.c **** 
 408:.\Generated_Source\PSoC4/CyLib.c ****         /* Removing WDT lock requires two writes */
 409:.\Generated_Source\PSoC4/CyLib.c ****         CY_SYS_CLK_SELECT_REG = ((CY_SYS_CLK_SELECT_REG & (uint32)(~CY_SYS_WDT_CLK_LOCK_BITS_MASK))
 300              		.loc 1 409 0
 301 0018 094B     		ldr	r3, .L26+4
 302 001a 0A4A     		ldr	r2, .L26+8
 303 001c 1968     		ldr	r1, [r3]
 304 001e 8024     		mov	r4, #128
 305 0020 1140     		and	r1, r2
 306 0022 E401     		lsl	r4, r4, #7
 307 0024 2143     		orr	r1, r4
 308 0026 1960     		str	r1, [r3]
 410:.\Generated_Source\PSoC4/CyLib.c ****                 CY_SYS_WDT_CLK_LOCK_BIT0);
 411:.\Generated_Source\PSoC4/CyLib.c **** 
 412:.\Generated_Source\PSoC4/CyLib.c ****         CY_SYS_CLK_SELECT_REG = ((CY_SYS_CLK_SELECT_REG & (uint32)(~CY_SYS_WDT_CLK_LOCK_BITS_MASK))
 309              		.loc 1 412 0
 310 0028 1968     		ldr	r1, [r3]
 311 002a 8024     		mov	r4, #128
 312 002c 0A40     		and	r2, r1
 313 002e 2102     		lsl	r1, r4, #8
 314 0030 0A43     		orr	r2, r1
 315 0032 1A60     		str	r2, [r3]
 413:.\Generated_Source\PSoC4/CyLib.c ****                 CY_SYS_WDT_CLK_LOCK_BIT1);
 414:.\Generated_Source\PSoC4/CyLib.c **** 
ARM GAS  C:\Users\Steve\AppData\Local\Temp\ccc4U1xk.s 			page 14


 415:.\Generated_Source\PSoC4/CyLib.c ****         CyExitCriticalSection(interruptState);
 316              		.loc 1 415 0
 317 0034 FFF7FEFF 		bl	CyExitCriticalSection
 318              	.LVL7:
 416:.\Generated_Source\PSoC4/CyLib.c ****     }
 319              		.loc 1 416 0
 320              		@ sp needed for prologue
 321 0038 10BD     		pop	{r4, pc}
 322              	.L27:
 323 003a C046     		.align	2
 324              	.L26:
 325 003c 04010B40 		.word	1074462980
 326 0040 00010B40 		.word	1074462976
 327 0044 FF3FFFFF 		.word	-49153
 328              		.cfi_endproc
 329              	.LFE8:
 330              		.size	CySysWdtUnlock, .-CySysWdtUnlock
 331              		.section	.text.CySysWdtReadEnabledStatus,"ax",%progbits
 332              		.align	2
 333              		.global	CySysWdtReadEnabledStatus
 334              		.code	16
 335              		.thumb_func
 336              		.type	CySysWdtReadEnabledStatus, %function
 337              	CySysWdtReadEnabledStatus:
 338              	.LFB9:
 417:.\Generated_Source\PSoC4/CyLib.c **** 
 418:.\Generated_Source\PSoC4/CyLib.c **** 
 419:.\Generated_Source\PSoC4/CyLib.c ****     /*******************************************************************************
 420:.\Generated_Source\PSoC4/CyLib.c ****     * Function Name: CySysWdtReadEnabledStatus
 421:.\Generated_Source\PSoC4/CyLib.c ****     ********************************************************************************
 422:.\Generated_Source\PSoC4/CyLib.c ****     *
 423:.\Generated_Source\PSoC4/CyLib.c ****     * Summary:
 424:.\Generated_Source\PSoC4/CyLib.c ****     *  Reads the enabled staus of one of the three WDT counters.
 425:.\Generated_Source\PSoC4/CyLib.c ****     *
 426:.\Generated_Source\PSoC4/CyLib.c ****     * Parameters:
 427:.\Generated_Source\PSoC4/CyLib.c ****     *  counterNum: Valid range [0-2].  Number of the WDT counter.
 428:.\Generated_Source\PSoC4/CyLib.c ****     *
 429:.\Generated_Source\PSoC4/CyLib.c ****     * Return:
 430:.\Generated_Source\PSoC4/CyLib.c ****     *  Status of WDT counter:
 431:.\Generated_Source\PSoC4/CyLib.c ****     *   0 - counter is disabled
 432:.\Generated_Source\PSoC4/CyLib.c ****     *   1 - counter is enabled
 433:.\Generated_Source\PSoC4/CyLib.c ****     *
 434:.\Generated_Source\PSoC4/CyLib.c ****     * Side Effects:
 435:.\Generated_Source\PSoC4/CyLib.c ****     *  This API returns actual WDT counter status from status register.
 436:.\Generated_Source\PSoC4/CyLib.c ****     *  It may take up to 3 LFCLK cycles since WDT counter was enabled for WDT status
 437:.\Generated_Source\PSoC4/CyLib.c ****     *  register to contain actual data.
 438:.\Generated_Source\PSoC4/CyLib.c ****     *
 439:.\Generated_Source\PSoC4/CyLib.c ****     *******************************************************************************/
 440:.\Generated_Source\PSoC4/CyLib.c ****     uint32 CySysWdtReadEnabledStatus(uint32 counterNum)
 441:.\Generated_Source\PSoC4/CyLib.c ****     {
 339              		.loc 1 441 0
 340              		.cfi_startproc
 341              	.LVL8:
 342 0000 00B5     		push	{lr}
 343              	.LCFI3:
 344              		.cfi_def_cfa_offset 4
 345              		.cfi_offset 14, -4
ARM GAS  C:\Users\Steve\AppData\Local\Temp\ccc4U1xk.s 			page 15


 442:.\Generated_Source\PSoC4/CyLib.c ****         CYASSERT(counterNum < CY_SYS_WDT_COUNTERS_MAX);
 346              		.loc 1 442 0
 347 0002 0228     		cmp	r0, #2
 348 0004 00D9     		bls	.L29
 349              	.LVL9:
 350              	.LBB82:
 351              	.LBB83:
 443:.\Generated_Source\PSoC4/CyLib.c ****         return ((CY_SYS_WDT_CONTROL_REG >> ((CY_SYS_WDT_CNT_SHIFT * counterNum) + CY_SYS_WDT_CNT_ST
 444:.\Generated_Source\PSoC4/CyLib.c ****     }
 445:.\Generated_Source\PSoC4/CyLib.c **** 
 446:.\Generated_Source\PSoC4/CyLib.c **** 
 447:.\Generated_Source\PSoC4/CyLib.c ****     /*******************************************************************************
 448:.\Generated_Source\PSoC4/CyLib.c ****     * Function Name: CySysWdtWriteMode
 449:.\Generated_Source\PSoC4/CyLib.c ****     ********************************************************************************
 450:.\Generated_Source\PSoC4/CyLib.c ****     *
 451:.\Generated_Source\PSoC4/CyLib.c ****     * Summary:
 452:.\Generated_Source\PSoC4/CyLib.c ****     *   Writes the mode of one of the three WDT counters.
 453:.\Generated_Source\PSoC4/CyLib.c ****     *
 454:.\Generated_Source\PSoC4/CyLib.c ****     * Parameters:
 455:.\Generated_Source\PSoC4/CyLib.c ****     *   counterNum: Valid range [0-2].  Number of the WDT counter.
 456:.\Generated_Source\PSoC4/CyLib.c ****     *   mode:       Mode of operation for the counter
 457:.\Generated_Source\PSoC4/CyLib.c ****     *       Define                   Mode
 458:.\Generated_Source\PSoC4/CyLib.c ****     *    CY_SYS_WDT_MODE_NONE       Free running
 459:.\Generated_Source\PSoC4/CyLib.c ****     *    CY_SYS_WDT_MODE_INT        Interrupt generated on match for counter 0
 460:.\Generated_Source\PSoC4/CyLib.c ****     *                               and 1, and on bit toggle for counter 2.
 461:.\Generated_Source\PSoC4/CyLib.c ****     *    CY_SYS_WDT_MODE_RESET      Reset on match (valid for counter 0 and 1
 462:.\Generated_Source\PSoC4/CyLib.c ****     *                               only)
 463:.\Generated_Source\PSoC4/CyLib.c ****     *    CY_SYS_WDT_MODE_INT_RESET  Generate an interrupt.  Generate a reset on
 464:.\Generated_Source\PSoC4/CyLib.c ****     *                                    the 3rd unhandled interrupt.
 465:.\Generated_Source\PSoC4/CyLib.c ****     *                                    (valid for counter 0 and 1 only)
 466:.\Generated_Source\PSoC4/CyLib.c ****     * Return:
 467:.\Generated_Source\PSoC4/CyLib.c ****     *   None
 468:.\Generated_Source\PSoC4/CyLib.c ****     *
 469:.\Generated_Source\PSoC4/CyLib.c ****     * Side Effects:
 470:.\Generated_Source\PSoC4/CyLib.c ****     *   WDT counter counterNum should be disabled to set mode. Othetwise function
 471:.\Generated_Source\PSoC4/CyLib.c ****     *   call will have no effect.
 472:.\Generated_Source\PSoC4/CyLib.c ****     *   This API enables ILO, if it was disabled.
 473:.\Generated_Source\PSoC4/CyLib.c ****     *
 474:.\Generated_Source\PSoC4/CyLib.c ****     *******************************************************************************/
 475:.\Generated_Source\PSoC4/CyLib.c ****     void CySysWdtWriteMode(uint32 counterNum, uint32 mode)
 476:.\Generated_Source\PSoC4/CyLib.c ****     {
 477:.\Generated_Source\PSoC4/CyLib.c ****         uint32 configRegValue;
 478:.\Generated_Source\PSoC4/CyLib.c **** 
 479:.\Generated_Source\PSoC4/CyLib.c ****         CYASSERT(counterNum < CY_SYS_WDT_COUNTERS_MAX);
 480:.\Generated_Source\PSoC4/CyLib.c **** 
 481:.\Generated_Source\PSoC4/CyLib.c ****         /* Configuring the WDT involves passing control signals between clock domains,
 482:.\Generated_Source\PSoC4/CyLib.c ****         * which requires the ILO to be enabled.
 483:.\Generated_Source\PSoC4/CyLib.c ****         */
 484:.\Generated_Source\PSoC4/CyLib.c ****         if (0u == (CY_SYS_CLK_ILO_CONFIG_REG & CY_SYS_CLK_ILO_CONFIG_ENABLE))
 485:.\Generated_Source\PSoC4/CyLib.c ****         {
 486:.\Generated_Source\PSoC4/CyLib.c ****             CySysClkIloStart();
 487:.\Generated_Source\PSoC4/CyLib.c ****         }
 488:.\Generated_Source\PSoC4/CyLib.c **** 
 489:.\Generated_Source\PSoC4/CyLib.c ****         if(0u == CySysWdtReadEnabledStatus(counterNum))
 490:.\Generated_Source\PSoC4/CyLib.c ****         {
 491:.\Generated_Source\PSoC4/CyLib.c ****             configRegValue = CY_SYS_WDT_CONFIG_REG &
 492:.\Generated_Source\PSoC4/CyLib.c ****                                 (uint32)~((uint32)(CY_SYS_WDT_MODE_MASK << (counterNum * CY_SYS_WDT
ARM GAS  C:\Users\Steve\AppData\Local\Temp\ccc4U1xk.s 			page 16


 493:.\Generated_Source\PSoC4/CyLib.c ****             configRegValue |= (uint32)((mode & CY_SYS_WDT_MODE_MASK) << (counterNum * CY_SYS_WDT_CN
 494:.\Generated_Source\PSoC4/CyLib.c ****             CY_SYS_WDT_CONFIG_REG = configRegValue;
 495:.\Generated_Source\PSoC4/CyLib.c ****         }
 496:.\Generated_Source\PSoC4/CyLib.c ****     }
 497:.\Generated_Source\PSoC4/CyLib.c **** 
 498:.\Generated_Source\PSoC4/CyLib.c **** 
 499:.\Generated_Source\PSoC4/CyLib.c ****     /*******************************************************************************
 500:.\Generated_Source\PSoC4/CyLib.c ****     * Function Name: CySysWdtReadMode
 501:.\Generated_Source\PSoC4/CyLib.c ****     ********************************************************************************
 502:.\Generated_Source\PSoC4/CyLib.c ****     *
 503:.\Generated_Source\PSoC4/CyLib.c ****     * Summary:
 504:.\Generated_Source\PSoC4/CyLib.c ****     *  Reads the mode of one of the three WDT counters.
 505:.\Generated_Source\PSoC4/CyLib.c ****     *
 506:.\Generated_Source\PSoC4/CyLib.c ****     * Parameters:
 507:.\Generated_Source\PSoC4/CyLib.c ****     *  counterNum: Valid range [0-2].  Number of the WDT counter.
 508:.\Generated_Source\PSoC4/CyLib.c ****     *
 509:.\Generated_Source\PSoC4/CyLib.c ****     * Return:
 510:.\Generated_Source\PSoC4/CyLib.c ****     *  Mode of the counter.  Same enumerated values as mode parameter used in
 511:.\Generated_Source\PSoC4/CyLib.c ****     *  CySysWdtWriteMode().
 512:.\Generated_Source\PSoC4/CyLib.c ****     *
 513:.\Generated_Source\PSoC4/CyLib.c ****     *******************************************************************************/
 514:.\Generated_Source\PSoC4/CyLib.c ****     uint32 CySysWdtReadMode(uint32 counterNum)
 515:.\Generated_Source\PSoC4/CyLib.c ****     {
 516:.\Generated_Source\PSoC4/CyLib.c ****         return ((CY_SYS_WDT_CONFIG_REG >> (counterNum * CY_SYS_WDT_CNT_SHIFT)) & CY_SYS_WDT_MODE_MA
 517:.\Generated_Source\PSoC4/CyLib.c ****     }
 518:.\Generated_Source\PSoC4/CyLib.c **** 
 519:.\Generated_Source\PSoC4/CyLib.c **** 
 520:.\Generated_Source\PSoC4/CyLib.c ****     /*******************************************************************************
 521:.\Generated_Source\PSoC4/CyLib.c ****     * Function Name: CySysWdtWriteClearOnMatch
 522:.\Generated_Source\PSoC4/CyLib.c ****     ********************************************************************************
 523:.\Generated_Source\PSoC4/CyLib.c ****     *
 524:.\Generated_Source\PSoC4/CyLib.c ****     * Summary:
 525:.\Generated_Source\PSoC4/CyLib.c ****     *  Configures the WDT counter clear on a match setting.  If configured to clear
 526:.\Generated_Source\PSoC4/CyLib.c ****     *  on match the counter will count from 0 to the MatchValue giving it a
 527:.\Generated_Source\PSoC4/CyLib.c ****     *  period of (MatchValue + 1).
 528:.\Generated_Source\PSoC4/CyLib.c ****     *
 529:.\Generated_Source\PSoC4/CyLib.c ****     * Parameters:
 530:.\Generated_Source\PSoC4/CyLib.c ****     *  counterNum:
 531:.\Generated_Source\PSoC4/CyLib.c ****     *   Valid range [0-1].  Number of the WDT counter.  Match values are not
 532:.\Generated_Source\PSoC4/CyLib.c ****     *   supported by counter 2.
 533:.\Generated_Source\PSoC4/CyLib.c ****     *
 534:.\Generated_Source\PSoC4/CyLib.c ****     * enable:
 535:.\Generated_Source\PSoC4/CyLib.c ****     *   0 to disable, 1 to enable
 536:.\Generated_Source\PSoC4/CyLib.c ****     *
 537:.\Generated_Source\PSoC4/CyLib.c ****     * Return:
 538:.\Generated_Source\PSoC4/CyLib.c ****     *   None
 539:.\Generated_Source\PSoC4/CyLib.c ****     *
 540:.\Generated_Source\PSoC4/CyLib.c ****     * Side Effects:
 541:.\Generated_Source\PSoC4/CyLib.c ****     *   WDT counter counterNum should be disabled. Othetwise function
 542:.\Generated_Source\PSoC4/CyLib.c ****     *   call will have no effect.
 543:.\Generated_Source\PSoC4/CyLib.c ****     *   This API enables ILO, if it was disabled.
 544:.\Generated_Source\PSoC4/CyLib.c ****     *
 545:.\Generated_Source\PSoC4/CyLib.c ****     *
 546:.\Generated_Source\PSoC4/CyLib.c ****     *******************************************************************************/
 547:.\Generated_Source\PSoC4/CyLib.c ****     void CySysWdtWriteClearOnMatch(uint32 counterNum, uint32 enable)
 548:.\Generated_Source\PSoC4/CyLib.c ****     {
 549:.\Generated_Source\PSoC4/CyLib.c ****         CYASSERT((counterNum == CY_SYS_WDT_COUNTER0) ||
ARM GAS  C:\Users\Steve\AppData\Local\Temp\ccc4U1xk.s 			page 17


 550:.\Generated_Source\PSoC4/CyLib.c ****                                              (counterNum == CY_SYS_WDT_COUNTER1));
 551:.\Generated_Source\PSoC4/CyLib.c **** 
 552:.\Generated_Source\PSoC4/CyLib.c ****         /* Configuring the WDT involves passing control signals between clock domains,
 553:.\Generated_Source\PSoC4/CyLib.c ****         * which requires the ILO to be enabled.
 554:.\Generated_Source\PSoC4/CyLib.c ****         */
 555:.\Generated_Source\PSoC4/CyLib.c ****         if (0u == (CY_SYS_CLK_ILO_CONFIG_REG & CY_SYS_CLK_ILO_CONFIG_ENABLE))
 556:.\Generated_Source\PSoC4/CyLib.c ****         {
 557:.\Generated_Source\PSoC4/CyLib.c ****             CySysClkIloStart();
 558:.\Generated_Source\PSoC4/CyLib.c ****         }
 559:.\Generated_Source\PSoC4/CyLib.c **** 
 560:.\Generated_Source\PSoC4/CyLib.c ****         if(0u == CySysWdtReadEnabledStatus(counterNum))
 561:.\Generated_Source\PSoC4/CyLib.c ****         {
 562:.\Generated_Source\PSoC4/CyLib.c ****             CY_SYS_WDT_CONFIG_REG |= (uint32)(enable << ((counterNum * CY_SYS_WDT_CNT_SHIFT) +
 563:.\Generated_Source\PSoC4/CyLib.c ****                                                             CY_SYS_WDT_CNT_MATCH_CLR_SHIFT));
 564:.\Generated_Source\PSoC4/CyLib.c ****         }
 565:.\Generated_Source\PSoC4/CyLib.c ****     }
 566:.\Generated_Source\PSoC4/CyLib.c **** 
 567:.\Generated_Source\PSoC4/CyLib.c **** 
 568:.\Generated_Source\PSoC4/CyLib.c ****     /*******************************************************************************
 569:.\Generated_Source\PSoC4/CyLib.c ****     * Function Name: CySysWdtReadClearOnMatch
 570:.\Generated_Source\PSoC4/CyLib.c ****     ********************************************************************************
 571:.\Generated_Source\PSoC4/CyLib.c ****     *
 572:.\Generated_Source\PSoC4/CyLib.c ****     * Summary:
 573:.\Generated_Source\PSoC4/CyLib.c ****     *  Reads the clear on match setting for the specified counter.
 574:.\Generated_Source\PSoC4/CyLib.c ****     *
 575:.\Generated_Source\PSoC4/CyLib.c ****     * Parameters:
 576:.\Generated_Source\PSoC4/CyLib.c ****     *   counterNum: Valid range [0-1].  Number of the WDT counter.  Match values are
 577:.\Generated_Source\PSoC4/CyLib.c ****     *               not supported by counter 2.
 578:.\Generated_Source\PSoC4/CyLib.c ****     *
 579:.\Generated_Source\PSoC4/CyLib.c ****     * Return:
 580:.\Generated_Source\PSoC4/CyLib.c ****     *   Clear on Match status: 1 if enabled, 0 if disabled
 581:.\Generated_Source\PSoC4/CyLib.c ****     *
 582:.\Generated_Source\PSoC4/CyLib.c ****     *******************************************************************************/
 583:.\Generated_Source\PSoC4/CyLib.c ****     uint32 CySysWdtReadClearOnMatch(uint32 counterNum)
 584:.\Generated_Source\PSoC4/CyLib.c ****     {
 585:.\Generated_Source\PSoC4/CyLib.c ****         CYASSERT((counterNum == CY_SYS_WDT_COUNTER0) ||
 586:.\Generated_Source\PSoC4/CyLib.c ****                                              (counterNum == CY_SYS_WDT_COUNTER1));
 587:.\Generated_Source\PSoC4/CyLib.c **** 
 588:.\Generated_Source\PSoC4/CyLib.c ****         return (uint32)((CY_SYS_WDT_CONFIG_REG >>
 589:.\Generated_Source\PSoC4/CyLib.c ****                             ((counterNum * CY_SYS_WDT_CNT_SHIFT) + CY_SYS_WDT_CNT_MATCH_CLR_SHIFT))
 590:.\Generated_Source\PSoC4/CyLib.c ****     }
 591:.\Generated_Source\PSoC4/CyLib.c **** 
 592:.\Generated_Source\PSoC4/CyLib.c **** 
 593:.\Generated_Source\PSoC4/CyLib.c ****     /*******************************************************************************
 594:.\Generated_Source\PSoC4/CyLib.c ****     * Function Name: CySysWdtEnable
 595:.\Generated_Source\PSoC4/CyLib.c ****     ********************************************************************************
 596:.\Generated_Source\PSoC4/CyLib.c ****     *
 597:.\Generated_Source\PSoC4/CyLib.c ****     * Summary:
 598:.\Generated_Source\PSoC4/CyLib.c ****     *  Enables the specified WDT counters.  All counters specified in the mask are
 599:.\Generated_Source\PSoC4/CyLib.c ****     *  enabled.
 600:.\Generated_Source\PSoC4/CyLib.c ****     *
 601:.\Generated_Source\PSoC4/CyLib.c ****     * Parameters:
 602:.\Generated_Source\PSoC4/CyLib.c ****     *  counterMask: Mask of all counters to enable
 603:.\Generated_Source\PSoC4/CyLib.c ****     *       Define                       Counter
 604:.\Generated_Source\PSoC4/CyLib.c ****     *      CY_SYS_WDT_COUNTER0_MASK      0
 605:.\Generated_Source\PSoC4/CyLib.c ****     *      CY_SYS_WDT_COUNTER1_MASK      1
 606:.\Generated_Source\PSoC4/CyLib.c ****     *      CY_SYS_WDT_COUNTER2_MASK      2
ARM GAS  C:\Users\Steve\AppData\Local\Temp\ccc4U1xk.s 			page 18


 607:.\Generated_Source\PSoC4/CyLib.c ****     *
 608:.\Generated_Source\PSoC4/CyLib.c ****     * Return:
 609:.\Generated_Source\PSoC4/CyLib.c ****     *  None
 610:.\Generated_Source\PSoC4/CyLib.c ****     *
 611:.\Generated_Source\PSoC4/CyLib.c ****     * Side Effects:
 612:.\Generated_Source\PSoC4/CyLib.c ****     *  Enabling or disabling a WDT requires 3 LF Clock cycles to come into effect.
 613:.\Generated_Source\PSoC4/CyLib.c ****     *  This API enables ILO, if it was disabled.
 614:.\Generated_Source\PSoC4/CyLib.c ****     *
 615:.\Generated_Source\PSoC4/CyLib.c ****     *******************************************************************************/
 616:.\Generated_Source\PSoC4/CyLib.c ****     void CySysWdtEnable(uint32 counterMask)
 617:.\Generated_Source\PSoC4/CyLib.c ****     {
 618:.\Generated_Source\PSoC4/CyLib.c ****         /* Configuring the WDT involves passing control signals between clock domains,
 619:.\Generated_Source\PSoC4/CyLib.c ****         * which requires the ILO to be enabled.
 620:.\Generated_Source\PSoC4/CyLib.c ****         */
 621:.\Generated_Source\PSoC4/CyLib.c ****         if (0u == (CY_SYS_CLK_ILO_CONFIG_REG & CY_SYS_CLK_ILO_CONFIG_ENABLE))
 622:.\Generated_Source\PSoC4/CyLib.c ****         {
 623:.\Generated_Source\PSoC4/CyLib.c ****             CySysClkIloStart();
 624:.\Generated_Source\PSoC4/CyLib.c ****         }
 625:.\Generated_Source\PSoC4/CyLib.c **** 
 626:.\Generated_Source\PSoC4/CyLib.c ****         CY_SYS_WDT_CONTROL_REG |= counterMask;
 627:.\Generated_Source\PSoC4/CyLib.c ****     }
 628:.\Generated_Source\PSoC4/CyLib.c **** 
 629:.\Generated_Source\PSoC4/CyLib.c **** 
 630:.\Generated_Source\PSoC4/CyLib.c ****     /*******************************************************************************
 631:.\Generated_Source\PSoC4/CyLib.c ****     * Function Name: CySysWdtDisable
 632:.\Generated_Source\PSoC4/CyLib.c ****     ********************************************************************************
 633:.\Generated_Source\PSoC4/CyLib.c ****     *
 634:.\Generated_Source\PSoC4/CyLib.c ****     * Summary:
 635:.\Generated_Source\PSoC4/CyLib.c ****     *  Disables the specified WDT counters.  All counters specified in the mask are
 636:.\Generated_Source\PSoC4/CyLib.c ****     *  disabled.
 637:.\Generated_Source\PSoC4/CyLib.c ****     *
 638:.\Generated_Source\PSoC4/CyLib.c ****     * Parameters:
 639:.\Generated_Source\PSoC4/CyLib.c ****     *  uint32 counterMask: Mask of all counters to disable
 640:.\Generated_Source\PSoC4/CyLib.c ****     *    Define                       Counter
 641:.\Generated_Source\PSoC4/CyLib.c ****     *   CY_SYS_WDT_COUNTER0_MASK      0
 642:.\Generated_Source\PSoC4/CyLib.c ****     *   CY_SYS_WDT_COUNTER1_MASK      1
 643:.\Generated_Source\PSoC4/CyLib.c ****     *   CY_SYS_WDT_COUNTER2_MASK      2
 644:.\Generated_Source\PSoC4/CyLib.c ****     *
 645:.\Generated_Source\PSoC4/CyLib.c ****     * Return:
 646:.\Generated_Source\PSoC4/CyLib.c ****     *   None
 647:.\Generated_Source\PSoC4/CyLib.c ****     *
 648:.\Generated_Source\PSoC4/CyLib.c ****     * Side Effects:
 649:.\Generated_Source\PSoC4/CyLib.c ****     *  Enabling or disabling a WDT requires 3 LF Clock cycles to come into effect.
 650:.\Generated_Source\PSoC4/CyLib.c ****     *  This API enables ILO, if it was disabled.
 651:.\Generated_Source\PSoC4/CyLib.c ****     *
 652:.\Generated_Source\PSoC4/CyLib.c ****     *******************************************************************************/
 653:.\Generated_Source\PSoC4/CyLib.c ****     void CySysWdtDisable(uint32 counterMask)
 654:.\Generated_Source\PSoC4/CyLib.c ****     {
 655:.\Generated_Source\PSoC4/CyLib.c ****         /* Configuring the WDT involves passing control signals between clock domains,
 656:.\Generated_Source\PSoC4/CyLib.c ****         * which requires the ILO to be enabled.
 657:.\Generated_Source\PSoC4/CyLib.c ****         */
 658:.\Generated_Source\PSoC4/CyLib.c ****         if (0u == (CY_SYS_CLK_ILO_CONFIG_REG & CY_SYS_CLK_ILO_CONFIG_ENABLE))
 659:.\Generated_Source\PSoC4/CyLib.c ****         {
 660:.\Generated_Source\PSoC4/CyLib.c ****             CySysClkIloStart();
 661:.\Generated_Source\PSoC4/CyLib.c ****         }
 662:.\Generated_Source\PSoC4/CyLib.c **** 
 663:.\Generated_Source\PSoC4/CyLib.c ****         CY_SYS_WDT_CONTROL_REG &= ~counterMask;
ARM GAS  C:\Users\Steve\AppData\Local\Temp\ccc4U1xk.s 			page 19


 664:.\Generated_Source\PSoC4/CyLib.c ****     }
 665:.\Generated_Source\PSoC4/CyLib.c **** 
 666:.\Generated_Source\PSoC4/CyLib.c **** 
 667:.\Generated_Source\PSoC4/CyLib.c ****     /*******************************************************************************
 668:.\Generated_Source\PSoC4/CyLib.c ****     * Function Name: CySysWdtWriteCascade
 669:.\Generated_Source\PSoC4/CyLib.c ****     ********************************************************************************
 670:.\Generated_Source\PSoC4/CyLib.c ****     *
 671:.\Generated_Source\PSoC4/CyLib.c ****     * Summary:
 672:.\Generated_Source\PSoC4/CyLib.c ****     *   Writes the two WDT cascade values based on the combination of mask values
 673:.\Generated_Source\PSoC4/CyLib.c ****     *   specified.
 674:.\Generated_Source\PSoC4/CyLib.c ****     *
 675:.\Generated_Source\PSoC4/CyLib.c ****     * Parameters:
 676:.\Generated_Source\PSoC4/CyLib.c ****     *   cascadeMask: Mask value used to set or clear the cascade values.
 677:.\Generated_Source\PSoC4/CyLib.c ****     *   Define                     Cascade
 678:.\Generated_Source\PSoC4/CyLib.c ****     *   CY_SYS_WDT_CASCADE_NONE    Neither
 679:.\Generated_Source\PSoC4/CyLib.c ****     *   CY_SYS_WDT_CASCADE_01      Cascade 01
 680:.\Generated_Source\PSoC4/CyLib.c ****     *   CY_SYS_WDT_CASCADE_12      Cascade 12
 681:.\Generated_Source\PSoC4/CyLib.c ****     *
 682:.\Generated_Source\PSoC4/CyLib.c ****     * Return:
 683:.\Generated_Source\PSoC4/CyLib.c ****     *   None
 684:.\Generated_Source\PSoC4/CyLib.c ****     *
 685:.\Generated_Source\PSoC4/CyLib.c ****     * Side effects:
 686:.\Generated_Source\PSoC4/CyLib.c ****     *   If only one cascasde mask is specified, the second cascade is disabled.
 687:.\Generated_Source\PSoC4/CyLib.c ****     *   To set both cascade modes two defines should be ORed:
 688:.\Generated_Source\PSoC4/CyLib.c ****     *    (CY_SYS_WDT_CASCADE_01 | CY_SYS_WDT_CASCADE_12)
 689:.\Generated_Source\PSoC4/CyLib.c ****     *   This API enables ILO, if it was disabled.
 690:.\Generated_Source\PSoC4/CyLib.c ****     *
 691:.\Generated_Source\PSoC4/CyLib.c ****     *******************************************************************************/
 692:.\Generated_Source\PSoC4/CyLib.c ****     void CySysWdtWriteCascade(uint32 cascadeMask)
 693:.\Generated_Source\PSoC4/CyLib.c ****     {
 694:.\Generated_Source\PSoC4/CyLib.c ****         uint32 configRegValue;
 695:.\Generated_Source\PSoC4/CyLib.c ****         uint32 countersEnableStatus;
 696:.\Generated_Source\PSoC4/CyLib.c **** 
 697:.\Generated_Source\PSoC4/CyLib.c ****         countersEnableStatus = CySysWdtReadEnabledStatus(CY_SYS_WDT_COUNTER0) |
 698:.\Generated_Source\PSoC4/CyLib.c ****                             CySysWdtReadEnabledStatus(CY_SYS_WDT_COUNTER1) |
 699:.\Generated_Source\PSoC4/CyLib.c ****                             CySysWdtReadEnabledStatus(CY_SYS_WDT_COUNTER2);
 700:.\Generated_Source\PSoC4/CyLib.c **** 
 701:.\Generated_Source\PSoC4/CyLib.c ****         if (0u == countersEnableStatus)
 702:.\Generated_Source\PSoC4/CyLib.c ****         {
 703:.\Generated_Source\PSoC4/CyLib.c ****             /* Configuring the WDT involves passing control signals between clock domains,
 704:.\Generated_Source\PSoC4/CyLib.c ****             * which requires the ILO to be enabled.
 705:.\Generated_Source\PSoC4/CyLib.c ****             */
 706:.\Generated_Source\PSoC4/CyLib.c ****             if (0u == (CY_SYS_CLK_ILO_CONFIG_REG & CY_SYS_CLK_ILO_CONFIG_ENABLE))
 707:.\Generated_Source\PSoC4/CyLib.c ****             {
 708:.\Generated_Source\PSoC4/CyLib.c ****                 CySysClkIloStart();
 709:.\Generated_Source\PSoC4/CyLib.c ****             }
 710:.\Generated_Source\PSoC4/CyLib.c **** 
 711:.\Generated_Source\PSoC4/CyLib.c ****             configRegValue = CY_SYS_WDT_CONFIG_REG;
 712:.\Generated_Source\PSoC4/CyLib.c ****             configRegValue &= ((uint32)(~(CY_SYS_WDT_CASCADE_01|CY_SYS_WDT_CASCADE_12)));
 713:.\Generated_Source\PSoC4/CyLib.c ****             configRegValue |= cascadeMask;
 714:.\Generated_Source\PSoC4/CyLib.c ****             CY_SYS_WDT_CONFIG_REG = configRegValue;
 715:.\Generated_Source\PSoC4/CyLib.c ****         }
 716:.\Generated_Source\PSoC4/CyLib.c ****     }
 717:.\Generated_Source\PSoC4/CyLib.c **** 
 718:.\Generated_Source\PSoC4/CyLib.c **** 
 719:.\Generated_Source\PSoC4/CyLib.c ****     /*******************************************************************************
 720:.\Generated_Source\PSoC4/CyLib.c ****     * Function Name: CySysWdtReadCascade
ARM GAS  C:\Users\Steve\AppData\Local\Temp\ccc4U1xk.s 			page 20


 721:.\Generated_Source\PSoC4/CyLib.c ****     ********************************************************************************
 722:.\Generated_Source\PSoC4/CyLib.c ****     *
 723:.\Generated_Source\PSoC4/CyLib.c ****     * Summary:
 724:.\Generated_Source\PSoC4/CyLib.c ****     *   Reads the two WDT cascade values returning a mask of the bits set.
 725:.\Generated_Source\PSoC4/CyLib.c ****     *
 726:.\Generated_Source\PSoC4/CyLib.c ****     * Parameters:
 727:.\Generated_Source\PSoC4/CyLib.c ****     *   None
 728:.\Generated_Source\PSoC4/CyLib.c ****     *
 729:.\Generated_Source\PSoC4/CyLib.c ****     * Return:
 730:.\Generated_Source\PSoC4/CyLib.c ****     *   Mask of cascade values set.
 731:.\Generated_Source\PSoC4/CyLib.c ****     *   Define                     Cascade
 732:.\Generated_Source\PSoC4/CyLib.c ****     *   CY_SYS_WDT_CASCADE_NONE    Neither
 733:.\Generated_Source\PSoC4/CyLib.c ****     *   CY_SYS_WDT_CASCADE_01      Cascade 01
 734:.\Generated_Source\PSoC4/CyLib.c ****     *   CY_SYS_WDT_CASCADE_12      Cascade 12
 735:.\Generated_Source\PSoC4/CyLib.c ****     *
 736:.\Generated_Source\PSoC4/CyLib.c ****     *******************************************************************************/
 737:.\Generated_Source\PSoC4/CyLib.c ****     uint32 CySysWdtReadCascade(void)
 738:.\Generated_Source\PSoC4/CyLib.c ****     {
 739:.\Generated_Source\PSoC4/CyLib.c ****         return (CY_SYS_WDT_CONFIG_REG & (CY_SYS_WDT_CASCADE_01 | CY_SYS_WDT_CASCADE_12));
 740:.\Generated_Source\PSoC4/CyLib.c ****     }
 741:.\Generated_Source\PSoC4/CyLib.c **** 
 742:.\Generated_Source\PSoC4/CyLib.c **** 
 743:.\Generated_Source\PSoC4/CyLib.c ****     /*******************************************************************************
 744:.\Generated_Source\PSoC4/CyLib.c ****     * Function Name: CySysWdtWriteMatch
 745:.\Generated_Source\PSoC4/CyLib.c ****     ********************************************************************************
 746:.\Generated_Source\PSoC4/CyLib.c ****     *
 747:.\Generated_Source\PSoC4/CyLib.c ****     * Summary:
 748:.\Generated_Source\PSoC4/CyLib.c ****     *  Configures the WDT counter match comparison value.
 749:.\Generated_Source\PSoC4/CyLib.c ****     *
 750:.\Generated_Source\PSoC4/CyLib.c ****     * Parameters:
 751:.\Generated_Source\PSoC4/CyLib.c ****     *  counterNum:
 752:.\Generated_Source\PSoC4/CyLib.c ****     *   Valid range [0-1]. Number of the WDT counter. Match values are not
 753:.\Generated_Source\PSoC4/CyLib.c ****     *   supported by counter 2.
 754:.\Generated_Source\PSoC4/CyLib.c ****     *
 755:.\Generated_Source\PSoC4/CyLib.c ****     *  match:
 756:.\Generated_Source\PSoC4/CyLib.c ****     *   Valid range [0-65535]. Value to be used to match against the counter.
 757:.\Generated_Source\PSoC4/CyLib.c ****     *
 758:.\Generated_Source\PSoC4/CyLib.c ****     * Return:
 759:.\Generated_Source\PSoC4/CyLib.c ****     *   None
 760:.\Generated_Source\PSoC4/CyLib.c ****     *
 761:.\Generated_Source\PSoC4/CyLib.c ****     * Side effects:
 762:.\Generated_Source\PSoC4/CyLib.c ****     *   This API enables ILO, if it was disabled.
 763:.\Generated_Source\PSoC4/CyLib.c ****     *
 764:.\Generated_Source\PSoC4/CyLib.c ****     *******************************************************************************/
 765:.\Generated_Source\PSoC4/CyLib.c ****     void CySysWdtWriteMatch(uint32 counterNum, uint32 match)
 766:.\Generated_Source\PSoC4/CyLib.c ****     {
 767:.\Generated_Source\PSoC4/CyLib.c ****         uint32 regValue;
 768:.\Generated_Source\PSoC4/CyLib.c **** 
 769:.\Generated_Source\PSoC4/CyLib.c ****         CYASSERT((counterNum == CY_SYS_WDT_COUNTER0) ||
 770:.\Generated_Source\PSoC4/CyLib.c ****                                              (counterNum == CY_SYS_WDT_COUNTER1));
 771:.\Generated_Source\PSoC4/CyLib.c **** 
 772:.\Generated_Source\PSoC4/CyLib.c ****         /* Configuring the WDT involves passing control signals between clock domains,
 773:.\Generated_Source\PSoC4/CyLib.c ****         * which requires the ILO to be enabled.
 774:.\Generated_Source\PSoC4/CyLib.c ****         */
 775:.\Generated_Source\PSoC4/CyLib.c ****         if (0u == (CY_SYS_CLK_ILO_CONFIG_REG & CY_SYS_CLK_ILO_CONFIG_ENABLE))
 776:.\Generated_Source\PSoC4/CyLib.c ****         {
 777:.\Generated_Source\PSoC4/CyLib.c ****             CySysClkIloStart();
ARM GAS  C:\Users\Steve\AppData\Local\Temp\ccc4U1xk.s 			page 21


 778:.\Generated_Source\PSoC4/CyLib.c ****         }
 779:.\Generated_Source\PSoC4/CyLib.c **** 
 780:.\Generated_Source\PSoC4/CyLib.c ****         /* Delay ~ 3LFCK in order to male sure previos changes are applied */
 781:.\Generated_Source\PSoC4/CyLib.c ****         CyDelayUs(CY_SYS_WDT_3LFCLK_DELAY_US);
 782:.\Generated_Source\PSoC4/CyLib.c **** 
 783:.\Generated_Source\PSoC4/CyLib.c ****         regValue = CY_SYS_WDT_MATCH_REG;
 784:.\Generated_Source\PSoC4/CyLib.c ****         regValue &= (uint32)~((uint32)(CY_SYS_WDT_LOWER_16BITS_MASK << (counterNum * CY_SYS_WDT_CNT
 785:.\Generated_Source\PSoC4/CyLib.c ****         CY_SYS_WDT_MATCH_REG = (regValue | (match << (counterNum * CY_SYS_WDT_CNT_MATCH_SHIFT)));
 786:.\Generated_Source\PSoC4/CyLib.c ****     }
 787:.\Generated_Source\PSoC4/CyLib.c **** 
 788:.\Generated_Source\PSoC4/CyLib.c **** 
 789:.\Generated_Source\PSoC4/CyLib.c ****     /*******************************************************************************
 790:.\Generated_Source\PSoC4/CyLib.c ****     * Function Name: CySysWdtWriteToggleBit
 791:.\Generated_Source\PSoC4/CyLib.c ****     ********************************************************************************
 792:.\Generated_Source\PSoC4/CyLib.c ****     *
 793:.\Generated_Source\PSoC4/CyLib.c ****     * Summary:
 794:.\Generated_Source\PSoC4/CyLib.c ****     *  Configures which bit in the WDT counter 2 to monitor for a toggle.  When that
 795:.\Generated_Source\PSoC4/CyLib.c ****     *  bit toggles an interrupt is generated if the mode for counter 2 has
 796:.\Generated_Source\PSoC4/CyLib.c ****     *  interrupts enabled.
 797:.\Generated_Source\PSoC4/CyLib.c ****     *
 798:.\Generated_Source\PSoC4/CyLib.c ****     * Parameters:
 799:.\Generated_Source\PSoC4/CyLib.c ****     *  bit:
 800:.\Generated_Source\PSoC4/CyLib.c ****     *   Valid range [0-31].  Counter 2 bit to monitor for a toggle.
 801:.\Generated_Source\PSoC4/CyLib.c ****     *
 802:.\Generated_Source\PSoC4/CyLib.c ****     * Return:
 803:.\Generated_Source\PSoC4/CyLib.c ****     *   None
 804:.\Generated_Source\PSoC4/CyLib.c ****     *
 805:.\Generated_Source\PSoC4/CyLib.c ****     * Side effects:
 806:.\Generated_Source\PSoC4/CyLib.c ****     *   WDT counter 2 should be disabled. Othetwise function
 807:.\Generated_Source\PSoC4/CyLib.c ****     *   call will have no effect.
 808:.\Generated_Source\PSoC4/CyLib.c ****     *   This API enables ILO, if it was disabled.
 809:.\Generated_Source\PSoC4/CyLib.c ****     *
 810:.\Generated_Source\PSoC4/CyLib.c ****     *******************************************************************************/
 811:.\Generated_Source\PSoC4/CyLib.c ****     void CySysWdtWriteToggleBit(uint32 bits)
 812:.\Generated_Source\PSoC4/CyLib.c ****     {
 813:.\Generated_Source\PSoC4/CyLib.c ****         uint32 configRegValue;
 814:.\Generated_Source\PSoC4/CyLib.c **** 
 815:.\Generated_Source\PSoC4/CyLib.c ****         if (0u == CySysWdtReadEnabledStatus(CY_SYS_WDT_COUNTER2))
 816:.\Generated_Source\PSoC4/CyLib.c ****         {
 817:.\Generated_Source\PSoC4/CyLib.c ****             /* Configuring the WDT involves passing control signals between clock domains,
 818:.\Generated_Source\PSoC4/CyLib.c ****             * which requires the ILO to be enabled.
 819:.\Generated_Source\PSoC4/CyLib.c ****             */
 820:.\Generated_Source\PSoC4/CyLib.c ****             if (0u == (CY_SYS_CLK_ILO_CONFIG_REG & CY_SYS_CLK_ILO_CONFIG_ENABLE))
 821:.\Generated_Source\PSoC4/CyLib.c ****             {
 822:.\Generated_Source\PSoC4/CyLib.c ****                 CySysClkIloStart();
 823:.\Generated_Source\PSoC4/CyLib.c ****             }
 824:.\Generated_Source\PSoC4/CyLib.c **** 
 825:.\Generated_Source\PSoC4/CyLib.c ****             configRegValue = CY_SYS_WDT_CONFIG_REG;
 826:.\Generated_Source\PSoC4/CyLib.c ****             configRegValue &= (uint32)(~((uint32)(CY_SYS_WDT_CONFIG_BITS2_MASK << CY_SYS_WDT_CONFIG
 827:.\Generated_Source\PSoC4/CyLib.c ****             configRegValue |= ((bits & CY_SYS_WDT_CONFIG_BITS2_MASK) << CY_SYS_WDT_CONFIG_BITS2_POS
 828:.\Generated_Source\PSoC4/CyLib.c ****             CY_SYS_WDT_CONFIG_REG = configRegValue;
 829:.\Generated_Source\PSoC4/CyLib.c ****         }
 830:.\Generated_Source\PSoC4/CyLib.c ****     }
 831:.\Generated_Source\PSoC4/CyLib.c **** 
 832:.\Generated_Source\PSoC4/CyLib.c **** 
 833:.\Generated_Source\PSoC4/CyLib.c ****     /*******************************************************************************
 834:.\Generated_Source\PSoC4/CyLib.c ****     * Function Name: CySysWdtReadToggleBit
ARM GAS  C:\Users\Steve\AppData\Local\Temp\ccc4U1xk.s 			page 22


 835:.\Generated_Source\PSoC4/CyLib.c ****     ********************************************************************************
 836:.\Generated_Source\PSoC4/CyLib.c ****     *
 837:.\Generated_Source\PSoC4/CyLib.c ****     * Summary:
 838:.\Generated_Source\PSoC4/CyLib.c ****     *  Reads which bit in the WDT counter 2 is monitored for a toggle.
 839:.\Generated_Source\PSoC4/CyLib.c ****     *
 840:.\Generated_Source\PSoC4/CyLib.c ****     * Parameters:
 841:.\Generated_Source\PSoC4/CyLib.c ****     *  None
 842:.\Generated_Source\PSoC4/CyLib.c ****     *
 843:.\Generated_Source\PSoC4/CyLib.c ****     * Return:
 844:.\Generated_Source\PSoC4/CyLib.c ****     *  Bit that is monitored (range of 0 to 31)
 845:.\Generated_Source\PSoC4/CyLib.c ****     *
 846:.\Generated_Source\PSoC4/CyLib.c ****     *******************************************************************************/
 847:.\Generated_Source\PSoC4/CyLib.c ****     uint32 CySysWdtReadToggleBit(void)
 848:.\Generated_Source\PSoC4/CyLib.c ****     {
 849:.\Generated_Source\PSoC4/CyLib.c ****         return ((CY_SYS_WDT_CONFIG_REG >> CY_SYS_WDT_CONFIG_BITS2_POS) & CY_SYS_WDT_CONFIG_BITS2_MA
 850:.\Generated_Source\PSoC4/CyLib.c ****     }
 851:.\Generated_Source\PSoC4/CyLib.c **** 
 852:.\Generated_Source\PSoC4/CyLib.c **** 
 853:.\Generated_Source\PSoC4/CyLib.c ****     /*******************************************************************************
 854:.\Generated_Source\PSoC4/CyLib.c ****     * Function Name: CySysWdtReadMatch
 855:.\Generated_Source\PSoC4/CyLib.c ****     ********************************************************************************
 856:.\Generated_Source\PSoC4/CyLib.c ****     *
 857:.\Generated_Source\PSoC4/CyLib.c ****     * Summary:
 858:.\Generated_Source\PSoC4/CyLib.c ****     *  Reads the WDT counter match comparison value.
 859:.\Generated_Source\PSoC4/CyLib.c ****     *
 860:.\Generated_Source\PSoC4/CyLib.c ****     * Parameters:
 861:.\Generated_Source\PSoC4/CyLib.c ****     *  counterNum: Valid range [0-1].  Number of the WDT counter.  Match values
 862:.\Generated_Source\PSoC4/CyLib.c ****     *               are not supported by counter 2.
 863:.\Generated_Source\PSoC4/CyLib.c ****     *
 864:.\Generated_Source\PSoC4/CyLib.c ****     * Return:
 865:.\Generated_Source\PSoC4/CyLib.c ****     *  Counter match value
 866:.\Generated_Source\PSoC4/CyLib.c ****     *
 867:.\Generated_Source\PSoC4/CyLib.c ****     *******************************************************************************/
 868:.\Generated_Source\PSoC4/CyLib.c ****     uint32 CySysWdtReadMatch(uint32 counterNum)
 869:.\Generated_Source\PSoC4/CyLib.c ****     {
 870:.\Generated_Source\PSoC4/CyLib.c ****         CYASSERT((counterNum == CY_SYS_WDT_COUNTER0) ||
 871:.\Generated_Source\PSoC4/CyLib.c ****                                              (counterNum == CY_SYS_WDT_COUNTER1));
 872:.\Generated_Source\PSoC4/CyLib.c ****         return ((uint32)(CY_SYS_WDT_MATCH_REG >> (counterNum * CY_SYS_WDT_CNT_MATCH_SHIFT)) & CY_SY
 873:.\Generated_Source\PSoC4/CyLib.c ****     }
 874:.\Generated_Source\PSoC4/CyLib.c **** 
 875:.\Generated_Source\PSoC4/CyLib.c **** 
 876:.\Generated_Source\PSoC4/CyLib.c ****     /*******************************************************************************
 877:.\Generated_Source\PSoC4/CyLib.c ****     * Function Name: CySysWdtReadCount
 878:.\Generated_Source\PSoC4/CyLib.c ****     ********************************************************************************
 879:.\Generated_Source\PSoC4/CyLib.c ****     *
 880:.\Generated_Source\PSoC4/CyLib.c ****     * Summary:
 881:.\Generated_Source\PSoC4/CyLib.c ****     *  Reads the current WDT counter value.
 882:.\Generated_Source\PSoC4/CyLib.c ****     *
 883:.\Generated_Source\PSoC4/CyLib.c ****     * Parameters:
 884:.\Generated_Source\PSoC4/CyLib.c ****     *  counterNum: Valid range [0-2].  Number of the WDT counter.
 885:.\Generated_Source\PSoC4/CyLib.c ****     *
 886:.\Generated_Source\PSoC4/CyLib.c ****     * Return:
 887:.\Generated_Source\PSoC4/CyLib.c ****     *  Live counter value.  Counter 0 and 1 are 16 bit counters and counter
 888:.\Generated_Source\PSoC4/CyLib.c ****     *  2 is a 32 bit counter.
 889:.\Generated_Source\PSoC4/CyLib.c ****     *
 890:.\Generated_Source\PSoC4/CyLib.c ****     *******************************************************************************/
 891:.\Generated_Source\PSoC4/CyLib.c ****     uint32 CySysWdtReadCount(uint32 counterNum)
ARM GAS  C:\Users\Steve\AppData\Local\Temp\ccc4U1xk.s 			page 23


 892:.\Generated_Source\PSoC4/CyLib.c ****     {
 893:.\Generated_Source\PSoC4/CyLib.c ****         uint32 regValue = 0u;
 894:.\Generated_Source\PSoC4/CyLib.c **** 
 895:.\Generated_Source\PSoC4/CyLib.c ****         switch(counterNum)
 896:.\Generated_Source\PSoC4/CyLib.c ****         {
 897:.\Generated_Source\PSoC4/CyLib.c ****             /* WDT Counter 0 */
 898:.\Generated_Source\PSoC4/CyLib.c ****             case 0u:
 899:.\Generated_Source\PSoC4/CyLib.c ****                 regValue = CY_SYS_WDT_CTRLOW_REG & CY_SYS_WDT_LOWER_16BITS_MASK;
 900:.\Generated_Source\PSoC4/CyLib.c ****             break;
 901:.\Generated_Source\PSoC4/CyLib.c **** 
 902:.\Generated_Source\PSoC4/CyLib.c ****             /* WDT Counter 1 */
 903:.\Generated_Source\PSoC4/CyLib.c ****             case 1u:
 904:.\Generated_Source\PSoC4/CyLib.c ****                 regValue = (CY_SYS_WDT_CTRLOW_REG >> CY_SYS_WDT_CNT_MATCH_SHIFT) & CY_SYS_WDT_LOWER
 905:.\Generated_Source\PSoC4/CyLib.c ****             break;
 906:.\Generated_Source\PSoC4/CyLib.c **** 
 907:.\Generated_Source\PSoC4/CyLib.c ****             /* WDT Counter 2 */
 908:.\Generated_Source\PSoC4/CyLib.c ****             case 2u:
 909:.\Generated_Source\PSoC4/CyLib.c ****                 regValue = CY_SYS_WDT_CTRHIGH_REG;
 910:.\Generated_Source\PSoC4/CyLib.c ****             break;
 911:.\Generated_Source\PSoC4/CyLib.c **** 
 912:.\Generated_Source\PSoC4/CyLib.c ****             default:
 913:.\Generated_Source\PSoC4/CyLib.c ****                 CYASSERT(0u != 0u);
 914:.\Generated_Source\PSoC4/CyLib.c ****             break;
 915:.\Generated_Source\PSoC4/CyLib.c ****         }
 916:.\Generated_Source\PSoC4/CyLib.c **** 
 917:.\Generated_Source\PSoC4/CyLib.c ****         return (regValue);
 918:.\Generated_Source\PSoC4/CyLib.c ****     }
 919:.\Generated_Source\PSoC4/CyLib.c **** 
 920:.\Generated_Source\PSoC4/CyLib.c **** 
 921:.\Generated_Source\PSoC4/CyLib.c ****     /*******************************************************************************
 922:.\Generated_Source\PSoC4/CyLib.c ****     * Function Name: CySysWdtGetInterruptSource
 923:.\Generated_Source\PSoC4/CyLib.c ****     ********************************************************************************
 924:.\Generated_Source\PSoC4/CyLib.c ****     *
 925:.\Generated_Source\PSoC4/CyLib.c ****     * Summary:
 926:.\Generated_Source\PSoC4/CyLib.c ****     *   Reads a mask containing all the WDT counters interrupts that are currently
 927:.\Generated_Source\PSoC4/CyLib.c ****     *   set by hardware, if corresponding mode is selected.
 928:.\Generated_Source\PSoC4/CyLib.c ****     *
 929:.\Generated_Source\PSoC4/CyLib.c ****     * Parameters:
 930:.\Generated_Source\PSoC4/CyLib.c ****     *   None
 931:.\Generated_Source\PSoC4/CyLib.c ****     *
 932:.\Generated_Source\PSoC4/CyLib.c ****     * Return:
 933:.\Generated_Source\PSoC4/CyLib.c ****     *   Mask of interrupts set.
 934:.\Generated_Source\PSoC4/CyLib.c ****     *   Define                    Counter
 935:.\Generated_Source\PSoC4/CyLib.c ****     *   CY_SYS_WDT_COUNTER0_INT    0
 936:.\Generated_Source\PSoC4/CyLib.c ****     *   CY_SYS_WDT_COUNTER1_INT    1
 937:.\Generated_Source\PSoC4/CyLib.c ****     *   CY_SYS_WDT_COUNTER2_INT    2
 938:.\Generated_Source\PSoC4/CyLib.c ****     *
 939:.\Generated_Source\PSoC4/CyLib.c ****     *******************************************************************************/
 940:.\Generated_Source\PSoC4/CyLib.c ****     uint32 CySysWdtGetInterruptSource(void)
 941:.\Generated_Source\PSoC4/CyLib.c ****     {
 942:.\Generated_Source\PSoC4/CyLib.c ****         return (CY_SYS_WDT_CONTROL_REG & (CY_SYS_WDT_COUNTER0_INT | CY_SYS_WDT_COUNTER1_INT | CY_SY
 943:.\Generated_Source\PSoC4/CyLib.c ****     }
 944:.\Generated_Source\PSoC4/CyLib.c **** 
 945:.\Generated_Source\PSoC4/CyLib.c **** 
 946:.\Generated_Source\PSoC4/CyLib.c ****     /*******************************************************************************
 947:.\Generated_Source\PSoC4/CyLib.c ****     * Function Name: CySysWdtClearInterrupt
 948:.\Generated_Source\PSoC4/CyLib.c ****     ********************************************************************************
ARM GAS  C:\Users\Steve\AppData\Local\Temp\ccc4U1xk.s 			page 24


 949:.\Generated_Source\PSoC4/CyLib.c ****     *
 950:.\Generated_Source\PSoC4/CyLib.c ****     * Summary:
 951:.\Generated_Source\PSoC4/CyLib.c ****     *   Clears all WDT counter interrupts set in the mask. Calling this API also
 952:.\Generated_Source\PSoC4/CyLib.c ****     *   prevents Reset from happening when counter mode is set to generate
 953:.\Generated_Source\PSoC4/CyLib.c ****     *   3 interrupts and then reset device.
 954:.\Generated_Source\PSoC4/CyLib.c ****     *   All WDT interrupts are to be cleared by firmware, otherwise interrupts will
 955:.\Generated_Source\PSoC4/CyLib.c ****     *   be generated continuously.
 956:.\Generated_Source\PSoC4/CyLib.c ****     *
 957:.\Generated_Source\PSoC4/CyLib.c ****     * Parameters:
 958:.\Generated_Source\PSoC4/CyLib.c ****     *   counterMask: Mask of all counters to enable
 959:.\Generated_Source\PSoC4/CyLib.c ****     *   Define                    Counter
 960:.\Generated_Source\PSoC4/CyLib.c ****     *   CY_SYS_WDT_COUNTER0_INT    0
 961:.\Generated_Source\PSoC4/CyLib.c ****     *   CY_SYS_WDT_COUNTER1_INT    1
 962:.\Generated_Source\PSoC4/CyLib.c ****     *   CY_SYS_WDT_COUNTER2_INT    2
 963:.\Generated_Source\PSoC4/CyLib.c ****     *
 964:.\Generated_Source\PSoC4/CyLib.c ****     * Return:
 965:.\Generated_Source\PSoC4/CyLib.c ****     *   None
 966:.\Generated_Source\PSoC4/CyLib.c ****     *
 967:.\Generated_Source\PSoC4/CyLib.c ****     * Side effects:
 968:.\Generated_Source\PSoC4/CyLib.c ****     *   This API enables ILO, if it was disabled and temporary removes Watchdog
 969:.\Generated_Source\PSoC4/CyLib.c ****     *   lock, if it was set, and restores lock state, after cleaning WDT interrupts,
 970:.\Generated_Source\PSoC4/CyLib.c ****     *   that are set in mask.
 971:.\Generated_Source\PSoC4/CyLib.c ****     *
 972:.\Generated_Source\PSoC4/CyLib.c ****     *******************************************************************************/
 973:.\Generated_Source\PSoC4/CyLib.c ****     void CySysWdtClearInterrupt(uint32 counterMask)
 974:.\Generated_Source\PSoC4/CyLib.c ****     {
 975:.\Generated_Source\PSoC4/CyLib.c ****         uint8 interruptState;
 976:.\Generated_Source\PSoC4/CyLib.c ****         uint32 wdtLockState;
 977:.\Generated_Source\PSoC4/CyLib.c **** 
 978:.\Generated_Source\PSoC4/CyLib.c ****         interruptState = CyEnterCriticalSection();
 979:.\Generated_Source\PSoC4/CyLib.c **** 
 980:.\Generated_Source\PSoC4/CyLib.c ****         /* Configuring the WDT involves passing control signals between clock domains,
 981:.\Generated_Source\PSoC4/CyLib.c ****         * which requires the ILO to be enabled.
 982:.\Generated_Source\PSoC4/CyLib.c ****         */
 983:.\Generated_Source\PSoC4/CyLib.c ****         if (0u == (CY_SYS_CLK_ILO_CONFIG_REG & CY_SYS_CLK_ILO_CONFIG_ENABLE))
 984:.\Generated_Source\PSoC4/CyLib.c ****         {
 985:.\Generated_Source\PSoC4/CyLib.c ****             CySysClkIloStart();
 986:.\Generated_Source\PSoC4/CyLib.c ****         }
 987:.\Generated_Source\PSoC4/CyLib.c **** 
 988:.\Generated_Source\PSoC4/CyLib.c ****         if ((CY_SYS_CLK_SELECT_REG & (uint32)(CY_SYS_WDT_CLK_LOCK_BITS_MASK)) == CY_SYS_WDT_CLK_LOC
 989:.\Generated_Source\PSoC4/CyLib.c ****         {
 990:.\Generated_Source\PSoC4/CyLib.c ****             wdtLockState = 1u;
 991:.\Generated_Source\PSoC4/CyLib.c **** 
 992:.\Generated_Source\PSoC4/CyLib.c ****             /* Removing WDT lock requires two writes */
 993:.\Generated_Source\PSoC4/CyLib.c ****             CY_SYS_CLK_SELECT_REG = ((CY_SYS_CLK_SELECT_REG & (uint32)(~CY_SYS_WDT_CLK_LOCK_BITS_MA
 994:.\Generated_Source\PSoC4/CyLib.c ****                     CY_SYS_WDT_CLK_LOCK_BIT0);
 995:.\Generated_Source\PSoC4/CyLib.c **** 
 996:.\Generated_Source\PSoC4/CyLib.c ****             CY_SYS_CLK_SELECT_REG = ((CY_SYS_CLK_SELECT_REG & (uint32)(~CY_SYS_WDT_CLK_LOCK_BITS_MA
 997:.\Generated_Source\PSoC4/CyLib.c ****                     CY_SYS_WDT_CLK_LOCK_BIT1);
 998:.\Generated_Source\PSoC4/CyLib.c ****         }
 999:.\Generated_Source\PSoC4/CyLib.c ****         else
1000:.\Generated_Source\PSoC4/CyLib.c ****         {
1001:.\Generated_Source\PSoC4/CyLib.c ****             wdtLockState = 0u;
1002:.\Generated_Source\PSoC4/CyLib.c ****         }
1003:.\Generated_Source\PSoC4/CyLib.c **** 
1004:.\Generated_Source\PSoC4/CyLib.c ****         /* Set the new WDT control register value */
1005:.\Generated_Source\PSoC4/CyLib.c ****         CY_SYS_WDT_CONTROL_REG |= (counterMask & (CY_SYS_WDT_COUNTER0_INT |
ARM GAS  C:\Users\Steve\AppData\Local\Temp\ccc4U1xk.s 			page 25


1006:.\Generated_Source\PSoC4/CyLib.c ****             CY_SYS_WDT_COUNTER1_INT | CY_SYS_WDT_COUNTER2_INT));
1007:.\Generated_Source\PSoC4/CyLib.c **** 
1008:.\Generated_Source\PSoC4/CyLib.c ****         if (1u == wdtLockState)
1009:.\Generated_Source\PSoC4/CyLib.c ****         {
1010:.\Generated_Source\PSoC4/CyLib.c ****             /* CLK_SELECT register's bits 15:14 are WDT_LOCK */
1011:.\Generated_Source\PSoC4/CyLib.c ****             CY_SYS_CLK_SELECT_REG = (CY_SYS_CLK_SELECT_REG & (uint32)(~CY_SYS_WDT_CLK_LOCK_BITS_MAS
1012:.\Generated_Source\PSoC4/CyLib.c ****                      CY_SYS_WDT_CLK_LOCK_BITS_MASK;
1013:.\Generated_Source\PSoC4/CyLib.c ****         }
1014:.\Generated_Source\PSoC4/CyLib.c **** 
1015:.\Generated_Source\PSoC4/CyLib.c ****         CyExitCriticalSection(interruptState);
1016:.\Generated_Source\PSoC4/CyLib.c ****     }
1017:.\Generated_Source\PSoC4/CyLib.c **** 
1018:.\Generated_Source\PSoC4/CyLib.c **** 
1019:.\Generated_Source\PSoC4/CyLib.c ****     /*******************************************************************************
1020:.\Generated_Source\PSoC4/CyLib.c ****     * Function Name: CySysWdtResetCounters
1021:.\Generated_Source\PSoC4/CyLib.c ****     ********************************************************************************
1022:.\Generated_Source\PSoC4/CyLib.c ****     *
1023:.\Generated_Source\PSoC4/CyLib.c ****     * Summary:
1024:.\Generated_Source\PSoC4/CyLib.c ****     *  Resets all WDT counters set in the mask.
1025:.\Generated_Source\PSoC4/CyLib.c ****     *
1026:.\Generated_Source\PSoC4/CyLib.c ****     * Parameters:
1027:.\Generated_Source\PSoC4/CyLib.c ****     *  counterMask: Mask of all counters to reset.
1028:.\Generated_Source\PSoC4/CyLib.c ****     *   Define                       Counter
1029:.\Generated_Source\PSoC4/CyLib.c ****     *   CY_SYS_WDT_COUNTER0_RESET    0
1030:.\Generated_Source\PSoC4/CyLib.c ****     *   CY_SYS_WDT_COUNTER1_RESET    1
1031:.\Generated_Source\PSoC4/CyLib.c ****     *   CY_SYS_WDT_COUNTER2_RESET    2
1032:.\Generated_Source\PSoC4/CyLib.c ****     *
1033:.\Generated_Source\PSoC4/CyLib.c ****     * Return:
1034:.\Generated_Source\PSoC4/CyLib.c ****     *   None
1035:.\Generated_Source\PSoC4/CyLib.c ****     *
1036:.\Generated_Source\PSoC4/CyLib.c ****     * Side effects:
1037:.\Generated_Source\PSoC4/CyLib.c ****     *   This API enables ILO, if it was disabled, this API call will not reset
1038:.\Generated_Source\PSoC4/CyLib.c ****     *   counter values, if Watchdog is locked.
1039:.\Generated_Source\PSoC4/CyLib.c ****     *
1040:.\Generated_Source\PSoC4/CyLib.c ****     *******************************************************************************/
1041:.\Generated_Source\PSoC4/CyLib.c ****     void CySysWdtResetCounters(uint32 countersMask)
1042:.\Generated_Source\PSoC4/CyLib.c ****     {
1043:.\Generated_Source\PSoC4/CyLib.c ****         /* Configuring the WDT involves passing control signals between clock domains,
1044:.\Generated_Source\PSoC4/CyLib.c ****         * which requires the ILO to be enabled.
1045:.\Generated_Source\PSoC4/CyLib.c ****         */
1046:.\Generated_Source\PSoC4/CyLib.c ****         if (0u == (CY_SYS_CLK_ILO_CONFIG_REG & CY_SYS_CLK_ILO_CONFIG_ENABLE))
1047:.\Generated_Source\PSoC4/CyLib.c ****         {
1048:.\Generated_Source\PSoC4/CyLib.c ****             CySysClkIloStart();
1049:.\Generated_Source\PSoC4/CyLib.c ****         }
1050:.\Generated_Source\PSoC4/CyLib.c **** 
1051:.\Generated_Source\PSoC4/CyLib.c ****         /* Set the new WDT reset value */
1052:.\Generated_Source\PSoC4/CyLib.c ****         CY_SYS_WDT_CONTROL_REG |= (countersMask & (CY_SYS_WDT_COUNTER0_RESET |
1053:.\Generated_Source\PSoC4/CyLib.c ****             CY_SYS_WDT_COUNTER1_RESET | CY_SYS_WDT_COUNTER2_RESET));
1054:.\Generated_Source\PSoC4/CyLib.c ****     }
1055:.\Generated_Source\PSoC4/CyLib.c **** 
1056:.\Generated_Source\PSoC4/CyLib.c **** #else
1057:.\Generated_Source\PSoC4/CyLib.c **** 
1058:.\Generated_Source\PSoC4/CyLib.c ****     /*******************************************************************************
1059:.\Generated_Source\PSoC4/CyLib.c ****     * Function Name: CySysClkWriteImoFreq
1060:.\Generated_Source\PSoC4/CyLib.c ****     ********************************************************************************
1061:.\Generated_Source\PSoC4/CyLib.c ****     *
1062:.\Generated_Source\PSoC4/CyLib.c ****     * Summary:
ARM GAS  C:\Users\Steve\AppData\Local\Temp\ccc4U1xk.s 			page 26


1063:.\Generated_Source\PSoC4/CyLib.c ****     *  Sets the frequency of the IMO.
1064:.\Generated_Source\PSoC4/CyLib.c ****     *
1065:.\Generated_Source\PSoC4/CyLib.c ****     * Parameters:
1066:.\Generated_Source\PSoC4/CyLib.c ****     *  freq: Valid range [24-48] with step size equal to 4.
1067:.\Generated_Source\PSoC4/CyLib.c ****     *        Frequency for operation of the IMO.
1068:.\Generated_Source\PSoC4/CyLib.c ****     *  Note: Invalid frequency will be ignored.
1069:.\Generated_Source\PSoC4/CyLib.c ****     *
1070:.\Generated_Source\PSoC4/CyLib.c ****     * Return:
1071:.\Generated_Source\PSoC4/CyLib.c ****     *  None
1072:.\Generated_Source\PSoC4/CyLib.c ****     *
1073:.\Generated_Source\PSoC4/CyLib.c ****     * Side Effects:
1074:.\Generated_Source\PSoC4/CyLib.c ****     *  If the SYSCLK clock frequency increases during device operation, call
1075:.\Generated_Source\PSoC4/CyLib.c ****     *  CySysFlashSetWaitCycles() with the appropriate parameter to adjust the number
1076:.\Generated_Source\PSoC4/CyLib.c ****     *  of clock cycles cache will wait before sampling data coming back from Flash.
1077:.\Generated_Source\PSoC4/CyLib.c ****     *  If the SYSCLK clock frequency decreases, you can call CyFlash_SetWaitCycles()
1078:.\Generated_Source\PSoC4/CyLib.c ****     *  to improve CPU performance. See CySysFlashSetWaitCycles() for more
1079:.\Generated_Source\PSoC4/CyLib.c ****     *  information.
1080:.\Generated_Source\PSoC4/CyLib.c ****     *
1081:.\Generated_Source\PSoC4/CyLib.c ****     *******************************************************************************/
1082:.\Generated_Source\PSoC4/CyLib.c ****     void CySysClkWriteImoFreq(uint32 freq)
1083:.\Generated_Source\PSoC4/CyLib.c ****     {
1084:.\Generated_Source\PSoC4/CyLib.c ****         uint8  interruptState;
1085:.\Generated_Source\PSoC4/CyLib.c **** 
1086:.\Generated_Source\PSoC4/CyLib.c ****         /* IMO frequency constrained to 24MHz-48MHz */
1087:.\Generated_Source\PSoC4/CyLib.c ****         if ((freq >= CY_SYS_CLK_IMO_MIN_FREQ_MHZ) &&
1088:.\Generated_Source\PSoC4/CyLib.c ****             (freq <= CY_SYS_CLK_IMO_MAX_FREQ_MHZ) &&
1089:.\Generated_Source\PSoC4/CyLib.c ****             ((freq & 3u) == 0u))
1090:.\Generated_Source\PSoC4/CyLib.c ****         {
1091:.\Generated_Source\PSoC4/CyLib.c ****             interruptState = CyEnterCriticalSection();
1092:.\Generated_Source\PSoC4/CyLib.c **** 
1093:.\Generated_Source\PSoC4/CyLib.c ****             CY_SYS_CLK_IMO_TRIM1_REG = 0u;
1094:.\Generated_Source\PSoC4/CyLib.c ****             CY_SYS_CLK_IMO_TRIM2_REG = 0u;
1095:.\Generated_Source\PSoC4/CyLib.c ****             CY_SYS_CLK_IMO_SELECT_REG = (freq - CY_SYS_CLK_IMO_MIN_FREQ_MHZ) >> 2u;
1096:.\Generated_Source\PSoC4/CyLib.c ****             CY_SYS_CLK_IMO_TRIM3_REG = CY_SFLASH_IMO_TCTRIM_REG(freq - CY_SYS_CLK_IMO_MIN_FREQ_MHZ)
1097:.\Generated_Source\PSoC4/CyLib.c ****             CY_SYS_CLK_IMO_TRIM1_REG = CY_SFLASH_IMO_TRIM_REG(freq - CY_SYS_CLK_IMO_MIN_FREQ_MHZ);
1098:.\Generated_Source\PSoC4/CyLib.c **** 
1099:.\Generated_Source\PSoC4/CyLib.c ****             CyExitCriticalSection(interruptState);
1100:.\Generated_Source\PSoC4/CyLib.c ****         }
1101:.\Generated_Source\PSoC4/CyLib.c ****         else
1102:.\Generated_Source\PSoC4/CyLib.c ****         {
1103:.\Generated_Source\PSoC4/CyLib.c ****             /* Halt CPU in debug mode if new frequency is invalid */
1104:.\Generated_Source\PSoC4/CyLib.c ****             CYASSERT(0u != 0u);
1105:.\Generated_Source\PSoC4/CyLib.c ****         }
1106:.\Generated_Source\PSoC4/CyLib.c ****     }
1107:.\Generated_Source\PSoC4/CyLib.c **** 
1108:.\Generated_Source\PSoC4/CyLib.c **** 
1109:.\Generated_Source\PSoC4/CyLib.c ****     /*******************************************************************************
1110:.\Generated_Source\PSoC4/CyLib.c ****     * Function Name: CySysWdtReadEnabledStatus
1111:.\Generated_Source\PSoC4/CyLib.c ****     ********************************************************************************
1112:.\Generated_Source\PSoC4/CyLib.c ****     *
1113:.\Generated_Source\PSoC4/CyLib.c ****     * Summary:
1114:.\Generated_Source\PSoC4/CyLib.c ****     *  Reads the enabled staus WDT counter.
1115:.\Generated_Source\PSoC4/CyLib.c ****     *
1116:.\Generated_Source\PSoC4/CyLib.c ****     * Parameters:
1117:.\Generated_Source\PSoC4/CyLib.c ****     *  None
1118:.\Generated_Source\PSoC4/CyLib.c ****     *
1119:.\Generated_Source\PSoC4/CyLib.c ****     * Return:
ARM GAS  C:\Users\Steve\AppData\Local\Temp\ccc4U1xk.s 			page 27


1120:.\Generated_Source\PSoC4/CyLib.c ****     *  Status of WDT counter:
1121:.\Generated_Source\PSoC4/CyLib.c ****     *   0 - counter is disabled
1122:.\Generated_Source\PSoC4/CyLib.c ****     *   1 - counter is enabled
1123:.\Generated_Source\PSoC4/CyLib.c ****     *
1124:.\Generated_Source\PSoC4/CyLib.c ****     * Side Effects:
1125:.\Generated_Source\PSoC4/CyLib.c ****     *  None
1126:.\Generated_Source\PSoC4/CyLib.c ****     *
1127:.\Generated_Source\PSoC4/CyLib.c ****     *******************************************************************************/
1128:.\Generated_Source\PSoC4/CyLib.c ****     uint32 CySysWdtReadEnabledStatus(void)
1129:.\Generated_Source\PSoC4/CyLib.c ****     {
1130:.\Generated_Source\PSoC4/CyLib.c ****         return ((CY_SYS_WDT_DISABLE_KEY_REG == CY_SYS_WDT_KEY) ? 0u : 1u);
1131:.\Generated_Source\PSoC4/CyLib.c ****     }
1132:.\Generated_Source\PSoC4/CyLib.c **** 
1133:.\Generated_Source\PSoC4/CyLib.c **** 
1134:.\Generated_Source\PSoC4/CyLib.c ****     /*******************************************************************************
1135:.\Generated_Source\PSoC4/CyLib.c ****     * Function Name: CySysWdtEnable
1136:.\Generated_Source\PSoC4/CyLib.c ****     ********************************************************************************
1137:.\Generated_Source\PSoC4/CyLib.c ****     *
1138:.\Generated_Source\PSoC4/CyLib.c ****     * Summary:
1139:.\Generated_Source\PSoC4/CyLib.c ****     *  Enables the WDT counter.
1140:.\Generated_Source\PSoC4/CyLib.c ****     *
1141:.\Generated_Source\PSoC4/CyLib.c ****     * Parameters:
1142:.\Generated_Source\PSoC4/CyLib.c ****     *  None
1143:.\Generated_Source\PSoC4/CyLib.c ****     *
1144:.\Generated_Source\PSoC4/CyLib.c ****     * Return:
1145:.\Generated_Source\PSoC4/CyLib.c ****     *  None
1146:.\Generated_Source\PSoC4/CyLib.c ****     *
1147:.\Generated_Source\PSoC4/CyLib.c ****     * Side Effects:
1148:.\Generated_Source\PSoC4/CyLib.c ****     *  This API enables ILO, if it was disabled.
1149:.\Generated_Source\PSoC4/CyLib.c ****     *
1150:.\Generated_Source\PSoC4/CyLib.c ****     *******************************************************************************/
1151:.\Generated_Source\PSoC4/CyLib.c ****     void CySysWdtEnable(void)
1152:.\Generated_Source\PSoC4/CyLib.c ****     {
1153:.\Generated_Source\PSoC4/CyLib.c ****         /* Configuring the WDT involves passing control signals between clock domains,
1154:.\Generated_Source\PSoC4/CyLib.c ****         * which requires the ILO to be enabled.
1155:.\Generated_Source\PSoC4/CyLib.c ****         */
1156:.\Generated_Source\PSoC4/CyLib.c ****         if (0u == (CY_SYS_CLK_ILO_CONFIG_REG & CY_SYS_CLK_ILO_CONFIG_ENABLE))
1157:.\Generated_Source\PSoC4/CyLib.c ****         {
1158:.\Generated_Source\PSoC4/CyLib.c ****             CySysClkIloStart();
1159:.\Generated_Source\PSoC4/CyLib.c ****         }
1160:.\Generated_Source\PSoC4/CyLib.c **** 
1161:.\Generated_Source\PSoC4/CyLib.c ****         CY_SYS_WDT_DISABLE_KEY_REG = 0u;
1162:.\Generated_Source\PSoC4/CyLib.c ****     }
1163:.\Generated_Source\PSoC4/CyLib.c **** 
1164:.\Generated_Source\PSoC4/CyLib.c **** 
1165:.\Generated_Source\PSoC4/CyLib.c ****     /*******************************************************************************
1166:.\Generated_Source\PSoC4/CyLib.c ****     * Function Name: CySysWdtDisable
1167:.\Generated_Source\PSoC4/CyLib.c ****     ********************************************************************************
1168:.\Generated_Source\PSoC4/CyLib.c ****     *
1169:.\Generated_Source\PSoC4/CyLib.c ****     * Summary:
1170:.\Generated_Source\PSoC4/CyLib.c ****     *  Disables the WDT counter.
1171:.\Generated_Source\PSoC4/CyLib.c ****     *
1172:.\Generated_Source\PSoC4/CyLib.c ****     * Parameters:
1173:.\Generated_Source\PSoC4/CyLib.c ****     *  None
1174:.\Generated_Source\PSoC4/CyLib.c ****     *
1175:.\Generated_Source\PSoC4/CyLib.c ****     * Return:
1176:.\Generated_Source\PSoC4/CyLib.c ****     *  None
ARM GAS  C:\Users\Steve\AppData\Local\Temp\ccc4U1xk.s 			page 28


1177:.\Generated_Source\PSoC4/CyLib.c ****     *
1178:.\Generated_Source\PSoC4/CyLib.c ****     * Side Effects:
1179:.\Generated_Source\PSoC4/CyLib.c ****     *  In order to disable ILO clock WDT counter should be disabled.
1180:.\Generated_Source\PSoC4/CyLib.c ****     *
1181:.\Generated_Source\PSoC4/CyLib.c ****     *******************************************************************************/
1182:.\Generated_Source\PSoC4/CyLib.c ****     void CySysWdtDisable(void)
1183:.\Generated_Source\PSoC4/CyLib.c ****     {
1184:.\Generated_Source\PSoC4/CyLib.c ****         CY_SYS_WDT_DISABLE_KEY_REG = CY_SYS_WDT_KEY;
1185:.\Generated_Source\PSoC4/CyLib.c ****     }
1186:.\Generated_Source\PSoC4/CyLib.c **** 
1187:.\Generated_Source\PSoC4/CyLib.c **** 
1188:.\Generated_Source\PSoC4/CyLib.c ****     /*******************************************************************************
1189:.\Generated_Source\PSoC4/CyLib.c ****     * Function Name: CySysWdtWriteMatch
1190:.\Generated_Source\PSoC4/CyLib.c ****     ********************************************************************************
1191:.\Generated_Source\PSoC4/CyLib.c ****     *
1192:.\Generated_Source\PSoC4/CyLib.c ****     * Summary:
1193:.\Generated_Source\PSoC4/CyLib.c ****     *  Configures the WDT counter match comparison value.
1194:.\Generated_Source\PSoC4/CyLib.c ****     *
1195:.\Generated_Source\PSoC4/CyLib.c ****     * Parameters:
1196:.\Generated_Source\PSoC4/CyLib.c ****     *  match:
1197:.\Generated_Source\PSoC4/CyLib.c ****     *   Valid range [0-65535]. Value to be used to match against the counter.
1198:.\Generated_Source\PSoC4/CyLib.c ****     *
1199:.\Generated_Source\PSoC4/CyLib.c ****     * Return:
1200:.\Generated_Source\PSoC4/CyLib.c ****     *  None
1201:.\Generated_Source\PSoC4/CyLib.c ****     *
1202:.\Generated_Source\PSoC4/CyLib.c ****     * Side Effects:
1203:.\Generated_Source\PSoC4/CyLib.c ****     *  This API enables ILO, if it was disabled.
1204:.\Generated_Source\PSoC4/CyLib.c ****     *
1205:.\Generated_Source\PSoC4/CyLib.c ****     *******************************************************************************/
1206:.\Generated_Source\PSoC4/CyLib.c ****     void CySysWdtWriteMatch(uint32 match)
1207:.\Generated_Source\PSoC4/CyLib.c ****     {
1208:.\Generated_Source\PSoC4/CyLib.c ****         /* Configuring the WDT involves passing control signals between clock domains,
1209:.\Generated_Source\PSoC4/CyLib.c ****         * which requires the ILO to be enabled.
1210:.\Generated_Source\PSoC4/CyLib.c ****         */
1211:.\Generated_Source\PSoC4/CyLib.c ****         if (0u == (CY_SYS_CLK_ILO_CONFIG_REG & CY_SYS_CLK_ILO_CONFIG_ENABLE))
1212:.\Generated_Source\PSoC4/CyLib.c ****         {
1213:.\Generated_Source\PSoC4/CyLib.c ****             CySysClkIloStart();
1214:.\Generated_Source\PSoC4/CyLib.c ****         }
1215:.\Generated_Source\PSoC4/CyLib.c **** 
1216:.\Generated_Source\PSoC4/CyLib.c ****         CY_SYS_WDT_MATCH_REG = (CY_SYS_WDT_MATCH_REG & (uint32)(~CY_SYS_WDT_MATCH_MASK)) | match;
1217:.\Generated_Source\PSoC4/CyLib.c ****     }
1218:.\Generated_Source\PSoC4/CyLib.c **** 
1219:.\Generated_Source\PSoC4/CyLib.c **** 
1220:.\Generated_Source\PSoC4/CyLib.c ****     /*******************************************************************************
1221:.\Generated_Source\PSoC4/CyLib.c ****     * Function Name: CySysWdtReadMatch
1222:.\Generated_Source\PSoC4/CyLib.c ****     ********************************************************************************
1223:.\Generated_Source\PSoC4/CyLib.c ****     *
1224:.\Generated_Source\PSoC4/CyLib.c ****     * Summary:
1225:.\Generated_Source\PSoC4/CyLib.c ****     *  Reads the WDT counter match comparison value.
1226:.\Generated_Source\PSoC4/CyLib.c ****     *
1227:.\Generated_Source\PSoC4/CyLib.c ****     * Parameters:
1228:.\Generated_Source\PSoC4/CyLib.c ****     *  None
1229:.\Generated_Source\PSoC4/CyLib.c ****     *
1230:.\Generated_Source\PSoC4/CyLib.c ****     * Return:
1231:.\Generated_Source\PSoC4/CyLib.c ****     *  Counter match value
1232:.\Generated_Source\PSoC4/CyLib.c ****     *
1233:.\Generated_Source\PSoC4/CyLib.c ****     * Side Effects:
ARM GAS  C:\Users\Steve\AppData\Local\Temp\ccc4U1xk.s 			page 29


1234:.\Generated_Source\PSoC4/CyLib.c ****     *  None
1235:.\Generated_Source\PSoC4/CyLib.c ****     *
1236:.\Generated_Source\PSoC4/CyLib.c ****     *******************************************************************************/
1237:.\Generated_Source\PSoC4/CyLib.c ****     uint32 CySysWdtReadMatch(void)
1238:.\Generated_Source\PSoC4/CyLib.c ****     {
1239:.\Generated_Source\PSoC4/CyLib.c ****         return (CY_SYS_WDT_MATCH_REG & CY_SYS_WDT_MATCH_MASK);
1240:.\Generated_Source\PSoC4/CyLib.c ****     }
1241:.\Generated_Source\PSoC4/CyLib.c **** 
1242:.\Generated_Source\PSoC4/CyLib.c **** 
1243:.\Generated_Source\PSoC4/CyLib.c ****     /*******************************************************************************
1244:.\Generated_Source\PSoC4/CyLib.c ****     * Function Name: CySysWdtReadCount
1245:.\Generated_Source\PSoC4/CyLib.c ****     ********************************************************************************
1246:.\Generated_Source\PSoC4/CyLib.c ****     *
1247:.\Generated_Source\PSoC4/CyLib.c ****     * Summary:
1248:.\Generated_Source\PSoC4/CyLib.c ****     *  Reads the current WDT counter value.
1249:.\Generated_Source\PSoC4/CyLib.c ****     *
1250:.\Generated_Source\PSoC4/CyLib.c ****     * Parameters:
1251:.\Generated_Source\PSoC4/CyLib.c ****     *  None
1252:.\Generated_Source\PSoC4/CyLib.c ****     *
1253:.\Generated_Source\PSoC4/CyLib.c ****     * Return:
1254:.\Generated_Source\PSoC4/CyLib.c ****     *  Live counter value
1255:.\Generated_Source\PSoC4/CyLib.c ****     *
1256:.\Generated_Source\PSoC4/CyLib.c ****     * Side Effects:
1257:.\Generated_Source\PSoC4/CyLib.c ****     *  None
1258:.\Generated_Source\PSoC4/CyLib.c ****     *
1259:.\Generated_Source\PSoC4/CyLib.c ****     *******************************************************************************/
1260:.\Generated_Source\PSoC4/CyLib.c ****     uint32 CySysWdtReadCount(void)
1261:.\Generated_Source\PSoC4/CyLib.c ****     {
1262:.\Generated_Source\PSoC4/CyLib.c ****         return ((uint32)CY_SYS_WDT_COUNTER_REG);
1263:.\Generated_Source\PSoC4/CyLib.c ****     }
1264:.\Generated_Source\PSoC4/CyLib.c **** 
1265:.\Generated_Source\PSoC4/CyLib.c **** 
1266:.\Generated_Source\PSoC4/CyLib.c ****     /*******************************************************************************
1267:.\Generated_Source\PSoC4/CyLib.c ****     * Function Name: CySysWdtWriteIgnoreBits
1268:.\Generated_Source\PSoC4/CyLib.c ****     ********************************************************************************
1269:.\Generated_Source\PSoC4/CyLib.c ****     *
1270:.\Generated_Source\PSoC4/CyLib.c ****     * Summary:
1271:.\Generated_Source\PSoC4/CyLib.c ****     *  Configures the number of MSB bits of the watchdog timer that are not
1272:.\Generated_Source\PSoC4/CyLib.c ****     *  checked against match.
1273:.\Generated_Source\PSoC4/CyLib.c ****     *
1274:.\Generated_Source\PSoC4/CyLib.c ****     * Parameters:
1275:.\Generated_Source\PSoC4/CyLib.c ****     *  bitsNum:
1276:.\Generated_Source\PSoC4/CyLib.c ****     *   Valid range [0-15]. Number of MSB bits.
1277:.\Generated_Source\PSoC4/CyLib.c ****     *
1278:.\Generated_Source\PSoC4/CyLib.c ****     * Return:
1279:.\Generated_Source\PSoC4/CyLib.c ****     *  None
1280:.\Generated_Source\PSoC4/CyLib.c ****     *
1281:.\Generated_Source\PSoC4/CyLib.c ****     * Side Effects:
1282:.\Generated_Source\PSoC4/CyLib.c ****     *  The value of bitsNum provides control over the time-to-reset of the watchdog
1283:.\Generated_Source\PSoC4/CyLib.c ****     *  (which happens after 3 successive matches).
1284:.\Generated_Source\PSoC4/CyLib.c ****     *
1285:.\Generated_Source\PSoC4/CyLib.c ****     *******************************************************************************/
1286:.\Generated_Source\PSoC4/CyLib.c ****     void CySysWdtWriteIgnoreBits(uint32 bitsNum)
1287:.\Generated_Source\PSoC4/CyLib.c ****     {
1288:.\Generated_Source\PSoC4/CyLib.c ****         bitsNum = ((uint32)(bitsNum << 16u) & CY_SYS_WDT_IGNORE_BITS_MASK);
1289:.\Generated_Source\PSoC4/CyLib.c ****         CY_SYS_WDT_MATCH_REG = (CY_SYS_WDT_MATCH_REG & (uint32)(~CY_SYS_WDT_IGNORE_BITS_MASK)) | bi
1290:.\Generated_Source\PSoC4/CyLib.c ****     }
ARM GAS  C:\Users\Steve\AppData\Local\Temp\ccc4U1xk.s 			page 30


1291:.\Generated_Source\PSoC4/CyLib.c **** 
1292:.\Generated_Source\PSoC4/CyLib.c **** 
1293:.\Generated_Source\PSoC4/CyLib.c ****     /*******************************************************************************
1294:.\Generated_Source\PSoC4/CyLib.c ****     * Function Name: CySysWdtReadIgnoreBits
1295:.\Generated_Source\PSoC4/CyLib.c ****     ********************************************************************************
1296:.\Generated_Source\PSoC4/CyLib.c ****     *
1297:.\Generated_Source\PSoC4/CyLib.c ****     * Summary:
1298:.\Generated_Source\PSoC4/CyLib.c ****     *  Reads the number of MSB bits of the watchdog timer that are not
1299:.\Generated_Source\PSoC4/CyLib.c ****     *  checked against match.
1300:.\Generated_Source\PSoC4/CyLib.c ****     *
1301:.\Generated_Source\PSoC4/CyLib.c ****     * Parameters:
1302:.\Generated_Source\PSoC4/CyLib.c ****     *  None
1303:.\Generated_Source\PSoC4/CyLib.c ****     *
1304:.\Generated_Source\PSoC4/CyLib.c ****     * Return:
1305:.\Generated_Source\PSoC4/CyLib.c ****     *  Number of MSB bits.
1306:.\Generated_Source\PSoC4/CyLib.c ****     *
1307:.\Generated_Source\PSoC4/CyLib.c ****     * Side Effects:
1308:.\Generated_Source\PSoC4/CyLib.c ****     *  None
1309:.\Generated_Source\PSoC4/CyLib.c ****     *
1310:.\Generated_Source\PSoC4/CyLib.c ****     *******************************************************************************/
1311:.\Generated_Source\PSoC4/CyLib.c ****     uint32 CySysWdtReadIgnoreBits(void)
1312:.\Generated_Source\PSoC4/CyLib.c ****     {
1313:.\Generated_Source\PSoC4/CyLib.c ****         return((uint32)(CY_SYS_WDT_MATCH_REG  >> 16u) & CY_SYS_WDT_IGNORE_BITS_MASK);
1314:.\Generated_Source\PSoC4/CyLib.c ****     }
1315:.\Generated_Source\PSoC4/CyLib.c **** 
1316:.\Generated_Source\PSoC4/CyLib.c **** 
1317:.\Generated_Source\PSoC4/CyLib.c ****     /*******************************************************************************
1318:.\Generated_Source\PSoC4/CyLib.c ****     * Function Name: CySysWdtClearInterrupt
1319:.\Generated_Source\PSoC4/CyLib.c ****     ********************************************************************************
1320:.\Generated_Source\PSoC4/CyLib.c ****     *
1321:.\Generated_Source\PSoC4/CyLib.c ****     * Summary:
1322:.\Generated_Source\PSoC4/CyLib.c ****     *  Cleans WDT match flag, which is set every time WDT counter reaches WDT match
1323:.\Generated_Source\PSoC4/CyLib.c ****     *  value.
1324:.\Generated_Source\PSoC4/CyLib.c ****     *
1325:.\Generated_Source\PSoC4/CyLib.c ****     * Parameters:
1326:.\Generated_Source\PSoC4/CyLib.c ****     *  None
1327:.\Generated_Source\PSoC4/CyLib.c ****     *
1328:.\Generated_Source\PSoC4/CyLib.c ****     * Return:
1329:.\Generated_Source\PSoC4/CyLib.c ****     *  None
1330:.\Generated_Source\PSoC4/CyLib.c ****     *
1331:.\Generated_Source\PSoC4/CyLib.c ****     * Side Effects:
1332:.\Generated_Source\PSoC4/CyLib.c ****     *  Clearing this bit also feeds the watch dog.  Missing 2 interrupts in a row
1333:.\Generated_Source\PSoC4/CyLib.c ****     *  will generate brown-out reset.
1334:.\Generated_Source\PSoC4/CyLib.c ****     *
1335:.\Generated_Source\PSoC4/CyLib.c ****     *******************************************************************************/
1336:.\Generated_Source\PSoC4/CyLib.c ****     void CySysWdtClearInterrupt(void)
1337:.\Generated_Source\PSoC4/CyLib.c ****     {
1338:.\Generated_Source\PSoC4/CyLib.c ****         CY_SYS_SRSS_INTR_REG |= CY_SYS_WDT_LOWER_BIT_MASK;
1339:.\Generated_Source\PSoC4/CyLib.c ****     }
1340:.\Generated_Source\PSoC4/CyLib.c **** 
1341:.\Generated_Source\PSoC4/CyLib.c **** 
1342:.\Generated_Source\PSoC4/CyLib.c ****     /*******************************************************************************
1343:.\Generated_Source\PSoC4/CyLib.c ****     * Function Name: CySysWdtMaskInterrupt
1344:.\Generated_Source\PSoC4/CyLib.c ****     ********************************************************************************
1345:.\Generated_Source\PSoC4/CyLib.c ****     *
1346:.\Generated_Source\PSoC4/CyLib.c ****     * Summary:
1347:.\Generated_Source\PSoC4/CyLib.c ****     *  After masking interrupts from WDT, they are not passed to CPU.
ARM GAS  C:\Users\Steve\AppData\Local\Temp\ccc4U1xk.s 			page 31


1348:.\Generated_Source\PSoC4/CyLib.c ****     *
1349:.\Generated_Source\PSoC4/CyLib.c ****     * Parameters:
1350:.\Generated_Source\PSoC4/CyLib.c ****     *  None
1351:.\Generated_Source\PSoC4/CyLib.c ****     *
1352:.\Generated_Source\PSoC4/CyLib.c ****     * Return:
1353:.\Generated_Source\PSoC4/CyLib.c ****     *  None
1354:.\Generated_Source\PSoC4/CyLib.c ****     *
1355:.\Generated_Source\PSoC4/CyLib.c ****     * Side Effects:
1356:.\Generated_Source\PSoC4/CyLib.c ****     *  This API does notdisable the WDT reset generation on 2 missed interrupts.
1357:.\Generated_Source\PSoC4/CyLib.c ****     *
1358:.\Generated_Source\PSoC4/CyLib.c ****     *******************************************************************************/
1359:.\Generated_Source\PSoC4/CyLib.c ****     void CySysWdtMaskInterrupt(void)
1360:.\Generated_Source\PSoC4/CyLib.c ****     {
1361:.\Generated_Source\PSoC4/CyLib.c ****         CY_SYS_SRSS_INTR_MASK_REG &= (uint32)(~CY_SYS_WDT_LOWER_BIT_MASK);
1362:.\Generated_Source\PSoC4/CyLib.c ****     }
1363:.\Generated_Source\PSoC4/CyLib.c **** 
1364:.\Generated_Source\PSoC4/CyLib.c **** 
1365:.\Generated_Source\PSoC4/CyLib.c ****     /*******************************************************************************
1366:.\Generated_Source\PSoC4/CyLib.c ****     * Function Name: CySysWdtUnmaskInterrupt
1367:.\Generated_Source\PSoC4/CyLib.c ****     ********************************************************************************
1368:.\Generated_Source\PSoC4/CyLib.c ****     *
1369:.\Generated_Source\PSoC4/CyLib.c ****     * Summary:
1370:.\Generated_Source\PSoC4/CyLib.c ****     *  Unmasks WDT interrupts.
1371:.\Generated_Source\PSoC4/CyLib.c ****     *
1372:.\Generated_Source\PSoC4/CyLib.c ****     * Parameters:
1373:.\Generated_Source\PSoC4/CyLib.c ****     *  None
1374:.\Generated_Source\PSoC4/CyLib.c ****     *
1375:.\Generated_Source\PSoC4/CyLib.c ****     * Return:
1376:.\Generated_Source\PSoC4/CyLib.c ****     *  None
1377:.\Generated_Source\PSoC4/CyLib.c ****     *
1378:.\Generated_Source\PSoC4/CyLib.c ****     * Side Effects:
1379:.\Generated_Source\PSoC4/CyLib.c ****     *  None
1380:.\Generated_Source\PSoC4/CyLib.c ****     *
1381:.\Generated_Source\PSoC4/CyLib.c ****     *******************************************************************************/
1382:.\Generated_Source\PSoC4/CyLib.c ****     void CySysWdtUnmaskInterrupt(void)
1383:.\Generated_Source\PSoC4/CyLib.c ****     {
1384:.\Generated_Source\PSoC4/CyLib.c ****         CY_SYS_SRSS_INTR_MASK_REG |= CY_SYS_WDT_LOWER_BIT_MASK;
1385:.\Generated_Source\PSoC4/CyLib.c ****     }
1386:.\Generated_Source\PSoC4/CyLib.c **** 
1387:.\Generated_Source\PSoC4/CyLib.c **** #endif /* (CY_PSOC4A) */
1388:.\Generated_Source\PSoC4/CyLib.c **** 
1389:.\Generated_Source\PSoC4/CyLib.c **** 
1390:.\Generated_Source\PSoC4/CyLib.c **** #if(CY_PSOC4A)
1391:.\Generated_Source\PSoC4/CyLib.c **** 
1392:.\Generated_Source\PSoC4/CyLib.c ****     /*******************************************************************************
1393:.\Generated_Source\PSoC4/CyLib.c ****     * Function Name: CySysLvdEnable
1394:.\Generated_Source\PSoC4/CyLib.c ****     ********************************************************************************
1395:.\Generated_Source\PSoC4/CyLib.c ****     *
1396:.\Generated_Source\PSoC4/CyLib.c ****     * Summary:
1397:.\Generated_Source\PSoC4/CyLib.c ****     *  Enables the output of the low-voltage monitor when Vddd is at or below the
1398:.\Generated_Source\PSoC4/CyLib.c ****     *  trip point, configures device to generate an interrupt, and sets the voltage
1399:.\Generated_Source\PSoC4/CyLib.c ****     *  trip level.
1400:.\Generated_Source\PSoC4/CyLib.c ****     *
1401:.\Generated_Source\PSoC4/CyLib.c ****     * Parameters:
1402:.\Generated_Source\PSoC4/CyLib.c ****     *  threshold: Threshold selection for Low Voltage Detect circuit.
1403:.\Generated_Source\PSoC4/CyLib.c ****     *  Threshold variation is +/- 2.5% from these typical voltage choices.
1404:.\Generated_Source\PSoC4/CyLib.c ****     *         Define                     Voltage threshold
ARM GAS  C:\Users\Steve\AppData\Local\Temp\ccc4U1xk.s 			page 32


1405:.\Generated_Source\PSoC4/CyLib.c ****     *    CY_LVD_THRESHOLD_1_75_V       1.7500 V
1406:.\Generated_Source\PSoC4/CyLib.c ****     *    CY_LVD_THRESHOLD_1_80_V       1.8000 V
1407:.\Generated_Source\PSoC4/CyLib.c ****     *    CY_LVD_THRESHOLD_1_90_V       1.9000 V
1408:.\Generated_Source\PSoC4/CyLib.c ****     *    CY_LVD_THRESHOLD_2_00_V       2.0000 V
1409:.\Generated_Source\PSoC4/CyLib.c ****     *    CY_LVD_THRESHOLD_2_10_V       2.1000 V
1410:.\Generated_Source\PSoC4/CyLib.c ****     *    CY_LVD_THRESHOLD_2_20_V       2.2000 V
1411:.\Generated_Source\PSoC4/CyLib.c ****     *    CY_LVD_THRESHOLD_2_30_V       2.3000 V
1412:.\Generated_Source\PSoC4/CyLib.c ****     *    CY_LVD_THRESHOLD_2_40_V       2.4000 V
1413:.\Generated_Source\PSoC4/CyLib.c ****     *    CY_LVD_THRESHOLD_2_50_V       2.5000 V
1414:.\Generated_Source\PSoC4/CyLib.c ****     *    CY_LVD_THRESHOLD_2_60_V       2.6000 V
1415:.\Generated_Source\PSoC4/CyLib.c ****     *    CY_LVD_THRESHOLD_2_70_V       2.7000 V
1416:.\Generated_Source\PSoC4/CyLib.c ****     *    CY_LVD_THRESHOLD_2_80_V       2.8000 V
1417:.\Generated_Source\PSoC4/CyLib.c ****     *    CY_LVD_THRESHOLD_2_90_V       2.9000 V
1418:.\Generated_Source\PSoC4/CyLib.c ****     *    CY_LVD_THRESHOLD_3_00_V       3.0000 V
1419:.\Generated_Source\PSoC4/CyLib.c ****     *    CY_LVD_THRESHOLD_3_20_V       3.2000 V
1420:.\Generated_Source\PSoC4/CyLib.c ****     *    CY_LVD_THRESHOLD_4_50_V       4.5000 V
1421:.\Generated_Source\PSoC4/CyLib.c ****     *
1422:.\Generated_Source\PSoC4/CyLib.c ****     * Return:
1423:.\Generated_Source\PSoC4/CyLib.c ****     *  None
1424:.\Generated_Source\PSoC4/CyLib.c ****     *
1425:.\Generated_Source\PSoC4/CyLib.c ****     *******************************************************************************/
1426:.\Generated_Source\PSoC4/CyLib.c ****     void CySysLvdEnable(uint32 threshold)
1427:.\Generated_Source\PSoC4/CyLib.c ****     {
1428:.\Generated_Source\PSoC4/CyLib.c ****         /* Set threshold */
1429:.\Generated_Source\PSoC4/CyLib.c ****         CY_LVD_PWR_VMON_CONFIG_REG = (CY_LVD_PWR_VMON_CONFIG_REG & ~CY_LVD_PWR_VMON_CONFIG_LVD_SEL_
1430:.\Generated_Source\PSoC4/CyLib.c ****                 ((threshold << CY_LVD_PWR_VMON_CONFIG_LVD_SEL_SHIFT) & CY_LVD_PWR_VMON_CONFIG_LVD_S
1431:.\Generated_Source\PSoC4/CyLib.c **** 
1432:.\Generated_Source\PSoC4/CyLib.c ****         CY_LVD_PWR_VMON_CONFIG_REG |= CY_LVD_PWR_VMON_CONFIG_LVD_EN;
1433:.\Generated_Source\PSoC4/CyLib.c ****         CY_LVD_PWR_INTR_MASK_REG   |= CY_LVD_PROPAGATE_INT_TO_CPU;
1434:.\Generated_Source\PSoC4/CyLib.c ****     }
1435:.\Generated_Source\PSoC4/CyLib.c **** 
1436:.\Generated_Source\PSoC4/CyLib.c **** 
1437:.\Generated_Source\PSoC4/CyLib.c ****     /*******************************************************************************
1438:.\Generated_Source\PSoC4/CyLib.c ****     * Function Name: CySysLvdDisable
1439:.\Generated_Source\PSoC4/CyLib.c ****     ********************************************************************************
1440:.\Generated_Source\PSoC4/CyLib.c ****     *
1441:.\Generated_Source\PSoC4/CyLib.c ****     * Summary:
1442:.\Generated_Source\PSoC4/CyLib.c ****     *  Disables the low voltage detection. Low voltage interrupt is disabled.
1443:.\Generated_Source\PSoC4/CyLib.c ****     *
1444:.\Generated_Source\PSoC4/CyLib.c ****     * Parameters:
1445:.\Generated_Source\PSoC4/CyLib.c ****     *  None
1446:.\Generated_Source\PSoC4/CyLib.c ****     *
1447:.\Generated_Source\PSoC4/CyLib.c ****     * Return:
1448:.\Generated_Source\PSoC4/CyLib.c ****     *  None
1449:.\Generated_Source\PSoC4/CyLib.c ****     *
1450:.\Generated_Source\PSoC4/CyLib.c ****     *******************************************************************************/
1451:.\Generated_Source\PSoC4/CyLib.c ****     void CySysLvdDisable(void)
1452:.\Generated_Source\PSoC4/CyLib.c ****     {
1453:.\Generated_Source\PSoC4/CyLib.c ****         CY_LVD_PWR_INTR_MASK_REG   &= ~CY_LVD_PROPAGATE_INT_TO_CPU;
1454:.\Generated_Source\PSoC4/CyLib.c ****         CY_LVD_PWR_VMON_CONFIG_REG &= ~CY_LVD_PWR_VMON_CONFIG_LVD_EN;
1455:.\Generated_Source\PSoC4/CyLib.c ****     }
1456:.\Generated_Source\PSoC4/CyLib.c **** 
1457:.\Generated_Source\PSoC4/CyLib.c **** 
1458:.\Generated_Source\PSoC4/CyLib.c ****     /*******************************************************************************
1459:.\Generated_Source\PSoC4/CyLib.c ****     * Function Name: CySysLvdGetInterruptSource
1460:.\Generated_Source\PSoC4/CyLib.c ****     ********************************************************************************
1461:.\Generated_Source\PSoC4/CyLib.c ****     *
ARM GAS  C:\Users\Steve\AppData\Local\Temp\ccc4U1xk.s 			page 33


1462:.\Generated_Source\PSoC4/CyLib.c ****     * Summary:
1463:.\Generated_Source\PSoC4/CyLib.c ****     *  Gets the low voltage detection interrupt status (without clearing).
1464:.\Generated_Source\PSoC4/CyLib.c ****     *
1465:.\Generated_Source\PSoC4/CyLib.c ****     * Parameters:
1466:.\Generated_Source\PSoC4/CyLib.c ****     *  None
1467:.\Generated_Source\PSoC4/CyLib.c ****     *
1468:.\Generated_Source\PSoC4/CyLib.c ****     * Return:
1469:.\Generated_Source\PSoC4/CyLib.c ****     *  Interrupt request value:
1470:.\Generated_Source\PSoC4/CyLib.c ****     *    CY_SYS_LVD_INT - Indicates an Low Voltage Detect interrupt
1471:.\Generated_Source\PSoC4/CyLib.c ****     *
1472:.\Generated_Source\PSoC4/CyLib.c ****     *******************************************************************************/
1473:.\Generated_Source\PSoC4/CyLib.c ****     uint32 CySysLvdGetInterruptSource(void)
1474:.\Generated_Source\PSoC4/CyLib.c ****     {
1475:.\Generated_Source\PSoC4/CyLib.c ****         return (CY_LVD_PWR_INTR_REG & CY_SYS_LVD_INT);
1476:.\Generated_Source\PSoC4/CyLib.c ****     }
1477:.\Generated_Source\PSoC4/CyLib.c **** 
1478:.\Generated_Source\PSoC4/CyLib.c **** 
1479:.\Generated_Source\PSoC4/CyLib.c ****     /*******************************************************************************
1480:.\Generated_Source\PSoC4/CyLib.c ****     * Function Name: CySysLvdClearInterrupt
1481:.\Generated_Source\PSoC4/CyLib.c ****     ********************************************************************************
1482:.\Generated_Source\PSoC4/CyLib.c ****     *
1483:.\Generated_Source\PSoC4/CyLib.c ****     * Summary:
1484:.\Generated_Source\PSoC4/CyLib.c ****     *  Clears the low voltage detection interrupt status.
1485:.\Generated_Source\PSoC4/CyLib.c ****     *
1486:.\Generated_Source\PSoC4/CyLib.c ****     * Parameters:
1487:.\Generated_Source\PSoC4/CyLib.c ****     *  None
1488:.\Generated_Source\PSoC4/CyLib.c ****     *
1489:.\Generated_Source\PSoC4/CyLib.c ****     * Return:
1490:.\Generated_Source\PSoC4/CyLib.c ****     *  None
1491:.\Generated_Source\PSoC4/CyLib.c ****     *
1492:.\Generated_Source\PSoC4/CyLib.c ****     *******************************************************************************/
1493:.\Generated_Source\PSoC4/CyLib.c ****     void CySysLvdClearInterrupt(void)
1494:.\Generated_Source\PSoC4/CyLib.c ****     {
1495:.\Generated_Source\PSoC4/CyLib.c ****         CY_LVD_PWR_INTR_REG = CY_SYS_LVD_INT;
1496:.\Generated_Source\PSoC4/CyLib.c ****     }
1497:.\Generated_Source\PSoC4/CyLib.c **** 
1498:.\Generated_Source\PSoC4/CyLib.c **** #endif /* (CY_PSOC4A) */
1499:.\Generated_Source\PSoC4/CyLib.c **** 
1500:.\Generated_Source\PSoC4/CyLib.c **** 
1501:.\Generated_Source\PSoC4/CyLib.c **** /*******************************************************************************
1502:.\Generated_Source\PSoC4/CyLib.c **** * Function Name: CyDisableInts
1503:.\Generated_Source\PSoC4/CyLib.c **** ********************************************************************************
1504:.\Generated_Source\PSoC4/CyLib.c **** *
1505:.\Generated_Source\PSoC4/CyLib.c **** * Summary:
1506:.\Generated_Source\PSoC4/CyLib.c **** *  Disables all interrupts.
1507:.\Generated_Source\PSoC4/CyLib.c **** *
1508:.\Generated_Source\PSoC4/CyLib.c **** * Parameters:
1509:.\Generated_Source\PSoC4/CyLib.c **** *  None
1510:.\Generated_Source\PSoC4/CyLib.c **** *
1511:.\Generated_Source\PSoC4/CyLib.c **** * Return:
1512:.\Generated_Source\PSoC4/CyLib.c **** *  32 bit mask of previously enabled interrupts.
1513:.\Generated_Source\PSoC4/CyLib.c **** *
1514:.\Generated_Source\PSoC4/CyLib.c **** *******************************************************************************/
1515:.\Generated_Source\PSoC4/CyLib.c **** uint32 CyDisableInts(void)
1516:.\Generated_Source\PSoC4/CyLib.c **** {
1517:.\Generated_Source\PSoC4/CyLib.c ****     uint32 intState;
1518:.\Generated_Source\PSoC4/CyLib.c **** 
ARM GAS  C:\Users\Steve\AppData\Local\Temp\ccc4U1xk.s 			page 34


1519:.\Generated_Source\PSoC4/CyLib.c ****     /* Get the curreent interrupt state. */
1520:.\Generated_Source\PSoC4/CyLib.c ****     intState = CY_INT_CLEAR_REG;
1521:.\Generated_Source\PSoC4/CyLib.c **** 
1522:.\Generated_Source\PSoC4/CyLib.c ****     /* Disable all of the interrupts. */
1523:.\Generated_Source\PSoC4/CyLib.c ****     CY_INT_CLEAR_REG = CY_INT_CLEAR_DISABLE_ALL;
1524:.\Generated_Source\PSoC4/CyLib.c **** 
1525:.\Generated_Source\PSoC4/CyLib.c ****     return (intState);
1526:.\Generated_Source\PSoC4/CyLib.c **** }
1527:.\Generated_Source\PSoC4/CyLib.c **** 
1528:.\Generated_Source\PSoC4/CyLib.c **** 
1529:.\Generated_Source\PSoC4/CyLib.c **** /*******************************************************************************
1530:.\Generated_Source\PSoC4/CyLib.c **** * Function Name: CyEnableInts
1531:.\Generated_Source\PSoC4/CyLib.c **** ********************************************************************************
1532:.\Generated_Source\PSoC4/CyLib.c **** *
1533:.\Generated_Source\PSoC4/CyLib.c **** * Summary:
1534:.\Generated_Source\PSoC4/CyLib.c **** *  Enables interrupts to a given state.
1535:.\Generated_Source\PSoC4/CyLib.c **** *
1536:.\Generated_Source\PSoC4/CyLib.c **** * Parameters:
1537:.\Generated_Source\PSoC4/CyLib.c **** *   mask, 32 bit mask of interrupts to enable.
1538:.\Generated_Source\PSoC4/CyLib.c **** *
1539:.\Generated_Source\PSoC4/CyLib.c **** * Return:
1540:.\Generated_Source\PSoC4/CyLib.c **** *  None
1541:.\Generated_Source\PSoC4/CyLib.c **** *
1542:.\Generated_Source\PSoC4/CyLib.c **** *******************************************************************************/
1543:.\Generated_Source\PSoC4/CyLib.c **** void CyEnableInts(uint32 mask)
1544:.\Generated_Source\PSoC4/CyLib.c **** {
1545:.\Generated_Source\PSoC4/CyLib.c ****     CY_INT_ENABLE_REG = mask;
1546:.\Generated_Source\PSoC4/CyLib.c **** }
1547:.\Generated_Source\PSoC4/CyLib.c **** 
1548:.\Generated_Source\PSoC4/CyLib.c **** 
1549:.\Generated_Source\PSoC4/CyLib.c **** /*******************************************************************************
1550:.\Generated_Source\PSoC4/CyLib.c **** * Function Name: CyIntSetSysVector
1551:.\Generated_Source\PSoC4/CyLib.c **** ********************************************************************************
1552:.\Generated_Source\PSoC4/CyLib.c **** *
1553:.\Generated_Source\PSoC4/CyLib.c **** * Summary:
1554:.\Generated_Source\PSoC4/CyLib.c **** *  Sets the interrupt vector of the specified system interrupt number. These
1555:.\Generated_Source\PSoC4/CyLib.c **** *  interrupts are for SysTick, PendSV and others.
1556:.\Generated_Source\PSoC4/CyLib.c **** *
1557:.\Generated_Source\PSoC4/CyLib.c **** * Parameters:
1558:.\Generated_Source\PSoC4/CyLib.c **** *  number: Interrupt number, valid range [0-15].
1559:.\Generated_Source\PSoC4/CyLib.c **** *  address: Pointer to an interrupt service routine.
1560:.\Generated_Source\PSoC4/CyLib.c **** *
1561:.\Generated_Source\PSoC4/CyLib.c **** * Return:
1562:.\Generated_Source\PSoC4/CyLib.c **** *  The old ISR vector at this location.
1563:.\Generated_Source\PSoC4/CyLib.c **** *
1564:.\Generated_Source\PSoC4/CyLib.c **** *******************************************************************************/
1565:.\Generated_Source\PSoC4/CyLib.c **** cyisraddress CyIntSetSysVector(uint8 number, cyisraddress address)
1566:.\Generated_Source\PSoC4/CyLib.c **** {
1567:.\Generated_Source\PSoC4/CyLib.c ****     cyisraddress oldIsr;
1568:.\Generated_Source\PSoC4/CyLib.c ****     cyisraddress *ramVectorTable = (cyisraddress *) CY_INT_VECT_TABLE;
1569:.\Generated_Source\PSoC4/CyLib.c **** 
1570:.\Generated_Source\PSoC4/CyLib.c ****     CYASSERT(number < CY_INT_IRQ_BASE);
1571:.\Generated_Source\PSoC4/CyLib.c **** 
1572:.\Generated_Source\PSoC4/CyLib.c ****     /* Save old Interrupt service routine. */
1573:.\Generated_Source\PSoC4/CyLib.c ****     oldIsr = ramVectorTable[number];
1574:.\Generated_Source\PSoC4/CyLib.c **** 
1575:.\Generated_Source\PSoC4/CyLib.c ****     /* Set new Interrupt service routine. */
ARM GAS  C:\Users\Steve\AppData\Local\Temp\ccc4U1xk.s 			page 35


1576:.\Generated_Source\PSoC4/CyLib.c ****     ramVectorTable[number] = address;
1577:.\Generated_Source\PSoC4/CyLib.c **** 
1578:.\Generated_Source\PSoC4/CyLib.c ****     return(oldIsr);
1579:.\Generated_Source\PSoC4/CyLib.c **** }
1580:.\Generated_Source\PSoC4/CyLib.c **** 
1581:.\Generated_Source\PSoC4/CyLib.c **** 
1582:.\Generated_Source\PSoC4/CyLib.c **** /*******************************************************************************
1583:.\Generated_Source\PSoC4/CyLib.c **** * Function Name: CyIntGetSysVector
1584:.\Generated_Source\PSoC4/CyLib.c **** ********************************************************************************
1585:.\Generated_Source\PSoC4/CyLib.c **** *
1586:.\Generated_Source\PSoC4/CyLib.c **** * Summary:
1587:.\Generated_Source\PSoC4/CyLib.c **** *   Gets the interrupt vector of the specified system interrupt number. These
1588:.\Generated_Source\PSoC4/CyLib.c **** *   interrupts are for SysTick, PendSV and others.
1589:.\Generated_Source\PSoC4/CyLib.c **** *
1590:.\Generated_Source\PSoC4/CyLib.c **** * Parameters:
1591:.\Generated_Source\PSoC4/CyLib.c **** *   number: The interrupt number, valid range [0-15].
1592:.\Generated_Source\PSoC4/CyLib.c **** *
1593:.\Generated_Source\PSoC4/CyLib.c **** * Return:
1594:.\Generated_Source\PSoC4/CyLib.c **** *   Address of the ISR in the interrupt vector table.
1595:.\Generated_Source\PSoC4/CyLib.c **** *
1596:.\Generated_Source\PSoC4/CyLib.c **** *******************************************************************************/
1597:.\Generated_Source\PSoC4/CyLib.c **** cyisraddress CyIntGetSysVector(uint8 number)
1598:.\Generated_Source\PSoC4/CyLib.c **** {
1599:.\Generated_Source\PSoC4/CyLib.c ****     cyisraddress *ramVectorTable = (cyisraddress *) CY_INT_VECT_TABLE;
1600:.\Generated_Source\PSoC4/CyLib.c **** 
1601:.\Generated_Source\PSoC4/CyLib.c ****     CYASSERT(number < CY_INT_IRQ_BASE);
1602:.\Generated_Source\PSoC4/CyLib.c **** 
1603:.\Generated_Source\PSoC4/CyLib.c ****     return(ramVectorTable[number]);
1604:.\Generated_Source\PSoC4/CyLib.c **** }
1605:.\Generated_Source\PSoC4/CyLib.c **** 
1606:.\Generated_Source\PSoC4/CyLib.c **** 
1607:.\Generated_Source\PSoC4/CyLib.c **** /*******************************************************************************
1608:.\Generated_Source\PSoC4/CyLib.c **** * Function Name: CyIntSetVector
1609:.\Generated_Source\PSoC4/CyLib.c **** ********************************************************************************
1610:.\Generated_Source\PSoC4/CyLib.c **** *
1611:.\Generated_Source\PSoC4/CyLib.c **** * Summary:
1612:.\Generated_Source\PSoC4/CyLib.c **** *  Sets the interrupt vector of the specified interrupt number.
1613:.\Generated_Source\PSoC4/CyLib.c **** *
1614:.\Generated_Source\PSoC4/CyLib.c **** * Parameters:
1615:.\Generated_Source\PSoC4/CyLib.c **** *  number: Valid range [0-31].  Interrupt number
1616:.\Generated_Source\PSoC4/CyLib.c **** *  address: Pointer to an interrupt service routine
1617:.\Generated_Source\PSoC4/CyLib.c **** *
1618:.\Generated_Source\PSoC4/CyLib.c **** * Return:
1619:.\Generated_Source\PSoC4/CyLib.c **** *   Previous interrupt vector value.
1620:.\Generated_Source\PSoC4/CyLib.c **** *
1621:.\Generated_Source\PSoC4/CyLib.c **** *******************************************************************************/
1622:.\Generated_Source\PSoC4/CyLib.c **** cyisraddress CyIntSetVector(uint8 number, cyisraddress address)
1623:.\Generated_Source\PSoC4/CyLib.c **** {
1624:.\Generated_Source\PSoC4/CyLib.c ****     cyisraddress oldIsr;
1625:.\Generated_Source\PSoC4/CyLib.c ****     cyisraddress *ramVectorTable = (cyisraddress *) CY_INT_VECT_TABLE;
1626:.\Generated_Source\PSoC4/CyLib.c **** 
1627:.\Generated_Source\PSoC4/CyLib.c ****     CYASSERT(number < CY_NUM_INTERRUPTS);
1628:.\Generated_Source\PSoC4/CyLib.c **** 
1629:.\Generated_Source\PSoC4/CyLib.c ****     /* Save old Interrupt service routine. */
1630:.\Generated_Source\PSoC4/CyLib.c ****     oldIsr = ramVectorTable[CY_INT_IRQ_BASE + number];
1631:.\Generated_Source\PSoC4/CyLib.c **** 
1632:.\Generated_Source\PSoC4/CyLib.c ****     /* Set new Interrupt service routine. */
ARM GAS  C:\Users\Steve\AppData\Local\Temp\ccc4U1xk.s 			page 36


1633:.\Generated_Source\PSoC4/CyLib.c ****     ramVectorTable[CY_INT_IRQ_BASE + number] = address;
1634:.\Generated_Source\PSoC4/CyLib.c **** 
1635:.\Generated_Source\PSoC4/CyLib.c ****     return(oldIsr);
1636:.\Generated_Source\PSoC4/CyLib.c **** }
1637:.\Generated_Source\PSoC4/CyLib.c **** 
1638:.\Generated_Source\PSoC4/CyLib.c **** 
1639:.\Generated_Source\PSoC4/CyLib.c **** /*******************************************************************************
1640:.\Generated_Source\PSoC4/CyLib.c **** * Function Name: CyIntGetVector
1641:.\Generated_Source\PSoC4/CyLib.c **** ********************************************************************************
1642:.\Generated_Source\PSoC4/CyLib.c **** *
1643:.\Generated_Source\PSoC4/CyLib.c **** * Summary:
1644:.\Generated_Source\PSoC4/CyLib.c **** *  Gets the interrupt vector of the specified interrupt number.
1645:.\Generated_Source\PSoC4/CyLib.c **** *
1646:.\Generated_Source\PSoC4/CyLib.c **** * Parameters:
1647:.\Generated_Source\PSoC4/CyLib.c **** *  number: Valid range [0-31].  Interrupt number
1648:.\Generated_Source\PSoC4/CyLib.c **** *
1649:.\Generated_Source\PSoC4/CyLib.c **** * Return:
1650:.\Generated_Source\PSoC4/CyLib.c **** *  Address of the ISR in the interrupt vector table.
1651:.\Generated_Source\PSoC4/CyLib.c **** *
1652:.\Generated_Source\PSoC4/CyLib.c **** *******************************************************************************/
1653:.\Generated_Source\PSoC4/CyLib.c **** cyisraddress CyIntGetVector(uint8 number)
1654:.\Generated_Source\PSoC4/CyLib.c **** {
1655:.\Generated_Source\PSoC4/CyLib.c ****     cyisraddress *ramVectorTable = (cyisraddress *) CY_INT_VECT_TABLE;
1656:.\Generated_Source\PSoC4/CyLib.c **** 
1657:.\Generated_Source\PSoC4/CyLib.c ****     CYASSERT(number < CY_NUM_INTERRUPTS);
1658:.\Generated_Source\PSoC4/CyLib.c **** 
1659:.\Generated_Source\PSoC4/CyLib.c ****     return (ramVectorTable[CY_INT_IRQ_BASE + number]);
1660:.\Generated_Source\PSoC4/CyLib.c **** }
1661:.\Generated_Source\PSoC4/CyLib.c **** 
1662:.\Generated_Source\PSoC4/CyLib.c **** /*******************************************************************************
1663:.\Generated_Source\PSoC4/CyLib.c **** * Function Name: CyIntSetPriority
1664:.\Generated_Source\PSoC4/CyLib.c **** ********************************************************************************
1665:.\Generated_Source\PSoC4/CyLib.c **** *
1666:.\Generated_Source\PSoC4/CyLib.c **** * Summary:
1667:.\Generated_Source\PSoC4/CyLib.c **** *  Sets the priority of the interrupt.
1668:.\Generated_Source\PSoC4/CyLib.c **** *
1669:.\Generated_Source\PSoC4/CyLib.c **** * Parameters:
1670:.\Generated_Source\PSoC4/CyLib.c **** *  priority: Priority of the interrupt. 0 - 3, 0 being the highest.
1671:.\Generated_Source\PSoC4/CyLib.c **** *  number: The number of the interrupt, 0 - 31.
1672:.\Generated_Source\PSoC4/CyLib.c **** *
1673:.\Generated_Source\PSoC4/CyLib.c **** * Return:
1674:.\Generated_Source\PSoC4/CyLib.c **** *  None
1675:.\Generated_Source\PSoC4/CyLib.c **** *
1676:.\Generated_Source\PSoC4/CyLib.c **** *******************************************************************************/
1677:.\Generated_Source\PSoC4/CyLib.c **** void CyIntSetPriority(uint8 number, uint8 priority)
1678:.\Generated_Source\PSoC4/CyLib.c **** {
1679:.\Generated_Source\PSoC4/CyLib.c ****     uint8 interruptState;
1680:.\Generated_Source\PSoC4/CyLib.c ****     uint32 shift;
1681:.\Generated_Source\PSoC4/CyLib.c ****     uint32 value;
1682:.\Generated_Source\PSoC4/CyLib.c **** 
1683:.\Generated_Source\PSoC4/CyLib.c ****     CYASSERT(priority <= CY_MIN_PRIORITY);
1684:.\Generated_Source\PSoC4/CyLib.c ****     CYASSERT(number < CY_NUM_INTERRUPTS);
1685:.\Generated_Source\PSoC4/CyLib.c **** 
1686:.\Generated_Source\PSoC4/CyLib.c ****     shift = CY_INT_PRIORITY_SHIFT(number);
1687:.\Generated_Source\PSoC4/CyLib.c **** 
1688:.\Generated_Source\PSoC4/CyLib.c ****     interruptState = CyEnterCriticalSection();
1689:.\Generated_Source\PSoC4/CyLib.c **** 
ARM GAS  C:\Users\Steve\AppData\Local\Temp\ccc4U1xk.s 			page 37


1690:.\Generated_Source\PSoC4/CyLib.c ****     value = CY_INT_PRIORITY_REG(number);
1691:.\Generated_Source\PSoC4/CyLib.c ****     value &= (uint32)(~((uint32)(CY_INT_PRIORITY_MASK << shift)));
1692:.\Generated_Source\PSoC4/CyLib.c ****     value |= ((uint32)priority << shift);
1693:.\Generated_Source\PSoC4/CyLib.c ****     CY_INT_PRIORITY_REG(number) = value;
1694:.\Generated_Source\PSoC4/CyLib.c **** 
1695:.\Generated_Source\PSoC4/CyLib.c ****     CyExitCriticalSection(interruptState);
1696:.\Generated_Source\PSoC4/CyLib.c **** }
1697:.\Generated_Source\PSoC4/CyLib.c **** 
1698:.\Generated_Source\PSoC4/CyLib.c **** 
1699:.\Generated_Source\PSoC4/CyLib.c **** /*******************************************************************************
1700:.\Generated_Source\PSoC4/CyLib.c **** * Function Name: CyIntGetPriority
1701:.\Generated_Source\PSoC4/CyLib.c **** ********************************************************************************
1702:.\Generated_Source\PSoC4/CyLib.c **** *
1703:.\Generated_Source\PSoC4/CyLib.c **** * Summary:
1704:.\Generated_Source\PSoC4/CyLib.c **** *  Gets the priority of the interrupt.
1705:.\Generated_Source\PSoC4/CyLib.c **** *
1706:.\Generated_Source\PSoC4/CyLib.c **** * Parameters:
1707:.\Generated_Source\PSoC4/CyLib.c **** *  number: The number of the interrupt, 0 - 31.
1708:.\Generated_Source\PSoC4/CyLib.c **** *
1709:.\Generated_Source\PSoC4/CyLib.c **** * Return:
1710:.\Generated_Source\PSoC4/CyLib.c **** *  Priority of the interrupt. 0 - 3, 0 being the highest.
1711:.\Generated_Source\PSoC4/CyLib.c **** *
1712:.\Generated_Source\PSoC4/CyLib.c **** *******************************************************************************/
1713:.\Generated_Source\PSoC4/CyLib.c **** uint8 CyIntGetPriority(uint8 number)
1714:.\Generated_Source\PSoC4/CyLib.c **** {
1715:.\Generated_Source\PSoC4/CyLib.c ****     uint8 priority;
1716:.\Generated_Source\PSoC4/CyLib.c **** 
1717:.\Generated_Source\PSoC4/CyLib.c ****     CYASSERT(number < CY_NUM_INTERRUPTS);
1718:.\Generated_Source\PSoC4/CyLib.c **** 
1719:.\Generated_Source\PSoC4/CyLib.c ****     priority = (uint8) (CY_INT_PRIORITY_REG(number) >> CY_INT_PRIORITY_SHIFT(number));
1720:.\Generated_Source\PSoC4/CyLib.c **** 
1721:.\Generated_Source\PSoC4/CyLib.c ****     return (priority & (uint8) CY_INT_PRIORITY_MASK);
1722:.\Generated_Source\PSoC4/CyLib.c **** }
1723:.\Generated_Source\PSoC4/CyLib.c **** 
1724:.\Generated_Source\PSoC4/CyLib.c **** 
1725:.\Generated_Source\PSoC4/CyLib.c **** /*******************************************************************************
1726:.\Generated_Source\PSoC4/CyLib.c **** * Function Name: CyIntEnable
1727:.\Generated_Source\PSoC4/CyLib.c **** ********************************************************************************
1728:.\Generated_Source\PSoC4/CyLib.c **** *
1729:.\Generated_Source\PSoC4/CyLib.c **** * Summary:
1730:.\Generated_Source\PSoC4/CyLib.c **** *  Enables the specified interrupt number.
1731:.\Generated_Source\PSoC4/CyLib.c **** *
1732:.\Generated_Source\PSoC4/CyLib.c **** * Parameters:
1733:.\Generated_Source\PSoC4/CyLib.c **** *  number: Valid range [0-31].  Interrupt number
1734:.\Generated_Source\PSoC4/CyLib.c **** *
1735:.\Generated_Source\PSoC4/CyLib.c **** * Return:
1736:.\Generated_Source\PSoC4/CyLib.c **** *  None
1737:.\Generated_Source\PSoC4/CyLib.c **** *
1738:.\Generated_Source\PSoC4/CyLib.c **** *******************************************************************************/
1739:.\Generated_Source\PSoC4/CyLib.c **** void CyIntEnable(uint8 number)
1740:.\Generated_Source\PSoC4/CyLib.c **** {
1741:.\Generated_Source\PSoC4/CyLib.c ****     CY_INT_ENABLE_REG = ((uint32) 0x01u << (CY_INT_ENABLE_RANGE_MASK & number));
1742:.\Generated_Source\PSoC4/CyLib.c **** }
1743:.\Generated_Source\PSoC4/CyLib.c **** 
1744:.\Generated_Source\PSoC4/CyLib.c **** 
1745:.\Generated_Source\PSoC4/CyLib.c **** /*******************************************************************************
1746:.\Generated_Source\PSoC4/CyLib.c **** * Function Name: CyIntGetState
ARM GAS  C:\Users\Steve\AppData\Local\Temp\ccc4U1xk.s 			page 38


1747:.\Generated_Source\PSoC4/CyLib.c **** ********************************************************************************
1748:.\Generated_Source\PSoC4/CyLib.c **** *
1749:.\Generated_Source\PSoC4/CyLib.c **** * Summary:
1750:.\Generated_Source\PSoC4/CyLib.c **** *  Gets the enable state of the specified interrupt number.
1751:.\Generated_Source\PSoC4/CyLib.c **** *
1752:.\Generated_Source\PSoC4/CyLib.c **** * Parameters:
1753:.\Generated_Source\PSoC4/CyLib.c **** *  number: Valid range [0-31].  Interrupt number.
1754:.\Generated_Source\PSoC4/CyLib.c **** *
1755:.\Generated_Source\PSoC4/CyLib.c **** * Return:
1756:.\Generated_Source\PSoC4/CyLib.c **** *  Enable status: 1 if enabled, 0 if disabled
1757:.\Generated_Source\PSoC4/CyLib.c **** *
1758:.\Generated_Source\PSoC4/CyLib.c **** *******************************************************************************/
1759:.\Generated_Source\PSoC4/CyLib.c **** uint8 CyIntGetState(uint8 number)
1760:.\Generated_Source\PSoC4/CyLib.c **** {
1761:.\Generated_Source\PSoC4/CyLib.c ****     /* Get the state of the interrupt. */
1762:.\Generated_Source\PSoC4/CyLib.c ****     return ((0u != (CY_INT_ENABLE_REG & ((uint32) 0x01u << (CY_INT_ENABLE_RANGE_MASK & number)))) ?
1763:.\Generated_Source\PSoC4/CyLib.c **** }
1764:.\Generated_Source\PSoC4/CyLib.c **** 
1765:.\Generated_Source\PSoC4/CyLib.c **** 
1766:.\Generated_Source\PSoC4/CyLib.c **** /*******************************************************************************
1767:.\Generated_Source\PSoC4/CyLib.c **** * Function Name: CyIntDisable
1768:.\Generated_Source\PSoC4/CyLib.c **** ********************************************************************************
1769:.\Generated_Source\PSoC4/CyLib.c **** *
1770:.\Generated_Source\PSoC4/CyLib.c **** * Summary:
1771:.\Generated_Source\PSoC4/CyLib.c **** *   Disables the specified interrupt number.
1772:.\Generated_Source\PSoC4/CyLib.c **** *
1773:.\Generated_Source\PSoC4/CyLib.c **** * Parameters:
1774:.\Generated_Source\PSoC4/CyLib.c **** *   number: Valid range [0-31].  Interrupt number.
1775:.\Generated_Source\PSoC4/CyLib.c **** *
1776:.\Generated_Source\PSoC4/CyLib.c **** * Return:
1777:.\Generated_Source\PSoC4/CyLib.c **** *  None
1778:.\Generated_Source\PSoC4/CyLib.c **** *
1779:.\Generated_Source\PSoC4/CyLib.c **** *******************************************************************************/
1780:.\Generated_Source\PSoC4/CyLib.c **** void CyIntDisable(uint8 number)
1781:.\Generated_Source\PSoC4/CyLib.c **** {
1782:.\Generated_Source\PSoC4/CyLib.c ****     CY_INT_CLEAR_REG = ((uint32) 0x01u << (CY_INT_ENABLE_RANGE_MASK & number));
1783:.\Generated_Source\PSoC4/CyLib.c **** }
1784:.\Generated_Source\PSoC4/CyLib.c **** 
1785:.\Generated_Source\PSoC4/CyLib.c **** /*******************************************************************************
1786:.\Generated_Source\PSoC4/CyLib.c **** * Function Name: CyIntSetPending
1787:.\Generated_Source\PSoC4/CyLib.c **** ********************************************************************************
1788:.\Generated_Source\PSoC4/CyLib.c **** *
1789:.\Generated_Source\PSoC4/CyLib.c **** * Summary:
1790:.\Generated_Source\PSoC4/CyLib.c **** *  Forces the specified interrupt number to be pending.
1791:.\Generated_Source\PSoC4/CyLib.c **** *
1792:.\Generated_Source\PSoC4/CyLib.c **** * Parameters:
1793:.\Generated_Source\PSoC4/CyLib.c **** *  number: Valid range [0-31].  Interrupt number.
1794:.\Generated_Source\PSoC4/CyLib.c **** *
1795:.\Generated_Source\PSoC4/CyLib.c **** * Return:
1796:.\Generated_Source\PSoC4/CyLib.c **** *  None
1797:.\Generated_Source\PSoC4/CyLib.c **** *
1798:.\Generated_Source\PSoC4/CyLib.c **** *******************************************************************************/
1799:.\Generated_Source\PSoC4/CyLib.c **** void CyIntSetPending(uint8 number)
1800:.\Generated_Source\PSoC4/CyLib.c **** {
1801:.\Generated_Source\PSoC4/CyLib.c ****     CY_INT_SET_PEND_REG = ((uint32) 0x01u << (CY_INT_ENABLE_RANGE_MASK & number));
1802:.\Generated_Source\PSoC4/CyLib.c **** }
1803:.\Generated_Source\PSoC4/CyLib.c **** 
ARM GAS  C:\Users\Steve\AppData\Local\Temp\ccc4U1xk.s 			page 39


1804:.\Generated_Source\PSoC4/CyLib.c **** 
1805:.\Generated_Source\PSoC4/CyLib.c **** /*******************************************************************************
1806:.\Generated_Source\PSoC4/CyLib.c **** * Function Name: CyIntClearPending
1807:.\Generated_Source\PSoC4/CyLib.c **** ********************************************************************************
1808:.\Generated_Source\PSoC4/CyLib.c **** *
1809:.\Generated_Source\PSoC4/CyLib.c **** * Summary:
1810:.\Generated_Source\PSoC4/CyLib.c **** *  Clears any pending interrupt for the specified interrupt number.
1811:.\Generated_Source\PSoC4/CyLib.c **** *
1812:.\Generated_Source\PSoC4/CyLib.c **** * Parameters:
1813:.\Generated_Source\PSoC4/CyLib.c **** *  number: Valid range [0-31].  Interrupt number.
1814:.\Generated_Source\PSoC4/CyLib.c **** *
1815:.\Generated_Source\PSoC4/CyLib.c **** * Return:
1816:.\Generated_Source\PSoC4/CyLib.c **** *  None
1817:.\Generated_Source\PSoC4/CyLib.c **** *
1818:.\Generated_Source\PSoC4/CyLib.c **** *******************************************************************************/
1819:.\Generated_Source\PSoC4/CyLib.c **** void CyIntClearPending(uint8 number)
1820:.\Generated_Source\PSoC4/CyLib.c **** {
1821:.\Generated_Source\PSoC4/CyLib.c ****     CY_INT_CLR_PEND_REG = ((uint32) 0x01u << (CY_INT_ENABLE_RANGE_MASK & number));
1822:.\Generated_Source\PSoC4/CyLib.c **** }
1823:.\Generated_Source\PSoC4/CyLib.c **** 
1824:.\Generated_Source\PSoC4/CyLib.c **** 
1825:.\Generated_Source\PSoC4/CyLib.c **** /*******************************************************************************
1826:.\Generated_Source\PSoC4/CyLib.c **** * Function Name: CyHalt
1827:.\Generated_Source\PSoC4/CyLib.c **** ********************************************************************************
1828:.\Generated_Source\PSoC4/CyLib.c **** *
1829:.\Generated_Source\PSoC4/CyLib.c **** * Summary:
1830:.\Generated_Source\PSoC4/CyLib.c **** *  Halts the CPU.
1831:.\Generated_Source\PSoC4/CyLib.c **** *
1832:.\Generated_Source\PSoC4/CyLib.c **** * Parameters:
1833:.\Generated_Source\PSoC4/CyLib.c **** *  reason: Value to be used during debugging.
1834:.\Generated_Source\PSoC4/CyLib.c **** *
1835:.\Generated_Source\PSoC4/CyLib.c **** * Return:
1836:.\Generated_Source\PSoC4/CyLib.c **** *  None
1837:.\Generated_Source\PSoC4/CyLib.c **** *
1838:.\Generated_Source\PSoC4/CyLib.c **** *******************************************************************************/
1839:.\Generated_Source\PSoC4/CyLib.c **** void CyHalt(uint8 reason)
1840:.\Generated_Source\PSoC4/CyLib.c **** {
1841:.\Generated_Source\PSoC4/CyLib.c ****     if(0u != reason)
1842:.\Generated_Source\PSoC4/CyLib.c ****     {
1843:.\Generated_Source\PSoC4/CyLib.c ****         /* To remove unreferenced local variable warning */
1844:.\Generated_Source\PSoC4/CyLib.c ****     }
1845:.\Generated_Source\PSoC4/CyLib.c **** 
1846:.\Generated_Source\PSoC4/CyLib.c ****     #if defined (__ARMCC_VERSION)
1847:.\Generated_Source\PSoC4/CyLib.c ****         __breakpoint(0x0);
1848:.\Generated_Source\PSoC4/CyLib.c ****     #elif defined(__GNUC__) || defined (__ICCARM__)
1849:.\Generated_Source\PSoC4/CyLib.c ****         __asm("    bkpt    1");
 352              		.loc 1 1849 0
 353              	@ 1849 ".\Generated_Source\PSoC4\CyLib.c" 1
 354 0006 01BE     		    bkpt    1
 355              	@ 0 "" 2
 356              	.LVL10:
 357              		.code	16
 358              	.L29:
 359              	.LBE83:
 360              	.LBE82:
 443:.\Generated_Source\PSoC4/CyLib.c ****         return ((CY_SYS_WDT_CONTROL_REG >> ((CY_SYS_WDT_CNT_SHIFT * counterNum) + CY_SYS_WDT_CNT_ST
 361              		.loc 1 443 0
ARM GAS  C:\Users\Steve\AppData\Local\Temp\ccc4U1xk.s 			page 40


 362 0008 044B     		ldr	r3, .L30
 363 000a C000     		lsl	r0, r0, #3
 364              	.LVL11:
 365 000c 1968     		ldr	r1, [r3]
 366 000e 0130     		add	r0, r0, #1
 367 0010 C140     		lsr	r1, r1, r0
 368 0012 081C     		mov	r0, r1
 369 0014 0122     		mov	r2, #1
 370 0016 1040     		and	r0, r2
 444:.\Generated_Source\PSoC4/CyLib.c ****     }
 371              		.loc 1 444 0
 372              		@ sp needed for prologue
 373 0018 00BD     		pop	{pc}
 374              	.L31:
 375 001a C046     		.align	2
 376              	.L30:
 377 001c 10020B40 		.word	1074463248
 378              		.cfi_endproc
 379              	.LFE9:
 380              		.size	CySysWdtReadEnabledStatus, .-CySysWdtReadEnabledStatus
 381              		.section	.text.CySysWdtWriteMode,"ax",%progbits
 382              		.align	2
 383              		.global	CySysWdtWriteMode
 384              		.code	16
 385              		.thumb_func
 386              		.type	CySysWdtWriteMode, %function
 387              	CySysWdtWriteMode:
 388              	.LFB10:
 476:.\Generated_Source\PSoC4/CyLib.c ****     {
 389              		.loc 1 476 0
 390              		.cfi_startproc
 391              	.LVL12:
 392 0000 30B5     		push	{r4, r5, lr}
 393              	.LCFI4:
 394              		.cfi_def_cfa_offset 12
 395              		.cfi_offset 4, -12
 396              		.cfi_offset 5, -8
 397              		.cfi_offset 14, -4
 479:.\Generated_Source\PSoC4/CyLib.c ****         CYASSERT(counterNum < CY_SYS_WDT_COUNTERS_MAX);
 398              		.loc 1 479 0
 399 0002 0228     		cmp	r0, #2
 400 0004 00D9     		bls	.L33
 401              	.LVL13:
 402              	.LBB84:
 403              	.LBB85:
 404              		.loc 1 1849 0
 405              	@ 1849 ".\Generated_Source\PSoC4\CyLib.c" 1
 406 0006 01BE     		    bkpt    1
 407              	@ 0 "" 2
 408              	.LVL14:
 409              		.code	16
 410              	.L33:
 411              	.LBE85:
 412              	.LBE84:
 484:.\Generated_Source\PSoC4/CyLib.c ****         if (0u == (CY_SYS_CLK_ILO_CONFIG_REG & CY_SYS_CLK_ILO_CONFIG_ENABLE))
 413              		.loc 1 484 0
 414 0008 0F4B     		ldr	r3, .L37
ARM GAS  C:\Users\Steve\AppData\Local\Temp\ccc4U1xk.s 			page 41


 415 000a 1A68     		ldr	r2, [r3]
 416 000c 002A     		cmp	r2, #0
 417 000e 04DB     		blt	.L34
 418              	.LBB86:
 419              	.LBB87:
  86:.\Generated_Source\PSoC4/CyLib.c ****     CY_SYS_CLK_ILO_CONFIG_REG |= CY_SYS_CLK_ILO_CONFIG_ENABLE;
 420              		.loc 1 86 0
 421 0010 1C68     		ldr	r4, [r3]
 422 0012 8025     		mov	r5, #128
 423 0014 2A06     		lsl	r2, r5, #24
 424 0016 2243     		orr	r2, r4
 425 0018 1A60     		str	r2, [r3]
 426              	.L34:
 427              	.LVL15:
 428              	.LBE87:
 429              	.LBE86:
 430              	.LBB88:
 431              	.LBB89:
 442:.\Generated_Source\PSoC4/CyLib.c ****         CYASSERT(counterNum < CY_SYS_WDT_COUNTERS_MAX);
 432              		.loc 1 442 0
 433 001a 0228     		cmp	r0, #2
 434 001c 00D9     		bls	.L35
 435              	.LVL16:
 436              	.LBB90:
 437              	.LBB91:
 438              		.loc 1 1849 0
 439              	@ 1849 ".\Generated_Source\PSoC4\CyLib.c" 1
 440 001e 01BE     		    bkpt    1
 441              	@ 0 "" 2
 442              	.LVL17:
 443              		.code	16
 444              	.L35:
 445              	.LBE91:
 446              	.LBE90:
 443:.\Generated_Source\PSoC4/CyLib.c ****         return ((CY_SYS_WDT_CONTROL_REG >> ((CY_SYS_WDT_CNT_SHIFT * counterNum) + CY_SYS_WDT_CNT_ST
 447              		.loc 1 443 0
 448 0020 0A4B     		ldr	r3, .L37+4
 449 0022 C000     		lsl	r0, r0, #3
 450              	.LVL18:
 451 0024 1C68     		ldr	r4, [r3]
 452 0026 451C     		add	r5, r0, #1
 453 0028 EC40     		lsr	r4, r4, r5
 454 002a 221C     		mov	r2, r4
 455              	.LBE89:
 456              	.LBE88:
 489:.\Generated_Source\PSoC4/CyLib.c ****         if(0u == CySysWdtReadEnabledStatus(counterNum))
 457              		.loc 1 489 0
 458 002c D207     		lsl	r2, r2, #31
 459 002e 0AD4     		bmi	.L32
 491:.\Generated_Source\PSoC4/CyLib.c ****             configRegValue = CY_SYS_WDT_CONFIG_REG &
 460              		.loc 1 491 0
 461 0030 074B     		ldr	r3, .L37+8
 492:.\Generated_Source\PSoC4/CyLib.c ****                                 (uint32)~((uint32)(CY_SYS_WDT_MODE_MASK << (counterNum * CY_SYS_WDT
 462              		.loc 1 492 0
 463 0032 0322     		mov	r2, #3
 491:.\Generated_Source\PSoC4/CyLib.c ****             configRegValue = CY_SYS_WDT_CONFIG_REG &
 464              		.loc 1 491 0
ARM GAS  C:\Users\Steve\AppData\Local\Temp\ccc4U1xk.s 			page 42


 465 0034 1C68     		ldr	r4, [r3]
 492:.\Generated_Source\PSoC4/CyLib.c ****                                 (uint32)~((uint32)(CY_SYS_WDT_MODE_MASK << (counterNum * CY_SYS_WDT
 466              		.loc 1 492 0
 467 0036 151C     		mov	r5, r2
 468 0038 8540     		lsl	r5, r5, r0
 493:.\Generated_Source\PSoC4/CyLib.c ****             configRegValue |= (uint32)((mode & CY_SYS_WDT_MODE_MASK) << (counterNum * CY_SYS_WDT_CN
 469              		.loc 1 493 0
 470 003a 0A40     		and	r2, r1
 491:.\Generated_Source\PSoC4/CyLib.c ****             configRegValue = CY_SYS_WDT_CONFIG_REG &
 471              		.loc 1 491 0
 472 003c AC43     		bic	r4, r5
 473              	.LVL19:
 493:.\Generated_Source\PSoC4/CyLib.c ****             configRegValue |= (uint32)((mode & CY_SYS_WDT_MODE_MASK) << (counterNum * CY_SYS_WDT_CN
 474              		.loc 1 493 0
 475 003e 8240     		lsl	r2, r2, r0
 476 0040 211C     		mov	r1, r4
 477              	.LVL20:
 478 0042 1143     		orr	r1, r2
 479              	.LVL21:
 494:.\Generated_Source\PSoC4/CyLib.c ****             CY_SYS_WDT_CONFIG_REG = configRegValue;
 480              		.loc 1 494 0
 481 0044 1960     		str	r1, [r3]
 482              	.LVL22:
 483              	.L32:
 496:.\Generated_Source\PSoC4/CyLib.c ****     }
 484              		.loc 1 496 0
 485              		@ sp needed for prologue
 486 0046 30BD     		pop	{r4, r5, pc}
 487              	.L38:
 488              		.align	2
 489              	.L37:
 490 0048 04010B40 		.word	1074462980
 491 004c 10020B40 		.word	1074463248
 492 0050 0C020B40 		.word	1074463244
 493              		.cfi_endproc
 494              	.LFE10:
 495              		.size	CySysWdtWriteMode, .-CySysWdtWriteMode
 496              		.section	.text.CySysWdtReadMode,"ax",%progbits
 497              		.align	2
 498              		.global	CySysWdtReadMode
 499              		.code	16
 500              		.thumb_func
 501              		.type	CySysWdtReadMode, %function
 502              	CySysWdtReadMode:
 503              	.LFB11:
 515:.\Generated_Source\PSoC4/CyLib.c ****     {
 504              		.loc 1 515 0
 505              		.cfi_startproc
 506              	.LVL23:
 516:.\Generated_Source\PSoC4/CyLib.c ****         return ((CY_SYS_WDT_CONFIG_REG >> (counterNum * CY_SYS_WDT_CNT_SHIFT)) & CY_SYS_WDT_MODE_MA
 507              		.loc 1 516 0
 508 0000 034B     		ldr	r3, .L40
 509 0002 C000     		lsl	r0, r0, #3
 510              	.LVL24:
 511 0004 1968     		ldr	r1, [r3]
 512 0006 0322     		mov	r2, #3
 513 0008 C140     		lsr	r1, r1, r0
ARM GAS  C:\Users\Steve\AppData\Local\Temp\ccc4U1xk.s 			page 43


 514 000a 081C     		mov	r0, r1
 515 000c 1040     		and	r0, r2
 517:.\Generated_Source\PSoC4/CyLib.c ****     }
 516              		.loc 1 517 0
 517              		@ sp needed for prologue
 518 000e 7047     		bx	lr
 519              	.L41:
 520              		.align	2
 521              	.L40:
 522 0010 0C020B40 		.word	1074463244
 523              		.cfi_endproc
 524              	.LFE11:
 525              		.size	CySysWdtReadMode, .-CySysWdtReadMode
 526              		.section	.text.CySysWdtWriteClearOnMatch,"ax",%progbits
 527              		.align	2
 528              		.global	CySysWdtWriteClearOnMatch
 529              		.code	16
 530              		.thumb_func
 531              		.type	CySysWdtWriteClearOnMatch, %function
 532              	CySysWdtWriteClearOnMatch:
 533              	.LFB12:
 548:.\Generated_Source\PSoC4/CyLib.c ****     {
 534              		.loc 1 548 0
 535              		.cfi_startproc
 536              	.LVL25:
 537 0000 10B5     		push	{r4, lr}
 538              	.LCFI5:
 539              		.cfi_def_cfa_offset 8
 540              		.cfi_offset 4, -8
 541              		.cfi_offset 14, -4
 549:.\Generated_Source\PSoC4/CyLib.c ****         CYASSERT((counterNum == CY_SYS_WDT_COUNTER0) ||
 542              		.loc 1 549 0
 543 0002 0128     		cmp	r0, #1
 544 0004 00D9     		bls	.L43
 545              	.LVL26:
 546              	.LBB92:
 547              	.LBB93:
 548              		.loc 1 1849 0
 549              	@ 1849 ".\Generated_Source\PSoC4\CyLib.c" 1
 550 0006 01BE     		    bkpt    1
 551              	@ 0 "" 2
 552              	.LVL27:
 553              		.code	16
 554              	.L43:
 555              	.LBE93:
 556              	.LBE92:
 555:.\Generated_Source\PSoC4/CyLib.c ****         if (0u == (CY_SYS_CLK_ILO_CONFIG_REG & CY_SYS_CLK_ILO_CONFIG_ENABLE))
 557              		.loc 1 555 0
 558 0008 0C4B     		ldr	r3, .L47
 559 000a 1A68     		ldr	r2, [r3]
 560 000c 002A     		cmp	r2, #0
 561 000e 04DB     		blt	.L44
 562              	.LBB94:
 563              	.LBB95:
  86:.\Generated_Source\PSoC4/CyLib.c ****     CY_SYS_CLK_ILO_CONFIG_REG |= CY_SYS_CLK_ILO_CONFIG_ENABLE;
 564              		.loc 1 86 0
 565 0010 1C68     		ldr	r4, [r3]
ARM GAS  C:\Users\Steve\AppData\Local\Temp\ccc4U1xk.s 			page 44


 566 0012 8022     		mov	r2, #128
 567 0014 1206     		lsl	r2, r2, #24
 568 0016 2243     		orr	r2, r4
 569 0018 1A60     		str	r2, [r3]
 570              	.L44:
 571              	.LVL28:
 572              	.LBE95:
 573              	.LBE94:
 574              	.LBB96:
 575              	.LBB97:
 442:.\Generated_Source\PSoC4/CyLib.c ****         CYASSERT(counterNum < CY_SYS_WDT_COUNTERS_MAX);
 576              		.loc 1 442 0
 577 001a 0228     		cmp	r0, #2
 578 001c 00D9     		bls	.L45
 579              	.LVL29:
 580              	.LBB98:
 581              	.LBB99:
 582              		.loc 1 1849 0
 583              	@ 1849 ".\Generated_Source\PSoC4\CyLib.c" 1
 584 001e 01BE     		    bkpt    1
 585              	@ 0 "" 2
 586              	.LVL30:
 587              		.code	16
 588              	.L45:
 589              	.LBE99:
 590              	.LBE98:
 443:.\Generated_Source\PSoC4/CyLib.c ****         return ((CY_SYS_WDT_CONTROL_REG >> ((CY_SYS_WDT_CNT_SHIFT * counterNum) + CY_SYS_WDT_CNT_ST
 591              		.loc 1 443 0
 592 0020 074B     		ldr	r3, .L47+4
 593 0022 C000     		lsl	r0, r0, #3
 594              	.LVL31:
 595 0024 1C68     		ldr	r4, [r3]
 596 0026 421C     		add	r2, r0, #1
 597 0028 D440     		lsr	r4, r4, r2
 598              	.LBE97:
 599              	.LBE96:
 560:.\Generated_Source\PSoC4/CyLib.c ****         if(0u == CySysWdtReadEnabledStatus(counterNum))
 600              		.loc 1 560 0
 601 002a E207     		lsl	r2, r4, #31
 602 002c 05D4     		bmi	.L42
 562:.\Generated_Source\PSoC4/CyLib.c ****             CY_SYS_WDT_CONFIG_REG |= (uint32)(enable << ((counterNum * CY_SYS_WDT_CNT_SHIFT) +
 603              		.loc 1 562 0
 604 002e 054C     		ldr	r4, .L47+8
 605 0030 0230     		add	r0, r0, #2
 606 0032 2268     		ldr	r2, [r4]
 607 0034 8140     		lsl	r1, r1, r0
 608              	.LVL32:
 609 0036 1143     		orr	r1, r2
 610 0038 2160     		str	r1, [r4]
 611              	.L42:
 565:.\Generated_Source\PSoC4/CyLib.c ****     }
 612              		.loc 1 565 0
 613              		@ sp needed for prologue
 614 003a 10BD     		pop	{r4, pc}
 615              	.L48:
 616              		.align	2
 617              	.L47:
ARM GAS  C:\Users\Steve\AppData\Local\Temp\ccc4U1xk.s 			page 45


 618 003c 04010B40 		.word	1074462980
 619 0040 10020B40 		.word	1074463248
 620 0044 0C020B40 		.word	1074463244
 621              		.cfi_endproc
 622              	.LFE12:
 623              		.size	CySysWdtWriteClearOnMatch, .-CySysWdtWriteClearOnMatch
 624              		.section	.text.CySysWdtReadClearOnMatch,"ax",%progbits
 625              		.align	2
 626              		.global	CySysWdtReadClearOnMatch
 627              		.code	16
 628              		.thumb_func
 629              		.type	CySysWdtReadClearOnMatch, %function
 630              	CySysWdtReadClearOnMatch:
 631              	.LFB13:
 584:.\Generated_Source\PSoC4/CyLib.c ****     {
 632              		.loc 1 584 0
 633              		.cfi_startproc
 634              	.LVL33:
 635 0000 00B5     		push	{lr}
 636              	.LCFI6:
 637              		.cfi_def_cfa_offset 4
 638              		.cfi_offset 14, -4
 585:.\Generated_Source\PSoC4/CyLib.c ****         CYASSERT((counterNum == CY_SYS_WDT_COUNTER0) ||
 639              		.loc 1 585 0
 640 0002 0128     		cmp	r0, #1
 641 0004 00D9     		bls	.L50
 642              	.LVL34:
 643              	.LBB100:
 644              	.LBB101:
 645              		.loc 1 1849 0
 646              	@ 1849 ".\Generated_Source\PSoC4\CyLib.c" 1
 647 0006 01BE     		    bkpt    1
 648              	@ 0 "" 2
 649              	.LVL35:
 650              		.code	16
 651              	.L50:
 652              	.LBE101:
 653              	.LBE100:
 588:.\Generated_Source\PSoC4/CyLib.c ****         return (uint32)((CY_SYS_WDT_CONFIG_REG >>
 654              		.loc 1 588 0
 655 0008 044B     		ldr	r3, .L51
 589:.\Generated_Source\PSoC4/CyLib.c ****                             ((counterNum * CY_SYS_WDT_CNT_SHIFT) + CY_SYS_WDT_CNT_MATCH_CLR_SHIFT))
 656              		.loc 1 589 0
 657 000a C000     		lsl	r0, r0, #3
 658              	.LVL36:
 588:.\Generated_Source\PSoC4/CyLib.c ****         return (uint32)((CY_SYS_WDT_CONFIG_REG >>
 659              		.loc 1 588 0
 660 000c 1968     		ldr	r1, [r3]
 589:.\Generated_Source\PSoC4/CyLib.c ****                             ((counterNum * CY_SYS_WDT_CNT_SHIFT) + CY_SYS_WDT_CNT_MATCH_CLR_SHIFT))
 661              		.loc 1 589 0
 662 000e 0230     		add	r0, r0, #2
 588:.\Generated_Source\PSoC4/CyLib.c ****         return (uint32)((CY_SYS_WDT_CONFIG_REG >>
 663              		.loc 1 588 0
 664 0010 C140     		lsr	r1, r1, r0
 665 0012 081C     		mov	r0, r1
 666 0014 0122     		mov	r2, #1
 667 0016 1040     		and	r0, r2
ARM GAS  C:\Users\Steve\AppData\Local\Temp\ccc4U1xk.s 			page 46


 590:.\Generated_Source\PSoC4/CyLib.c ****     }
 668              		.loc 1 590 0
 669              		@ sp needed for prologue
 670 0018 00BD     		pop	{pc}
 671              	.L52:
 672 001a C046     		.align	2
 673              	.L51:
 674 001c 0C020B40 		.word	1074463244
 675              		.cfi_endproc
 676              	.LFE13:
 677              		.size	CySysWdtReadClearOnMatch, .-CySysWdtReadClearOnMatch
 678              		.section	.text.CySysWdtEnable,"ax",%progbits
 679              		.align	2
 680              		.global	CySysWdtEnable
 681              		.code	16
 682              		.thumb_func
 683              		.type	CySysWdtEnable, %function
 684              	CySysWdtEnable:
 685              	.LFB14:
 617:.\Generated_Source\PSoC4/CyLib.c ****     {
 686              		.loc 1 617 0
 687              		.cfi_startproc
 688              	.LVL37:
 621:.\Generated_Source\PSoC4/CyLib.c ****         if (0u == (CY_SYS_CLK_ILO_CONFIG_REG & CY_SYS_CLK_ILO_CONFIG_ENABLE))
 689              		.loc 1 621 0
 690 0000 074B     		ldr	r3, .L55
 617:.\Generated_Source\PSoC4/CyLib.c ****     {
 691              		.loc 1 617 0
 692 0002 00B5     		push	{lr}
 693              	.LCFI7:
 694              		.cfi_def_cfa_offset 4
 695              		.cfi_offset 14, -4
 621:.\Generated_Source\PSoC4/CyLib.c ****         if (0u == (CY_SYS_CLK_ILO_CONFIG_REG & CY_SYS_CLK_ILO_CONFIG_ENABLE))
 696              		.loc 1 621 0
 697 0004 1A68     		ldr	r2, [r3]
 698 0006 002A     		cmp	r2, #0
 699 0008 04DB     		blt	.L54
 700              	.LBB102:
 701              	.LBB103:
  86:.\Generated_Source\PSoC4/CyLib.c ****     CY_SYS_CLK_ILO_CONFIG_REG |= CY_SYS_CLK_ILO_CONFIG_ENABLE;
 702              		.loc 1 86 0
 703 000a 1968     		ldr	r1, [r3]
 704 000c 8022     		mov	r2, #128
 705 000e 1206     		lsl	r2, r2, #24
 706 0010 0A43     		orr	r2, r1
 707 0012 1A60     		str	r2, [r3]
 708              	.L54:
 709              	.LBE103:
 710              	.LBE102:
 626:.\Generated_Source\PSoC4/CyLib.c ****         CY_SYS_WDT_CONTROL_REG |= counterMask;
 711              		.loc 1 626 0
 712 0014 034B     		ldr	r3, .L55+4
 627:.\Generated_Source\PSoC4/CyLib.c ****     }
 713              		.loc 1 627 0
 714              		@ sp needed for prologue
 626:.\Generated_Source\PSoC4/CyLib.c ****         CY_SYS_WDT_CONTROL_REG |= counterMask;
 715              		.loc 1 626 0
ARM GAS  C:\Users\Steve\AppData\Local\Temp\ccc4U1xk.s 			page 47


 716 0016 1968     		ldr	r1, [r3]
 717 0018 0843     		orr	r0, r1
 718              	.LVL38:
 719 001a 1860     		str	r0, [r3]
 627:.\Generated_Source\PSoC4/CyLib.c ****     }
 720              		.loc 1 627 0
 721 001c 00BD     		pop	{pc}
 722              	.L56:
 723 001e C046     		.align	2
 724              	.L55:
 725 0020 04010B40 		.word	1074462980
 726 0024 10020B40 		.word	1074463248
 727              		.cfi_endproc
 728              	.LFE14:
 729              		.size	CySysWdtEnable, .-CySysWdtEnable
 730              		.section	.text.CySysWdtDisable,"ax",%progbits
 731              		.align	2
 732              		.global	CySysWdtDisable
 733              		.code	16
 734              		.thumb_func
 735              		.type	CySysWdtDisable, %function
 736              	CySysWdtDisable:
 737              	.LFB15:
 654:.\Generated_Source\PSoC4/CyLib.c ****     {
 738              		.loc 1 654 0
 739              		.cfi_startproc
 740              	.LVL39:
 658:.\Generated_Source\PSoC4/CyLib.c ****         if (0u == (CY_SYS_CLK_ILO_CONFIG_REG & CY_SYS_CLK_ILO_CONFIG_ENABLE))
 741              		.loc 1 658 0
 742 0000 074B     		ldr	r3, .L59
 654:.\Generated_Source\PSoC4/CyLib.c ****     {
 743              		.loc 1 654 0
 744 0002 00B5     		push	{lr}
 745              	.LCFI8:
 746              		.cfi_def_cfa_offset 4
 747              		.cfi_offset 14, -4
 658:.\Generated_Source\PSoC4/CyLib.c ****         if (0u == (CY_SYS_CLK_ILO_CONFIG_REG & CY_SYS_CLK_ILO_CONFIG_ENABLE))
 748              		.loc 1 658 0
 749 0004 1A68     		ldr	r2, [r3]
 750 0006 002A     		cmp	r2, #0
 751 0008 04DB     		blt	.L58
 752              	.LBB104:
 753              	.LBB105:
  86:.\Generated_Source\PSoC4/CyLib.c ****     CY_SYS_CLK_ILO_CONFIG_REG |= CY_SYS_CLK_ILO_CONFIG_ENABLE;
 754              		.loc 1 86 0
 755 000a 1968     		ldr	r1, [r3]
 756 000c 8022     		mov	r2, #128
 757 000e 1206     		lsl	r2, r2, #24
 758 0010 0A43     		orr	r2, r1
 759 0012 1A60     		str	r2, [r3]
 760              	.L58:
 761              	.LBE105:
 762              	.LBE104:
 663:.\Generated_Source\PSoC4/CyLib.c ****         CY_SYS_WDT_CONTROL_REG &= ~counterMask;
 763              		.loc 1 663 0
 764 0014 034B     		ldr	r3, .L59+4
 664:.\Generated_Source\PSoC4/CyLib.c ****     }
ARM GAS  C:\Users\Steve\AppData\Local\Temp\ccc4U1xk.s 			page 48


 765              		.loc 1 664 0
 766              		@ sp needed for prologue
 663:.\Generated_Source\PSoC4/CyLib.c ****         CY_SYS_WDT_CONTROL_REG &= ~counterMask;
 767              		.loc 1 663 0
 768 0016 1968     		ldr	r1, [r3]
 769 0018 8143     		bic	r1, r0
 770 001a 1960     		str	r1, [r3]
 664:.\Generated_Source\PSoC4/CyLib.c ****     }
 771              		.loc 1 664 0
 772 001c 00BD     		pop	{pc}
 773              	.L60:
 774 001e C046     		.align	2
 775              	.L59:
 776 0020 04010B40 		.word	1074462980
 777 0024 10020B40 		.word	1074463248
 778              		.cfi_endproc
 779              	.LFE15:
 780              		.size	CySysWdtDisable, .-CySysWdtDisable
 781              		.section	.text.CySysWdtWriteCascade,"ax",%progbits
 782              		.align	2
 783              		.global	CySysWdtWriteCascade
 784              		.code	16
 785              		.thumb_func
 786              		.type	CySysWdtWriteCascade, %function
 787              	CySysWdtWriteCascade:
 788              	.LFB16:
 693:.\Generated_Source\PSoC4/CyLib.c ****     {
 789              		.loc 1 693 0
 790              		.cfi_startproc
 791              	.LVL40:
 792              	.LBB106:
 793              	.LBB107:
 443:.\Generated_Source\PSoC4/CyLib.c ****         return ((CY_SYS_WDT_CONTROL_REG >> ((CY_SYS_WDT_CNT_SHIFT * counterNum) + CY_SYS_WDT_CNT_ST
 794              		.loc 1 443 0
 795 0000 0D4B     		ldr	r3, .L64
 796              	.LBE107:
 797              	.LBE106:
 693:.\Generated_Source\PSoC4/CyLib.c ****     {
 798              		.loc 1 693 0
 799 0002 10B5     		push	{r4, lr}
 800              	.LCFI9:
 801              		.cfi_def_cfa_offset 8
 802              		.cfi_offset 4, -8
 803              		.cfi_offset 14, -4
 804              	.LBB110:
 805              	.LBB108:
 443:.\Generated_Source\PSoC4/CyLib.c ****         return ((CY_SYS_WDT_CONTROL_REG >> ((CY_SYS_WDT_CNT_SHIFT * counterNum) + CY_SYS_WDT_CNT_ST
 806              		.loc 1 443 0
 807 0004 1C68     		ldr	r4, [r3]
 808              	.LVL41:
 809              	.LBE108:
 810              	.LBE110:
 811              	.LBB111:
 812              	.LBB112:
 813 0006 1968     		ldr	r1, [r3]
 814              	.LVL42:
 815              	.LBE112:
ARM GAS  C:\Users\Steve\AppData\Local\Temp\ccc4U1xk.s 			page 49


 816              	.LBE111:
 817              	.LBB114:
 818              	.LBB115:
 819 0008 1A68     		ldr	r2, [r3]
 820              	.LVL43:
 821              	.LBE115:
 822              	.LBE114:
 823              	.LBB117:
 824              	.LBB113:
 825 000a 490A     		lsr	r1, r1, #9
 826              	.LVL44:
 827              	.LBE113:
 828              	.LBE117:
 829              	.LBB118:
 830              	.LBB109:
 831 000c 6308     		lsr	r3, r4, #1
 832 000e 0B43     		orr	r3, r1
 833              	.LBE109:
 834              	.LBE118:
 835              	.LBB119:
 836              	.LBB116:
 837 0010 540C     		lsr	r4, r2, #17
 838 0012 2343     		orr	r3, r4
 839              	.LBE116:
 840              	.LBE119:
 701:.\Generated_Source\PSoC4/CyLib.c ****         if (0u == countersEnableStatus)
 841              		.loc 1 701 0
 842 0014 DA07     		lsl	r2, r3, #31
 843 0016 0ED4     		bmi	.L61
 706:.\Generated_Source\PSoC4/CyLib.c ****             if (0u == (CY_SYS_CLK_ILO_CONFIG_REG & CY_SYS_CLK_ILO_CONFIG_ENABLE))
 844              		.loc 1 706 0
 845 0018 084B     		ldr	r3, .L64+4
 846 001a 1A68     		ldr	r2, [r3]
 847 001c 002A     		cmp	r2, #0
 848 001e 04DB     		blt	.L63
 849              	.LBB120:
 850              	.LBB121:
  86:.\Generated_Source\PSoC4/CyLib.c ****     CY_SYS_CLK_ILO_CONFIG_REG |= CY_SYS_CLK_ILO_CONFIG_ENABLE;
 851              		.loc 1 86 0
 852 0020 1968     		ldr	r1, [r3]
 853 0022 8024     		mov	r4, #128
 854 0024 2206     		lsl	r2, r4, #24
 855 0026 0A43     		orr	r2, r1
 856 0028 1A60     		str	r2, [r3]
 857              	.L63:
 858              	.LBE121:
 859              	.LBE120:
 711:.\Generated_Source\PSoC4/CyLib.c ****             configRegValue = CY_SYS_WDT_CONFIG_REG;
 860              		.loc 1 711 0
 861 002a 054B     		ldr	r3, .L64+8
 712:.\Generated_Source\PSoC4/CyLib.c ****             configRegValue &= ((uint32)(~(CY_SYS_WDT_CASCADE_01|CY_SYS_WDT_CASCADE_12)));
 862              		.loc 1 712 0
 863 002c 054C     		ldr	r4, .L64+12
 711:.\Generated_Source\PSoC4/CyLib.c ****             configRegValue = CY_SYS_WDT_CONFIG_REG;
 864              		.loc 1 711 0
 865 002e 1968     		ldr	r1, [r3]
 866              	.LVL45:
ARM GAS  C:\Users\Steve\AppData\Local\Temp\ccc4U1xk.s 			page 50


 712:.\Generated_Source\PSoC4/CyLib.c ****             configRegValue &= ((uint32)(~(CY_SYS_WDT_CASCADE_01|CY_SYS_WDT_CASCADE_12)));
 867              		.loc 1 712 0
 868 0030 0C40     		and	r4, r1
 869              	.LVL46:
 713:.\Generated_Source\PSoC4/CyLib.c ****             configRegValue |= cascadeMask;
 870              		.loc 1 713 0
 871 0032 2043     		orr	r0, r4
 872              	.LVL47:
 714:.\Generated_Source\PSoC4/CyLib.c ****             CY_SYS_WDT_CONFIG_REG = configRegValue;
 873              		.loc 1 714 0
 874 0034 1860     		str	r0, [r3]
 875              	.LVL48:
 876              	.L61:
 716:.\Generated_Source\PSoC4/CyLib.c ****     }
 877              		.loc 1 716 0
 878              		@ sp needed for prologue
 879 0036 10BD     		pop	{r4, pc}
 880              	.L65:
 881              		.align	2
 882              	.L64:
 883 0038 10020B40 		.word	1074463248
 884 003c 04010B40 		.word	1074462980
 885 0040 0C020B40 		.word	1074463244
 886 0044 F7F7FFFF 		.word	-2057
 887              		.cfi_endproc
 888              	.LFE16:
 889              		.size	CySysWdtWriteCascade, .-CySysWdtWriteCascade
 890              		.section	.text.CySysWdtReadCascade,"ax",%progbits
 891              		.align	2
 892              		.global	CySysWdtReadCascade
 893              		.code	16
 894              		.thumb_func
 895              		.type	CySysWdtReadCascade, %function
 896              	CySysWdtReadCascade:
 897              	.LFB17:
 738:.\Generated_Source\PSoC4/CyLib.c ****     {
 898              		.loc 1 738 0
 899              		.cfi_startproc
 739:.\Generated_Source\PSoC4/CyLib.c ****         return (CY_SYS_WDT_CONFIG_REG & (CY_SYS_WDT_CASCADE_01 | CY_SYS_WDT_CASCADE_12));
 900              		.loc 1 739 0
 901 0000 024B     		ldr	r3, .L67
 902 0002 0349     		ldr	r1, .L67+4
 903 0004 1868     		ldr	r0, [r3]
 740:.\Generated_Source\PSoC4/CyLib.c ****     }
 904              		.loc 1 740 0
 905              		@ sp needed for prologue
 739:.\Generated_Source\PSoC4/CyLib.c ****         return (CY_SYS_WDT_CONFIG_REG & (CY_SYS_WDT_CASCADE_01 | CY_SYS_WDT_CASCADE_12));
 906              		.loc 1 739 0
 907 0006 0840     		and	r0, r1
 740:.\Generated_Source\PSoC4/CyLib.c ****     }
 908              		.loc 1 740 0
 909 0008 7047     		bx	lr
 910              	.L68:
 911 000a C046     		.align	2
 912              	.L67:
 913 000c 0C020B40 		.word	1074463244
 914 0010 08080000 		.word	2056
ARM GAS  C:\Users\Steve\AppData\Local\Temp\ccc4U1xk.s 			page 51


 915              		.cfi_endproc
 916              	.LFE17:
 917              		.size	CySysWdtReadCascade, .-CySysWdtReadCascade
 918              		.section	.text.CySysWdtWriteToggleBit,"ax",%progbits
 919              		.align	2
 920              		.global	CySysWdtWriteToggleBit
 921              		.code	16
 922              		.thumb_func
 923              		.type	CySysWdtWriteToggleBit, %function
 924              	CySysWdtWriteToggleBit:
 925              	.LFB19:
 812:.\Generated_Source\PSoC4/CyLib.c ****     {
 926              		.loc 1 812 0
 927              		.cfi_startproc
 928              	.LVL49:
 929              	.LBB122:
 930              	.LBB123:
 443:.\Generated_Source\PSoC4/CyLib.c ****         return ((CY_SYS_WDT_CONTROL_REG >> ((CY_SYS_WDT_CNT_SHIFT * counterNum) + CY_SYS_WDT_CNT_ST
 931              		.loc 1 443 0
 932 0000 0B4B     		ldr	r3, .L72
 933              	.LBE123:
 934              	.LBE122:
 812:.\Generated_Source\PSoC4/CyLib.c ****     {
 935              		.loc 1 812 0
 936 0002 00B5     		push	{lr}
 937              	.LCFI10:
 938              		.cfi_def_cfa_offset 4
 939              		.cfi_offset 14, -4
 940              	.LBB125:
 941              	.LBB124:
 443:.\Generated_Source\PSoC4/CyLib.c ****         return ((CY_SYS_WDT_CONTROL_REG >> ((CY_SYS_WDT_CNT_SHIFT * counterNum) + CY_SYS_WDT_CNT_ST
 942              		.loc 1 443 0
 943 0004 1968     		ldr	r1, [r3]
 944              	.LBE124:
 945              	.LBE125:
 815:.\Generated_Source\PSoC4/CyLib.c ****         if (0u == CySysWdtReadEnabledStatus(CY_SYS_WDT_COUNTER2))
 946              		.loc 1 815 0
 947 0006 8A03     		lsl	r2, r1, #14
 948 0008 11D4     		bmi	.L69
 820:.\Generated_Source\PSoC4/CyLib.c ****             if (0u == (CY_SYS_CLK_ILO_CONFIG_REG & CY_SYS_CLK_ILO_CONFIG_ENABLE))
 949              		.loc 1 820 0
 950 000a 0A4B     		ldr	r3, .L72+4
 951 000c 1A68     		ldr	r2, [r3]
 952 000e 002A     		cmp	r2, #0
 953 0010 04DB     		blt	.L71
 954              	.LBB126:
 955              	.LBB127:
  86:.\Generated_Source\PSoC4/CyLib.c ****     CY_SYS_CLK_ILO_CONFIG_REG |= CY_SYS_CLK_ILO_CONFIG_ENABLE;
 956              		.loc 1 86 0
 957 0012 1968     		ldr	r1, [r3]
 958 0014 8022     		mov	r2, #128
 959 0016 1206     		lsl	r2, r2, #24
 960 0018 0A43     		orr	r2, r1
 961 001a 1A60     		str	r2, [r3]
 962              	.L71:
 963              	.LBE127:
 964              	.LBE126:
ARM GAS  C:\Users\Steve\AppData\Local\Temp\ccc4U1xk.s 			page 52


 825:.\Generated_Source\PSoC4/CyLib.c ****             configRegValue = CY_SYS_WDT_CONFIG_REG;
 965              		.loc 1 825 0
 966 001c 064B     		ldr	r3, .L72+8
 826:.\Generated_Source\PSoC4/CyLib.c ****             configRegValue &= (uint32)(~((uint32)(CY_SYS_WDT_CONFIG_BITS2_MASK << CY_SYS_WDT_CONFIG
 967              		.loc 1 826 0
 968 001e 074A     		ldr	r2, .L72+12
 825:.\Generated_Source\PSoC4/CyLib.c ****             configRegValue = CY_SYS_WDT_CONFIG_REG;
 969              		.loc 1 825 0
 970 0020 1968     		ldr	r1, [r3]
 971              	.LVL50:
 826:.\Generated_Source\PSoC4/CyLib.c ****             configRegValue &= (uint32)(~((uint32)(CY_SYS_WDT_CONFIG_BITS2_MASK << CY_SYS_WDT_CONFIG
 972              		.loc 1 826 0
 973 0022 0A40     		and	r2, r1
 974              	.LVL51:
 827:.\Generated_Source\PSoC4/CyLib.c ****             configRegValue |= ((bits & CY_SYS_WDT_CONFIG_BITS2_MASK) << CY_SYS_WDT_CONFIG_BITS2_POS
 975              		.loc 1 827 0
 976 0024 1F21     		mov	r1, #31
 977 0026 0840     		and	r0, r1
 978              	.LVL52:
 979 0028 0006     		lsl	r0, r0, #24
 980 002a 1043     		orr	r0, r2
 981              	.LVL53:
 828:.\Generated_Source\PSoC4/CyLib.c ****             CY_SYS_WDT_CONFIG_REG = configRegValue;
 982              		.loc 1 828 0
 983 002c 1860     		str	r0, [r3]
 984              	.LVL54:
 985              	.L69:
 830:.\Generated_Source\PSoC4/CyLib.c ****     }
 986              		.loc 1 830 0
 987              		@ sp needed for prologue
 988 002e 00BD     		pop	{pc}
 989              	.L73:
 990              		.align	2
 991              	.L72:
 992 0030 10020B40 		.word	1074463248
 993 0034 04010B40 		.word	1074462980
 994 0038 0C020B40 		.word	1074463244
 995 003c FFFFFFE0 		.word	-520093697
 996              		.cfi_endproc
 997              	.LFE19:
 998              		.size	CySysWdtWriteToggleBit, .-CySysWdtWriteToggleBit
 999              		.section	.text.CySysWdtReadToggleBit,"ax",%progbits
 1000              		.align	2
 1001              		.global	CySysWdtReadToggleBit
 1002              		.code	16
 1003              		.thumb_func
 1004              		.type	CySysWdtReadToggleBit, %function
 1005              	CySysWdtReadToggleBit:
 1006              	.LFB20:
 848:.\Generated_Source\PSoC4/CyLib.c ****     {
 1007              		.loc 1 848 0
 1008              		.cfi_startproc
 849:.\Generated_Source\PSoC4/CyLib.c ****         return ((CY_SYS_WDT_CONFIG_REG >> CY_SYS_WDT_CONFIG_BITS2_POS) & CY_SYS_WDT_CONFIG_BITS2_MA
 1009              		.loc 1 849 0
 1010 0000 024B     		ldr	r3, .L75
 850:.\Generated_Source\PSoC4/CyLib.c ****     }
 1011              		.loc 1 850 0
ARM GAS  C:\Users\Steve\AppData\Local\Temp\ccc4U1xk.s 			page 53


 1012              		@ sp needed for prologue
 849:.\Generated_Source\PSoC4/CyLib.c ****         return ((CY_SYS_WDT_CONFIG_REG >> CY_SYS_WDT_CONFIG_BITS2_POS) & CY_SYS_WDT_CONFIG_BITS2_MA
 1013              		.loc 1 849 0
 1014 0002 1868     		ldr	r0, [r3]
 1015 0004 C100     		lsl	r1, r0, #3
 1016 0006 C80E     		lsr	r0, r1, #27
 850:.\Generated_Source\PSoC4/CyLib.c ****     }
 1017              		.loc 1 850 0
 1018 0008 7047     		bx	lr
 1019              	.L76:
 1020 000a C046     		.align	2
 1021              	.L75:
 1022 000c 0C020B40 		.word	1074463244
 1023              		.cfi_endproc
 1024              	.LFE20:
 1025              		.size	CySysWdtReadToggleBit, .-CySysWdtReadToggleBit
 1026              		.section	.text.CySysWdtReadMatch,"ax",%progbits
 1027              		.align	2
 1028              		.global	CySysWdtReadMatch
 1029              		.code	16
 1030              		.thumb_func
 1031              		.type	CySysWdtReadMatch, %function
 1032              	CySysWdtReadMatch:
 1033              	.LFB21:
 869:.\Generated_Source\PSoC4/CyLib.c ****     {
 1034              		.loc 1 869 0
 1035              		.cfi_startproc
 1036              	.LVL55:
 1037 0000 00B5     		push	{lr}
 1038              	.LCFI11:
 1039              		.cfi_def_cfa_offset 4
 1040              		.cfi_offset 14, -4
 870:.\Generated_Source\PSoC4/CyLib.c ****         CYASSERT((counterNum == CY_SYS_WDT_COUNTER0) ||
 1041              		.loc 1 870 0
 1042 0002 0128     		cmp	r0, #1
 1043 0004 00D9     		bls	.L78
 1044              	.LVL56:
 1045              	.LBB128:
 1046              	.LBB129:
 1047              		.loc 1 1849 0
 1048              	@ 1849 ".\Generated_Source\PSoC4\CyLib.c" 1
 1049 0006 01BE     		    bkpt    1
 1050              	@ 0 "" 2
 1051              	.LVL57:
 1052              		.code	16
 1053              	.L78:
 1054              	.LBE129:
 1055              	.LBE128:
 872:.\Generated_Source\PSoC4/CyLib.c ****         return ((uint32)(CY_SYS_WDT_MATCH_REG >> (counterNum * CY_SYS_WDT_CNT_MATCH_SHIFT)) & CY_SY
 1056              		.loc 1 872 0
 1057 0008 034B     		ldr	r3, .L79
 1058 000a 0001     		lsl	r0, r0, #4
 1059              	.LVL58:
 1060 000c 1968     		ldr	r1, [r3]
 873:.\Generated_Source\PSoC4/CyLib.c ****     }
 1061              		.loc 1 873 0
 1062              		@ sp needed for prologue
ARM GAS  C:\Users\Steve\AppData\Local\Temp\ccc4U1xk.s 			page 54


 872:.\Generated_Source\PSoC4/CyLib.c ****         return ((uint32)(CY_SYS_WDT_MATCH_REG >> (counterNum * CY_SYS_WDT_CNT_MATCH_SHIFT)) & CY_SY
 1063              		.loc 1 872 0
 1064 000e C140     		lsr	r1, r1, r0
 1065 0010 0B04     		lsl	r3, r1, #16
 1066 0012 180C     		lsr	r0, r3, #16
 873:.\Generated_Source\PSoC4/CyLib.c ****     }
 1067              		.loc 1 873 0
 1068 0014 00BD     		pop	{pc}
 1069              	.L80:
 1070 0016 C046     		.align	2
 1071              	.L79:
 1072 0018 08020B40 		.word	1074463240
 1073              		.cfi_endproc
 1074              	.LFE21:
 1075              		.size	CySysWdtReadMatch, .-CySysWdtReadMatch
 1076              		.section	.text.CySysWdtReadCount,"ax",%progbits
 1077              		.align	2
 1078              		.global	CySysWdtReadCount
 1079              		.code	16
 1080              		.thumb_func
 1081              		.type	CySysWdtReadCount, %function
 1082              	CySysWdtReadCount:
 1083              	.LFB22:
 892:.\Generated_Source\PSoC4/CyLib.c ****     {
 1084              		.loc 1 892 0
 1085              		.cfi_startproc
 1086              	.LVL59:
 1087 0000 00B5     		push	{lr}
 1088              	.LCFI12:
 1089              		.cfi_def_cfa_offset 4
 1090              		.cfi_offset 14, -4
 895:.\Generated_Source\PSoC4/CyLib.c ****         switch(counterNum)
 1091              		.loc 1 895 0
 1092 0002 0128     		cmp	r0, #1
 1093 0004 0BD0     		beq	.L84
 1094 0006 0028     		cmp	r0, #0
 1095 0008 04D0     		beq	.L83
 1096 000a 0228     		cmp	r0, #2
 1097 000c 0BD0     		beq	.L88
 1098              	.LVL60:
 1099              	.LBB130:
 1100              	.LBB131:
 1101              		.loc 1 1849 0
 1102              	@ 1849 ".\Generated_Source\PSoC4\CyLib.c" 1
 1103 000e 01BE     		    bkpt    1
 1104              	@ 0 "" 2
 893:.\Generated_Source\PSoC4/CyLib.c ****         uint32 regValue = 0u;
 1105              		.loc 1 893 0
 1106              		.code	16
 1107 0010 0020     		mov	r0, #0
 1108              	.LVL61:
 1109              	.L86:
 1110              	.LBE131:
 1111              	.LBE130:
 918:.\Generated_Source\PSoC4/CyLib.c ****     }
 1112              		.loc 1 918 0
 1113              		@ sp needed for prologue
ARM GAS  C:\Users\Steve\AppData\Local\Temp\ccc4U1xk.s 			page 55


 1114 0012 00BD     		pop	{pc}
 1115              	.LVL62:
 1116              	.L83:
 899:.\Generated_Source\PSoC4/CyLib.c ****                 regValue = CY_SYS_WDT_CTRLOW_REG & CY_SYS_WDT_LOWER_16BITS_MASK;
 1117              		.loc 1 899 0
 1118 0014 0548     		ldr	r0, .L89
 1119              	.LVL63:
 1120 0016 0168     		ldr	r1, [r0]
 1121 0018 0A04     		lsl	r2, r1, #16
 1122 001a 100C     		lsr	r0, r2, #16
 1123              	.LVL64:
 900:.\Generated_Source\PSoC4/CyLib.c ****             break;
 1124              		.loc 1 900 0
 1125 001c F9E7     		b	.L86
 1126              	.LVL65:
 1127              	.L84:
 904:.\Generated_Source\PSoC4/CyLib.c ****                 regValue = (CY_SYS_WDT_CTRLOW_REG >> CY_SYS_WDT_CNT_MATCH_SHIFT) & CY_SYS_WDT_LOWER
 1128              		.loc 1 904 0
 1129 001e 034B     		ldr	r3, .L89
 1130 0020 1868     		ldr	r0, [r3]
 1131              	.LVL66:
 1132 0022 000C     		lsr	r0, r0, #16
 1133              	.LVL67:
 905:.\Generated_Source\PSoC4/CyLib.c ****             break;
 1134              		.loc 1 905 0
 1135 0024 F5E7     		b	.L86
 1136              	.LVL68:
 1137              	.L88:
 909:.\Generated_Source\PSoC4/CyLib.c ****                 regValue = CY_SYS_WDT_CTRHIGH_REG;
 1138              		.loc 1 909 0
 1139 0026 024B     		ldr	r3, .L89+4
 1140 0028 1868     		ldr	r0, [r3]
 1141              	.LVL69:
 910:.\Generated_Source\PSoC4/CyLib.c ****             break;
 1142              		.loc 1 910 0
 1143 002a F2E7     		b	.L86
 1144              	.L90:
 1145              		.align	2
 1146              	.L89:
 1147 002c 00020B40 		.word	1074463232
 1148 0030 04020B40 		.word	1074463236
 1149              		.cfi_endproc
 1150              	.LFE22:
 1151              		.size	CySysWdtReadCount, .-CySysWdtReadCount
 1152              		.section	.text.CySysWdtGetInterruptSource,"ax",%progbits
 1153              		.align	2
 1154              		.global	CySysWdtGetInterruptSource
 1155              		.code	16
 1156              		.thumb_func
 1157              		.type	CySysWdtGetInterruptSource, %function
 1158              	CySysWdtGetInterruptSource:
 1159              	.LFB23:
 941:.\Generated_Source\PSoC4/CyLib.c ****     {
 1160              		.loc 1 941 0
 1161              		.cfi_startproc
 942:.\Generated_Source\PSoC4/CyLib.c ****         return (CY_SYS_WDT_CONTROL_REG & (CY_SYS_WDT_COUNTER0_INT | CY_SYS_WDT_COUNTER1_INT | CY_SY
 1162              		.loc 1 942 0
ARM GAS  C:\Users\Steve\AppData\Local\Temp\ccc4U1xk.s 			page 56


 1163 0000 024B     		ldr	r3, .L92
 1164 0002 0349     		ldr	r1, .L92+4
 1165 0004 1868     		ldr	r0, [r3]
 943:.\Generated_Source\PSoC4/CyLib.c ****     }
 1166              		.loc 1 943 0
 1167              		@ sp needed for prologue
 942:.\Generated_Source\PSoC4/CyLib.c ****         return (CY_SYS_WDT_CONTROL_REG & (CY_SYS_WDT_COUNTER0_INT | CY_SYS_WDT_COUNTER1_INT | CY_SY
 1168              		.loc 1 942 0
 1169 0006 0840     		and	r0, r1
 943:.\Generated_Source\PSoC4/CyLib.c ****     }
 1170              		.loc 1 943 0
 1171 0008 7047     		bx	lr
 1172              	.L93:
 1173 000a C046     		.align	2
 1174              	.L92:
 1175 000c 10020B40 		.word	1074463248
 1176 0010 04040400 		.word	263172
 1177              		.cfi_endproc
 1178              	.LFE23:
 1179              		.size	CySysWdtGetInterruptSource, .-CySysWdtGetInterruptSource
 1180              		.section	.text.CySysWdtClearInterrupt,"ax",%progbits
 1181              		.align	2
 1182              		.global	CySysWdtClearInterrupt
 1183              		.code	16
 1184              		.thumb_func
 1185              		.type	CySysWdtClearInterrupt, %function
 1186              	CySysWdtClearInterrupt:
 1187              	.LFB24:
 974:.\Generated_Source\PSoC4/CyLib.c ****     {
 1188              		.loc 1 974 0
 1189              		.cfi_startproc
 1190              	.LVL70:
 1191 0000 70B5     		push	{r4, r5, r6, lr}
 1192              	.LCFI13:
 1193              		.cfi_def_cfa_offset 16
 1194              		.cfi_offset 4, -16
 1195              		.cfi_offset 5, -12
 1196              		.cfi_offset 6, -8
 1197              		.cfi_offset 14, -4
 974:.\Generated_Source\PSoC4/CyLib.c ****     {
 1198              		.loc 1 974 0
 1199 0002 041C     		mov	r4, r0
 978:.\Generated_Source\PSoC4/CyLib.c ****         interruptState = CyEnterCriticalSection();
 1200              		.loc 1 978 0
 1201 0004 FFF7FEFF 		bl	CyEnterCriticalSection
 1202              	.LVL71:
 983:.\Generated_Source\PSoC4/CyLib.c ****         if (0u == (CY_SYS_CLK_ILO_CONFIG_REG & CY_SYS_CLK_ILO_CONFIG_ENABLE))
 1203              		.loc 1 983 0
 1204 0008 174B     		ldr	r3, .L100
 1205 000a 1A68     		ldr	r2, [r3]
 1206 000c 002A     		cmp	r2, #0
 1207 000e 04DB     		blt	.L95
 1208              	.LBB132:
 1209              	.LBB133:
  86:.\Generated_Source\PSoC4/CyLib.c ****     CY_SYS_CLK_ILO_CONFIG_REG |= CY_SYS_CLK_ILO_CONFIG_ENABLE;
 1210              		.loc 1 86 0
 1211 0010 1968     		ldr	r1, [r3]
ARM GAS  C:\Users\Steve\AppData\Local\Temp\ccc4U1xk.s 			page 57


 1212 0012 8025     		mov	r5, #128
 1213 0014 2E06     		lsl	r6, r5, #24
 1214 0016 0E43     		orr	r6, r1
 1215 0018 1E60     		str	r6, [r3]
 1216              	.L95:
 1217              	.LBE133:
 1218              	.LBE132:
 988:.\Generated_Source\PSoC4/CyLib.c ****         if ((CY_SYS_CLK_SELECT_REG & (uint32)(CY_SYS_WDT_CLK_LOCK_BITS_MASK)) == CY_SYS_WDT_CLK_LOC
 1219              		.loc 1 988 0
 1220 001a 144B     		ldr	r3, .L100+4
 1221 001c C022     		mov	r2, #192
 1222 001e 1968     		ldr	r1, [r3]
 1223 0020 1502     		lsl	r5, r2, #8
 1224 0022 2940     		and	r1, r5
 1225 0024 A942     		cmp	r1, r5
 1226 0026 08D0     		beq	.L99
 1227              	.LVL72:
1005:.\Generated_Source\PSoC4/CyLib.c ****         CY_SYS_WDT_CONTROL_REG |= (counterMask & (CY_SYS_WDT_COUNTER0_INT |
 1228              		.loc 1 1005 0
 1229 0028 114E     		ldr	r6, .L100+8
 1230 002a 1249     		ldr	r1, .L100+12
 1231 002c 3368     		ldr	r3, [r6]
 1232 002e 0C40     		and	r4, r1
 1233              	.LVL73:
 1234 0030 1C43     		orr	r4, r3
 1235 0032 3460     		str	r4, [r6]
 1236              	.LVL74:
 1237              	.L97:
1015:.\Generated_Source\PSoC4/CyLib.c ****         CyExitCriticalSection(interruptState);
 1238              		.loc 1 1015 0
 1239 0034 FFF7FEFF 		bl	CyExitCriticalSection
 1240              	.LVL75:
1016:.\Generated_Source\PSoC4/CyLib.c ****     }
 1241              		.loc 1 1016 0
 1242              		@ sp needed for prologue
 1243 0038 70BD     		pop	{r4, r5, r6, pc}
 1244              	.LVL76:
 1245              	.L99:
 993:.\Generated_Source\PSoC4/CyLib.c ****             CY_SYS_CLK_SELECT_REG = ((CY_SYS_CLK_SELECT_REG & (uint32)(~CY_SYS_WDT_CLK_LOCK_BITS_MA
 1246              		.loc 1 993 0
 1247 003a 1D68     		ldr	r5, [r3]
 1248 003c 0E4A     		ldr	r2, .L100+16
 1249 003e 8026     		mov	r6, #128
 1250 0040 1540     		and	r5, r2
 1251 0042 F601     		lsl	r6, r6, #7
 1252 0044 3543     		orr	r5, r6
 1253 0046 1D60     		str	r5, [r3]
 996:.\Generated_Source\PSoC4/CyLib.c ****             CY_SYS_CLK_SELECT_REG = ((CY_SYS_CLK_SELECT_REG & (uint32)(~CY_SYS_WDT_CLK_LOCK_BITS_MA
 1254              		.loc 1 996 0
 1255 0048 1D68     		ldr	r5, [r3]
 1256 004a 8026     		mov	r6, #128
 1257 004c 2A40     		and	r2, r5
 1258 004e 3502     		lsl	r5, r6, #8
 1259 0050 2A43     		orr	r2, r5
 1260 0052 1A60     		str	r2, [r3]
1005:.\Generated_Source\PSoC4/CyLib.c ****         CY_SYS_WDT_CONTROL_REG |= (counterMask & (CY_SYS_WDT_COUNTER0_INT |
 1261              		.loc 1 1005 0
ARM GAS  C:\Users\Steve\AppData\Local\Temp\ccc4U1xk.s 			page 58


 1262 0054 064A     		ldr	r2, .L100+8
 1263 0056 074E     		ldr	r6, .L100+12
 1264 0058 1568     		ldr	r5, [r2]
 1265 005a 3440     		and	r4, r6
 1266              	.LVL77:
 1267 005c 2C43     		orr	r4, r5
 1268 005e 1460     		str	r4, [r2]
1011:.\Generated_Source\PSoC4/CyLib.c ****             CY_SYS_CLK_SELECT_REG = (CY_SYS_CLK_SELECT_REG & (uint32)(~CY_SYS_WDT_CLK_LOCK_BITS_MAS
 1269              		.loc 1 1011 0
 1270 0060 1C68     		ldr	r4, [r3]
 1271 0062 2143     		orr	r1, r4
 1272 0064 1960     		str	r1, [r3]
 1273 0066 E5E7     		b	.L97
 1274              	.L101:
 1275              		.align	2
 1276              	.L100:
 1277 0068 04010B40 		.word	1074462980
 1278 006c 00010B40 		.word	1074462976
 1279 0070 10020B40 		.word	1074463248
 1280 0074 04040400 		.word	263172
 1281 0078 FF3FFFFF 		.word	-49153
 1282              		.cfi_endproc
 1283              	.LFE24:
 1284              		.size	CySysWdtClearInterrupt, .-CySysWdtClearInterrupt
 1285              		.section	.text.CySysWdtResetCounters,"ax",%progbits
 1286              		.align	2
 1287              		.global	CySysWdtResetCounters
 1288              		.code	16
 1289              		.thumb_func
 1290              		.type	CySysWdtResetCounters, %function
 1291              	CySysWdtResetCounters:
 1292              	.LFB25:
1042:.\Generated_Source\PSoC4/CyLib.c ****     {
 1293              		.loc 1 1042 0
 1294              		.cfi_startproc
 1295              	.LVL78:
1046:.\Generated_Source\PSoC4/CyLib.c ****         if (0u == (CY_SYS_CLK_ILO_CONFIG_REG & CY_SYS_CLK_ILO_CONFIG_ENABLE))
 1296              		.loc 1 1046 0
 1297 0000 084B     		ldr	r3, .L104
1042:.\Generated_Source\PSoC4/CyLib.c ****     {
 1298              		.loc 1 1042 0
 1299 0002 00B5     		push	{lr}
 1300              	.LCFI14:
 1301              		.cfi_def_cfa_offset 4
 1302              		.cfi_offset 14, -4
1046:.\Generated_Source\PSoC4/CyLib.c ****         if (0u == (CY_SYS_CLK_ILO_CONFIG_REG & CY_SYS_CLK_ILO_CONFIG_ENABLE))
 1303              		.loc 1 1046 0
 1304 0004 1A68     		ldr	r2, [r3]
 1305 0006 002A     		cmp	r2, #0
 1306 0008 04DB     		blt	.L103
 1307              	.LBB134:
 1308              	.LBB135:
  86:.\Generated_Source\PSoC4/CyLib.c ****     CY_SYS_CLK_ILO_CONFIG_REG |= CY_SYS_CLK_ILO_CONFIG_ENABLE;
 1309              		.loc 1 86 0
 1310 000a 1968     		ldr	r1, [r3]
 1311 000c 8022     		mov	r2, #128
 1312 000e 1206     		lsl	r2, r2, #24
ARM GAS  C:\Users\Steve\AppData\Local\Temp\ccc4U1xk.s 			page 59


 1313 0010 0A43     		orr	r2, r1
 1314 0012 1A60     		str	r2, [r3]
 1315              	.L103:
 1316              	.LBE135:
 1317              	.LBE134:
1052:.\Generated_Source\PSoC4/CyLib.c ****         CY_SYS_WDT_CONTROL_REG |= (countersMask & (CY_SYS_WDT_COUNTER0_RESET |
 1318              		.loc 1 1052 0
 1319 0014 044B     		ldr	r3, .L104+4
 1320 0016 0549     		ldr	r1, .L104+8
 1321 0018 1A68     		ldr	r2, [r3]
 1322 001a 0840     		and	r0, r1
 1323              	.LVL79:
 1324 001c 1043     		orr	r0, r2
 1325 001e 1860     		str	r0, [r3]
1054:.\Generated_Source\PSoC4/CyLib.c ****     }
 1326              		.loc 1 1054 0
 1327              		@ sp needed for prologue
 1328 0020 00BD     		pop	{pc}
 1329              	.L105:
 1330 0022 C046     		.align	2
 1331              	.L104:
 1332 0024 04010B40 		.word	1074462980
 1333 0028 10020B40 		.word	1074463248
 1334 002c 08080800 		.word	526344
 1335              		.cfi_endproc
 1336              	.LFE25:
 1337              		.size	CySysWdtResetCounters, .-CySysWdtResetCounters
 1338              		.section	.text.CySysLvdEnable,"ax",%progbits
 1339              		.align	2
 1340              		.global	CySysLvdEnable
 1341              		.code	16
 1342              		.thumb_func
 1343              		.type	CySysLvdEnable, %function
 1344              	CySysLvdEnable:
 1345              	.LFB26:
1427:.\Generated_Source\PSoC4/CyLib.c ****     {
 1346              		.loc 1 1427 0
 1347              		.cfi_startproc
 1348              	.LVL80:
1429:.\Generated_Source\PSoC4/CyLib.c ****         CY_LVD_PWR_VMON_CONFIG_REG = (CY_LVD_PWR_VMON_CONFIG_REG & ~CY_LVD_PWR_VMON_CONFIG_LVD_SEL_
 1349              		.loc 1 1429 0
 1350 0000 084B     		ldr	r3, .L107
1430:.\Generated_Source\PSoC4/CyLib.c ****                 ((threshold << CY_LVD_PWR_VMON_CONFIG_LVD_SEL_SHIFT) & CY_LVD_PWR_VMON_CONFIG_LVD_S
 1351              		.loc 1 1430 0
 1352 0002 1E22     		mov	r2, #30
1429:.\Generated_Source\PSoC4/CyLib.c ****         CY_LVD_PWR_VMON_CONFIG_REG = (CY_LVD_PWR_VMON_CONFIG_REG & ~CY_LVD_PWR_VMON_CONFIG_LVD_SEL_
 1353              		.loc 1 1429 0
 1354 0004 1968     		ldr	r1, [r3]
1430:.\Generated_Source\PSoC4/CyLib.c ****                 ((threshold << CY_LVD_PWR_VMON_CONFIG_LVD_SEL_SHIFT) & CY_LVD_PWR_VMON_CONFIG_LVD_S
 1355              		.loc 1 1430 0
 1356 0006 4000     		lsl	r0, r0, #1
 1357              	.LVL81:
1429:.\Generated_Source\PSoC4/CyLib.c ****         CY_LVD_PWR_VMON_CONFIG_REG = (CY_LVD_PWR_VMON_CONFIG_REG & ~CY_LVD_PWR_VMON_CONFIG_LVD_SEL_
 1358              		.loc 1 1429 0
 1359 0008 9143     		bic	r1, r2
1430:.\Generated_Source\PSoC4/CyLib.c ****                 ((threshold << CY_LVD_PWR_VMON_CONFIG_LVD_SEL_SHIFT) & CY_LVD_PWR_VMON_CONFIG_LVD_S
 1360              		.loc 1 1430 0
ARM GAS  C:\Users\Steve\AppData\Local\Temp\ccc4U1xk.s 			page 60


 1361 000a 1040     		and	r0, r2
1429:.\Generated_Source\PSoC4/CyLib.c ****         CY_LVD_PWR_VMON_CONFIG_REG = (CY_LVD_PWR_VMON_CONFIG_REG & ~CY_LVD_PWR_VMON_CONFIG_LVD_SEL_
 1362              		.loc 1 1429 0
 1363 000c 0843     		orr	r0, r1
 1364 000e 1860     		str	r0, [r3]
1432:.\Generated_Source\PSoC4/CyLib.c ****         CY_LVD_PWR_VMON_CONFIG_REG |= CY_LVD_PWR_VMON_CONFIG_LVD_EN;
 1365              		.loc 1 1432 0
 1366 0010 1868     		ldr	r0, [r3]
 1367 0012 0122     		mov	r2, #1
 1368 0014 0243     		orr	r2, r0
 1369 0016 1A60     		str	r2, [r3]
1433:.\Generated_Source\PSoC4/CyLib.c ****         CY_LVD_PWR_INTR_MASK_REG   |= CY_LVD_PROPAGATE_INT_TO_CPU;
 1370              		.loc 1 1433 0
 1371 0018 034B     		ldr	r3, .L107+4
 1372 001a 0220     		mov	r0, #2
 1373 001c 1968     		ldr	r1, [r3]
1434:.\Generated_Source\PSoC4/CyLib.c ****     }
 1374              		.loc 1 1434 0
 1375              		@ sp needed for prologue
1433:.\Generated_Source\PSoC4/CyLib.c ****         CY_LVD_PWR_INTR_MASK_REG   |= CY_LVD_PROPAGATE_INT_TO_CPU;
 1376              		.loc 1 1433 0
 1377 001e 0843     		orr	r0, r1
 1378 0020 1860     		str	r0, [r3]
1434:.\Generated_Source\PSoC4/CyLib.c ****     }
 1379              		.loc 1 1434 0
 1380 0022 7047     		bx	lr
 1381              	.L108:
 1382              		.align	2
 1383              	.L107:
 1384 0024 18000B40 		.word	1074462744
 1385 0028 08000B40 		.word	1074462728
 1386              		.cfi_endproc
 1387              	.LFE26:
 1388              		.size	CySysLvdEnable, .-CySysLvdEnable
 1389              		.section	.text.CySysLvdDisable,"ax",%progbits
 1390              		.align	2
 1391              		.global	CySysLvdDisable
 1392              		.code	16
 1393              		.thumb_func
 1394              		.type	CySysLvdDisable, %function
 1395              	CySysLvdDisable:
 1396              	.LFB27:
1452:.\Generated_Source\PSoC4/CyLib.c ****     {
 1397              		.loc 1 1452 0
 1398              		.cfi_startproc
1453:.\Generated_Source\PSoC4/CyLib.c ****         CY_LVD_PWR_INTR_MASK_REG   &= ~CY_LVD_PROPAGATE_INT_TO_CPU;
 1399              		.loc 1 1453 0
 1400 0000 054B     		ldr	r3, .L110
 1401 0002 0221     		mov	r1, #2
 1402 0004 1A68     		ldr	r2, [r3]
1454:.\Generated_Source\PSoC4/CyLib.c ****         CY_LVD_PWR_VMON_CONFIG_REG &= ~CY_LVD_PWR_VMON_CONFIG_LVD_EN;
 1403              		.loc 1 1454 0
 1404 0006 0548     		ldr	r0, .L110+4
1453:.\Generated_Source\PSoC4/CyLib.c ****         CY_LVD_PWR_INTR_MASK_REG   &= ~CY_LVD_PROPAGATE_INT_TO_CPU;
 1405              		.loc 1 1453 0
 1406 0008 8A43     		bic	r2, r1
 1407 000a 1A60     		str	r2, [r3]
ARM GAS  C:\Users\Steve\AppData\Local\Temp\ccc4U1xk.s 			page 61


1454:.\Generated_Source\PSoC4/CyLib.c ****         CY_LVD_PWR_VMON_CONFIG_REG &= ~CY_LVD_PWR_VMON_CONFIG_LVD_EN;
 1408              		.loc 1 1454 0
 1409 000c 0368     		ldr	r3, [r0]
 1410 000e 0122     		mov	r2, #1
 1411 0010 9343     		bic	r3, r2
 1412 0012 0360     		str	r3, [r0]
1455:.\Generated_Source\PSoC4/CyLib.c ****     }
 1413              		.loc 1 1455 0
 1414              		@ sp needed for prologue
 1415 0014 7047     		bx	lr
 1416              	.L111:
 1417 0016 C046     		.align	2
 1418              	.L110:
 1419 0018 08000B40 		.word	1074462728
 1420 001c 18000B40 		.word	1074462744
 1421              		.cfi_endproc
 1422              	.LFE27:
 1423              		.size	CySysLvdDisable, .-CySysLvdDisable
 1424              		.section	.text.CySysLvdGetInterruptSource,"ax",%progbits
 1425              		.align	2
 1426              		.global	CySysLvdGetInterruptSource
 1427              		.code	16
 1428              		.thumb_func
 1429              		.type	CySysLvdGetInterruptSource, %function
 1430              	CySysLvdGetInterruptSource:
 1431              	.LFB28:
1474:.\Generated_Source\PSoC4/CyLib.c ****     {
 1432              		.loc 1 1474 0
 1433              		.cfi_startproc
1475:.\Generated_Source\PSoC4/CyLib.c ****         return (CY_LVD_PWR_INTR_REG & CY_SYS_LVD_INT);
 1434              		.loc 1 1475 0
 1435 0000 024B     		ldr	r3, .L113
 1436 0002 0220     		mov	r0, #2
 1437 0004 1968     		ldr	r1, [r3]
1476:.\Generated_Source\PSoC4/CyLib.c ****     }
 1438              		.loc 1 1476 0
 1439              		@ sp needed for prologue
1475:.\Generated_Source\PSoC4/CyLib.c ****         return (CY_LVD_PWR_INTR_REG & CY_SYS_LVD_INT);
 1440              		.loc 1 1475 0
 1441 0006 0840     		and	r0, r1
1476:.\Generated_Source\PSoC4/CyLib.c ****     }
 1442              		.loc 1 1476 0
 1443 0008 7047     		bx	lr
 1444              	.L114:
 1445 000a C046     		.align	2
 1446              	.L113:
 1447 000c 04000B40 		.word	1074462724
 1448              		.cfi_endproc
 1449              	.LFE28:
 1450              		.size	CySysLvdGetInterruptSource, .-CySysLvdGetInterruptSource
 1451              		.section	.text.CySysLvdClearInterrupt,"ax",%progbits
 1452              		.align	2
 1453              		.global	CySysLvdClearInterrupt
 1454              		.code	16
 1455              		.thumb_func
 1456              		.type	CySysLvdClearInterrupt, %function
 1457              	CySysLvdClearInterrupt:
ARM GAS  C:\Users\Steve\AppData\Local\Temp\ccc4U1xk.s 			page 62


 1458              	.LFB29:
1494:.\Generated_Source\PSoC4/CyLib.c ****     {
 1459              		.loc 1 1494 0
 1460              		.cfi_startproc
1495:.\Generated_Source\PSoC4/CyLib.c ****         CY_LVD_PWR_INTR_REG = CY_SYS_LVD_INT;
 1461              		.loc 1 1495 0
 1462 0000 014B     		ldr	r3, .L116
 1463 0002 0222     		mov	r2, #2
 1464 0004 1A60     		str	r2, [r3]
1496:.\Generated_Source\PSoC4/CyLib.c ****     }
 1465              		.loc 1 1496 0
 1466              		@ sp needed for prologue
 1467 0006 7047     		bx	lr
 1468              	.L117:
 1469              		.align	2
 1470              	.L116:
 1471 0008 04000B40 		.word	1074462724
 1472              		.cfi_endproc
 1473              	.LFE29:
 1474              		.size	CySysLvdClearInterrupt, .-CySysLvdClearInterrupt
 1475              		.section	.text.CyDisableInts,"ax",%progbits
 1476              		.align	2
 1477              		.global	CyDisableInts
 1478              		.code	16
 1479              		.thumb_func
 1480              		.type	CyDisableInts, %function
 1481              	CyDisableInts:
 1482              	.LFB30:
1516:.\Generated_Source\PSoC4/CyLib.c **** {
 1483              		.loc 1 1516 0
 1484              		.cfi_startproc
1520:.\Generated_Source\PSoC4/CyLib.c ****     intState = CY_INT_CLEAR_REG;
 1485              		.loc 1 1520 0
 1486 0000 024B     		ldr	r3, .L119
1523:.\Generated_Source\PSoC4/CyLib.c ****     CY_INT_CLEAR_REG = CY_INT_CLEAR_DISABLE_ALL;
 1487              		.loc 1 1523 0
 1488 0002 0122     		mov	r2, #1
 1489 0004 5142     		neg	r1, r2
1520:.\Generated_Source\PSoC4/CyLib.c ****     intState = CY_INT_CLEAR_REG;
 1490              		.loc 1 1520 0
 1491 0006 1868     		ldr	r0, [r3]
 1492              	.LVL82:
1526:.\Generated_Source\PSoC4/CyLib.c **** }
 1493              		.loc 1 1526 0
 1494              		@ sp needed for prologue
1523:.\Generated_Source\PSoC4/CyLib.c ****     CY_INT_CLEAR_REG = CY_INT_CLEAR_DISABLE_ALL;
 1495              		.loc 1 1523 0
 1496 0008 1960     		str	r1, [r3]
1526:.\Generated_Source\PSoC4/CyLib.c **** }
 1497              		.loc 1 1526 0
 1498 000a 7047     		bx	lr
 1499              	.L120:
 1500              		.align	2
 1501              	.L119:
 1502 000c 80E100E0 		.word	-536813184
 1503              		.cfi_endproc
 1504              	.LFE30:
ARM GAS  C:\Users\Steve\AppData\Local\Temp\ccc4U1xk.s 			page 63


 1505              		.size	CyDisableInts, .-CyDisableInts
 1506              		.section	.text.CyEnableInts,"ax",%progbits
 1507              		.align	2
 1508              		.global	CyEnableInts
 1509              		.code	16
 1510              		.thumb_func
 1511              		.type	CyEnableInts, %function
 1512              	CyEnableInts:
 1513              	.LFB31:
1544:.\Generated_Source\PSoC4/CyLib.c **** {
 1514              		.loc 1 1544 0
 1515              		.cfi_startproc
 1516              	.LVL83:
1545:.\Generated_Source\PSoC4/CyLib.c ****     CY_INT_ENABLE_REG = mask;
 1517              		.loc 1 1545 0
 1518 0000 014B     		ldr	r3, .L122
1546:.\Generated_Source\PSoC4/CyLib.c **** }
 1519              		.loc 1 1546 0
 1520              		@ sp needed for prologue
1545:.\Generated_Source\PSoC4/CyLib.c ****     CY_INT_ENABLE_REG = mask;
 1521              		.loc 1 1545 0
 1522 0002 1860     		str	r0, [r3]
1546:.\Generated_Source\PSoC4/CyLib.c **** }
 1523              		.loc 1 1546 0
 1524 0004 7047     		bx	lr
 1525              	.L123:
 1526 0006 C046     		.align	2
 1527              	.L122:
 1528 0008 00E100E0 		.word	-536813312
 1529              		.cfi_endproc
 1530              	.LFE31:
 1531              		.size	CyEnableInts, .-CyEnableInts
 1532              		.section	.text.CyIntSetSysVector,"ax",%progbits
 1533              		.align	2
 1534              		.global	CyIntSetSysVector
 1535              		.code	16
 1536              		.thumb_func
 1537              		.type	CyIntSetSysVector, %function
 1538              	CyIntSetSysVector:
 1539              	.LFB32:
1566:.\Generated_Source\PSoC4/CyLib.c **** {
 1540              		.loc 1 1566 0
 1541              		.cfi_startproc
 1542              	.LVL84:
 1543 0000 00B5     		push	{lr}
 1544              	.LCFI15:
 1545              		.cfi_def_cfa_offset 4
 1546              		.cfi_offset 14, -4
1570:.\Generated_Source\PSoC4/CyLib.c ****     CYASSERT(number < CY_INT_IRQ_BASE);
 1547              		.loc 1 1570 0
 1548 0002 0F28     		cmp	r0, #15
 1549 0004 00D9     		bls	.L125
 1550              	.LVL85:
 1551              	.LBB136:
 1552              	.LBB137:
 1553              		.loc 1 1849 0
 1554              	@ 1849 ".\Generated_Source\PSoC4\CyLib.c" 1
ARM GAS  C:\Users\Steve\AppData\Local\Temp\ccc4U1xk.s 			page 64


 1555 0006 01BE     		    bkpt    1
 1556              	@ 0 "" 2
 1557              	.LVL86:
 1558              		.code	16
 1559              	.L125:
 1560              	.LBE137:
 1561              	.LBE136:
1573:.\Generated_Source\PSoC4/CyLib.c ****     oldIsr = ramVectorTable[number];
 1562              		.loc 1 1573 0
 1563 0008 8022     		mov	r2, #128
 1564 000a 8000     		lsl	r0, r0, #2
 1565              	.LVL87:
 1566 000c 9305     		lsl	r3, r2, #22
 1567 000e C218     		add	r2, r0, r3
 1568 0010 1068     		ldr	r0, [r2]
 1569              	.LVL88:
1579:.\Generated_Source\PSoC4/CyLib.c **** }
 1570              		.loc 1 1579 0
 1571              		@ sp needed for prologue
1576:.\Generated_Source\PSoC4/CyLib.c ****     ramVectorTable[number] = address;
 1572              		.loc 1 1576 0
 1573 0012 1160     		str	r1, [r2]
1579:.\Generated_Source\PSoC4/CyLib.c **** }
 1574              		.loc 1 1579 0
 1575 0014 00BD     		pop	{pc}
 1576              		.cfi_endproc
 1577              	.LFE32:
 1578              		.size	CyIntSetSysVector, .-CyIntSetSysVector
 1579 0016 C046     		.section	.text.CyIntGetSysVector,"ax",%progbits
 1580              		.align	2
 1581              		.global	CyIntGetSysVector
 1582              		.code	16
 1583              		.thumb_func
 1584              		.type	CyIntGetSysVector, %function
 1585              	CyIntGetSysVector:
 1586              	.LFB33:
1598:.\Generated_Source\PSoC4/CyLib.c **** {
 1587              		.loc 1 1598 0
 1588              		.cfi_startproc
 1589              	.LVL89:
 1590 0000 00B5     		push	{lr}
 1591              	.LCFI16:
 1592              		.cfi_def_cfa_offset 4
 1593              		.cfi_offset 14, -4
1601:.\Generated_Source\PSoC4/CyLib.c ****     CYASSERT(number < CY_INT_IRQ_BASE);
 1594              		.loc 1 1601 0
 1595 0002 0F28     		cmp	r0, #15
 1596 0004 00D9     		bls	.L127
 1597              	.LVL90:
 1598              	.LBB138:
 1599              	.LBB139:
 1600              		.loc 1 1849 0
 1601              	@ 1849 ".\Generated_Source\PSoC4\CyLib.c" 1
 1602 0006 01BE     		    bkpt    1
 1603              	@ 0 "" 2
 1604              	.LVL91:
 1605              		.code	16
ARM GAS  C:\Users\Steve\AppData\Local\Temp\ccc4U1xk.s 			page 65


 1606              	.L127:
 1607              	.LBE139:
 1608              	.LBE138:
1603:.\Generated_Source\PSoC4/CyLib.c ****     return(ramVectorTable[number]);
 1609              		.loc 1 1603 0
 1610 0008 8023     		mov	r3, #128
 1611 000a 8000     		lsl	r0, r0, #2
 1612              	.LVL92:
 1613 000c 9905     		lsl	r1, r3, #22
 1614 000e 4218     		add	r2, r0, r1
 1615 0010 1068     		ldr	r0, [r2]
1604:.\Generated_Source\PSoC4/CyLib.c **** }
 1616              		.loc 1 1604 0
 1617              		@ sp needed for prologue
 1618 0012 00BD     		pop	{pc}
 1619              		.cfi_endproc
 1620              	.LFE33:
 1621              		.size	CyIntGetSysVector, .-CyIntGetSysVector
 1622              		.section	.text.CyIntSetVector,"ax",%progbits
 1623              		.align	2
 1624              		.global	CyIntSetVector
 1625              		.code	16
 1626              		.thumb_func
 1627              		.type	CyIntSetVector, %function
 1628              	CyIntSetVector:
 1629              	.LFB34:
1623:.\Generated_Source\PSoC4/CyLib.c **** {
 1630              		.loc 1 1623 0
 1631              		.cfi_startproc
 1632              	.LVL93:
 1633 0000 00B5     		push	{lr}
 1634              	.LCFI17:
 1635              		.cfi_def_cfa_offset 4
 1636              		.cfi_offset 14, -4
1627:.\Generated_Source\PSoC4/CyLib.c ****     CYASSERT(number < CY_NUM_INTERRUPTS);
 1637              		.loc 1 1627 0
 1638 0002 1F28     		cmp	r0, #31
 1639 0004 00D9     		bls	.L129
 1640              	.LVL94:
 1641              	.LBB140:
 1642              	.LBB141:
 1643              		.loc 1 1849 0
 1644              	@ 1849 ".\Generated_Source\PSoC4\CyLib.c" 1
 1645 0006 01BE     		    bkpt    1
 1646              	@ 0 "" 2
 1647              	.LVL95:
 1648              		.code	16
 1649              	.L129:
 1650              	.LBE141:
 1651              	.LBE140:
1630:.\Generated_Source\PSoC4/CyLib.c ****     oldIsr = ramVectorTable[CY_INT_IRQ_BASE + number];
 1652              		.loc 1 1630 0
 1653 0008 024A     		ldr	r2, .L130
 1654 000a 8000     		lsl	r0, r0, #2
 1655              	.LVL96:
 1656 000c 8318     		add	r3, r0, r2
 1657 000e 1868     		ldr	r0, [r3]
ARM GAS  C:\Users\Steve\AppData\Local\Temp\ccc4U1xk.s 			page 66


 1658              	.LVL97:
1636:.\Generated_Source\PSoC4/CyLib.c **** }
 1659              		.loc 1 1636 0
 1660              		@ sp needed for prologue
1633:.\Generated_Source\PSoC4/CyLib.c ****     ramVectorTable[CY_INT_IRQ_BASE + number] = address;
 1661              		.loc 1 1633 0
 1662 0010 1960     		str	r1, [r3]
1636:.\Generated_Source\PSoC4/CyLib.c **** }
 1663              		.loc 1 1636 0
 1664 0012 00BD     		pop	{pc}
 1665              	.L131:
 1666              		.align	2
 1667              	.L130:
 1668 0014 40000020 		.word	536870976
 1669              		.cfi_endproc
 1670              	.LFE34:
 1671              		.size	CyIntSetVector, .-CyIntSetVector
 1672              		.section	.text.CyIntGetVector,"ax",%progbits
 1673              		.align	2
 1674              		.global	CyIntGetVector
 1675              		.code	16
 1676              		.thumb_func
 1677              		.type	CyIntGetVector, %function
 1678              	CyIntGetVector:
 1679              	.LFB35:
1654:.\Generated_Source\PSoC4/CyLib.c **** {
 1680              		.loc 1 1654 0
 1681              		.cfi_startproc
 1682              	.LVL98:
 1683 0000 00B5     		push	{lr}
 1684              	.LCFI18:
 1685              		.cfi_def_cfa_offset 4
 1686              		.cfi_offset 14, -4
1657:.\Generated_Source\PSoC4/CyLib.c ****     CYASSERT(number < CY_NUM_INTERRUPTS);
 1687              		.loc 1 1657 0
 1688 0002 1F28     		cmp	r0, #31
 1689 0004 00D9     		bls	.L133
 1690              	.LVL99:
 1691              	.LBB142:
 1692              	.LBB143:
 1693              		.loc 1 1849 0
 1694              	@ 1849 ".\Generated_Source\PSoC4\CyLib.c" 1
 1695 0006 01BE     		    bkpt    1
 1696              	@ 0 "" 2
 1697              	.LVL100:
 1698              		.code	16
 1699              	.L133:
 1700              	.LBE143:
 1701              	.LBE142:
1659:.\Generated_Source\PSoC4/CyLib.c ****     return (ramVectorTable[CY_INT_IRQ_BASE + number]);
 1702              		.loc 1 1659 0
 1703 0008 024B     		ldr	r3, .L134
 1704 000a 8000     		lsl	r0, r0, #2
 1705              	.LVL101:
 1706 000c C118     		add	r1, r0, r3
 1707 000e 0868     		ldr	r0, [r1]
1660:.\Generated_Source\PSoC4/CyLib.c **** }
ARM GAS  C:\Users\Steve\AppData\Local\Temp\ccc4U1xk.s 			page 67


 1708              		.loc 1 1660 0
 1709              		@ sp needed for prologue
 1710 0010 00BD     		pop	{pc}
 1711              	.L135:
 1712 0012 C046     		.align	2
 1713              	.L134:
 1714 0014 40000020 		.word	536870976
 1715              		.cfi_endproc
 1716              	.LFE35:
 1717              		.size	CyIntGetVector, .-CyIntGetVector
 1718              		.section	.text.CyIntSetPriority,"ax",%progbits
 1719              		.align	2
 1720              		.global	CyIntSetPriority
 1721              		.code	16
 1722              		.thumb_func
 1723              		.type	CyIntSetPriority, %function
 1724              	CyIntSetPriority:
 1725              	.LFB36:
1678:.\Generated_Source\PSoC4/CyLib.c **** {
 1726              		.loc 1 1678 0
 1727              		.cfi_startproc
 1728              	.LVL102:
 1729 0000 38B5     		push	{r3, r4, r5, lr}
 1730              	.LCFI19:
 1731              		.cfi_def_cfa_offset 16
 1732              		.cfi_offset 3, -16
 1733              		.cfi_offset 4, -12
 1734              		.cfi_offset 5, -8
 1735              		.cfi_offset 14, -4
1678:.\Generated_Source\PSoC4/CyLib.c **** {
 1736              		.loc 1 1678 0
 1737 0002 041C     		mov	r4, r0
 1738 0004 0D1E     		sub	r5, r1, #0
1683:.\Generated_Source\PSoC4/CyLib.c ****     CYASSERT(priority <= CY_MIN_PRIORITY);
 1739              		.loc 1 1683 0
 1740 0006 032D     		cmp	r5, #3
 1741 0008 00D9     		bls	.L137
 1742              	.LVL103:
 1743              	.LBB144:
 1744              	.LBB145:
 1745              		.loc 1 1849 0
 1746              	@ 1849 ".\Generated_Source\PSoC4\CyLib.c" 1
 1747 000a 01BE     		    bkpt    1
 1748              	@ 0 "" 2
 1749              	.LVL104:
 1750              		.code	16
 1751              	.L137:
 1752              	.LBE145:
 1753              	.LBE144:
1684:.\Generated_Source\PSoC4/CyLib.c ****     CYASSERT(number < CY_NUM_INTERRUPTS);
 1754              		.loc 1 1684 0
 1755 000c 1F2C     		cmp	r4, #31
 1756 000e 00D9     		bls	.L138
 1757              	.LVL105:
 1758              	.LBB146:
 1759              	.LBB147:
 1760              		.loc 1 1849 0
ARM GAS  C:\Users\Steve\AppData\Local\Temp\ccc4U1xk.s 			page 68


 1761              	@ 1849 ".\Generated_Source\PSoC4\CyLib.c" 1
 1762 0010 01BE     		    bkpt    1
 1763              	@ 0 "" 2
 1764              	.LVL106:
 1765              		.code	16
 1766              	.L138:
 1767              	.LBE147:
 1768              	.LBE146:
1688:.\Generated_Source\PSoC4/CyLib.c ****     interruptState = CyEnterCriticalSection();
 1769              		.loc 1 1688 0
 1770 0012 FFF7FEFF 		bl	CyEnterCriticalSection
 1771              	.LVL107:
1690:.\Generated_Source\PSoC4/CyLib.c ****     value = CY_INT_PRIORITY_REG(number);
 1772              		.loc 1 1690 0
 1773 0016 A308     		lsr	r3, r4, #2
 1774 0018 084A     		ldr	r2, .L139
 1775 001a 9900     		lsl	r1, r3, #2
 1776 001c 8B18     		add	r3, r1, r2
1686:.\Generated_Source\PSoC4/CyLib.c ****     shift = CY_INT_PRIORITY_SHIFT(number);
 1777              		.loc 1 1686 0
 1778 001e 0322     		mov	r2, #3
 1779 0020 1440     		and	r4, r2
 1780              	.LVL108:
 1781 0022 E400     		lsl	r4, r4, #3
1690:.\Generated_Source\PSoC4/CyLib.c ****     value = CY_INT_PRIORITY_REG(number);
 1782              		.loc 1 1690 0
 1783 0024 1968     		ldr	r1, [r3]
 1784              	.LVL109:
1686:.\Generated_Source\PSoC4/CyLib.c ****     shift = CY_INT_PRIORITY_SHIFT(number);
 1785              		.loc 1 1686 0
 1786 0026 0634     		add	r4, r4, #6
1691:.\Generated_Source\PSoC4/CyLib.c ****     value &= (uint32)(~((uint32)(CY_INT_PRIORITY_MASK << shift)));
 1787              		.loc 1 1691 0
 1788 0028 A240     		lsl	r2, r2, r4
 1789 002a 9143     		bic	r1, r2
 1790              	.LVL110:
1692:.\Generated_Source\PSoC4/CyLib.c ****     value |= ((uint32)priority << shift);
 1791              		.loc 1 1692 0
 1792 002c A540     		lsl	r5, r5, r4
 1793 002e 0A1C     		mov	r2, r1
 1794 0030 2A43     		orr	r2, r5
 1795              	.LVL111:
1693:.\Generated_Source\PSoC4/CyLib.c ****     CY_INT_PRIORITY_REG(number) = value;
 1796              		.loc 1 1693 0
 1797 0032 1A60     		str	r2, [r3]
1695:.\Generated_Source\PSoC4/CyLib.c ****     CyExitCriticalSection(interruptState);
 1798              		.loc 1 1695 0
 1799 0034 FFF7FEFF 		bl	CyExitCriticalSection
 1800              	.LVL112:
1696:.\Generated_Source\PSoC4/CyLib.c **** }
 1801              		.loc 1 1696 0
 1802              		@ sp needed for prologue
 1803 0038 38BD     		pop	{r3, r4, r5, pc}
 1804              	.L140:
 1805 003a C046     		.align	2
 1806              	.L139:
 1807 003c 00E400E0 		.word	-536812544
ARM GAS  C:\Users\Steve\AppData\Local\Temp\ccc4U1xk.s 			page 69


 1808              		.cfi_endproc
 1809              	.LFE36:
 1810              		.size	CyIntSetPriority, .-CyIntSetPriority
 1811              		.section	.text.CyIntGetPriority,"ax",%progbits
 1812              		.align	2
 1813              		.global	CyIntGetPriority
 1814              		.code	16
 1815              		.thumb_func
 1816              		.type	CyIntGetPriority, %function
 1817              	CyIntGetPriority:
 1818              	.LFB37:
1714:.\Generated_Source\PSoC4/CyLib.c **** {
 1819              		.loc 1 1714 0
 1820              		.cfi_startproc
 1821              	.LVL113:
 1822 0000 00B5     		push	{lr}
 1823              	.LCFI20:
 1824              		.cfi_def_cfa_offset 4
 1825              		.cfi_offset 14, -4
1717:.\Generated_Source\PSoC4/CyLib.c ****     CYASSERT(number < CY_NUM_INTERRUPTS);
 1826              		.loc 1 1717 0
 1827 0002 1F28     		cmp	r0, #31
 1828 0004 00D9     		bls	.L142
 1829              	.LVL114:
 1830              	.LBB148:
 1831              	.LBB149:
 1832              		.loc 1 1849 0
 1833              	@ 1849 ".\Generated_Source\PSoC4\CyLib.c" 1
 1834 0006 01BE     		    bkpt    1
 1835              	@ 0 "" 2
 1836              	.LVL115:
 1837              		.code	16
 1838              	.L142:
 1839              	.LBE149:
 1840              	.LBE148:
1719:.\Generated_Source\PSoC4/CyLib.c ****     priority = (uint8) (CY_INT_PRIORITY_REG(number) >> CY_INT_PRIORITY_SHIFT(number));
 1841              		.loc 1 1719 0
 1842 0008 8308     		lsr	r3, r0, #2
 1843 000a 064A     		ldr	r2, .L143
 1844 000c 9900     		lsl	r1, r3, #2
 1845 000e 8B18     		add	r3, r1, r2
 1846 0010 0322     		mov	r2, #3
 1847 0012 1040     		and	r0, r2
 1848              	.LVL116:
 1849 0014 1968     		ldr	r1, [r3]
 1850 0016 C000     		lsl	r0, r0, #3
 1851 0018 0630     		add	r0, r0, #6
 1852 001a C140     		lsr	r1, r1, r0
 1853 001c 081C     		mov	r0, r1
1721:.\Generated_Source\PSoC4/CyLib.c ****     return (priority & (uint8) CY_INT_PRIORITY_MASK);
 1854              		.loc 1 1721 0
 1855 001e 1040     		and	r0, r2
1722:.\Generated_Source\PSoC4/CyLib.c **** }
 1856              		.loc 1 1722 0
 1857              		@ sp needed for prologue
 1858 0020 00BD     		pop	{pc}
 1859              	.L144:
ARM GAS  C:\Users\Steve\AppData\Local\Temp\ccc4U1xk.s 			page 70


 1860 0022 C046     		.align	2
 1861              	.L143:
 1862 0024 00E400E0 		.word	-536812544
 1863              		.cfi_endproc
 1864              	.LFE37:
 1865              		.size	CyIntGetPriority, .-CyIntGetPriority
 1866              		.section	.text.CyIntEnable,"ax",%progbits
 1867              		.align	2
 1868              		.global	CyIntEnable
 1869              		.code	16
 1870              		.thumb_func
 1871              		.type	CyIntEnable, %function
 1872              	CyIntEnable:
 1873              	.LFB38:
1740:.\Generated_Source\PSoC4/CyLib.c **** {
 1874              		.loc 1 1740 0
 1875              		.cfi_startproc
 1876              	.LVL117:
1741:.\Generated_Source\PSoC4/CyLib.c ****     CY_INT_ENABLE_REG = ((uint32) 0x01u << (CY_INT_ENABLE_RANGE_MASK & number));
 1877              		.loc 1 1741 0
 1878 0000 1F23     		mov	r3, #31
 1879 0002 1840     		and	r0, r3
 1880              	.LVL118:
 1881 0004 024A     		ldr	r2, .L146
 1882 0006 0121     		mov	r1, #1
 1883 0008 8140     		lsl	r1, r1, r0
 1884 000a 1160     		str	r1, [r2]
1742:.\Generated_Source\PSoC4/CyLib.c **** }
 1885              		.loc 1 1742 0
 1886              		@ sp needed for prologue
 1887 000c 7047     		bx	lr
 1888              	.L147:
 1889 000e C046     		.align	2
 1890              	.L146:
 1891 0010 00E100E0 		.word	-536813312
 1892              		.cfi_endproc
 1893              	.LFE38:
 1894              		.size	CyIntEnable, .-CyIntEnable
 1895              		.section	.text.CyIntGetState,"ax",%progbits
 1896              		.align	2
 1897              		.global	CyIntGetState
 1898              		.code	16
 1899              		.thumb_func
 1900              		.type	CyIntGetState, %function
 1901              	CyIntGetState:
 1902              	.LFB39:
1760:.\Generated_Source\PSoC4/CyLib.c **** {
 1903              		.loc 1 1760 0
 1904              		.cfi_startproc
 1905              	.LVL119:
1762:.\Generated_Source\PSoC4/CyLib.c ****     return ((0u != (CY_INT_ENABLE_REG & ((uint32) 0x01u << (CY_INT_ENABLE_RANGE_MASK & number)))) ?
 1906              		.loc 1 1762 0
 1907 0000 044B     		ldr	r3, .L149
 1908 0002 1F22     		mov	r2, #31
 1909 0004 1968     		ldr	r1, [r3]
 1910 0006 1040     		and	r0, r2
 1911              	.LVL120:
ARM GAS  C:\Users\Steve\AppData\Local\Temp\ccc4U1xk.s 			page 71


 1912 0008 C140     		lsr	r1, r1, r0
 1913 000a 081C     		mov	r0, r1
 1914 000c 0123     		mov	r3, #1
 1915 000e 1840     		and	r0, r3
1763:.\Generated_Source\PSoC4/CyLib.c **** }
 1916              		.loc 1 1763 0
 1917              		@ sp needed for prologue
 1918 0010 7047     		bx	lr
 1919              	.L150:
 1920 0012 C046     		.align	2
 1921              	.L149:
 1922 0014 00E100E0 		.word	-536813312
 1923              		.cfi_endproc
 1924              	.LFE39:
 1925              		.size	CyIntGetState, .-CyIntGetState
 1926              		.section	.text.CyIntDisable,"ax",%progbits
 1927              		.align	2
 1928              		.global	CyIntDisable
 1929              		.code	16
 1930              		.thumb_func
 1931              		.type	CyIntDisable, %function
 1932              	CyIntDisable:
 1933              	.LFB40:
1781:.\Generated_Source\PSoC4/CyLib.c **** {
 1934              		.loc 1 1781 0
 1935              		.cfi_startproc
 1936              	.LVL121:
1782:.\Generated_Source\PSoC4/CyLib.c ****     CY_INT_CLEAR_REG = ((uint32) 0x01u << (CY_INT_ENABLE_RANGE_MASK & number));
 1937              		.loc 1 1782 0
 1938 0000 1F23     		mov	r3, #31
 1939 0002 1840     		and	r0, r3
 1940              	.LVL122:
 1941 0004 024A     		ldr	r2, .L152
 1942 0006 0121     		mov	r1, #1
 1943 0008 8140     		lsl	r1, r1, r0
 1944 000a 1160     		str	r1, [r2]
1783:.\Generated_Source\PSoC4/CyLib.c **** }
 1945              		.loc 1 1783 0
 1946              		@ sp needed for prologue
 1947 000c 7047     		bx	lr
 1948              	.L153:
 1949 000e C046     		.align	2
 1950              	.L152:
 1951 0010 80E100E0 		.word	-536813184
 1952              		.cfi_endproc
 1953              	.LFE40:
 1954              		.size	CyIntDisable, .-CyIntDisable
 1955              		.section	.text.CyIntSetPending,"ax",%progbits
 1956              		.align	2
 1957              		.global	CyIntSetPending
 1958              		.code	16
 1959              		.thumb_func
 1960              		.type	CyIntSetPending, %function
 1961              	CyIntSetPending:
 1962              	.LFB41:
1800:.\Generated_Source\PSoC4/CyLib.c **** {
 1963              		.loc 1 1800 0
ARM GAS  C:\Users\Steve\AppData\Local\Temp\ccc4U1xk.s 			page 72


 1964              		.cfi_startproc
 1965              	.LVL123:
1801:.\Generated_Source\PSoC4/CyLib.c ****     CY_INT_SET_PEND_REG = ((uint32) 0x01u << (CY_INT_ENABLE_RANGE_MASK & number));
 1966              		.loc 1 1801 0
 1967 0000 1F23     		mov	r3, #31
 1968 0002 1840     		and	r0, r3
 1969              	.LVL124:
 1970 0004 024A     		ldr	r2, .L155
 1971 0006 0121     		mov	r1, #1
 1972 0008 8140     		lsl	r1, r1, r0
 1973 000a 1160     		str	r1, [r2]
1802:.\Generated_Source\PSoC4/CyLib.c **** }
 1974              		.loc 1 1802 0
 1975              		@ sp needed for prologue
 1976 000c 7047     		bx	lr
 1977              	.L156:
 1978 000e C046     		.align	2
 1979              	.L155:
 1980 0010 00E200E0 		.word	-536813056
 1981              		.cfi_endproc
 1982              	.LFE41:
 1983              		.size	CyIntSetPending, .-CyIntSetPending
 1984              		.section	.text.CyIntClearPending,"ax",%progbits
 1985              		.align	2
 1986              		.global	CyIntClearPending
 1987              		.code	16
 1988              		.thumb_func
 1989              		.type	CyIntClearPending, %function
 1990              	CyIntClearPending:
 1991              	.LFB42:
1820:.\Generated_Source\PSoC4/CyLib.c **** {
 1992              		.loc 1 1820 0
 1993              		.cfi_startproc
 1994              	.LVL125:
1821:.\Generated_Source\PSoC4/CyLib.c ****     CY_INT_CLR_PEND_REG = ((uint32) 0x01u << (CY_INT_ENABLE_RANGE_MASK & number));
 1995              		.loc 1 1821 0
 1996 0000 1F23     		mov	r3, #31
 1997 0002 1840     		and	r0, r3
 1998              	.LVL126:
 1999 0004 024A     		ldr	r2, .L158
 2000 0006 0121     		mov	r1, #1
 2001 0008 8140     		lsl	r1, r1, r0
 2002 000a 1160     		str	r1, [r2]
1822:.\Generated_Source\PSoC4/CyLib.c **** }
 2003              		.loc 1 1822 0
 2004              		@ sp needed for prologue
 2005 000c 7047     		bx	lr
 2006              	.L159:
 2007 000e C046     		.align	2
 2008              	.L158:
 2009 0010 80E200E0 		.word	-536812928
 2010              		.cfi_endproc
 2011              	.LFE42:
 2012              		.size	CyIntClearPending, .-CyIntClearPending
 2013              		.section	.text.CyHalt,"ax",%progbits
 2014              		.align	2
 2015              		.global	CyHalt
ARM GAS  C:\Users\Steve\AppData\Local\Temp\ccc4U1xk.s 			page 73


 2016              		.code	16
 2017              		.thumb_func
 2018              		.type	CyHalt, %function
 2019              	CyHalt:
 2020              	.LFB43:
1840:.\Generated_Source\PSoC4/CyLib.c **** {
 2021              		.loc 1 1840 0
 2022              		.cfi_startproc
 2023              	.LVL127:
 2024              		.loc 1 1849 0
 2025              	@ 1849 ".\Generated_Source\PSoC4\CyLib.c" 1
 2026 0000 01BE     		    bkpt    1
 2027              	@ 0 "" 2
1850:.\Generated_Source\PSoC4/CyLib.c ****     #elif defined(__C51__)
1851:.\Generated_Source\PSoC4/CyLib.c ****         CYDEV_HALT_CPU;
1852:.\Generated_Source\PSoC4/CyLib.c ****     #endif  /* (__ARMCC_VERSION) */
1853:.\Generated_Source\PSoC4/CyLib.c **** }
 2028              		.loc 1 1853 0
 2029              		.code	16
 2030              		@ sp needed for prologue
 2031 0002 7047     		bx	lr
 2032              		.cfi_endproc
 2033              	.LFE43:
 2034              		.size	CyHalt, .-CyHalt
 2035              		.section	.text.CySoftwareReset,"ax",%progbits
 2036              		.align	2
 2037              		.global	CySoftwareReset
 2038              		.code	16
 2039              		.thumb_func
 2040              		.type	CySoftwareReset, %function
 2041              	CySoftwareReset:
 2042              	.LFB44:
1854:.\Generated_Source\PSoC4/CyLib.c **** 
1855:.\Generated_Source\PSoC4/CyLib.c **** 
1856:.\Generated_Source\PSoC4/CyLib.c **** /*******************************************************************************
1857:.\Generated_Source\PSoC4/CyLib.c **** * Function Name: CySoftwareReset
1858:.\Generated_Source\PSoC4/CyLib.c **** ********************************************************************************
1859:.\Generated_Source\PSoC4/CyLib.c **** *
1860:.\Generated_Source\PSoC4/CyLib.c **** * Summary:
1861:.\Generated_Source\PSoC4/CyLib.c **** *  Forces a software reset of the device.
1862:.\Generated_Source\PSoC4/CyLib.c **** *
1863:.\Generated_Source\PSoC4/CyLib.c **** * Parameters:
1864:.\Generated_Source\PSoC4/CyLib.c **** *  None
1865:.\Generated_Source\PSoC4/CyLib.c **** *
1866:.\Generated_Source\PSoC4/CyLib.c **** * Return:
1867:.\Generated_Source\PSoC4/CyLib.c **** *  None
1868:.\Generated_Source\PSoC4/CyLib.c **** *
1869:.\Generated_Source\PSoC4/CyLib.c **** *******************************************************************************/
1870:.\Generated_Source\PSoC4/CyLib.c **** void CySoftwareReset(void)
1871:.\Generated_Source\PSoC4/CyLib.c **** {
 2043              		.loc 1 1871 0
 2044              		.cfi_startproc
1872:.\Generated_Source\PSoC4/CyLib.c ****     /***************************************************************************
1873:.\Generated_Source\PSoC4/CyLib.c ****     * Setting the system reset request bit. The vector key value must be written
1874:.\Generated_Source\PSoC4/CyLib.c ****     * to the register, otherwise the register write is unpredictable.
1875:.\Generated_Source\PSoC4/CyLib.c ****     ***************************************************************************/
1876:.\Generated_Source\PSoC4/CyLib.c ****     CY_SYS_CM0_AIRCR_REG = (CY_SYS_CM0_AIRCR_REG & (uint32)(~CY_SYS_CM0_AIRCR_VECTKEY_MASK)) |
ARM GAS  C:\Users\Steve\AppData\Local\Temp\ccc4U1xk.s 			page 74


 2045              		.loc 1 1876 0
 2046 0000 034B     		ldr	r3, .L162
1877:.\Generated_Source\PSoC4/CyLib.c ****                             CY_SYS_CM0_AIRCR_VECTKEY | CY_SYS_CM0_AIRCR_SYSRESETREQ;
 2047              		.loc 1 1877 0
 2048 0002 0449     		ldr	r1, .L162+4
1876:.\Generated_Source\PSoC4/CyLib.c ****     CY_SYS_CM0_AIRCR_REG = (CY_SYS_CM0_AIRCR_REG & (uint32)(~CY_SYS_CM0_AIRCR_VECTKEY_MASK)) |
 2049              		.loc 1 1876 0
 2050 0004 1A68     		ldr	r2, [r3]
1878:.\Generated_Source\PSoC4/CyLib.c **** }
 2051              		.loc 1 1878 0
 2052              		@ sp needed for prologue
1876:.\Generated_Source\PSoC4/CyLib.c ****     CY_SYS_CM0_AIRCR_REG = (CY_SYS_CM0_AIRCR_REG & (uint32)(~CY_SYS_CM0_AIRCR_VECTKEY_MASK)) |
 2053              		.loc 1 1876 0
 2054 0006 1004     		lsl	r0, r2, #16
 2055 0008 020C     		lsr	r2, r0, #16
1877:.\Generated_Source\PSoC4/CyLib.c ****                             CY_SYS_CM0_AIRCR_VECTKEY | CY_SYS_CM0_AIRCR_SYSRESETREQ;
 2056              		.loc 1 1877 0
 2057 000a 0A43     		orr	r2, r1
1876:.\Generated_Source\PSoC4/CyLib.c ****     CY_SYS_CM0_AIRCR_REG = (CY_SYS_CM0_AIRCR_REG & (uint32)(~CY_SYS_CM0_AIRCR_VECTKEY_MASK)) |
 2058              		.loc 1 1876 0
 2059 000c 1A60     		str	r2, [r3]
 2060              		.loc 1 1878 0
 2061 000e 7047     		bx	lr
 2062              	.L163:
 2063              		.align	2
 2064              	.L162:
 2065 0010 0CED00E0 		.word	-536810228
 2066 0014 0400FA05 		.word	100270084
 2067              		.cfi_endproc
 2068              	.LFE44:
 2069              		.size	CySoftwareReset, .-CySoftwareReset
 2070              		.section	.text.CyDelay,"ax",%progbits
 2071              		.align	2
 2072              		.global	CyDelay
 2073              		.code	16
 2074              		.thumb_func
 2075              		.type	CyDelay, %function
 2076              	CyDelay:
 2077              	.LFB45:
1879:.\Generated_Source\PSoC4/CyLib.c **** 
1880:.\Generated_Source\PSoC4/CyLib.c **** 
1881:.\Generated_Source\PSoC4/CyLib.c **** /*******************************************************************************
1882:.\Generated_Source\PSoC4/CyLib.c **** * Function Name: CyDelay
1883:.\Generated_Source\PSoC4/CyLib.c **** ********************************************************************************
1884:.\Generated_Source\PSoC4/CyLib.c **** *
1885:.\Generated_Source\PSoC4/CyLib.c **** * Summary:
1886:.\Generated_Source\PSoC4/CyLib.c **** *  Blocks for milliseconds.
1887:.\Generated_Source\PSoC4/CyLib.c **** *
1888:.\Generated_Source\PSoC4/CyLib.c **** * Parameters:
1889:.\Generated_Source\PSoC4/CyLib.c **** *  milliseconds: number of milliseconds to delay.
1890:.\Generated_Source\PSoC4/CyLib.c **** *
1891:.\Generated_Source\PSoC4/CyLib.c **** * Return:
1892:.\Generated_Source\PSoC4/CyLib.c **** *  None
1893:.\Generated_Source\PSoC4/CyLib.c **** *
1894:.\Generated_Source\PSoC4/CyLib.c **** *******************************************************************************/
1895:.\Generated_Source\PSoC4/CyLib.c **** void CyDelay(uint32 milliseconds)
1896:.\Generated_Source\PSoC4/CyLib.c **** {
ARM GAS  C:\Users\Steve\AppData\Local\Temp\ccc4U1xk.s 			page 75


 2078              		.loc 1 1896 0
 2079              		.cfi_startproc
 2080              	.LVL128:
 2081 0000 F0B5     		push	{r4, r5, r6, r7, lr}
 2082              	.LCFI21:
 2083              		.cfi_def_cfa_offset 20
 2084              		.cfi_offset 4, -20
 2085              		.cfi_offset 5, -16
 2086              		.cfi_offset 6, -12
 2087              		.cfi_offset 7, -8
 2088              		.cfi_offset 14, -4
 2089 0002 4746     		mov	r7, r8
 2090 0004 80B4     		push	{r7}
 2091              	.LCFI22:
 2092              		.cfi_def_cfa_offset 24
 2093              		.cfi_offset 8, -24
1897:.\Generated_Source\PSoC4/CyLib.c ****     while (milliseconds > CY_DELAY_MS_OVERFLOW)
 2094              		.loc 1 1897 0
 2095 0006 8027     		mov	r7, #128
1896:.\Generated_Source\PSoC4/CyLib.c **** {
 2096              		.loc 1 1896 0
 2097 0008 061C     		mov	r6, r0
 2098              		.loc 1 1897 0
 2099 000a 3F02     		lsl	r7, r7, #8
 2100 000c 184D     		ldr	r5, .L177
 2101 000e B842     		cmp	r0, r7
 2102 0010 26D9     		bls	.L165
 2103 0012 184A     		ldr	r2, .L177+4
1898:.\Generated_Source\PSoC4/CyLib.c ****     {
1899:.\Generated_Source\PSoC4/CyLib.c ****         /* This loop prevents overflow.
1900:.\Generated_Source\PSoC4/CyLib.c ****          * At 100MHz, milliseconds * cydelayFreqKhz overflows at about 42 seconds
1901:.\Generated_Source\PSoC4/CyLib.c ****          */
1902:.\Generated_Source\PSoC4/CyLib.c ****         CyDelayCycles(cydelay32kMs);
1903:.\Generated_Source\PSoC4/CyLib.c ****         milliseconds -= CY_DELAY_MS_OVERFLOW;
 2104              		.loc 1 1903 0
 2105 0014 184C     		ldr	r4, .L177+8
 2106 0016 8318     		add	r3, r0, r2
 2107 0018 1804     		lsl	r0, r3, #16
 2108              	.LVL129:
 2109 001a C10F     		lsr	r1, r0, #31
 2110 001c 3419     		add	r4, r6, r4
1902:.\Generated_Source\PSoC4/CyLib.c ****         CyDelayCycles(cydelay32kMs);
 2111              		.loc 1 1902 0
 2112 001e 2868     		ldr	r0, [r5]
 2113 0020 8846     		mov	r8, r1
 2114 0022 FFF7FEFF 		bl	CyDelayCycles
 2115              	.LVL130:
1897:.\Generated_Source\PSoC4/CyLib.c ****     while (milliseconds > CY_DELAY_MS_OVERFLOW)
 2116              		.loc 1 1897 0
 2117 0026 BC42     		cmp	r4, r7
 2118 0028 13D9     		bls	.L176
 2119 002a 4246     		mov	r2, r8
 2120 002c 002A     		cmp	r2, #0
 2121 002e 06D0     		beq	.L166
1902:.\Generated_Source\PSoC4/CyLib.c ****         CyDelayCycles(cydelay32kMs);
 2122              		.loc 1 1902 0
 2123 0030 2868     		ldr	r0, [r5]
ARM GAS  C:\Users\Steve\AppData\Local\Temp\ccc4U1xk.s 			page 76


 2124 0032 FFF7FEFF 		bl	CyDelayCycles
 2125              	.LVL131:
 2126              		.loc 1 1903 0
 2127 0036 114B     		ldr	r3, .L177+12
 2128 0038 F418     		add	r4, r6, r3
 2129              	.LVL132:
1897:.\Generated_Source\PSoC4/CyLib.c ****     while (milliseconds > CY_DELAY_MS_OVERFLOW)
 2130              		.loc 1 1897 0
 2131 003a BC42     		cmp	r4, r7
 2132 003c 09D9     		bls	.L176
 2133              	.L166:
1902:.\Generated_Source\PSoC4/CyLib.c ****         CyDelayCycles(cydelay32kMs);
 2134              		.loc 1 1902 0
 2135 003e 2868     		ldr	r0, [r5]
 2136 0040 FFF7FEFF 		bl	CyDelayCycles
 2137              	.LVL133:
 2138 0044 2868     		ldr	r0, [r5]
 2139 0046 FFF7FEFF 		bl	CyDelayCycles
 2140              	.LVL134:
 2141              		.loc 1 1903 0
 2142 004a 0C48     		ldr	r0, .L177+12
 2143 004c 2418     		add	r4, r4, r0
1897:.\Generated_Source\PSoC4/CyLib.c ****     while (milliseconds > CY_DELAY_MS_OVERFLOW)
 2144              		.loc 1 1897 0
 2145 004e BC42     		cmp	r4, r7
 2146 0050 F5D8     		bhi	.L166
 2147              	.L176:
1895:.\Generated_Source\PSoC4/CyLib.c **** void CyDelay(uint32 milliseconds)
 2148              		.loc 1 1895 0
 2149 0052 084F     		ldr	r7, .L177+4
 2150 0054 084C     		ldr	r4, .L177+8
 2151 0056 F119     		add	r1, r6, r7
 2152 0058 CA0B     		lsr	r2, r1, #15
 2153 005a D303     		lsl	r3, r2, #15
 2154 005c 3619     		add	r6, r6, r4
 2155 005e F61A     		sub	r6, r6, r3
 2156              	.L165:
1904:.\Generated_Source\PSoC4/CyLib.c ****     }
1905:.\Generated_Source\PSoC4/CyLib.c **** 
1906:.\Generated_Source\PSoC4/CyLib.c ****     CyDelayCycles(milliseconds * cydelayFreqKhz);
 2157              		.loc 1 1906 0
 2158 0060 6868     		ldr	r0, [r5, #4]
1907:.\Generated_Source\PSoC4/CyLib.c **** }
 2159              		.loc 1 1907 0
 2160              		@ sp needed for prologue
1906:.\Generated_Source\PSoC4/CyLib.c ****     CyDelayCycles(milliseconds * cydelayFreqKhz);
 2161              		.loc 1 1906 0
 2162 0062 7043     		mul	r0, r6
 2163 0064 FFF7FEFF 		bl	CyDelayCycles
 2164              	.LVL135:
 2165              		.loc 1 1907 0
 2166 0068 04BC     		pop	{r2}
 2167 006a 9046     		mov	r8, r2
 2168 006c F0BD     		pop	{r4, r5, r6, r7, pc}
 2169              	.L178:
 2170 006e C046     		.align	2
 2171              	.L177:
ARM GAS  C:\Users\Steve\AppData\Local\Temp\ccc4U1xk.s 			page 77


 2172 0070 00000000 		.word	.LANCHOR0
 2173 0074 FF7FFFFF 		.word	-32769
 2174 0078 0080FFFF 		.word	-32768
 2175 007c 0000FFFF 		.word	-65536
 2176              		.cfi_endproc
 2177              	.LFE45:
 2178              		.size	CyDelay, .-CyDelay
 2179              		.section	.text.CyDelayUs,"ax",%progbits
 2180              		.align	2
 2181              		.global	CyDelayUs
 2182              		.code	16
 2183              		.thumb_func
 2184              		.type	CyDelayUs, %function
 2185              	CyDelayUs:
 2186              	.LFB46:
1908:.\Generated_Source\PSoC4/CyLib.c **** 
1909:.\Generated_Source\PSoC4/CyLib.c **** 
1910:.\Generated_Source\PSoC4/CyLib.c **** /*******************************************************************************
1911:.\Generated_Source\PSoC4/CyLib.c **** * Function Name: CyDelayUs
1912:.\Generated_Source\PSoC4/CyLib.c **** ********************************************************************************
1913:.\Generated_Source\PSoC4/CyLib.c **** * Summary:
1914:.\Generated_Source\PSoC4/CyLib.c **** *  Blocks for microseconds.
1915:.\Generated_Source\PSoC4/CyLib.c **** *
1916:.\Generated_Source\PSoC4/CyLib.c **** * Parameters:
1917:.\Generated_Source\PSoC4/CyLib.c **** *  microseconds: number of microseconds to delay.
1918:.\Generated_Source\PSoC4/CyLib.c **** *
1919:.\Generated_Source\PSoC4/CyLib.c **** * Return:
1920:.\Generated_Source\PSoC4/CyLib.c **** *  None
1921:.\Generated_Source\PSoC4/CyLib.c **** *
1922:.\Generated_Source\PSoC4/CyLib.c **** *******************************************************************************/
1923:.\Generated_Source\PSoC4/CyLib.c **** void CyDelayUs(uint16 microseconds)
1924:.\Generated_Source\PSoC4/CyLib.c **** {
 2187              		.loc 1 1924 0
 2188              		.cfi_startproc
 2189              	.LVL136:
 2190 0000 08B5     		push	{r3, lr}
 2191              	.LCFI23:
 2192              		.cfi_def_cfa_offset 8
 2193              		.cfi_offset 3, -8
 2194              		.cfi_offset 14, -4
1925:.\Generated_Source\PSoC4/CyLib.c ****     CyDelayCycles((uint32)microseconds * cydelayFreqMhz);
 2195              		.loc 1 1925 0
 2196 0002 034B     		ldr	r3, .L180
1926:.\Generated_Source\PSoC4/CyLib.c **** }
 2197              		.loc 1 1926 0
 2198              		@ sp needed for prologue
1925:.\Generated_Source\PSoC4/CyLib.c ****     CyDelayCycles((uint32)microseconds * cydelayFreqMhz);
 2199              		.loc 1 1925 0
 2200 0004 197A     		ldrb	r1, [r3, #8]
 2201 0006 4843     		mul	r0, r1
 2202              	.LVL137:
 2203 0008 FFF7FEFF 		bl	CyDelayCycles
 2204              	.LVL138:
 2205              		.loc 1 1926 0
 2206 000c 08BD     		pop	{r3, pc}
 2207              	.L181:
 2208 000e C046     		.align	2
ARM GAS  C:\Users\Steve\AppData\Local\Temp\ccc4U1xk.s 			page 78


 2209              	.L180:
 2210 0010 00000000 		.word	.LANCHOR0
 2211              		.cfi_endproc
 2212              	.LFE46:
 2213              		.size	CyDelayUs, .-CyDelayUs
 2214              		.section	.text.CySysWdtWriteMatch,"ax",%progbits
 2215              		.align	2
 2216              		.global	CySysWdtWriteMatch
 2217              		.code	16
 2218              		.thumb_func
 2219              		.type	CySysWdtWriteMatch, %function
 2220              	CySysWdtWriteMatch:
 2221              	.LFB18:
 766:.\Generated_Source\PSoC4/CyLib.c ****     {
 2222              		.loc 1 766 0
 2223              		.cfi_startproc
 2224              	.LVL139:
 2225 0000 38B5     		push	{r3, r4, r5, lr}
 2226              	.LCFI24:
 2227              		.cfi_def_cfa_offset 16
 2228              		.cfi_offset 3, -16
 2229              		.cfi_offset 4, -12
 2230              		.cfi_offset 5, -8
 2231              		.cfi_offset 14, -4
 766:.\Generated_Source\PSoC4/CyLib.c ****     {
 2232              		.loc 1 766 0
 2233 0002 041C     		mov	r4, r0
 2234 0004 0D1C     		mov	r5, r1
 769:.\Generated_Source\PSoC4/CyLib.c ****         CYASSERT((counterNum == CY_SYS_WDT_COUNTER0) ||
 2235              		.loc 1 769 0
 2236 0006 0128     		cmp	r0, #1
 2237 0008 00D9     		bls	.L183
 2238              	.LVL140:
 2239              	.LBB150:
 2240              	.LBB151:
1849:.\Generated_Source\PSoC4/CyLib.c ****         __asm("    bkpt    1");
 2241              		.loc 1 1849 0
 2242              	@ 1849 ".\Generated_Source\PSoC4\CyLib.c" 1
 2243 000a 01BE     		    bkpt    1
 2244              	@ 0 "" 2
 2245              	.LVL141:
 2246              		.code	16
 2247              	.L183:
 2248              	.LBE151:
 2249              	.LBE150:
 775:.\Generated_Source\PSoC4/CyLib.c ****         if (0u == (CY_SYS_CLK_ILO_CONFIG_REG & CY_SYS_CLK_ILO_CONFIG_ENABLE))
 2250              		.loc 1 775 0
 2251 000c 0B4B     		ldr	r3, .L185
 2252 000e 1A68     		ldr	r2, [r3]
 2253 0010 002A     		cmp	r2, #0
 2254 0012 04DB     		blt	.L184
 2255              	.LBB152:
 2256              	.LBB153:
  86:.\Generated_Source\PSoC4/CyLib.c ****     CY_SYS_CLK_ILO_CONFIG_REG |= CY_SYS_CLK_ILO_CONFIG_ENABLE;
 2257              		.loc 1 86 0
 2258 0014 1968     		ldr	r1, [r3]
 2259              	.LVL142:
ARM GAS  C:\Users\Steve\AppData\Local\Temp\ccc4U1xk.s 			page 79


 2260 0016 8020     		mov	r0, #128
 2261              	.LVL143:
 2262 0018 0206     		lsl	r2, r0, #24
 2263 001a 0A43     		orr	r2, r1
 2264 001c 1A60     		str	r2, [r3]
 2265              	.L184:
 2266              	.LBE153:
 2267              	.LBE152:
 781:.\Generated_Source\PSoC4/CyLib.c ****         CyDelayUs(CY_SYS_WDT_3LFCLK_DELAY_US);
 2268              		.loc 1 781 0
 2269 001e 8220     		mov	r0, #130
 2270 0020 FFF7FEFF 		bl	CyDelayUs
 2271              	.LVL144:
 783:.\Generated_Source\PSoC4/CyLib.c ****         regValue = CY_SYS_WDT_MATCH_REG;
 2272              		.loc 1 783 0
 2273 0024 064B     		ldr	r3, .L185+4
 784:.\Generated_Source\PSoC4/CyLib.c ****         regValue &= (uint32)~((uint32)(CY_SYS_WDT_LOWER_16BITS_MASK << (counterNum * CY_SYS_WDT_CNT
 2274              		.loc 1 784 0
 2275 0026 0749     		ldr	r1, .L185+8
 783:.\Generated_Source\PSoC4/CyLib.c ****         regValue = CY_SYS_WDT_MATCH_REG;
 2276              		.loc 1 783 0
 2277 0028 1868     		ldr	r0, [r3]
 2278              	.LVL145:
 784:.\Generated_Source\PSoC4/CyLib.c ****         regValue &= (uint32)~((uint32)(CY_SYS_WDT_LOWER_16BITS_MASK << (counterNum * CY_SYS_WDT_CNT
 2279              		.loc 1 784 0
 2280 002a 2401     		lsl	r4, r4, #4
 2281              	.LVL146:
 2282 002c A140     		lsl	r1, r1, r4
 2283 002e 8843     		bic	r0, r1
 2284              	.LVL147:
 785:.\Generated_Source\PSoC4/CyLib.c ****         CY_SYS_WDT_MATCH_REG = (regValue | (match << (counterNum * CY_SYS_WDT_CNT_MATCH_SHIFT)));
 2285              		.loc 1 785 0
 2286 0030 A540     		lsl	r5, r5, r4
 2287              	.LVL148:
 2288 0032 021C     		mov	r2, r0
 2289 0034 2A43     		orr	r2, r5
 2290 0036 1A60     		str	r2, [r3]
 786:.\Generated_Source\PSoC4/CyLib.c ****     }
 2291              		.loc 1 786 0
 2292              		@ sp needed for prologue
 2293 0038 38BD     		pop	{r3, r4, r5, pc}
 2294              	.L186:
 2295 003a C046     		.align	2
 2296              	.L185:
 2297 003c 04010B40 		.word	1074462980
 2298 0040 08020B40 		.word	1074463240
 2299 0044 FFFF0000 		.word	65535
 2300              		.cfi_endproc
 2301              	.LFE18:
 2302              		.size	CySysWdtWriteMatch, .-CySysWdtWriteMatch
 2303              		.section	.text.CySysClkWriteImoFreq,"ax",%progbits
 2304              		.align	2
 2305              		.global	CySysClkWriteImoFreq
 2306              		.code	16
 2307              		.thumb_func
 2308              		.type	CySysClkWriteImoFreq, %function
 2309              	CySysClkWriteImoFreq:
ARM GAS  C:\Users\Steve\AppData\Local\Temp\ccc4U1xk.s 			page 80


 2310              	.LFB6:
 217:.\Generated_Source\PSoC4/CyLib.c ****     {
 2311              		.loc 1 217 0
 2312              		.cfi_startproc
 2313              	.LVL149:
 2314 0000 F8B5     		push	{r3, r4, r5, r6, r7, lr}
 2315              	.LCFI25:
 2316              		.cfi_def_cfa_offset 24
 2317              		.cfi_offset 3, -24
 2318              		.cfi_offset 4, -20
 2319              		.cfi_offset 5, -16
 2320              		.cfi_offset 6, -12
 2321              		.cfi_offset 7, -8
 2322              		.cfi_offset 14, -4
 2323 0002 4F46     		mov	r7, r9
 2324 0004 4646     		mov	r6, r8
 2325 0006 C0B4     		push	{r6, r7}
 2326              	.LCFI26:
 2327              		.cfi_def_cfa_offset 32
 2328              		.cfi_offset 8, -32
 2329              		.cfi_offset 9, -28
 240:.\Generated_Source\PSoC4/CyLib.c ****         if ((freq >= CY_SYS_CLK_IMO_MIN_FREQ_MHZ) && (freq <= CY_SYS_CLK_IMO_MAX_FREQ_MHZ))
 2330              		.loc 1 240 0
 2331 0008 C71E     		sub	r7, r0, #3
 217:.\Generated_Source\PSoC4/CyLib.c ****     {
 2332              		.loc 1 217 0
 2333 000a 061C     		mov	r6, r0
 240:.\Generated_Source\PSoC4/CyLib.c ****         if ((freq >= CY_SYS_CLK_IMO_MIN_FREQ_MHZ) && (freq <= CY_SYS_CLK_IMO_MAX_FREQ_MHZ))
 2334              		.loc 1 240 0
 2335 000c 2D2F     		cmp	r7, #45
 2336 000e 04D9     		bls	.L207
 2337              	.LVL150:
 2338              	.LBB154:
 2339              	.LBB155:
1849:.\Generated_Source\PSoC4/CyLib.c ****         __asm("    bkpt    1");
 2340              		.loc 1 1849 0
 2341              	@ 1849 ".\Generated_Source\PSoC4\CyLib.c" 1
 2342 0010 01BE     		    bkpt    1
 2343              	@ 0 "" 2
 2344              	.LVL151:
 2345              		.code	16
 2346              	.L187:
 2347              	.LBE155:
 2348              	.LBE154:
 334:.\Generated_Source\PSoC4/CyLib.c ****     }
 2349              		.loc 1 334 0
 2350              		@ sp needed for prologue
 2351 0012 0CBC     		pop	{r2, r3}
 2352 0014 9046     		mov	r8, r2
 2353 0016 9946     		mov	r9, r3
 2354 0018 F8BD     		pop	{r3, r4, r5, r6, r7, pc}
 2355              	.LVL152:
 2356              	.L207:
 242:.\Generated_Source\PSoC4/CyLib.c ****             interruptState = CyEnterCriticalSection();
 2357              		.loc 1 242 0
 2358 001a FFF7FEFF 		bl	CyEnterCriticalSection
 2359              	.LVL153:
ARM GAS  C:\Users\Steve\AppData\Local\Temp\ccc4U1xk.s 			page 81


 245:.\Generated_Source\PSoC4/CyLib.c ****             for (i = 0u; i < CY_SYS_CLK_IMO_FREQ_TABLE_SIZE; i++)
 2360              		.loc 1 245 0
 2361 001e 0023     		mov	r3, #0
 242:.\Generated_Source\PSoC4/CyLib.c ****             interruptState = CyEnterCriticalSection();
 2362              		.loc 1 242 0
 2363 0020 8046     		mov	r8, r0
 2364              	.LVL154:
 2365 0022 3D4C     		ldr	r4, .L211
 247:.\Generated_Source\PSoC4/CyLib.c ****                 if (cyImoFreqMhz2Reg[i] == (CY_SYS_CLK_IMO_TRIM2_REG & CY_SYS_CLK_IMO_FREQ_BITS_MAS
 2366              		.loc 1 247 0
 2367 0024 3D49     		ldr	r1, .L211+4
 2368 0026 3F22     		mov	r2, #63
 2369 0028 08E0     		b	.L191
 2370              	.LVL155:
 2371              	.L189:
 245:.\Generated_Source\PSoC4/CyLib.c ****             for (i = 0u; i < CY_SYS_CLK_IMO_FREQ_TABLE_SIZE; i++)
 2372              		.loc 1 245 0
 2373 002a 0133     		add	r3, r3, #1
 2374              	.LVL156:
 247:.\Generated_Source\PSoC4/CyLib.c ****                 if (cyImoFreqMhz2Reg[i] == (CY_SYS_CLK_IMO_TRIM2_REG & CY_SYS_CLK_IMO_FREQ_BITS_MAS
 2375              		.loc 1 247 0
 2376 002c 0868     		ldr	r0, [r1]
 2377 002e E55C     		ldrb	r5, [r4, r3]
 2378 0030 1040     		and	r0, r2
 2379 0032 8542     		cmp	r5, r0
 2380 0034 07D0     		beq	.L205
 245:.\Generated_Source\PSoC4/CyLib.c ****             for (i = 0u; i < CY_SYS_CLK_IMO_FREQ_TABLE_SIZE; i++)
 2381              		.loc 1 245 0
 2382 0036 0133     		add	r3, r3, #1
 2383              	.LVL157:
 2384 0038 2E2B     		cmp	r3, #46
 2385 003a 49D0     		beq	.L208
 2386              	.LVL158:
 2387              	.L191:
 247:.\Generated_Source\PSoC4/CyLib.c ****                 if (cyImoFreqMhz2Reg[i] == (CY_SYS_CLK_IMO_TRIM2_REG & CY_SYS_CLK_IMO_FREQ_BITS_MAS
 2388              		.loc 1 247 0
 2389 003c 0D68     		ldr	r5, [r1]
 2390 003e E05C     		ldrb	r0, [r4, r3]
 2391 0040 1540     		and	r5, r2
 2392 0042 A842     		cmp	r0, r5
 2393 0044 F1D1     		bne	.L189
 2394              	.L205:
 249:.\Generated_Source\PSoC4/CyLib.c ****                     currentFreq = i + CY_SYS_CLK_IMO_FREQ_TABLE_OFFSET;
 2395              		.loc 1 249 0
 2396 0046 0333     		add	r3, r3, #3
 2397              	.LVL159:
 2398              	.L190:
 254:.\Generated_Source\PSoC4/CyLib.c ****             if(freq <= CY_SFLASH_IMO_MAXF0_REG)
 2399              		.loc 1 254 0
 2400 0048 3549     		ldr	r1, .L211+8
 2401 004a 0A78     		ldrb	r2, [r1]
 2402 004c 9642     		cmp	r6, r2
 2403 004e 1FD8     		bhi	.L192
 256:.\Generated_Source\PSoC4/CyLib.c ****                 bgTrim4 = CY_SFLASH_IMO_ABS0_REG;
 2404              		.loc 1 256 0
 2405 0050 344A     		ldr	r2, .L211+12
 257:.\Generated_Source\PSoC4/CyLib.c ****                 bgTrim5 = CY_SFLASH_IMO_TMPCO0_REG;
ARM GAS  C:\Users\Steve\AppData\Local\Temp\ccc4U1xk.s 			page 82


 2406              		.loc 1 257 0
 2407 0052 354D     		ldr	r5, .L211+16
 256:.\Generated_Source\PSoC4/CyLib.c ****                 bgTrim4 = CY_SFLASH_IMO_ABS0_REG;
 2408              		.loc 1 256 0
 2409 0054 1078     		ldrb	r0, [r2]
 257:.\Generated_Source\PSoC4/CyLib.c ****                 bgTrim5 = CY_SFLASH_IMO_TMPCO0_REG;
 2410              		.loc 1 257 0
 2411 0056 2D78     		ldrb	r5, [r5]
 256:.\Generated_Source\PSoC4/CyLib.c ****                 bgTrim4 = CY_SFLASH_IMO_ABS0_REG;
 2412              		.loc 1 256 0
 2413 0058 8146     		mov	r9, r0
 2414              	.LVL160:
 2415              	.L193:
 286:.\Generated_Source\PSoC4/CyLib.c ****             if ((currentFreq >= CY_SYS_CLK_IMO_BOUNDARY_FREQ_MHZ) && (freq >= CY_SYS_CLK_IMO_BOUNDA
 2416              		.loc 1 286 0
 2417 005a 2A2B     		cmp	r3, #42
 2418 005c 22D9     		bls	.L197
 286:.\Generated_Source\PSoC4/CyLib.c ****             if ((currentFreq >= CY_SYS_CLK_IMO_BOUNDARY_FREQ_MHZ) && (freq >= CY_SYS_CLK_IMO_BOUNDA
 2419              		.loc 1 286 0 is_stmt 0 discriminator 1
 2420 005e 2A2E     		cmp	r6, #42
 2421 0060 4CD8     		bhi	.L209
 2422              	.L198:
 317:.\Generated_Source\PSoC4/CyLib.c ****                 CY_SYS_CLK_IMO_TRIM2_REG = cyImoFreqMhz2Reg[freq - CY_SYS_CLK_IMO_FREQ_TABLE_OFFSET
 2423              		.loc 1 317 0 is_stmt 1
 2424 0062 E45D     		ldrb	r4, [r4, r7]
 2425 0064 2D4F     		ldr	r7, .L211+4
 318:.\Generated_Source\PSoC4/CyLib.c ****                 CyDelayCycles(CY_SYS_CLK_IMO_FREQ_TIMEOUT_CYCLES);
 2426              		.loc 1 318 0
 2427 0066 0520     		mov	r0, #5
 317:.\Generated_Source\PSoC4/CyLib.c ****                 CY_SYS_CLK_IMO_TRIM2_REG = cyImoFreqMhz2Reg[freq - CY_SYS_CLK_IMO_FREQ_TABLE_OFFSET
 2428              		.loc 1 317 0
 2429 0068 3C60     		str	r4, [r7]
 318:.\Generated_Source\PSoC4/CyLib.c ****                 CyDelayCycles(CY_SYS_CLK_IMO_FREQ_TIMEOUT_CYCLES);
 2430              		.loc 1 318 0
 2431 006a FFF7FEFF 		bl	CyDelayCycles
 2432              	.LVL161:
 321:.\Generated_Source\PSoC4/CyLib.c ****                 CY_SYS_CLK_IMO_TRIM1_REG = CY_SFLASH_IMO_TRIM_REG(freq - CY_SYS_CLK_IMO_FREQ_TABLE_
 2433              		.loc 1 321 0
 2434 006e 2F4B     		ldr	r3, .L211+20
 322:.\Generated_Source\PSoC4/CyLib.c ****                 CY_PWR_BG_TRIM4_REG  = bgTrim4;
 2435              		.loc 1 322 0
 2436 0070 2F48     		ldr	r0, .L211+24
 321:.\Generated_Source\PSoC4/CyLib.c ****                 CY_SYS_CLK_IMO_TRIM1_REG = CY_SFLASH_IMO_TRIM_REG(freq - CY_SYS_CLK_IMO_FREQ_TABLE_
 2437              		.loc 1 321 0
 2438 0072 F618     		add	r6, r6, r3
 2439              	.LVL162:
 2440 0074 3178     		ldrb	r1, [r6]
 2441 0076 2F4A     		ldr	r2, .L211+28
 323:.\Generated_Source\PSoC4/CyLib.c ****                 CY_PWR_BG_TRIM5_REG  = bgTrim5;
 2442              		.loc 1 323 0
 2443 0078 2F4F     		ldr	r7, .L211+32
 322:.\Generated_Source\PSoC4/CyLib.c ****                 CY_PWR_BG_TRIM4_REG  = bgTrim4;
 2444              		.loc 1 322 0
 2445 007a 4C46     		mov	r4, r9
 321:.\Generated_Source\PSoC4/CyLib.c ****                 CY_SYS_CLK_IMO_TRIM1_REG = CY_SFLASH_IMO_TRIM_REG(freq - CY_SYS_CLK_IMO_FREQ_TABLE_
 2446              		.loc 1 321 0
 2447 007c 1160     		str	r1, [r2]
ARM GAS  C:\Users\Steve\AppData\Local\Temp\ccc4U1xk.s 			page 83


 322:.\Generated_Source\PSoC4/CyLib.c ****                 CY_PWR_BG_TRIM4_REG  = bgTrim4;
 2448              		.loc 1 322 0
 2449 007e 0460     		str	r4, [r0]
 323:.\Generated_Source\PSoC4/CyLib.c ****                 CY_PWR_BG_TRIM5_REG  = bgTrim5;
 2450              		.loc 1 323 0
 2451 0080 3D60     		str	r5, [r7]
 324:.\Generated_Source\PSoC4/CyLib.c ****                 CyDelayUs(CY_SYS_CLK_IMO_TRIM_TIMEOUT_US);
 2452              		.loc 1 324 0
 2453 0082 0520     		mov	r0, #5
 2454 0084 FFF7FEFF 		bl	CyDelayUs
 2455              	.LVL163:
 2456              	.L200:
 327:.\Generated_Source\PSoC4/CyLib.c ****             CyExitCriticalSection(interruptState);
 2457              		.loc 1 327 0
 2458 0088 4046     		mov	r0, r8
 2459 008a FFF7FEFF 		bl	CyExitCriticalSection
 2460              	.LVL164:
 2461 008e C0E7     		b	.L187
 2462              	.LVL165:
 2463              	.L192:
 259:.\Generated_Source\PSoC4/CyLib.c ****             else if(freq <= CY_SFLASH_IMO_MAXF1_REG)
 2464              		.loc 1 259 0
 2465 0090 2A48     		ldr	r0, .L211+36
 2466 0092 0578     		ldrb	r5, [r0]
 2467 0094 AE42     		cmp	r6, r5
 2468 0096 1DD8     		bhi	.L194
 261:.\Generated_Source\PSoC4/CyLib.c ****                 bgTrim4 = CY_SFLASH_IMO_ABS1_REG;
 2469              		.loc 1 261 0
 2470 0098 2948     		ldr	r0, .L211+40
 262:.\Generated_Source\PSoC4/CyLib.c ****                 bgTrim5 = CY_SFLASH_IMO_TMPCO1_REG;
 2471              		.loc 1 262 0
 2472 009a 2A49     		ldr	r1, .L211+44
 261:.\Generated_Source\PSoC4/CyLib.c ****                 bgTrim4 = CY_SFLASH_IMO_ABS1_REG;
 2473              		.loc 1 261 0
 2474 009c 0578     		ldrb	r5, [r0]
 2475 009e A946     		mov	r9, r5
 2476              	.LVL166:
 262:.\Generated_Source\PSoC4/CyLib.c ****                 bgTrim5 = CY_SFLASH_IMO_TMPCO1_REG;
 2477              		.loc 1 262 0
 2478 00a0 0D78     		ldrb	r5, [r1]
 2479              	.LVL167:
 2480 00a2 DAE7     		b	.L193
 2481              	.L197:
 302:.\Generated_Source\PSoC4/CyLib.c ****             if (freq > currentFreq)
 2482              		.loc 1 302 0
 2483 00a4 B342     		cmp	r3, r6
 2484 00a6 DCD2     		bcs	.L198
 2485              	.LVL168:
 2486              	.L199:
 305:.\Generated_Source\PSoC4/CyLib.c ****                 CY_SYS_CLK_IMO_TRIM1_REG = (uint32) CY_SFLASH_IMO_TRIM_REG(freq - CY_SYS_CLK_IMO_FR
 2487              		.loc 1 305 0
 2488 00a8 204A     		ldr	r2, .L211+20
 2489 00aa 2249     		ldr	r1, .L211+28
 2490 00ac B618     		add	r6, r6, r2
 2491              	.LVL169:
 2492 00ae 3078     		ldrb	r0, [r6]
 306:.\Generated_Source\PSoC4/CyLib.c ****                 CY_PWR_BG_TRIM4_REG  = bgTrim4;
ARM GAS  C:\Users\Steve\AppData\Local\Temp\ccc4U1xk.s 			page 84


 2493              		.loc 1 306 0
 2494 00b0 1F4B     		ldr	r3, .L211+24
 307:.\Generated_Source\PSoC4/CyLib.c ****                 CY_PWR_BG_TRIM5_REG  = bgTrim5;
 2495              		.loc 1 307 0
 2496 00b2 214E     		ldr	r6, .L211+32
 2497              	.LVL170:
 306:.\Generated_Source\PSoC4/CyLib.c ****                 CY_PWR_BG_TRIM4_REG  = bgTrim4;
 2498              		.loc 1 306 0
 2499 00b4 4A46     		mov	r2, r9
 305:.\Generated_Source\PSoC4/CyLib.c ****                 CY_SYS_CLK_IMO_TRIM1_REG = (uint32) CY_SFLASH_IMO_TRIM_REG(freq - CY_SYS_CLK_IMO_FR
 2500              		.loc 1 305 0
 2501 00b6 0860     		str	r0, [r1]
 306:.\Generated_Source\PSoC4/CyLib.c ****                 CY_PWR_BG_TRIM4_REG  = bgTrim4;
 2502              		.loc 1 306 0
 2503 00b8 1A60     		str	r2, [r3]
 308:.\Generated_Source\PSoC4/CyLib.c ****                 CyDelayUs(CY_SYS_CLK_IMO_TRIM_TIMEOUT_US);
 2504              		.loc 1 308 0
 2505 00ba 0520     		mov	r0, #5
 307:.\Generated_Source\PSoC4/CyLib.c ****                 CY_PWR_BG_TRIM5_REG  = bgTrim5;
 2506              		.loc 1 307 0
 2507 00bc 3560     		str	r5, [r6]
 308:.\Generated_Source\PSoC4/CyLib.c ****                 CyDelayUs(CY_SYS_CLK_IMO_TRIM_TIMEOUT_US);
 2508              		.loc 1 308 0
 2509 00be FFF7FEFF 		bl	CyDelayUs
 2510              	.LVL171:
 311:.\Generated_Source\PSoC4/CyLib.c ****                 CY_SYS_CLK_IMO_TRIM2_REG = cyImoFreqMhz2Reg[freq - CY_SYS_CLK_IMO_FREQ_TABLE_OFFSET
 2511              		.loc 1 311 0
 2512 00c2 E55D     		ldrb	r5, [r4, r7]
 2513              	.LVL172:
 2514 00c4 154C     		ldr	r4, .L211+4
 312:.\Generated_Source\PSoC4/CyLib.c ****                 CyDelayCycles(CY_SYS_CLK_IMO_FREQ_TIMEOUT_CYCLES);
 2515              		.loc 1 312 0
 2516 00c6 0520     		mov	r0, #5
 311:.\Generated_Source\PSoC4/CyLib.c ****                 CY_SYS_CLK_IMO_TRIM2_REG = cyImoFreqMhz2Reg[freq - CY_SYS_CLK_IMO_FREQ_TABLE_OFFSET
 2517              		.loc 1 311 0
 2518 00c8 2560     		str	r5, [r4]
 312:.\Generated_Source\PSoC4/CyLib.c ****                 CyDelayCycles(CY_SYS_CLK_IMO_FREQ_TIMEOUT_CYCLES);
 2519              		.loc 1 312 0
 2520 00ca FFF7FEFF 		bl	CyDelayCycles
 2521              	.LVL173:
 2522 00ce DBE7     		b	.L200
 2523              	.LVL174:
 2524              	.L208:
 220:.\Generated_Source\PSoC4/CyLib.c ****         uint32 currentFreq = CY_SYS_CLK_IMO_MAX_FREQ_MHZ;
 2525              		.loc 1 220 0
 2526 00d0 3023     		mov	r3, #48
 2527              	.LVL175:
 2528 00d2 B9E7     		b	.L190
 2529              	.LVL176:
 2530              	.L194:
 264:.\Generated_Source\PSoC4/CyLib.c ****             else if(freq <= CY_SFLASH_IMO_MAXF2_REG)
 2531              		.loc 1 264 0
 2532 00d4 1C49     		ldr	r1, .L211+48
 2533 00d6 0A78     		ldrb	r2, [r1]
 2534 00d8 9642     		cmp	r6, r2
 2535 00da 09D9     		bls	.L210
 269:.\Generated_Source\PSoC4/CyLib.c ****             else if(freq <= CY_SFLASH_IMO_MAXF3_REG)
ARM GAS  C:\Users\Steve\AppData\Local\Temp\ccc4U1xk.s 			page 85


 2536              		.loc 1 269 0
 2537 00dc 1B48     		ldr	r0, .L211+52
 2538 00de 0578     		ldrb	r5, [r0]
 2539 00e0 AE42     		cmp	r6, r5
 2540 00e2 12D8     		bhi	.L196
 271:.\Generated_Source\PSoC4/CyLib.c ****                 bgTrim4 = CY_SFLASH_IMO_ABS3_REG;
 2541              		.loc 1 271 0
 2542 00e4 1A49     		ldr	r1, .L211+56
 272:.\Generated_Source\PSoC4/CyLib.c ****                 bgTrim5 = CY_SFLASH_IMO_TMPCO3_REG;
 2543              		.loc 1 272 0
 2544 00e6 1B48     		ldr	r0, .L211+60
 271:.\Generated_Source\PSoC4/CyLib.c ****                 bgTrim4 = CY_SFLASH_IMO_ABS3_REG;
 2545              		.loc 1 271 0
 2546 00e8 0A78     		ldrb	r2, [r1]
 272:.\Generated_Source\PSoC4/CyLib.c ****                 bgTrim5 = CY_SFLASH_IMO_TMPCO3_REG;
 2547              		.loc 1 272 0
 2548 00ea 0578     		ldrb	r5, [r0]
 271:.\Generated_Source\PSoC4/CyLib.c ****                 bgTrim4 = CY_SFLASH_IMO_ABS3_REG;
 2549              		.loc 1 271 0
 2550 00ec 9146     		mov	r9, r2
 2551              	.LVL177:
 2552 00ee B4E7     		b	.L193
 2553              	.LVL178:
 2554              	.L210:
 266:.\Generated_Source\PSoC4/CyLib.c ****                 bgTrim4 = CY_SFLASH_IMO_ABS2_REG;
 2555              		.loc 1 266 0
 2556 00f0 194D     		ldr	r5, .L211+64
 267:.\Generated_Source\PSoC4/CyLib.c ****                 bgTrim5 = CY_SFLASH_IMO_TMPCO2_REG;
 2557              		.loc 1 267 0
 2558 00f2 1A4A     		ldr	r2, .L211+68
 266:.\Generated_Source\PSoC4/CyLib.c ****                 bgTrim4 = CY_SFLASH_IMO_ABS2_REG;
 2559              		.loc 1 266 0
 2560 00f4 2978     		ldrb	r1, [r5]
 267:.\Generated_Source\PSoC4/CyLib.c ****                 bgTrim5 = CY_SFLASH_IMO_TMPCO2_REG;
 2561              		.loc 1 267 0
 2562 00f6 1578     		ldrb	r5, [r2]
 266:.\Generated_Source\PSoC4/CyLib.c ****                 bgTrim4 = CY_SFLASH_IMO_ABS2_REG;
 2563              		.loc 1 266 0
 2564 00f8 8946     		mov	r9, r1
 2565              	.LVL179:
 2566 00fa AEE7     		b	.L193
 2567              	.LVL180:
 2568              	.L209:
 289:.\Generated_Source\PSoC4/CyLib.c ****                 CY_SYS_CLK_IMO_TRIM2_REG = (uint32) cyImoFreqMhz2Reg[CY_SYS_CLK_IMO_TEMP_FREQ_MHZ -
 2569              		.loc 1 289 0
 2570 00fc 074B     		ldr	r3, .L211+4
 2571              	.LVL181:
 2572 00fe 1921     		mov	r1, #25
 2573 0100 1960     		str	r1, [r3]
 292:.\Generated_Source\PSoC4/CyLib.c ****                 CyDelayCycles(CY_SYS_CLK_IMO_FREQ_TIMEOUT_CYCLES);
 2574              		.loc 1 292 0
 2575 0102 0520     		mov	r0, #5
 2576 0104 FFF7FEFF 		bl	CyDelayCycles
 2577              	.LVL182:
 2578 0108 CEE7     		b	.L199
 2579              	.LVL183:
 2580              	.L196:
ARM GAS  C:\Users\Steve\AppData\Local\Temp\ccc4U1xk.s 			page 86


 276:.\Generated_Source\PSoC4/CyLib.c ****                 bgTrim4 = CY_SFLASH_IMO_ABS4_REG;
 2581              		.loc 1 276 0
 2582 010a 1549     		ldr	r1, .L211+72
 277:.\Generated_Source\PSoC4/CyLib.c ****                 bgTrim5 = CY_SFLASH_IMO_TMPCO4_REG;
 2583              		.loc 1 277 0
 2584 010c 0748     		ldr	r0, .L211+20
 276:.\Generated_Source\PSoC4/CyLib.c ****                 bgTrim4 = CY_SFLASH_IMO_ABS4_REG;
 2585              		.loc 1 276 0
 2586 010e 0A78     		ldrb	r2, [r1]
 277:.\Generated_Source\PSoC4/CyLib.c ****                 bgTrim5 = CY_SFLASH_IMO_TMPCO4_REG;
 2587              		.loc 1 277 0
 2588 0110 0578     		ldrb	r5, [r0]
 276:.\Generated_Source\PSoC4/CyLib.c ****                 bgTrim4 = CY_SFLASH_IMO_ABS4_REG;
 2589              		.loc 1 276 0
 2590 0112 9146     		mov	r9, r2
 2591              	.LVL184:
 2592 0114 A1E7     		b	.L193
 2593              	.L212:
 2594 0116 C046     		.align	2
 2595              	.L211:
 2596 0118 00000000 		.word	.LANCHOR1
 2597 011c 2CFF0B40 		.word	1074528044
 2598 0120 C0F1FF0F 		.word	268431808
 2599 0124 C1F1FF0F 		.word	268431809
 2600 0128 C2F1FF0F 		.word	268431810
 2601 012c CDF1FF0F 		.word	268431821
 2602 0130 1CFF0B40 		.word	1074528028
 2603 0134 28FF0B40 		.word	1074528040
 2604 0138 20FF0B40 		.word	1074528032
 2605 013c C3F1FF0F 		.word	268431811
 2606 0140 C4F1FF0F 		.word	268431812
 2607 0144 C5F1FF0F 		.word	268431813
 2608 0148 C6F1FF0F 		.word	268431814
 2609 014c C9F1FF0F 		.word	268431817
 2610 0150 CAF1FF0F 		.word	268431818
 2611 0154 CBF1FF0F 		.word	268431819
 2612 0158 C7F1FF0F 		.word	268431815
 2613 015c C8F1FF0F 		.word	268431816
 2614 0160 CCF1FF0F 		.word	268431820
 2615              		.cfi_endproc
 2616              	.LFE6:
 2617              		.size	CySysClkWriteImoFreq, .-CySysClkWriteImoFreq
 2618              		.global	__aeabi_uidiv
 2619              		.section	.text.CyDelayFreq,"ax",%progbits
 2620              		.align	2
 2621              		.global	CyDelayFreq
 2622              		.code	16
 2623              		.thumb_func
 2624              		.type	CyDelayFreq, %function
 2625              	CyDelayFreq:
 2626              	.LFB47:
1927:.\Generated_Source\PSoC4/CyLib.c **** 
1928:.\Generated_Source\PSoC4/CyLib.c **** 
1929:.\Generated_Source\PSoC4/CyLib.c **** /*******************************************************************************
1930:.\Generated_Source\PSoC4/CyLib.c **** * Function Name: CyDelayFreq
1931:.\Generated_Source\PSoC4/CyLib.c **** ********************************************************************************
1932:.\Generated_Source\PSoC4/CyLib.c **** * Summary:
ARM GAS  C:\Users\Steve\AppData\Local\Temp\ccc4U1xk.s 			page 87


1933:.\Generated_Source\PSoC4/CyLib.c **** *  Sets clock frequency for CyDelay.
1934:.\Generated_Source\PSoC4/CyLib.c **** *
1935:.\Generated_Source\PSoC4/CyLib.c **** * Parameters:
1936:.\Generated_Source\PSoC4/CyLib.c **** *  freq: Frequency of bus clock in Hertz.
1937:.\Generated_Source\PSoC4/CyLib.c **** *
1938:.\Generated_Source\PSoC4/CyLib.c **** * Return:
1939:.\Generated_Source\PSoC4/CyLib.c **** *  None
1940:.\Generated_Source\PSoC4/CyLib.c **** *
1941:.\Generated_Source\PSoC4/CyLib.c **** *******************************************************************************/
1942:.\Generated_Source\PSoC4/CyLib.c **** void CyDelayFreq(uint32 freq)
1943:.\Generated_Source\PSoC4/CyLib.c **** {
 2627              		.loc 1 1943 0
 2628              		.cfi_startproc
 2629              	.LVL185:
 2630 0000 70B5     		push	{r4, r5, r6, lr}
 2631              	.LCFI27:
 2632              		.cfi_def_cfa_offset 16
 2633              		.cfi_offset 4, -16
 2634              		.cfi_offset 5, -12
 2635              		.cfi_offset 6, -8
 2636              		.cfi_offset 14, -4
 2637              		.loc 1 1943 0
 2638 0002 051C     		mov	r5, r0
1944:.\Generated_Source\PSoC4/CyLib.c ****     if (freq != 0u)
1945:.\Generated_Source\PSoC4/CyLib.c ****     {
1946:.\Generated_Source\PSoC4/CyLib.c ****         cydelayFreqHz = freq;
 2639              		.loc 1 1946 0
 2640 0004 0C4C     		ldr	r4, .L217
1944:.\Generated_Source\PSoC4/CyLib.c ****     if (freq != 0u)
 2641              		.loc 1 1944 0
 2642 0006 08D1     		bne	.L216
1947:.\Generated_Source\PSoC4/CyLib.c ****     }
1948:.\Generated_Source\PSoC4/CyLib.c ****     else
1949:.\Generated_Source\PSoC4/CyLib.c ****     {
1950:.\Generated_Source\PSoC4/CyLib.c ****         cydelayFreqHz = CYDEV_BCLK__SYSCLK__HZ;
 2643              		.loc 1 1950 0
 2644 0008 0C4B     		ldr	r3, .L217+4
 2645 000a 0D49     		ldr	r1, .L217+8
 2646 000c 0D48     		ldr	r0, .L217+12
 2647              	.LVL186:
 2648 000e E360     		str	r3, [r4, #12]
 2649 0010 3026     		mov	r6, #48
 2650              	.LVL187:
 2651              	.L215:
1951:.\Generated_Source\PSoC4/CyLib.c ****     }
1952:.\Generated_Source\PSoC4/CyLib.c **** 
1953:.\Generated_Source\PSoC4/CyLib.c ****     cydelayFreqMhz = (uint8)((cydelayFreqHz + CY_DELAY_1M_MINUS_1_THRESHOLD) / CY_DELAY_1M_THRESHOL
 2652              		.loc 1 1953 0
 2653 0012 2672     		strb	r6, [r4, #8]
1954:.\Generated_Source\PSoC4/CyLib.c ****     cydelayFreqKhz = (cydelayFreqHz + CY_DELAY_1K_MINUS_1_THRESHOLD) / CY_DELAY_1K_THRESHOLD;
 2654              		.loc 1 1954 0
 2655 0014 6060     		str	r0, [r4, #4]
1955:.\Generated_Source\PSoC4/CyLib.c ****     cydelay32kMs   = CY_DELAY_MS_OVERFLOW * cydelayFreqKhz;
 2656              		.loc 1 1955 0
 2657 0016 2160     		str	r1, [r4]
1956:.\Generated_Source\PSoC4/CyLib.c **** }
 2658              		.loc 1 1956 0
ARM GAS  C:\Users\Steve\AppData\Local\Temp\ccc4U1xk.s 			page 88


 2659              		@ sp needed for prologue
 2660 0018 70BD     		pop	{r4, r5, r6, pc}
 2661              	.LVL188:
 2662              	.L216:
1946:.\Generated_Source\PSoC4/CyLib.c ****         cydelayFreqHz = freq;
 2663              		.loc 1 1946 0
 2664 001a E060     		str	r0, [r4, #12]
 2665 001c 0A48     		ldr	r0, .L217+16
 2666              	.LVL189:
 2667 001e 0B49     		ldr	r1, .L217+20
 2668 0020 2818     		add	r0, r5, r0
 2669 0022 FFF7FEFF 		bl	__aeabi_uidiv
 2670              	.LVL190:
 2671 0026 0A4A     		ldr	r2, .L217+24
 2672 0028 C6B2     		uxtb	r6, r0
 2673 002a A818     		add	r0, r5, r2
 2674 002c FA25     		mov	r5, #250
 2675              	.LVL191:
 2676 002e A900     		lsl	r1, r5, #2
 2677 0030 FFF7FEFF 		bl	__aeabi_uidiv
 2678              	.LVL192:
 2679 0034 C103     		lsl	r1, r0, #15
 2680 0036 ECE7     		b	.L215
 2681              	.L218:
 2682              		.align	2
 2683              	.L217:
 2684 0038 00000000 		.word	.LANCHOR0
 2685 003c 006CDC02 		.word	48000000
 2686 0040 0000C05D 		.word	1572864000
 2687 0044 80BB0000 		.word	48000
 2688 0048 3F420F00 		.word	999999
 2689 004c 40420F00 		.word	1000000
 2690 0050 E7030000 		.word	999
 2691              		.cfi_endproc
 2692              	.LFE47:
 2693              		.size	CyDelayFreq, .-CyDelayFreq
 2694              		.global	cydelay32kMs
 2695              		.global	cydelayFreqMhz
 2696              		.global	cydelayFreqKhz
 2697              		.global	cydelayFreqHz
 2698              		.section	.rodata
 2699              		.align	2
 2700              		.set	.LANCHOR1,. + 0
 2701              		.type	cyImoFreqMhz2Reg.4608, %object
 2702              		.size	cyImoFreqMhz2Reg.4608, 46
 2703              	cyImoFreqMhz2Reg.4608:
 2704 0000 03       		.byte	3
 2705 0001 04       		.byte	4
 2706 0002 05       		.byte	5
 2707 0003 06       		.byte	6
 2708 0004 07       		.byte	7
 2709 0005 08       		.byte	8
 2710 0006 09       		.byte	9
 2711 0007 0A       		.byte	10
 2712 0008 0B       		.byte	11
 2713 0009 0C       		.byte	12
 2714 000a 0E       		.byte	14
ARM GAS  C:\Users\Steve\AppData\Local\Temp\ccc4U1xk.s 			page 89


 2715 000b 0F       		.byte	15
 2716 000c 10       		.byte	16
 2717 000d 11       		.byte	17
 2718 000e 12       		.byte	18
 2719 000f 13       		.byte	19
 2720 0010 14       		.byte	20
 2721 0011 15       		.byte	21
 2722 0012 16       		.byte	22
 2723 0013 17       		.byte	23
 2724 0014 18       		.byte	24
 2725 0015 19       		.byte	25
 2726 0016 1B       		.byte	27
 2727 0017 1C       		.byte	28
 2728 0018 1D       		.byte	29
 2729 0019 1E       		.byte	30
 2730 001a 1F       		.byte	31
 2731 001b 20       		.byte	32
 2732 001c 21       		.byte	33
 2733 001d 22       		.byte	34
 2734 001e 23       		.byte	35
 2735 001f 25       		.byte	37
 2736 0020 26       		.byte	38
 2737 0021 27       		.byte	39
 2738 0022 28       		.byte	40
 2739 0023 29       		.byte	41
 2740 0024 2A       		.byte	42
 2741 0025 2B       		.byte	43
 2742 0026 2E       		.byte	46
 2743 0027 2F       		.byte	47
 2744 0028 30       		.byte	48
 2745 0029 31       		.byte	49
 2746 002a 32       		.byte	50
 2747 002b 33       		.byte	51
 2748 002c 34       		.byte	52
 2749 002d 35       		.byte	53
 2750 002e 0000     		.data
 2751              		.align	2
 2752              		.set	.LANCHOR0,. + 0
 2753              		.type	cydelay32kMs, %object
 2754              		.size	cydelay32kMs, 4
 2755              	cydelay32kMs:
 2756 0000 0000C05D 		.word	1572864000
 2757              		.type	cydelayFreqKhz, %object
 2758              		.size	cydelayFreqKhz, 4
 2759              	cydelayFreqKhz:
 2760 0004 80BB0000 		.word	48000
 2761              		.type	cydelayFreqMhz, %object
 2762              		.size	cydelayFreqMhz, 1
 2763              	cydelayFreqMhz:
 2764 0008 30       		.byte	48
 2765 0009 000000   		.space	3
 2766              		.type	cydelayFreqHz, %object
 2767              		.size	cydelayFreqHz, 4
 2768              	cydelayFreqHz:
 2769 000c 006CDC02 		.word	48000000
 2770              		.text
 2771              	.Letext0:
ARM GAS  C:\Users\Steve\AppData\Local\Temp\ccc4U1xk.s 			page 90


 2772              		.file 2 ".\\Generated_Source\\PSoC4\\cytypes.h"
 2773              		.file 3 ".\\Generated_Source\\PSoC4\\CyLib.h"
 2774              		.section	.debug_info,"",%progbits
 2775              	.Ldebug_info0:
 2776 0000 FF0E0000 		.4byte	0xeff
 2777 0004 0200     		.2byte	0x2
 2778 0006 00000000 		.4byte	.Ldebug_abbrev0
 2779 000a 04       		.byte	0x4
 2780 000b 01       		.uleb128 0x1
 2781 000c 91040000 		.4byte	.LASF103
 2782 0010 01       		.byte	0x1
 2783 0011 1E030000 		.4byte	.LASF104
 2784 0015 C1020000 		.4byte	.LASF105
 2785 0019 68000000 		.4byte	.Ldebug_ranges0+0x68
 2786 001d 00000000 		.4byte	0
 2787 0021 00000000 		.4byte	0
 2788 0025 00000000 		.4byte	.Ldebug_line0
 2789 0029 02       		.uleb128 0x2
 2790 002a 01       		.byte	0x1
 2791 002b 06       		.byte	0x6
 2792 002c D5000000 		.4byte	.LASF0
 2793 0030 02       		.uleb128 0x2
 2794 0031 01       		.byte	0x1
 2795 0032 08       		.byte	0x8
 2796 0033 F0040000 		.4byte	.LASF1
 2797 0037 02       		.uleb128 0x2
 2798 0038 02       		.byte	0x2
 2799 0039 05       		.byte	0x5
 2800 003a FE040000 		.4byte	.LASF2
 2801 003e 02       		.uleb128 0x2
 2802 003f 02       		.byte	0x2
 2803 0040 07       		.byte	0x7
 2804 0041 FC020000 		.4byte	.LASF3
 2805 0045 02       		.uleb128 0x2
 2806 0046 04       		.byte	0x4
 2807 0047 05       		.byte	0x5
 2808 0048 3F010000 		.4byte	.LASF4
 2809 004c 02       		.uleb128 0x2
 2810 004d 04       		.byte	0x4
 2811 004e 07       		.byte	0x7
 2812 004f 4E020000 		.4byte	.LASF5
 2813 0053 02       		.uleb128 0x2
 2814 0054 08       		.byte	0x8
 2815 0055 05       		.byte	0x5
 2816 0056 C7000000 		.4byte	.LASF6
 2817 005a 02       		.uleb128 0x2
 2818 005b 08       		.byte	0x8
 2819 005c 07       		.byte	0x7
 2820 005d 85000000 		.4byte	.LASF7
 2821 0061 03       		.uleb128 0x3
 2822 0062 04       		.byte	0x4
 2823 0063 05       		.byte	0x5
 2824 0064 696E7400 		.ascii	"int\000"
 2825 0068 02       		.uleb128 0x2
 2826 0069 04       		.byte	0x4
 2827 006a 07       		.byte	0x7
 2828 006b 41020000 		.4byte	.LASF8
ARM GAS  C:\Users\Steve\AppData\Local\Temp\ccc4U1xk.s 			page 91


 2829 006f 04       		.uleb128 0x4
 2830 0070 55010000 		.4byte	.LASF9
 2831 0074 02       		.byte	0x2
 2832 0075 5B       		.byte	0x5b
 2833 0076 30000000 		.4byte	0x30
 2834 007a 04       		.uleb128 0x4
 2835 007b 1A000000 		.4byte	.LASF10
 2836 007f 02       		.byte	0x2
 2837 0080 5C       		.byte	0x5c
 2838 0081 3E000000 		.4byte	0x3e
 2839 0085 04       		.uleb128 0x4
 2840 0086 C7010000 		.4byte	.LASF11
 2841 008a 02       		.byte	0x2
 2842 008b 5D       		.byte	0x5d
 2843 008c 4C000000 		.4byte	0x4c
 2844 0090 02       		.uleb128 0x2
 2845 0091 04       		.byte	0x4
 2846 0092 04       		.byte	0x4
 2847 0093 3E040000 		.4byte	.LASF12
 2848 0097 02       		.uleb128 0x2
 2849 0098 08       		.byte	0x8
 2850 0099 04       		.byte	0x4
 2851 009a 71010000 		.4byte	.LASF13
 2852 009e 02       		.uleb128 0x2
 2853 009f 01       		.byte	0x1
 2854 00a0 08       		.byte	0x8
 2855 00a1 97050000 		.4byte	.LASF14
 2856 00a5 04       		.uleb128 0x4
 2857 00a6 DA040000 		.4byte	.LASF15
 2858 00aa 02       		.byte	0x2
 2859 00ab F0       		.byte	0xf0
 2860 00ac B0000000 		.4byte	0xb0
 2861 00b0 05       		.uleb128 0x5
 2862 00b1 6F000000 		.4byte	0x6f
 2863 00b5 04       		.uleb128 0x4
 2864 00b6 77030000 		.4byte	.LASF16
 2865 00ba 02       		.byte	0x2
 2866 00bb F2       		.byte	0xf2
 2867 00bc C0000000 		.4byte	0xc0
 2868 00c0 05       		.uleb128 0x5
 2869 00c1 85000000 		.4byte	0x85
 2870 00c5 06       		.uleb128 0x6
 2871 00c6 AA050000 		.4byte	.LASF17
 2872 00ca 02       		.byte	0x2
 2873 00cb 0201     		.2byte	0x102
 2874 00cd D1000000 		.4byte	0xd1
 2875 00d1 07       		.uleb128 0x7
 2876 00d2 04       		.byte	0x4
 2877 00d3 D7000000 		.4byte	0xd7
 2878 00d7 08       		.uleb128 0x8
 2879 00d8 01       		.byte	0x1
 2880 00d9 02       		.uleb128 0x2
 2881 00da 04       		.byte	0x4
 2882 00db 07       		.byte	0x7
 2883 00dc B0030000 		.4byte	.LASF18
 2884 00e0 09       		.uleb128 0x9
 2885 00e1 01       		.byte	0x1
ARM GAS  C:\Users\Steve\AppData\Local\Temp\ccc4U1xk.s 			page 92


 2886 00e2 3F030000 		.4byte	.LASF106
 2887 00e6 01       		.byte	0x1
 2888 00e7 54       		.byte	0x54
 2889 00e8 01       		.byte	0x1
 2890 00e9 01       		.byte	0x1
 2891 00ea 0A       		.uleb128 0xa
 2892 00eb 01       		.byte	0x1
 2893 00ec E9040000 		.4byte	.LASF101
 2894 00f0 01       		.byte	0x1
 2895 00f1 2F07     		.2byte	0x72f
 2896 00f3 01       		.byte	0x1
 2897 00f4 01       		.byte	0x1
 2898 00f5 06010000 		.4byte	0x106
 2899 00f9 0B       		.uleb128 0xb
 2900 00fa 81050000 		.4byte	.LASF19
 2901 00fe 01       		.byte	0x1
 2902 00ff 2F07     		.2byte	0x72f
 2903 0101 6F000000 		.4byte	0x6f
 2904 0105 00       		.byte	0
 2905 0106 0C       		.uleb128 0xc
 2906 0107 01       		.byte	0x1
 2907 0108 42060000 		.4byte	.LASF107
 2908 010c 01       		.byte	0x1
 2909 010d B801     		.2byte	0x1b8
 2910 010f 01       		.byte	0x1
 2911 0110 85000000 		.4byte	0x85
 2912 0114 01       		.byte	0x1
 2913 0115 26010000 		.4byte	0x126
 2914 0119 0B       		.uleb128 0xb
 2915 011a 5F000000 		.4byte	.LASF20
 2916 011e 01       		.byte	0x1
 2917 011f B801     		.2byte	0x1b8
 2918 0121 85000000 		.4byte	0x85
 2919 0125 00       		.byte	0
 2920 0126 0D       		.uleb128 0xd
 2921 0127 01       		.byte	0x1
 2922 0128 31060000 		.4byte	.LASF21
 2923 012c 01       		.byte	0x1
 2924 012d 2C       		.byte	0x2c
 2925 012e 01       		.byte	0x1
 2926 012f 00000000 		.4byte	.LFB0
 2927 0133 14000000 		.4byte	.LFE0
 2928 0137 02       		.byte	0x2
 2929 0138 7D       		.byte	0x7d
 2930 0139 00       		.sleb128 0
 2931 013a 01       		.byte	0x1
 2932 013b 0D       		.uleb128 0xd
 2933 013c 01       		.byte	0x1
 2934 013d 8A020000 		.4byte	.LASF22
 2935 0141 01       		.byte	0x1
 2936 0142 40       		.byte	0x40
 2937 0143 01       		.byte	0x1
 2938 0144 00000000 		.4byte	.LFB1
 2939 0148 10000000 		.4byte	.LFE1
 2940 014c 02       		.byte	0x2
 2941 014d 7D       		.byte	0x7d
 2942 014e 00       		.sleb128 0
ARM GAS  C:\Users\Steve\AppData\Local\Temp\ccc4U1xk.s 			page 93


 2943 014f 01       		.byte	0x1
 2944 0150 0E       		.uleb128 0xe
 2945 0151 E0000000 		.4byte	0xe0
 2946 0155 00000000 		.4byte	.LFB2
 2947 0159 14000000 		.4byte	.LFE2
 2948 015d 02       		.byte	0x2
 2949 015e 7D       		.byte	0x7d
 2950 015f 00       		.sleb128 0
 2951 0160 01       		.byte	0x1
 2952 0161 0D       		.uleb128 0xd
 2953 0162 01       		.byte	0x1
 2954 0163 78010000 		.4byte	.LASF23
 2955 0167 01       		.byte	0x1
 2956 0168 6D       		.byte	0x6d
 2957 0169 01       		.byte	0x1
 2958 016a 00000000 		.4byte	.LFB3
 2959 016e 10000000 		.4byte	.LFE3
 2960 0172 02       		.byte	0x2
 2961 0173 7D       		.byte	0x7d
 2962 0174 00       		.sleb128 0
 2963 0175 01       		.byte	0x1
 2964 0176 0F       		.uleb128 0xf
 2965 0177 01       		.byte	0x1
 2966 0178 30000000 		.4byte	.LASF24
 2967 017c 01       		.byte	0x1
 2968 017d 91       		.byte	0x91
 2969 017e 01       		.byte	0x1
 2970 017f 00000000 		.4byte	.LFB4
 2971 0183 18000000 		.4byte	.LFE4
 2972 0187 02       		.byte	0x2
 2973 0188 7D       		.byte	0x7d
 2974 0189 00       		.sleb128 0
 2975 018a 01       		.byte	0x1
 2976 018b 9F010000 		.4byte	0x19f
 2977 018f 10       		.uleb128 0x10
 2978 0190 5C050000 		.4byte	.LASF26
 2979 0194 01       		.byte	0x1
 2980 0195 91       		.byte	0x91
 2981 0196 85000000 		.4byte	0x85
 2982 019a 00000000 		.4byte	.LLST0
 2983 019e 00       		.byte	0
 2984 019f 11       		.uleb128 0x11
 2985 01a0 01       		.byte	0x1
 2986 01a1 C3050000 		.4byte	.LASF25
 2987 01a5 01       		.byte	0x1
 2988 01a6 B8       		.byte	0xb8
 2989 01a7 01       		.byte	0x1
 2990 01a8 00000000 		.4byte	.LFB5
 2991 01ac 20000000 		.4byte	.LFE5
 2992 01b0 21000000 		.4byte	.LLST1
 2993 01b4 01       		.byte	0x1
 2994 01b5 C9010000 		.4byte	0x1c9
 2995 01b9 10       		.uleb128 0x10
 2996 01ba 29060000 		.4byte	.LASF27
 2997 01be 01       		.byte	0x1
 2998 01bf B8       		.byte	0xb8
 2999 01c0 85000000 		.4byte	0x85
ARM GAS  C:\Users\Steve\AppData\Local\Temp\ccc4U1xk.s 			page 94


 3000 01c4 41000000 		.4byte	.LLST2
 3001 01c8 00       		.byte	0
 3002 01c9 12       		.uleb128 0x12
 3003 01ca 01       		.byte	0x1
 3004 01cb 10010000 		.4byte	.LASF28
 3005 01cf 01       		.byte	0x1
 3006 01d0 6501     		.2byte	0x165
 3007 01d2 01       		.byte	0x1
 3008 01d3 00000000 		.4byte	.LFB7
 3009 01d7 34000000 		.4byte	.LFE7
 3010 01db 62000000 		.4byte	.LLST3
 3011 01df 01       		.byte	0x1
 3012 01e0 17020000 		.4byte	0x217
 3013 01e4 13       		.uleb128 0x13
 3014 01e5 7B020000 		.4byte	.LASF30
 3015 01e9 01       		.byte	0x1
 3016 01ea 6701     		.2byte	0x167
 3017 01ec 6F000000 		.4byte	0x6f
 3018 01f0 82000000 		.4byte	.LLST4
 3019 01f4 14       		.uleb128 0x14
 3020 01f5 E0000000 		.4byte	0xe0
 3021 01f9 0E000000 		.4byte	.LBB78
 3022 01fd 18000000 		.4byte	.LBE78
 3023 0201 01       		.byte	0x1
 3024 0202 6F01     		.2byte	0x16f
 3025 0204 15       		.uleb128 0x15
 3026 0205 06000000 		.4byte	.LVL4
 3027 0209 D00E0000 		.4byte	0xed0
 3028 020d 15       		.uleb128 0x15
 3029 020e 28000000 		.4byte	.LVL5
 3030 0212 DE0E0000 		.4byte	0xede
 3031 0216 00       		.byte	0
 3032 0217 12       		.uleb128 0x12
 3033 0218 01       		.byte	0x1
 3034 0219 49000000 		.4byte	.LASF29
 3035 021d 01       		.byte	0x1
 3036 021e 8B01     		.2byte	0x18b
 3037 0220 01       		.byte	0x1
 3038 0221 00000000 		.4byte	.LFB8
 3039 0225 48000000 		.4byte	.LFE8
 3040 0229 95000000 		.4byte	.LLST5
 3041 022d 01       		.byte	0x1
 3042 022e 65020000 		.4byte	0x265
 3043 0232 13       		.uleb128 0x13
 3044 0233 7B020000 		.4byte	.LASF30
 3045 0237 01       		.byte	0x1
 3046 0238 8D01     		.2byte	0x18d
 3047 023a 6F000000 		.4byte	0x6f
 3048 023e B5000000 		.4byte	.LLST6
 3049 0242 14       		.uleb128 0x14
 3050 0243 E0000000 		.4byte	0xe0
 3051 0247 0E000000 		.4byte	.LBB80
 3052 024b 18000000 		.4byte	.LBE80
 3053 024f 01       		.byte	0x1
 3054 0250 9501     		.2byte	0x195
 3055 0252 15       		.uleb128 0x15
 3056 0253 06000000 		.4byte	.LVL6
ARM GAS  C:\Users\Steve\AppData\Local\Temp\ccc4U1xk.s 			page 95


 3057 0257 D00E0000 		.4byte	0xed0
 3058 025b 15       		.uleb128 0x15
 3059 025c 38000000 		.4byte	.LVL7
 3060 0260 DE0E0000 		.4byte	0xede
 3061 0264 00       		.byte	0
 3062 0265 16       		.uleb128 0x16
 3063 0266 06010000 		.4byte	0x106
 3064 026a 00000000 		.4byte	.LFB9
 3065 026e 20000000 		.4byte	.LFE9
 3066 0272 C8000000 		.4byte	.LLST7
 3067 0276 01       		.byte	0x1
 3068 0277 9F020000 		.4byte	0x29f
 3069 027b 17       		.uleb128 0x17
 3070 027c 19010000 		.4byte	0x119
 3071 0280 E8000000 		.4byte	.LLST8
 3072 0284 18       		.uleb128 0x18
 3073 0285 EA000000 		.4byte	0xea
 3074 0289 06000000 		.4byte	.LBB82
 3075 028d 08000000 		.4byte	.LBE82
 3076 0291 01       		.byte	0x1
 3077 0292 BA01     		.2byte	0x1ba
 3078 0294 17       		.uleb128 0x17
 3079 0295 F9000000 		.4byte	0xf9
 3080 0299 09010000 		.4byte	.LLST9
 3081 029d 00       		.byte	0
 3082 029e 00       		.byte	0
 3083 029f 12       		.uleb128 0x12
 3084 02a0 01       		.byte	0x1
 3085 02a1 00000000 		.4byte	.LASF31
 3086 02a5 01       		.byte	0x1
 3087 02a6 DB01     		.2byte	0x1db
 3088 02a8 01       		.byte	0x1
 3089 02a9 00000000 		.4byte	.LFB10
 3090 02ad 54000000 		.4byte	.LFE10
 3091 02b1 1D010000 		.4byte	.LLST10
 3092 02b5 01       		.byte	0x1
 3093 02b6 4D030000 		.4byte	0x34d
 3094 02ba 19       		.uleb128 0x19
 3095 02bb 5F000000 		.4byte	.LASF20
 3096 02bf 01       		.byte	0x1
 3097 02c0 DB01     		.2byte	0x1db
 3098 02c2 85000000 		.4byte	0x85
 3099 02c6 3D010000 		.4byte	.LLST11
 3100 02ca 19       		.uleb128 0x19
 3101 02cb A5050000 		.4byte	.LASF32
 3102 02cf 01       		.byte	0x1
 3103 02d0 DB01     		.2byte	0x1db
 3104 02d2 85000000 		.4byte	0x85
 3105 02d6 5E010000 		.4byte	.LLST12
 3106 02da 13       		.uleb128 0x13
 3107 02db F2050000 		.4byte	.LASF33
 3108 02df 01       		.byte	0x1
 3109 02e0 DD01     		.2byte	0x1dd
 3110 02e2 85000000 		.4byte	0x85
 3111 02e6 7F010000 		.4byte	.LLST13
 3112 02ea 1A       		.uleb128 0x1a
 3113 02eb EA000000 		.4byte	0xea
ARM GAS  C:\Users\Steve\AppData\Local\Temp\ccc4U1xk.s 			page 96


 3114 02ef 06000000 		.4byte	.LBB84
 3115 02f3 08000000 		.4byte	.LBE84
 3116 02f7 01       		.byte	0x1
 3117 02f8 DF01     		.2byte	0x1df
 3118 02fa 08030000 		.4byte	0x308
 3119 02fe 17       		.uleb128 0x17
 3120 02ff F9000000 		.4byte	0xf9
 3121 0303 9D010000 		.4byte	.LLST14
 3122 0307 00       		.byte	0
 3123 0308 14       		.uleb128 0x14
 3124 0309 E0000000 		.4byte	0xe0
 3125 030d 10000000 		.4byte	.LBB86
 3126 0311 1A000000 		.4byte	.LBE86
 3127 0315 01       		.byte	0x1
 3128 0316 E601     		.2byte	0x1e6
 3129 0318 18       		.uleb128 0x18
 3130 0319 06010000 		.4byte	0x106
 3131 031d 1A000000 		.4byte	.LBB88
 3132 0321 2C000000 		.4byte	.LBE88
 3133 0325 01       		.byte	0x1
 3134 0326 E901     		.2byte	0x1e9
 3135 0328 17       		.uleb128 0x17
 3136 0329 19010000 		.4byte	0x119
 3137 032d B1010000 		.4byte	.LLST15
 3138 0331 18       		.uleb128 0x18
 3139 0332 EA000000 		.4byte	0xea
 3140 0336 1E000000 		.4byte	.LBB90
 3141 033a 20000000 		.4byte	.LBE90
 3142 033e 01       		.byte	0x1
 3143 033f BA01     		.2byte	0x1ba
 3144 0341 17       		.uleb128 0x17
 3145 0342 F9000000 		.4byte	0xf9
 3146 0346 D2010000 		.4byte	.LLST16
 3147 034a 00       		.byte	0
 3148 034b 00       		.byte	0
 3149 034c 00       		.byte	0
 3150 034d 1B       		.uleb128 0x1b
 3151 034e 01       		.byte	0x1
 3152 034f E1000000 		.4byte	.LASF36
 3153 0353 01       		.byte	0x1
 3154 0354 0202     		.2byte	0x202
 3155 0356 01       		.byte	0x1
 3156 0357 85000000 		.4byte	0x85
 3157 035b 00000000 		.4byte	.LFB11
 3158 035f 14000000 		.4byte	.LFE11
 3159 0363 02       		.byte	0x2
 3160 0364 7D       		.byte	0x7d
 3161 0365 00       		.sleb128 0
 3162 0366 01       		.byte	0x1
 3163 0367 7C030000 		.4byte	0x37c
 3164 036b 19       		.uleb128 0x19
 3165 036c 5F000000 		.4byte	.LASF20
 3166 0370 01       		.byte	0x1
 3167 0371 0202     		.2byte	0x202
 3168 0373 85000000 		.4byte	0x85
 3169 0377 E6010000 		.4byte	.LLST17
 3170 037b 00       		.byte	0
ARM GAS  C:\Users\Steve\AppData\Local\Temp\ccc4U1xk.s 			page 97


 3171 037c 12       		.uleb128 0x12
 3172 037d 01       		.byte	0x1
 3173 037e 7D030000 		.4byte	.LASF34
 3174 0382 01       		.byte	0x1
 3175 0383 2302     		.2byte	0x223
 3176 0385 01       		.byte	0x1
 3177 0386 00000000 		.4byte	.LFB12
 3178 038a 48000000 		.4byte	.LFE12
 3179 038e 07020000 		.4byte	.LLST18
 3180 0392 01       		.byte	0x1
 3181 0393 1A040000 		.4byte	0x41a
 3182 0397 19       		.uleb128 0x19
 3183 0398 5F000000 		.4byte	.LASF20
 3184 039c 01       		.byte	0x1
 3185 039d 2302     		.2byte	0x223
 3186 039f 85000000 		.4byte	0x85
 3187 03a3 27020000 		.4byte	.LLST19
 3188 03a7 19       		.uleb128 0x19
 3189 03a8 6A010000 		.4byte	.LASF35
 3190 03ac 01       		.byte	0x1
 3191 03ad 2302     		.2byte	0x223
 3192 03af 85000000 		.4byte	0x85
 3193 03b3 48020000 		.4byte	.LLST20
 3194 03b7 1A       		.uleb128 0x1a
 3195 03b8 EA000000 		.4byte	0xea
 3196 03bc 06000000 		.4byte	.LBB92
 3197 03c0 08000000 		.4byte	.LBE92
 3198 03c4 01       		.byte	0x1
 3199 03c5 2502     		.2byte	0x225
 3200 03c7 D5030000 		.4byte	0x3d5
 3201 03cb 17       		.uleb128 0x17
 3202 03cc F9000000 		.4byte	0xf9
 3203 03d0 69020000 		.4byte	.LLST21
 3204 03d4 00       		.byte	0
 3205 03d5 14       		.uleb128 0x14
 3206 03d6 E0000000 		.4byte	0xe0
 3207 03da 10000000 		.4byte	.LBB94
 3208 03de 1A000000 		.4byte	.LBE94
 3209 03e2 01       		.byte	0x1
 3210 03e3 2D02     		.2byte	0x22d
 3211 03e5 18       		.uleb128 0x18
 3212 03e6 06010000 		.4byte	0x106
 3213 03ea 1A000000 		.4byte	.LBB96
 3214 03ee 2A000000 		.4byte	.LBE96
 3215 03f2 01       		.byte	0x1
 3216 03f3 3002     		.2byte	0x230
 3217 03f5 17       		.uleb128 0x17
 3218 03f6 19010000 		.4byte	0x119
 3219 03fa 7D020000 		.4byte	.LLST22
 3220 03fe 18       		.uleb128 0x18
 3221 03ff EA000000 		.4byte	0xea
 3222 0403 1E000000 		.4byte	.LBB98
 3223 0407 20000000 		.4byte	.LBE98
 3224 040b 01       		.byte	0x1
 3225 040c BA01     		.2byte	0x1ba
 3226 040e 17       		.uleb128 0x17
 3227 040f F9000000 		.4byte	0xf9
ARM GAS  C:\Users\Steve\AppData\Local\Temp\ccc4U1xk.s 			page 98


 3228 0413 9E020000 		.4byte	.LLST23
 3229 0417 00       		.byte	0
 3230 0418 00       		.byte	0
 3231 0419 00       		.byte	0
 3232 041a 1C       		.uleb128 0x1c
 3233 041b 01       		.byte	0x1
 3234 041c 97030000 		.4byte	.LASF37
 3235 0420 01       		.byte	0x1
 3236 0421 4702     		.2byte	0x247
 3237 0423 01       		.byte	0x1
 3238 0424 85000000 		.4byte	0x85
 3239 0428 00000000 		.4byte	.LFB13
 3240 042c 20000000 		.4byte	.LFE13
 3241 0430 B2020000 		.4byte	.LLST24
 3242 0434 01       		.byte	0x1
 3243 0435 64040000 		.4byte	0x464
 3244 0439 19       		.uleb128 0x19
 3245 043a 5F000000 		.4byte	.LASF20
 3246 043e 01       		.byte	0x1
 3247 043f 4702     		.2byte	0x247
 3248 0441 85000000 		.4byte	0x85
 3249 0445 D2020000 		.4byte	.LLST25
 3250 0449 18       		.uleb128 0x18
 3251 044a EA000000 		.4byte	0xea
 3252 044e 06000000 		.4byte	.LBB100
 3253 0452 08000000 		.4byte	.LBE100
 3254 0456 01       		.byte	0x1
 3255 0457 4902     		.2byte	0x249
 3256 0459 17       		.uleb128 0x17
 3257 045a F9000000 		.4byte	0xf9
 3258 045e F3020000 		.4byte	.LLST26
 3259 0462 00       		.byte	0
 3260 0463 00       		.byte	0
 3261 0464 12       		.uleb128 0x12
 3262 0465 01       		.byte	0x1
 3263 0466 26020000 		.4byte	.LASF38
 3264 046a 01       		.byte	0x1
 3265 046b 6802     		.2byte	0x268
 3266 046d 01       		.byte	0x1
 3267 046e 00000000 		.4byte	.LFB14
 3268 0472 28000000 		.4byte	.LFE14
 3269 0476 07030000 		.4byte	.LLST27
 3270 047a 01       		.byte	0x1
 3271 047b A0040000 		.4byte	0x4a0
 3272 047f 19       		.uleb128 0x19
 3273 0480 35020000 		.4byte	.LASF39
 3274 0484 01       		.byte	0x1
 3275 0485 6802     		.2byte	0x268
 3276 0487 85000000 		.4byte	0x85
 3277 048b 27030000 		.4byte	.LLST28
 3278 048f 14       		.uleb128 0x14
 3279 0490 E0000000 		.4byte	0xe0
 3280 0494 0A000000 		.4byte	.LBB102
 3281 0498 14000000 		.4byte	.LBE102
 3282 049c 01       		.byte	0x1
 3283 049d 6F02     		.2byte	0x26f
 3284 049f 00       		.byte	0
ARM GAS  C:\Users\Steve\AppData\Local\Temp\ccc4U1xk.s 			page 99


 3285 04a0 12       		.uleb128 0x12
 3286 04a1 01       		.byte	0x1
 3287 04a2 1C050000 		.4byte	.LASF40
 3288 04a6 01       		.byte	0x1
 3289 04a7 8D02     		.2byte	0x28d
 3290 04a9 01       		.byte	0x1
 3291 04aa 00000000 		.4byte	.LFB15
 3292 04ae 28000000 		.4byte	.LFE15
 3293 04b2 48030000 		.4byte	.LLST29
 3294 04b6 01       		.byte	0x1
 3295 04b7 DA040000 		.4byte	0x4da
 3296 04bb 1D       		.uleb128 0x1d
 3297 04bc 35020000 		.4byte	.LASF39
 3298 04c0 01       		.byte	0x1
 3299 04c1 8D02     		.2byte	0x28d
 3300 04c3 85000000 		.4byte	0x85
 3301 04c7 01       		.byte	0x1
 3302 04c8 50       		.byte	0x50
 3303 04c9 14       		.uleb128 0x14
 3304 04ca E0000000 		.4byte	0xe0
 3305 04ce 0A000000 		.4byte	.LBB104
 3306 04d2 14000000 		.4byte	.LBE104
 3307 04d6 01       		.byte	0x1
 3308 04d7 9402     		.2byte	0x294
 3309 04d9 00       		.byte	0
 3310 04da 12       		.uleb128 0x12
 3311 04db 01       		.byte	0x1
 3312 04dc 88010000 		.4byte	.LASF41
 3313 04e0 01       		.byte	0x1
 3314 04e1 B402     		.2byte	0x2b4
 3315 04e3 01       		.byte	0x1
 3316 04e4 00000000 		.4byte	.LFB16
 3317 04e8 48000000 		.4byte	.LFE16
 3318 04ec 68030000 		.4byte	.LLST30
 3319 04f0 01       		.byte	0x1
 3320 04f1 87050000 		.4byte	0x587
 3321 04f5 19       		.uleb128 0x19
 3322 04f6 1D060000 		.4byte	.LASF42
 3323 04fa 01       		.byte	0x1
 3324 04fb B402     		.2byte	0x2b4
 3325 04fd 85000000 		.4byte	0x85
 3326 0501 88030000 		.4byte	.LLST31
 3327 0505 13       		.uleb128 0x13
 3328 0506 F2050000 		.4byte	.LASF33
 3329 050a 01       		.byte	0x1
 3330 050b B602     		.2byte	0x2b6
 3331 050d 85000000 		.4byte	0x85
 3332 0511 A9030000 		.4byte	.LLST32
 3333 0515 13       		.uleb128 0x13
 3334 0516 11020000 		.4byte	.LASF43
 3335 051a 01       		.byte	0x1
 3336 051b B702     		.2byte	0x2b7
 3337 051d 85000000 		.4byte	0x85
 3338 0521 D2030000 		.4byte	.LLST33
 3339 0525 1E       		.uleb128 0x1e
 3340 0526 06010000 		.4byte	0x106
 3341 052a 00000000 		.4byte	.LBB106
ARM GAS  C:\Users\Steve\AppData\Local\Temp\ccc4U1xk.s 			page 100


 3342 052e 00000000 		.4byte	.Ldebug_ranges0+0
 3343 0532 01       		.byte	0x1
 3344 0533 B902     		.2byte	0x2b9
 3345 0535 40050000 		.4byte	0x540
 3346 0539 1F       		.uleb128 0x1f
 3347 053a 19010000 		.4byte	0x119
 3348 053e 00       		.byte	0
 3349 053f 00       		.byte	0
 3350 0540 1E       		.uleb128 0x1e
 3351 0541 06010000 		.4byte	0x106
 3352 0545 06000000 		.4byte	.LBB111
 3353 0549 20000000 		.4byte	.Ldebug_ranges0+0x20
 3354 054d 01       		.byte	0x1
 3355 054e BA02     		.2byte	0x2ba
 3356 0550 5B050000 		.4byte	0x55b
 3357 0554 1F       		.uleb128 0x1f
 3358 0555 19010000 		.4byte	0x119
 3359 0559 01       		.byte	0x1
 3360 055a 00       		.byte	0
 3361 055b 1E       		.uleb128 0x1e
 3362 055c 06010000 		.4byte	0x106
 3363 0560 08000000 		.4byte	.LBB114
 3364 0564 38000000 		.4byte	.Ldebug_ranges0+0x38
 3365 0568 01       		.byte	0x1
 3366 0569 BB02     		.2byte	0x2bb
 3367 056b 76050000 		.4byte	0x576
 3368 056f 1F       		.uleb128 0x1f
 3369 0570 19010000 		.4byte	0x119
 3370 0574 02       		.byte	0x2
 3371 0575 00       		.byte	0
 3372 0576 14       		.uleb128 0x14
 3373 0577 E0000000 		.4byte	0xe0
 3374 057b 20000000 		.4byte	.LBB120
 3375 057f 2A000000 		.4byte	.LBE120
 3376 0583 01       		.byte	0x1
 3377 0584 C402     		.2byte	0x2c4
 3378 0586 00       		.byte	0
 3379 0587 20       		.uleb128 0x20
 3380 0588 01       		.byte	0x1
 3381 0589 08050000 		.4byte	.LASF46
 3382 058d 01       		.byte	0x1
 3383 058e E102     		.2byte	0x2e1
 3384 0590 01       		.byte	0x1
 3385 0591 85000000 		.4byte	0x85
 3386 0595 00000000 		.4byte	.LFB17
 3387 0599 14000000 		.4byte	.LFE17
 3388 059d 02       		.byte	0x2
 3389 059e 7D       		.byte	0x7d
 3390 059f 00       		.sleb128 0
 3391 05a0 01       		.byte	0x1
 3392 05a1 12       		.uleb128 0x12
 3393 05a2 01       		.byte	0x1
 3394 05a3 69060000 		.4byte	.LASF44
 3395 05a7 01       		.byte	0x1
 3396 05a8 2B03     		.2byte	0x32b
 3397 05aa 01       		.byte	0x1
 3398 05ab 00000000 		.4byte	.LFB19
ARM GAS  C:\Users\Steve\AppData\Local\Temp\ccc4U1xk.s 			page 101


 3399 05af 40000000 		.4byte	.LFE19
 3400 05b3 F9030000 		.4byte	.LLST34
 3401 05b7 01       		.byte	0x1
 3402 05b8 08060000 		.4byte	0x608
 3403 05bc 19       		.uleb128 0x19
 3404 05bd 3A010000 		.4byte	.LASF45
 3405 05c1 01       		.byte	0x1
 3406 05c2 2B03     		.2byte	0x32b
 3407 05c4 85000000 		.4byte	0x85
 3408 05c8 19040000 		.4byte	.LLST35
 3409 05cc 13       		.uleb128 0x13
 3410 05cd F2050000 		.4byte	.LASF33
 3411 05d1 01       		.byte	0x1
 3412 05d2 2D03     		.2byte	0x32d
 3413 05d4 85000000 		.4byte	0x85
 3414 05d8 3A040000 		.4byte	.LLST36
 3415 05dc 1E       		.uleb128 0x1e
 3416 05dd 06010000 		.4byte	0x106
 3417 05e1 00000000 		.4byte	.LBB122
 3418 05e5 50000000 		.4byte	.Ldebug_ranges0+0x50
 3419 05e9 01       		.byte	0x1
 3420 05ea 2F03     		.2byte	0x32f
 3421 05ec F7050000 		.4byte	0x5f7
 3422 05f0 1F       		.uleb128 0x1f
 3423 05f1 19010000 		.4byte	0x119
 3424 05f5 02       		.byte	0x2
 3425 05f6 00       		.byte	0
 3426 05f7 14       		.uleb128 0x14
 3427 05f8 E0000000 		.4byte	0xe0
 3428 05fc 12000000 		.4byte	.LBB126
 3429 0600 1C000000 		.4byte	.LBE126
 3430 0604 01       		.byte	0x1
 3431 0605 3603     		.2byte	0x336
 3432 0607 00       		.byte	0
 3433 0608 20       		.uleb128 0x20
 3434 0609 01       		.byte	0x1
 3435 060a 7B040000 		.4byte	.LASF47
 3436 060e 01       		.byte	0x1
 3437 060f 4F03     		.2byte	0x34f
 3438 0611 01       		.byte	0x1
 3439 0612 85000000 		.4byte	0x85
 3440 0616 00000000 		.4byte	.LFB20
 3441 061a 10000000 		.4byte	.LFE20
 3442 061e 02       		.byte	0x2
 3443 061f 7D       		.byte	0x7d
 3444 0620 00       		.sleb128 0
 3445 0621 01       		.byte	0x1
 3446 0622 1C       		.uleb128 0x1c
 3447 0623 01       		.byte	0x1
 3448 0624 4A050000 		.4byte	.LASF48
 3449 0628 01       		.byte	0x1
 3450 0629 6403     		.2byte	0x364
 3451 062b 01       		.byte	0x1
 3452 062c 85000000 		.4byte	0x85
 3453 0630 00000000 		.4byte	.LFB21
 3454 0634 1C000000 		.4byte	.LFE21
 3455 0638 63040000 		.4byte	.LLST37
ARM GAS  C:\Users\Steve\AppData\Local\Temp\ccc4U1xk.s 			page 102


 3456 063c 01       		.byte	0x1
 3457 063d 6C060000 		.4byte	0x66c
 3458 0641 19       		.uleb128 0x19
 3459 0642 5F000000 		.4byte	.LASF20
 3460 0646 01       		.byte	0x1
 3461 0647 6403     		.2byte	0x364
 3462 0649 85000000 		.4byte	0x85
 3463 064d 83040000 		.4byte	.LLST38
 3464 0651 18       		.uleb128 0x18
 3465 0652 EA000000 		.4byte	0xea
 3466 0656 06000000 		.4byte	.LBB128
 3467 065a 08000000 		.4byte	.LBE128
 3468 065e 01       		.byte	0x1
 3469 065f 6603     		.2byte	0x366
 3470 0661 17       		.uleb128 0x17
 3471 0662 F9000000 		.4byte	0xf9
 3472 0666 A4040000 		.4byte	.LLST39
 3473 066a 00       		.byte	0
 3474 066b 00       		.byte	0
 3475 066c 1C       		.uleb128 0x1c
 3476 066d 01       		.byte	0x1
 3477 066e F2000000 		.4byte	.LASF49
 3478 0672 01       		.byte	0x1
 3479 0673 7B03     		.2byte	0x37b
 3480 0675 01       		.byte	0x1
 3481 0676 85000000 		.4byte	0x85
 3482 067a 00000000 		.4byte	.LFB22
 3483 067e 34000000 		.4byte	.LFE22
 3484 0682 B8040000 		.4byte	.LLST40
 3485 0686 01       		.byte	0x1
 3486 0687 C6060000 		.4byte	0x6c6
 3487 068b 19       		.uleb128 0x19
 3488 068c 5F000000 		.4byte	.LASF20
 3489 0690 01       		.byte	0x1
 3490 0691 7B03     		.2byte	0x37b
 3491 0693 85000000 		.4byte	0x85
 3492 0697 D8040000 		.4byte	.LLST41
 3493 069b 13       		.uleb128 0x13
 3494 069c E8010000 		.4byte	.LASF50
 3495 06a0 01       		.byte	0x1
 3496 06a1 7D03     		.2byte	0x37d
 3497 06a3 85000000 		.4byte	0x85
 3498 06a7 44050000 		.4byte	.LLST42
 3499 06ab 18       		.uleb128 0x18
 3500 06ac EA000000 		.4byte	0xea
 3501 06b0 0E000000 		.4byte	.LBB130
 3502 06b4 12000000 		.4byte	.LBE130
 3503 06b8 01       		.byte	0x1
 3504 06b9 9103     		.2byte	0x391
 3505 06bb 17       		.uleb128 0x17
 3506 06bc F9000000 		.4byte	0xf9
 3507 06c0 A8050000 		.4byte	.LLST43
 3508 06c4 00       		.byte	0
 3509 06c5 00       		.byte	0
 3510 06c6 20       		.uleb128 0x20
 3511 06c7 01       		.byte	0x1
 3512 06c8 66050000 		.4byte	.LASF51
ARM GAS  C:\Users\Steve\AppData\Local\Temp\ccc4U1xk.s 			page 103


 3513 06cc 01       		.byte	0x1
 3514 06cd AC03     		.2byte	0x3ac
 3515 06cf 01       		.byte	0x1
 3516 06d0 85000000 		.4byte	0x85
 3517 06d4 00000000 		.4byte	.LFB23
 3518 06d8 14000000 		.4byte	.LFE23
 3519 06dc 02       		.byte	0x2
 3520 06dd 7D       		.byte	0x7d
 3521 06de 00       		.sleb128 0
 3522 06df 01       		.byte	0x1
 3523 06e0 12       		.uleb128 0x12
 3524 06e1 01       		.byte	0x1
 3525 06e2 27040000 		.4byte	.LASF52
 3526 06e6 01       		.byte	0x1
 3527 06e7 CD03     		.2byte	0x3cd
 3528 06e9 01       		.byte	0x1
 3529 06ea 00000000 		.4byte	.LFB24
 3530 06ee 7C000000 		.4byte	.LFE24
 3531 06f2 BC050000 		.4byte	.LLST44
 3532 06f6 01       		.byte	0x1
 3533 06f7 4E070000 		.4byte	0x74e
 3534 06fb 19       		.uleb128 0x19
 3535 06fc 35020000 		.4byte	.LASF39
 3536 0700 01       		.byte	0x1
 3537 0701 CD03     		.2byte	0x3cd
 3538 0703 85000000 		.4byte	0x85
 3539 0707 DC050000 		.4byte	.LLST45
 3540 070b 13       		.uleb128 0x13
 3541 070c 7B020000 		.4byte	.LASF30
 3542 0710 01       		.byte	0x1
 3543 0711 CF03     		.2byte	0x3cf
 3544 0713 6F000000 		.4byte	0x6f
 3545 0717 21060000 		.4byte	.LLST46
 3546 071b 13       		.uleb128 0x13
 3547 071c 10060000 		.4byte	.LASF53
 3548 0720 01       		.byte	0x1
 3549 0721 D003     		.2byte	0x3d0
 3550 0723 85000000 		.4byte	0x85
 3551 0727 3F060000 		.4byte	.LLST47
 3552 072b 14       		.uleb128 0x14
 3553 072c E0000000 		.4byte	0xe0
 3554 0730 10000000 		.4byte	.LBB132
 3555 0734 1A000000 		.4byte	.LBE132
 3556 0738 01       		.byte	0x1
 3557 0739 D903     		.2byte	0x3d9
 3558 073b 15       		.uleb128 0x15
 3559 073c 08000000 		.4byte	.LVL71
 3560 0740 D00E0000 		.4byte	0xed0
 3561 0744 15       		.uleb128 0x15
 3562 0745 38000000 		.4byte	.LVL75
 3563 0749 DE0E0000 		.4byte	0xede
 3564 074d 00       		.byte	0
 3565 074e 12       		.uleb128 0x12
 3566 074f 01       		.byte	0x1
 3567 0750 00040000 		.4byte	.LASF54
 3568 0754 01       		.byte	0x1
 3569 0755 1104     		.2byte	0x411
ARM GAS  C:\Users\Steve\AppData\Local\Temp\ccc4U1xk.s 			page 104


 3570 0757 01       		.byte	0x1
 3571 0758 00000000 		.4byte	.LFB25
 3572 075c 30000000 		.4byte	.LFE25
 3573 0760 5F060000 		.4byte	.LLST48
 3574 0764 01       		.byte	0x1
 3575 0765 8A070000 		.4byte	0x78a
 3576 0769 19       		.uleb128 0x19
 3577 076a A3010000 		.4byte	.LASF55
 3578 076e 01       		.byte	0x1
 3579 076f 1104     		.2byte	0x411
 3580 0771 85000000 		.4byte	0x85
 3581 0775 7F060000 		.4byte	.LLST49
 3582 0779 14       		.uleb128 0x14
 3583 077a E0000000 		.4byte	0xe0
 3584 077e 0A000000 		.4byte	.LBB134
 3585 0782 14000000 		.4byte	.LBE134
 3586 0786 01       		.byte	0x1
 3587 0787 1804     		.2byte	0x418
 3588 0789 00       		.byte	0
 3589 078a 21       		.uleb128 0x21
 3590 078b 01       		.byte	0x1
 3591 078c F1010000 		.4byte	.LASF56
 3592 0790 01       		.byte	0x1
 3593 0791 9205     		.2byte	0x592
 3594 0793 01       		.byte	0x1
 3595 0794 00000000 		.4byte	.LFB26
 3596 0798 2C000000 		.4byte	.LFE26
 3597 079c 02       		.byte	0x2
 3598 079d 7D       		.byte	0x7d
 3599 079e 00       		.sleb128 0
 3600 079f 01       		.byte	0x1
 3601 07a0 B5070000 		.4byte	0x7b5
 3602 07a4 19       		.uleb128 0x19
 3603 07a5 DF040000 		.4byte	.LASF57
 3604 07a9 01       		.byte	0x1
 3605 07aa 9205     		.2byte	0x592
 3606 07ac 85000000 		.4byte	0x85
 3607 07b0 A0060000 		.4byte	.LLST50
 3608 07b4 00       		.byte	0
 3609 07b5 22       		.uleb128 0x22
 3610 07b6 01       		.byte	0x1
 3611 07b7 E2050000 		.4byte	.LASF58
 3612 07bb 01       		.byte	0x1
 3613 07bc AB05     		.2byte	0x5ab
 3614 07be 01       		.byte	0x1
 3615 07bf 00000000 		.4byte	.LFB27
 3616 07c3 20000000 		.4byte	.LFE27
 3617 07c7 02       		.byte	0x2
 3618 07c8 7D       		.byte	0x7d
 3619 07c9 00       		.sleb128 0
 3620 07ca 01       		.byte	0x1
 3621 07cb 20       		.uleb128 0x20
 3622 07cc 01       		.byte	0x1
 3623 07cd 60020000 		.4byte	.LASF59
 3624 07d1 01       		.byte	0x1
 3625 07d2 C105     		.2byte	0x5c1
 3626 07d4 01       		.byte	0x1
ARM GAS  C:\Users\Steve\AppData\Local\Temp\ccc4U1xk.s 			page 105


 3627 07d5 85000000 		.4byte	0x85
 3628 07d9 00000000 		.4byte	.LFB28
 3629 07dd 10000000 		.4byte	.LFE28
 3630 07e1 02       		.byte	0x2
 3631 07e2 7D       		.byte	0x7d
 3632 07e3 00       		.sleb128 0
 3633 07e4 01       		.byte	0x1
 3634 07e5 22       		.uleb128 0x22
 3635 07e6 01       		.byte	0x1
 3636 07e7 B0010000 		.4byte	.LASF60
 3637 07eb 01       		.byte	0x1
 3638 07ec D505     		.2byte	0x5d5
 3639 07ee 01       		.byte	0x1
 3640 07ef 00000000 		.4byte	.LFB29
 3641 07f3 0C000000 		.4byte	.LFE29
 3642 07f7 02       		.byte	0x2
 3643 07f8 7D       		.byte	0x7d
 3644 07f9 00       		.sleb128 0
 3645 07fa 01       		.byte	0x1
 3646 07fb 1B       		.uleb128 0x1b
 3647 07fc 01       		.byte	0x1
 3648 07fd 6A000000 		.4byte	.LASF61
 3649 0801 01       		.byte	0x1
 3650 0802 EB05     		.2byte	0x5eb
 3651 0804 01       		.byte	0x1
 3652 0805 85000000 		.4byte	0x85
 3653 0809 00000000 		.4byte	.LFB30
 3654 080d 10000000 		.4byte	.LFE30
 3655 0811 02       		.byte	0x2
 3656 0812 7D       		.byte	0x7d
 3657 0813 00       		.sleb128 0
 3658 0814 01       		.byte	0x1
 3659 0815 28080000 		.4byte	0x828
 3660 0819 23       		.uleb128 0x23
 3661 081a 21000000 		.4byte	.LASF62
 3662 081e 01       		.byte	0x1
 3663 081f ED05     		.2byte	0x5ed
 3664 0821 85000000 		.4byte	0x85
 3665 0825 01       		.byte	0x1
 3666 0826 50       		.byte	0x50
 3667 0827 00       		.byte	0
 3668 0828 21       		.uleb128 0x21
 3669 0829 01       		.byte	0x1
 3670 082a 9C000000 		.4byte	.LASF63
 3671 082e 01       		.byte	0x1
 3672 082f 0706     		.2byte	0x607
 3673 0831 01       		.byte	0x1
 3674 0832 00000000 		.4byte	.LFB31
 3675 0836 0C000000 		.4byte	.LFE31
 3676 083a 02       		.byte	0x2
 3677 083b 7D       		.byte	0x7d
 3678 083c 00       		.sleb128 0
 3679 083d 01       		.byte	0x1
 3680 083e 51080000 		.4byte	0x851
 3681 0842 1D       		.uleb128 0x1d
 3682 0843 E3010000 		.4byte	.LASF64
 3683 0847 01       		.byte	0x1
ARM GAS  C:\Users\Steve\AppData\Local\Temp\ccc4U1xk.s 			page 106


 3684 0848 0706     		.2byte	0x607
 3685 084a 85000000 		.4byte	0x85
 3686 084e 01       		.byte	0x1
 3687 084f 50       		.byte	0x50
 3688 0850 00       		.byte	0
 3689 0851 1C       		.uleb128 0x1c
 3690 0852 01       		.byte	0x1
 3691 0853 65030000 		.4byte	.LASF65
 3692 0857 01       		.byte	0x1
 3693 0858 1D06     		.2byte	0x61d
 3694 085a 01       		.byte	0x1
 3695 085b C5000000 		.4byte	0xc5
 3696 085f 00000000 		.4byte	.LFB32
 3697 0863 16000000 		.4byte	.LFE32
 3698 0867 C1060000 		.4byte	.LLST51
 3699 086b 01       		.byte	0x1
 3700 086c C7080000 		.4byte	0x8c7
 3701 0870 19       		.uleb128 0x19
 3702 0871 DC010000 		.4byte	.LASF66
 3703 0875 01       		.byte	0x1
 3704 0876 1D06     		.2byte	0x61d
 3705 0878 6F000000 		.4byte	0x6f
 3706 087c E1060000 		.4byte	.LLST52
 3707 0880 1D       		.uleb128 0x1d
 3708 0881 CB030000 		.4byte	.LASF67
 3709 0885 01       		.byte	0x1
 3710 0886 1D06     		.2byte	0x61d
 3711 0888 C5000000 		.4byte	0xc5
 3712 088c 01       		.byte	0x1
 3713 088d 51       		.byte	0x51
 3714 088e 23       		.uleb128 0x23
 3715 088f 58000000 		.4byte	.LASF68
 3716 0893 01       		.byte	0x1
 3717 0894 1F06     		.2byte	0x61f
 3718 0896 C5000000 		.4byte	0xc5
 3719 089a 01       		.byte	0x1
 3720 089b 50       		.byte	0x50
 3721 089c 24       		.uleb128 0x24
 3722 089d 88050000 		.4byte	.LASF69
 3723 08a1 01       		.byte	0x1
 3724 08a2 2006     		.2byte	0x620
 3725 08a4 C7080000 		.4byte	0x8c7
 3726 08a8 00000020 		.4byte	0x20000000
 3727 08ac 18       		.uleb128 0x18
 3728 08ad EA000000 		.4byte	0xea
 3729 08b1 06000000 		.4byte	.LBB136
 3730 08b5 08000000 		.4byte	.LBE136
 3731 08b9 01       		.byte	0x1
 3732 08ba 2206     		.2byte	0x622
 3733 08bc 17       		.uleb128 0x17
 3734 08bd F9000000 		.4byte	0xf9
 3735 08c1 02070000 		.4byte	.LLST53
 3736 08c5 00       		.byte	0
 3737 08c6 00       		.byte	0
 3738 08c7 07       		.uleb128 0x7
 3739 08c8 04       		.byte	0x4
 3740 08c9 C5000000 		.4byte	0xc5
ARM GAS  C:\Users\Steve\AppData\Local\Temp\ccc4U1xk.s 			page 107


 3741 08cd 1C       		.uleb128 0x1c
 3742 08ce 01       		.byte	0x1
 3743 08cf 38050000 		.4byte	.LASF70
 3744 08d3 01       		.byte	0x1
 3745 08d4 3D06     		.2byte	0x63d
 3746 08d6 01       		.byte	0x1
 3747 08d7 C5000000 		.4byte	0xc5
 3748 08db 00000000 		.4byte	.LFB33
 3749 08df 14000000 		.4byte	.LFE33
 3750 08e3 16070000 		.4byte	.LLST54
 3751 08e7 01       		.byte	0x1
 3752 08e8 27090000 		.4byte	0x927
 3753 08ec 19       		.uleb128 0x19
 3754 08ed DC010000 		.4byte	.LASF66
 3755 08f1 01       		.byte	0x1
 3756 08f2 3D06     		.2byte	0x63d
 3757 08f4 6F000000 		.4byte	0x6f
 3758 08f8 36070000 		.4byte	.LLST55
 3759 08fc 24       		.uleb128 0x24
 3760 08fd 88050000 		.4byte	.LASF69
 3761 0901 01       		.byte	0x1
 3762 0902 3F06     		.2byte	0x63f
 3763 0904 C7080000 		.4byte	0x8c7
 3764 0908 00000020 		.4byte	0x20000000
 3765 090c 18       		.uleb128 0x18
 3766 090d EA000000 		.4byte	0xea
 3767 0911 06000000 		.4byte	.LBB138
 3768 0915 08000000 		.4byte	.LBE138
 3769 0919 01       		.byte	0x1
 3770 091a 4106     		.2byte	0x641
 3771 091c 17       		.uleb128 0x17
 3772 091d F9000000 		.4byte	0xf9
 3773 0921 57070000 		.4byte	.LLST56
 3774 0925 00       		.byte	0
 3775 0926 00       		.byte	0
 3776 0927 1C       		.uleb128 0x1c
 3777 0928 01       		.byte	0x1
 3778 0929 0F030000 		.4byte	.LASF71
 3779 092d 01       		.byte	0x1
 3780 092e 5606     		.2byte	0x656
 3781 0930 01       		.byte	0x1
 3782 0931 C5000000 		.4byte	0xc5
 3783 0935 00000000 		.4byte	.LFB34
 3784 0939 18000000 		.4byte	.LFE34
 3785 093d 6B070000 		.4byte	.LLST57
 3786 0941 01       		.byte	0x1
 3787 0942 9D090000 		.4byte	0x99d
 3788 0946 19       		.uleb128 0x19
 3789 0947 DC010000 		.4byte	.LASF66
 3790 094b 01       		.byte	0x1
 3791 094c 5606     		.2byte	0x656
 3792 094e 6F000000 		.4byte	0x6f
 3793 0952 8B070000 		.4byte	.LLST58
 3794 0956 1D       		.uleb128 0x1d
 3795 0957 CB030000 		.4byte	.LASF67
 3796 095b 01       		.byte	0x1
 3797 095c 5606     		.2byte	0x656
ARM GAS  C:\Users\Steve\AppData\Local\Temp\ccc4U1xk.s 			page 108


 3798 095e C5000000 		.4byte	0xc5
 3799 0962 01       		.byte	0x1
 3800 0963 51       		.byte	0x51
 3801 0964 23       		.uleb128 0x23
 3802 0965 58000000 		.4byte	.LASF68
 3803 0969 01       		.byte	0x1
 3804 096a 5806     		.2byte	0x658
 3805 096c C5000000 		.4byte	0xc5
 3806 0970 01       		.byte	0x1
 3807 0971 50       		.byte	0x50
 3808 0972 24       		.uleb128 0x24
 3809 0973 88050000 		.4byte	.LASF69
 3810 0977 01       		.byte	0x1
 3811 0978 5906     		.2byte	0x659
 3812 097a C7080000 		.4byte	0x8c7
 3813 097e 00000020 		.4byte	0x20000000
 3814 0982 18       		.uleb128 0x18
 3815 0983 EA000000 		.4byte	0xea
 3816 0987 06000000 		.4byte	.LBB140
 3817 098b 08000000 		.4byte	.LBE140
 3818 098f 01       		.byte	0x1
 3819 0990 5B06     		.2byte	0x65b
 3820 0992 17       		.uleb128 0x17
 3821 0993 F9000000 		.4byte	0xf9
 3822 0997 AC070000 		.4byte	.LLST59
 3823 099b 00       		.byte	0
 3824 099c 00       		.byte	0
 3825 099d 1C       		.uleb128 0x1c
 3826 099e 01       		.byte	0x1
 3827 099f 5F040000 		.4byte	.LASF72
 3828 09a3 01       		.byte	0x1
 3829 09a4 7506     		.2byte	0x675
 3830 09a6 01       		.byte	0x1
 3831 09a7 C5000000 		.4byte	0xc5
 3832 09ab 00000000 		.4byte	.LFB35
 3833 09af 18000000 		.4byte	.LFE35
 3834 09b3 C0070000 		.4byte	.LLST60
 3835 09b7 01       		.byte	0x1
 3836 09b8 F7090000 		.4byte	0x9f7
 3837 09bc 19       		.uleb128 0x19
 3838 09bd DC010000 		.4byte	.LASF66
 3839 09c1 01       		.byte	0x1
 3840 09c2 7506     		.2byte	0x675
 3841 09c4 6F000000 		.4byte	0x6f
 3842 09c8 E0070000 		.4byte	.LLST61
 3843 09cc 24       		.uleb128 0x24
 3844 09cd 88050000 		.4byte	.LASF69
 3845 09d1 01       		.byte	0x1
 3846 09d2 7706     		.2byte	0x677
 3847 09d4 C7080000 		.4byte	0x8c7
 3848 09d8 00000020 		.4byte	0x20000000
 3849 09dc 18       		.uleb128 0x18
 3850 09dd EA000000 		.4byte	0xea
 3851 09e1 06000000 		.4byte	.LBB142
 3852 09e5 08000000 		.4byte	.LBE142
 3853 09e9 01       		.byte	0x1
 3854 09ea 7906     		.2byte	0x679
ARM GAS  C:\Users\Steve\AppData\Local\Temp\ccc4U1xk.s 			page 109


 3855 09ec 17       		.uleb128 0x17
 3856 09ed F9000000 		.4byte	0xf9
 3857 09f1 01080000 		.4byte	.LLST62
 3858 09f5 00       		.byte	0
 3859 09f6 00       		.byte	0
 3860 09f7 12       		.uleb128 0x12
 3861 09f8 01       		.byte	0x1
 3862 09f9 16040000 		.4byte	.LASF73
 3863 09fd 01       		.byte	0x1
 3864 09fe 8D06     		.2byte	0x68d
 3865 0a00 01       		.byte	0x1
 3866 0a01 00000000 		.4byte	.LFB36
 3867 0a05 40000000 		.4byte	.LFE36
 3868 0a09 15080000 		.4byte	.LLST63
 3869 0a0d 01       		.byte	0x1
 3870 0a0e B10A0000 		.4byte	0xab1
 3871 0a12 19       		.uleb128 0x19
 3872 0a13 DC010000 		.4byte	.LASF66
 3873 0a17 01       		.byte	0x1
 3874 0a18 8D06     		.2byte	0x68d
 3875 0a1a 6F000000 		.4byte	0x6f
 3876 0a1e 35080000 		.4byte	.LLST64
 3877 0a22 19       		.uleb128 0x19
 3878 0a23 9C050000 		.4byte	.LASF74
 3879 0a27 01       		.byte	0x1
 3880 0a28 8D06     		.2byte	0x68d
 3881 0a2a 6F000000 		.4byte	0x6f
 3882 0a2e 56080000 		.4byte	.LLST65
 3883 0a32 13       		.uleb128 0x13
 3884 0a33 7B020000 		.4byte	.LASF30
 3885 0a37 01       		.byte	0x1
 3886 0a38 8F06     		.2byte	0x68f
 3887 0a3a 6F000000 		.4byte	0x6f
 3888 0a3e 77080000 		.4byte	.LLST66
 3889 0a42 13       		.uleb128 0x13
 3890 0a43 9D010000 		.4byte	.LASF75
 3891 0a47 01       		.byte	0x1
 3892 0a48 9006     		.2byte	0x690
 3893 0a4a 85000000 		.4byte	0x85
 3894 0a4e 8A080000 		.4byte	.LLST67
 3895 0a52 13       		.uleb128 0x13
 3896 0a53 2A000000 		.4byte	.LASF76
 3897 0a57 01       		.byte	0x1
 3898 0a58 9106     		.2byte	0x691
 3899 0a5a 85000000 		.4byte	0x85
 3900 0a5e BE080000 		.4byte	.LLST68
 3901 0a62 1A       		.uleb128 0x1a
 3902 0a63 EA000000 		.4byte	0xea
 3903 0a67 0A000000 		.4byte	.LBB144
 3904 0a6b 0C000000 		.4byte	.LBE144
 3905 0a6f 01       		.byte	0x1
 3906 0a70 9306     		.2byte	0x693
 3907 0a72 800A0000 		.4byte	0xa80
 3908 0a76 17       		.uleb128 0x17
 3909 0a77 F9000000 		.4byte	0xf9
 3910 0a7b DC080000 		.4byte	.LLST69
 3911 0a7f 00       		.byte	0
ARM GAS  C:\Users\Steve\AppData\Local\Temp\ccc4U1xk.s 			page 110


 3912 0a80 1A       		.uleb128 0x1a
 3913 0a81 EA000000 		.4byte	0xea
 3914 0a85 10000000 		.4byte	.LBB146
 3915 0a89 12000000 		.4byte	.LBE146
 3916 0a8d 01       		.byte	0x1
 3917 0a8e 9406     		.2byte	0x694
 3918 0a90 9E0A0000 		.4byte	0xa9e
 3919 0a94 17       		.uleb128 0x17
 3920 0a95 F9000000 		.4byte	0xf9
 3921 0a99 F0080000 		.4byte	.LLST70
 3922 0a9d 00       		.byte	0
 3923 0a9e 15       		.uleb128 0x15
 3924 0a9f 16000000 		.4byte	.LVL107
 3925 0aa3 D00E0000 		.4byte	0xed0
 3926 0aa7 15       		.uleb128 0x15
 3927 0aa8 38000000 		.4byte	.LVL112
 3928 0aac DE0E0000 		.4byte	0xede
 3929 0ab0 00       		.byte	0
 3930 0ab1 1C       		.uleb128 0x1c
 3931 0ab2 01       		.byte	0x1
 3932 0ab3 00020000 		.4byte	.LASF77
 3933 0ab7 01       		.byte	0x1
 3934 0ab8 B106     		.2byte	0x6b1
 3935 0aba 01       		.byte	0x1
 3936 0abb 6F000000 		.4byte	0x6f
 3937 0abf 00000000 		.4byte	.LFB37
 3938 0ac3 28000000 		.4byte	.LFE37
 3939 0ac7 04090000 		.4byte	.LLST71
 3940 0acb 01       		.byte	0x1
 3941 0acc 070B0000 		.4byte	0xb07
 3942 0ad0 19       		.uleb128 0x19
 3943 0ad1 DC010000 		.4byte	.LASF66
 3944 0ad5 01       		.byte	0x1
 3945 0ad6 B106     		.2byte	0x6b1
 3946 0ad8 6F000000 		.4byte	0x6f
 3947 0adc 24090000 		.4byte	.LLST72
 3948 0ae0 25       		.uleb128 0x25
 3949 0ae1 9C050000 		.4byte	.LASF74
 3950 0ae5 01       		.byte	0x1
 3951 0ae6 B306     		.2byte	0x6b3
 3952 0ae8 6F000000 		.4byte	0x6f
 3953 0aec 18       		.uleb128 0x18
 3954 0aed EA000000 		.4byte	0xea
 3955 0af1 06000000 		.4byte	.LBB148
 3956 0af5 08000000 		.4byte	.LBE148
 3957 0af9 01       		.byte	0x1
 3958 0afa B506     		.2byte	0x6b5
 3959 0afc 17       		.uleb128 0x17
 3960 0afd F9000000 		.4byte	0xf9
 3961 0b01 45090000 		.4byte	.LLST73
 3962 0b05 00       		.byte	0
 3963 0b06 00       		.byte	0
 3964 0b07 21       		.uleb128 0x21
 3965 0b08 01       		.byte	0x1
 3966 0b09 2C050000 		.4byte	.LASF78
 3967 0b0d 01       		.byte	0x1
 3968 0b0e CB06     		.2byte	0x6cb
ARM GAS  C:\Users\Steve\AppData\Local\Temp\ccc4U1xk.s 			page 111


 3969 0b10 01       		.byte	0x1
 3970 0b11 00000000 		.4byte	.LFB38
 3971 0b15 14000000 		.4byte	.LFE38
 3972 0b19 02       		.byte	0x2
 3973 0b1a 7D       		.byte	0x7d
 3974 0b1b 00       		.sleb128 0
 3975 0b1c 01       		.byte	0x1
 3976 0b1d 320B0000 		.4byte	0xb32
 3977 0b21 19       		.uleb128 0x19
 3978 0b22 DC010000 		.4byte	.LASF66
 3979 0b26 01       		.byte	0x1
 3980 0b27 CB06     		.2byte	0x6cb
 3981 0b29 6F000000 		.4byte	0x6f
 3982 0b2d 59090000 		.4byte	.LLST74
 3983 0b31 00       		.byte	0
 3984 0b32 1B       		.uleb128 0x1b
 3985 0b33 01       		.byte	0x1
 3986 0b34 B9000000 		.4byte	.LASF79
 3987 0b38 01       		.byte	0x1
 3988 0b39 DF06     		.2byte	0x6df
 3989 0b3b 01       		.byte	0x1
 3990 0b3c 6F000000 		.4byte	0x6f
 3991 0b40 00000000 		.4byte	.LFB39
 3992 0b44 18000000 		.4byte	.LFE39
 3993 0b48 02       		.byte	0x2
 3994 0b49 7D       		.byte	0x7d
 3995 0b4a 00       		.sleb128 0
 3996 0b4b 01       		.byte	0x1
 3997 0b4c 610B0000 		.4byte	0xb61
 3998 0b50 19       		.uleb128 0x19
 3999 0b51 DC010000 		.4byte	.LASF66
 4000 0b55 01       		.byte	0x1
 4001 0b56 DF06     		.2byte	0x6df
 4002 0b58 6F000000 		.4byte	0x6f
 4003 0b5c 7A090000 		.4byte	.LLST75
 4004 0b60 00       		.byte	0
 4005 0b61 21       		.uleb128 0x21
 4006 0b62 01       		.byte	0x1
 4007 0b63 48010000 		.4byte	.LASF80
 4008 0b67 01       		.byte	0x1
 4009 0b68 F406     		.2byte	0x6f4
 4010 0b6a 01       		.byte	0x1
 4011 0b6b 00000000 		.4byte	.LFB40
 4012 0b6f 14000000 		.4byte	.LFE40
 4013 0b73 02       		.byte	0x2
 4014 0b74 7D       		.byte	0x7d
 4015 0b75 00       		.sleb128 0
 4016 0b76 01       		.byte	0x1
 4017 0b77 8C0B0000 		.4byte	0xb8c
 4018 0b7b 19       		.uleb128 0x19
 4019 0b7c DC010000 		.4byte	.LASF66
 4020 0b80 01       		.byte	0x1
 4021 0b81 F406     		.2byte	0x6f4
 4022 0b83 6F000000 		.4byte	0x6f
 4023 0b87 9B090000 		.4byte	.LLST76
 4024 0b8b 00       		.byte	0
 4025 0b8c 21       		.uleb128 0x21
ARM GAS  C:\Users\Steve\AppData\Local\Temp\ccc4U1xk.s 			page 112


 4026 0b8d 01       		.byte	0x1
 4027 0b8e B1020000 		.4byte	.LASF81
 4028 0b92 01       		.byte	0x1
 4029 0b93 0707     		.2byte	0x707
 4030 0b95 01       		.byte	0x1
 4031 0b96 00000000 		.4byte	.LFB41
 4032 0b9a 14000000 		.4byte	.LFE41
 4033 0b9e 02       		.byte	0x2
 4034 0b9f 7D       		.byte	0x7d
 4035 0ba0 00       		.sleb128 0
 4036 0ba1 01       		.byte	0x1
 4037 0ba2 B70B0000 		.4byte	0xbb7
 4038 0ba6 19       		.uleb128 0x19
 4039 0ba7 DC010000 		.4byte	.LASF66
 4040 0bab 01       		.byte	0x1
 4041 0bac 0707     		.2byte	0x707
 4042 0bae 6F000000 		.4byte	0x6f
 4043 0bb2 BC090000 		.4byte	.LLST77
 4044 0bb6 00       		.byte	0
 4045 0bb7 21       		.uleb128 0x21
 4046 0bb8 01       		.byte	0x1
 4047 0bb9 B9030000 		.4byte	.LASF82
 4048 0bbd 01       		.byte	0x1
 4049 0bbe 1B07     		.2byte	0x71b
 4050 0bc0 01       		.byte	0x1
 4051 0bc1 00000000 		.4byte	.LFB42
 4052 0bc5 14000000 		.4byte	.LFE42
 4053 0bc9 02       		.byte	0x2
 4054 0bca 7D       		.byte	0x7d
 4055 0bcb 00       		.sleb128 0
 4056 0bcc 01       		.byte	0x1
 4057 0bcd E20B0000 		.4byte	0xbe2
 4058 0bd1 19       		.uleb128 0x19
 4059 0bd2 DC010000 		.4byte	.LASF66
 4060 0bd6 01       		.byte	0x1
 4061 0bd7 1B07     		.2byte	0x71b
 4062 0bd9 6F000000 		.4byte	0x6f
 4063 0bdd DD090000 		.4byte	.LLST78
 4064 0be1 00       		.byte	0
 4065 0be2 26       		.uleb128 0x26
 4066 0be3 EA000000 		.4byte	0xea
 4067 0be7 00000000 		.4byte	.LFB43
 4068 0beb 04000000 		.4byte	.LFE43
 4069 0bef 02       		.byte	0x2
 4070 0bf0 7D       		.byte	0x7d
 4071 0bf1 00       		.sleb128 0
 4072 0bf2 01       		.byte	0x1
 4073 0bf3 FF0B0000 		.4byte	0xbff
 4074 0bf7 27       		.uleb128 0x27
 4075 0bf8 F9000000 		.4byte	0xf9
 4076 0bfc 01       		.byte	0x1
 4077 0bfd 50       		.byte	0x50
 4078 0bfe 00       		.byte	0
 4079 0bff 22       		.uleb128 0x22
 4080 0c00 01       		.byte	0x1
 4081 0c01 A9000000 		.4byte	.LASF83
 4082 0c05 01       		.byte	0x1
ARM GAS  C:\Users\Steve\AppData\Local\Temp\ccc4U1xk.s 			page 113


 4083 0c06 4E07     		.2byte	0x74e
 4084 0c08 01       		.byte	0x1
 4085 0c09 00000000 		.4byte	.LFB44
 4086 0c0d 18000000 		.4byte	.LFE44
 4087 0c11 02       		.byte	0x2
 4088 0c12 7D       		.byte	0x7d
 4089 0c13 00       		.sleb128 0
 4090 0c14 01       		.byte	0x1
 4091 0c15 12       		.uleb128 0x12
 4092 0c16 01       		.byte	0x1
 4093 0c17 DA050000 		.4byte	.LASF84
 4094 0c1b 01       		.byte	0x1
 4095 0c1c 6707     		.2byte	0x767
 4096 0c1e 01       		.byte	0x1
 4097 0c1f 00000000 		.4byte	.LFB45
 4098 0c23 80000000 		.4byte	.LFE45
 4099 0c27 FE090000 		.4byte	.LLST79
 4100 0c2b 01       		.byte	0x1
 4101 0c2c 6E0C0000 		.4byte	0xc6e
 4102 0c30 19       		.uleb128 0x19
 4103 0c31 6E040000 		.4byte	.LASF85
 4104 0c35 01       		.byte	0x1
 4105 0c36 6707     		.2byte	0x767
 4106 0c38 85000000 		.4byte	0x85
 4107 0c3c 2A0A0000 		.4byte	.LLST80
 4108 0c40 15       		.uleb128 0x15
 4109 0c41 26000000 		.4byte	.LVL130
 4110 0c45 F20E0000 		.4byte	0xef2
 4111 0c49 15       		.uleb128 0x15
 4112 0c4a 36000000 		.4byte	.LVL131
 4113 0c4e F20E0000 		.4byte	0xef2
 4114 0c52 15       		.uleb128 0x15
 4115 0c53 44000000 		.4byte	.LVL133
 4116 0c57 F20E0000 		.4byte	0xef2
 4117 0c5b 15       		.uleb128 0x15
 4118 0c5c 4A000000 		.4byte	.LVL134
 4119 0c60 F20E0000 		.4byte	0xef2
 4120 0c64 15       		.uleb128 0x15
 4121 0c65 68000000 		.4byte	.LVL135
 4122 0c69 F20E0000 		.4byte	0xef2
 4123 0c6d 00       		.byte	0
 4124 0c6e 12       		.uleb128 0x12
 4125 0c6f 01       		.byte	0x1
 4126 0c70 1D010000 		.4byte	.LASF86
 4127 0c74 01       		.byte	0x1
 4128 0c75 8307     		.2byte	0x783
 4129 0c77 01       		.byte	0x1
 4130 0c78 00000000 		.4byte	.LFB46
 4131 0c7c 14000000 		.4byte	.LFE46
 4132 0c80 480A0000 		.4byte	.LLST81
 4133 0c84 01       		.byte	0x1
 4134 0c85 A30C0000 		.4byte	0xca3
 4135 0c89 19       		.uleb128 0x19
 4136 0c8a 5C060000 		.4byte	.LASF87
 4137 0c8e 01       		.byte	0x1
 4138 0c8f 8307     		.2byte	0x783
 4139 0c91 7A000000 		.4byte	0x7a
ARM GAS  C:\Users\Steve\AppData\Local\Temp\ccc4U1xk.s 			page 114


 4140 0c95 680A0000 		.4byte	.LLST82
 4141 0c99 15       		.uleb128 0x15
 4142 0c9a 0C000000 		.4byte	.LVL138
 4143 0c9e F20E0000 		.4byte	0xef2
 4144 0ca2 00       		.byte	0
 4145 0ca3 12       		.uleb128 0x12
 4146 0ca4 01       		.byte	0x1
 4147 0ca5 27010000 		.4byte	.LASF88
 4148 0ca9 01       		.byte	0x1
 4149 0caa FD02     		.2byte	0x2fd
 4150 0cac 01       		.byte	0x1
 4151 0cad 00000000 		.4byte	.LFB18
 4152 0cb1 48000000 		.4byte	.LFE18
 4153 0cb5 890A0000 		.4byte	.LLST83
 4154 0cb9 01       		.byte	0x1
 4155 0cba 2D0D0000 		.4byte	0xd2d
 4156 0cbe 19       		.uleb128 0x19
 4157 0cbf 5F000000 		.4byte	.LASF20
 4158 0cc3 01       		.byte	0x1
 4159 0cc4 FD02     		.2byte	0x2fd
 4160 0cc6 85000000 		.4byte	0x85
 4161 0cca A90A0000 		.4byte	.LLST84
 4162 0cce 19       		.uleb128 0x19
 4163 0ccf DB030000 		.4byte	.LASF89
 4164 0cd3 01       		.byte	0x1
 4165 0cd4 FD02     		.2byte	0x2fd
 4166 0cd6 85000000 		.4byte	0x85
 4167 0cda D50A0000 		.4byte	.LLST85
 4168 0cde 13       		.uleb128 0x13
 4169 0cdf E8010000 		.4byte	.LASF50
 4170 0ce3 01       		.byte	0x1
 4171 0ce4 FF02     		.2byte	0x2ff
 4172 0ce6 85000000 		.4byte	0x85
 4173 0cea 010B0000 		.4byte	.LLST86
 4174 0cee 1A       		.uleb128 0x1a
 4175 0cef EA000000 		.4byte	0xea
 4176 0cf3 0A000000 		.4byte	.LBB150
 4177 0cf7 0C000000 		.4byte	.LBE150
 4178 0cfb 01       		.byte	0x1
 4179 0cfc 0103     		.2byte	0x301
 4180 0cfe 0C0D0000 		.4byte	0xd0c
 4181 0d02 17       		.uleb128 0x17
 4182 0d03 F9000000 		.4byte	0xf9
 4183 0d07 340B0000 		.4byte	.LLST87
 4184 0d0b 00       		.byte	0
 4185 0d0c 14       		.uleb128 0x14
 4186 0d0d E0000000 		.4byte	0xe0
 4187 0d11 14000000 		.4byte	.LBB152
 4188 0d15 1E000000 		.4byte	.LBE152
 4189 0d19 01       		.byte	0x1
 4190 0d1a 0903     		.2byte	0x309
 4191 0d1c 28       		.uleb128 0x28
 4192 0d1d 24000000 		.4byte	.LVL144
 4193 0d21 6E0C0000 		.4byte	0xc6e
 4194 0d25 29       		.uleb128 0x29
 4195 0d26 01       		.byte	0x1
 4196 0d27 50       		.byte	0x50
ARM GAS  C:\Users\Steve\AppData\Local\Temp\ccc4U1xk.s 			page 115


 4197 0d28 02       		.byte	0x2
 4198 0d29 08       		.byte	0x8
 4199 0d2a 82       		.byte	0x82
 4200 0d2b 00       		.byte	0
 4201 0d2c 00       		.byte	0
 4202 0d2d 11       		.uleb128 0x11
 4203 0d2e 01       		.byte	0x1
 4204 0d2f 50030000 		.4byte	.LASF90
 4205 0d33 01       		.byte	0x1
 4206 0d34 D8       		.byte	0xd8
 4207 0d35 01       		.byte	0x1
 4208 0d36 00000000 		.4byte	.LFB6
 4209 0d3a 64010000 		.4byte	.LFE6
 4210 0d3e 480B0000 		.4byte	.LLST88
 4211 0d42 01       		.byte	0x1
 4212 0d43 470E0000 		.4byte	0xe47
 4213 0d47 10       		.uleb128 0x10
 4214 0d48 5A040000 		.4byte	.LASF91
 4215 0d4c 01       		.byte	0x1
 4216 0d4d D8       		.byte	0xd8
 4217 0d4e 85000000 		.4byte	0x85
 4218 0d52 740B0000 		.4byte	.LLST89
 4219 0d56 2A       		.uleb128 0x2a
 4220 0d57 12000000 		.4byte	.LASF92
 4221 0d5b 01       		.byte	0x1
 4222 0d5c DA       		.byte	0xda
 4223 0d5d 6F000000 		.4byte	0x6f
 4224 0d61 FE0B0000 		.4byte	.LLST90
 4225 0d65 2A       		.uleb128 0x2a
 4226 0d66 D3030000 		.4byte	.LASF93
 4227 0d6a 01       		.byte	0x1
 4228 0d6b DB       		.byte	0xdb
 4229 0d6c 6F000000 		.4byte	0x6f
 4230 0d70 530C0000 		.4byte	.LLST91
 4231 0d74 2A       		.uleb128 0x2a
 4232 0d75 B7050000 		.4byte	.LASF94
 4233 0d79 01       		.byte	0x1
 4234 0d7a DC       		.byte	0xdc
 4235 0d7b 85000000 		.4byte	0x85
 4236 0d7f 920C0000 		.4byte	.LLST92
 4237 0d83 2A       		.uleb128 0x2a
 4238 0d84 7B020000 		.4byte	.LASF30
 4239 0d88 01       		.byte	0x1
 4240 0d89 DD       		.byte	0xdd
 4241 0d8a 6F000000 		.4byte	0x6f
 4242 0d8e F90C0000 		.4byte	.LLST93
 4243 0d92 2B       		.uleb128 0x2b
 4244 0d93 6900     		.ascii	"i\000"
 4245 0d95 01       		.byte	0x1
 4246 0d96 DE       		.byte	0xde
 4247 0d97 85000000 		.4byte	0x85
 4248 0d9b 170D0000 		.4byte	.LLST94
 4249 0d9f 2C       		.uleb128 0x2c
 4250 0da0 E1030000 		.4byte	.LASF95
 4251 0da4 01       		.byte	0x1
 4252 0da5 E1       		.byte	0xe1
 4253 0da6 570E0000 		.4byte	0xe57
ARM GAS  C:\Users\Steve\AppData\Local\Temp\ccc4U1xk.s 			page 116


 4254 0daa 05       		.byte	0x5
 4255 0dab 03       		.byte	0x3
 4256 0dac 00000000 		.4byte	cyImoFreqMhz2Reg.4608
 4257 0db0 1A       		.uleb128 0x1a
 4258 0db1 EA000000 		.4byte	0xea
 4259 0db5 10000000 		.4byte	.LBB154
 4260 0db9 12000000 		.4byte	.LBE154
 4261 0dbd 01       		.byte	0x1
 4262 0dbe 4C01     		.2byte	0x14c
 4263 0dc0 CE0D0000 		.4byte	0xdce
 4264 0dc4 17       		.uleb128 0x17
 4265 0dc5 F9000000 		.4byte	0xf9
 4266 0dc9 410D0000 		.4byte	.LLST95
 4267 0dcd 00       		.byte	0
 4268 0dce 15       		.uleb128 0x15
 4269 0dcf 1E000000 		.4byte	.LVL153
 4270 0dd3 D00E0000 		.4byte	0xed0
 4271 0dd7 2D       		.uleb128 0x2d
 4272 0dd8 6E000000 		.4byte	.LVL161
 4273 0ddc F20E0000 		.4byte	0xef2
 4274 0de0 EA0D0000 		.4byte	0xdea
 4275 0de4 29       		.uleb128 0x29
 4276 0de5 01       		.byte	0x1
 4277 0de6 50       		.byte	0x50
 4278 0de7 01       		.byte	0x1
 4279 0de8 35       		.byte	0x35
 4280 0de9 00       		.byte	0
 4281 0dea 2D       		.uleb128 0x2d
 4282 0deb 88000000 		.4byte	.LVL163
 4283 0def 6E0C0000 		.4byte	0xc6e
 4284 0df3 FD0D0000 		.4byte	0xdfd
 4285 0df7 29       		.uleb128 0x29
 4286 0df8 01       		.byte	0x1
 4287 0df9 50       		.byte	0x50
 4288 0dfa 01       		.byte	0x1
 4289 0dfb 35       		.byte	0x35
 4290 0dfc 00       		.byte	0
 4291 0dfd 2D       		.uleb128 0x2d
 4292 0dfe 8E000000 		.4byte	.LVL164
 4293 0e02 DE0E0000 		.4byte	0xede
 4294 0e06 110E0000 		.4byte	0xe11
 4295 0e0a 29       		.uleb128 0x29
 4296 0e0b 01       		.byte	0x1
 4297 0e0c 50       		.byte	0x50
 4298 0e0d 02       		.byte	0x2
 4299 0e0e 78       		.byte	0x78
 4300 0e0f 00       		.sleb128 0
 4301 0e10 00       		.byte	0
 4302 0e11 2D       		.uleb128 0x2d
 4303 0e12 C2000000 		.4byte	.LVL171
 4304 0e16 6E0C0000 		.4byte	0xc6e
 4305 0e1a 240E0000 		.4byte	0xe24
 4306 0e1e 29       		.uleb128 0x29
 4307 0e1f 01       		.byte	0x1
 4308 0e20 50       		.byte	0x50
 4309 0e21 01       		.byte	0x1
 4310 0e22 35       		.byte	0x35
ARM GAS  C:\Users\Steve\AppData\Local\Temp\ccc4U1xk.s 			page 117


 4311 0e23 00       		.byte	0
 4312 0e24 2D       		.uleb128 0x2d
 4313 0e25 CE000000 		.4byte	.LVL173
 4314 0e29 F20E0000 		.4byte	0xef2
 4315 0e2d 370E0000 		.4byte	0xe37
 4316 0e31 29       		.uleb128 0x29
 4317 0e32 01       		.byte	0x1
 4318 0e33 50       		.byte	0x50
 4319 0e34 01       		.byte	0x1
 4320 0e35 35       		.byte	0x35
 4321 0e36 00       		.byte	0
 4322 0e37 28       		.uleb128 0x28
 4323 0e38 08010000 		.4byte	.LVL182
 4324 0e3c F20E0000 		.4byte	0xef2
 4325 0e40 29       		.uleb128 0x29
 4326 0e41 01       		.byte	0x1
 4327 0e42 50       		.byte	0x50
 4328 0e43 01       		.byte	0x1
 4329 0e44 35       		.byte	0x35
 4330 0e45 00       		.byte	0
 4331 0e46 00       		.byte	0
 4332 0e47 2E       		.uleb128 0x2e
 4333 0e48 6F000000 		.4byte	0x6f
 4334 0e4c 570E0000 		.4byte	0xe57
 4335 0e50 2F       		.uleb128 0x2f
 4336 0e51 D9000000 		.4byte	0xd9
 4337 0e55 2D       		.byte	0x2d
 4338 0e56 00       		.byte	0
 4339 0e57 30       		.uleb128 0x30
 4340 0e58 470E0000 		.4byte	0xe47
 4341 0e5c 31       		.uleb128 0x31
 4342 0e5d 01       		.byte	0x1
 4343 0e5e 04010000 		.4byte	.LASF96
 4344 0e62 01       		.byte	0x1
 4345 0e63 9607     		.2byte	0x796
 4346 0e65 01       		.byte	0x1
 4347 0e66 00000000 		.4byte	.LFB47
 4348 0e6a 54000000 		.4byte	.LFE47
 4349 0e6e 550D0000 		.4byte	.LLST96
 4350 0e72 01       		.byte	0x1
 4351 0e73 880E0000 		.4byte	0xe88
 4352 0e77 19       		.uleb128 0x19
 4353 0e78 5A040000 		.4byte	.LASF91
 4354 0e7c 01       		.byte	0x1
 4355 0e7d 9607     		.2byte	0x796
 4356 0e7f 85000000 		.4byte	0x85
 4357 0e83 750D0000 		.4byte	.LLST97
 4358 0e87 00       		.byte	0
 4359 0e88 32       		.uleb128 0x32
 4360 0e89 F2030000 		.4byte	.LASF97
 4361 0e8d 01       		.byte	0x1
 4362 0e8e 17       		.byte	0x17
 4363 0e8f 85000000 		.4byte	0x85
 4364 0e93 01       		.byte	0x1
 4365 0e94 05       		.byte	0x5
 4366 0e95 03       		.byte	0x3
 4367 0e96 00000000 		.4byte	cydelayFreqHz
ARM GAS  C:\Users\Steve\AppData\Local\Temp\ccc4U1xk.s 			page 118


 4368 0e9a 32       		.uleb128 0x32
 4369 0e9b 5B010000 		.4byte	.LASF98
 4370 0e9f 01       		.byte	0x1
 4371 0ea0 18       		.byte	0x18
 4372 0ea1 85000000 		.4byte	0x85
 4373 0ea5 01       		.byte	0x1
 4374 0ea6 05       		.byte	0x5
 4375 0ea7 03       		.byte	0x3
 4376 0ea8 00000000 		.4byte	cydelayFreqKhz
 4377 0eac 32       		.uleb128 0x32
 4378 0ead 01060000 		.4byte	.LASF99
 4379 0eb1 01       		.byte	0x1
 4380 0eb2 19       		.byte	0x19
 4381 0eb3 6F000000 		.4byte	0x6f
 4382 0eb7 01       		.byte	0x1
 4383 0eb8 05       		.byte	0x5
 4384 0eb9 03       		.byte	0x3
 4385 0eba 00000000 		.4byte	cydelayFreqMhz
 4386 0ebe 32       		.uleb128 0x32
 4387 0ebf 78000000 		.4byte	.LASF100
 4388 0ec3 01       		.byte	0x1
 4389 0ec4 1A       		.byte	0x1a
 4390 0ec5 85000000 		.4byte	0x85
 4391 0ec9 01       		.byte	0x1
 4392 0eca 05       		.byte	0x5
 4393 0ecb 03       		.byte	0x3
 4394 0ecc 00000000 		.4byte	cydelay32kMs
 4395 0ed0 33       		.uleb128 0x33
 4396 0ed1 01       		.byte	0x1
 4397 0ed2 9A020000 		.4byte	.LASF108
 4398 0ed6 03       		.byte	0x3
 4399 0ed7 70       		.byte	0x70
 4400 0ed8 01       		.byte	0x1
 4401 0ed9 6F000000 		.4byte	0x6f
 4402 0edd 01       		.byte	0x1
 4403 0ede 34       		.uleb128 0x34
 4404 0edf 01       		.byte	0x1
 4405 0ee0 44040000 		.4byte	.LASF102
 4406 0ee4 03       		.byte	0x3
 4407 0ee5 71       		.byte	0x71
 4408 0ee6 01       		.byte	0x1
 4409 0ee7 01       		.byte	0x1
 4410 0ee8 F20E0000 		.4byte	0xef2
 4411 0eec 35       		.uleb128 0x35
 4412 0eed 6F000000 		.4byte	0x6f
 4413 0ef1 00       		.byte	0
 4414 0ef2 36       		.uleb128 0x36
 4415 0ef3 01       		.byte	0x1
 4416 0ef4 CE010000 		.4byte	.LASF109
 4417 0ef8 03       		.byte	0x3
 4418 0ef9 6C       		.byte	0x6c
 4419 0efa 01       		.byte	0x1
 4420 0efb 01       		.byte	0x1
 4421 0efc 35       		.uleb128 0x35
 4422 0efd 85000000 		.4byte	0x85
 4423 0f01 00       		.byte	0
 4424 0f02 00       		.byte	0
ARM GAS  C:\Users\Steve\AppData\Local\Temp\ccc4U1xk.s 			page 119


 4425              		.section	.debug_abbrev,"",%progbits
 4426              	.Ldebug_abbrev0:
 4427 0000 01       		.uleb128 0x1
 4428 0001 11       		.uleb128 0x11
 4429 0002 01       		.byte	0x1
 4430 0003 25       		.uleb128 0x25
 4431 0004 0E       		.uleb128 0xe
 4432 0005 13       		.uleb128 0x13
 4433 0006 0B       		.uleb128 0xb
 4434 0007 03       		.uleb128 0x3
 4435 0008 0E       		.uleb128 0xe
 4436 0009 1B       		.uleb128 0x1b
 4437 000a 0E       		.uleb128 0xe
 4438 000b 55       		.uleb128 0x55
 4439 000c 06       		.uleb128 0x6
 4440 000d 11       		.uleb128 0x11
 4441 000e 01       		.uleb128 0x1
 4442 000f 52       		.uleb128 0x52
 4443 0010 01       		.uleb128 0x1
 4444 0011 10       		.uleb128 0x10
 4445 0012 06       		.uleb128 0x6
 4446 0013 00       		.byte	0
 4447 0014 00       		.byte	0
 4448 0015 02       		.uleb128 0x2
 4449 0016 24       		.uleb128 0x24
 4450 0017 00       		.byte	0
 4451 0018 0B       		.uleb128 0xb
 4452 0019 0B       		.uleb128 0xb
 4453 001a 3E       		.uleb128 0x3e
 4454 001b 0B       		.uleb128 0xb
 4455 001c 03       		.uleb128 0x3
 4456 001d 0E       		.uleb128 0xe
 4457 001e 00       		.byte	0
 4458 001f 00       		.byte	0
 4459 0020 03       		.uleb128 0x3
 4460 0021 24       		.uleb128 0x24
 4461 0022 00       		.byte	0
 4462 0023 0B       		.uleb128 0xb
 4463 0024 0B       		.uleb128 0xb
 4464 0025 3E       		.uleb128 0x3e
 4465 0026 0B       		.uleb128 0xb
 4466 0027 03       		.uleb128 0x3
 4467 0028 08       		.uleb128 0x8
 4468 0029 00       		.byte	0
 4469 002a 00       		.byte	0
 4470 002b 04       		.uleb128 0x4
 4471 002c 16       		.uleb128 0x16
 4472 002d 00       		.byte	0
 4473 002e 03       		.uleb128 0x3
 4474 002f 0E       		.uleb128 0xe
 4475 0030 3A       		.uleb128 0x3a
 4476 0031 0B       		.uleb128 0xb
 4477 0032 3B       		.uleb128 0x3b
 4478 0033 0B       		.uleb128 0xb
 4479 0034 49       		.uleb128 0x49
 4480 0035 13       		.uleb128 0x13
 4481 0036 00       		.byte	0
ARM GAS  C:\Users\Steve\AppData\Local\Temp\ccc4U1xk.s 			page 120


 4482 0037 00       		.byte	0
 4483 0038 05       		.uleb128 0x5
 4484 0039 35       		.uleb128 0x35
 4485 003a 00       		.byte	0
 4486 003b 49       		.uleb128 0x49
 4487 003c 13       		.uleb128 0x13
 4488 003d 00       		.byte	0
 4489 003e 00       		.byte	0
 4490 003f 06       		.uleb128 0x6
 4491 0040 16       		.uleb128 0x16
 4492 0041 00       		.byte	0
 4493 0042 03       		.uleb128 0x3
 4494 0043 0E       		.uleb128 0xe
 4495 0044 3A       		.uleb128 0x3a
 4496 0045 0B       		.uleb128 0xb
 4497 0046 3B       		.uleb128 0x3b
 4498 0047 05       		.uleb128 0x5
 4499 0048 49       		.uleb128 0x49
 4500 0049 13       		.uleb128 0x13
 4501 004a 00       		.byte	0
 4502 004b 00       		.byte	0
 4503 004c 07       		.uleb128 0x7
 4504 004d 0F       		.uleb128 0xf
 4505 004e 00       		.byte	0
 4506 004f 0B       		.uleb128 0xb
 4507 0050 0B       		.uleb128 0xb
 4508 0051 49       		.uleb128 0x49
 4509 0052 13       		.uleb128 0x13
 4510 0053 00       		.byte	0
 4511 0054 00       		.byte	0
 4512 0055 08       		.uleb128 0x8
 4513 0056 15       		.uleb128 0x15
 4514 0057 00       		.byte	0
 4515 0058 27       		.uleb128 0x27
 4516 0059 0C       		.uleb128 0xc
 4517 005a 00       		.byte	0
 4518 005b 00       		.byte	0
 4519 005c 09       		.uleb128 0x9
 4520 005d 2E       		.uleb128 0x2e
 4521 005e 00       		.byte	0
 4522 005f 3F       		.uleb128 0x3f
 4523 0060 0C       		.uleb128 0xc
 4524 0061 03       		.uleb128 0x3
 4525 0062 0E       		.uleb128 0xe
 4526 0063 3A       		.uleb128 0x3a
 4527 0064 0B       		.uleb128 0xb
 4528 0065 3B       		.uleb128 0x3b
 4529 0066 0B       		.uleb128 0xb
 4530 0067 27       		.uleb128 0x27
 4531 0068 0C       		.uleb128 0xc
 4532 0069 20       		.uleb128 0x20
 4533 006a 0B       		.uleb128 0xb
 4534 006b 00       		.byte	0
 4535 006c 00       		.byte	0
 4536 006d 0A       		.uleb128 0xa
 4537 006e 2E       		.uleb128 0x2e
 4538 006f 01       		.byte	0x1
ARM GAS  C:\Users\Steve\AppData\Local\Temp\ccc4U1xk.s 			page 121


 4539 0070 3F       		.uleb128 0x3f
 4540 0071 0C       		.uleb128 0xc
 4541 0072 03       		.uleb128 0x3
 4542 0073 0E       		.uleb128 0xe
 4543 0074 3A       		.uleb128 0x3a
 4544 0075 0B       		.uleb128 0xb
 4545 0076 3B       		.uleb128 0x3b
 4546 0077 05       		.uleb128 0x5
 4547 0078 27       		.uleb128 0x27
 4548 0079 0C       		.uleb128 0xc
 4549 007a 20       		.uleb128 0x20
 4550 007b 0B       		.uleb128 0xb
 4551 007c 01       		.uleb128 0x1
 4552 007d 13       		.uleb128 0x13
 4553 007e 00       		.byte	0
 4554 007f 00       		.byte	0
 4555 0080 0B       		.uleb128 0xb
 4556 0081 05       		.uleb128 0x5
 4557 0082 00       		.byte	0
 4558 0083 03       		.uleb128 0x3
 4559 0084 0E       		.uleb128 0xe
 4560 0085 3A       		.uleb128 0x3a
 4561 0086 0B       		.uleb128 0xb
 4562 0087 3B       		.uleb128 0x3b
 4563 0088 05       		.uleb128 0x5
 4564 0089 49       		.uleb128 0x49
 4565 008a 13       		.uleb128 0x13
 4566 008b 00       		.byte	0
 4567 008c 00       		.byte	0
 4568 008d 0C       		.uleb128 0xc
 4569 008e 2E       		.uleb128 0x2e
 4570 008f 01       		.byte	0x1
 4571 0090 3F       		.uleb128 0x3f
 4572 0091 0C       		.uleb128 0xc
 4573 0092 03       		.uleb128 0x3
 4574 0093 0E       		.uleb128 0xe
 4575 0094 3A       		.uleb128 0x3a
 4576 0095 0B       		.uleb128 0xb
 4577 0096 3B       		.uleb128 0x3b
 4578 0097 05       		.uleb128 0x5
 4579 0098 27       		.uleb128 0x27
 4580 0099 0C       		.uleb128 0xc
 4581 009a 49       		.uleb128 0x49
 4582 009b 13       		.uleb128 0x13
 4583 009c 20       		.uleb128 0x20
 4584 009d 0B       		.uleb128 0xb
 4585 009e 01       		.uleb128 0x1
 4586 009f 13       		.uleb128 0x13
 4587 00a0 00       		.byte	0
 4588 00a1 00       		.byte	0
 4589 00a2 0D       		.uleb128 0xd
 4590 00a3 2E       		.uleb128 0x2e
 4591 00a4 00       		.byte	0
 4592 00a5 3F       		.uleb128 0x3f
 4593 00a6 0C       		.uleb128 0xc
 4594 00a7 03       		.uleb128 0x3
 4595 00a8 0E       		.uleb128 0xe
ARM GAS  C:\Users\Steve\AppData\Local\Temp\ccc4U1xk.s 			page 122


 4596 00a9 3A       		.uleb128 0x3a
 4597 00aa 0B       		.uleb128 0xb
 4598 00ab 3B       		.uleb128 0x3b
 4599 00ac 0B       		.uleb128 0xb
 4600 00ad 27       		.uleb128 0x27
 4601 00ae 0C       		.uleb128 0xc
 4602 00af 11       		.uleb128 0x11
 4603 00b0 01       		.uleb128 0x1
 4604 00b1 12       		.uleb128 0x12
 4605 00b2 01       		.uleb128 0x1
 4606 00b3 40       		.uleb128 0x40
 4607 00b4 0A       		.uleb128 0xa
 4608 00b5 9742     		.uleb128 0x2117
 4609 00b7 0C       		.uleb128 0xc
 4610 00b8 00       		.byte	0
 4611 00b9 00       		.byte	0
 4612 00ba 0E       		.uleb128 0xe
 4613 00bb 2E       		.uleb128 0x2e
 4614 00bc 00       		.byte	0
 4615 00bd 31       		.uleb128 0x31
 4616 00be 13       		.uleb128 0x13
 4617 00bf 11       		.uleb128 0x11
 4618 00c0 01       		.uleb128 0x1
 4619 00c1 12       		.uleb128 0x12
 4620 00c2 01       		.uleb128 0x1
 4621 00c3 40       		.uleb128 0x40
 4622 00c4 0A       		.uleb128 0xa
 4623 00c5 9742     		.uleb128 0x2117
 4624 00c7 0C       		.uleb128 0xc
 4625 00c8 00       		.byte	0
 4626 00c9 00       		.byte	0
 4627 00ca 0F       		.uleb128 0xf
 4628 00cb 2E       		.uleb128 0x2e
 4629 00cc 01       		.byte	0x1
 4630 00cd 3F       		.uleb128 0x3f
 4631 00ce 0C       		.uleb128 0xc
 4632 00cf 03       		.uleb128 0x3
 4633 00d0 0E       		.uleb128 0xe
 4634 00d1 3A       		.uleb128 0x3a
 4635 00d2 0B       		.uleb128 0xb
 4636 00d3 3B       		.uleb128 0x3b
 4637 00d4 0B       		.uleb128 0xb
 4638 00d5 27       		.uleb128 0x27
 4639 00d6 0C       		.uleb128 0xc
 4640 00d7 11       		.uleb128 0x11
 4641 00d8 01       		.uleb128 0x1
 4642 00d9 12       		.uleb128 0x12
 4643 00da 01       		.uleb128 0x1
 4644 00db 40       		.uleb128 0x40
 4645 00dc 0A       		.uleb128 0xa
 4646 00dd 9742     		.uleb128 0x2117
 4647 00df 0C       		.uleb128 0xc
 4648 00e0 01       		.uleb128 0x1
 4649 00e1 13       		.uleb128 0x13
 4650 00e2 00       		.byte	0
 4651 00e3 00       		.byte	0
 4652 00e4 10       		.uleb128 0x10
ARM GAS  C:\Users\Steve\AppData\Local\Temp\ccc4U1xk.s 			page 123


 4653 00e5 05       		.uleb128 0x5
 4654 00e6 00       		.byte	0
 4655 00e7 03       		.uleb128 0x3
 4656 00e8 0E       		.uleb128 0xe
 4657 00e9 3A       		.uleb128 0x3a
 4658 00ea 0B       		.uleb128 0xb
 4659 00eb 3B       		.uleb128 0x3b
 4660 00ec 0B       		.uleb128 0xb
 4661 00ed 49       		.uleb128 0x49
 4662 00ee 13       		.uleb128 0x13
 4663 00ef 02       		.uleb128 0x2
 4664 00f0 06       		.uleb128 0x6
 4665 00f1 00       		.byte	0
 4666 00f2 00       		.byte	0
 4667 00f3 11       		.uleb128 0x11
 4668 00f4 2E       		.uleb128 0x2e
 4669 00f5 01       		.byte	0x1
 4670 00f6 3F       		.uleb128 0x3f
 4671 00f7 0C       		.uleb128 0xc
 4672 00f8 03       		.uleb128 0x3
 4673 00f9 0E       		.uleb128 0xe
 4674 00fa 3A       		.uleb128 0x3a
 4675 00fb 0B       		.uleb128 0xb
 4676 00fc 3B       		.uleb128 0x3b
 4677 00fd 0B       		.uleb128 0xb
 4678 00fe 27       		.uleb128 0x27
 4679 00ff 0C       		.uleb128 0xc
 4680 0100 11       		.uleb128 0x11
 4681 0101 01       		.uleb128 0x1
 4682 0102 12       		.uleb128 0x12
 4683 0103 01       		.uleb128 0x1
 4684 0104 40       		.uleb128 0x40
 4685 0105 06       		.uleb128 0x6
 4686 0106 9742     		.uleb128 0x2117
 4687 0108 0C       		.uleb128 0xc
 4688 0109 01       		.uleb128 0x1
 4689 010a 13       		.uleb128 0x13
 4690 010b 00       		.byte	0
 4691 010c 00       		.byte	0
 4692 010d 12       		.uleb128 0x12
 4693 010e 2E       		.uleb128 0x2e
 4694 010f 01       		.byte	0x1
 4695 0110 3F       		.uleb128 0x3f
 4696 0111 0C       		.uleb128 0xc
 4697 0112 03       		.uleb128 0x3
 4698 0113 0E       		.uleb128 0xe
 4699 0114 3A       		.uleb128 0x3a
 4700 0115 0B       		.uleb128 0xb
 4701 0116 3B       		.uleb128 0x3b
 4702 0117 05       		.uleb128 0x5
 4703 0118 27       		.uleb128 0x27
 4704 0119 0C       		.uleb128 0xc
 4705 011a 11       		.uleb128 0x11
 4706 011b 01       		.uleb128 0x1
 4707 011c 12       		.uleb128 0x12
 4708 011d 01       		.uleb128 0x1
 4709 011e 40       		.uleb128 0x40
ARM GAS  C:\Users\Steve\AppData\Local\Temp\ccc4U1xk.s 			page 124


 4710 011f 06       		.uleb128 0x6
 4711 0120 9742     		.uleb128 0x2117
 4712 0122 0C       		.uleb128 0xc
 4713 0123 01       		.uleb128 0x1
 4714 0124 13       		.uleb128 0x13
 4715 0125 00       		.byte	0
 4716 0126 00       		.byte	0
 4717 0127 13       		.uleb128 0x13
 4718 0128 34       		.uleb128 0x34
 4719 0129 00       		.byte	0
 4720 012a 03       		.uleb128 0x3
 4721 012b 0E       		.uleb128 0xe
 4722 012c 3A       		.uleb128 0x3a
 4723 012d 0B       		.uleb128 0xb
 4724 012e 3B       		.uleb128 0x3b
 4725 012f 05       		.uleb128 0x5
 4726 0130 49       		.uleb128 0x49
 4727 0131 13       		.uleb128 0x13
 4728 0132 02       		.uleb128 0x2
 4729 0133 06       		.uleb128 0x6
 4730 0134 00       		.byte	0
 4731 0135 00       		.byte	0
 4732 0136 14       		.uleb128 0x14
 4733 0137 1D       		.uleb128 0x1d
 4734 0138 00       		.byte	0
 4735 0139 31       		.uleb128 0x31
 4736 013a 13       		.uleb128 0x13
 4737 013b 11       		.uleb128 0x11
 4738 013c 01       		.uleb128 0x1
 4739 013d 12       		.uleb128 0x12
 4740 013e 01       		.uleb128 0x1
 4741 013f 58       		.uleb128 0x58
 4742 0140 0B       		.uleb128 0xb
 4743 0141 59       		.uleb128 0x59
 4744 0142 05       		.uleb128 0x5
 4745 0143 00       		.byte	0
 4746 0144 00       		.byte	0
 4747 0145 15       		.uleb128 0x15
 4748 0146 898201   		.uleb128 0x4109
 4749 0149 00       		.byte	0
 4750 014a 11       		.uleb128 0x11
 4751 014b 01       		.uleb128 0x1
 4752 014c 31       		.uleb128 0x31
 4753 014d 13       		.uleb128 0x13
 4754 014e 00       		.byte	0
 4755 014f 00       		.byte	0
 4756 0150 16       		.uleb128 0x16
 4757 0151 2E       		.uleb128 0x2e
 4758 0152 01       		.byte	0x1
 4759 0153 31       		.uleb128 0x31
 4760 0154 13       		.uleb128 0x13
 4761 0155 11       		.uleb128 0x11
 4762 0156 01       		.uleb128 0x1
 4763 0157 12       		.uleb128 0x12
 4764 0158 01       		.uleb128 0x1
 4765 0159 40       		.uleb128 0x40
 4766 015a 06       		.uleb128 0x6
ARM GAS  C:\Users\Steve\AppData\Local\Temp\ccc4U1xk.s 			page 125


 4767 015b 9742     		.uleb128 0x2117
 4768 015d 0C       		.uleb128 0xc
 4769 015e 01       		.uleb128 0x1
 4770 015f 13       		.uleb128 0x13
 4771 0160 00       		.byte	0
 4772 0161 00       		.byte	0
 4773 0162 17       		.uleb128 0x17
 4774 0163 05       		.uleb128 0x5
 4775 0164 00       		.byte	0
 4776 0165 31       		.uleb128 0x31
 4777 0166 13       		.uleb128 0x13
 4778 0167 02       		.uleb128 0x2
 4779 0168 06       		.uleb128 0x6
 4780 0169 00       		.byte	0
 4781 016a 00       		.byte	0
 4782 016b 18       		.uleb128 0x18
 4783 016c 1D       		.uleb128 0x1d
 4784 016d 01       		.byte	0x1
 4785 016e 31       		.uleb128 0x31
 4786 016f 13       		.uleb128 0x13
 4787 0170 11       		.uleb128 0x11
 4788 0171 01       		.uleb128 0x1
 4789 0172 12       		.uleb128 0x12
 4790 0173 01       		.uleb128 0x1
 4791 0174 58       		.uleb128 0x58
 4792 0175 0B       		.uleb128 0xb
 4793 0176 59       		.uleb128 0x59
 4794 0177 05       		.uleb128 0x5
 4795 0178 00       		.byte	0
 4796 0179 00       		.byte	0
 4797 017a 19       		.uleb128 0x19
 4798 017b 05       		.uleb128 0x5
 4799 017c 00       		.byte	0
 4800 017d 03       		.uleb128 0x3
 4801 017e 0E       		.uleb128 0xe
 4802 017f 3A       		.uleb128 0x3a
 4803 0180 0B       		.uleb128 0xb
 4804 0181 3B       		.uleb128 0x3b
 4805 0182 05       		.uleb128 0x5
 4806 0183 49       		.uleb128 0x49
 4807 0184 13       		.uleb128 0x13
 4808 0185 02       		.uleb128 0x2
 4809 0186 06       		.uleb128 0x6
 4810 0187 00       		.byte	0
 4811 0188 00       		.byte	0
 4812 0189 1A       		.uleb128 0x1a
 4813 018a 1D       		.uleb128 0x1d
 4814 018b 01       		.byte	0x1
 4815 018c 31       		.uleb128 0x31
 4816 018d 13       		.uleb128 0x13
 4817 018e 11       		.uleb128 0x11
 4818 018f 01       		.uleb128 0x1
 4819 0190 12       		.uleb128 0x12
 4820 0191 01       		.uleb128 0x1
 4821 0192 58       		.uleb128 0x58
 4822 0193 0B       		.uleb128 0xb
 4823 0194 59       		.uleb128 0x59
ARM GAS  C:\Users\Steve\AppData\Local\Temp\ccc4U1xk.s 			page 126


 4824 0195 05       		.uleb128 0x5
 4825 0196 01       		.uleb128 0x1
 4826 0197 13       		.uleb128 0x13
 4827 0198 00       		.byte	0
 4828 0199 00       		.byte	0
 4829 019a 1B       		.uleb128 0x1b
 4830 019b 2E       		.uleb128 0x2e
 4831 019c 01       		.byte	0x1
 4832 019d 3F       		.uleb128 0x3f
 4833 019e 0C       		.uleb128 0xc
 4834 019f 03       		.uleb128 0x3
 4835 01a0 0E       		.uleb128 0xe
 4836 01a1 3A       		.uleb128 0x3a
 4837 01a2 0B       		.uleb128 0xb
 4838 01a3 3B       		.uleb128 0x3b
 4839 01a4 05       		.uleb128 0x5
 4840 01a5 27       		.uleb128 0x27
 4841 01a6 0C       		.uleb128 0xc
 4842 01a7 49       		.uleb128 0x49
 4843 01a8 13       		.uleb128 0x13
 4844 01a9 11       		.uleb128 0x11
 4845 01aa 01       		.uleb128 0x1
 4846 01ab 12       		.uleb128 0x12
 4847 01ac 01       		.uleb128 0x1
 4848 01ad 40       		.uleb128 0x40
 4849 01ae 0A       		.uleb128 0xa
 4850 01af 9742     		.uleb128 0x2117
 4851 01b1 0C       		.uleb128 0xc
 4852 01b2 01       		.uleb128 0x1
 4853 01b3 13       		.uleb128 0x13
 4854 01b4 00       		.byte	0
 4855 01b5 00       		.byte	0
 4856 01b6 1C       		.uleb128 0x1c
 4857 01b7 2E       		.uleb128 0x2e
 4858 01b8 01       		.byte	0x1
 4859 01b9 3F       		.uleb128 0x3f
 4860 01ba 0C       		.uleb128 0xc
 4861 01bb 03       		.uleb128 0x3
 4862 01bc 0E       		.uleb128 0xe
 4863 01bd 3A       		.uleb128 0x3a
 4864 01be 0B       		.uleb128 0xb
 4865 01bf 3B       		.uleb128 0x3b
 4866 01c0 05       		.uleb128 0x5
 4867 01c1 27       		.uleb128 0x27
 4868 01c2 0C       		.uleb128 0xc
 4869 01c3 49       		.uleb128 0x49
 4870 01c4 13       		.uleb128 0x13
 4871 01c5 11       		.uleb128 0x11
 4872 01c6 01       		.uleb128 0x1
 4873 01c7 12       		.uleb128 0x12
 4874 01c8 01       		.uleb128 0x1
 4875 01c9 40       		.uleb128 0x40
 4876 01ca 06       		.uleb128 0x6
 4877 01cb 9742     		.uleb128 0x2117
 4878 01cd 0C       		.uleb128 0xc
 4879 01ce 01       		.uleb128 0x1
 4880 01cf 13       		.uleb128 0x13
ARM GAS  C:\Users\Steve\AppData\Local\Temp\ccc4U1xk.s 			page 127


 4881 01d0 00       		.byte	0
 4882 01d1 00       		.byte	0
 4883 01d2 1D       		.uleb128 0x1d
 4884 01d3 05       		.uleb128 0x5
 4885 01d4 00       		.byte	0
 4886 01d5 03       		.uleb128 0x3
 4887 01d6 0E       		.uleb128 0xe
 4888 01d7 3A       		.uleb128 0x3a
 4889 01d8 0B       		.uleb128 0xb
 4890 01d9 3B       		.uleb128 0x3b
 4891 01da 05       		.uleb128 0x5
 4892 01db 49       		.uleb128 0x49
 4893 01dc 13       		.uleb128 0x13
 4894 01dd 02       		.uleb128 0x2
 4895 01de 0A       		.uleb128 0xa
 4896 01df 00       		.byte	0
 4897 01e0 00       		.byte	0
 4898 01e1 1E       		.uleb128 0x1e
 4899 01e2 1D       		.uleb128 0x1d
 4900 01e3 01       		.byte	0x1
 4901 01e4 31       		.uleb128 0x31
 4902 01e5 13       		.uleb128 0x13
 4903 01e6 52       		.uleb128 0x52
 4904 01e7 01       		.uleb128 0x1
 4905 01e8 55       		.uleb128 0x55
 4906 01e9 06       		.uleb128 0x6
 4907 01ea 58       		.uleb128 0x58
 4908 01eb 0B       		.uleb128 0xb
 4909 01ec 59       		.uleb128 0x59
 4910 01ed 05       		.uleb128 0x5
 4911 01ee 01       		.uleb128 0x1
 4912 01ef 13       		.uleb128 0x13
 4913 01f0 00       		.byte	0
 4914 01f1 00       		.byte	0
 4915 01f2 1F       		.uleb128 0x1f
 4916 01f3 05       		.uleb128 0x5
 4917 01f4 00       		.byte	0
 4918 01f5 31       		.uleb128 0x31
 4919 01f6 13       		.uleb128 0x13
 4920 01f7 1C       		.uleb128 0x1c
 4921 01f8 0B       		.uleb128 0xb
 4922 01f9 00       		.byte	0
 4923 01fa 00       		.byte	0
 4924 01fb 20       		.uleb128 0x20
 4925 01fc 2E       		.uleb128 0x2e
 4926 01fd 00       		.byte	0
 4927 01fe 3F       		.uleb128 0x3f
 4928 01ff 0C       		.uleb128 0xc
 4929 0200 03       		.uleb128 0x3
 4930 0201 0E       		.uleb128 0xe
 4931 0202 3A       		.uleb128 0x3a
 4932 0203 0B       		.uleb128 0xb
 4933 0204 3B       		.uleb128 0x3b
 4934 0205 05       		.uleb128 0x5
 4935 0206 27       		.uleb128 0x27
 4936 0207 0C       		.uleb128 0xc
 4937 0208 49       		.uleb128 0x49
ARM GAS  C:\Users\Steve\AppData\Local\Temp\ccc4U1xk.s 			page 128


 4938 0209 13       		.uleb128 0x13
 4939 020a 11       		.uleb128 0x11
 4940 020b 01       		.uleb128 0x1
 4941 020c 12       		.uleb128 0x12
 4942 020d 01       		.uleb128 0x1
 4943 020e 40       		.uleb128 0x40
 4944 020f 0A       		.uleb128 0xa
 4945 0210 9742     		.uleb128 0x2117
 4946 0212 0C       		.uleb128 0xc
 4947 0213 00       		.byte	0
 4948 0214 00       		.byte	0
 4949 0215 21       		.uleb128 0x21
 4950 0216 2E       		.uleb128 0x2e
 4951 0217 01       		.byte	0x1
 4952 0218 3F       		.uleb128 0x3f
 4953 0219 0C       		.uleb128 0xc
 4954 021a 03       		.uleb128 0x3
 4955 021b 0E       		.uleb128 0xe
 4956 021c 3A       		.uleb128 0x3a
 4957 021d 0B       		.uleb128 0xb
 4958 021e 3B       		.uleb128 0x3b
 4959 021f 05       		.uleb128 0x5
 4960 0220 27       		.uleb128 0x27
 4961 0221 0C       		.uleb128 0xc
 4962 0222 11       		.uleb128 0x11
 4963 0223 01       		.uleb128 0x1
 4964 0224 12       		.uleb128 0x12
 4965 0225 01       		.uleb128 0x1
 4966 0226 40       		.uleb128 0x40
 4967 0227 0A       		.uleb128 0xa
 4968 0228 9742     		.uleb128 0x2117
 4969 022a 0C       		.uleb128 0xc
 4970 022b 01       		.uleb128 0x1
 4971 022c 13       		.uleb128 0x13
 4972 022d 00       		.byte	0
 4973 022e 00       		.byte	0
 4974 022f 22       		.uleb128 0x22
 4975 0230 2E       		.uleb128 0x2e
 4976 0231 00       		.byte	0
 4977 0232 3F       		.uleb128 0x3f
 4978 0233 0C       		.uleb128 0xc
 4979 0234 03       		.uleb128 0x3
 4980 0235 0E       		.uleb128 0xe
 4981 0236 3A       		.uleb128 0x3a
 4982 0237 0B       		.uleb128 0xb
 4983 0238 3B       		.uleb128 0x3b
 4984 0239 05       		.uleb128 0x5
 4985 023a 27       		.uleb128 0x27
 4986 023b 0C       		.uleb128 0xc
 4987 023c 11       		.uleb128 0x11
 4988 023d 01       		.uleb128 0x1
 4989 023e 12       		.uleb128 0x12
 4990 023f 01       		.uleb128 0x1
 4991 0240 40       		.uleb128 0x40
 4992 0241 0A       		.uleb128 0xa
 4993 0242 9742     		.uleb128 0x2117
 4994 0244 0C       		.uleb128 0xc
ARM GAS  C:\Users\Steve\AppData\Local\Temp\ccc4U1xk.s 			page 129


 4995 0245 00       		.byte	0
 4996 0246 00       		.byte	0
 4997 0247 23       		.uleb128 0x23
 4998 0248 34       		.uleb128 0x34
 4999 0249 00       		.byte	0
 5000 024a 03       		.uleb128 0x3
 5001 024b 0E       		.uleb128 0xe
 5002 024c 3A       		.uleb128 0x3a
 5003 024d 0B       		.uleb128 0xb
 5004 024e 3B       		.uleb128 0x3b
 5005 024f 05       		.uleb128 0x5
 5006 0250 49       		.uleb128 0x49
 5007 0251 13       		.uleb128 0x13
 5008 0252 02       		.uleb128 0x2
 5009 0253 0A       		.uleb128 0xa
 5010 0254 00       		.byte	0
 5011 0255 00       		.byte	0
 5012 0256 24       		.uleb128 0x24
 5013 0257 34       		.uleb128 0x34
 5014 0258 00       		.byte	0
 5015 0259 03       		.uleb128 0x3
 5016 025a 0E       		.uleb128 0xe
 5017 025b 3A       		.uleb128 0x3a
 5018 025c 0B       		.uleb128 0xb
 5019 025d 3B       		.uleb128 0x3b
 5020 025e 05       		.uleb128 0x5
 5021 025f 49       		.uleb128 0x49
 5022 0260 13       		.uleb128 0x13
 5023 0261 1C       		.uleb128 0x1c
 5024 0262 06       		.uleb128 0x6
 5025 0263 00       		.byte	0
 5026 0264 00       		.byte	0
 5027 0265 25       		.uleb128 0x25
 5028 0266 34       		.uleb128 0x34
 5029 0267 00       		.byte	0
 5030 0268 03       		.uleb128 0x3
 5031 0269 0E       		.uleb128 0xe
 5032 026a 3A       		.uleb128 0x3a
 5033 026b 0B       		.uleb128 0xb
 5034 026c 3B       		.uleb128 0x3b
 5035 026d 05       		.uleb128 0x5
 5036 026e 49       		.uleb128 0x49
 5037 026f 13       		.uleb128 0x13
 5038 0270 00       		.byte	0
 5039 0271 00       		.byte	0
 5040 0272 26       		.uleb128 0x26
 5041 0273 2E       		.uleb128 0x2e
 5042 0274 01       		.byte	0x1
 5043 0275 31       		.uleb128 0x31
 5044 0276 13       		.uleb128 0x13
 5045 0277 11       		.uleb128 0x11
 5046 0278 01       		.uleb128 0x1
 5047 0279 12       		.uleb128 0x12
 5048 027a 01       		.uleb128 0x1
 5049 027b 40       		.uleb128 0x40
 5050 027c 0A       		.uleb128 0xa
 5051 027d 9742     		.uleb128 0x2117
ARM GAS  C:\Users\Steve\AppData\Local\Temp\ccc4U1xk.s 			page 130


 5052 027f 0C       		.uleb128 0xc
 5053 0280 01       		.uleb128 0x1
 5054 0281 13       		.uleb128 0x13
 5055 0282 00       		.byte	0
 5056 0283 00       		.byte	0
 5057 0284 27       		.uleb128 0x27
 5058 0285 05       		.uleb128 0x5
 5059 0286 00       		.byte	0
 5060 0287 31       		.uleb128 0x31
 5061 0288 13       		.uleb128 0x13
 5062 0289 02       		.uleb128 0x2
 5063 028a 0A       		.uleb128 0xa
 5064 028b 00       		.byte	0
 5065 028c 00       		.byte	0
 5066 028d 28       		.uleb128 0x28
 5067 028e 898201   		.uleb128 0x4109
 5068 0291 01       		.byte	0x1
 5069 0292 11       		.uleb128 0x11
 5070 0293 01       		.uleb128 0x1
 5071 0294 31       		.uleb128 0x31
 5072 0295 13       		.uleb128 0x13
 5073 0296 00       		.byte	0
 5074 0297 00       		.byte	0
 5075 0298 29       		.uleb128 0x29
 5076 0299 8A8201   		.uleb128 0x410a
 5077 029c 00       		.byte	0
 5078 029d 02       		.uleb128 0x2
 5079 029e 0A       		.uleb128 0xa
 5080 029f 9142     		.uleb128 0x2111
 5081 02a1 0A       		.uleb128 0xa
 5082 02a2 00       		.byte	0
 5083 02a3 00       		.byte	0
 5084 02a4 2A       		.uleb128 0x2a
 5085 02a5 34       		.uleb128 0x34
 5086 02a6 00       		.byte	0
 5087 02a7 03       		.uleb128 0x3
 5088 02a8 0E       		.uleb128 0xe
 5089 02a9 3A       		.uleb128 0x3a
 5090 02aa 0B       		.uleb128 0xb
 5091 02ab 3B       		.uleb128 0x3b
 5092 02ac 0B       		.uleb128 0xb
 5093 02ad 49       		.uleb128 0x49
 5094 02ae 13       		.uleb128 0x13
 5095 02af 02       		.uleb128 0x2
 5096 02b0 06       		.uleb128 0x6
 5097 02b1 00       		.byte	0
 5098 02b2 00       		.byte	0
 5099 02b3 2B       		.uleb128 0x2b
 5100 02b4 34       		.uleb128 0x34
 5101 02b5 00       		.byte	0
 5102 02b6 03       		.uleb128 0x3
 5103 02b7 08       		.uleb128 0x8
 5104 02b8 3A       		.uleb128 0x3a
 5105 02b9 0B       		.uleb128 0xb
 5106 02ba 3B       		.uleb128 0x3b
 5107 02bb 0B       		.uleb128 0xb
 5108 02bc 49       		.uleb128 0x49
ARM GAS  C:\Users\Steve\AppData\Local\Temp\ccc4U1xk.s 			page 131


 5109 02bd 13       		.uleb128 0x13
 5110 02be 02       		.uleb128 0x2
 5111 02bf 06       		.uleb128 0x6
 5112 02c0 00       		.byte	0
 5113 02c1 00       		.byte	0
 5114 02c2 2C       		.uleb128 0x2c
 5115 02c3 34       		.uleb128 0x34
 5116 02c4 00       		.byte	0
 5117 02c5 03       		.uleb128 0x3
 5118 02c6 0E       		.uleb128 0xe
 5119 02c7 3A       		.uleb128 0x3a
 5120 02c8 0B       		.uleb128 0xb
 5121 02c9 3B       		.uleb128 0x3b
 5122 02ca 0B       		.uleb128 0xb
 5123 02cb 49       		.uleb128 0x49
 5124 02cc 13       		.uleb128 0x13
 5125 02cd 02       		.uleb128 0x2
 5126 02ce 0A       		.uleb128 0xa
 5127 02cf 00       		.byte	0
 5128 02d0 00       		.byte	0
 5129 02d1 2D       		.uleb128 0x2d
 5130 02d2 898201   		.uleb128 0x4109
 5131 02d5 01       		.byte	0x1
 5132 02d6 11       		.uleb128 0x11
 5133 02d7 01       		.uleb128 0x1
 5134 02d8 31       		.uleb128 0x31
 5135 02d9 13       		.uleb128 0x13
 5136 02da 01       		.uleb128 0x1
 5137 02db 13       		.uleb128 0x13
 5138 02dc 00       		.byte	0
 5139 02dd 00       		.byte	0
 5140 02de 2E       		.uleb128 0x2e
 5141 02df 01       		.uleb128 0x1
 5142 02e0 01       		.byte	0x1
 5143 02e1 49       		.uleb128 0x49
 5144 02e2 13       		.uleb128 0x13
 5145 02e3 01       		.uleb128 0x1
 5146 02e4 13       		.uleb128 0x13
 5147 02e5 00       		.byte	0
 5148 02e6 00       		.byte	0
 5149 02e7 2F       		.uleb128 0x2f
 5150 02e8 21       		.uleb128 0x21
 5151 02e9 00       		.byte	0
 5152 02ea 49       		.uleb128 0x49
 5153 02eb 13       		.uleb128 0x13
 5154 02ec 2F       		.uleb128 0x2f
 5155 02ed 0B       		.uleb128 0xb
 5156 02ee 00       		.byte	0
 5157 02ef 00       		.byte	0
 5158 02f0 30       		.uleb128 0x30
 5159 02f1 26       		.uleb128 0x26
 5160 02f2 00       		.byte	0
 5161 02f3 49       		.uleb128 0x49
 5162 02f4 13       		.uleb128 0x13
 5163 02f5 00       		.byte	0
 5164 02f6 00       		.byte	0
 5165 02f7 31       		.uleb128 0x31
ARM GAS  C:\Users\Steve\AppData\Local\Temp\ccc4U1xk.s 			page 132


 5166 02f8 2E       		.uleb128 0x2e
 5167 02f9 01       		.byte	0x1
 5168 02fa 3F       		.uleb128 0x3f
 5169 02fb 0C       		.uleb128 0xc
 5170 02fc 03       		.uleb128 0x3
 5171 02fd 0E       		.uleb128 0xe
 5172 02fe 3A       		.uleb128 0x3a
 5173 02ff 0B       		.uleb128 0xb
 5174 0300 3B       		.uleb128 0x3b
 5175 0301 05       		.uleb128 0x5
 5176 0302 27       		.uleb128 0x27
 5177 0303 0C       		.uleb128 0xc
 5178 0304 11       		.uleb128 0x11
 5179 0305 01       		.uleb128 0x1
 5180 0306 12       		.uleb128 0x12
 5181 0307 01       		.uleb128 0x1
 5182 0308 40       		.uleb128 0x40
 5183 0309 06       		.uleb128 0x6
 5184 030a 9642     		.uleb128 0x2116
 5185 030c 0C       		.uleb128 0xc
 5186 030d 01       		.uleb128 0x1
 5187 030e 13       		.uleb128 0x13
 5188 030f 00       		.byte	0
 5189 0310 00       		.byte	0
 5190 0311 32       		.uleb128 0x32
 5191 0312 34       		.uleb128 0x34
 5192 0313 00       		.byte	0
 5193 0314 03       		.uleb128 0x3
 5194 0315 0E       		.uleb128 0xe
 5195 0316 3A       		.uleb128 0x3a
 5196 0317 0B       		.uleb128 0xb
 5197 0318 3B       		.uleb128 0x3b
 5198 0319 0B       		.uleb128 0xb
 5199 031a 49       		.uleb128 0x49
 5200 031b 13       		.uleb128 0x13
 5201 031c 3F       		.uleb128 0x3f
 5202 031d 0C       		.uleb128 0xc
 5203 031e 02       		.uleb128 0x2
 5204 031f 0A       		.uleb128 0xa
 5205 0320 00       		.byte	0
 5206 0321 00       		.byte	0
 5207 0322 33       		.uleb128 0x33
 5208 0323 2E       		.uleb128 0x2e
 5209 0324 00       		.byte	0
 5210 0325 3F       		.uleb128 0x3f
 5211 0326 0C       		.uleb128 0xc
 5212 0327 03       		.uleb128 0x3
 5213 0328 0E       		.uleb128 0xe
 5214 0329 3A       		.uleb128 0x3a
 5215 032a 0B       		.uleb128 0xb
 5216 032b 3B       		.uleb128 0x3b
 5217 032c 0B       		.uleb128 0xb
 5218 032d 27       		.uleb128 0x27
 5219 032e 0C       		.uleb128 0xc
 5220 032f 49       		.uleb128 0x49
 5221 0330 13       		.uleb128 0x13
 5222 0331 3C       		.uleb128 0x3c
ARM GAS  C:\Users\Steve\AppData\Local\Temp\ccc4U1xk.s 			page 133


 5223 0332 0C       		.uleb128 0xc
 5224 0333 00       		.byte	0
 5225 0334 00       		.byte	0
 5226 0335 34       		.uleb128 0x34
 5227 0336 2E       		.uleb128 0x2e
 5228 0337 01       		.byte	0x1
 5229 0338 3F       		.uleb128 0x3f
 5230 0339 0C       		.uleb128 0xc
 5231 033a 03       		.uleb128 0x3
 5232 033b 0E       		.uleb128 0xe
 5233 033c 3A       		.uleb128 0x3a
 5234 033d 0B       		.uleb128 0xb
 5235 033e 3B       		.uleb128 0x3b
 5236 033f 0B       		.uleb128 0xb
 5237 0340 27       		.uleb128 0x27
 5238 0341 0C       		.uleb128 0xc
 5239 0342 3C       		.uleb128 0x3c
 5240 0343 0C       		.uleb128 0xc
 5241 0344 01       		.uleb128 0x1
 5242 0345 13       		.uleb128 0x13
 5243 0346 00       		.byte	0
 5244 0347 00       		.byte	0
 5245 0348 35       		.uleb128 0x35
 5246 0349 05       		.uleb128 0x5
 5247 034a 00       		.byte	0
 5248 034b 49       		.uleb128 0x49
 5249 034c 13       		.uleb128 0x13
 5250 034d 00       		.byte	0
 5251 034e 00       		.byte	0
 5252 034f 36       		.uleb128 0x36
 5253 0350 2E       		.uleb128 0x2e
 5254 0351 01       		.byte	0x1
 5255 0352 3F       		.uleb128 0x3f
 5256 0353 0C       		.uleb128 0xc
 5257 0354 03       		.uleb128 0x3
 5258 0355 0E       		.uleb128 0xe
 5259 0356 3A       		.uleb128 0x3a
 5260 0357 0B       		.uleb128 0xb
 5261 0358 3B       		.uleb128 0x3b
 5262 0359 0B       		.uleb128 0xb
 5263 035a 27       		.uleb128 0x27
 5264 035b 0C       		.uleb128 0xc
 5265 035c 3C       		.uleb128 0x3c
 5266 035d 0C       		.uleb128 0xc
 5267 035e 00       		.byte	0
 5268 035f 00       		.byte	0
 5269 0360 00       		.byte	0
 5270              		.section	.debug_loc,"",%progbits
 5271              	.Ldebug_loc0:
 5272              	.LLST0:
 5273 0000 00000000 		.4byte	.LVL0
 5274 0004 08000000 		.4byte	.LVL1
 5275 0008 0100     		.2byte	0x1
 5276 000a 50       		.byte	0x50
 5277 000b 08000000 		.4byte	.LVL1
 5278 000f 18000000 		.4byte	.LFE4
 5279 0013 0400     		.2byte	0x4
ARM GAS  C:\Users\Steve\AppData\Local\Temp\ccc4U1xk.s 			page 134


 5280 0015 F3       		.byte	0xf3
 5281 0016 01       		.uleb128 0x1
 5282 0017 50       		.byte	0x50
 5283 0018 9F       		.byte	0x9f
 5284 0019 00000000 		.4byte	0
 5285 001d 00000000 		.4byte	0
 5286              	.LLST1:
 5287 0021 00000000 		.4byte	.LFB5
 5288 0025 04000000 		.4byte	.LCFI0
 5289 0029 0200     		.2byte	0x2
 5290 002b 7D       		.byte	0x7d
 5291 002c 00       		.sleb128 0
 5292 002d 04000000 		.4byte	.LCFI0
 5293 0031 20000000 		.4byte	.LFE5
 5294 0035 0200     		.2byte	0x2
 5295 0037 7D       		.byte	0x7d
 5296 0038 08       		.sleb128 8
 5297 0039 00000000 		.4byte	0
 5298 003d 00000000 		.4byte	0
 5299              	.LLST2:
 5300 0041 00000000 		.4byte	.LVL2
 5301 0045 0A000000 		.4byte	.LVL3
 5302 0049 0100     		.2byte	0x1
 5303 004b 50       		.byte	0x50
 5304 004c 0A000000 		.4byte	.LVL3
 5305 0050 20000000 		.4byte	.LFE5
 5306 0054 0400     		.2byte	0x4
 5307 0056 F3       		.byte	0xf3
 5308 0057 01       		.uleb128 0x1
 5309 0058 50       		.byte	0x50
 5310 0059 9F       		.byte	0x9f
 5311 005a 00000000 		.4byte	0
 5312 005e 00000000 		.4byte	0
 5313              	.LLST3:
 5314 0062 00000000 		.4byte	.LFB7
 5315 0066 02000000 		.4byte	.LCFI1
 5316 006a 0200     		.2byte	0x2
 5317 006c 7D       		.byte	0x7d
 5318 006d 00       		.sleb128 0
 5319 006e 02000000 		.4byte	.LCFI1
 5320 0072 34000000 		.4byte	.LFE7
 5321 0076 0200     		.2byte	0x2
 5322 0078 7D       		.byte	0x7d
 5323 0079 08       		.sleb128 8
 5324 007a 00000000 		.4byte	0
 5325 007e 00000000 		.4byte	0
 5326              	.LLST4:
 5327 0082 06000000 		.4byte	.LVL4
 5328 0086 27000000 		.4byte	.LVL5-1
 5329 008a 0100     		.2byte	0x1
 5330 008c 50       		.byte	0x50
 5331 008d 00000000 		.4byte	0
 5332 0091 00000000 		.4byte	0
 5333              	.LLST5:
 5334 0095 00000000 		.4byte	.LFB8
 5335 0099 02000000 		.4byte	.LCFI2
 5336 009d 0200     		.2byte	0x2
ARM GAS  C:\Users\Steve\AppData\Local\Temp\ccc4U1xk.s 			page 135


 5337 009f 7D       		.byte	0x7d
 5338 00a0 00       		.sleb128 0
 5339 00a1 02000000 		.4byte	.LCFI2
 5340 00a5 48000000 		.4byte	.LFE8
 5341 00a9 0200     		.2byte	0x2
 5342 00ab 7D       		.byte	0x7d
 5343 00ac 08       		.sleb128 8
 5344 00ad 00000000 		.4byte	0
 5345 00b1 00000000 		.4byte	0
 5346              	.LLST6:
 5347 00b5 06000000 		.4byte	.LVL6
 5348 00b9 37000000 		.4byte	.LVL7-1
 5349 00bd 0100     		.2byte	0x1
 5350 00bf 50       		.byte	0x50
 5351 00c0 00000000 		.4byte	0
 5352 00c4 00000000 		.4byte	0
 5353              	.LLST7:
 5354 00c8 00000000 		.4byte	.LFB9
 5355 00cc 02000000 		.4byte	.LCFI3
 5356 00d0 0200     		.2byte	0x2
 5357 00d2 7D       		.byte	0x7d
 5358 00d3 00       		.sleb128 0
 5359 00d4 02000000 		.4byte	.LCFI3
 5360 00d8 20000000 		.4byte	.LFE9
 5361 00dc 0200     		.2byte	0x2
 5362 00de 7D       		.byte	0x7d
 5363 00df 04       		.sleb128 4
 5364 00e0 00000000 		.4byte	0
 5365 00e4 00000000 		.4byte	0
 5366              	.LLST8:
 5367 00e8 00000000 		.4byte	.LVL8
 5368 00ec 0C000000 		.4byte	.LVL11
 5369 00f0 0100     		.2byte	0x1
 5370 00f2 50       		.byte	0x50
 5371 00f3 0C000000 		.4byte	.LVL11
 5372 00f7 20000000 		.4byte	.LFE9
 5373 00fb 0400     		.2byte	0x4
 5374 00fd F3       		.byte	0xf3
 5375 00fe 01       		.uleb128 0x1
 5376 00ff 50       		.byte	0x50
 5377 0100 9F       		.byte	0x9f
 5378 0101 00000000 		.4byte	0
 5379 0105 00000000 		.4byte	0
 5380              	.LLST9:
 5381 0109 06000000 		.4byte	.LVL9
 5382 010d 08000000 		.4byte	.LVL10
 5383 0111 0200     		.2byte	0x2
 5384 0113 30       		.byte	0x30
 5385 0114 9F       		.byte	0x9f
 5386 0115 00000000 		.4byte	0
 5387 0119 00000000 		.4byte	0
 5388              	.LLST10:
 5389 011d 00000000 		.4byte	.LFB10
 5390 0121 02000000 		.4byte	.LCFI4
 5391 0125 0200     		.2byte	0x2
 5392 0127 7D       		.byte	0x7d
 5393 0128 00       		.sleb128 0
ARM GAS  C:\Users\Steve\AppData\Local\Temp\ccc4U1xk.s 			page 136


 5394 0129 02000000 		.4byte	.LCFI4
 5395 012d 54000000 		.4byte	.LFE10
 5396 0131 0200     		.2byte	0x2
 5397 0133 7D       		.byte	0x7d
 5398 0134 0C       		.sleb128 12
 5399 0135 00000000 		.4byte	0
 5400 0139 00000000 		.4byte	0
 5401              	.LLST11:
 5402 013d 00000000 		.4byte	.LVL12
 5403 0141 24000000 		.4byte	.LVL18
 5404 0145 0100     		.2byte	0x1
 5405 0147 50       		.byte	0x50
 5406 0148 24000000 		.4byte	.LVL18
 5407 014c 54000000 		.4byte	.LFE10
 5408 0150 0400     		.2byte	0x4
 5409 0152 F3       		.byte	0xf3
 5410 0153 01       		.uleb128 0x1
 5411 0154 50       		.byte	0x50
 5412 0155 9F       		.byte	0x9f
 5413 0156 00000000 		.4byte	0
 5414 015a 00000000 		.4byte	0
 5415              	.LLST12:
 5416 015e 00000000 		.4byte	.LVL12
 5417 0162 42000000 		.4byte	.LVL20
 5418 0166 0100     		.2byte	0x1
 5419 0168 51       		.byte	0x51
 5420 0169 42000000 		.4byte	.LVL20
 5421 016d 54000000 		.4byte	.LFE10
 5422 0171 0400     		.2byte	0x4
 5423 0173 F3       		.byte	0xf3
 5424 0174 01       		.uleb128 0x1
 5425 0175 51       		.byte	0x51
 5426 0176 9F       		.byte	0x9f
 5427 0177 00000000 		.4byte	0
 5428 017b 00000000 		.4byte	0
 5429              	.LLST13:
 5430 017f 3E000000 		.4byte	.LVL19
 5431 0183 44000000 		.4byte	.LVL21
 5432 0187 0100     		.2byte	0x1
 5433 0189 54       		.byte	0x54
 5434 018a 44000000 		.4byte	.LVL21
 5435 018e 46000000 		.4byte	.LVL22
 5436 0192 0100     		.2byte	0x1
 5437 0194 51       		.byte	0x51
 5438 0195 00000000 		.4byte	0
 5439 0199 00000000 		.4byte	0
 5440              	.LLST14:
 5441 019d 06000000 		.4byte	.LVL13
 5442 01a1 08000000 		.4byte	.LVL14
 5443 01a5 0200     		.2byte	0x2
 5444 01a7 30       		.byte	0x30
 5445 01a8 9F       		.byte	0x9f
 5446 01a9 00000000 		.4byte	0
 5447 01ad 00000000 		.4byte	0
 5448              	.LLST15:
 5449 01b1 1A000000 		.4byte	.LVL15
 5450 01b5 24000000 		.4byte	.LVL18
ARM GAS  C:\Users\Steve\AppData\Local\Temp\ccc4U1xk.s 			page 137


 5451 01b9 0100     		.2byte	0x1
 5452 01bb 50       		.byte	0x50
 5453 01bc 24000000 		.4byte	.LVL18
 5454 01c0 54000000 		.4byte	.LFE10
 5455 01c4 0400     		.2byte	0x4
 5456 01c6 F3       		.byte	0xf3
 5457 01c7 01       		.uleb128 0x1
 5458 01c8 50       		.byte	0x50
 5459 01c9 9F       		.byte	0x9f
 5460 01ca 00000000 		.4byte	0
 5461 01ce 00000000 		.4byte	0
 5462              	.LLST16:
 5463 01d2 1E000000 		.4byte	.LVL16
 5464 01d6 20000000 		.4byte	.LVL17
 5465 01da 0200     		.2byte	0x2
 5466 01dc 30       		.byte	0x30
 5467 01dd 9F       		.byte	0x9f
 5468 01de 00000000 		.4byte	0
 5469 01e2 00000000 		.4byte	0
 5470              	.LLST17:
 5471 01e6 00000000 		.4byte	.LVL23
 5472 01ea 04000000 		.4byte	.LVL24
 5473 01ee 0100     		.2byte	0x1
 5474 01f0 50       		.byte	0x50
 5475 01f1 04000000 		.4byte	.LVL24
 5476 01f5 14000000 		.4byte	.LFE11
 5477 01f9 0400     		.2byte	0x4
 5478 01fb F3       		.byte	0xf3
 5479 01fc 01       		.uleb128 0x1
 5480 01fd 50       		.byte	0x50
 5481 01fe 9F       		.byte	0x9f
 5482 01ff 00000000 		.4byte	0
 5483 0203 00000000 		.4byte	0
 5484              	.LLST18:
 5485 0207 00000000 		.4byte	.LFB12
 5486 020b 02000000 		.4byte	.LCFI5
 5487 020f 0200     		.2byte	0x2
 5488 0211 7D       		.byte	0x7d
 5489 0212 00       		.sleb128 0
 5490 0213 02000000 		.4byte	.LCFI5
 5491 0217 48000000 		.4byte	.LFE12
 5492 021b 0200     		.2byte	0x2
 5493 021d 7D       		.byte	0x7d
 5494 021e 08       		.sleb128 8
 5495 021f 00000000 		.4byte	0
 5496 0223 00000000 		.4byte	0
 5497              	.LLST19:
 5498 0227 00000000 		.4byte	.LVL25
 5499 022b 24000000 		.4byte	.LVL31
 5500 022f 0100     		.2byte	0x1
 5501 0231 50       		.byte	0x50
 5502 0232 24000000 		.4byte	.LVL31
 5503 0236 48000000 		.4byte	.LFE12
 5504 023a 0400     		.2byte	0x4
 5505 023c F3       		.byte	0xf3
 5506 023d 01       		.uleb128 0x1
 5507 023e 50       		.byte	0x50
ARM GAS  C:\Users\Steve\AppData\Local\Temp\ccc4U1xk.s 			page 138


 5508 023f 9F       		.byte	0x9f
 5509 0240 00000000 		.4byte	0
 5510 0244 00000000 		.4byte	0
 5511              	.LLST20:
 5512 0248 00000000 		.4byte	.LVL25
 5513 024c 36000000 		.4byte	.LVL32
 5514 0250 0100     		.2byte	0x1
 5515 0252 51       		.byte	0x51
 5516 0253 36000000 		.4byte	.LVL32
 5517 0257 48000000 		.4byte	.LFE12
 5518 025b 0400     		.2byte	0x4
 5519 025d F3       		.byte	0xf3
 5520 025e 01       		.uleb128 0x1
 5521 025f 51       		.byte	0x51
 5522 0260 9F       		.byte	0x9f
 5523 0261 00000000 		.4byte	0
 5524 0265 00000000 		.4byte	0
 5525              	.LLST21:
 5526 0269 06000000 		.4byte	.LVL26
 5527 026d 08000000 		.4byte	.LVL27
 5528 0271 0200     		.2byte	0x2
 5529 0273 30       		.byte	0x30
 5530 0274 9F       		.byte	0x9f
 5531 0275 00000000 		.4byte	0
 5532 0279 00000000 		.4byte	0
 5533              	.LLST22:
 5534 027d 1A000000 		.4byte	.LVL28
 5535 0281 24000000 		.4byte	.LVL31
 5536 0285 0100     		.2byte	0x1
 5537 0287 50       		.byte	0x50
 5538 0288 24000000 		.4byte	.LVL31
 5539 028c 48000000 		.4byte	.LFE12
 5540 0290 0400     		.2byte	0x4
 5541 0292 F3       		.byte	0xf3
 5542 0293 01       		.uleb128 0x1
 5543 0294 50       		.byte	0x50
 5544 0295 9F       		.byte	0x9f
 5545 0296 00000000 		.4byte	0
 5546 029a 00000000 		.4byte	0
 5547              	.LLST23:
 5548 029e 1E000000 		.4byte	.LVL29
 5549 02a2 20000000 		.4byte	.LVL30
 5550 02a6 0200     		.2byte	0x2
 5551 02a8 30       		.byte	0x30
 5552 02a9 9F       		.byte	0x9f
 5553 02aa 00000000 		.4byte	0
 5554 02ae 00000000 		.4byte	0
 5555              	.LLST24:
 5556 02b2 00000000 		.4byte	.LFB13
 5557 02b6 02000000 		.4byte	.LCFI6
 5558 02ba 0200     		.2byte	0x2
 5559 02bc 7D       		.byte	0x7d
 5560 02bd 00       		.sleb128 0
 5561 02be 02000000 		.4byte	.LCFI6
 5562 02c2 20000000 		.4byte	.LFE13
 5563 02c6 0200     		.2byte	0x2
 5564 02c8 7D       		.byte	0x7d
ARM GAS  C:\Users\Steve\AppData\Local\Temp\ccc4U1xk.s 			page 139


 5565 02c9 04       		.sleb128 4
 5566 02ca 00000000 		.4byte	0
 5567 02ce 00000000 		.4byte	0
 5568              	.LLST25:
 5569 02d2 00000000 		.4byte	.LVL33
 5570 02d6 0C000000 		.4byte	.LVL36
 5571 02da 0100     		.2byte	0x1
 5572 02dc 50       		.byte	0x50
 5573 02dd 0C000000 		.4byte	.LVL36
 5574 02e1 20000000 		.4byte	.LFE13
 5575 02e5 0400     		.2byte	0x4
 5576 02e7 F3       		.byte	0xf3
 5577 02e8 01       		.uleb128 0x1
 5578 02e9 50       		.byte	0x50
 5579 02ea 9F       		.byte	0x9f
 5580 02eb 00000000 		.4byte	0
 5581 02ef 00000000 		.4byte	0
 5582              	.LLST26:
 5583 02f3 06000000 		.4byte	.LVL34
 5584 02f7 08000000 		.4byte	.LVL35
 5585 02fb 0200     		.2byte	0x2
 5586 02fd 30       		.byte	0x30
 5587 02fe 9F       		.byte	0x9f
 5588 02ff 00000000 		.4byte	0
 5589 0303 00000000 		.4byte	0
 5590              	.LLST27:
 5591 0307 00000000 		.4byte	.LFB14
 5592 030b 04000000 		.4byte	.LCFI7
 5593 030f 0200     		.2byte	0x2
 5594 0311 7D       		.byte	0x7d
 5595 0312 00       		.sleb128 0
 5596 0313 04000000 		.4byte	.LCFI7
 5597 0317 28000000 		.4byte	.LFE14
 5598 031b 0200     		.2byte	0x2
 5599 031d 7D       		.byte	0x7d
 5600 031e 04       		.sleb128 4
 5601 031f 00000000 		.4byte	0
 5602 0323 00000000 		.4byte	0
 5603              	.LLST28:
 5604 0327 00000000 		.4byte	.LVL37
 5605 032b 1A000000 		.4byte	.LVL38
 5606 032f 0100     		.2byte	0x1
 5607 0331 50       		.byte	0x50
 5608 0332 1A000000 		.4byte	.LVL38
 5609 0336 28000000 		.4byte	.LFE14
 5610 033a 0400     		.2byte	0x4
 5611 033c F3       		.byte	0xf3
 5612 033d 01       		.uleb128 0x1
 5613 033e 50       		.byte	0x50
 5614 033f 9F       		.byte	0x9f
 5615 0340 00000000 		.4byte	0
 5616 0344 00000000 		.4byte	0
 5617              	.LLST29:
 5618 0348 00000000 		.4byte	.LFB15
 5619 034c 04000000 		.4byte	.LCFI8
 5620 0350 0200     		.2byte	0x2
 5621 0352 7D       		.byte	0x7d
ARM GAS  C:\Users\Steve\AppData\Local\Temp\ccc4U1xk.s 			page 140


 5622 0353 00       		.sleb128 0
 5623 0354 04000000 		.4byte	.LCFI8
 5624 0358 28000000 		.4byte	.LFE15
 5625 035c 0200     		.2byte	0x2
 5626 035e 7D       		.byte	0x7d
 5627 035f 04       		.sleb128 4
 5628 0360 00000000 		.4byte	0
 5629 0364 00000000 		.4byte	0
 5630              	.LLST30:
 5631 0368 00000000 		.4byte	.LFB16
 5632 036c 04000000 		.4byte	.LCFI9
 5633 0370 0200     		.2byte	0x2
 5634 0372 7D       		.byte	0x7d
 5635 0373 00       		.sleb128 0
 5636 0374 04000000 		.4byte	.LCFI9
 5637 0378 48000000 		.4byte	.LFE16
 5638 037c 0200     		.2byte	0x2
 5639 037e 7D       		.byte	0x7d
 5640 037f 08       		.sleb128 8
 5641 0380 00000000 		.4byte	0
 5642 0384 00000000 		.4byte	0
 5643              	.LLST31:
 5644 0388 00000000 		.4byte	.LVL40
 5645 038c 34000000 		.4byte	.LVL47
 5646 0390 0100     		.2byte	0x1
 5647 0392 50       		.byte	0x50
 5648 0393 34000000 		.4byte	.LVL47
 5649 0397 48000000 		.4byte	.LFE16
 5650 039b 0400     		.2byte	0x4
 5651 039d F3       		.byte	0xf3
 5652 039e 01       		.uleb128 0x1
 5653 039f 50       		.byte	0x50
 5654 03a0 9F       		.byte	0x9f
 5655 03a1 00000000 		.4byte	0
 5656 03a5 00000000 		.4byte	0
 5657              	.LLST32:
 5658 03a9 30000000 		.4byte	.LVL45
 5659 03ad 32000000 		.4byte	.LVL46
 5660 03b1 0100     		.2byte	0x1
 5661 03b3 51       		.byte	0x51
 5662 03b4 32000000 		.4byte	.LVL46
 5663 03b8 34000000 		.4byte	.LVL47
 5664 03bc 0100     		.2byte	0x1
 5665 03be 54       		.byte	0x54
 5666 03bf 34000000 		.4byte	.LVL47
 5667 03c3 36000000 		.4byte	.LVL48
 5668 03c7 0100     		.2byte	0x1
 5669 03c9 50       		.byte	0x50
 5670 03ca 00000000 		.4byte	0
 5671 03ce 00000000 		.4byte	0
 5672              	.LLST33:
 5673 03d2 0A000000 		.4byte	.LVL43
 5674 03d6 0C000000 		.4byte	.LVL44
 5675 03da 1500     		.2byte	0x15
 5676 03dc 71       		.byte	0x71
 5677 03dd 00       		.sleb128 0
 5678 03de 39       		.byte	0x39
ARM GAS  C:\Users\Steve\AppData\Local\Temp\ccc4U1xk.s 			page 141


 5679 03df 25       		.byte	0x25
 5680 03e0 31       		.byte	0x31
 5681 03e1 1A       		.byte	0x1a
 5682 03e2 74       		.byte	0x74
 5683 03e3 00       		.sleb128 0
 5684 03e4 31       		.byte	0x31
 5685 03e5 25       		.byte	0x25
 5686 03e6 31       		.byte	0x31
 5687 03e7 1A       		.byte	0x1a
 5688 03e8 21       		.byte	0x21
 5689 03e9 72       		.byte	0x72
 5690 03ea 00       		.sleb128 0
 5691 03eb 41       		.byte	0x41
 5692 03ec 25       		.byte	0x25
 5693 03ed 31       		.byte	0x31
 5694 03ee 1A       		.byte	0x1a
 5695 03ef 21       		.byte	0x21
 5696 03f0 9F       		.byte	0x9f
 5697 03f1 00000000 		.4byte	0
 5698 03f5 00000000 		.4byte	0
 5699              	.LLST34:
 5700 03f9 00000000 		.4byte	.LFB19
 5701 03fd 04000000 		.4byte	.LCFI10
 5702 0401 0200     		.2byte	0x2
 5703 0403 7D       		.byte	0x7d
 5704 0404 00       		.sleb128 0
 5705 0405 04000000 		.4byte	.LCFI10
 5706 0409 40000000 		.4byte	.LFE19
 5707 040d 0200     		.2byte	0x2
 5708 040f 7D       		.byte	0x7d
 5709 0410 04       		.sleb128 4
 5710 0411 00000000 		.4byte	0
 5711 0415 00000000 		.4byte	0
 5712              	.LLST35:
 5713 0419 00000000 		.4byte	.LVL49
 5714 041d 28000000 		.4byte	.LVL52
 5715 0421 0100     		.2byte	0x1
 5716 0423 50       		.byte	0x50
 5717 0424 28000000 		.4byte	.LVL52
 5718 0428 40000000 		.4byte	.LFE19
 5719 042c 0400     		.2byte	0x4
 5720 042e F3       		.byte	0xf3
 5721 042f 01       		.uleb128 0x1
 5722 0430 50       		.byte	0x50
 5723 0431 9F       		.byte	0x9f
 5724 0432 00000000 		.4byte	0
 5725 0436 00000000 		.4byte	0
 5726              	.LLST36:
 5727 043a 22000000 		.4byte	.LVL50
 5728 043e 24000000 		.4byte	.LVL51
 5729 0442 0100     		.2byte	0x1
 5730 0444 51       		.byte	0x51
 5731 0445 24000000 		.4byte	.LVL51
 5732 0449 2C000000 		.4byte	.LVL53
 5733 044d 0100     		.2byte	0x1
 5734 044f 52       		.byte	0x52
 5735 0450 2C000000 		.4byte	.LVL53
ARM GAS  C:\Users\Steve\AppData\Local\Temp\ccc4U1xk.s 			page 142


 5736 0454 2E000000 		.4byte	.LVL54
 5737 0458 0100     		.2byte	0x1
 5738 045a 50       		.byte	0x50
 5739 045b 00000000 		.4byte	0
 5740 045f 00000000 		.4byte	0
 5741              	.LLST37:
 5742 0463 00000000 		.4byte	.LFB21
 5743 0467 02000000 		.4byte	.LCFI11
 5744 046b 0200     		.2byte	0x2
 5745 046d 7D       		.byte	0x7d
 5746 046e 00       		.sleb128 0
 5747 046f 02000000 		.4byte	.LCFI11
 5748 0473 1C000000 		.4byte	.LFE21
 5749 0477 0200     		.2byte	0x2
 5750 0479 7D       		.byte	0x7d
 5751 047a 04       		.sleb128 4
 5752 047b 00000000 		.4byte	0
 5753 047f 00000000 		.4byte	0
 5754              	.LLST38:
 5755 0483 00000000 		.4byte	.LVL55
 5756 0487 0C000000 		.4byte	.LVL58
 5757 048b 0100     		.2byte	0x1
 5758 048d 50       		.byte	0x50
 5759 048e 0C000000 		.4byte	.LVL58
 5760 0492 1C000000 		.4byte	.LFE21
 5761 0496 0400     		.2byte	0x4
 5762 0498 F3       		.byte	0xf3
 5763 0499 01       		.uleb128 0x1
 5764 049a 50       		.byte	0x50
 5765 049b 9F       		.byte	0x9f
 5766 049c 00000000 		.4byte	0
 5767 04a0 00000000 		.4byte	0
 5768              	.LLST39:
 5769 04a4 06000000 		.4byte	.LVL56
 5770 04a8 08000000 		.4byte	.LVL57
 5771 04ac 0200     		.2byte	0x2
 5772 04ae 30       		.byte	0x30
 5773 04af 9F       		.byte	0x9f
 5774 04b0 00000000 		.4byte	0
 5775 04b4 00000000 		.4byte	0
 5776              	.LLST40:
 5777 04b8 00000000 		.4byte	.LFB22
 5778 04bc 02000000 		.4byte	.LCFI12
 5779 04c0 0200     		.2byte	0x2
 5780 04c2 7D       		.byte	0x7d
 5781 04c3 00       		.sleb128 0
 5782 04c4 02000000 		.4byte	.LCFI12
 5783 04c8 34000000 		.4byte	.LFE22
 5784 04cc 0200     		.2byte	0x2
 5785 04ce 7D       		.byte	0x7d
 5786 04cf 04       		.sleb128 4
 5787 04d0 00000000 		.4byte	0
 5788 04d4 00000000 		.4byte	0
 5789              	.LLST41:
 5790 04d8 00000000 		.4byte	.LVL59
 5791 04dc 12000000 		.4byte	.LVL61
 5792 04e0 0100     		.2byte	0x1
ARM GAS  C:\Users\Steve\AppData\Local\Temp\ccc4U1xk.s 			page 143


 5793 04e2 50       		.byte	0x50
 5794 04e3 12000000 		.4byte	.LVL61
 5795 04e7 14000000 		.4byte	.LVL62
 5796 04eb 0400     		.2byte	0x4
 5797 04ed F3       		.byte	0xf3
 5798 04ee 01       		.uleb128 0x1
 5799 04ef 50       		.byte	0x50
 5800 04f0 9F       		.byte	0x9f
 5801 04f1 14000000 		.4byte	.LVL62
 5802 04f5 16000000 		.4byte	.LVL63
 5803 04f9 0100     		.2byte	0x1
 5804 04fb 50       		.byte	0x50
 5805 04fc 16000000 		.4byte	.LVL63
 5806 0500 1E000000 		.4byte	.LVL65
 5807 0504 0400     		.2byte	0x4
 5808 0506 F3       		.byte	0xf3
 5809 0507 01       		.uleb128 0x1
 5810 0508 50       		.byte	0x50
 5811 0509 9F       		.byte	0x9f
 5812 050a 1E000000 		.4byte	.LVL65
 5813 050e 22000000 		.4byte	.LVL66
 5814 0512 0100     		.2byte	0x1
 5815 0514 50       		.byte	0x50
 5816 0515 22000000 		.4byte	.LVL66
 5817 0519 26000000 		.4byte	.LVL68
 5818 051d 0400     		.2byte	0x4
 5819 051f F3       		.byte	0xf3
 5820 0520 01       		.uleb128 0x1
 5821 0521 50       		.byte	0x50
 5822 0522 9F       		.byte	0x9f
 5823 0523 26000000 		.4byte	.LVL68
 5824 0527 2A000000 		.4byte	.LVL69
 5825 052b 0100     		.2byte	0x1
 5826 052d 50       		.byte	0x50
 5827 052e 2A000000 		.4byte	.LVL69
 5828 0532 34000000 		.4byte	.LFE22
 5829 0536 0400     		.2byte	0x4
 5830 0538 F3       		.byte	0xf3
 5831 0539 01       		.uleb128 0x1
 5832 053a 50       		.byte	0x50
 5833 053b 9F       		.byte	0x9f
 5834 053c 00000000 		.4byte	0
 5835 0540 00000000 		.4byte	0
 5836              	.LLST42:
 5837 0544 00000000 		.4byte	.LVL59
 5838 0548 12000000 		.4byte	.LVL61
 5839 054c 0200     		.2byte	0x2
 5840 054e 30       		.byte	0x30
 5841 054f 9F       		.byte	0x9f
 5842 0550 12000000 		.4byte	.LVL61
 5843 0554 14000000 		.4byte	.LVL62
 5844 0558 0100     		.2byte	0x1
 5845 055a 50       		.byte	0x50
 5846 055b 14000000 		.4byte	.LVL62
 5847 055f 1C000000 		.4byte	.LVL64
 5848 0563 0200     		.2byte	0x2
 5849 0565 30       		.byte	0x30
ARM GAS  C:\Users\Steve\AppData\Local\Temp\ccc4U1xk.s 			page 144


 5850 0566 9F       		.byte	0x9f
 5851 0567 1C000000 		.4byte	.LVL64
 5852 056b 1E000000 		.4byte	.LVL65
 5853 056f 0100     		.2byte	0x1
 5854 0571 50       		.byte	0x50
 5855 0572 1E000000 		.4byte	.LVL65
 5856 0576 24000000 		.4byte	.LVL67
 5857 057a 0200     		.2byte	0x2
 5858 057c 30       		.byte	0x30
 5859 057d 9F       		.byte	0x9f
 5860 057e 24000000 		.4byte	.LVL67
 5861 0582 26000000 		.4byte	.LVL68
 5862 0586 0100     		.2byte	0x1
 5863 0588 50       		.byte	0x50
 5864 0589 26000000 		.4byte	.LVL68
 5865 058d 2A000000 		.4byte	.LVL69
 5866 0591 0200     		.2byte	0x2
 5867 0593 30       		.byte	0x30
 5868 0594 9F       		.byte	0x9f
 5869 0595 2A000000 		.4byte	.LVL69
 5870 0599 34000000 		.4byte	.LFE22
 5871 059d 0100     		.2byte	0x1
 5872 059f 50       		.byte	0x50
 5873 05a0 00000000 		.4byte	0
 5874 05a4 00000000 		.4byte	0
 5875              	.LLST43:
 5876 05a8 0E000000 		.4byte	.LVL60
 5877 05ac 12000000 		.4byte	.LVL61
 5878 05b0 0200     		.2byte	0x2
 5879 05b2 30       		.byte	0x30
 5880 05b3 9F       		.byte	0x9f
 5881 05b4 00000000 		.4byte	0
 5882 05b8 00000000 		.4byte	0
 5883              	.LLST44:
 5884 05bc 00000000 		.4byte	.LFB24
 5885 05c0 02000000 		.4byte	.LCFI13
 5886 05c4 0200     		.2byte	0x2
 5887 05c6 7D       		.byte	0x7d
 5888 05c7 00       		.sleb128 0
 5889 05c8 02000000 		.4byte	.LCFI13
 5890 05cc 7C000000 		.4byte	.LFE24
 5891 05d0 0200     		.2byte	0x2
 5892 05d2 7D       		.byte	0x7d
 5893 05d3 10       		.sleb128 16
 5894 05d4 00000000 		.4byte	0
 5895 05d8 00000000 		.4byte	0
 5896              	.LLST45:
 5897 05dc 00000000 		.4byte	.LVL70
 5898 05e0 07000000 		.4byte	.LVL71-1
 5899 05e4 0100     		.2byte	0x1
 5900 05e6 50       		.byte	0x50
 5901 05e7 07000000 		.4byte	.LVL71-1
 5902 05eb 30000000 		.4byte	.LVL73
 5903 05ef 0100     		.2byte	0x1
 5904 05f1 54       		.byte	0x54
 5905 05f2 30000000 		.4byte	.LVL73
 5906 05f6 3A000000 		.4byte	.LVL76
ARM GAS  C:\Users\Steve\AppData\Local\Temp\ccc4U1xk.s 			page 145


 5907 05fa 0400     		.2byte	0x4
 5908 05fc F3       		.byte	0xf3
 5909 05fd 01       		.uleb128 0x1
 5910 05fe 50       		.byte	0x50
 5911 05ff 9F       		.byte	0x9f
 5912 0600 3A000000 		.4byte	.LVL76
 5913 0604 5C000000 		.4byte	.LVL77
 5914 0608 0100     		.2byte	0x1
 5915 060a 54       		.byte	0x54
 5916 060b 5C000000 		.4byte	.LVL77
 5917 060f 7C000000 		.4byte	.LFE24
 5918 0613 0400     		.2byte	0x4
 5919 0615 F3       		.byte	0xf3
 5920 0616 01       		.uleb128 0x1
 5921 0617 50       		.byte	0x50
 5922 0618 9F       		.byte	0x9f
 5923 0619 00000000 		.4byte	0
 5924 061d 00000000 		.4byte	0
 5925              	.LLST46:
 5926 0621 08000000 		.4byte	.LVL71
 5927 0625 37000000 		.4byte	.LVL75-1
 5928 0629 0100     		.2byte	0x1
 5929 062b 50       		.byte	0x50
 5930 062c 3A000000 		.4byte	.LVL76
 5931 0630 7C000000 		.4byte	.LFE24
 5932 0634 0100     		.2byte	0x1
 5933 0636 50       		.byte	0x50
 5934 0637 00000000 		.4byte	0
 5935 063b 00000000 		.4byte	0
 5936              	.LLST47:
 5937 063f 28000000 		.4byte	.LVL72
 5938 0643 34000000 		.4byte	.LVL74
 5939 0647 0200     		.2byte	0x2
 5940 0649 30       		.byte	0x30
 5941 064a 9F       		.byte	0x9f
 5942 064b 3A000000 		.4byte	.LVL76
 5943 064f 7C000000 		.4byte	.LFE24
 5944 0653 0200     		.2byte	0x2
 5945 0655 31       		.byte	0x31
 5946 0656 9F       		.byte	0x9f
 5947 0657 00000000 		.4byte	0
 5948 065b 00000000 		.4byte	0
 5949              	.LLST48:
 5950 065f 00000000 		.4byte	.LFB25
 5951 0663 04000000 		.4byte	.LCFI14
 5952 0667 0200     		.2byte	0x2
 5953 0669 7D       		.byte	0x7d
 5954 066a 00       		.sleb128 0
 5955 066b 04000000 		.4byte	.LCFI14
 5956 066f 30000000 		.4byte	.LFE25
 5957 0673 0200     		.2byte	0x2
 5958 0675 7D       		.byte	0x7d
 5959 0676 04       		.sleb128 4
 5960 0677 00000000 		.4byte	0
 5961 067b 00000000 		.4byte	0
 5962              	.LLST49:
 5963 067f 00000000 		.4byte	.LVL78
ARM GAS  C:\Users\Steve\AppData\Local\Temp\ccc4U1xk.s 			page 146


 5964 0683 1C000000 		.4byte	.LVL79
 5965 0687 0100     		.2byte	0x1
 5966 0689 50       		.byte	0x50
 5967 068a 1C000000 		.4byte	.LVL79
 5968 068e 30000000 		.4byte	.LFE25
 5969 0692 0400     		.2byte	0x4
 5970 0694 F3       		.byte	0xf3
 5971 0695 01       		.uleb128 0x1
 5972 0696 50       		.byte	0x50
 5973 0697 9F       		.byte	0x9f
 5974 0698 00000000 		.4byte	0
 5975 069c 00000000 		.4byte	0
 5976              	.LLST50:
 5977 06a0 00000000 		.4byte	.LVL80
 5978 06a4 08000000 		.4byte	.LVL81
 5979 06a8 0100     		.2byte	0x1
 5980 06aa 50       		.byte	0x50
 5981 06ab 08000000 		.4byte	.LVL81
 5982 06af 2C000000 		.4byte	.LFE26
 5983 06b3 0400     		.2byte	0x4
 5984 06b5 F3       		.byte	0xf3
 5985 06b6 01       		.uleb128 0x1
 5986 06b7 50       		.byte	0x50
 5987 06b8 9F       		.byte	0x9f
 5988 06b9 00000000 		.4byte	0
 5989 06bd 00000000 		.4byte	0
 5990              	.LLST51:
 5991 06c1 00000000 		.4byte	.LFB32
 5992 06c5 02000000 		.4byte	.LCFI15
 5993 06c9 0200     		.2byte	0x2
 5994 06cb 7D       		.byte	0x7d
 5995 06cc 00       		.sleb128 0
 5996 06cd 02000000 		.4byte	.LCFI15
 5997 06d1 16000000 		.4byte	.LFE32
 5998 06d5 0200     		.2byte	0x2
 5999 06d7 7D       		.byte	0x7d
 6000 06d8 04       		.sleb128 4
 6001 06d9 00000000 		.4byte	0
 6002 06dd 00000000 		.4byte	0
 6003              	.LLST52:
 6004 06e1 00000000 		.4byte	.LVL84
 6005 06e5 0C000000 		.4byte	.LVL87
 6006 06e9 0100     		.2byte	0x1
 6007 06eb 50       		.byte	0x50
 6008 06ec 0C000000 		.4byte	.LVL87
 6009 06f0 16000000 		.4byte	.LFE32
 6010 06f4 0400     		.2byte	0x4
 6011 06f6 F3       		.byte	0xf3
 6012 06f7 01       		.uleb128 0x1
 6013 06f8 50       		.byte	0x50
 6014 06f9 9F       		.byte	0x9f
 6015 06fa 00000000 		.4byte	0
 6016 06fe 00000000 		.4byte	0
 6017              	.LLST53:
 6018 0702 06000000 		.4byte	.LVL85
 6019 0706 08000000 		.4byte	.LVL86
 6020 070a 0200     		.2byte	0x2
ARM GAS  C:\Users\Steve\AppData\Local\Temp\ccc4U1xk.s 			page 147


 6021 070c 30       		.byte	0x30
 6022 070d 9F       		.byte	0x9f
 6023 070e 00000000 		.4byte	0
 6024 0712 00000000 		.4byte	0
 6025              	.LLST54:
 6026 0716 00000000 		.4byte	.LFB33
 6027 071a 02000000 		.4byte	.LCFI16
 6028 071e 0200     		.2byte	0x2
 6029 0720 7D       		.byte	0x7d
 6030 0721 00       		.sleb128 0
 6031 0722 02000000 		.4byte	.LCFI16
 6032 0726 14000000 		.4byte	.LFE33
 6033 072a 0200     		.2byte	0x2
 6034 072c 7D       		.byte	0x7d
 6035 072d 04       		.sleb128 4
 6036 072e 00000000 		.4byte	0
 6037 0732 00000000 		.4byte	0
 6038              	.LLST55:
 6039 0736 00000000 		.4byte	.LVL89
 6040 073a 0C000000 		.4byte	.LVL92
 6041 073e 0100     		.2byte	0x1
 6042 0740 50       		.byte	0x50
 6043 0741 0C000000 		.4byte	.LVL92
 6044 0745 14000000 		.4byte	.LFE33
 6045 0749 0400     		.2byte	0x4
 6046 074b F3       		.byte	0xf3
 6047 074c 01       		.uleb128 0x1
 6048 074d 50       		.byte	0x50
 6049 074e 9F       		.byte	0x9f
 6050 074f 00000000 		.4byte	0
 6051 0753 00000000 		.4byte	0
 6052              	.LLST56:
 6053 0757 06000000 		.4byte	.LVL90
 6054 075b 08000000 		.4byte	.LVL91
 6055 075f 0200     		.2byte	0x2
 6056 0761 30       		.byte	0x30
 6057 0762 9F       		.byte	0x9f
 6058 0763 00000000 		.4byte	0
 6059 0767 00000000 		.4byte	0
 6060              	.LLST57:
 6061 076b 00000000 		.4byte	.LFB34
 6062 076f 02000000 		.4byte	.LCFI17
 6063 0773 0200     		.2byte	0x2
 6064 0775 7D       		.byte	0x7d
 6065 0776 00       		.sleb128 0
 6066 0777 02000000 		.4byte	.LCFI17
 6067 077b 18000000 		.4byte	.LFE34
 6068 077f 0200     		.2byte	0x2
 6069 0781 7D       		.byte	0x7d
 6070 0782 04       		.sleb128 4
 6071 0783 00000000 		.4byte	0
 6072 0787 00000000 		.4byte	0
 6073              	.LLST58:
 6074 078b 00000000 		.4byte	.LVL93
 6075 078f 0C000000 		.4byte	.LVL96
 6076 0793 0100     		.2byte	0x1
 6077 0795 50       		.byte	0x50
ARM GAS  C:\Users\Steve\AppData\Local\Temp\ccc4U1xk.s 			page 148


 6078 0796 0C000000 		.4byte	.LVL96
 6079 079a 18000000 		.4byte	.LFE34
 6080 079e 0400     		.2byte	0x4
 6081 07a0 F3       		.byte	0xf3
 6082 07a1 01       		.uleb128 0x1
 6083 07a2 50       		.byte	0x50
 6084 07a3 9F       		.byte	0x9f
 6085 07a4 00000000 		.4byte	0
 6086 07a8 00000000 		.4byte	0
 6087              	.LLST59:
 6088 07ac 06000000 		.4byte	.LVL94
 6089 07b0 08000000 		.4byte	.LVL95
 6090 07b4 0200     		.2byte	0x2
 6091 07b6 30       		.byte	0x30
 6092 07b7 9F       		.byte	0x9f
 6093 07b8 00000000 		.4byte	0
 6094 07bc 00000000 		.4byte	0
 6095              	.LLST60:
 6096 07c0 00000000 		.4byte	.LFB35
 6097 07c4 02000000 		.4byte	.LCFI18
 6098 07c8 0200     		.2byte	0x2
 6099 07ca 7D       		.byte	0x7d
 6100 07cb 00       		.sleb128 0
 6101 07cc 02000000 		.4byte	.LCFI18
 6102 07d0 18000000 		.4byte	.LFE35
 6103 07d4 0200     		.2byte	0x2
 6104 07d6 7D       		.byte	0x7d
 6105 07d7 04       		.sleb128 4
 6106 07d8 00000000 		.4byte	0
 6107 07dc 00000000 		.4byte	0
 6108              	.LLST61:
 6109 07e0 00000000 		.4byte	.LVL98
 6110 07e4 0C000000 		.4byte	.LVL101
 6111 07e8 0100     		.2byte	0x1
 6112 07ea 50       		.byte	0x50
 6113 07eb 0C000000 		.4byte	.LVL101
 6114 07ef 18000000 		.4byte	.LFE35
 6115 07f3 0400     		.2byte	0x4
 6116 07f5 F3       		.byte	0xf3
 6117 07f6 01       		.uleb128 0x1
 6118 07f7 50       		.byte	0x50
 6119 07f8 9F       		.byte	0x9f
 6120 07f9 00000000 		.4byte	0
 6121 07fd 00000000 		.4byte	0
 6122              	.LLST62:
 6123 0801 06000000 		.4byte	.LVL99
 6124 0805 08000000 		.4byte	.LVL100
 6125 0809 0200     		.2byte	0x2
 6126 080b 30       		.byte	0x30
 6127 080c 9F       		.byte	0x9f
 6128 080d 00000000 		.4byte	0
 6129 0811 00000000 		.4byte	0
 6130              	.LLST63:
 6131 0815 00000000 		.4byte	.LFB36
 6132 0819 02000000 		.4byte	.LCFI19
 6133 081d 0200     		.2byte	0x2
 6134 081f 7D       		.byte	0x7d
ARM GAS  C:\Users\Steve\AppData\Local\Temp\ccc4U1xk.s 			page 149


 6135 0820 00       		.sleb128 0
 6136 0821 02000000 		.4byte	.LCFI19
 6137 0825 40000000 		.4byte	.LFE36
 6138 0829 0200     		.2byte	0x2
 6139 082b 7D       		.byte	0x7d
 6140 082c 10       		.sleb128 16
 6141 082d 00000000 		.4byte	0
 6142 0831 00000000 		.4byte	0
 6143              	.LLST64:
 6144 0835 00000000 		.4byte	.LVL102
 6145 0839 15000000 		.4byte	.LVL107-1
 6146 083d 0100     		.2byte	0x1
 6147 083f 50       		.byte	0x50
 6148 0840 15000000 		.4byte	.LVL107-1
 6149 0844 40000000 		.4byte	.LFE36
 6150 0848 0400     		.2byte	0x4
 6151 084a F3       		.byte	0xf3
 6152 084b 01       		.uleb128 0x1
 6153 084c 50       		.byte	0x50
 6154 084d 9F       		.byte	0x9f
 6155 084e 00000000 		.4byte	0
 6156 0852 00000000 		.4byte	0
 6157              	.LLST65:
 6158 0856 00000000 		.4byte	.LVL102
 6159 085a 15000000 		.4byte	.LVL107-1
 6160 085e 0100     		.2byte	0x1
 6161 0860 51       		.byte	0x51
 6162 0861 15000000 		.4byte	.LVL107-1
 6163 0865 40000000 		.4byte	.LFE36
 6164 0869 0400     		.2byte	0x4
 6165 086b F3       		.byte	0xf3
 6166 086c 01       		.uleb128 0x1
 6167 086d 51       		.byte	0x51
 6168 086e 9F       		.byte	0x9f
 6169 086f 00000000 		.4byte	0
 6170 0873 00000000 		.4byte	0
 6171              	.LLST66:
 6172 0877 16000000 		.4byte	.LVL107
 6173 087b 37000000 		.4byte	.LVL112-1
 6174 087f 0100     		.2byte	0x1
 6175 0881 50       		.byte	0x50
 6176 0882 00000000 		.4byte	0
 6177 0886 00000000 		.4byte	0
 6178              	.LLST67:
 6179 088a 12000000 		.4byte	.LVL106
 6180 088e 15000000 		.4byte	.LVL107-1
 6181 0892 0C00     		.2byte	0xc
 6182 0894 70       		.byte	0x70
 6183 0895 00       		.sleb128 0
 6184 0896 33       		.byte	0x33
 6185 0897 1A       		.byte	0x1a
 6186 0898 08       		.byte	0x8
 6187 0899 FF       		.byte	0xff
 6188 089a 1A       		.byte	0x1a
 6189 089b 33       		.byte	0x33
 6190 089c 24       		.byte	0x24
 6191 089d 23       		.byte	0x23
ARM GAS  C:\Users\Steve\AppData\Local\Temp\ccc4U1xk.s 			page 150


 6192 089e 06       		.uleb128 0x6
 6193 089f 9F       		.byte	0x9f
 6194 08a0 15000000 		.4byte	.LVL107-1
 6195 08a4 22000000 		.4byte	.LVL108
 6196 08a8 0C00     		.2byte	0xc
 6197 08aa 74       		.byte	0x74
 6198 08ab 00       		.sleb128 0
 6199 08ac 33       		.byte	0x33
 6200 08ad 1A       		.byte	0x1a
 6201 08ae 08       		.byte	0x8
 6202 08af FF       		.byte	0xff
 6203 08b0 1A       		.byte	0x1a
 6204 08b1 33       		.byte	0x33
 6205 08b2 24       		.byte	0x24
 6206 08b3 23       		.byte	0x23
 6207 08b4 06       		.uleb128 0x6
 6208 08b5 9F       		.byte	0x9f
 6209 08b6 00000000 		.4byte	0
 6210 08ba 00000000 		.4byte	0
 6211              	.LLST68:
 6212 08be 26000000 		.4byte	.LVL109
 6213 08c2 32000000 		.4byte	.LVL111
 6214 08c6 0100     		.2byte	0x1
 6215 08c8 51       		.byte	0x51
 6216 08c9 32000000 		.4byte	.LVL111
 6217 08cd 37000000 		.4byte	.LVL112-1
 6218 08d1 0100     		.2byte	0x1
 6219 08d3 52       		.byte	0x52
 6220 08d4 00000000 		.4byte	0
 6221 08d8 00000000 		.4byte	0
 6222              	.LLST69:
 6223 08dc 0A000000 		.4byte	.LVL103
 6224 08e0 0C000000 		.4byte	.LVL104
 6225 08e4 0200     		.2byte	0x2
 6226 08e6 30       		.byte	0x30
 6227 08e7 9F       		.byte	0x9f
 6228 08e8 00000000 		.4byte	0
 6229 08ec 00000000 		.4byte	0
 6230              	.LLST70:
 6231 08f0 10000000 		.4byte	.LVL105
 6232 08f4 12000000 		.4byte	.LVL106
 6233 08f8 0200     		.2byte	0x2
 6234 08fa 30       		.byte	0x30
 6235 08fb 9F       		.byte	0x9f
 6236 08fc 00000000 		.4byte	0
 6237 0900 00000000 		.4byte	0
 6238              	.LLST71:
 6239 0904 00000000 		.4byte	.LFB37
 6240 0908 02000000 		.4byte	.LCFI20
 6241 090c 0200     		.2byte	0x2
 6242 090e 7D       		.byte	0x7d
 6243 090f 00       		.sleb128 0
 6244 0910 02000000 		.4byte	.LCFI20
 6245 0914 28000000 		.4byte	.LFE37
 6246 0918 0200     		.2byte	0x2
 6247 091a 7D       		.byte	0x7d
 6248 091b 04       		.sleb128 4
ARM GAS  C:\Users\Steve\AppData\Local\Temp\ccc4U1xk.s 			page 151


 6249 091c 00000000 		.4byte	0
 6250 0920 00000000 		.4byte	0
 6251              	.LLST72:
 6252 0924 00000000 		.4byte	.LVL113
 6253 0928 14000000 		.4byte	.LVL116
 6254 092c 0100     		.2byte	0x1
 6255 092e 50       		.byte	0x50
 6256 092f 14000000 		.4byte	.LVL116
 6257 0933 28000000 		.4byte	.LFE37
 6258 0937 0400     		.2byte	0x4
 6259 0939 F3       		.byte	0xf3
 6260 093a 01       		.uleb128 0x1
 6261 093b 50       		.byte	0x50
 6262 093c 9F       		.byte	0x9f
 6263 093d 00000000 		.4byte	0
 6264 0941 00000000 		.4byte	0
 6265              	.LLST73:
 6266 0945 06000000 		.4byte	.LVL114
 6267 0949 08000000 		.4byte	.LVL115
 6268 094d 0200     		.2byte	0x2
 6269 094f 30       		.byte	0x30
 6270 0950 9F       		.byte	0x9f
 6271 0951 00000000 		.4byte	0
 6272 0955 00000000 		.4byte	0
 6273              	.LLST74:
 6274 0959 00000000 		.4byte	.LVL117
 6275 095d 04000000 		.4byte	.LVL118
 6276 0961 0100     		.2byte	0x1
 6277 0963 50       		.byte	0x50
 6278 0964 04000000 		.4byte	.LVL118
 6279 0968 14000000 		.4byte	.LFE38
 6280 096c 0400     		.2byte	0x4
 6281 096e F3       		.byte	0xf3
 6282 096f 01       		.uleb128 0x1
 6283 0970 50       		.byte	0x50
 6284 0971 9F       		.byte	0x9f
 6285 0972 00000000 		.4byte	0
 6286 0976 00000000 		.4byte	0
 6287              	.LLST75:
 6288 097a 00000000 		.4byte	.LVL119
 6289 097e 08000000 		.4byte	.LVL120
 6290 0982 0100     		.2byte	0x1
 6291 0984 50       		.byte	0x50
 6292 0985 08000000 		.4byte	.LVL120
 6293 0989 18000000 		.4byte	.LFE39
 6294 098d 0400     		.2byte	0x4
 6295 098f F3       		.byte	0xf3
 6296 0990 01       		.uleb128 0x1
 6297 0991 50       		.byte	0x50
 6298 0992 9F       		.byte	0x9f
 6299 0993 00000000 		.4byte	0
 6300 0997 00000000 		.4byte	0
 6301              	.LLST76:
 6302 099b 00000000 		.4byte	.LVL121
 6303 099f 04000000 		.4byte	.LVL122
 6304 09a3 0100     		.2byte	0x1
 6305 09a5 50       		.byte	0x50
ARM GAS  C:\Users\Steve\AppData\Local\Temp\ccc4U1xk.s 			page 152


 6306 09a6 04000000 		.4byte	.LVL122
 6307 09aa 14000000 		.4byte	.LFE40
 6308 09ae 0400     		.2byte	0x4
 6309 09b0 F3       		.byte	0xf3
 6310 09b1 01       		.uleb128 0x1
 6311 09b2 50       		.byte	0x50
 6312 09b3 9F       		.byte	0x9f
 6313 09b4 00000000 		.4byte	0
 6314 09b8 00000000 		.4byte	0
 6315              	.LLST77:
 6316 09bc 00000000 		.4byte	.LVL123
 6317 09c0 04000000 		.4byte	.LVL124
 6318 09c4 0100     		.2byte	0x1
 6319 09c6 50       		.byte	0x50
 6320 09c7 04000000 		.4byte	.LVL124
 6321 09cb 14000000 		.4byte	.LFE41
 6322 09cf 0400     		.2byte	0x4
 6323 09d1 F3       		.byte	0xf3
 6324 09d2 01       		.uleb128 0x1
 6325 09d3 50       		.byte	0x50
 6326 09d4 9F       		.byte	0x9f
 6327 09d5 00000000 		.4byte	0
 6328 09d9 00000000 		.4byte	0
 6329              	.LLST78:
 6330 09dd 00000000 		.4byte	.LVL125
 6331 09e1 04000000 		.4byte	.LVL126
 6332 09e5 0100     		.2byte	0x1
 6333 09e7 50       		.byte	0x50
 6334 09e8 04000000 		.4byte	.LVL126
 6335 09ec 14000000 		.4byte	.LFE42
 6336 09f0 0400     		.2byte	0x4
 6337 09f2 F3       		.byte	0xf3
 6338 09f3 01       		.uleb128 0x1
 6339 09f4 50       		.byte	0x50
 6340 09f5 9F       		.byte	0x9f
 6341 09f6 00000000 		.4byte	0
 6342 09fa 00000000 		.4byte	0
 6343              	.LLST79:
 6344 09fe 00000000 		.4byte	.LFB45
 6345 0a02 02000000 		.4byte	.LCFI21
 6346 0a06 0200     		.2byte	0x2
 6347 0a08 7D       		.byte	0x7d
 6348 0a09 00       		.sleb128 0
 6349 0a0a 02000000 		.4byte	.LCFI21
 6350 0a0e 06000000 		.4byte	.LCFI22
 6351 0a12 0200     		.2byte	0x2
 6352 0a14 7D       		.byte	0x7d
 6353 0a15 14       		.sleb128 20
 6354 0a16 06000000 		.4byte	.LCFI22
 6355 0a1a 80000000 		.4byte	.LFE45
 6356 0a1e 0200     		.2byte	0x2
 6357 0a20 7D       		.byte	0x7d
 6358 0a21 18       		.sleb128 24
 6359 0a22 00000000 		.4byte	0
 6360 0a26 00000000 		.4byte	0
 6361              	.LLST80:
 6362 0a2a 00000000 		.4byte	.LVL128
ARM GAS  C:\Users\Steve\AppData\Local\Temp\ccc4U1xk.s 			page 153


 6363 0a2e 1A000000 		.4byte	.LVL129
 6364 0a32 0100     		.2byte	0x1
 6365 0a34 50       		.byte	0x50
 6366 0a35 1A000000 		.4byte	.LVL129
 6367 0a39 3A000000 		.4byte	.LVL132
 6368 0a3d 0100     		.2byte	0x1
 6369 0a3f 56       		.byte	0x56
 6370 0a40 00000000 		.4byte	0
 6371 0a44 00000000 		.4byte	0
 6372              	.LLST81:
 6373 0a48 00000000 		.4byte	.LFB46
 6374 0a4c 02000000 		.4byte	.LCFI23
 6375 0a50 0200     		.2byte	0x2
 6376 0a52 7D       		.byte	0x7d
 6377 0a53 00       		.sleb128 0
 6378 0a54 02000000 		.4byte	.LCFI23
 6379 0a58 14000000 		.4byte	.LFE46
 6380 0a5c 0200     		.2byte	0x2
 6381 0a5e 7D       		.byte	0x7d
 6382 0a5f 08       		.sleb128 8
 6383 0a60 00000000 		.4byte	0
 6384 0a64 00000000 		.4byte	0
 6385              	.LLST82:
 6386 0a68 00000000 		.4byte	.LVL136
 6387 0a6c 08000000 		.4byte	.LVL137
 6388 0a70 0100     		.2byte	0x1
 6389 0a72 50       		.byte	0x50
 6390 0a73 08000000 		.4byte	.LVL137
 6391 0a77 14000000 		.4byte	.LFE46
 6392 0a7b 0400     		.2byte	0x4
 6393 0a7d F3       		.byte	0xf3
 6394 0a7e 01       		.uleb128 0x1
 6395 0a7f 50       		.byte	0x50
 6396 0a80 9F       		.byte	0x9f
 6397 0a81 00000000 		.4byte	0
 6398 0a85 00000000 		.4byte	0
 6399              	.LLST83:
 6400 0a89 00000000 		.4byte	.LFB18
 6401 0a8d 02000000 		.4byte	.LCFI24
 6402 0a91 0200     		.2byte	0x2
 6403 0a93 7D       		.byte	0x7d
 6404 0a94 00       		.sleb128 0
 6405 0a95 02000000 		.4byte	.LCFI24
 6406 0a99 48000000 		.4byte	.LFE18
 6407 0a9d 0200     		.2byte	0x2
 6408 0a9f 7D       		.byte	0x7d
 6409 0aa0 10       		.sleb128 16
 6410 0aa1 00000000 		.4byte	0
 6411 0aa5 00000000 		.4byte	0
 6412              	.LLST84:
 6413 0aa9 00000000 		.4byte	.LVL139
 6414 0aad 18000000 		.4byte	.LVL143
 6415 0ab1 0100     		.2byte	0x1
 6416 0ab3 50       		.byte	0x50
 6417 0ab4 18000000 		.4byte	.LVL143
 6418 0ab8 2C000000 		.4byte	.LVL146
 6419 0abc 0100     		.2byte	0x1
ARM GAS  C:\Users\Steve\AppData\Local\Temp\ccc4U1xk.s 			page 154


 6420 0abe 54       		.byte	0x54
 6421 0abf 2C000000 		.4byte	.LVL146
 6422 0ac3 48000000 		.4byte	.LFE18
 6423 0ac7 0400     		.2byte	0x4
 6424 0ac9 F3       		.byte	0xf3
 6425 0aca 01       		.uleb128 0x1
 6426 0acb 50       		.byte	0x50
 6427 0acc 9F       		.byte	0x9f
 6428 0acd 00000000 		.4byte	0
 6429 0ad1 00000000 		.4byte	0
 6430              	.LLST85:
 6431 0ad5 00000000 		.4byte	.LVL139
 6432 0ad9 16000000 		.4byte	.LVL142
 6433 0add 0100     		.2byte	0x1
 6434 0adf 51       		.byte	0x51
 6435 0ae0 16000000 		.4byte	.LVL142
 6436 0ae4 32000000 		.4byte	.LVL148
 6437 0ae8 0100     		.2byte	0x1
 6438 0aea 55       		.byte	0x55
 6439 0aeb 32000000 		.4byte	.LVL148
 6440 0aef 48000000 		.4byte	.LFE18
 6441 0af3 0400     		.2byte	0x4
 6442 0af5 F3       		.byte	0xf3
 6443 0af6 01       		.uleb128 0x1
 6444 0af7 51       		.byte	0x51
 6445 0af8 9F       		.byte	0x9f
 6446 0af9 00000000 		.4byte	0
 6447 0afd 00000000 		.4byte	0
 6448              	.LLST86:
 6449 0b01 2A000000 		.4byte	.LVL145
 6450 0b05 2C000000 		.4byte	.LVL146
 6451 0b09 0100     		.2byte	0x1
 6452 0b0b 50       		.byte	0x50
 6453 0b0c 2C000000 		.4byte	.LVL146
 6454 0b10 30000000 		.4byte	.LVL147
 6455 0b14 0B00     		.2byte	0xb
 6456 0b16 0A       		.byte	0xa
 6457 0b17 FFFF     		.2byte	0xffff
 6458 0b19 74       		.byte	0x74
 6459 0b1a 00       		.sleb128 0
 6460 0b1b 24       		.byte	0x24
 6461 0b1c 20       		.byte	0x20
 6462 0b1d 70       		.byte	0x70
 6463 0b1e 00       		.sleb128 0
 6464 0b1f 1A       		.byte	0x1a
 6465 0b20 9F       		.byte	0x9f
 6466 0b21 30000000 		.4byte	.LVL147
 6467 0b25 48000000 		.4byte	.LFE18
 6468 0b29 0100     		.2byte	0x1
 6469 0b2b 50       		.byte	0x50
 6470 0b2c 00000000 		.4byte	0
 6471 0b30 00000000 		.4byte	0
 6472              	.LLST87:
 6473 0b34 0A000000 		.4byte	.LVL140
 6474 0b38 0C000000 		.4byte	.LVL141
 6475 0b3c 0200     		.2byte	0x2
 6476 0b3e 30       		.byte	0x30
ARM GAS  C:\Users\Steve\AppData\Local\Temp\ccc4U1xk.s 			page 155


 6477 0b3f 9F       		.byte	0x9f
 6478 0b40 00000000 		.4byte	0
 6479 0b44 00000000 		.4byte	0
 6480              	.LLST88:
 6481 0b48 00000000 		.4byte	.LFB6
 6482 0b4c 02000000 		.4byte	.LCFI25
 6483 0b50 0200     		.2byte	0x2
 6484 0b52 7D       		.byte	0x7d
 6485 0b53 00       		.sleb128 0
 6486 0b54 02000000 		.4byte	.LCFI25
 6487 0b58 08000000 		.4byte	.LCFI26
 6488 0b5c 0200     		.2byte	0x2
 6489 0b5e 7D       		.byte	0x7d
 6490 0b5f 18       		.sleb128 24
 6491 0b60 08000000 		.4byte	.LCFI26
 6492 0b64 64010000 		.4byte	.LFE6
 6493 0b68 0200     		.2byte	0x2
 6494 0b6a 7D       		.byte	0x7d
 6495 0b6b 20       		.sleb128 32
 6496 0b6c 00000000 		.4byte	0
 6497 0b70 00000000 		.4byte	0
 6498              	.LLST89:
 6499 0b74 00000000 		.4byte	.LVL149
 6500 0b78 12000000 		.4byte	.LVL151
 6501 0b7c 0100     		.2byte	0x1
 6502 0b7e 50       		.byte	0x50
 6503 0b7f 12000000 		.4byte	.LVL151
 6504 0b83 1A000000 		.4byte	.LVL152
 6505 0b87 0400     		.2byte	0x4
 6506 0b89 F3       		.byte	0xf3
 6507 0b8a 01       		.uleb128 0x1
 6508 0b8b 50       		.byte	0x50
 6509 0b8c 9F       		.byte	0x9f
 6510 0b8d 1A000000 		.4byte	.LVL152
 6511 0b91 1D000000 		.4byte	.LVL153-1
 6512 0b95 0100     		.2byte	0x1
 6513 0b97 50       		.byte	0x50
 6514 0b98 1D000000 		.4byte	.LVL153-1
 6515 0b9c 74000000 		.4byte	.LVL162
 6516 0ba0 0100     		.2byte	0x1
 6517 0ba2 56       		.byte	0x56
 6518 0ba3 74000000 		.4byte	.LVL162
 6519 0ba7 88000000 		.4byte	.LVL163
 6520 0bab 0700     		.2byte	0x7
 6521 0bad 76       		.byte	0x76
 6522 0bae B39C8080 		.sleb128 -268431821
 6522      7F
 6523 0bb3 9F       		.byte	0x9f
 6524 0bb4 88000000 		.4byte	.LVL163
 6525 0bb8 90000000 		.4byte	.LVL165
 6526 0bbc 0400     		.2byte	0x4
 6527 0bbe F3       		.byte	0xf3
 6528 0bbf 01       		.uleb128 0x1
 6529 0bc0 50       		.byte	0x50
 6530 0bc1 9F       		.byte	0x9f
 6531 0bc2 90000000 		.4byte	.LVL165
 6532 0bc6 AE000000 		.4byte	.LVL169
ARM GAS  C:\Users\Steve\AppData\Local\Temp\ccc4U1xk.s 			page 156


 6533 0bca 0100     		.2byte	0x1
 6534 0bcc 56       		.byte	0x56
 6535 0bcd AE000000 		.4byte	.LVL169
 6536 0bd1 B4000000 		.4byte	.LVL170
 6537 0bd5 0700     		.2byte	0x7
 6538 0bd7 76       		.byte	0x76
 6539 0bd8 B39C8080 		.sleb128 -268431821
 6539      7F
 6540 0bdd 9F       		.byte	0x9f
 6541 0bde B4000000 		.4byte	.LVL170
 6542 0be2 D0000000 		.4byte	.LVL174
 6543 0be6 0300     		.2byte	0x3
 6544 0be8 77       		.byte	0x77
 6545 0be9 03       		.sleb128 3
 6546 0bea 9F       		.byte	0x9f
 6547 0beb D0000000 		.4byte	.LVL174
 6548 0bef 64010000 		.4byte	.LFE6
 6549 0bf3 0100     		.2byte	0x1
 6550 0bf5 56       		.byte	0x56
 6551 0bf6 00000000 		.4byte	0
 6552 0bfa 00000000 		.4byte	0
 6553              	.LLST90:
 6554 0bfe 5A000000 		.4byte	.LVL160
 6555 0c02 90000000 		.4byte	.LVL165
 6556 0c06 0100     		.2byte	0x1
 6557 0c08 59       		.byte	0x59
 6558 0c09 A0000000 		.4byte	.LVL166
 6559 0c0d A2000000 		.4byte	.LVL167
 6560 0c11 0100     		.2byte	0x1
 6561 0c13 55       		.byte	0x55
 6562 0c14 A2000000 		.4byte	.LVL167
 6563 0c18 D0000000 		.4byte	.LVL174
 6564 0c1c 0100     		.2byte	0x1
 6565 0c1e 59       		.byte	0x59
 6566 0c1f EE000000 		.4byte	.LVL177
 6567 0c23 F0000000 		.4byte	.LVL178
 6568 0c27 0100     		.2byte	0x1
 6569 0c29 52       		.byte	0x52
 6570 0c2a FA000000 		.4byte	.LVL179
 6571 0c2e FC000000 		.4byte	.LVL180
 6572 0c32 0100     		.2byte	0x1
 6573 0c34 51       		.byte	0x51
 6574 0c35 FC000000 		.4byte	.LVL180
 6575 0c39 0A010000 		.4byte	.LVL183
 6576 0c3d 0100     		.2byte	0x1
 6577 0c3f 59       		.byte	0x59
 6578 0c40 14010000 		.4byte	.LVL184
 6579 0c44 64010000 		.4byte	.LFE6
 6580 0c48 0100     		.2byte	0x1
 6581 0c4a 52       		.byte	0x52
 6582 0c4b 00000000 		.4byte	0
 6583 0c4f 00000000 		.4byte	0
 6584              	.LLST91:
 6585 0c53 5A000000 		.4byte	.LVL160
 6586 0c57 88000000 		.4byte	.LVL163
 6587 0c5b 0100     		.2byte	0x1
 6588 0c5d 55       		.byte	0x55
ARM GAS  C:\Users\Steve\AppData\Local\Temp\ccc4U1xk.s 			page 157


 6589 0c5e A2000000 		.4byte	.LVL167
 6590 0c62 C4000000 		.4byte	.LVL172
 6591 0c66 0100     		.2byte	0x1
 6592 0c68 55       		.byte	0x55
 6593 0c69 EE000000 		.4byte	.LVL177
 6594 0c6d F0000000 		.4byte	.LVL178
 6595 0c71 0100     		.2byte	0x1
 6596 0c73 55       		.byte	0x55
 6597 0c74 FA000000 		.4byte	.LVL179
 6598 0c78 0A010000 		.4byte	.LVL183
 6599 0c7c 0100     		.2byte	0x1
 6600 0c7e 55       		.byte	0x55
 6601 0c7f 14010000 		.4byte	.LVL184
 6602 0c83 64010000 		.4byte	.LFE6
 6603 0c87 0100     		.2byte	0x1
 6604 0c89 55       		.byte	0x55
 6605 0c8a 00000000 		.4byte	0
 6606 0c8e 00000000 		.4byte	0
 6607              	.LLST92:
 6608 0c92 00000000 		.4byte	.LVL149
 6609 0c96 12000000 		.4byte	.LVL151
 6610 0c9a 0300     		.2byte	0x3
 6611 0c9c 08       		.byte	0x8
 6612 0c9d 30       		.byte	0x30
 6613 0c9e 9F       		.byte	0x9f
 6614 0c9f 1A000000 		.4byte	.LVL152
 6615 0ca3 48000000 		.4byte	.LVL159
 6616 0ca7 0300     		.2byte	0x3
 6617 0ca9 08       		.byte	0x8
 6618 0caa 30       		.byte	0x30
 6619 0cab 9F       		.byte	0x9f
 6620 0cac 48000000 		.4byte	.LVL159
 6621 0cb0 6D000000 		.4byte	.LVL161-1
 6622 0cb4 0100     		.2byte	0x1
 6623 0cb6 53       		.byte	0x53
 6624 0cb7 90000000 		.4byte	.LVL165
 6625 0cbb A8000000 		.4byte	.LVL168
 6626 0cbf 0100     		.2byte	0x1
 6627 0cc1 53       		.byte	0x53
 6628 0cc2 D0000000 		.4byte	.LVL174
 6629 0cc6 D4000000 		.4byte	.LVL176
 6630 0cca 0300     		.2byte	0x3
 6631 0ccc 08       		.byte	0x8
 6632 0ccd 30       		.byte	0x30
 6633 0cce 9F       		.byte	0x9f
 6634 0ccf D4000000 		.4byte	.LVL176
 6635 0cd3 FE000000 		.4byte	.LVL181
 6636 0cd7 0100     		.2byte	0x1
 6637 0cd9 53       		.byte	0x53
 6638 0cda 08010000 		.4byte	.LVL182
 6639 0cde 0A010000 		.4byte	.LVL183
 6640 0ce2 0200     		.2byte	0x2
 6641 0ce4 48       		.byte	0x48
 6642 0ce5 9F       		.byte	0x9f
 6643 0ce6 0A010000 		.4byte	.LVL183
 6644 0cea 64010000 		.4byte	.LFE6
 6645 0cee 0100     		.2byte	0x1
ARM GAS  C:\Users\Steve\AppData\Local\Temp\ccc4U1xk.s 			page 158


 6646 0cf0 53       		.byte	0x53
 6647 0cf1 00000000 		.4byte	0
 6648 0cf5 00000000 		.4byte	0
 6649              	.LLST93:
 6650 0cf9 22000000 		.4byte	.LVL154
 6651 0cfd 2A000000 		.4byte	.LVL155
 6652 0d01 0100     		.2byte	0x1
 6653 0d03 50       		.byte	0x50
 6654 0d04 2A000000 		.4byte	.LVL155
 6655 0d08 64010000 		.4byte	.LFE6
 6656 0d0c 0100     		.2byte	0x1
 6657 0d0e 58       		.byte	0x58
 6658 0d0f 00000000 		.4byte	0
 6659 0d13 00000000 		.4byte	0
 6660              	.LLST94:
 6661 0d17 22000000 		.4byte	.LVL154
 6662 0d1b 2A000000 		.4byte	.LVL155
 6663 0d1f 0200     		.2byte	0x2
 6664 0d21 30       		.byte	0x30
 6665 0d22 9F       		.byte	0x9f
 6666 0d23 2C000000 		.4byte	.LVL156
 6667 0d27 3C000000 		.4byte	.LVL158
 6668 0d2b 0100     		.2byte	0x1
 6669 0d2d 53       		.byte	0x53
 6670 0d2e D0000000 		.4byte	.LVL174
 6671 0d32 D2000000 		.4byte	.LVL175
 6672 0d36 0100     		.2byte	0x1
 6673 0d38 53       		.byte	0x53
 6674 0d39 00000000 		.4byte	0
 6675 0d3d 00000000 		.4byte	0
 6676              	.LLST95:
 6677 0d41 10000000 		.4byte	.LVL150
 6678 0d45 12000000 		.4byte	.LVL151
 6679 0d49 0200     		.2byte	0x2
 6680 0d4b 30       		.byte	0x30
 6681 0d4c 9F       		.byte	0x9f
 6682 0d4d 00000000 		.4byte	0
 6683 0d51 00000000 		.4byte	0
 6684              	.LLST96:
 6685 0d55 00000000 		.4byte	.LFB47
 6686 0d59 02000000 		.4byte	.LCFI27
 6687 0d5d 0200     		.2byte	0x2
 6688 0d5f 7D       		.byte	0x7d
 6689 0d60 00       		.sleb128 0
 6690 0d61 02000000 		.4byte	.LCFI27
 6691 0d65 54000000 		.4byte	.LFE47
 6692 0d69 0200     		.2byte	0x2
 6693 0d6b 7D       		.byte	0x7d
 6694 0d6c 10       		.sleb128 16
 6695 0d6d 00000000 		.4byte	0
 6696 0d71 00000000 		.4byte	0
 6697              	.LLST97:
 6698 0d75 00000000 		.4byte	.LVL185
 6699 0d79 0E000000 		.4byte	.LVL186
 6700 0d7d 0100     		.2byte	0x1
 6701 0d7f 50       		.byte	0x50
 6702 0d80 0E000000 		.4byte	.LVL186
ARM GAS  C:\Users\Steve\AppData\Local\Temp\ccc4U1xk.s 			page 159


 6703 0d84 12000000 		.4byte	.LVL187
 6704 0d88 0100     		.2byte	0x1
 6705 0d8a 55       		.byte	0x55
 6706 0d8b 12000000 		.4byte	.LVL187
 6707 0d8f 1A000000 		.4byte	.LVL188
 6708 0d93 0400     		.2byte	0x4
 6709 0d95 F3       		.byte	0xf3
 6710 0d96 01       		.uleb128 0x1
 6711 0d97 50       		.byte	0x50
 6712 0d98 9F       		.byte	0x9f
 6713 0d99 1A000000 		.4byte	.LVL188
 6714 0d9d 1E000000 		.4byte	.LVL189
 6715 0da1 0100     		.2byte	0x1
 6716 0da3 50       		.byte	0x50
 6717 0da4 1E000000 		.4byte	.LVL189
 6718 0da8 2E000000 		.4byte	.LVL191
 6719 0dac 0100     		.2byte	0x1
 6720 0dae 55       		.byte	0x55
 6721 0daf 2E000000 		.4byte	.LVL191
 6722 0db3 33000000 		.4byte	.LVL192-1
 6723 0db7 0400     		.2byte	0x4
 6724 0db9 70       		.byte	0x70
 6725 0dba 9978     		.sleb128 -999
 6726 0dbc 9F       		.byte	0x9f
 6727 0dbd 33000000 		.4byte	.LVL192-1
 6728 0dc1 54000000 		.4byte	.LFE47
 6729 0dc5 0400     		.2byte	0x4
 6730 0dc7 F3       		.byte	0xf3
 6731 0dc8 01       		.uleb128 0x1
 6732 0dc9 50       		.byte	0x50
 6733 0dca 9F       		.byte	0x9f
 6734 0dcb 00000000 		.4byte	0
 6735 0dcf 00000000 		.4byte	0
 6736              		.section	.debug_aranges,"",%progbits
 6737 0000 94010000 		.4byte	0x194
 6738 0004 0200     		.2byte	0x2
 6739 0006 00000000 		.4byte	.Ldebug_info0
 6740 000a 04       		.byte	0x4
 6741 000b 00       		.byte	0
 6742 000c 0000     		.2byte	0
 6743 000e 0000     		.2byte	0
 6744 0010 00000000 		.4byte	.LFB0
 6745 0014 14000000 		.4byte	.LFE0-.LFB0
 6746 0018 00000000 		.4byte	.LFB1
 6747 001c 10000000 		.4byte	.LFE1-.LFB1
 6748 0020 00000000 		.4byte	.LFB2
 6749 0024 14000000 		.4byte	.LFE2-.LFB2
 6750 0028 00000000 		.4byte	.LFB3
 6751 002c 10000000 		.4byte	.LFE3-.LFB3
 6752 0030 00000000 		.4byte	.LFB4
 6753 0034 18000000 		.4byte	.LFE4-.LFB4
 6754 0038 00000000 		.4byte	.LFB5
 6755 003c 20000000 		.4byte	.LFE5-.LFB5
 6756 0040 00000000 		.4byte	.LFB7
 6757 0044 34000000 		.4byte	.LFE7-.LFB7
 6758 0048 00000000 		.4byte	.LFB8
 6759 004c 48000000 		.4byte	.LFE8-.LFB8
ARM GAS  C:\Users\Steve\AppData\Local\Temp\ccc4U1xk.s 			page 160


 6760 0050 00000000 		.4byte	.LFB9
 6761 0054 20000000 		.4byte	.LFE9-.LFB9
 6762 0058 00000000 		.4byte	.LFB10
 6763 005c 54000000 		.4byte	.LFE10-.LFB10
 6764 0060 00000000 		.4byte	.LFB11
 6765 0064 14000000 		.4byte	.LFE11-.LFB11
 6766 0068 00000000 		.4byte	.LFB12
 6767 006c 48000000 		.4byte	.LFE12-.LFB12
 6768 0070 00000000 		.4byte	.LFB13
 6769 0074 20000000 		.4byte	.LFE13-.LFB13
 6770 0078 00000000 		.4byte	.LFB14
 6771 007c 28000000 		.4byte	.LFE14-.LFB14
 6772 0080 00000000 		.4byte	.LFB15
 6773 0084 28000000 		.4byte	.LFE15-.LFB15
 6774 0088 00000000 		.4byte	.LFB16
 6775 008c 48000000 		.4byte	.LFE16-.LFB16
 6776 0090 00000000 		.4byte	.LFB17
 6777 0094 14000000 		.4byte	.LFE17-.LFB17
 6778 0098 00000000 		.4byte	.LFB19
 6779 009c 40000000 		.4byte	.LFE19-.LFB19
 6780 00a0 00000000 		.4byte	.LFB20
 6781 00a4 10000000 		.4byte	.LFE20-.LFB20
 6782 00a8 00000000 		.4byte	.LFB21
 6783 00ac 1C000000 		.4byte	.LFE21-.LFB21
 6784 00b0 00000000 		.4byte	.LFB22
 6785 00b4 34000000 		.4byte	.LFE22-.LFB22
 6786 00b8 00000000 		.4byte	.LFB23
 6787 00bc 14000000 		.4byte	.LFE23-.LFB23
 6788 00c0 00000000 		.4byte	.LFB24
 6789 00c4 7C000000 		.4byte	.LFE24-.LFB24
 6790 00c8 00000000 		.4byte	.LFB25
 6791 00cc 30000000 		.4byte	.LFE25-.LFB25
 6792 00d0 00000000 		.4byte	.LFB26
 6793 00d4 2C000000 		.4byte	.LFE26-.LFB26
 6794 00d8 00000000 		.4byte	.LFB27
 6795 00dc 20000000 		.4byte	.LFE27-.LFB27
 6796 00e0 00000000 		.4byte	.LFB28
 6797 00e4 10000000 		.4byte	.LFE28-.LFB28
 6798 00e8 00000000 		.4byte	.LFB29
 6799 00ec 0C000000 		.4byte	.LFE29-.LFB29
 6800 00f0 00000000 		.4byte	.LFB30
 6801 00f4 10000000 		.4byte	.LFE30-.LFB30
 6802 00f8 00000000 		.4byte	.LFB31
 6803 00fc 0C000000 		.4byte	.LFE31-.LFB31
 6804 0100 00000000 		.4byte	.LFB32
 6805 0104 16000000 		.4byte	.LFE32-.LFB32
 6806 0108 00000000 		.4byte	.LFB33
 6807 010c 14000000 		.4byte	.LFE33-.LFB33
 6808 0110 00000000 		.4byte	.LFB34
 6809 0114 18000000 		.4byte	.LFE34-.LFB34
 6810 0118 00000000 		.4byte	.LFB35
 6811 011c 18000000 		.4byte	.LFE35-.LFB35
 6812 0120 00000000 		.4byte	.LFB36
 6813 0124 40000000 		.4byte	.LFE36-.LFB36
 6814 0128 00000000 		.4byte	.LFB37
 6815 012c 28000000 		.4byte	.LFE37-.LFB37
 6816 0130 00000000 		.4byte	.LFB38
ARM GAS  C:\Users\Steve\AppData\Local\Temp\ccc4U1xk.s 			page 161


 6817 0134 14000000 		.4byte	.LFE38-.LFB38
 6818 0138 00000000 		.4byte	.LFB39
 6819 013c 18000000 		.4byte	.LFE39-.LFB39
 6820 0140 00000000 		.4byte	.LFB40
 6821 0144 14000000 		.4byte	.LFE40-.LFB40
 6822 0148 00000000 		.4byte	.LFB41
 6823 014c 14000000 		.4byte	.LFE41-.LFB41
 6824 0150 00000000 		.4byte	.LFB42
 6825 0154 14000000 		.4byte	.LFE42-.LFB42
 6826 0158 00000000 		.4byte	.LFB43
 6827 015c 04000000 		.4byte	.LFE43-.LFB43
 6828 0160 00000000 		.4byte	.LFB44
 6829 0164 18000000 		.4byte	.LFE44-.LFB44
 6830 0168 00000000 		.4byte	.LFB45
 6831 016c 80000000 		.4byte	.LFE45-.LFB45
 6832 0170 00000000 		.4byte	.LFB46
 6833 0174 14000000 		.4byte	.LFE46-.LFB46
 6834 0178 00000000 		.4byte	.LFB18
 6835 017c 48000000 		.4byte	.LFE18-.LFB18
 6836 0180 00000000 		.4byte	.LFB6
 6837 0184 64010000 		.4byte	.LFE6-.LFB6
 6838 0188 00000000 		.4byte	.LFB47
 6839 018c 54000000 		.4byte	.LFE47-.LFB47
 6840 0190 00000000 		.4byte	0
 6841 0194 00000000 		.4byte	0
 6842              		.section	.debug_ranges,"",%progbits
 6843              	.Ldebug_ranges0:
 6844 0000 00000000 		.4byte	.LBB106
 6845 0004 02000000 		.4byte	.LBE106
 6846 0008 04000000 		.4byte	.LBB110
 6847 000c 06000000 		.4byte	.LBE110
 6848 0010 0C000000 		.4byte	.LBB118
 6849 0014 10000000 		.4byte	.LBE118
 6850 0018 00000000 		.4byte	0
 6851 001c 00000000 		.4byte	0
 6852 0020 06000000 		.4byte	.LBB111
 6853 0024 08000000 		.4byte	.LBE111
 6854 0028 0A000000 		.4byte	.LBB117
 6855 002c 0C000000 		.4byte	.LBE117
 6856 0030 00000000 		.4byte	0
 6857 0034 00000000 		.4byte	0
 6858 0038 08000000 		.4byte	.LBB114
 6859 003c 0A000000 		.4byte	.LBE114
 6860 0040 10000000 		.4byte	.LBB119
 6861 0044 14000000 		.4byte	.LBE119
 6862 0048 00000000 		.4byte	0
 6863 004c 00000000 		.4byte	0
 6864 0050 00000000 		.4byte	.LBB122
 6865 0054 02000000 		.4byte	.LBE122
 6866 0058 04000000 		.4byte	.LBB125
 6867 005c 06000000 		.4byte	.LBE125
 6868 0060 00000000 		.4byte	0
 6869 0064 00000000 		.4byte	0
 6870 0068 00000000 		.4byte	.LFB0
 6871 006c 14000000 		.4byte	.LFE0
 6872 0070 00000000 		.4byte	.LFB1
 6873 0074 10000000 		.4byte	.LFE1
ARM GAS  C:\Users\Steve\AppData\Local\Temp\ccc4U1xk.s 			page 162


 6874 0078 00000000 		.4byte	.LFB2
 6875 007c 14000000 		.4byte	.LFE2
 6876 0080 00000000 		.4byte	.LFB3
 6877 0084 10000000 		.4byte	.LFE3
 6878 0088 00000000 		.4byte	.LFB4
 6879 008c 18000000 		.4byte	.LFE4
 6880 0090 00000000 		.4byte	.LFB5
 6881 0094 20000000 		.4byte	.LFE5
 6882 0098 00000000 		.4byte	.LFB7
 6883 009c 34000000 		.4byte	.LFE7
 6884 00a0 00000000 		.4byte	.LFB8
 6885 00a4 48000000 		.4byte	.LFE8
 6886 00a8 00000000 		.4byte	.LFB9
 6887 00ac 20000000 		.4byte	.LFE9
 6888 00b0 00000000 		.4byte	.LFB10
 6889 00b4 54000000 		.4byte	.LFE10
 6890 00b8 00000000 		.4byte	.LFB11
 6891 00bc 14000000 		.4byte	.LFE11
 6892 00c0 00000000 		.4byte	.LFB12
 6893 00c4 48000000 		.4byte	.LFE12
 6894 00c8 00000000 		.4byte	.LFB13
 6895 00cc 20000000 		.4byte	.LFE13
 6896 00d0 00000000 		.4byte	.LFB14
 6897 00d4 28000000 		.4byte	.LFE14
 6898 00d8 00000000 		.4byte	.LFB15
 6899 00dc 28000000 		.4byte	.LFE15
 6900 00e0 00000000 		.4byte	.LFB16
 6901 00e4 48000000 		.4byte	.LFE16
 6902 00e8 00000000 		.4byte	.LFB17
 6903 00ec 14000000 		.4byte	.LFE17
 6904 00f0 00000000 		.4byte	.LFB19
 6905 00f4 40000000 		.4byte	.LFE19
 6906 00f8 00000000 		.4byte	.LFB20
 6907 00fc 10000000 		.4byte	.LFE20
 6908 0100 00000000 		.4byte	.LFB21
 6909 0104 1C000000 		.4byte	.LFE21
 6910 0108 00000000 		.4byte	.LFB22
 6911 010c 34000000 		.4byte	.LFE22
 6912 0110 00000000 		.4byte	.LFB23
 6913 0114 14000000 		.4byte	.LFE23
 6914 0118 00000000 		.4byte	.LFB24
 6915 011c 7C000000 		.4byte	.LFE24
 6916 0120 00000000 		.4byte	.LFB25
 6917 0124 30000000 		.4byte	.LFE25
 6918 0128 00000000 		.4byte	.LFB26
 6919 012c 2C000000 		.4byte	.LFE26
 6920 0130 00000000 		.4byte	.LFB27
 6921 0134 20000000 		.4byte	.LFE27
 6922 0138 00000000 		.4byte	.LFB28
 6923 013c 10000000 		.4byte	.LFE28
 6924 0140 00000000 		.4byte	.LFB29
 6925 0144 0C000000 		.4byte	.LFE29
 6926 0148 00000000 		.4byte	.LFB30
 6927 014c 10000000 		.4byte	.LFE30
 6928 0150 00000000 		.4byte	.LFB31
 6929 0154 0C000000 		.4byte	.LFE31
 6930 0158 00000000 		.4byte	.LFB32
ARM GAS  C:\Users\Steve\AppData\Local\Temp\ccc4U1xk.s 			page 163


 6931 015c 16000000 		.4byte	.LFE32
 6932 0160 00000000 		.4byte	.LFB33
 6933 0164 14000000 		.4byte	.LFE33
 6934 0168 00000000 		.4byte	.LFB34
 6935 016c 18000000 		.4byte	.LFE34
 6936 0170 00000000 		.4byte	.LFB35
 6937 0174 18000000 		.4byte	.LFE35
 6938 0178 00000000 		.4byte	.LFB36
 6939 017c 40000000 		.4byte	.LFE36
 6940 0180 00000000 		.4byte	.LFB37
 6941 0184 28000000 		.4byte	.LFE37
 6942 0188 00000000 		.4byte	.LFB38
 6943 018c 14000000 		.4byte	.LFE38
 6944 0190 00000000 		.4byte	.LFB39
 6945 0194 18000000 		.4byte	.LFE39
 6946 0198 00000000 		.4byte	.LFB40
 6947 019c 14000000 		.4byte	.LFE40
 6948 01a0 00000000 		.4byte	.LFB41
 6949 01a4 14000000 		.4byte	.LFE41
 6950 01a8 00000000 		.4byte	.LFB42
 6951 01ac 14000000 		.4byte	.LFE42
 6952 01b0 00000000 		.4byte	.LFB43
 6953 01b4 04000000 		.4byte	.LFE43
 6954 01b8 00000000 		.4byte	.LFB44
 6955 01bc 18000000 		.4byte	.LFE44
 6956 01c0 00000000 		.4byte	.LFB45
 6957 01c4 80000000 		.4byte	.LFE45
 6958 01c8 00000000 		.4byte	.LFB46
 6959 01cc 14000000 		.4byte	.LFE46
 6960 01d0 00000000 		.4byte	.LFB18
 6961 01d4 48000000 		.4byte	.LFE18
 6962 01d8 00000000 		.4byte	.LFB6
 6963 01dc 64010000 		.4byte	.LFE6
 6964 01e0 00000000 		.4byte	.LFB47
 6965 01e4 54000000 		.4byte	.LFE47
 6966 01e8 00000000 		.4byte	0
 6967 01ec 00000000 		.4byte	0
 6968              		.section	.debug_line,"",%progbits
 6969              	.Ldebug_line0:
 6970 0000 CD050000 		.section	.debug_str,"MS",%progbits,1
 6970      02004F00 
 6970      00000201 
 6970      FB0E0D00 
 6970      01010101 
 6971              	.LASF31:
 6972 0000 43795379 		.ascii	"CySysWdtWriteMode\000"
 6972      73576474 
 6972      57726974 
 6972      654D6F64 
 6972      6500
 6973              	.LASF92:
 6974 0012 62675472 		.ascii	"bgTrim4\000"
 6974      696D3400 
 6975              	.LASF10:
 6976 001a 75696E74 		.ascii	"uint16\000"
 6976      313600
 6977              	.LASF62:
ARM GAS  C:\Users\Steve\AppData\Local\Temp\ccc4U1xk.s 			page 164


 6978 0021 696E7453 		.ascii	"intState\000"
 6978      74617465 
 6978      00
 6979              	.LASF76:
 6980 002a 76616C75 		.ascii	"value\000"
 6980      6500
 6981              	.LASF24:
 6982 0030 43795379 		.ascii	"CySysClkWriteHfclkDirect\000"
 6982      73436C6B 
 6982      57726974 
 6982      65486663 
 6982      6C6B4469 
 6983              	.LASF29:
 6984 0049 43795379 		.ascii	"CySysWdtUnlock\000"
 6984      73576474 
 6984      556E6C6F 
 6984      636B00
 6985              	.LASF68:
 6986 0058 6F6C6449 		.ascii	"oldIsr\000"
 6986      737200
 6987              	.LASF20:
 6988 005f 636F756E 		.ascii	"counterNum\000"
 6988      7465724E 
 6988      756D00
 6989              	.LASF61:
 6990 006a 43794469 		.ascii	"CyDisableInts\000"
 6990      7361626C 
 6990      65496E74 
 6990      7300
 6991              	.LASF100:
 6992 0078 63796465 		.ascii	"cydelay32kMs\000"
 6992      6C617933 
 6992      326B4D73 
 6992      00
 6993              	.LASF7:
 6994 0085 6C6F6E67 		.ascii	"long long unsigned int\000"
 6994      206C6F6E 
 6994      6720756E 
 6994      7369676E 
 6994      65642069 
 6995              	.LASF63:
 6996 009c 4379456E 		.ascii	"CyEnableInts\000"
 6996      61626C65 
 6996      496E7473 
 6996      00
 6997              	.LASF83:
 6998 00a9 4379536F 		.ascii	"CySoftwareReset\000"
 6998      66747761 
 6998      72655265 
 6998      73657400 
 6999              	.LASF79:
 7000 00b9 4379496E 		.ascii	"CyIntGetState\000"
 7000      74476574 
 7000      53746174 
 7000      6500
 7001              	.LASF6:
 7002 00c7 6C6F6E67 		.ascii	"long long int\000"
ARM GAS  C:\Users\Steve\AppData\Local\Temp\ccc4U1xk.s 			page 165


 7002      206C6F6E 
 7002      6720696E 
 7002      7400
 7003              	.LASF0:
 7004 00d5 7369676E 		.ascii	"signed char\000"
 7004      65642063 
 7004      68617200 
 7005              	.LASF36:
 7006 00e1 43795379 		.ascii	"CySysWdtReadMode\000"
 7006      73576474 
 7006      52656164 
 7006      4D6F6465 
 7006      00
 7007              	.LASF49:
 7008 00f2 43795379 		.ascii	"CySysWdtReadCount\000"
 7008      73576474 
 7008      52656164 
 7008      436F756E 
 7008      7400
 7009              	.LASF96:
 7010 0104 43794465 		.ascii	"CyDelayFreq\000"
 7010      6C617946 
 7010      72657100 
 7011              	.LASF28:
 7012 0110 43795379 		.ascii	"CySysWdtLock\000"
 7012      73576474 
 7012      4C6F636B 
 7012      00
 7013              	.LASF86:
 7014 011d 43794465 		.ascii	"CyDelayUs\000"
 7014      6C617955 
 7014      7300
 7015              	.LASF88:
 7016 0127 43795379 		.ascii	"CySysWdtWriteMatch\000"
 7016      73576474 
 7016      57726974 
 7016      654D6174 
 7016      636800
 7017              	.LASF45:
 7018 013a 62697473 		.ascii	"bits\000"
 7018      00
 7019              	.LASF4:
 7020 013f 6C6F6E67 		.ascii	"long int\000"
 7020      20696E74 
 7020      00
 7021              	.LASF80:
 7022 0148 4379496E 		.ascii	"CyIntDisable\000"
 7022      74446973 
 7022      61626C65 
 7022      00
 7023              	.LASF9:
 7024 0155 75696E74 		.ascii	"uint8\000"
 7024      3800
 7025              	.LASF98:
 7026 015b 63796465 		.ascii	"cydelayFreqKhz\000"
 7026      6C617946 
 7026      7265714B 
ARM GAS  C:\Users\Steve\AppData\Local\Temp\ccc4U1xk.s 			page 166


 7026      687A00
 7027              	.LASF35:
 7028 016a 656E6162 		.ascii	"enable\000"
 7028      6C6500
 7029              	.LASF13:
 7030 0171 646F7562 		.ascii	"double\000"
 7030      6C6500
 7031              	.LASF23:
 7032 0178 43795379 		.ascii	"CySysClkIloStop\000"
 7032      73436C6B 
 7032      496C6F53 
 7032      746F7000 
 7033              	.LASF41:
 7034 0188 43795379 		.ascii	"CySysWdtWriteCascade\000"
 7034      73576474 
 7034      57726974 
 7034      65436173 
 7034      63616465 
 7035              	.LASF75:
 7036 019d 73686966 		.ascii	"shift\000"
 7036      7400
 7037              	.LASF55:
 7038 01a3 636F756E 		.ascii	"countersMask\000"
 7038      74657273 
 7038      4D61736B 
 7038      00
 7039              	.LASF60:
 7040 01b0 43795379 		.ascii	"CySysLvdClearInterrupt\000"
 7040      734C7664 
 7040      436C6561 
 7040      72496E74 
 7040      65727275 
 7041              	.LASF11:
 7042 01c7 75696E74 		.ascii	"uint32\000"
 7042      333200
 7043              	.LASF109:
 7044 01ce 43794465 		.ascii	"CyDelayCycles\000"
 7044      6C617943 
 7044      79636C65 
 7044      7300
 7045              	.LASF66:
 7046 01dc 6E756D62 		.ascii	"number\000"
 7046      657200
 7047              	.LASF64:
 7048 01e3 6D61736B 		.ascii	"mask\000"
 7048      00
 7049              	.LASF50:
 7050 01e8 72656756 		.ascii	"regValue\000"
 7050      616C7565 
 7050      00
 7051              	.LASF56:
 7052 01f1 43795379 		.ascii	"CySysLvdEnable\000"
 7052      734C7664 
 7052      456E6162 
 7052      6C6500
 7053              	.LASF77:
 7054 0200 4379496E 		.ascii	"CyIntGetPriority\000"
ARM GAS  C:\Users\Steve\AppData\Local\Temp\ccc4U1xk.s 			page 167


 7054      74476574 
 7054      5072696F 
 7054      72697479 
 7054      00
 7055              	.LASF43:
 7056 0211 636F756E 		.ascii	"countersEnableStatus\000"
 7056      74657273 
 7056      456E6162 
 7056      6C655374 
 7056      61747573 
 7057              	.LASF38:
 7058 0226 43795379 		.ascii	"CySysWdtEnable\000"
 7058      73576474 
 7058      456E6162 
 7058      6C6500
 7059              	.LASF39:
 7060 0235 636F756E 		.ascii	"counterMask\000"
 7060      7465724D 
 7060      61736B00 
 7061              	.LASF8:
 7062 0241 756E7369 		.ascii	"unsigned int\000"
 7062      676E6564 
 7062      20696E74 
 7062      00
 7063              	.LASF5:
 7064 024e 6C6F6E67 		.ascii	"long unsigned int\000"
 7064      20756E73 
 7064      69676E65 
 7064      6420696E 
 7064      7400
 7065              	.LASF59:
 7066 0260 43795379 		.ascii	"CySysLvdGetInterruptSource\000"
 7066      734C7664 
 7066      47657449 
 7066      6E746572 
 7066      72757074 
 7067              	.LASF30:
 7068 027b 696E7465 		.ascii	"interruptState\000"
 7068      72727570 
 7068      74537461 
 7068      746500
 7069              	.LASF22:
 7070 028a 43795379 		.ascii	"CySysClkImoStop\000"
 7070      73436C6B 
 7070      496D6F53 
 7070      746F7000 
 7071              	.LASF108:
 7072 029a 4379456E 		.ascii	"CyEnterCriticalSection\000"
 7072      74657243 
 7072      72697469 
 7072      63616C53 
 7072      65637469 
 7073              	.LASF81:
 7074 02b1 4379496E 		.ascii	"CyIntSetPending\000"
 7074      74536574 
 7074      50656E64 
 7074      696E6700 
ARM GAS  C:\Users\Steve\AppData\Local\Temp\ccc4U1xk.s 			page 168


 7075              	.LASF105:
 7076 02c1 433A5C55 		.ascii	"C:\\Users\\Steve\\Documents\\Git\\GlowTime\\RGB_LED"
 7076      73657273 
 7076      5C537465 
 7076      76655C44 
 7076      6F63756D 
 7077 02ee 5F4D6174 		.ascii	"_Matrix.cydsn\000"
 7077      7269782E 
 7077      63796473 
 7077      6E00
 7078              	.LASF3:
 7079 02fc 73686F72 		.ascii	"short unsigned int\000"
 7079      7420756E 
 7079      7369676E 
 7079      65642069 
 7079      6E7400
 7080              	.LASF71:
 7081 030f 4379496E 		.ascii	"CyIntSetVector\000"
 7081      74536574 
 7081      56656374 
 7081      6F7200
 7082              	.LASF104:
 7083 031e 2E5C4765 		.ascii	".\\Generated_Source\\PSoC4\\CyLib.c\000"
 7083      6E657261 
 7083      7465645F 
 7083      536F7572 
 7083      63655C50 
 7084              	.LASF106:
 7085 033f 43795379 		.ascii	"CySysClkIloStart\000"
 7085      73436C6B 
 7085      496C6F53 
 7085      74617274 
 7085      00
 7086              	.LASF90:
 7087 0350 43795379 		.ascii	"CySysClkWriteImoFreq\000"
 7087      73436C6B 
 7087      57726974 
 7087      65496D6F 
 7087      46726571 
 7088              	.LASF65:
 7089 0365 4379496E 		.ascii	"CyIntSetSysVector\000"
 7089      74536574 
 7089      53797356 
 7089      6563746F 
 7089      7200
 7090              	.LASF16:
 7091 0377 72656733 		.ascii	"reg32\000"
 7091      3200
 7092              	.LASF34:
 7093 037d 43795379 		.ascii	"CySysWdtWriteClearOnMatch\000"
 7093      73576474 
 7093      57726974 
 7093      65436C65 
 7093      61724F6E 
 7094              	.LASF37:
 7095 0397 43795379 		.ascii	"CySysWdtReadClearOnMatch\000"
 7095      73576474 
ARM GAS  C:\Users\Steve\AppData\Local\Temp\ccc4U1xk.s 			page 169


 7095      52656164 
 7095      436C6561 
 7095      724F6E4D 
 7096              	.LASF18:
 7097 03b0 73697A65 		.ascii	"sizetype\000"
 7097      74797065 
 7097      00
 7098              	.LASF82:
 7099 03b9 4379496E 		.ascii	"CyIntClearPending\000"
 7099      74436C65 
 7099      61725065 
 7099      6E64696E 
 7099      6700
 7100              	.LASF67:
 7101 03cb 61646472 		.ascii	"address\000"
 7101      65737300 
 7102              	.LASF93:
 7103 03d3 62675472 		.ascii	"bgTrim5\000"
 7103      696D3500 
 7104              	.LASF89:
 7105 03db 6D617463 		.ascii	"match\000"
 7105      6800
 7106              	.LASF95:
 7107 03e1 6379496D 		.ascii	"cyImoFreqMhz2Reg\000"
 7107      6F467265 
 7107      714D687A 
 7107      32526567 
 7107      00
 7108              	.LASF97:
 7109 03f2 63796465 		.ascii	"cydelayFreqHz\000"
 7109      6C617946 
 7109      72657148 
 7109      7A00
 7110              	.LASF54:
 7111 0400 43795379 		.ascii	"CySysWdtResetCounters\000"
 7111      73576474 
 7111      52657365 
 7111      74436F75 
 7111      6E746572 
 7112              	.LASF73:
 7113 0416 4379496E 		.ascii	"CyIntSetPriority\000"
 7113      74536574 
 7113      5072696F 
 7113      72697479 
 7113      00
 7114              	.LASF52:
 7115 0427 43795379 		.ascii	"CySysWdtClearInterrupt\000"
 7115      73576474 
 7115      436C6561 
 7115      72496E74 
 7115      65727275 
 7116              	.LASF12:
 7117 043e 666C6F61 		.ascii	"float\000"
 7117      7400
 7118              	.LASF102:
 7119 0444 43794578 		.ascii	"CyExitCriticalSection\000"
 7119      69744372 
ARM GAS  C:\Users\Steve\AppData\Local\Temp\ccc4U1xk.s 			page 170


 7119      69746963 
 7119      616C5365 
 7119      6374696F 
 7120              	.LASF91:
 7121 045a 66726571 		.ascii	"freq\000"
 7121      00
 7122              	.LASF72:
 7123 045f 4379496E 		.ascii	"CyIntGetVector\000"
 7123      74476574 
 7123      56656374 
 7123      6F7200
 7124              	.LASF85:
 7125 046e 6D696C6C 		.ascii	"milliseconds\000"
 7125      69736563 
 7125      6F6E6473 
 7125      00
 7126              	.LASF47:
 7127 047b 43795379 		.ascii	"CySysWdtReadToggleBit\000"
 7127      73576474 
 7127      52656164 
 7127      546F6767 
 7127      6C654269 
 7128              	.LASF103:
 7129 0491 474E5520 		.ascii	"GNU C 4.7.3 20130312 (release) [ARM/embedded-4_7-br"
 7129      4320342E 
 7129      372E3320 
 7129      32303133 
 7129      30333132 
 7130 04c4 616E6368 		.ascii	"anch revision 196615]\000"
 7130      20726576 
 7130      6973696F 
 7130      6E203139 
 7130      36363135 
 7131              	.LASF15:
 7132 04da 72656738 		.ascii	"reg8\000"
 7132      00
 7133              	.LASF57:
 7134 04df 74687265 		.ascii	"threshold\000"
 7134      73686F6C 
 7134      6400
 7135              	.LASF101:
 7136 04e9 43794861 		.ascii	"CyHalt\000"
 7136      6C7400
 7137              	.LASF1:
 7138 04f0 756E7369 		.ascii	"unsigned char\000"
 7138      676E6564 
 7138      20636861 
 7138      7200
 7139              	.LASF2:
 7140 04fe 73686F72 		.ascii	"short int\000"
 7140      7420696E 
 7140      7400
 7141              	.LASF46:
 7142 0508 43795379 		.ascii	"CySysWdtReadCascade\000"
 7142      73576474 
 7142      52656164 
 7142      43617363 
ARM GAS  C:\Users\Steve\AppData\Local\Temp\ccc4U1xk.s 			page 171


 7142      61646500 
 7143              	.LASF40:
 7144 051c 43795379 		.ascii	"CySysWdtDisable\000"
 7144      73576474 
 7144      44697361 
 7144      626C6500 
 7145              	.LASF78:
 7146 052c 4379496E 		.ascii	"CyIntEnable\000"
 7146      74456E61 
 7146      626C6500 
 7147              	.LASF70:
 7148 0538 4379496E 		.ascii	"CyIntGetSysVector\000"
 7148      74476574 
 7148      53797356 
 7148      6563746F 
 7148      7200
 7149              	.LASF48:
 7150 054a 43795379 		.ascii	"CySysWdtReadMatch\000"
 7150      73576474 
 7150      52656164 
 7150      4D617463 
 7150      6800
 7151              	.LASF26:
 7152 055c 636C6B53 		.ascii	"clkSelect\000"
 7152      656C6563 
 7152      7400
 7153              	.LASF51:
 7154 0566 43795379 		.ascii	"CySysWdtGetInterruptSource\000"
 7154      73576474 
 7154      47657449 
 7154      6E746572 
 7154      72757074 
 7155              	.LASF19:
 7156 0581 72656173 		.ascii	"reason\000"
 7156      6F6E00
 7157              	.LASF69:
 7158 0588 72616D56 		.ascii	"ramVectorTable\000"
 7158      6563746F 
 7158      72546162 
 7158      6C6500
 7159              	.LASF14:
 7160 0597 63686172 		.ascii	"char\000"
 7160      00
 7161              	.LASF74:
 7162 059c 7072696F 		.ascii	"priority\000"
 7162      72697479 
 7162      00
 7163              	.LASF32:
 7164 05a5 6D6F6465 		.ascii	"mode\000"
 7164      00
 7165              	.LASF17:
 7166 05aa 63796973 		.ascii	"cyisraddress\000"
 7166      72616464 
 7166      72657373 
 7166      00
 7167              	.LASF94:
 7168 05b7 63757272 		.ascii	"currentFreq\000"
ARM GAS  C:\Users\Steve\AppData\Local\Temp\ccc4U1xk.s 			page 172


 7168      656E7446 
 7168      72657100 
 7169              	.LASF25:
 7170 05c3 43795379 		.ascii	"CySysClkWriteSysclkDiv\000"
 7170      73436C6B 
 7170      57726974 
 7170      65537973 
 7170      636C6B44 
 7171              	.LASF84:
 7172 05da 43794465 		.ascii	"CyDelay\000"
 7172      6C617900 
 7173              	.LASF58:
 7174 05e2 43795379 		.ascii	"CySysLvdDisable\000"
 7174      734C7664 
 7174      44697361 
 7174      626C6500 
 7175              	.LASF33:
 7176 05f2 636F6E66 		.ascii	"configRegValue\000"
 7176      69675265 
 7176      6756616C 
 7176      756500
 7177              	.LASF99:
 7178 0601 63796465 		.ascii	"cydelayFreqMhz\000"
 7178      6C617946 
 7178      7265714D 
 7178      687A00
 7179              	.LASF53:
 7180 0610 7764744C 		.ascii	"wdtLockState\000"
 7180      6F636B53 
 7180      74617465 
 7180      00
 7181              	.LASF42:
 7182 061d 63617363 		.ascii	"cascadeMask\000"
 7182      6164654D 
 7182      61736B00 
 7183              	.LASF27:
 7184 0629 64697669 		.ascii	"divider\000"
 7184      64657200 
 7185              	.LASF21:
 7186 0631 43795379 		.ascii	"CySysClkImoStart\000"
 7186      73436C6B 
 7186      496D6F53 
 7186      74617274 
 7186      00
 7187              	.LASF107:
 7188 0642 43795379 		.ascii	"CySysWdtReadEnabledStatus\000"
 7188      73576474 
 7188      52656164 
 7188      456E6162 
 7188      6C656453 
 7189              	.LASF87:
 7190 065c 6D696372 		.ascii	"microseconds\000"
 7190      6F736563 
 7190      6F6E6473 
 7190      00
 7191              	.LASF44:
 7192 0669 43795379 		.ascii	"CySysWdtWriteToggleBit\000"
ARM GAS  C:\Users\Steve\AppData\Local\Temp\ccc4U1xk.s 			page 173


 7192      73576474 
 7192      57726974 
 7192      65546F67 
 7192      676C6542 
 7193              		.ident	"GCC: (GNU Tools for ARM Embedded Processors) 4.7.3 20130312 (release) [ARM/embedded-4_7-br
