ARM GAS  C:\Users\Computer\AppData\Local\Temp\ccUGCCmd.s 			page 1


   1              		.cpu cortex-m0
   2              		.fpu softvfp
   3              		.eabi_attribute 20, 1
   4              		.eabi_attribute 21, 1
   5              		.eabi_attribute 23, 3
   6              		.eabi_attribute 24, 1
   7              		.eabi_attribute 25, 1
   8              		.eabi_attribute 26, 1
   9              		.eabi_attribute 30, 2
  10              		.eabi_attribute 34, 0
  11              		.eabi_attribute 18, 4
  12              		.code	16
  13              		.file	"eoc.c"
  14              		.text
  15              	.Ltext0:
  16              		.cfi_sections	.debug_frame
  17              		.section	.text.eoc_Interrupt,"ax",%progbits
  18              		.align	2
  19              		.global	eoc_Interrupt
  20              		.code	16
  21              		.thumb_func
  22              		.type	eoc_Interrupt, %function
  23              	eoc_Interrupt:
  24              	.LFB3:
  25              		.file 1 ".\\Generated_Source\\PSoC4\\eoc.c"
   1:.\Generated_Source\PSoC4/eoc.c **** /*******************************************************************************
   2:.\Generated_Source\PSoC4/eoc.c **** * File Name: eoc.c  
   3:.\Generated_Source\PSoC4/eoc.c **** * Version 1.70
   4:.\Generated_Source\PSoC4/eoc.c **** *
   5:.\Generated_Source\PSoC4/eoc.c **** *  Description:
   6:.\Generated_Source\PSoC4/eoc.c **** *   API for controlling the state of an interrupt.
   7:.\Generated_Source\PSoC4/eoc.c **** *
   8:.\Generated_Source\PSoC4/eoc.c **** *
   9:.\Generated_Source\PSoC4/eoc.c **** *  Note:
  10:.\Generated_Source\PSoC4/eoc.c **** *
  11:.\Generated_Source\PSoC4/eoc.c **** ********************************************************************************
  12:.\Generated_Source\PSoC4/eoc.c **** * Copyright 2008-2012, Cypress Semiconductor Corporation.  All rights reserved.
  13:.\Generated_Source\PSoC4/eoc.c **** * You may use this file only in accordance with the license, terms, conditions, 
  14:.\Generated_Source\PSoC4/eoc.c **** * disclaimers, and limitations in the end user license agreement accompanying 
  15:.\Generated_Source\PSoC4/eoc.c **** * the software package with which this file was provided.
  16:.\Generated_Source\PSoC4/eoc.c **** *******************************************************************************/
  17:.\Generated_Source\PSoC4/eoc.c **** 
  18:.\Generated_Source\PSoC4/eoc.c **** 
  19:.\Generated_Source\PSoC4/eoc.c **** #include <cydevice_trm.h>
  20:.\Generated_Source\PSoC4/eoc.c **** #include <CyLib.h>
  21:.\Generated_Source\PSoC4/eoc.c **** #include <eoc.h>
  22:.\Generated_Source\PSoC4/eoc.c **** 
  23:.\Generated_Source\PSoC4/eoc.c **** #if !defined(eoc__REMOVED) /* Check for removal by optimization */
  24:.\Generated_Source\PSoC4/eoc.c **** 
  25:.\Generated_Source\PSoC4/eoc.c **** /*******************************************************************************
  26:.\Generated_Source\PSoC4/eoc.c **** *  Place your includes, defines and code here 
  27:.\Generated_Source\PSoC4/eoc.c **** ********************************************************************************/
  28:.\Generated_Source\PSoC4/eoc.c **** /* `#START eoc_intc` */
  29:.\Generated_Source\PSoC4/eoc.c **** 
  30:.\Generated_Source\PSoC4/eoc.c **** /* `#END` */
  31:.\Generated_Source\PSoC4/eoc.c **** 
  32:.\Generated_Source\PSoC4/eoc.c **** extern cyisraddress CyRamVectors[CYINT_IRQ_BASE + CY_NUM_INTERRUPTS];
ARM GAS  C:\Users\Computer\AppData\Local\Temp\ccUGCCmd.s 			page 2


  33:.\Generated_Source\PSoC4/eoc.c **** 
  34:.\Generated_Source\PSoC4/eoc.c **** /* Declared in startup, used to set unused interrupts to. */
  35:.\Generated_Source\PSoC4/eoc.c **** CY_ISR_PROTO(IntDefaultHandler);
  36:.\Generated_Source\PSoC4/eoc.c **** 
  37:.\Generated_Source\PSoC4/eoc.c **** 
  38:.\Generated_Source\PSoC4/eoc.c **** /*******************************************************************************
  39:.\Generated_Source\PSoC4/eoc.c **** * Function Name: eoc_Start
  40:.\Generated_Source\PSoC4/eoc.c **** ********************************************************************************
  41:.\Generated_Source\PSoC4/eoc.c **** *
  42:.\Generated_Source\PSoC4/eoc.c **** * Summary:
  43:.\Generated_Source\PSoC4/eoc.c **** *  Set up the interrupt and enable it.
  44:.\Generated_Source\PSoC4/eoc.c **** *
  45:.\Generated_Source\PSoC4/eoc.c **** * Parameters:  
  46:.\Generated_Source\PSoC4/eoc.c **** *   None
  47:.\Generated_Source\PSoC4/eoc.c **** *
  48:.\Generated_Source\PSoC4/eoc.c **** * Return:
  49:.\Generated_Source\PSoC4/eoc.c **** *   None
  50:.\Generated_Source\PSoC4/eoc.c **** *
  51:.\Generated_Source\PSoC4/eoc.c **** *******************************************************************************/
  52:.\Generated_Source\PSoC4/eoc.c **** void eoc_Start(void)
  53:.\Generated_Source\PSoC4/eoc.c **** {
  54:.\Generated_Source\PSoC4/eoc.c ****     /* For all we know the interrupt is active. */
  55:.\Generated_Source\PSoC4/eoc.c ****     eoc_Disable();
  56:.\Generated_Source\PSoC4/eoc.c **** 
  57:.\Generated_Source\PSoC4/eoc.c ****     /* Set the ISR to point to the eoc Interrupt. */
  58:.\Generated_Source\PSoC4/eoc.c ****     eoc_SetVector(&eoc_Interrupt);
  59:.\Generated_Source\PSoC4/eoc.c **** 
  60:.\Generated_Source\PSoC4/eoc.c ****     /* Set the priority. */
  61:.\Generated_Source\PSoC4/eoc.c ****     eoc_SetPriority((uint8)eoc_INTC_PRIOR_NUMBER);
  62:.\Generated_Source\PSoC4/eoc.c **** 
  63:.\Generated_Source\PSoC4/eoc.c ****     /* Enable it. */
  64:.\Generated_Source\PSoC4/eoc.c ****     eoc_Enable();
  65:.\Generated_Source\PSoC4/eoc.c **** }
  66:.\Generated_Source\PSoC4/eoc.c **** 
  67:.\Generated_Source\PSoC4/eoc.c **** 
  68:.\Generated_Source\PSoC4/eoc.c **** /*******************************************************************************
  69:.\Generated_Source\PSoC4/eoc.c **** * Function Name: eoc_StartEx
  70:.\Generated_Source\PSoC4/eoc.c **** ********************************************************************************
  71:.\Generated_Source\PSoC4/eoc.c **** *
  72:.\Generated_Source\PSoC4/eoc.c **** * Summary:
  73:.\Generated_Source\PSoC4/eoc.c **** *  Set up the interrupt and enable it.
  74:.\Generated_Source\PSoC4/eoc.c **** *
  75:.\Generated_Source\PSoC4/eoc.c **** * Parameters:  
  76:.\Generated_Source\PSoC4/eoc.c **** *   address: Address of the ISR to set in the interrupt vector table.
  77:.\Generated_Source\PSoC4/eoc.c **** *
  78:.\Generated_Source\PSoC4/eoc.c **** * Return:
  79:.\Generated_Source\PSoC4/eoc.c **** *   None
  80:.\Generated_Source\PSoC4/eoc.c **** *
  81:.\Generated_Source\PSoC4/eoc.c **** *******************************************************************************/
  82:.\Generated_Source\PSoC4/eoc.c **** void eoc_StartEx(cyisraddress address)
  83:.\Generated_Source\PSoC4/eoc.c **** {
  84:.\Generated_Source\PSoC4/eoc.c ****     /* For all we know the interrupt is active. */
  85:.\Generated_Source\PSoC4/eoc.c ****     eoc_Disable();
  86:.\Generated_Source\PSoC4/eoc.c **** 
  87:.\Generated_Source\PSoC4/eoc.c ****     /* Set the ISR to point to the eoc Interrupt. */
  88:.\Generated_Source\PSoC4/eoc.c ****     eoc_SetVector(address);
  89:.\Generated_Source\PSoC4/eoc.c **** 
ARM GAS  C:\Users\Computer\AppData\Local\Temp\ccUGCCmd.s 			page 3


  90:.\Generated_Source\PSoC4/eoc.c ****     /* Set the priority. */
  91:.\Generated_Source\PSoC4/eoc.c ****     eoc_SetPriority((uint8)eoc_INTC_PRIOR_NUMBER);
  92:.\Generated_Source\PSoC4/eoc.c **** 
  93:.\Generated_Source\PSoC4/eoc.c ****     /* Enable it. */
  94:.\Generated_Source\PSoC4/eoc.c ****     eoc_Enable();
  95:.\Generated_Source\PSoC4/eoc.c **** }
  96:.\Generated_Source\PSoC4/eoc.c **** 
  97:.\Generated_Source\PSoC4/eoc.c **** 
  98:.\Generated_Source\PSoC4/eoc.c **** /*******************************************************************************
  99:.\Generated_Source\PSoC4/eoc.c **** * Function Name: eoc_Stop
 100:.\Generated_Source\PSoC4/eoc.c **** ********************************************************************************
 101:.\Generated_Source\PSoC4/eoc.c **** *
 102:.\Generated_Source\PSoC4/eoc.c **** * Summary:
 103:.\Generated_Source\PSoC4/eoc.c **** *   Disables and removes the interrupt.
 104:.\Generated_Source\PSoC4/eoc.c **** *
 105:.\Generated_Source\PSoC4/eoc.c **** * Parameters:  
 106:.\Generated_Source\PSoC4/eoc.c **** *
 107:.\Generated_Source\PSoC4/eoc.c **** * Return:
 108:.\Generated_Source\PSoC4/eoc.c **** *   None
 109:.\Generated_Source\PSoC4/eoc.c **** *
 110:.\Generated_Source\PSoC4/eoc.c **** *******************************************************************************/
 111:.\Generated_Source\PSoC4/eoc.c **** void eoc_Stop(void)
 112:.\Generated_Source\PSoC4/eoc.c **** {
 113:.\Generated_Source\PSoC4/eoc.c ****     /* Disable this interrupt. */
 114:.\Generated_Source\PSoC4/eoc.c ****     eoc_Disable();
 115:.\Generated_Source\PSoC4/eoc.c **** 
 116:.\Generated_Source\PSoC4/eoc.c ****     /* Set the ISR to point to the passive one. */
 117:.\Generated_Source\PSoC4/eoc.c ****     eoc_SetVector(&IntDefaultHandler);
 118:.\Generated_Source\PSoC4/eoc.c **** }
 119:.\Generated_Source\PSoC4/eoc.c **** 
 120:.\Generated_Source\PSoC4/eoc.c **** 
 121:.\Generated_Source\PSoC4/eoc.c **** /*******************************************************************************
 122:.\Generated_Source\PSoC4/eoc.c **** * Function Name: eoc_Interrupt
 123:.\Generated_Source\PSoC4/eoc.c **** ********************************************************************************
 124:.\Generated_Source\PSoC4/eoc.c **** *
 125:.\Generated_Source\PSoC4/eoc.c **** * Summary:
 126:.\Generated_Source\PSoC4/eoc.c **** *   The default Interrupt Service Routine for eoc.
 127:.\Generated_Source\PSoC4/eoc.c **** *
 128:.\Generated_Source\PSoC4/eoc.c **** *   Add custom code between the coments to keep the next version of this file
 129:.\Generated_Source\PSoC4/eoc.c **** *   from over writting your code.
 130:.\Generated_Source\PSoC4/eoc.c **** *
 131:.\Generated_Source\PSoC4/eoc.c **** * Parameters:  
 132:.\Generated_Source\PSoC4/eoc.c **** *   None
 133:.\Generated_Source\PSoC4/eoc.c **** *
 134:.\Generated_Source\PSoC4/eoc.c **** * Return:
 135:.\Generated_Source\PSoC4/eoc.c **** *   None
 136:.\Generated_Source\PSoC4/eoc.c **** *
 137:.\Generated_Source\PSoC4/eoc.c **** *******************************************************************************/
 138:.\Generated_Source\PSoC4/eoc.c **** CY_ISR(eoc_Interrupt)
 139:.\Generated_Source\PSoC4/eoc.c **** {
  26              		.loc 1 139 0
  27              		.cfi_startproc
 140:.\Generated_Source\PSoC4/eoc.c ****     /*  Place your Interrupt code here. */
 141:.\Generated_Source\PSoC4/eoc.c ****     /* `#START eoc_Interrupt` */
 142:.\Generated_Source\PSoC4/eoc.c **** 
 143:.\Generated_Source\PSoC4/eoc.c ****     /* `#END` */
 144:.\Generated_Source\PSoC4/eoc.c **** }
ARM GAS  C:\Users\Computer\AppData\Local\Temp\ccUGCCmd.s 			page 4


  28              		.loc 1 144 0
  29              		@ sp needed for prologue
  30 0000 7047     		bx	lr
  31              		.cfi_endproc
  32              	.LFE3:
  33              		.size	eoc_Interrupt, .-eoc_Interrupt
  34 0002 C046     		.section	.text.eoc_Stop,"ax",%progbits
  35              		.align	2
  36              		.global	eoc_Stop
  37              		.code	16
  38              		.thumb_func
  39              		.type	eoc_Stop, %function
  40              	eoc_Stop:
  41              	.LFB2:
 112:.\Generated_Source\PSoC4/eoc.c **** {
  42              		.loc 1 112 0
  43              		.cfi_startproc
  44              	.LBB18:
  45              	.LBB19:
 145:.\Generated_Source\PSoC4/eoc.c **** 
 146:.\Generated_Source\PSoC4/eoc.c **** 
 147:.\Generated_Source\PSoC4/eoc.c **** /*******************************************************************************
 148:.\Generated_Source\PSoC4/eoc.c **** * Function Name: eoc_SetVector
 149:.\Generated_Source\PSoC4/eoc.c **** ********************************************************************************
 150:.\Generated_Source\PSoC4/eoc.c **** *
 151:.\Generated_Source\PSoC4/eoc.c **** * Summary:
 152:.\Generated_Source\PSoC4/eoc.c **** *   Change the ISR vector for the Interrupt. Note calling eoc_Start
 153:.\Generated_Source\PSoC4/eoc.c **** *   will override any effect this method would have had. To set the vector 
 154:.\Generated_Source\PSoC4/eoc.c **** *   before the component has been started use eoc_StartEx instead.
 155:.\Generated_Source\PSoC4/eoc.c **** *
 156:.\Generated_Source\PSoC4/eoc.c **** * Parameters:
 157:.\Generated_Source\PSoC4/eoc.c **** *   address: Address of the ISR to set in the interrupt vector table.
 158:.\Generated_Source\PSoC4/eoc.c **** *
 159:.\Generated_Source\PSoC4/eoc.c **** * Return:
 160:.\Generated_Source\PSoC4/eoc.c **** *   None
 161:.\Generated_Source\PSoC4/eoc.c **** *
 162:.\Generated_Source\PSoC4/eoc.c **** *******************************************************************************/
 163:.\Generated_Source\PSoC4/eoc.c **** void eoc_SetVector(cyisraddress address)
 164:.\Generated_Source\PSoC4/eoc.c **** {
 165:.\Generated_Source\PSoC4/eoc.c ****     CyRamVectors[CYINT_IRQ_BASE + eoc__INTC_NUMBER] = address;
 166:.\Generated_Source\PSoC4/eoc.c **** }
 167:.\Generated_Source\PSoC4/eoc.c **** 
 168:.\Generated_Source\PSoC4/eoc.c **** 
 169:.\Generated_Source\PSoC4/eoc.c **** /*******************************************************************************
 170:.\Generated_Source\PSoC4/eoc.c **** * Function Name: eoc_GetVector
 171:.\Generated_Source\PSoC4/eoc.c **** ********************************************************************************
 172:.\Generated_Source\PSoC4/eoc.c **** *
 173:.\Generated_Source\PSoC4/eoc.c **** * Summary:
 174:.\Generated_Source\PSoC4/eoc.c **** *   Gets the "address" of the current ISR vector for the Interrupt.
 175:.\Generated_Source\PSoC4/eoc.c **** *
 176:.\Generated_Source\PSoC4/eoc.c **** * Parameters:
 177:.\Generated_Source\PSoC4/eoc.c **** *   None
 178:.\Generated_Source\PSoC4/eoc.c **** *
 179:.\Generated_Source\PSoC4/eoc.c **** * Return:
 180:.\Generated_Source\PSoC4/eoc.c **** *   Address of the ISR in the interrupt vector table.
 181:.\Generated_Source\PSoC4/eoc.c **** *
 182:.\Generated_Source\PSoC4/eoc.c **** *******************************************************************************/
ARM GAS  C:\Users\Computer\AppData\Local\Temp\ccUGCCmd.s 			page 5


 183:.\Generated_Source\PSoC4/eoc.c **** cyisraddress eoc_GetVector(void)
 184:.\Generated_Source\PSoC4/eoc.c **** {
 185:.\Generated_Source\PSoC4/eoc.c ****     return CyRamVectors[CYINT_IRQ_BASE + eoc__INTC_NUMBER];
 186:.\Generated_Source\PSoC4/eoc.c **** }
 187:.\Generated_Source\PSoC4/eoc.c **** 
 188:.\Generated_Source\PSoC4/eoc.c **** 
 189:.\Generated_Source\PSoC4/eoc.c **** /*******************************************************************************
 190:.\Generated_Source\PSoC4/eoc.c **** * Function Name: eoc_SetPriority
 191:.\Generated_Source\PSoC4/eoc.c **** ********************************************************************************
 192:.\Generated_Source\PSoC4/eoc.c **** *
 193:.\Generated_Source\PSoC4/eoc.c **** * Summary:
 194:.\Generated_Source\PSoC4/eoc.c **** *   Sets the Priority of the Interrupt. Note calling eoc_Start
 195:.\Generated_Source\PSoC4/eoc.c **** *   or eoc_StartEx will override any effect this method would 
 196:.\Generated_Source\PSoC4/eoc.c **** *   have had. This method should only be called after eoc_Start or 
 197:.\Generated_Source\PSoC4/eoc.c **** *   eoc_StartEx has been called. To set the initial
 198:.\Generated_Source\PSoC4/eoc.c **** *   priority for the component use the cydwr file in the tool.
 199:.\Generated_Source\PSoC4/eoc.c **** *
 200:.\Generated_Source\PSoC4/eoc.c **** * Parameters:
 201:.\Generated_Source\PSoC4/eoc.c **** *   priority: Priority of the interrupt. 0 - 3, 0 being the highest.
 202:.\Generated_Source\PSoC4/eoc.c **** *
 203:.\Generated_Source\PSoC4/eoc.c **** * Return:
 204:.\Generated_Source\PSoC4/eoc.c **** *   None
 205:.\Generated_Source\PSoC4/eoc.c **** *
 206:.\Generated_Source\PSoC4/eoc.c **** *******************************************************************************/
 207:.\Generated_Source\PSoC4/eoc.c **** void eoc_SetPriority(uint8 priority)
 208:.\Generated_Source\PSoC4/eoc.c **** {
 209:.\Generated_Source\PSoC4/eoc.c **** 	uint8 interruptState;
 210:.\Generated_Source\PSoC4/eoc.c ****     uint32 priorityOffset = ((eoc__INTC_NUMBER % 4u) * 8u) + 6u;
 211:.\Generated_Source\PSoC4/eoc.c ****     
 212:.\Generated_Source\PSoC4/eoc.c **** 	interruptState = CyEnterCriticalSection();
 213:.\Generated_Source\PSoC4/eoc.c ****     *eoc_INTC_PRIOR = (*eoc_INTC_PRIOR & (uint32)(~eoc__INTC_PRIOR_MASK)) |
 214:.\Generated_Source\PSoC4/eoc.c ****                                     ((uint32)priority << priorityOffset);
 215:.\Generated_Source\PSoC4/eoc.c **** 	CyExitCriticalSection(interruptState);
 216:.\Generated_Source\PSoC4/eoc.c **** }
 217:.\Generated_Source\PSoC4/eoc.c **** 
 218:.\Generated_Source\PSoC4/eoc.c **** 
 219:.\Generated_Source\PSoC4/eoc.c **** /*******************************************************************************
 220:.\Generated_Source\PSoC4/eoc.c **** * Function Name: eoc_GetPriority
 221:.\Generated_Source\PSoC4/eoc.c **** ********************************************************************************
 222:.\Generated_Source\PSoC4/eoc.c **** *
 223:.\Generated_Source\PSoC4/eoc.c **** * Summary:
 224:.\Generated_Source\PSoC4/eoc.c **** *   Gets the Priority of the Interrupt.
 225:.\Generated_Source\PSoC4/eoc.c **** *
 226:.\Generated_Source\PSoC4/eoc.c **** * Parameters:
 227:.\Generated_Source\PSoC4/eoc.c **** *   None
 228:.\Generated_Source\PSoC4/eoc.c **** *
 229:.\Generated_Source\PSoC4/eoc.c **** * Return:
 230:.\Generated_Source\PSoC4/eoc.c **** *   Priority of the interrupt. 0 - 3, 0 being the highest.
 231:.\Generated_Source\PSoC4/eoc.c **** *
 232:.\Generated_Source\PSoC4/eoc.c **** *******************************************************************************/
 233:.\Generated_Source\PSoC4/eoc.c **** uint8 eoc_GetPriority(void)
 234:.\Generated_Source\PSoC4/eoc.c **** {
 235:.\Generated_Source\PSoC4/eoc.c ****     uint32 priority;
 236:.\Generated_Source\PSoC4/eoc.c **** 	uint32 priorityOffset = ((eoc__INTC_NUMBER % 4u) * 8u) + 6u;
 237:.\Generated_Source\PSoC4/eoc.c **** 
 238:.\Generated_Source\PSoC4/eoc.c ****     priority = (*eoc_INTC_PRIOR & eoc__INTC_PRIOR_MASK) >> priorityOffset;
 239:.\Generated_Source\PSoC4/eoc.c **** 
ARM GAS  C:\Users\Computer\AppData\Local\Temp\ccUGCCmd.s 			page 6


 240:.\Generated_Source\PSoC4/eoc.c ****     return (uint8)priority;
 241:.\Generated_Source\PSoC4/eoc.c **** }
 242:.\Generated_Source\PSoC4/eoc.c **** 
 243:.\Generated_Source\PSoC4/eoc.c **** 
 244:.\Generated_Source\PSoC4/eoc.c **** /*******************************************************************************
 245:.\Generated_Source\PSoC4/eoc.c **** * Function Name: eoc_Enable
 246:.\Generated_Source\PSoC4/eoc.c **** ********************************************************************************
 247:.\Generated_Source\PSoC4/eoc.c **** *
 248:.\Generated_Source\PSoC4/eoc.c **** * Summary:
 249:.\Generated_Source\PSoC4/eoc.c **** *   Enables the interrupt.
 250:.\Generated_Source\PSoC4/eoc.c **** *
 251:.\Generated_Source\PSoC4/eoc.c **** * Parameters:
 252:.\Generated_Source\PSoC4/eoc.c **** *   None
 253:.\Generated_Source\PSoC4/eoc.c **** *
 254:.\Generated_Source\PSoC4/eoc.c **** * Return:
 255:.\Generated_Source\PSoC4/eoc.c **** *   None
 256:.\Generated_Source\PSoC4/eoc.c **** *
 257:.\Generated_Source\PSoC4/eoc.c **** *******************************************************************************/
 258:.\Generated_Source\PSoC4/eoc.c **** void eoc_Enable(void)
 259:.\Generated_Source\PSoC4/eoc.c **** {
 260:.\Generated_Source\PSoC4/eoc.c ****     /* Enable the general interrupt. */
 261:.\Generated_Source\PSoC4/eoc.c ****     *eoc_INTC_SET_EN = eoc__INTC_MASK;
 262:.\Generated_Source\PSoC4/eoc.c **** }
 263:.\Generated_Source\PSoC4/eoc.c **** 
 264:.\Generated_Source\PSoC4/eoc.c **** 
 265:.\Generated_Source\PSoC4/eoc.c **** /*******************************************************************************
 266:.\Generated_Source\PSoC4/eoc.c **** * Function Name: eoc_GetState
 267:.\Generated_Source\PSoC4/eoc.c **** ********************************************************************************
 268:.\Generated_Source\PSoC4/eoc.c **** *
 269:.\Generated_Source\PSoC4/eoc.c **** * Summary:
 270:.\Generated_Source\PSoC4/eoc.c **** *   Gets the state (enabled, disabled) of the Interrupt.
 271:.\Generated_Source\PSoC4/eoc.c **** *
 272:.\Generated_Source\PSoC4/eoc.c **** * Parameters:
 273:.\Generated_Source\PSoC4/eoc.c **** *   None
 274:.\Generated_Source\PSoC4/eoc.c **** *
 275:.\Generated_Source\PSoC4/eoc.c **** * Return:
 276:.\Generated_Source\PSoC4/eoc.c **** *   1 if enabled, 0 if disabled.
 277:.\Generated_Source\PSoC4/eoc.c **** *
 278:.\Generated_Source\PSoC4/eoc.c **** *******************************************************************************/
 279:.\Generated_Source\PSoC4/eoc.c **** uint8 eoc_GetState(void)
 280:.\Generated_Source\PSoC4/eoc.c **** {
 281:.\Generated_Source\PSoC4/eoc.c ****     /* Get the state of the general interrupt. */
 282:.\Generated_Source\PSoC4/eoc.c ****     return ((*eoc_INTC_SET_EN & (uint32)eoc__INTC_MASK) != 0u) ? 1u:0u;
 283:.\Generated_Source\PSoC4/eoc.c **** }
 284:.\Generated_Source\PSoC4/eoc.c **** 
 285:.\Generated_Source\PSoC4/eoc.c **** 
 286:.\Generated_Source\PSoC4/eoc.c **** /*******************************************************************************
 287:.\Generated_Source\PSoC4/eoc.c **** * Function Name: eoc_Disable
 288:.\Generated_Source\PSoC4/eoc.c **** ********************************************************************************
 289:.\Generated_Source\PSoC4/eoc.c **** *
 290:.\Generated_Source\PSoC4/eoc.c **** * Summary:
 291:.\Generated_Source\PSoC4/eoc.c **** *   Disables the Interrupt.
 292:.\Generated_Source\PSoC4/eoc.c **** *
 293:.\Generated_Source\PSoC4/eoc.c **** * Parameters:
 294:.\Generated_Source\PSoC4/eoc.c **** *   None
 295:.\Generated_Source\PSoC4/eoc.c **** *
 296:.\Generated_Source\PSoC4/eoc.c **** * Return:
ARM GAS  C:\Users\Computer\AppData\Local\Temp\ccUGCCmd.s 			page 7


 297:.\Generated_Source\PSoC4/eoc.c **** *   None
 298:.\Generated_Source\PSoC4/eoc.c **** *
 299:.\Generated_Source\PSoC4/eoc.c **** *******************************************************************************/
 300:.\Generated_Source\PSoC4/eoc.c **** void eoc_Disable(void)
 301:.\Generated_Source\PSoC4/eoc.c **** {
 302:.\Generated_Source\PSoC4/eoc.c ****     /* Disable the general interrupt. */
 303:.\Generated_Source\PSoC4/eoc.c ****     *eoc_INTC_CLR_EN = eoc__INTC_MASK;
  46              		.loc 1 303 0
  47 0000 034B     		ldr	r3, .L3
  48              	.LBE19:
  49              	.LBE18:
  50              	.LBB21:
  51              	.LBB22:
 165:.\Generated_Source\PSoC4/eoc.c ****     CyRamVectors[CYINT_IRQ_BASE + eoc__INTC_NUMBER] = address;
  52              		.loc 1 165 0
  53 0002 0448     		ldr	r0, .L3+4
  54 0004 0449     		ldr	r1, .L3+8
  55              	.LBE22:
  56              	.LBE21:
  57              	.LBB24:
  58              	.LBB20:
  59              		.loc 1 303 0
  60 0006 0422     		mov	r2, #4
  61 0008 1A60     		str	r2, [r3]
  62              	.LVL0:
  63              	.LBE20:
  64              	.LBE24:
 118:.\Generated_Source\PSoC4/eoc.c **** }
  65              		.loc 1 118 0
  66              		@ sp needed for prologue
  67              	.LBB25:
  68              	.LBB23:
 165:.\Generated_Source\PSoC4/eoc.c ****     CyRamVectors[CYINT_IRQ_BASE + eoc__INTC_NUMBER] = address;
  69              		.loc 1 165 0
  70 000a 8864     		str	r0, [r1, #72]
  71              	.LBE23:
  72              	.LBE25:
 118:.\Generated_Source\PSoC4/eoc.c **** }
  73              		.loc 1 118 0
  74 000c 7047     		bx	lr
  75              	.L4:
  76 000e C046     		.align	2
  77              	.L3:
  78 0010 80E100E0 		.word	-536813184
  79 0014 00000000 		.word	IntDefaultHandler
  80 0018 00000000 		.word	CyRamVectors
  81              		.cfi_endproc
  82              	.LFE2:
  83              		.size	eoc_Stop, .-eoc_Stop
  84              		.section	.text.eoc_SetVector,"ax",%progbits
  85              		.align	2
  86              		.global	eoc_SetVector
  87              		.code	16
  88              		.thumb_func
  89              		.type	eoc_SetVector, %function
  90              	eoc_SetVector:
  91              	.LFB4:
ARM GAS  C:\Users\Computer\AppData\Local\Temp\ccUGCCmd.s 			page 8


 164:.\Generated_Source\PSoC4/eoc.c **** {
  92              		.loc 1 164 0
  93              		.cfi_startproc
  94              	.LVL1:
 165:.\Generated_Source\PSoC4/eoc.c ****     CyRamVectors[CYINT_IRQ_BASE + eoc__INTC_NUMBER] = address;
  95              		.loc 1 165 0
  96 0000 014B     		ldr	r3, .L6
 166:.\Generated_Source\PSoC4/eoc.c **** }
  97              		.loc 1 166 0
  98              		@ sp needed for prologue
 165:.\Generated_Source\PSoC4/eoc.c ****     CyRamVectors[CYINT_IRQ_BASE + eoc__INTC_NUMBER] = address;
  99              		.loc 1 165 0
 100 0002 9864     		str	r0, [r3, #72]
 166:.\Generated_Source\PSoC4/eoc.c **** }
 101              		.loc 1 166 0
 102 0004 7047     		bx	lr
 103              	.L7:
 104 0006 C046     		.align	2
 105              	.L6:
 106 0008 00000000 		.word	CyRamVectors
 107              		.cfi_endproc
 108              	.LFE4:
 109              		.size	eoc_SetVector, .-eoc_SetVector
 110              		.section	.text.eoc_GetVector,"ax",%progbits
 111              		.align	2
 112              		.global	eoc_GetVector
 113              		.code	16
 114              		.thumb_func
 115              		.type	eoc_GetVector, %function
 116              	eoc_GetVector:
 117              	.LFB5:
 184:.\Generated_Source\PSoC4/eoc.c **** {
 118              		.loc 1 184 0
 119              		.cfi_startproc
 185:.\Generated_Source\PSoC4/eoc.c ****     return CyRamVectors[CYINT_IRQ_BASE + eoc__INTC_NUMBER];
 120              		.loc 1 185 0
 121 0000 014B     		ldr	r3, .L9
 186:.\Generated_Source\PSoC4/eoc.c **** }
 122              		.loc 1 186 0
 123              		@ sp needed for prologue
 185:.\Generated_Source\PSoC4/eoc.c ****     return CyRamVectors[CYINT_IRQ_BASE + eoc__INTC_NUMBER];
 124              		.loc 1 185 0
 125 0002 986C     		ldr	r0, [r3, #72]
 186:.\Generated_Source\PSoC4/eoc.c **** }
 126              		.loc 1 186 0
 127 0004 7047     		bx	lr
 128              	.L10:
 129 0006 C046     		.align	2
 130              	.L9:
 131 0008 00000000 		.word	CyRamVectors
 132              		.cfi_endproc
 133              	.LFE5:
 134              		.size	eoc_GetVector, .-eoc_GetVector
 135              		.section	.text.eoc_SetPriority,"ax",%progbits
 136              		.align	2
 137              		.global	eoc_SetPriority
 138              		.code	16
ARM GAS  C:\Users\Computer\AppData\Local\Temp\ccUGCCmd.s 			page 9


 139              		.thumb_func
 140              		.type	eoc_SetPriority, %function
 141              	eoc_SetPriority:
 142              	.LFB6:
 208:.\Generated_Source\PSoC4/eoc.c **** {
 143              		.loc 1 208 0
 144              		.cfi_startproc
 145              	.LVL2:
 146 0000 38B5     		push	{r3, r4, r5, lr}
 147              	.LCFI0:
 148              		.cfi_def_cfa_offset 16
 149              		.cfi_offset 3, -16
 150              		.cfi_offset 4, -12
 151              		.cfi_offset 5, -8
 152              		.cfi_offset 14, -4
 208:.\Generated_Source\PSoC4/eoc.c **** {
 153              		.loc 1 208 0
 154 0002 041C     		mov	r4, r0
 212:.\Generated_Source\PSoC4/eoc.c **** 	interruptState = CyEnterCriticalSection();
 155              		.loc 1 212 0
 156 0004 FFF7FEFF 		bl	CyEnterCriticalSection
 157              	.LVL3:
 213:.\Generated_Source\PSoC4/eoc.c ****     *eoc_INTC_PRIOR = (*eoc_INTC_PRIOR & (uint32)(~eoc__INTC_PRIOR_MASK)) |
 158              		.loc 1 213 0
 159 0008 054B     		ldr	r3, .L12
 160 000a 0649     		ldr	r1, .L12+4
 161 000c 1D68     		ldr	r5, [r3]
 214:.\Generated_Source\PSoC4/eoc.c ****                                     ((uint32)priority << priorityOffset);
 162              		.loc 1 214 0
 163 000e A205     		lsl	r2, r4, #22
 213:.\Generated_Source\PSoC4/eoc.c ****     *eoc_INTC_PRIOR = (*eoc_INTC_PRIOR & (uint32)(~eoc__INTC_PRIOR_MASK)) |
 164              		.loc 1 213 0
 165 0010 2C1C     		mov	r4, r5
 166 0012 0C40     		and	r4, r1
 167 0014 1443     		orr	r4, r2
 168 0016 1C60     		str	r4, [r3]
 215:.\Generated_Source\PSoC4/eoc.c **** 	CyExitCriticalSection(interruptState);
 169              		.loc 1 215 0
 170 0018 FFF7FEFF 		bl	CyExitCriticalSection
 171              	.LVL4:
 216:.\Generated_Source\PSoC4/eoc.c **** }
 172              		.loc 1 216 0
 173              		@ sp needed for prologue
 174 001c 38BD     		pop	{r3, r4, r5, pc}
 175              	.L13:
 176 001e C046     		.align	2
 177              	.L12:
 178 0020 00E400E0 		.word	-536812544
 179 0024 FFFF3FFF 		.word	-12582913
 180              		.cfi_endproc
 181              	.LFE6:
 182              		.size	eoc_SetPriority, .-eoc_SetPriority
 183              		.section	.text.eoc_StartEx,"ax",%progbits
 184              		.align	2
 185              		.global	eoc_StartEx
 186              		.code	16
 187              		.thumb_func
ARM GAS  C:\Users\Computer\AppData\Local\Temp\ccUGCCmd.s 			page 10


 188              		.type	eoc_StartEx, %function
 189              	eoc_StartEx:
 190              	.LFB1:
  83:.\Generated_Source\PSoC4/eoc.c **** {
 191              		.loc 1 83 0
 192              		.cfi_startproc
 193              	.LVL5:
 194 0000 10B5     		push	{r4, lr}
 195              	.LCFI1:
 196              		.cfi_def_cfa_offset 8
 197              		.cfi_offset 4, -8
 198              		.cfi_offset 14, -4
 199              	.LBB26:
 200              	.LBB27:
 201              		.loc 1 303 0
 202 0002 054B     		ldr	r3, .L15
 203              	.LBE27:
 204              	.LBE26:
 205              	.LBB29:
 206              	.LBB30:
 165:.\Generated_Source\PSoC4/eoc.c ****     CyRamVectors[CYINT_IRQ_BASE + eoc__INTC_NUMBER] = address;
 207              		.loc 1 165 0
 208 0004 0549     		ldr	r1, .L15+4
 209              	.LBE30:
 210              	.LBE29:
 211              	.LBB32:
 212              	.LBB28:
 213              		.loc 1 303 0
 214 0006 0424     		mov	r4, #4
 215 0008 1C60     		str	r4, [r3]
 216              	.LVL6:
 217              	.LBE28:
 218              	.LBE32:
 219              	.LBB33:
 220              	.LBB31:
 165:.\Generated_Source\PSoC4/eoc.c ****     CyRamVectors[CYINT_IRQ_BASE + eoc__INTC_NUMBER] = address;
 221              		.loc 1 165 0
 222 000a 8864     		str	r0, [r1, #72]
 223              	.LBE31:
 224              	.LBE33:
  91:.\Generated_Source\PSoC4/eoc.c ****     eoc_SetPriority((uint8)eoc_INTC_PRIOR_NUMBER);
 225              		.loc 1 91 0
 226 000c 0320     		mov	r0, #3
 227              	.LVL7:
 228 000e FFF7FEFF 		bl	eoc_SetPriority
 229              	.LVL8:
 230              	.LBB34:
 231              	.LBB35:
 261:.\Generated_Source\PSoC4/eoc.c ****     *eoc_INTC_SET_EN = eoc__INTC_MASK;
 232              		.loc 1 261 0
 233 0012 0348     		ldr	r0, .L15+8
 234              	.LBE35:
 235              	.LBE34:
  95:.\Generated_Source\PSoC4/eoc.c **** }
 236              		.loc 1 95 0
 237              		@ sp needed for prologue
 238              	.LBB37:
ARM GAS  C:\Users\Computer\AppData\Local\Temp\ccUGCCmd.s 			page 11


 239              	.LBB36:
 261:.\Generated_Source\PSoC4/eoc.c ****     *eoc_INTC_SET_EN = eoc__INTC_MASK;
 240              		.loc 1 261 0
 241 0014 0460     		str	r4, [r0]
 242              	.LBE36:
 243              	.LBE37:
  95:.\Generated_Source\PSoC4/eoc.c **** }
 244              		.loc 1 95 0
 245 0016 10BD     		pop	{r4, pc}
 246              	.L16:
 247              		.align	2
 248              	.L15:
 249 0018 80E100E0 		.word	-536813184
 250 001c 00000000 		.word	CyRamVectors
 251 0020 00E100E0 		.word	-536813312
 252              		.cfi_endproc
 253              	.LFE1:
 254              		.size	eoc_StartEx, .-eoc_StartEx
 255              		.section	.text.eoc_Start,"ax",%progbits
 256              		.align	2
 257              		.global	eoc_Start
 258              		.code	16
 259              		.thumb_func
 260              		.type	eoc_Start, %function
 261              	eoc_Start:
 262              	.LFB0:
  53:.\Generated_Source\PSoC4/eoc.c **** {
 263              		.loc 1 53 0
 264              		.cfi_startproc
 265 0000 10B5     		push	{r4, lr}
 266              	.LCFI2:
 267              		.cfi_def_cfa_offset 8
 268              		.cfi_offset 4, -8
 269              		.cfi_offset 14, -4
 270              	.LBB38:
 271              	.LBB39:
 272              		.loc 1 303 0
 273 0002 064B     		ldr	r3, .L18
 274              	.LBE39:
 275              	.LBE38:
 276              	.LBB41:
 277              	.LBB42:
 165:.\Generated_Source\PSoC4/eoc.c ****     CyRamVectors[CYINT_IRQ_BASE + eoc__INTC_NUMBER] = address;
 278              		.loc 1 165 0
 279 0004 064A     		ldr	r2, .L18+4
 280 0006 0748     		ldr	r0, .L18+8
 281              	.LBE42:
 282              	.LBE41:
 283              	.LBB44:
 284              	.LBB40:
 285              		.loc 1 303 0
 286 0008 0424     		mov	r4, #4
 287 000a 1C60     		str	r4, [r3]
 288              	.LVL9:
 289              	.LBE40:
 290              	.LBE44:
 291              	.LBB45:
ARM GAS  C:\Users\Computer\AppData\Local\Temp\ccUGCCmd.s 			page 12


 292              	.LBB43:
 165:.\Generated_Source\PSoC4/eoc.c ****     CyRamVectors[CYINT_IRQ_BASE + eoc__INTC_NUMBER] = address;
 293              		.loc 1 165 0
 294 000c 8264     		str	r2, [r0, #72]
 295              	.LBE43:
 296              	.LBE45:
  61:.\Generated_Source\PSoC4/eoc.c ****     eoc_SetPriority((uint8)eoc_INTC_PRIOR_NUMBER);
 297              		.loc 1 61 0
 298 000e 0320     		mov	r0, #3
 299 0010 FFF7FEFF 		bl	eoc_SetPriority
 300              	.LVL10:
 301              	.LBB46:
 302              	.LBB47:
 261:.\Generated_Source\PSoC4/eoc.c ****     *eoc_INTC_SET_EN = eoc__INTC_MASK;
 303              		.loc 1 261 0
 304 0014 0449     		ldr	r1, .L18+12
 305              	.LBE47:
 306              	.LBE46:
  65:.\Generated_Source\PSoC4/eoc.c **** }
 307              		.loc 1 65 0
 308              		@ sp needed for prologue
 309              	.LBB49:
 310              	.LBB48:
 261:.\Generated_Source\PSoC4/eoc.c ****     *eoc_INTC_SET_EN = eoc__INTC_MASK;
 311              		.loc 1 261 0
 312 0016 0C60     		str	r4, [r1]
 313              	.LBE48:
 314              	.LBE49:
  65:.\Generated_Source\PSoC4/eoc.c **** }
 315              		.loc 1 65 0
 316 0018 10BD     		pop	{r4, pc}
 317              	.L19:
 318 001a C046     		.align	2
 319              	.L18:
 320 001c 80E100E0 		.word	-536813184
 321 0020 00000000 		.word	eoc_Interrupt
 322 0024 00000000 		.word	CyRamVectors
 323 0028 00E100E0 		.word	-536813312
 324              		.cfi_endproc
 325              	.LFE0:
 326              		.size	eoc_Start, .-eoc_Start
 327              		.section	.text.eoc_GetPriority,"ax",%progbits
 328              		.align	2
 329              		.global	eoc_GetPriority
 330              		.code	16
 331              		.thumb_func
 332              		.type	eoc_GetPriority, %function
 333              	eoc_GetPriority:
 334              	.LFB7:
 234:.\Generated_Source\PSoC4/eoc.c **** {
 335              		.loc 1 234 0
 336              		.cfi_startproc
 337              	.LVL11:
 238:.\Generated_Source\PSoC4/eoc.c ****     priority = (*eoc_INTC_PRIOR & eoc__INTC_PRIOR_MASK) >> priorityOffset;
 338              		.loc 1 238 0
 339 0000 024B     		ldr	r3, .L21
 241:.\Generated_Source\PSoC4/eoc.c **** }
ARM GAS  C:\Users\Computer\AppData\Local\Temp\ccUGCCmd.s 			page 13


 340              		.loc 1 241 0
 341              		@ sp needed for prologue
 238:.\Generated_Source\PSoC4/eoc.c ****     priority = (*eoc_INTC_PRIOR & eoc__INTC_PRIOR_MASK) >> priorityOffset;
 342              		.loc 1 238 0
 343 0002 1868     		ldr	r0, [r3]
 344              	.LVL12:
 345 0004 0102     		lsl	r1, r0, #8
 240:.\Generated_Source\PSoC4/eoc.c ****     return (uint8)priority;
 346              		.loc 1 240 0
 347 0006 880F     		lsr	r0, r1, #30
 348              	.LVL13:
 241:.\Generated_Source\PSoC4/eoc.c **** }
 349              		.loc 1 241 0
 350 0008 7047     		bx	lr
 351              	.L22:
 352 000a C046     		.align	2
 353              	.L21:
 354 000c 00E400E0 		.word	-536812544
 355              		.cfi_endproc
 356              	.LFE7:
 357              		.size	eoc_GetPriority, .-eoc_GetPriority
 358              		.section	.text.eoc_Enable,"ax",%progbits
 359              		.align	2
 360              		.global	eoc_Enable
 361              		.code	16
 362              		.thumb_func
 363              		.type	eoc_Enable, %function
 364              	eoc_Enable:
 365              	.LFB8:
 259:.\Generated_Source\PSoC4/eoc.c **** {
 366              		.loc 1 259 0
 367              		.cfi_startproc
 261:.\Generated_Source\PSoC4/eoc.c ****     *eoc_INTC_SET_EN = eoc__INTC_MASK;
 368              		.loc 1 261 0
 369 0000 014B     		ldr	r3, .L24
 370 0002 0422     		mov	r2, #4
 371 0004 1A60     		str	r2, [r3]
 262:.\Generated_Source\PSoC4/eoc.c **** }
 372              		.loc 1 262 0
 373              		@ sp needed for prologue
 374 0006 7047     		bx	lr
 375              	.L25:
 376              		.align	2
 377              	.L24:
 378 0008 00E100E0 		.word	-536813312
 379              		.cfi_endproc
 380              	.LFE8:
 381              		.size	eoc_Enable, .-eoc_Enable
 382              		.section	.text.eoc_GetState,"ax",%progbits
 383              		.align	2
 384              		.global	eoc_GetState
 385              		.code	16
 386              		.thumb_func
 387              		.type	eoc_GetState, %function
 388              	eoc_GetState:
 389              	.LFB9:
 280:.\Generated_Source\PSoC4/eoc.c **** {
ARM GAS  C:\Users\Computer\AppData\Local\Temp\ccUGCCmd.s 			page 14


 390              		.loc 1 280 0
 391              		.cfi_startproc
 282:.\Generated_Source\PSoC4/eoc.c ****     return ((*eoc_INTC_SET_EN & (uint32)eoc__INTC_MASK) != 0u) ? 1u:0u;
 392              		.loc 1 282 0
 393 0000 024B     		ldr	r3, .L27
 283:.\Generated_Source\PSoC4/eoc.c **** }
 394              		.loc 1 283 0
 395              		@ sp needed for prologue
 282:.\Generated_Source\PSoC4/eoc.c ****     return ((*eoc_INTC_SET_EN & (uint32)eoc__INTC_MASK) != 0u) ? 1u:0u;
 396              		.loc 1 282 0
 397 0002 1868     		ldr	r0, [r3]
 398 0004 4107     		lsl	r1, r0, #29
 399 0006 C80F     		lsr	r0, r1, #31
 283:.\Generated_Source\PSoC4/eoc.c **** }
 400              		.loc 1 283 0
 401 0008 7047     		bx	lr
 402              	.L28:
 403 000a C046     		.align	2
 404              	.L27:
 405 000c 00E100E0 		.word	-536813312
 406              		.cfi_endproc
 407              	.LFE9:
 408              		.size	eoc_GetState, .-eoc_GetState
 409              		.section	.text.eoc_Disable,"ax",%progbits
 410              		.align	2
 411              		.global	eoc_Disable
 412              		.code	16
 413              		.thumb_func
 414              		.type	eoc_Disable, %function
 415              	eoc_Disable:
 416              	.LFB10:
 301:.\Generated_Source\PSoC4/eoc.c **** {
 417              		.loc 1 301 0
 418              		.cfi_startproc
 419              		.loc 1 303 0
 420 0000 014B     		ldr	r3, .L30
 421 0002 0422     		mov	r2, #4
 422 0004 1A60     		str	r2, [r3]
 304:.\Generated_Source\PSoC4/eoc.c **** }
 423              		.loc 1 304 0
 424              		@ sp needed for prologue
 425 0006 7047     		bx	lr
 426              	.L31:
 427              		.align	2
 428              	.L30:
 429 0008 80E100E0 		.word	-536813184
 430              		.cfi_endproc
 431              	.LFE10:
 432              		.size	eoc_Disable, .-eoc_Disable
 433              		.section	.text.eoc_SetPending,"ax",%progbits
 434              		.align	2
 435              		.global	eoc_SetPending
 436              		.code	16
 437              		.thumb_func
 438              		.type	eoc_SetPending, %function
 439              	eoc_SetPending:
 440              	.LFB11:
ARM GAS  C:\Users\Computer\AppData\Local\Temp\ccUGCCmd.s 			page 15


 305:.\Generated_Source\PSoC4/eoc.c **** 
 306:.\Generated_Source\PSoC4/eoc.c **** 
 307:.\Generated_Source\PSoC4/eoc.c **** /*******************************************************************************
 308:.\Generated_Source\PSoC4/eoc.c **** * Function Name: eoc_SetPending
 309:.\Generated_Source\PSoC4/eoc.c **** ********************************************************************************
 310:.\Generated_Source\PSoC4/eoc.c **** *
 311:.\Generated_Source\PSoC4/eoc.c **** * Summary:
 312:.\Generated_Source\PSoC4/eoc.c **** *   Causes the Interrupt to enter the pending state, a software method of
 313:.\Generated_Source\PSoC4/eoc.c **** *   generating the interrupt.
 314:.\Generated_Source\PSoC4/eoc.c **** *
 315:.\Generated_Source\PSoC4/eoc.c **** * Parameters:
 316:.\Generated_Source\PSoC4/eoc.c **** *   None
 317:.\Generated_Source\PSoC4/eoc.c **** *
 318:.\Generated_Source\PSoC4/eoc.c **** * Return:
 319:.\Generated_Source\PSoC4/eoc.c **** *   None
 320:.\Generated_Source\PSoC4/eoc.c **** *
 321:.\Generated_Source\PSoC4/eoc.c **** *******************************************************************************/
 322:.\Generated_Source\PSoC4/eoc.c **** void eoc_SetPending(void)
 323:.\Generated_Source\PSoC4/eoc.c **** {
 441              		.loc 1 323 0
 442              		.cfi_startproc
 324:.\Generated_Source\PSoC4/eoc.c ****     *eoc_INTC_SET_PD = eoc__INTC_MASK;
 443              		.loc 1 324 0
 444 0000 014B     		ldr	r3, .L33
 445 0002 0422     		mov	r2, #4
 446 0004 1A60     		str	r2, [r3]
 325:.\Generated_Source\PSoC4/eoc.c **** }
 447              		.loc 1 325 0
 448              		@ sp needed for prologue
 449 0006 7047     		bx	lr
 450              	.L34:
 451              		.align	2
 452              	.L33:
 453 0008 00E200E0 		.word	-536813056
 454              		.cfi_endproc
 455              	.LFE11:
 456              		.size	eoc_SetPending, .-eoc_SetPending
 457              		.section	.text.eoc_ClearPending,"ax",%progbits
 458              		.align	2
 459              		.global	eoc_ClearPending
 460              		.code	16
 461              		.thumb_func
 462              		.type	eoc_ClearPending, %function
 463              	eoc_ClearPending:
 464              	.LFB12:
 326:.\Generated_Source\PSoC4/eoc.c **** 
 327:.\Generated_Source\PSoC4/eoc.c **** 
 328:.\Generated_Source\PSoC4/eoc.c **** /*******************************************************************************
 329:.\Generated_Source\PSoC4/eoc.c **** * Function Name: eoc_ClearPending
 330:.\Generated_Source\PSoC4/eoc.c **** ********************************************************************************
 331:.\Generated_Source\PSoC4/eoc.c **** *
 332:.\Generated_Source\PSoC4/eoc.c **** * Summary:
 333:.\Generated_Source\PSoC4/eoc.c **** *   Clears a pending interrupt.
 334:.\Generated_Source\PSoC4/eoc.c **** *
 335:.\Generated_Source\PSoC4/eoc.c **** * Parameters:
 336:.\Generated_Source\PSoC4/eoc.c **** *   None
 337:.\Generated_Source\PSoC4/eoc.c **** *
ARM GAS  C:\Users\Computer\AppData\Local\Temp\ccUGCCmd.s 			page 16


 338:.\Generated_Source\PSoC4/eoc.c **** * Return:
 339:.\Generated_Source\PSoC4/eoc.c **** *   None
 340:.\Generated_Source\PSoC4/eoc.c **** *
 341:.\Generated_Source\PSoC4/eoc.c **** *******************************************************************************/
 342:.\Generated_Source\PSoC4/eoc.c **** void eoc_ClearPending(void)
 343:.\Generated_Source\PSoC4/eoc.c **** {
 465              		.loc 1 343 0
 466              		.cfi_startproc
 344:.\Generated_Source\PSoC4/eoc.c ****     *eoc_INTC_CLR_PD = eoc__INTC_MASK;
 467              		.loc 1 344 0
 468 0000 014B     		ldr	r3, .L36
 469 0002 0422     		mov	r2, #4
 470 0004 1A60     		str	r2, [r3]
 345:.\Generated_Source\PSoC4/eoc.c **** }
 471              		.loc 1 345 0
 472              		@ sp needed for prologue
 473 0006 7047     		bx	lr
 474              	.L37:
 475              		.align	2
 476              	.L36:
 477 0008 80E200E0 		.word	-536812928
 478              		.cfi_endproc
 479              	.LFE12:
 480              		.size	eoc_ClearPending, .-eoc_ClearPending
 481              		.text
 482              	.Letext0:
 483              		.file 2 "./Generated_Source/PSoC4/cytypes.h"
 484              		.file 3 "./Generated_Source/PSoC4/CyLib.h"