ARM GAS  C:\Users\Computer\AppData\Local\Temp\ccr7ZqCM.s 			page 1


   1              		.cpu cortex-m0
   2              		.fpu softvfp
   3              		.eabi_attribute 20, 1
   4              		.eabi_attribute 21, 1
   5              		.eabi_attribute 23, 3
   6              		.eabi_attribute 24, 1
   7              		.eabi_attribute 25, 1
   8              		.eabi_attribute 26, 1
   9              		.eabi_attribute 30, 2
  10              		.eabi_attribute 34, 0
  11              		.eabi_attribute 18, 4
  12              		.code	16
  13              		.file	"I2CDriver.c"
  14              		.text
  15              	.Ltext0:
  16              		.cfi_sections	.debug_frame
  17              		.global	__aeabi_uidiv
  18              		.global	__aeabi_uidivmod
  19              		.section	.text.decToBcd,"ax",%progbits
  20              		.align	2
  21              		.global	decToBcd
  22              		.code	16
  23              		.thumb_func
  24              		.type	decToBcd, %function
  25              	decToBcd:
  26              	.LFB33:
  27              		.file 1 ".\\I2CDriver.c"
   1:.\I2CDriver.c **** /* ========================================
   2:.\I2CDriver.c ****  *
   3:.\I2CDriver.c ****  * Copyright YOUR COMPANY, THE YEAR
   4:.\I2CDriver.c ****  * All Rights Reserved
   5:.\I2CDriver.c ****  * UNPUBLISHED, LICENSED SOFTWARE.
   6:.\I2CDriver.c ****  *
   7:.\I2CDriver.c ****  * CONFIDENTIAL AND PROPRIETARY INFORMATION
   8:.\I2CDriver.c ****  * WHICH IS THE PROPERTY OF your company.
   9:.\I2CDriver.c ****  *
  10:.\I2CDriver.c ****  * ========================================
  11:.\I2CDriver.c **** */
  12:.\I2CDriver.c **** 
  13:.\I2CDriver.c **** #include <device.h>
  14:.\I2CDriver.c **** #include "I2CDriver.h"
  15:.\I2CDriver.c **** 
  16:.\I2CDriver.c **** //I2C Constants
  17:.\I2CDriver.c **** #define I2C_ACK             0x00
  18:.\I2CDriver.c **** #define I2C_NACK            0xff
  19:.\I2CDriver.c **** #define I2C_WRITE           0x00
  20:.\I2CDriver.c **** #define I2C_READ            0xff
  21:.\I2CDriver.c **** #define RTC_ADDR 			0x51
  22:.\I2CDriver.c **** #define RTC_CTRLSTAT_ADDR	0x00
  23:.\I2CDriver.c **** #define RTC_SEC_ADDR		0x02
  24:.\I2CDriver.c **** #define RTC_MIN_ADDR		0x03
  25:.\I2CDriver.c **** #define RTC_HOUR_ADDR 		0x04
  26:.\I2CDriver.c **** 
  27:.\I2CDriver.c **** 
  28:.\I2CDriver.c **** uint8 decToBcd( uint8 val )
  29:.\I2CDriver.c **** {
  28              		.loc 1 29 0
ARM GAS  C:\Users\Computer\AppData\Local\Temp\ccr7ZqCM.s 			page 2


  29              		.cfi_startproc
  30              	.LVL0:
  31 0000 38B5     		push	{r3, r4, r5, lr}
  32              	.LCFI0:
  33              		.cfi_def_cfa_offset 16
  34              		.cfi_offset 3, -16
  35              		.cfi_offset 4, -12
  36              		.cfi_offset 5, -8
  37              		.cfi_offset 14, -4
  30:.\I2CDriver.c ****     return (uint8) ((val / 10 * 16) + (val % 10));
  38              		.loc 1 30 0
  39 0002 0A21     		mov	r1, #10
  29:.\I2CDriver.c **** {
  40              		.loc 1 29 0
  41 0004 041C     		mov	r4, r0
  42              		.loc 1 30 0
  43 0006 FFF7FEFF 		bl	__aeabi_uidiv
  44              	.LVL1:
  45 000a 0A21     		mov	r1, #10
  46 000c 0501     		lsl	r5, r0, #4
  47 000e 201C     		mov	r0, r4
  48 0010 FFF7FEFF 		bl	__aeabi_uidivmod
  49              	.LVL2:
  50 0014 6818     		add	r0, r5, r1
  51 0016 C0B2     		uxtb	r0, r0
  31:.\I2CDriver.c **** }
  52              		.loc 1 31 0
  53              		@ sp needed for prologue
  54 0018 38BD     		pop	{r3, r4, r5, pc}
  55              		.cfi_endproc
  56              	.LFE33:
  57              		.size	decToBcd, .-decToBcd
  58 001a C046     		.section	.text.bcdToDec,"ax",%progbits
  59              		.align	2
  60              		.global	bcdToDec
  61              		.code	16
  62              		.thumb_func
  63              		.type	bcdToDec, %function
  64              	bcdToDec:
  65              	.LFB34:
  32:.\I2CDriver.c ****  
  33:.\I2CDriver.c **** 
  34:.\I2CDriver.c **** uint8 bcdToDec( uint8 val )
  35:.\I2CDriver.c **** {
  66              		.loc 1 35 0
  67              		.cfi_startproc
  68              	.LVL3:
  36:.\I2CDriver.c ****     return (uint8) ((val / 16 * 10) + (val % 16));
  69              		.loc 1 36 0
  70 0000 0309     		lsr	r3, r0, #4
  71 0002 9A00     		lsl	r2, r3, #2
  72 0004 D118     		add	r1, r2, r3
  73 0006 0F22     		mov	r2, #15
  74 0008 4B00     		lsl	r3, r1, #1
  75 000a 1040     		and	r0, r2
  76              	.LVL4:
  77 000c 1818     		add	r0, r3, r0
ARM GAS  C:\Users\Computer\AppData\Local\Temp\ccr7ZqCM.s 			page 3


  78 000e C0B2     		uxtb	r0, r0
  37:.\I2CDriver.c **** }
  79              		.loc 1 37 0
  80              		@ sp needed for prologue
  81 0010 7047     		bx	lr
  82              		.cfi_endproc
  83              	.LFE34:
  84              		.size	bcdToDec, .-bcdToDec
  85 0012 C046     		.section	.text.localTimeInit,"ax",%progbits
  86              		.align	2
  87              		.global	localTimeInit
  88              		.code	16
  89              		.thumb_func
  90              		.type	localTimeInit, %function
  91              	localTimeInit:
  92              	.LFB35:
  38:.\I2CDriver.c **** 
  39:.\I2CDriver.c **** void localTimeInit(PCF8583 *RTC)
  40:.\I2CDriver.c **** {
  93              		.loc 1 40 0
  94              		.cfi_startproc
  95              	.LVL5:
  41:.\I2CDriver.c **** 	RTC->hour = 12;
  96              		.loc 1 41 0
  97 0000 0C23     		mov	r3, #12
  42:.\I2CDriver.c **** 	RTC->minute = 40;
  98              		.loc 1 42 0
  99 0002 2821     		mov	r1, #40
  41:.\I2CDriver.c **** 	RTC->hour = 12;
 100              		.loc 1 41 0
 101 0004 0370     		strb	r3, [r0]
 102              		.loc 1 42 0
 103 0006 4170     		strb	r1, [r0, #1]
  43:.\I2CDriver.c **** 	RTC->sec = 0;
  44:.\I2CDriver.c **** 	RTC->day = 1;
 104              		.loc 1 44 0
 105 0008 0123     		mov	r3, #1
  43:.\I2CDriver.c **** 	RTC->sec = 0;
 106              		.loc 1 43 0
 107 000a 0022     		mov	r2, #0
  45:.\I2CDriver.c **** 	RTC->weekday = 1;
  46:.\I2CDriver.c **** 	RTC->month = 2;
 108              		.loc 1 46 0
 109 000c 0221     		mov	r1, #2
  43:.\I2CDriver.c **** 	RTC->sec = 0;
 110              		.loc 1 43 0
 111 000e 8270     		strb	r2, [r0, #2]
  44:.\I2CDriver.c **** 	RTC->day = 1;
 112              		.loc 1 44 0
 113 0010 C370     		strb	r3, [r0, #3]
  45:.\I2CDriver.c **** 	RTC->weekday = 1;
 114              		.loc 1 45 0
 115 0012 0371     		strb	r3, [r0, #4]
 116              		.loc 1 46 0
 117 0014 4171     		strb	r1, [r0, #5]
  47:.\I2CDriver.c **** 	RTC->year = 1;
 118              		.loc 1 47 0
ARM GAS  C:\Users\Computer\AppData\Local\Temp\ccr7ZqCM.s 			page 4


 119 0016 8371     		strb	r3, [r0, #6]
  48:.\I2CDriver.c **** 	RTC->pm = 1;
 120              		.loc 1 48 0
 121 0018 C371     		strb	r3, [r0, #7]
  49:.\I2CDriver.c **** 	RTC->format = 1;
 122              		.loc 1 49 0
 123 001a 0372     		strb	r3, [r0, #8]
  50:.\I2CDriver.c **** }
 124              		.loc 1 50 0
 125              		@ sp needed for prologue
 126 001c 7047     		bx	lr
 127              		.cfi_endproc
 128              	.LFE35:
 129              		.size	localTimeInit, .-localTimeInit
 130 001e C046     		.section	.text.randomTimeInit,"ax",%progbits
 131              		.align	2
 132              		.global	randomTimeInit
 133              		.code	16
 134              		.thumb_func
 135              		.type	randomTimeInit, %function
 136              	randomTimeInit:
 137              	.LFB36:
  51:.\I2CDriver.c **** 
  52:.\I2CDriver.c **** void randomTimeInit(PCF8583 *RTC)
  53:.\I2CDriver.c **** {
 138              		.loc 1 53 0
 139              		.cfi_startproc
 140              	.LVL6:
  54:.\I2CDriver.c **** 	RTC->hour = 0;
 141              		.loc 1 54 0
 142 0000 0023     		mov	r3, #0
 143 0002 0370     		strb	r3, [r0]
  55:.\I2CDriver.c **** 	RTC->minute = 0;
 144              		.loc 1 55 0
 145 0004 4370     		strb	r3, [r0, #1]
  56:.\I2CDriver.c **** 	RTC->sec = 0;
 146              		.loc 1 56 0
 147 0006 8370     		strb	r3, [r0, #2]
  57:.\I2CDriver.c **** 	RTC->day = 0;
 148              		.loc 1 57 0
 149 0008 C370     		strb	r3, [r0, #3]
  58:.\I2CDriver.c **** 	RTC->weekday = 0;
 150              		.loc 1 58 0
 151 000a 0371     		strb	r3, [r0, #4]
  59:.\I2CDriver.c **** 	RTC->month = 0;
 152              		.loc 1 59 0
 153 000c 4371     		strb	r3, [r0, #5]
  60:.\I2CDriver.c **** 	RTC->year = 0;
 154              		.loc 1 60 0
 155 000e 8371     		strb	r3, [r0, #6]
  61:.\I2CDriver.c **** 	RTC->pm = 0;
 156              		.loc 1 61 0
 157 0010 C371     		strb	r3, [r0, #7]
  62:.\I2CDriver.c **** 	RTC->format = 0;
 158              		.loc 1 62 0
 159 0012 0372     		strb	r3, [r0, #8]
  63:.\I2CDriver.c **** }
ARM GAS  C:\Users\Computer\AppData\Local\Temp\ccr7ZqCM.s 			page 5


 160              		.loc 1 63 0
 161              		@ sp needed for prologue
 162 0014 7047     		bx	lr
 163              		.cfi_endproc
 164              	.LFE36:
 165              		.size	randomTimeInit, .-randomTimeInit
 166 0016 C046     		.section	.text.i2cWrite,"ax",%progbits
 167              		.align	2
 168              		.global	i2cWrite
 169              		.code	16
 170              		.thumb_func
 171              		.type	i2cWrite, %function
 172              	i2cWrite:
 173              	.LFB37:
  64:.\I2CDriver.c **** 
  65:.\I2CDriver.c **** uint8 i2cWrite(uint8 Reg_Addr,uint8 Reg_Data)
  66:.\I2CDriver.c **** {
 174              		.loc 1 66 0
 175              		.cfi_startproc
 176              	.LVL7:
 177 0000 38B5     		push	{r3, r4, r5, lr}
 178              	.LCFI1:
 179              		.cfi_def_cfa_offset 16
 180              		.cfi_offset 3, -16
 181              		.cfi_offset 4, -12
 182              		.cfi_offset 5, -8
 183              		.cfi_offset 14, -4
 184              		.loc 1 66 0
 185 0002 051C     		mov	r5, r0
 186 0004 0C1C     		mov	r4, r1
  67:.\I2CDriver.c ****     uint8 I2C_Status;
  68:.\I2CDriver.c ****     I2C_Status = RTC_I2CMasterSendStart(RTC_ADDR, I2C_WRITE);
 187              		.loc 1 68 0
 188 0006 5120     		mov	r0, #81
 189              	.LVL8:
 190 0008 0021     		mov	r1, #0
 191              	.LVL9:
 192 000a FFF7FEFF 		bl	RTC_I2CMasterSendStart
 193              	.LVL10:
  69:.\I2CDriver.c ****     I2C_Status = RTC_I2CMasterWriteByte(Reg_Addr);
 194              		.loc 1 69 0
 195 000e 281C     		mov	r0, r5
 196 0010 FFF7FEFF 		bl	RTC_I2CMasterWriteByte
 197              	.LVL11:
  70:.\I2CDriver.c ****     I2C_Status = RTC_I2CMasterWriteByte(Reg_Data);
 198              		.loc 1 70 0
 199 0014 201C     		mov	r0, r4
 200 0016 FFF7FEFF 		bl	RTC_I2CMasterWriteByte
 201              	.LVL12:
  71:.\I2CDriver.c ****     I2C_Status = RTC_I2CMasterSendStop();
 202              		.loc 1 71 0
 203 001a FFF7FEFF 		bl	RTC_I2CMasterSendStop
 204              	.LVL13:
  72:.\I2CDriver.c **** 	return I2C_Status;
  73:.\I2CDriver.c **** }
 205              		.loc 1 73 0
 206              		@ sp needed for prologue
ARM GAS  C:\Users\Computer\AppData\Local\Temp\ccr7ZqCM.s 			page 6


  72:.\I2CDriver.c **** 	return I2C_Status;
 207              		.loc 1 72 0
 208 001e C0B2     		uxtb	r0, r0
 209              	.LVL14:
 210              		.loc 1 73 0
 211 0020 38BD     		pop	{r3, r4, r5, pc}
 212              		.cfi_endproc
 213              	.LFE37:
 214              		.size	i2cWrite, .-i2cWrite
 215 0022 C046     		.section	.text.setTime,"ax",%progbits
 216              		.align	2
 217              		.global	setTime
 218              		.code	16
 219              		.thumb_func
 220              		.type	setTime, %function
 221              	setTime:
 222              	.LFB38:
  74:.\I2CDriver.c **** uint8 setTime(PCF8583 *RTC)
  75:.\I2CDriver.c **** {
 223              		.loc 1 75 0
 224              		.cfi_startproc
 225              	.LVL15:
 226 0000 70B5     		push	{r4, r5, r6, lr}
 227              	.LCFI2:
 228              		.cfi_def_cfa_offset 16
 229              		.cfi_offset 4, -16
 230              		.cfi_offset 5, -12
 231              		.cfi_offset 6, -8
 232              		.cfi_offset 14, -4
  76:.\I2CDriver.c **** 	uint8 I2C_Status;
  77:.\I2CDriver.c **** 	uint8 hour = (decToBcd(RTC->hour)&0x3F); 
 233              		.loc 1 77 0
 234 0002 0578     		ldrb	r5, [r0]
 235              	.LVL16:
  75:.\I2CDriver.c **** {
 236              		.loc 1 75 0
 237 0004 041C     		mov	r4, r0
 238              	.LVL17:
 239              	.LBB6:
 240              	.LBB7:
  30:.\I2CDriver.c ****     return (uint8) ((val / 10 * 16) + (val % 10));
 241              		.loc 1 30 0
 242 0006 0A21     		mov	r1, #10
 243 0008 281C     		mov	r0, r5
 244              	.LVL18:
 245 000a FFF7FEFF 		bl	__aeabi_uidiv
 246              	.LVL19:
 247 000e 0A21     		mov	r1, #10
 248 0010 0601     		lsl	r6, r0, #4
 249 0012 281C     		mov	r0, r5
 250 0014 FFF7FEFF 		bl	__aeabi_uidivmod
 251              	.LVL20:
 252              	.LBE7:
 253              	.LBE6:
  78:.\I2CDriver.c **** 	uint8 am = ((RTC->pm<<6)&0x40);
 254              		.loc 1 78 0
 255 0018 E379     		ldrb	r3, [r4, #7]
ARM GAS  C:\Users\Computer\AppData\Local\Temp\ccr7ZqCM.s 			page 7


 256              	.LVL21:
 257              	.LBB9:
 258              	.LBB8:
  30:.\I2CDriver.c ****     return (uint8) ((val / 10 * 16) + (val % 10));
 259              		.loc 1 30 0
 260 001a 7018     		add	r0, r6, r1
 261              	.LBE8:
 262              	.LBE9:
 263              		.loc 1 78 0
 264 001c 9A01     		lsl	r2, r3, #6
  79:.\I2CDriver.c **** 	uint8 format = ((RTC->format)<<7)&0x80;
 265              		.loc 1 79 0
 266 001e 267A     		ldrb	r6, [r4, #8]
 267              	.LVL22:
  78:.\I2CDriver.c **** 	uint8 am = ((RTC->pm<<6)&0x40);
 268              		.loc 1 78 0
 269 0020 4025     		mov	r5, #64
 270              	.LVL23:
  77:.\I2CDriver.c **** 	uint8 hour = (decToBcd(RTC->hour)&0x3F); 
 271              		.loc 1 77 0
 272 0022 3F21     		mov	r1, #63
  78:.\I2CDriver.c **** 	uint8 am = ((RTC->pm<<6)&0x40);
 273              		.loc 1 78 0
 274 0024 2A40     		and	r2, r5
  77:.\I2CDriver.c **** 	uint8 hour = (decToBcd(RTC->hour)&0x3F); 
 275              		.loc 1 77 0
 276 0026 0140     		and	r1, r0
  80:.\I2CDriver.c **** 	uint8 time = format|am|hour;
 277              		.loc 1 80 0
 278 0028 1143     		orr	r1, r2
  79:.\I2CDriver.c **** 	uint8 format = ((RTC->format)<<7)&0x80;
 279              		.loc 1 79 0
 280 002a F001     		lsl	r0, r6, #7
 281              		.loc 1 80 0
 282 002c 0143     		orr	r1, r0
  81:.\I2CDriver.c **** 	I2C_Status = i2cWrite(RTC_HOUR_ADDR,time);
 283              		.loc 1 81 0
 284 002e C9B2     		uxtb	r1, r1
 285 0030 0420     		mov	r0, #4
 286 0032 FFF7FEFF 		bl	i2cWrite
 287              	.LVL24:
  82:.\I2CDriver.c **** 	I2C_Status = i2cWrite(RTC_MIN_ADDR,decToBcd(RTC->minute));
 288              		.loc 1 82 0
 289 0036 6478     		ldrb	r4, [r4, #1]
 290              	.LVL25:
 291              	.LBB10:
 292              	.LBB11:
  30:.\I2CDriver.c ****     return (uint8) ((val / 10 * 16) + (val % 10));
 293              		.loc 1 30 0
 294 0038 0A21     		mov	r1, #10
 295 003a 201C     		mov	r0, r4
 296 003c FFF7FEFF 		bl	__aeabi_uidiv
 297              	.LVL26:
 298 0040 0A21     		mov	r1, #10
 299 0042 0501     		lsl	r5, r0, #4
 300 0044 201C     		mov	r0, r4
 301 0046 FFF7FEFF 		bl	__aeabi_uidivmod
ARM GAS  C:\Users\Computer\AppData\Local\Temp\ccr7ZqCM.s 			page 8


 302              	.LVL27:
 303 004a 6918     		add	r1, r5, r1
 304              	.LBE11:
 305              	.LBE10:
 306              		.loc 1 82 0
 307 004c C9B2     		uxtb	r1, r1
 308 004e 0320     		mov	r0, #3
 309 0050 FFF7FEFF 		bl	i2cWrite
 310              	.LVL28:
  83:.\I2CDriver.c **** 	return I2C_Status;
  84:.\I2CDriver.c **** }
 311              		.loc 1 84 0
 312              		@ sp needed for prologue
 313              	.LVL29:
 314              	.LVL30:
 315 0054 70BD     		pop	{r4, r5, r6, pc}
 316              		.cfi_endproc
 317              	.LFE38:
 318              		.size	setTime, .-setTime
 319 0056 C046     		.section	.text.getTime,"ax",%progbits
 320              		.align	2
 321              		.global	getTime
 322              		.code	16
 323              		.thumb_func
 324              		.type	getTime, %function
 325              	getTime:
 326              	.LFB39:
  85:.\I2CDriver.c **** 
  86:.\I2CDriver.c **** 
  87:.\I2CDriver.c **** 
  88:.\I2CDriver.c **** 
  89:.\I2CDriver.c **** uint8 getTime(PCF8583 *RTC)
  90:.\I2CDriver.c **** {
 327              		.loc 1 90 0
 328              		.cfi_startproc
 329              	.LVL31:
 330 0000 10B5     		push	{r4, lr}
 331              	.LCFI3:
 332              		.cfi_def_cfa_offset 8
 333              		.cfi_offset 4, -8
 334              		.cfi_offset 14, -4
  91:.\I2CDriver.c **** 	uint8 I2C_Status;
  92:.\I2CDriver.c **** 	I2C_Status = RTC_I2CMasterSendStart(RTC_ADDR, I2C_WRITE);
 335              		.loc 1 92 0
 336 0002 0021     		mov	r1, #0
  90:.\I2CDriver.c **** {
 337              		.loc 1 90 0
 338 0004 041C     		mov	r4, r0
 339              		.loc 1 92 0
 340 0006 5120     		mov	r0, #81
 341              	.LVL32:
 342 0008 FFF7FEFF 		bl	RTC_I2CMasterSendStart
 343              	.LVL33:
  93:.\I2CDriver.c **** 	I2C_Status = RTC_I2CMasterWriteByte(RTC_SEC_ADDR);
 344              		.loc 1 93 0
 345 000c 0220     		mov	r0, #2
 346 000e FFF7FEFF 		bl	RTC_I2CMasterWriteByte
ARM GAS  C:\Users\Computer\AppData\Local\Temp\ccr7ZqCM.s 			page 9


 347              	.LVL34:
  94:.\I2CDriver.c ****     I2C_Status = RTC_I2CMasterSendRestart(RTC_ADDR, I2C_READ);
 348              		.loc 1 94 0
 349 0012 FF21     		mov	r1, #255
 350 0014 5120     		mov	r0, #81
 351 0016 FFF7FEFF 		bl	RTC_I2CMasterSendRestart
 352              	.LVL35:
  95:.\I2CDriver.c ****     RTC->sec = RTC_I2CMasterReadByte(RTC_I2C_ACK_DATA);
 353              		.loc 1 95 0
 354 001a 0020     		mov	r0, #0
 355 001c FFF7FEFF 		bl	RTC_I2CMasterReadByte
 356              	.LVL36:
 357 0020 A070     		strb	r0, [r4, #2]
  96:.\I2CDriver.c ****     RTC->minute = RTC_I2CMasterReadByte(RTC_I2C_ACK_DATA);
 358              		.loc 1 96 0
 359 0022 0020     		mov	r0, #0
 360 0024 FFF7FEFF 		bl	RTC_I2CMasterReadByte
 361              	.LVL37:
 362 0028 6070     		strb	r0, [r4, #1]
  97:.\I2CDriver.c ****     RTC->hour = RTC_I2CMasterReadByte(RTC_I2C_NAK_DATA)& 0x3F;
 363              		.loc 1 97 0
 364 002a 0120     		mov	r0, #1
 365 002c FFF7FEFF 		bl	RTC_I2CMasterReadByte
 366              	.LVL38:
 367 0030 3F23     		mov	r3, #63
 368 0032 1840     		and	r0, r3
 369 0034 2070     		strb	r0, [r4]
  98:.\I2CDriver.c **** 	I2C_Status = RTC_I2CMasterSendStop();
 370              		.loc 1 98 0
 371 0036 FFF7FEFF 		bl	RTC_I2CMasterSendStop
 372              	.LVL39:
  99:.\I2CDriver.c **** 	return I2C_Status;
 100:.\I2CDriver.c **** 	
 101:.\I2CDriver.c **** }
 373              		.loc 1 101 0
 374              		@ sp needed for prologue
  99:.\I2CDriver.c **** 	return I2C_Status;
 375              		.loc 1 99 0
 376 003a C0B2     		uxtb	r0, r0
 377              	.LVL40:
 378              	.LVL41:
 379              		.loc 1 101 0
 380 003c 10BD     		pop	{r4, pc}
 381              		.cfi_endproc
 382              	.LFE39:
 383              		.size	getTime, .-getTime
 384 003e C046     		.section	.text.i2cBurstRead,"ax",%progbits
 385              		.align	2
 386              		.global	i2cBurstRead
 387              		.code	16
 388              		.thumb_func
 389              		.type	i2cBurstRead, %function
 390              	i2cBurstRead:
 391              	.LFB40:
 102:.\I2CDriver.c **** 
 103:.\I2CDriver.c **** void i2cBurstRead(uint8 Reg_Addr, uint8 *readData,uint8 dataSize)
 104:.\I2CDriver.c **** {
ARM GAS  C:\Users\Computer\AppData\Local\Temp\ccr7ZqCM.s 			page 10


 392              		.loc 1 104 0
 393              		.cfi_startproc
 394              	.LVL42:
 395 0000 F0B5     		push	{r4, r5, r6, r7, lr}
 396              	.LCFI4:
 397              		.cfi_def_cfa_offset 20
 398              		.cfi_offset 4, -20
 399              		.cfi_offset 5, -16
 400              		.cfi_offset 6, -12
 401              		.cfi_offset 7, -8
 402              		.cfi_offset 14, -4
 403 0002 4746     		mov	r7, r8
 404 0004 80B4     		push	{r7}
 405              	.LCFI5:
 406              		.cfi_def_cfa_offset 24
 407              		.cfi_offset 8, -24
 408              		.loc 1 104 0
 409 0006 041C     		mov	r4, r0
 410 0008 0E1C     		mov	r6, r1
 105:.\I2CDriver.c **** 	uint8 I2C_Status;
 106:.\I2CDriver.c **** 	I2C_Status = RTC_I2CMasterSendStart(RTC_ADDR, I2C_WRITE);
 411              		.loc 1 106 0
 412 000a 5120     		mov	r0, #81
 413              	.LVL43:
 414 000c 0021     		mov	r1, #0
 415              	.LVL44:
 104:.\I2CDriver.c **** {
 416              		.loc 1 104 0
 417 000e 171C     		mov	r7, r2
 418              		.loc 1 106 0
 419 0010 FFF7FEFF 		bl	RTC_I2CMasterSendStart
 420              	.LVL45:
 107:.\I2CDriver.c **** 	I2C_Status = RTC_I2CMasterWriteByte(Reg_Addr);
 421              		.loc 1 107 0
 422 0014 201C     		mov	r0, r4
 423 0016 FFF7FEFF 		bl	RTC_I2CMasterWriteByte
 424              	.LVL46:
 108:.\I2CDriver.c ****     I2C_Status = RTC_I2CMasterSendRestart(RTC_ADDR, I2C_READ);
 425              		.loc 1 108 0
 426 001a 5120     		mov	r0, #81
 427 001c FF21     		mov	r1, #255
 428 001e FFF7FEFF 		bl	RTC_I2CMasterSendRestart
 429              	.LVL47:
 109:.\I2CDriver.c **** 	if(RTC_I2C_MSTR_NO_ERROR == I2C_Status)/* Check if transfer completed without errors*/
 430              		.loc 1 109 0
 431 0022 C0B2     		uxtb	r0, r0
 432              	.LVL48:
 433 0024 0028     		cmp	r0, #0
 434 0026 2AD1     		bne	.L10
 435              	.LVL49:
 436              	.LBB12:
 110:.\I2CDriver.c **** 	{
 111:.\I2CDriver.c **** 		/* Read array of dataSize bytes */
 112:.\I2CDriver.c ****         int i;
 113:.\I2CDriver.c **** 		for(i=0; i<dataSize; i++)
 437              		.loc 1 113 0 discriminator 1
 438 0028 002F     		cmp	r7, #0
ARM GAS  C:\Users\Computer\AppData\Local\Temp\ccr7ZqCM.s 			page 11


 439 002a 28D0     		beq	.L10
 440 002c 7D1E     		sub	r5, r7, #1
 441 002e 0123     		mov	r3, #1
 442 0030 2B40     		and	r3, r5
 443 0032 9846     		mov	r8, r3
 114:.\I2CDriver.c **** 		{ 
 115:.\I2CDriver.c **** 			if(i < dataSize-1)
 444              		.loc 1 115 0
 445 0034 A842     		cmp	r0, r5
 446 0036 27DB     		blt	.L36
 116:.\I2CDriver.c **** 			{
 117:.\I2CDriver.c **** 				readData[i] = RTC_I2CMasterReadByte(RTC_I2C_ACK_DATA);
 118:.\I2CDriver.c **** 			}
 119:.\I2CDriver.c **** 			else
 120:.\I2CDriver.c **** 			{
 121:.\I2CDriver.c **** 				readData[i] = RTC_I2CMasterReadByte(RTC_I2C_NAK_DATA);
 447              		.loc 1 121 0
 448 0038 0120     		mov	r0, #1
 449 003a FFF7FEFF 		bl	RTC_I2CMasterReadByte
 450              	.LVL50:
 451 003e 3070     		strb	r0, [r6]
 452              	.L30:
 113:.\I2CDriver.c **** 		for(i=0; i<dataSize; i++)
 453              		.loc 1 113 0
 454 0040 0124     		mov	r4, #1
 455 0042 BC42     		cmp	r4, r7
 456 0044 1BDA     		bge	.L10
 457 0046 4146     		mov	r1, r8
 458 0048 0029     		cmp	r1, #0
 459 004a 08D0     		beq	.L13
 115:.\I2CDriver.c **** 			if(i < dataSize-1)
 460              		.loc 1 115 0
 461 004c AC42     		cmp	r4, r5
 462 004e 0FDB     		blt	.L29
 463              	.L22:
 464              		.loc 1 121 0
 465 0050 0120     		mov	r0, #1
 466 0052 FFF7FEFF 		bl	RTC_I2CMasterReadByte
 467              	.LVL51:
 468 0056 3055     		strb	r0, [r6, r4]
 113:.\I2CDriver.c **** 		for(i=0; i<dataSize; i++)
 469              		.loc 1 113 0
 470 0058 0134     		add	r4, r4, #1
 471 005a BC42     		cmp	r4, r7
 472 005c 0FDA     		bge	.L10
 473              	.L13:
 115:.\I2CDriver.c **** 			if(i < dataSize-1)
 474              		.loc 1 115 0
 475 005e AC42     		cmp	r4, r5
 476 0060 17DA     		bge	.L11
 117:.\I2CDriver.c **** 				readData[i] = RTC_I2CMasterReadByte(RTC_I2C_ACK_DATA);
 477              		.loc 1 117 0
 478 0062 0020     		mov	r0, #0
 479 0064 FFF7FEFF 		bl	RTC_I2CMasterReadByte
 480              	.LVL52:
 481 0068 3055     		strb	r0, [r6, r4]
 482              	.L12:
ARM GAS  C:\Users\Computer\AppData\Local\Temp\ccr7ZqCM.s 			page 12


 113:.\I2CDriver.c **** 		for(i=0; i<dataSize; i++)
 483              		.loc 1 113 0
 484 006a 0134     		add	r4, r4, #1
 115:.\I2CDriver.c **** 			if(i < dataSize-1)
 485              		.loc 1 115 0
 486 006c AC42     		cmp	r4, r5
 487 006e EFDA     		bge	.L22
 488              	.L29:
 117:.\I2CDriver.c **** 				readData[i] = RTC_I2CMasterReadByte(RTC_I2C_ACK_DATA);
 489              		.loc 1 117 0
 490 0070 0020     		mov	r0, #0
 491 0072 FFF7FEFF 		bl	RTC_I2CMasterReadByte
 492              	.LVL53:
 493 0076 3055     		strb	r0, [r6, r4]
 113:.\I2CDriver.c **** 		for(i=0; i<dataSize; i++)
 494              		.loc 1 113 0
 495 0078 0134     		add	r4, r4, #1
 496 007a BC42     		cmp	r4, r7
 497 007c EFDB     		blt	.L13
 498              	.LVL54:
 499              	.L10:
 500              	.LBE12:
 122:.\I2CDriver.c **** 			}
 123:.\I2CDriver.c **** 		}
 124:.\I2CDriver.c **** 	}
 125:.\I2CDriver.c ****     I2C_Status = RTC_I2CMasterSendStop();
 501              		.loc 1 125 0
 502 007e FFF7FEFF 		bl	RTC_I2CMasterSendStop
 503              	.LVL55:
 126:.\I2CDriver.c **** }
 504              		.loc 1 126 0
 505              		@ sp needed for prologue
 506              	.LVL56:
 507 0082 04BC     		pop	{r2}
 508 0084 9046     		mov	r8, r2
 509 0086 F0BD     		pop	{r4, r5, r6, r7, pc}
 510              	.LVL57:
 511              	.L36:
 512              	.LBB13:
 117:.\I2CDriver.c **** 				readData[i] = RTC_I2CMasterReadByte(RTC_I2C_ACK_DATA);
 513              		.loc 1 117 0
 514 0088 0020     		mov	r0, #0
 515 008a FFF7FEFF 		bl	RTC_I2CMasterReadByte
 516              	.LVL58:
 517 008e 3070     		strb	r0, [r6]
 518 0090 D6E7     		b	.L30
 519              	.L11:
 121:.\I2CDriver.c **** 				readData[i] = RTC_I2CMasterReadByte(RTC_I2C_NAK_DATA);
 520              		.loc 1 121 0
 521 0092 0120     		mov	r0, #1
 522 0094 FFF7FEFF 		bl	RTC_I2CMasterReadByte
 523              	.LVL59:
 524 0098 3055     		strb	r0, [r6, r4]
 525 009a E6E7     		b	.L12
 526              	.LBE13:
 527              		.cfi_endproc
 528              	.LFE40:
ARM GAS  C:\Users\Computer\AppData\Local\Temp\ccr7ZqCM.s 			page 13


 529              		.size	i2cBurstRead, .-i2cBurstRead
 530              		.text
 531              	.Letext0:
 532              		.file 2 "./Generated_Source/PSoC4/cytypes.h"
 533              		.file 3 ".\\I2CDriver.h"
 534              		.file 4 "./Generated_Source/PSoC4/RTC_I2C.h"