ARM GAS  C:\Users\Steve\AppData\Local\Temp\ccYbX6J3.s 			page 1


   1              		.cpu cortex-m0
   2              		.fpu softvfp
   3              		.eabi_attribute 20, 1
   4              		.eabi_attribute 21, 1
   5              		.eabi_attribute 23, 3
   6              		.eabi_attribute 24, 1
   7              		.eabi_attribute 25, 1
   8              		.eabi_attribute 26, 1
   9              		.eabi_attribute 30, 2
  10              		.eabi_attribute 34, 0
  11              		.eabi_attribute 18, 4
  12              		.code	16
  13              		.file	"isr_2.c"
  14              		.text
  15              	.Ltext0:
  16              		.cfi_sections	.debug_frame
  17              		.section	.text.isr_2_Interrupt,"ax",%progbits
  18              		.align	2
  19              		.global	isr_2_Interrupt
  20              		.code	16
  21              		.thumb_func
  22              		.type	isr_2_Interrupt, %function
  23              	isr_2_Interrupt:
  24              	.LFB3:
  25              		.file 1 ".\\Generated_Source\\PSoC4\\isr_2.c"
   1:.\Generated_Source\PSoC4/isr_2.c **** /*******************************************************************************
   2:.\Generated_Source\PSoC4/isr_2.c **** * File Name: isr_2.c  
   3:.\Generated_Source\PSoC4/isr_2.c **** * Version 1.70
   4:.\Generated_Source\PSoC4/isr_2.c **** *
   5:.\Generated_Source\PSoC4/isr_2.c **** *  Description:
   6:.\Generated_Source\PSoC4/isr_2.c **** *   API for controlling the state of an interrupt.
   7:.\Generated_Source\PSoC4/isr_2.c **** *
   8:.\Generated_Source\PSoC4/isr_2.c **** *
   9:.\Generated_Source\PSoC4/isr_2.c **** *  Note:
  10:.\Generated_Source\PSoC4/isr_2.c **** *
  11:.\Generated_Source\PSoC4/isr_2.c **** ********************************************************************************
  12:.\Generated_Source\PSoC4/isr_2.c **** * Copyright 2008-2012, Cypress Semiconductor Corporation.  All rights reserved.
  13:.\Generated_Source\PSoC4/isr_2.c **** * You may use this file only in accordance with the license, terms, conditions, 
  14:.\Generated_Source\PSoC4/isr_2.c **** * disclaimers, and limitations in the end user license agreement accompanying 
  15:.\Generated_Source\PSoC4/isr_2.c **** * the software package with which this file was provided.
  16:.\Generated_Source\PSoC4/isr_2.c **** *******************************************************************************/
  17:.\Generated_Source\PSoC4/isr_2.c **** 
  18:.\Generated_Source\PSoC4/isr_2.c **** 
  19:.\Generated_Source\PSoC4/isr_2.c **** #include <cydevice_trm.h>
  20:.\Generated_Source\PSoC4/isr_2.c **** #include <CyLib.h>
  21:.\Generated_Source\PSoC4/isr_2.c **** #include <isr_2.h>
  22:.\Generated_Source\PSoC4/isr_2.c **** 
  23:.\Generated_Source\PSoC4/isr_2.c **** #if !defined(isr_2__REMOVED) /* Check for removal by optimization */
  24:.\Generated_Source\PSoC4/isr_2.c **** 
  25:.\Generated_Source\PSoC4/isr_2.c **** /*******************************************************************************
  26:.\Generated_Source\PSoC4/isr_2.c **** *  Place your includes, defines and code here 
  27:.\Generated_Source\PSoC4/isr_2.c **** ********************************************************************************/
  28:.\Generated_Source\PSoC4/isr_2.c **** /* `#START isr_2_intc` */
  29:.\Generated_Source\PSoC4/isr_2.c **** 
  30:.\Generated_Source\PSoC4/isr_2.c **** /* `#END` */
  31:.\Generated_Source\PSoC4/isr_2.c **** 
  32:.\Generated_Source\PSoC4/isr_2.c **** extern cyisraddress CyRamVectors[CYINT_IRQ_BASE + CY_NUM_INTERRUPTS];
ARM GAS  C:\Users\Steve\AppData\Local\Temp\ccYbX6J3.s 			page 2


  33:.\Generated_Source\PSoC4/isr_2.c **** 
  34:.\Generated_Source\PSoC4/isr_2.c **** /* Declared in startup, used to set unused interrupts to. */
  35:.\Generated_Source\PSoC4/isr_2.c **** CY_ISR_PROTO(IntDefaultHandler);
  36:.\Generated_Source\PSoC4/isr_2.c **** 
  37:.\Generated_Source\PSoC4/isr_2.c **** 
  38:.\Generated_Source\PSoC4/isr_2.c **** /*******************************************************************************
  39:.\Generated_Source\PSoC4/isr_2.c **** * Function Name: isr_2_Start
  40:.\Generated_Source\PSoC4/isr_2.c **** ********************************************************************************
  41:.\Generated_Source\PSoC4/isr_2.c **** *
  42:.\Generated_Source\PSoC4/isr_2.c **** * Summary:
  43:.\Generated_Source\PSoC4/isr_2.c **** *  Set up the interrupt and enable it.
  44:.\Generated_Source\PSoC4/isr_2.c **** *
  45:.\Generated_Source\PSoC4/isr_2.c **** * Parameters:  
  46:.\Generated_Source\PSoC4/isr_2.c **** *   None
  47:.\Generated_Source\PSoC4/isr_2.c **** *
  48:.\Generated_Source\PSoC4/isr_2.c **** * Return:
  49:.\Generated_Source\PSoC4/isr_2.c **** *   None
  50:.\Generated_Source\PSoC4/isr_2.c **** *
  51:.\Generated_Source\PSoC4/isr_2.c **** *******************************************************************************/
  52:.\Generated_Source\PSoC4/isr_2.c **** void isr_2_Start(void)
  53:.\Generated_Source\PSoC4/isr_2.c **** {
  54:.\Generated_Source\PSoC4/isr_2.c ****     /* For all we know the interrupt is active. */
  55:.\Generated_Source\PSoC4/isr_2.c ****     isr_2_Disable();
  56:.\Generated_Source\PSoC4/isr_2.c **** 
  57:.\Generated_Source\PSoC4/isr_2.c ****     /* Set the ISR to point to the isr_2 Interrupt. */
  58:.\Generated_Source\PSoC4/isr_2.c ****     isr_2_SetVector(&isr_2_Interrupt);
  59:.\Generated_Source\PSoC4/isr_2.c **** 
  60:.\Generated_Source\PSoC4/isr_2.c ****     /* Set the priority. */
  61:.\Generated_Source\PSoC4/isr_2.c ****     isr_2_SetPriority((uint8)isr_2_INTC_PRIOR_NUMBER);
  62:.\Generated_Source\PSoC4/isr_2.c **** 
  63:.\Generated_Source\PSoC4/isr_2.c ****     /* Enable it. */
  64:.\Generated_Source\PSoC4/isr_2.c ****     isr_2_Enable();
  65:.\Generated_Source\PSoC4/isr_2.c **** }
  66:.\Generated_Source\PSoC4/isr_2.c **** 
  67:.\Generated_Source\PSoC4/isr_2.c **** 
  68:.\Generated_Source\PSoC4/isr_2.c **** /*******************************************************************************
  69:.\Generated_Source\PSoC4/isr_2.c **** * Function Name: isr_2_StartEx
  70:.\Generated_Source\PSoC4/isr_2.c **** ********************************************************************************
  71:.\Generated_Source\PSoC4/isr_2.c **** *
  72:.\Generated_Source\PSoC4/isr_2.c **** * Summary:
  73:.\Generated_Source\PSoC4/isr_2.c **** *  Set up the interrupt and enable it.
  74:.\Generated_Source\PSoC4/isr_2.c **** *
  75:.\Generated_Source\PSoC4/isr_2.c **** * Parameters:  
  76:.\Generated_Source\PSoC4/isr_2.c **** *   address: Address of the ISR to set in the interrupt vector table.
  77:.\Generated_Source\PSoC4/isr_2.c **** *
  78:.\Generated_Source\PSoC4/isr_2.c **** * Return:
  79:.\Generated_Source\PSoC4/isr_2.c **** *   None
  80:.\Generated_Source\PSoC4/isr_2.c **** *
  81:.\Generated_Source\PSoC4/isr_2.c **** *******************************************************************************/
  82:.\Generated_Source\PSoC4/isr_2.c **** void isr_2_StartEx(cyisraddress address)
  83:.\Generated_Source\PSoC4/isr_2.c **** {
  84:.\Generated_Source\PSoC4/isr_2.c ****     /* For all we know the interrupt is active. */
  85:.\Generated_Source\PSoC4/isr_2.c ****     isr_2_Disable();
  86:.\Generated_Source\PSoC4/isr_2.c **** 
  87:.\Generated_Source\PSoC4/isr_2.c ****     /* Set the ISR to point to the isr_2 Interrupt. */
  88:.\Generated_Source\PSoC4/isr_2.c ****     isr_2_SetVector(address);
  89:.\Generated_Source\PSoC4/isr_2.c **** 
ARM GAS  C:\Users\Steve\AppData\Local\Temp\ccYbX6J3.s 			page 3


  90:.\Generated_Source\PSoC4/isr_2.c ****     /* Set the priority. */
  91:.\Generated_Source\PSoC4/isr_2.c ****     isr_2_SetPriority((uint8)isr_2_INTC_PRIOR_NUMBER);
  92:.\Generated_Source\PSoC4/isr_2.c **** 
  93:.\Generated_Source\PSoC4/isr_2.c ****     /* Enable it. */
  94:.\Generated_Source\PSoC4/isr_2.c ****     isr_2_Enable();
  95:.\Generated_Source\PSoC4/isr_2.c **** }
  96:.\Generated_Source\PSoC4/isr_2.c **** 
  97:.\Generated_Source\PSoC4/isr_2.c **** 
  98:.\Generated_Source\PSoC4/isr_2.c **** /*******************************************************************************
  99:.\Generated_Source\PSoC4/isr_2.c **** * Function Name: isr_2_Stop
 100:.\Generated_Source\PSoC4/isr_2.c **** ********************************************************************************
 101:.\Generated_Source\PSoC4/isr_2.c **** *
 102:.\Generated_Source\PSoC4/isr_2.c **** * Summary:
 103:.\Generated_Source\PSoC4/isr_2.c **** *   Disables and removes the interrupt.
 104:.\Generated_Source\PSoC4/isr_2.c **** *
 105:.\Generated_Source\PSoC4/isr_2.c **** * Parameters:  
 106:.\Generated_Source\PSoC4/isr_2.c **** *
 107:.\Generated_Source\PSoC4/isr_2.c **** * Return:
 108:.\Generated_Source\PSoC4/isr_2.c **** *   None
 109:.\Generated_Source\PSoC4/isr_2.c **** *
 110:.\Generated_Source\PSoC4/isr_2.c **** *******************************************************************************/
 111:.\Generated_Source\PSoC4/isr_2.c **** void isr_2_Stop(void)
 112:.\Generated_Source\PSoC4/isr_2.c **** {
 113:.\Generated_Source\PSoC4/isr_2.c ****     /* Disable this interrupt. */
 114:.\Generated_Source\PSoC4/isr_2.c ****     isr_2_Disable();
 115:.\Generated_Source\PSoC4/isr_2.c **** 
 116:.\Generated_Source\PSoC4/isr_2.c ****     /* Set the ISR to point to the passive one. */
 117:.\Generated_Source\PSoC4/isr_2.c ****     isr_2_SetVector(&IntDefaultHandler);
 118:.\Generated_Source\PSoC4/isr_2.c **** }
 119:.\Generated_Source\PSoC4/isr_2.c **** 
 120:.\Generated_Source\PSoC4/isr_2.c **** 
 121:.\Generated_Source\PSoC4/isr_2.c **** /*******************************************************************************
 122:.\Generated_Source\PSoC4/isr_2.c **** * Function Name: isr_2_Interrupt
 123:.\Generated_Source\PSoC4/isr_2.c **** ********************************************************************************
 124:.\Generated_Source\PSoC4/isr_2.c **** *
 125:.\Generated_Source\PSoC4/isr_2.c **** * Summary:
 126:.\Generated_Source\PSoC4/isr_2.c **** *   The default Interrupt Service Routine for isr_2.
 127:.\Generated_Source\PSoC4/isr_2.c **** *
 128:.\Generated_Source\PSoC4/isr_2.c **** *   Add custom code between the coments to keep the next version of this file
 129:.\Generated_Source\PSoC4/isr_2.c **** *   from over writting your code.
 130:.\Generated_Source\PSoC4/isr_2.c **** *
 131:.\Generated_Source\PSoC4/isr_2.c **** * Parameters:  
 132:.\Generated_Source\PSoC4/isr_2.c **** *   None
 133:.\Generated_Source\PSoC4/isr_2.c **** *
 134:.\Generated_Source\PSoC4/isr_2.c **** * Return:
 135:.\Generated_Source\PSoC4/isr_2.c **** *   None
 136:.\Generated_Source\PSoC4/isr_2.c **** *
 137:.\Generated_Source\PSoC4/isr_2.c **** *******************************************************************************/
 138:.\Generated_Source\PSoC4/isr_2.c **** CY_ISR(isr_2_Interrupt)
 139:.\Generated_Source\PSoC4/isr_2.c **** {
  26              		.loc 1 139 0
  27              		.cfi_startproc
 140:.\Generated_Source\PSoC4/isr_2.c ****     /*  Place your Interrupt code here. */
 141:.\Generated_Source\PSoC4/isr_2.c ****     /* `#START isr_2_Interrupt` */
 142:.\Generated_Source\PSoC4/isr_2.c **** 
 143:.\Generated_Source\PSoC4/isr_2.c ****     /* `#END` */
 144:.\Generated_Source\PSoC4/isr_2.c **** }
ARM GAS  C:\Users\Steve\AppData\Local\Temp\ccYbX6J3.s 			page 4


  28              		.loc 1 144 0
  29              		@ sp needed for prologue
  30 0000 7047     		bx	lr
  31              		.cfi_endproc
  32              	.LFE3:
  33              		.size	isr_2_Interrupt, .-isr_2_Interrupt
  34 0002 C046     		.section	.text.isr_2_Stop,"ax",%progbits
  35              		.align	2
  36              		.global	isr_2_Stop
  37              		.code	16
  38              		.thumb_func
  39              		.type	isr_2_Stop, %function
  40              	isr_2_Stop:
  41              	.LFB2:
 112:.\Generated_Source\PSoC4/isr_2.c **** {
  42              		.loc 1 112 0
  43              		.cfi_startproc
  44              	.LBB18:
  45              	.LBB19:
 145:.\Generated_Source\PSoC4/isr_2.c **** 
 146:.\Generated_Source\PSoC4/isr_2.c **** 
 147:.\Generated_Source\PSoC4/isr_2.c **** /*******************************************************************************
 148:.\Generated_Source\PSoC4/isr_2.c **** * Function Name: isr_2_SetVector
 149:.\Generated_Source\PSoC4/isr_2.c **** ********************************************************************************
 150:.\Generated_Source\PSoC4/isr_2.c **** *
 151:.\Generated_Source\PSoC4/isr_2.c **** * Summary:
 152:.\Generated_Source\PSoC4/isr_2.c **** *   Change the ISR vector for the Interrupt. Note calling isr_2_Start
 153:.\Generated_Source\PSoC4/isr_2.c **** *   will override any effect this method would have had. To set the vector 
 154:.\Generated_Source\PSoC4/isr_2.c **** *   before the component has been started use isr_2_StartEx instead.
 155:.\Generated_Source\PSoC4/isr_2.c **** *
 156:.\Generated_Source\PSoC4/isr_2.c **** * Parameters:
 157:.\Generated_Source\PSoC4/isr_2.c **** *   address: Address of the ISR to set in the interrupt vector table.
 158:.\Generated_Source\PSoC4/isr_2.c **** *
 159:.\Generated_Source\PSoC4/isr_2.c **** * Return:
 160:.\Generated_Source\PSoC4/isr_2.c **** *   None
 161:.\Generated_Source\PSoC4/isr_2.c **** *
 162:.\Generated_Source\PSoC4/isr_2.c **** *******************************************************************************/
 163:.\Generated_Source\PSoC4/isr_2.c **** void isr_2_SetVector(cyisraddress address)
 164:.\Generated_Source\PSoC4/isr_2.c **** {
 165:.\Generated_Source\PSoC4/isr_2.c ****     CyRamVectors[CYINT_IRQ_BASE + isr_2__INTC_NUMBER] = address;
 166:.\Generated_Source\PSoC4/isr_2.c **** }
 167:.\Generated_Source\PSoC4/isr_2.c **** 
 168:.\Generated_Source\PSoC4/isr_2.c **** 
 169:.\Generated_Source\PSoC4/isr_2.c **** /*******************************************************************************
 170:.\Generated_Source\PSoC4/isr_2.c **** * Function Name: isr_2_GetVector
 171:.\Generated_Source\PSoC4/isr_2.c **** ********************************************************************************
 172:.\Generated_Source\PSoC4/isr_2.c **** *
 173:.\Generated_Source\PSoC4/isr_2.c **** * Summary:
 174:.\Generated_Source\PSoC4/isr_2.c **** *   Gets the "address" of the current ISR vector for the Interrupt.
 175:.\Generated_Source\PSoC4/isr_2.c **** *
 176:.\Generated_Source\PSoC4/isr_2.c **** * Parameters:
 177:.\Generated_Source\PSoC4/isr_2.c **** *   None
 178:.\Generated_Source\PSoC4/isr_2.c **** *
 179:.\Generated_Source\PSoC4/isr_2.c **** * Return:
 180:.\Generated_Source\PSoC4/isr_2.c **** *   Address of the ISR in the interrupt vector table.
 181:.\Generated_Source\PSoC4/isr_2.c **** *
 182:.\Generated_Source\PSoC4/isr_2.c **** *******************************************************************************/
ARM GAS  C:\Users\Steve\AppData\Local\Temp\ccYbX6J3.s 			page 5


 183:.\Generated_Source\PSoC4/isr_2.c **** cyisraddress isr_2_GetVector(void)
 184:.\Generated_Source\PSoC4/isr_2.c **** {
 185:.\Generated_Source\PSoC4/isr_2.c ****     return CyRamVectors[CYINT_IRQ_BASE + isr_2__INTC_NUMBER];
 186:.\Generated_Source\PSoC4/isr_2.c **** }
 187:.\Generated_Source\PSoC4/isr_2.c **** 
 188:.\Generated_Source\PSoC4/isr_2.c **** 
 189:.\Generated_Source\PSoC4/isr_2.c **** /*******************************************************************************
 190:.\Generated_Source\PSoC4/isr_2.c **** * Function Name: isr_2_SetPriority
 191:.\Generated_Source\PSoC4/isr_2.c **** ********************************************************************************
 192:.\Generated_Source\PSoC4/isr_2.c **** *
 193:.\Generated_Source\PSoC4/isr_2.c **** * Summary:
 194:.\Generated_Source\PSoC4/isr_2.c **** *   Sets the Priority of the Interrupt. Note calling isr_2_Start
 195:.\Generated_Source\PSoC4/isr_2.c **** *   or isr_2_StartEx will override any effect this method would 
 196:.\Generated_Source\PSoC4/isr_2.c **** *   have had. This method should only be called after isr_2_Start or 
 197:.\Generated_Source\PSoC4/isr_2.c **** *   isr_2_StartEx has been called. To set the initial
 198:.\Generated_Source\PSoC4/isr_2.c **** *   priority for the component use the cydwr file in the tool.
 199:.\Generated_Source\PSoC4/isr_2.c **** *
 200:.\Generated_Source\PSoC4/isr_2.c **** * Parameters:
 201:.\Generated_Source\PSoC4/isr_2.c **** *   priority: Priority of the interrupt. 0 - 3, 0 being the highest.
 202:.\Generated_Source\PSoC4/isr_2.c **** *
 203:.\Generated_Source\PSoC4/isr_2.c **** * Return:
 204:.\Generated_Source\PSoC4/isr_2.c **** *   None
 205:.\Generated_Source\PSoC4/isr_2.c **** *
 206:.\Generated_Source\PSoC4/isr_2.c **** *******************************************************************************/
 207:.\Generated_Source\PSoC4/isr_2.c **** void isr_2_SetPriority(uint8 priority)
 208:.\Generated_Source\PSoC4/isr_2.c **** {
 209:.\Generated_Source\PSoC4/isr_2.c **** 	uint8 interruptState;
 210:.\Generated_Source\PSoC4/isr_2.c ****     uint32 priorityOffset = ((isr_2__INTC_NUMBER % 4u) * 8u) + 6u;
 211:.\Generated_Source\PSoC4/isr_2.c ****     
 212:.\Generated_Source\PSoC4/isr_2.c **** 	interruptState = CyEnterCriticalSection();
 213:.\Generated_Source\PSoC4/isr_2.c ****     *isr_2_INTC_PRIOR = (*isr_2_INTC_PRIOR & (uint32)(~isr_2__INTC_PRIOR_MASK)) |
 214:.\Generated_Source\PSoC4/isr_2.c ****                                     ((uint32)priority << priorityOffset);
 215:.\Generated_Source\PSoC4/isr_2.c **** 	CyExitCriticalSection(interruptState);
 216:.\Generated_Source\PSoC4/isr_2.c **** }
 217:.\Generated_Source\PSoC4/isr_2.c **** 
 218:.\Generated_Source\PSoC4/isr_2.c **** 
 219:.\Generated_Source\PSoC4/isr_2.c **** /*******************************************************************************
 220:.\Generated_Source\PSoC4/isr_2.c **** * Function Name: isr_2_GetPriority
 221:.\Generated_Source\PSoC4/isr_2.c **** ********************************************************************************
 222:.\Generated_Source\PSoC4/isr_2.c **** *
 223:.\Generated_Source\PSoC4/isr_2.c **** * Summary:
 224:.\Generated_Source\PSoC4/isr_2.c **** *   Gets the Priority of the Interrupt.
 225:.\Generated_Source\PSoC4/isr_2.c **** *
 226:.\Generated_Source\PSoC4/isr_2.c **** * Parameters:
 227:.\Generated_Source\PSoC4/isr_2.c **** *   None
 228:.\Generated_Source\PSoC4/isr_2.c **** *
 229:.\Generated_Source\PSoC4/isr_2.c **** * Return:
 230:.\Generated_Source\PSoC4/isr_2.c **** *   Priority of the interrupt. 0 - 3, 0 being the highest.
 231:.\Generated_Source\PSoC4/isr_2.c **** *
 232:.\Generated_Source\PSoC4/isr_2.c **** *******************************************************************************/
 233:.\Generated_Source\PSoC4/isr_2.c **** uint8 isr_2_GetPriority(void)
 234:.\Generated_Source\PSoC4/isr_2.c **** {
 235:.\Generated_Source\PSoC4/isr_2.c ****     uint32 priority;
 236:.\Generated_Source\PSoC4/isr_2.c **** 	uint32 priorityOffset = ((isr_2__INTC_NUMBER % 4u) * 8u) + 6u;
 237:.\Generated_Source\PSoC4/isr_2.c **** 
 238:.\Generated_Source\PSoC4/isr_2.c ****     priority = (*isr_2_INTC_PRIOR & isr_2__INTC_PRIOR_MASK) >> priorityOffset;
 239:.\Generated_Source\PSoC4/isr_2.c **** 
ARM GAS  C:\Users\Steve\AppData\Local\Temp\ccYbX6J3.s 			page 6


 240:.\Generated_Source\PSoC4/isr_2.c ****     return (uint8)priority;
 241:.\Generated_Source\PSoC4/isr_2.c **** }
 242:.\Generated_Source\PSoC4/isr_2.c **** 
 243:.\Generated_Source\PSoC4/isr_2.c **** 
 244:.\Generated_Source\PSoC4/isr_2.c **** /*******************************************************************************
 245:.\Generated_Source\PSoC4/isr_2.c **** * Function Name: isr_2_Enable
 246:.\Generated_Source\PSoC4/isr_2.c **** ********************************************************************************
 247:.\Generated_Source\PSoC4/isr_2.c **** *
 248:.\Generated_Source\PSoC4/isr_2.c **** * Summary:
 249:.\Generated_Source\PSoC4/isr_2.c **** *   Enables the interrupt.
 250:.\Generated_Source\PSoC4/isr_2.c **** *
 251:.\Generated_Source\PSoC4/isr_2.c **** * Parameters:
 252:.\Generated_Source\PSoC4/isr_2.c **** *   None
 253:.\Generated_Source\PSoC4/isr_2.c **** *
 254:.\Generated_Source\PSoC4/isr_2.c **** * Return:
 255:.\Generated_Source\PSoC4/isr_2.c **** *   None
 256:.\Generated_Source\PSoC4/isr_2.c **** *
 257:.\Generated_Source\PSoC4/isr_2.c **** *******************************************************************************/
 258:.\Generated_Source\PSoC4/isr_2.c **** void isr_2_Enable(void)
 259:.\Generated_Source\PSoC4/isr_2.c **** {
 260:.\Generated_Source\PSoC4/isr_2.c ****     /* Enable the general interrupt. */
 261:.\Generated_Source\PSoC4/isr_2.c ****     *isr_2_INTC_SET_EN = isr_2__INTC_MASK;
 262:.\Generated_Source\PSoC4/isr_2.c **** }
 263:.\Generated_Source\PSoC4/isr_2.c **** 
 264:.\Generated_Source\PSoC4/isr_2.c **** 
 265:.\Generated_Source\PSoC4/isr_2.c **** /*******************************************************************************
 266:.\Generated_Source\PSoC4/isr_2.c **** * Function Name: isr_2_GetState
 267:.\Generated_Source\PSoC4/isr_2.c **** ********************************************************************************
 268:.\Generated_Source\PSoC4/isr_2.c **** *
 269:.\Generated_Source\PSoC4/isr_2.c **** * Summary:
 270:.\Generated_Source\PSoC4/isr_2.c **** *   Gets the state (enabled, disabled) of the Interrupt.
 271:.\Generated_Source\PSoC4/isr_2.c **** *
 272:.\Generated_Source\PSoC4/isr_2.c **** * Parameters:
 273:.\Generated_Source\PSoC4/isr_2.c **** *   None
 274:.\Generated_Source\PSoC4/isr_2.c **** *
 275:.\Generated_Source\PSoC4/isr_2.c **** * Return:
 276:.\Generated_Source\PSoC4/isr_2.c **** *   1 if enabled, 0 if disabled.
 277:.\Generated_Source\PSoC4/isr_2.c **** *
 278:.\Generated_Source\PSoC4/isr_2.c **** *******************************************************************************/
 279:.\Generated_Source\PSoC4/isr_2.c **** uint8 isr_2_GetState(void)
 280:.\Generated_Source\PSoC4/isr_2.c **** {
 281:.\Generated_Source\PSoC4/isr_2.c ****     /* Get the state of the general interrupt. */
 282:.\Generated_Source\PSoC4/isr_2.c ****     return ((*isr_2_INTC_SET_EN & (uint32)isr_2__INTC_MASK) != 0u) ? 1u:0u;
 283:.\Generated_Source\PSoC4/isr_2.c **** }
 284:.\Generated_Source\PSoC4/isr_2.c **** 
 285:.\Generated_Source\PSoC4/isr_2.c **** 
 286:.\Generated_Source\PSoC4/isr_2.c **** /*******************************************************************************
 287:.\Generated_Source\PSoC4/isr_2.c **** * Function Name: isr_2_Disable
 288:.\Generated_Source\PSoC4/isr_2.c **** ********************************************************************************
 289:.\Generated_Source\PSoC4/isr_2.c **** *
 290:.\Generated_Source\PSoC4/isr_2.c **** * Summary:
 291:.\Generated_Source\PSoC4/isr_2.c **** *   Disables the Interrupt.
 292:.\Generated_Source\PSoC4/isr_2.c **** *
 293:.\Generated_Source\PSoC4/isr_2.c **** * Parameters:
 294:.\Generated_Source\PSoC4/isr_2.c **** *   None
 295:.\Generated_Source\PSoC4/isr_2.c **** *
 296:.\Generated_Source\PSoC4/isr_2.c **** * Return:
ARM GAS  C:\Users\Steve\AppData\Local\Temp\ccYbX6J3.s 			page 7


 297:.\Generated_Source\PSoC4/isr_2.c **** *   None
 298:.\Generated_Source\PSoC4/isr_2.c **** *
 299:.\Generated_Source\PSoC4/isr_2.c **** *******************************************************************************/
 300:.\Generated_Source\PSoC4/isr_2.c **** void isr_2_Disable(void)
 301:.\Generated_Source\PSoC4/isr_2.c **** {
 302:.\Generated_Source\PSoC4/isr_2.c ****     /* Disable the general interrupt. */
 303:.\Generated_Source\PSoC4/isr_2.c ****     *isr_2_INTC_CLR_EN = isr_2__INTC_MASK;
  46              		.loc 1 303 0
  47 0000 034B     		ldr	r3, .L3
  48              	.LBE19:
  49              	.LBE18:
  50              	.LBB21:
  51              	.LBB22:
 165:.\Generated_Source\PSoC4/isr_2.c ****     CyRamVectors[CYINT_IRQ_BASE + isr_2__INTC_NUMBER] = address;
  52              		.loc 1 165 0
  53 0002 0448     		ldr	r0, .L3+4
  54 0004 0449     		ldr	r1, .L3+8
  55              	.LBE22:
  56              	.LBE21:
  57              	.LBB24:
  58              	.LBB20:
  59              		.loc 1 303 0
  60 0006 0822     		mov	r2, #8
  61 0008 1A60     		str	r2, [r3]
  62              	.LVL0:
  63              	.LBE20:
  64              	.LBE24:
 118:.\Generated_Source\PSoC4/isr_2.c **** }
  65              		.loc 1 118 0
  66              		@ sp needed for prologue
  67              	.LBB25:
  68              	.LBB23:
 165:.\Generated_Source\PSoC4/isr_2.c ****     CyRamVectors[CYINT_IRQ_BASE + isr_2__INTC_NUMBER] = address;
  69              		.loc 1 165 0
  70 000a C864     		str	r0, [r1, #76]
  71              	.LBE23:
  72              	.LBE25:
 118:.\Generated_Source\PSoC4/isr_2.c **** }
  73              		.loc 1 118 0
  74 000c 7047     		bx	lr
  75              	.L4:
  76 000e C046     		.align	2
  77              	.L3:
  78 0010 80E100E0 		.word	-536813184
  79 0014 00000000 		.word	IntDefaultHandler
  80 0018 00000000 		.word	CyRamVectors
  81              		.cfi_endproc
  82              	.LFE2:
  83              		.size	isr_2_Stop, .-isr_2_Stop
  84              		.section	.text.isr_2_SetVector,"ax",%progbits
  85              		.align	2
  86              		.global	isr_2_SetVector
  87              		.code	16
  88              		.thumb_func
  89              		.type	isr_2_SetVector, %function
  90              	isr_2_SetVector:
  91              	.LFB4:
ARM GAS  C:\Users\Steve\AppData\Local\Temp\ccYbX6J3.s 			page 8


 164:.\Generated_Source\PSoC4/isr_2.c **** {
  92              		.loc 1 164 0
  93              		.cfi_startproc
  94              	.LVL1:
 165:.\Generated_Source\PSoC4/isr_2.c ****     CyRamVectors[CYINT_IRQ_BASE + isr_2__INTC_NUMBER] = address;
  95              		.loc 1 165 0
  96 0000 014B     		ldr	r3, .L6
 166:.\Generated_Source\PSoC4/isr_2.c **** }
  97              		.loc 1 166 0
  98              		@ sp needed for prologue
 165:.\Generated_Source\PSoC4/isr_2.c ****     CyRamVectors[CYINT_IRQ_BASE + isr_2__INTC_NUMBER] = address;
  99              		.loc 1 165 0
 100 0002 D864     		str	r0, [r3, #76]
 166:.\Generated_Source\PSoC4/isr_2.c **** }
 101              		.loc 1 166 0
 102 0004 7047     		bx	lr
 103              	.L7:
 104 0006 C046     		.align	2
 105              	.L6:
 106 0008 00000000 		.word	CyRamVectors
 107              		.cfi_endproc
 108              	.LFE4:
 109              		.size	isr_2_SetVector, .-isr_2_SetVector
 110              		.section	.text.isr_2_GetVector,"ax",%progbits
 111              		.align	2
 112              		.global	isr_2_GetVector
 113              		.code	16
 114              		.thumb_func
 115              		.type	isr_2_GetVector, %function
 116              	isr_2_GetVector:
 117              	.LFB5:
 184:.\Generated_Source\PSoC4/isr_2.c **** {
 118              		.loc 1 184 0
 119              		.cfi_startproc
 185:.\Generated_Source\PSoC4/isr_2.c ****     return CyRamVectors[CYINT_IRQ_BASE + isr_2__INTC_NUMBER];
 120              		.loc 1 185 0
 121 0000 014B     		ldr	r3, .L9
 186:.\Generated_Source\PSoC4/isr_2.c **** }
 122              		.loc 1 186 0
 123              		@ sp needed for prologue
 185:.\Generated_Source\PSoC4/isr_2.c ****     return CyRamVectors[CYINT_IRQ_BASE + isr_2__INTC_NUMBER];
 124              		.loc 1 185 0
 125 0002 D86C     		ldr	r0, [r3, #76]
 186:.\Generated_Source\PSoC4/isr_2.c **** }
 126              		.loc 1 186 0
 127 0004 7047     		bx	lr
 128              	.L10:
 129 0006 C046     		.align	2
 130              	.L9:
 131 0008 00000000 		.word	CyRamVectors
 132              		.cfi_endproc
 133              	.LFE5:
 134              		.size	isr_2_GetVector, .-isr_2_GetVector
 135              		.section	.text.isr_2_SetPriority,"ax",%progbits
 136              		.align	2
 137              		.global	isr_2_SetPriority
 138              		.code	16
ARM GAS  C:\Users\Steve\AppData\Local\Temp\ccYbX6J3.s 			page 9


 139              		.thumb_func
 140              		.type	isr_2_SetPriority, %function
 141              	isr_2_SetPriority:
 142              	.LFB6:
 208:.\Generated_Source\PSoC4/isr_2.c **** {
 143              		.loc 1 208 0
 144              		.cfi_startproc
 145              	.LVL2:
 146 0000 10B5     		push	{r4, lr}
 147              	.LCFI0:
 148              		.cfi_def_cfa_offset 8
 149              		.cfi_offset 4, -8
 150              		.cfi_offset 14, -4
 208:.\Generated_Source\PSoC4/isr_2.c **** {
 151              		.loc 1 208 0
 152 0002 041C     		mov	r4, r0
 212:.\Generated_Source\PSoC4/isr_2.c **** 	interruptState = CyEnterCriticalSection();
 153              		.loc 1 212 0
 154 0004 FFF7FEFF 		bl	CyEnterCriticalSection
 155              	.LVL3:
 213:.\Generated_Source\PSoC4/isr_2.c ****     *isr_2_INTC_PRIOR = (*isr_2_INTC_PRIOR & (uint32)(~isr_2__INTC_PRIOR_MASK)) |
 156              		.loc 1 213 0
 157 0008 044B     		ldr	r3, .L12
 214:.\Generated_Source\PSoC4/isr_2.c ****                                     ((uint32)priority << priorityOffset);
 158              		.loc 1 214 0
 159 000a A107     		lsl	r1, r4, #30
 213:.\Generated_Source\PSoC4/isr_2.c ****     *isr_2_INTC_PRIOR = (*isr_2_INTC_PRIOR & (uint32)(~isr_2__INTC_PRIOR_MASK)) |
 160              		.loc 1 213 0
 161 000c 1A68     		ldr	r2, [r3]
 216:.\Generated_Source\PSoC4/isr_2.c **** }
 162              		.loc 1 216 0
 163              		@ sp needed for prologue
 213:.\Generated_Source\PSoC4/isr_2.c ****     *isr_2_INTC_PRIOR = (*isr_2_INTC_PRIOR & (uint32)(~isr_2__INTC_PRIOR_MASK)) |
 164              		.loc 1 213 0
 165 000e 9400     		lsl	r4, r2, #2
 166 0010 A208     		lsr	r2, r4, #2
 167 0012 1143     		orr	r1, r2
 168 0014 1960     		str	r1, [r3]
 215:.\Generated_Source\PSoC4/isr_2.c **** 	CyExitCriticalSection(interruptState);
 169              		.loc 1 215 0
 170 0016 FFF7FEFF 		bl	CyExitCriticalSection
 171              	.LVL4:
 216:.\Generated_Source\PSoC4/isr_2.c **** }
 172              		.loc 1 216 0
 173 001a 10BD     		pop	{r4, pc}
 174              	.L13:
 175              		.align	2
 176              	.L12:
 177 001c 00E400E0 		.word	-536812544
 178              		.cfi_endproc
 179              	.LFE6:
 180              		.size	isr_2_SetPriority, .-isr_2_SetPriority
 181              		.section	.text.isr_2_StartEx,"ax",%progbits
 182              		.align	2
 183              		.global	isr_2_StartEx
 184              		.code	16
 185              		.thumb_func
ARM GAS  C:\Users\Steve\AppData\Local\Temp\ccYbX6J3.s 			page 10


 186              		.type	isr_2_StartEx, %function
 187              	isr_2_StartEx:
 188              	.LFB1:
  83:.\Generated_Source\PSoC4/isr_2.c **** {
 189              		.loc 1 83 0
 190              		.cfi_startproc
 191              	.LVL5:
 192 0000 10B5     		push	{r4, lr}
 193              	.LCFI1:
 194              		.cfi_def_cfa_offset 8
 195              		.cfi_offset 4, -8
 196              		.cfi_offset 14, -4
 197              	.LBB26:
 198              	.LBB27:
 199              		.loc 1 303 0
 200 0002 054B     		ldr	r3, .L15
 201              	.LBE27:
 202              	.LBE26:
 203              	.LBB29:
 204              	.LBB30:
 165:.\Generated_Source\PSoC4/isr_2.c ****     CyRamVectors[CYINT_IRQ_BASE + isr_2__INTC_NUMBER] = address;
 205              		.loc 1 165 0
 206 0004 0549     		ldr	r1, .L15+4
 207              	.LBE30:
 208              	.LBE29:
 209              	.LBB32:
 210              	.LBB28:
 211              		.loc 1 303 0
 212 0006 0824     		mov	r4, #8
 213 0008 1C60     		str	r4, [r3]
 214              	.LVL6:
 215              	.LBE28:
 216              	.LBE32:
 217              	.LBB33:
 218              	.LBB31:
 165:.\Generated_Source\PSoC4/isr_2.c ****     CyRamVectors[CYINT_IRQ_BASE + isr_2__INTC_NUMBER] = address;
 219              		.loc 1 165 0
 220 000a C864     		str	r0, [r1, #76]
 221              	.LBE31:
 222              	.LBE33:
  91:.\Generated_Source\PSoC4/isr_2.c ****     isr_2_SetPriority((uint8)isr_2_INTC_PRIOR_NUMBER);
 223              		.loc 1 91 0
 224 000c 0020     		mov	r0, #0
 225              	.LVL7:
 226 000e FFF7FEFF 		bl	isr_2_SetPriority
 227              	.LVL8:
 228              	.LBB34:
 229              	.LBB35:
 261:.\Generated_Source\PSoC4/isr_2.c ****     *isr_2_INTC_SET_EN = isr_2__INTC_MASK;
 230              		.loc 1 261 0
 231 0012 0348     		ldr	r0, .L15+8
 232              	.LBE35:
 233              	.LBE34:
  95:.\Generated_Source\PSoC4/isr_2.c **** }
 234              		.loc 1 95 0
 235              		@ sp needed for prologue
 236              	.LBB37:
ARM GAS  C:\Users\Steve\AppData\Local\Temp\ccYbX6J3.s 			page 11


 237              	.LBB36:
 261:.\Generated_Source\PSoC4/isr_2.c ****     *isr_2_INTC_SET_EN = isr_2__INTC_MASK;
 238              		.loc 1 261 0
 239 0014 0460     		str	r4, [r0]
 240              	.LBE36:
 241              	.LBE37:
  95:.\Generated_Source\PSoC4/isr_2.c **** }
 242              		.loc 1 95 0
 243 0016 10BD     		pop	{r4, pc}
 244              	.L16:
 245              		.align	2
 246              	.L15:
 247 0018 80E100E0 		.word	-536813184
 248 001c 00000000 		.word	CyRamVectors
 249 0020 00E100E0 		.word	-536813312
 250              		.cfi_endproc
 251              	.LFE1:
 252              		.size	isr_2_StartEx, .-isr_2_StartEx
 253              		.section	.text.isr_2_Start,"ax",%progbits
 254              		.align	2
 255              		.global	isr_2_Start
 256              		.code	16
 257              		.thumb_func
 258              		.type	isr_2_Start, %function
 259              	isr_2_Start:
 260              	.LFB0:
  53:.\Generated_Source\PSoC4/isr_2.c **** {
 261              		.loc 1 53 0
 262              		.cfi_startproc
 263 0000 10B5     		push	{r4, lr}
 264              	.LCFI2:
 265              		.cfi_def_cfa_offset 8
 266              		.cfi_offset 4, -8
 267              		.cfi_offset 14, -4
 268              	.LBB38:
 269              	.LBB39:
 270              		.loc 1 303 0
 271 0002 064B     		ldr	r3, .L18
 272              	.LBE39:
 273              	.LBE38:
 274              	.LBB41:
 275              	.LBB42:
 165:.\Generated_Source\PSoC4/isr_2.c ****     CyRamVectors[CYINT_IRQ_BASE + isr_2__INTC_NUMBER] = address;
 276              		.loc 1 165 0
 277 0004 064A     		ldr	r2, .L18+4
 278 0006 0748     		ldr	r0, .L18+8
 279              	.LBE42:
 280              	.LBE41:
 281              	.LBB44:
 282              	.LBB40:
 283              		.loc 1 303 0
 284 0008 0824     		mov	r4, #8
 285 000a 1C60     		str	r4, [r3]
 286              	.LVL9:
 287              	.LBE40:
 288              	.LBE44:
 289              	.LBB45:
ARM GAS  C:\Users\Steve\AppData\Local\Temp\ccYbX6J3.s 			page 12


 290              	.LBB43:
 165:.\Generated_Source\PSoC4/isr_2.c ****     CyRamVectors[CYINT_IRQ_BASE + isr_2__INTC_NUMBER] = address;
 291              		.loc 1 165 0
 292 000c C264     		str	r2, [r0, #76]
 293              	.LBE43:
 294              	.LBE45:
  61:.\Generated_Source\PSoC4/isr_2.c ****     isr_2_SetPriority((uint8)isr_2_INTC_PRIOR_NUMBER);
 295              		.loc 1 61 0
 296 000e 0020     		mov	r0, #0
 297 0010 FFF7FEFF 		bl	isr_2_SetPriority
 298              	.LVL10:
 299              	.LBB46:
 300              	.LBB47:
 261:.\Generated_Source\PSoC4/isr_2.c ****     *isr_2_INTC_SET_EN = isr_2__INTC_MASK;
 301              		.loc 1 261 0
 302 0014 0449     		ldr	r1, .L18+12
 303              	.LBE47:
 304              	.LBE46:
  65:.\Generated_Source\PSoC4/isr_2.c **** }
 305              		.loc 1 65 0
 306              		@ sp needed for prologue
 307              	.LBB49:
 308              	.LBB48:
 261:.\Generated_Source\PSoC4/isr_2.c ****     *isr_2_INTC_SET_EN = isr_2__INTC_MASK;
 309              		.loc 1 261 0
 310 0016 0C60     		str	r4, [r1]
 311              	.LBE48:
 312              	.LBE49:
  65:.\Generated_Source\PSoC4/isr_2.c **** }
 313              		.loc 1 65 0
 314 0018 10BD     		pop	{r4, pc}
 315              	.L19:
 316 001a C046     		.align	2
 317              	.L18:
 318 001c 80E100E0 		.word	-536813184
 319 0020 00000000 		.word	isr_2_Interrupt
 320 0024 00000000 		.word	CyRamVectors
 321 0028 00E100E0 		.word	-536813312
 322              		.cfi_endproc
 323              	.LFE0:
 324              		.size	isr_2_Start, .-isr_2_Start
 325              		.section	.text.isr_2_GetPriority,"ax",%progbits
 326              		.align	2
 327              		.global	isr_2_GetPriority
 328              		.code	16
 329              		.thumb_func
 330              		.type	isr_2_GetPriority, %function
 331              	isr_2_GetPriority:
 332              	.LFB7:
 234:.\Generated_Source\PSoC4/isr_2.c **** {
 333              		.loc 1 234 0
 334              		.cfi_startproc
 335              	.LVL11:
 238:.\Generated_Source\PSoC4/isr_2.c ****     priority = (*isr_2_INTC_PRIOR & isr_2__INTC_PRIOR_MASK) >> priorityOffset;
 336              		.loc 1 238 0
 337 0000 014B     		ldr	r3, .L21
 241:.\Generated_Source\PSoC4/isr_2.c **** }
ARM GAS  C:\Users\Steve\AppData\Local\Temp\ccYbX6J3.s 			page 13


 338              		.loc 1 241 0
 339              		@ sp needed for prologue
 238:.\Generated_Source\PSoC4/isr_2.c ****     priority = (*isr_2_INTC_PRIOR & isr_2__INTC_PRIOR_MASK) >> priorityOffset;
 340              		.loc 1 238 0
 341 0002 1868     		ldr	r0, [r3]
 342              	.LVL12:
 240:.\Generated_Source\PSoC4/isr_2.c ****     return (uint8)priority;
 343              		.loc 1 240 0
 344 0004 800F     		lsr	r0, r0, #30
 345              	.LVL13:
 241:.\Generated_Source\PSoC4/isr_2.c **** }
 346              		.loc 1 241 0
 347 0006 7047     		bx	lr
 348              	.L22:
 349              		.align	2
 350              	.L21:
 351 0008 00E400E0 		.word	-536812544
 352              		.cfi_endproc
 353              	.LFE7:
 354              		.size	isr_2_GetPriority, .-isr_2_GetPriority
 355              		.section	.text.isr_2_Enable,"ax",%progbits
 356              		.align	2
 357              		.global	isr_2_Enable
 358              		.code	16
 359              		.thumb_func
 360              		.type	isr_2_Enable, %function
 361              	isr_2_Enable:
 362              	.LFB8:
 259:.\Generated_Source\PSoC4/isr_2.c **** {
 363              		.loc 1 259 0
 364              		.cfi_startproc
 261:.\Generated_Source\PSoC4/isr_2.c ****     *isr_2_INTC_SET_EN = isr_2__INTC_MASK;
 365              		.loc 1 261 0
 366 0000 014B     		ldr	r3, .L24
 367 0002 0822     		mov	r2, #8
 368 0004 1A60     		str	r2, [r3]
 262:.\Generated_Source\PSoC4/isr_2.c **** }
 369              		.loc 1 262 0
 370              		@ sp needed for prologue
 371 0006 7047     		bx	lr
 372              	.L25:
 373              		.align	2
 374              	.L24:
 375 0008 00E100E0 		.word	-536813312
 376              		.cfi_endproc
 377              	.LFE8:
 378              		.size	isr_2_Enable, .-isr_2_Enable
 379              		.section	.text.isr_2_GetState,"ax",%progbits
 380              		.align	2
 381              		.global	isr_2_GetState
 382              		.code	16
 383              		.thumb_func
 384              		.type	isr_2_GetState, %function
 385              	isr_2_GetState:
 386              	.LFB9:
 280:.\Generated_Source\PSoC4/isr_2.c **** {
 387              		.loc 1 280 0
ARM GAS  C:\Users\Steve\AppData\Local\Temp\ccYbX6J3.s 			page 14


 388              		.cfi_startproc
 282:.\Generated_Source\PSoC4/isr_2.c ****     return ((*isr_2_INTC_SET_EN & (uint32)isr_2__INTC_MASK) != 0u) ? 1u:0u;
 389              		.loc 1 282 0
 390 0000 024B     		ldr	r3, .L27
 283:.\Generated_Source\PSoC4/isr_2.c **** }
 391              		.loc 1 283 0
 392              		@ sp needed for prologue
 282:.\Generated_Source\PSoC4/isr_2.c ****     return ((*isr_2_INTC_SET_EN & (uint32)isr_2__INTC_MASK) != 0u) ? 1u:0u;
 393              		.loc 1 282 0
 394 0002 1868     		ldr	r0, [r3]
 395 0004 0107     		lsl	r1, r0, #28
 396 0006 C80F     		lsr	r0, r1, #31
 283:.\Generated_Source\PSoC4/isr_2.c **** }
 397              		.loc 1 283 0
 398 0008 7047     		bx	lr
 399              	.L28:
 400 000a C046     		.align	2
 401              	.L27:
 402 000c 00E100E0 		.word	-536813312
 403              		.cfi_endproc
 404              	.LFE9:
 405              		.size	isr_2_GetState, .-isr_2_GetState
 406              		.section	.text.isr_2_Disable,"ax",%progbits
 407              		.align	2
 408              		.global	isr_2_Disable
 409              		.code	16
 410              		.thumb_func
 411              		.type	isr_2_Disable, %function
 412              	isr_2_Disable:
 413              	.LFB10:
 301:.\Generated_Source\PSoC4/isr_2.c **** {
 414              		.loc 1 301 0
 415              		.cfi_startproc
 416              		.loc 1 303 0
 417 0000 014B     		ldr	r3, .L30
 418 0002 0822     		mov	r2, #8
 419 0004 1A60     		str	r2, [r3]
 304:.\Generated_Source\PSoC4/isr_2.c **** }
 420              		.loc 1 304 0
 421              		@ sp needed for prologue
 422 0006 7047     		bx	lr
 423              	.L31:
 424              		.align	2
 425              	.L30:
 426 0008 80E100E0 		.word	-536813184
 427              		.cfi_endproc
 428              	.LFE10:
 429              		.size	isr_2_Disable, .-isr_2_Disable
 430              		.section	.text.isr_2_SetPending,"ax",%progbits
 431              		.align	2
 432              		.global	isr_2_SetPending
 433              		.code	16
 434              		.thumb_func
 435              		.type	isr_2_SetPending, %function
 436              	isr_2_SetPending:
 437              	.LFB11:
 305:.\Generated_Source\PSoC4/isr_2.c **** 
ARM GAS  C:\Users\Steve\AppData\Local\Temp\ccYbX6J3.s 			page 15


 306:.\Generated_Source\PSoC4/isr_2.c **** 
 307:.\Generated_Source\PSoC4/isr_2.c **** /*******************************************************************************
 308:.\Generated_Source\PSoC4/isr_2.c **** * Function Name: isr_2_SetPending
 309:.\Generated_Source\PSoC4/isr_2.c **** ********************************************************************************
 310:.\Generated_Source\PSoC4/isr_2.c **** *
 311:.\Generated_Source\PSoC4/isr_2.c **** * Summary:
 312:.\Generated_Source\PSoC4/isr_2.c **** *   Causes the Interrupt to enter the pending state, a software method of
 313:.\Generated_Source\PSoC4/isr_2.c **** *   generating the interrupt.
 314:.\Generated_Source\PSoC4/isr_2.c **** *
 315:.\Generated_Source\PSoC4/isr_2.c **** * Parameters:
 316:.\Generated_Source\PSoC4/isr_2.c **** *   None
 317:.\Generated_Source\PSoC4/isr_2.c **** *
 318:.\Generated_Source\PSoC4/isr_2.c **** * Return:
 319:.\Generated_Source\PSoC4/isr_2.c **** *   None
 320:.\Generated_Source\PSoC4/isr_2.c **** *
 321:.\Generated_Source\PSoC4/isr_2.c **** *******************************************************************************/
 322:.\Generated_Source\PSoC4/isr_2.c **** void isr_2_SetPending(void)
 323:.\Generated_Source\PSoC4/isr_2.c **** {
 438              		.loc 1 323 0
 439              		.cfi_startproc
 324:.\Generated_Source\PSoC4/isr_2.c ****     *isr_2_INTC_SET_PD = isr_2__INTC_MASK;
 440              		.loc 1 324 0
 441 0000 014B     		ldr	r3, .L33
 442 0002 0822     		mov	r2, #8
 443 0004 1A60     		str	r2, [r3]
 325:.\Generated_Source\PSoC4/isr_2.c **** }
 444              		.loc 1 325 0
 445              		@ sp needed for prologue
 446 0006 7047     		bx	lr
 447              	.L34:
 448              		.align	2
 449              	.L33:
 450 0008 00E200E0 		.word	-536813056
 451              		.cfi_endproc
 452              	.LFE11:
 453              		.size	isr_2_SetPending, .-isr_2_SetPending
 454              		.section	.text.isr_2_ClearPending,"ax",%progbits
 455              		.align	2
 456              		.global	isr_2_ClearPending
 457              		.code	16
 458              		.thumb_func
 459              		.type	isr_2_ClearPending, %function
 460              	isr_2_ClearPending:
 461              	.LFB12:
 326:.\Generated_Source\PSoC4/isr_2.c **** 
 327:.\Generated_Source\PSoC4/isr_2.c **** 
 328:.\Generated_Source\PSoC4/isr_2.c **** /*******************************************************************************
 329:.\Generated_Source\PSoC4/isr_2.c **** * Function Name: isr_2_ClearPending
 330:.\Generated_Source\PSoC4/isr_2.c **** ********************************************************************************
 331:.\Generated_Source\PSoC4/isr_2.c **** *
 332:.\Generated_Source\PSoC4/isr_2.c **** * Summary:
 333:.\Generated_Source\PSoC4/isr_2.c **** *   Clears a pending interrupt.
 334:.\Generated_Source\PSoC4/isr_2.c **** *
 335:.\Generated_Source\PSoC4/isr_2.c **** * Parameters:
 336:.\Generated_Source\PSoC4/isr_2.c **** *   None
 337:.\Generated_Source\PSoC4/isr_2.c **** *
 338:.\Generated_Source\PSoC4/isr_2.c **** * Return:
ARM GAS  C:\Users\Steve\AppData\Local\Temp\ccYbX6J3.s 			page 16


 339:.\Generated_Source\PSoC4/isr_2.c **** *   None
 340:.\Generated_Source\PSoC4/isr_2.c **** *
 341:.\Generated_Source\PSoC4/isr_2.c **** *******************************************************************************/
 342:.\Generated_Source\PSoC4/isr_2.c **** void isr_2_ClearPending(void)
 343:.\Generated_Source\PSoC4/isr_2.c **** {
 462              		.loc 1 343 0
 463              		.cfi_startproc
 344:.\Generated_Source\PSoC4/isr_2.c ****     *isr_2_INTC_CLR_PD = isr_2__INTC_MASK;
 464              		.loc 1 344 0
 465 0000 014B     		ldr	r3, .L36
 466 0002 0822     		mov	r2, #8
 467 0004 1A60     		str	r2, [r3]
 345:.\Generated_Source\PSoC4/isr_2.c **** }
 468              		.loc 1 345 0
 469              		@ sp needed for prologue
 470 0006 7047     		bx	lr
 471              	.L37:
 472              		.align	2
 473              	.L36:
 474 0008 80E200E0 		.word	-536812928
 475              		.cfi_endproc
 476              	.LFE12:
 477              		.size	isr_2_ClearPending, .-isr_2_ClearPending
 478              		.text
 479              	.Letext0:
 480              		.file 2 "./Generated_Source/PSoC4/cytypes.h"
 481              		.file 3 "./Generated_Source/PSoC4/CyLib.h"