ARM GAS  C:\Users\Steve\AppData\Local\Temp\ccroCuoh.s 			page 1


   1              		.cpu cortex-m0
   2              		.fpu softvfp
   3              		.eabi_attribute 20, 1
   4              		.eabi_attribute 21, 1
   5              		.eabi_attribute 23, 3
   6              		.eabi_attribute 24, 1
   7              		.eabi_attribute 25, 1
   8              		.eabi_attribute 26, 1
   9              		.eabi_attribute 30, 2
  10              		.eabi_attribute 34, 0
  11              		.eabi_attribute 18, 4
  12              		.code	16
  13              		.file	"LED_Matrix.c"
  14              		.text
  15              	.Ltext0:
  16              		.cfi_sections	.debug_frame
  17              		.section	.text.clearPixel,"ax",%progbits
  18              		.align	2
  19              		.global	clearPixel
  20              		.code	16
  21              		.thumb_func
  22              		.type	clearPixel, %function
  23              	clearPixel:
  24              	.LFB34:
  25              		.file 1 ".\\LED_Matrix.c"
   1:.\LED_Matrix.c **** /* ========================================
   2:.\LED_Matrix.c ****  *
   3:.\LED_Matrix.c ****  * The following firmware was developed by Cypress Semiconductor
   4:.\LED_Matrix.c ****  * This work is licensed under a Creative Commons Attribution 3.0 Unported License.
   5:.\LED_Matrix.c ****  * 
   6:.\LED_Matrix.c ****  * http://creativecommons.org/licenses/by/3.0/deed.en_US
   7:.\LED_Matrix.c ****  * 
   8:.\LED_Matrix.c ****  * You are free to:
   9:.\LED_Matrix.c ****  * -To Share — to copy, distribute and transmit the work 
  10:.\LED_Matrix.c ****  * -To Remix — to adapt the work 
  11:.\LED_Matrix.c ****  * -To make commercial use of the work
  12:.\LED_Matrix.c ****  *
  13:.\LED_Matrix.c ****  * ========================================
  14:.\LED_Matrix.c ****  */
  15:.\LED_Matrix.c ****  
  16:.\LED_Matrix.c **** /*******************************************************************************
  17:.\LED_Matrix.c ****  * C File For LED Matrix Component/Project
  18:.\LED_Matrix.c ****  ********************************************************************************/
  19:.\LED_Matrix.c ****  
  20:.\LED_Matrix.c **** #include <device.h>
  21:.\LED_Matrix.c **** #include <LED_Matrix.h>
  22:.\LED_Matrix.c **** #include <stdlib.h>
  23:.\LED_Matrix.c **** 
  24:.\LED_Matrix.c **** 
  25:.\LED_Matrix.c **** 
  26:.\LED_Matrix.c **** 
  27:.\LED_Matrix.c **** /*******************************************************************************
  28:.\LED_Matrix.c **** * Function Name: DrawPixel
  29:.\LED_Matrix.c **** ********************************************************************************
  30:.\LED_Matrix.c **** *
  31:.\LED_Matrix.c **** * Summary:
  32:.\LED_Matrix.c **** *  This function writes to the (x,y) coordinate of the 'matrix' buffer in RAM
ARM GAS  C:\Users\Steve\AppData\Local\Temp\ccroCuoh.s 			page 2


  33:.\LED_Matrix.c **** *
  34:.\LED_Matrix.c **** * Parameters:  
  35:.\LED_Matrix.c **** *   uint8 x: 		betn 0 and 31
  36:.\LED_Matrix.c **** *	uint8 y: 		betn 0 and 15
  37:.\LED_Matrix.c **** *	RGB c:			5-bit color to be written to the pixel 
  38:.\LED_Matrix.c **** * 	color *matrix: 	pointer to the matrix buffer
  39:.\LED_Matrix.c **** *
  40:.\LED_Matrix.c **** * Return:
  41:.\LED_Matrix.c **** *   None
  42:.\LED_Matrix.c **** *
  43:.\LED_Matrix.c **** *******************************************************************************/
  44:.\LED_Matrix.c **** void drawPixel(int8 x, int8 y, RGB c, color *matrix)
  45:.\LED_Matrix.c **** {
  46:.\LED_Matrix.c **** 	/* pre-calculate some values to index the matrix 
  47:.\LED_Matrix.c **** 	 * Note that the translation has been done here to
  48:.\LED_Matrix.c **** 	 * leave the ISR clean
  49:.\LED_Matrix.c **** 	 */
  50:.\LED_Matrix.c **** 	int8 i = 0, index;
  51:.\LED_Matrix.c **** 	
  52:.\LED_Matrix.c **** 	/* index indexes the elements of 'matrix' 
  53:.\LED_Matrix.c **** 	 * 'matrix' consists of 64 'color' structs, 4 elements per row
  54:.\LED_Matrix.c **** 	 * The formula for index thus is index = y*4 + x/8
  55:.\LED_Matrix.c **** 	 */
  56:.\LED_Matrix.c **** 	int8 scratch1 = y*4;
  57:.\LED_Matrix.c **** 	
  58:.\LED_Matrix.c **** 	/* The x-coordinate is broken up into 2 parts:
  59:.\LED_Matrix.c **** 	* 1. Which of the 4 FIFO bytes need to be written (scratch2)
  60:.\LED_Matrix.c **** 	* 2. Which bit of that byte needs to be written (bit_pos)
  61:.\LED_Matrix.c **** 	*/
  62:.\LED_Matrix.c **** 	int8 scratch2 = (int8)(x/8);
  63:.\LED_Matrix.c **** 	int8 bit_pos = (int8)x%8;
  64:.\LED_Matrix.c **** 	
  65:.\LED_Matrix.c **** 	index = scratch1 + scratch2;
  66:.\LED_Matrix.c **** 	
  67:.\LED_Matrix.c **** 	clearPixel(x, y, matrix);
  68:.\LED_Matrix.c **** 	
  69:.\LED_Matrix.c **** 	for(i = 0; i < 5 ; i++)
  70:.\LED_Matrix.c **** 	{
  71:.\LED_Matrix.c **** 		matrix[index].r[i] |= (int8)((int8)((c.r & (0x01 << i)) && 1)<<(bit_pos));
  72:.\LED_Matrix.c **** 		matrix[index].g[i] |= (int8)((int8)((c.g & (0x01 << i)) && 1)<<(bit_pos));
  73:.\LED_Matrix.c **** 		matrix[index].b[i] |= (int8)((int8)((c.b & (0x01 << i)) && 1)<<(bit_pos));
  74:.\LED_Matrix.c **** 	}
  75:.\LED_Matrix.c **** }
  76:.\LED_Matrix.c **** 
  77:.\LED_Matrix.c **** /*******************************************************************************
  78:.\LED_Matrix.c **** * Function Name: ClearPixel
  79:.\LED_Matrix.c **** ********************************************************************************
  80:.\LED_Matrix.c **** *
  81:.\LED_Matrix.c **** * Summary:
  82:.\LED_Matrix.c **** *  This function clears the (x,y) pixel of the matrix buffer
  83:.\LED_Matrix.c **** *
  84:.\LED_Matrix.c **** * Parameters:  
  85:.\LED_Matrix.c **** *   uint8 x: 		betn 0 and 31
  86:.\LED_Matrix.c **** *	uint8 y: 		betn 0 and 15
  87:.\LED_Matrix.c **** * 	color *matrix: 	pointer to the matrix buffer
  88:.\LED_Matrix.c **** *
  89:.\LED_Matrix.c **** * Return:
ARM GAS  C:\Users\Steve\AppData\Local\Temp\ccroCuoh.s 			page 3


  90:.\LED_Matrix.c **** *   None
  91:.\LED_Matrix.c **** *
  92:.\LED_Matrix.c **** *******************************************************************************/
  93:.\LED_Matrix.c **** void clearPixel(uint8 x, uint8 y, color *matrix)
  94:.\LED_Matrix.c **** {
  26              		.loc 1 94 0
  27              		.cfi_startproc
  28              	.LVL0:
  29 0000 10B5     		push	{r4, lr}
  30              	.LCFI0:
  31              		.cfi_def_cfa_offset 8
  32              		.cfi_offset 4, -8
  33              		.cfi_offset 14, -4
  95:.\LED_Matrix.c **** 	uint8 i, index;
  96:.\LED_Matrix.c **** 	uint8 scratch1 = y*4;
  34              		.loc 1 96 0
  35 0002 8B00     		lsl	r3, r1, #2
  97:.\LED_Matrix.c **** 	uint8 scratch2 = (uint8)(x/8);
  36              		.loc 1 97 0
  37 0004 C408     		lsr	r4, r0, #3
  98:.\LED_Matrix.c **** 	uint8 bit_pos = (uint8)x%8;
  99:.\LED_Matrix.c **** 	
 100:.\LED_Matrix.c **** 	index = scratch1 + scratch2;
  38              		.loc 1 100 0
  39 0006 1919     		add	r1, r3, r4
  40              	.LVL1:
  41 0008 CBB2     		uxtb	r3, r1
  42 000a 1C01     		lsl	r4, r3, #4
  43 000c E11A     		sub	r1, r4, r3
  44 000e 0723     		mov	r3, #7
  45 0010 1840     		and	r0, r3
  46              	.LVL2:
  47 0012 0124     		mov	r4, #1
  48 0014 8440     		lsl	r4, r4, r0
  49 0016 5218     		add	r2, r2, r1
  50              	.LVL3:
  51 0018 E143     		mvn	r1, r4
  52 001a CCB2     		uxtb	r4, r1
 101:.\LED_Matrix.c **** 	
 102:.\LED_Matrix.c **** 	for(i = 0; i < 5 ; i++)
 103:.\LED_Matrix.c **** 	{
 104:.\LED_Matrix.c **** 		matrix[index].r[i] &= ~(uint8)(0x01<<(bit_pos));
  53              		.loc 1 104 0
  54 001c 1378     		ldrb	r3, [r2]
 105:.\LED_Matrix.c **** 		matrix[index].g[i] &= ~(uint8)(0x01<<(bit_pos));
  55              		.loc 1 105 0
  56 001e 5079     		ldrb	r0, [r2, #5]
 106:.\LED_Matrix.c **** 		matrix[index].b[i] &= ~(uint8)(0x01<<(bit_pos));
  57              		.loc 1 106 0
  58 0020 917A     		ldrb	r1, [r2, #10]
 104:.\LED_Matrix.c **** 		matrix[index].r[i] &= ~(uint8)(0x01<<(bit_pos));
  59              		.loc 1 104 0
  60 0022 2340     		and	r3, r4
 105:.\LED_Matrix.c **** 		matrix[index].g[i] &= ~(uint8)(0x01<<(bit_pos));
  61              		.loc 1 105 0
  62 0024 2040     		and	r0, r4
  63              		.loc 1 106 0
ARM GAS  C:\Users\Steve\AppData\Local\Temp\ccroCuoh.s 			page 4


  64 0026 2140     		and	r1, r4
 104:.\LED_Matrix.c **** 		matrix[index].r[i] &= ~(uint8)(0x01<<(bit_pos));
  65              		.loc 1 104 0
  66 0028 1370     		strb	r3, [r2]
 105:.\LED_Matrix.c **** 		matrix[index].g[i] &= ~(uint8)(0x01<<(bit_pos));
  67              		.loc 1 105 0
  68 002a 5071     		strb	r0, [r2, #5]
 104:.\LED_Matrix.c **** 		matrix[index].r[i] &= ~(uint8)(0x01<<(bit_pos));
  69              		.loc 1 104 0
  70 002c 5378     		ldrb	r3, [r2, #1]
 105:.\LED_Matrix.c **** 		matrix[index].g[i] &= ~(uint8)(0x01<<(bit_pos));
  71              		.loc 1 105 0
  72 002e 9079     		ldrb	r0, [r2, #6]
  73              		.loc 1 106 0
  74 0030 9172     		strb	r1, [r2, #10]
  75              	.LVL4:
  76 0032 D17A     		ldrb	r1, [r2, #11]
 104:.\LED_Matrix.c **** 		matrix[index].r[i] &= ~(uint8)(0x01<<(bit_pos));
  77              		.loc 1 104 0
  78 0034 2340     		and	r3, r4
 105:.\LED_Matrix.c **** 		matrix[index].g[i] &= ~(uint8)(0x01<<(bit_pos));
  79              		.loc 1 105 0
  80 0036 2040     		and	r0, r4
  81              		.loc 1 106 0
  82 0038 2140     		and	r1, r4
 104:.\LED_Matrix.c **** 		matrix[index].r[i] &= ~(uint8)(0x01<<(bit_pos));
  83              		.loc 1 104 0
  84 003a 5370     		strb	r3, [r2, #1]
 105:.\LED_Matrix.c **** 		matrix[index].g[i] &= ~(uint8)(0x01<<(bit_pos));
  85              		.loc 1 105 0
  86 003c 9071     		strb	r0, [r2, #6]
 104:.\LED_Matrix.c **** 		matrix[index].r[i] &= ~(uint8)(0x01<<(bit_pos));
  87              		.loc 1 104 0
  88 003e 9378     		ldrb	r3, [r2, #2]
 105:.\LED_Matrix.c **** 		matrix[index].g[i] &= ~(uint8)(0x01<<(bit_pos));
  89              		.loc 1 105 0
  90 0040 D079     		ldrb	r0, [r2, #7]
  91              		.loc 1 106 0
  92 0042 D172     		strb	r1, [r2, #11]
  93              	.LVL5:
  94 0044 117B     		ldrb	r1, [r2, #12]
 104:.\LED_Matrix.c **** 		matrix[index].r[i] &= ~(uint8)(0x01<<(bit_pos));
  95              		.loc 1 104 0
  96 0046 2340     		and	r3, r4
 105:.\LED_Matrix.c **** 		matrix[index].g[i] &= ~(uint8)(0x01<<(bit_pos));
  97              		.loc 1 105 0
  98 0048 2040     		and	r0, r4
  99              		.loc 1 106 0
 100 004a 2140     		and	r1, r4
 104:.\LED_Matrix.c **** 		matrix[index].r[i] &= ~(uint8)(0x01<<(bit_pos));
 101              		.loc 1 104 0
 102 004c 9370     		strb	r3, [r2, #2]
 105:.\LED_Matrix.c **** 		matrix[index].g[i] &= ~(uint8)(0x01<<(bit_pos));
 103              		.loc 1 105 0
 104 004e D071     		strb	r0, [r2, #7]
 104:.\LED_Matrix.c **** 		matrix[index].r[i] &= ~(uint8)(0x01<<(bit_pos));
 105              		.loc 1 104 0
ARM GAS  C:\Users\Steve\AppData\Local\Temp\ccroCuoh.s 			page 5


 106 0050 D378     		ldrb	r3, [r2, #3]
 105:.\LED_Matrix.c **** 		matrix[index].g[i] &= ~(uint8)(0x01<<(bit_pos));
 107              		.loc 1 105 0
 108 0052 107A     		ldrb	r0, [r2, #8]
 109              		.loc 1 106 0
 110 0054 1173     		strb	r1, [r2, #12]
 111              	.LVL6:
 112 0056 517B     		ldrb	r1, [r2, #13]
 104:.\LED_Matrix.c **** 		matrix[index].r[i] &= ~(uint8)(0x01<<(bit_pos));
 113              		.loc 1 104 0
 114 0058 2340     		and	r3, r4
 105:.\LED_Matrix.c **** 		matrix[index].g[i] &= ~(uint8)(0x01<<(bit_pos));
 115              		.loc 1 105 0
 116 005a 2040     		and	r0, r4
 117              		.loc 1 106 0
 118 005c 2140     		and	r1, r4
 104:.\LED_Matrix.c **** 		matrix[index].r[i] &= ~(uint8)(0x01<<(bit_pos));
 119              		.loc 1 104 0
 120 005e D370     		strb	r3, [r2, #3]
 105:.\LED_Matrix.c **** 		matrix[index].g[i] &= ~(uint8)(0x01<<(bit_pos));
 121              		.loc 1 105 0
 122 0060 1072     		strb	r0, [r2, #8]
 104:.\LED_Matrix.c **** 		matrix[index].r[i] &= ~(uint8)(0x01<<(bit_pos));
 123              		.loc 1 104 0
 124 0062 1379     		ldrb	r3, [r2, #4]
 105:.\LED_Matrix.c **** 		matrix[index].g[i] &= ~(uint8)(0x01<<(bit_pos));
 125              		.loc 1 105 0
 126 0064 507A     		ldrb	r0, [r2, #9]
 127              		.loc 1 106 0
 128 0066 5173     		strb	r1, [r2, #13]
 129              	.LVL7:
 130 0068 917B     		ldrb	r1, [r2, #14]
 104:.\LED_Matrix.c **** 		matrix[index].r[i] &= ~(uint8)(0x01<<(bit_pos));
 131              		.loc 1 104 0
 132 006a 2340     		and	r3, r4
 105:.\LED_Matrix.c **** 		matrix[index].g[i] &= ~(uint8)(0x01<<(bit_pos));
 133              		.loc 1 105 0
 134 006c 2040     		and	r0, r4
 135              		.loc 1 106 0
 136 006e 0C40     		and	r4, r1
 104:.\LED_Matrix.c **** 		matrix[index].r[i] &= ~(uint8)(0x01<<(bit_pos));
 137              		.loc 1 104 0
 138 0070 1371     		strb	r3, [r2, #4]
 105:.\LED_Matrix.c **** 		matrix[index].g[i] &= ~(uint8)(0x01<<(bit_pos));
 139              		.loc 1 105 0
 140 0072 5072     		strb	r0, [r2, #9]
 141              		.loc 1 106 0
 142 0074 9473     		strb	r4, [r2, #14]
 143              	.LVL8:
 107:.\LED_Matrix.c **** 	}
 108:.\LED_Matrix.c **** }
 144              		.loc 1 108 0
 145              		@ sp needed for prologue
 146 0076 10BD     		pop	{r4, pc}
 147              		.cfi_endproc
 148              	.LFE34:
 149              		.size	clearPixel, .-clearPixel
ARM GAS  C:\Users\Steve\AppData\Local\Temp\ccroCuoh.s 			page 6


 150              		.section	.text.drawPixel,"ax",%progbits
 151              		.align	2
 152              		.global	drawPixel
 153              		.code	16
 154              		.thumb_func
 155              		.type	drawPixel, %function
 156              	drawPixel:
 157              	.LFB33:
  45:.\LED_Matrix.c **** {
 158              		.loc 1 45 0
 159              		.cfi_startproc
 160              	.LVL9:
 161 0000 F0B5     		push	{r4, r5, r6, r7, lr}
 162              	.LCFI1:
 163              		.cfi_def_cfa_offset 20
 164              		.cfi_offset 4, -20
 165              		.cfi_offset 5, -16
 166              		.cfi_offset 6, -12
 167              		.cfi_offset 7, -8
 168              		.cfi_offset 14, -4
  56:.\LED_Matrix.c **** 	int8 scratch1 = y*4;
 169              		.loc 1 56 0
 170 0002 CFB2     		uxtb	r7, r1
 171              	.LVL10:
  45:.\LED_Matrix.c **** {
 172              		.loc 1 45 0
 173 0004 83B0     		sub	sp, sp, #12
 174              	.LCFI2:
 175              		.cfi_def_cfa_offset 32
  45:.\LED_Matrix.c **** {
 176              		.loc 1 45 0
 177 0006 041C     		mov	r4, r0
 178 0008 0192     		str	r2, [sp, #4]
  67:.\LED_Matrix.c **** 	clearPixel(x, y, matrix);
 179              		.loc 1 67 0
 180 000a 391C     		mov	r1, r7
 181              	.LVL11:
 182 000c 1A1C     		mov	r2, r3
 183 000e C0B2     		uxtb	r0, r0
 184              	.LVL12:
  45:.\LED_Matrix.c **** {
 185              		.loc 1 45 0
 186 0010 1E1C     		mov	r6, r3
  67:.\LED_Matrix.c **** 	clearPixel(x, y, matrix);
 187              		.loc 1 67 0
 188 0012 FFF7FEFF 		bl	clearPixel
 189              	.LVL13:
  62:.\LED_Matrix.c **** 	int8 scratch2 = (int8)(x/8);
 190              		.loc 1 62 0
 191 0016 E117     		asr	r1, r4, #31
 192 0018 490F     		lsr	r1, r1, #29
 193 001a 0C19     		add	r4, r1, r4
 194              	.LVL14:
  56:.\LED_Matrix.c **** 	int8 scratch1 = y*4;
 195              		.loc 1 56 0
 196 001c B800     		lsl	r0, r7, #2
  62:.\LED_Matrix.c **** 	int8 scratch2 = (int8)(x/8);
ARM GAS  C:\Users\Steve\AppData\Local\Temp\ccroCuoh.s 			page 7


 197              		.loc 1 62 0
 198 001e E310     		asr	r3, r4, #3
  65:.\LED_Matrix.c **** 	index = scratch1 + scratch2;
 199              		.loc 1 65 0
 200 0020 C218     		add	r2, r0, r3
 201 0022 57B2     		sxtb	r7, r2
 202              	.LVL15:
  63:.\LED_Matrix.c **** 	int8 bit_pos = (int8)x%8;
 203              		.loc 1 63 0
 204 0024 0722     		mov	r2, #7
 205 0026 3801     		lsl	r0, r7, #4
 206 0028 1440     		and	r4, r2
  45:.\LED_Matrix.c **** {
 207              		.loc 1 45 0
 208 002a 01AD     		add	r5, sp, #4
 209 002c C31B     		sub	r3, r0, r7
  63:.\LED_Matrix.c **** 	int8 bit_pos = (int8)x%8;
 210              		.loc 1 63 0
 211 002e 611A     		sub	r1, r4, r1
 212 0030 F318     		add	r3, r6, r3
 213 0032 4AB2     		sxtb	r2, r1
 214 0034 2E78     		ldrb	r6, [r5]
 215              	.LVL16:
  71:.\LED_Matrix.c **** 		matrix[index].r[i] |= (int8)((int8)((c.r & (0x01 << i)) && 1)<<(bit_pos));
 216              		.loc 1 71 0
 217 0036 0121     		mov	r1, #1
 218 0038 6C78     		ldrb	r4, [r5, #1]
 219 003a A878     		ldrb	r0, [r5, #2]
 220 003c 0D1C     		mov	r5, r1
 221 003e 1F78     		ldrb	r7, [r3]
 222 0040 3540     		and	r5, r6
 223 0042 9540     		lsl	r5, r5, r2
 224 0044 3D43     		orr	r5, r7
 225 0046 1D70     		strb	r5, [r3]
  72:.\LED_Matrix.c **** 		matrix[index].g[i] |= (int8)((int8)((c.g & (0x01 << i)) && 1)<<(bit_pos));
 226              		.loc 1 72 0
 227 0048 0D1C     		mov	r5, r1
 228 004a 5F79     		ldrb	r7, [r3, #5]
 229 004c 2540     		and	r5, r4
 230 004e 9540     		lsl	r5, r5, r2
 231 0050 3D43     		orr	r5, r7
 232 0052 5D71     		strb	r5, [r3, #5]
  73:.\LED_Matrix.c **** 		matrix[index].b[i] |= (int8)((int8)((c.b & (0x01 << i)) && 1)<<(bit_pos));
 233              		.loc 1 73 0
 234 0054 0D1C     		mov	r5, r1
 235 0056 9F7A     		ldrb	r7, [r3, #10]
 236 0058 0540     		and	r5, r0
 237 005a 9540     		lsl	r5, r5, r2
 238 005c 3D43     		orr	r5, r7
 239 005e 9D72     		strb	r5, [r3, #10]
 240              	.LVL17:
  71:.\LED_Matrix.c **** 		matrix[index].r[i] |= (int8)((int8)((c.r & (0x01 << i)) && 1)<<(bit_pos));
 241              		.loc 1 71 0
 242 0060 7510     		asr	r5, r6, #1
 243 0062 5F78     		ldrb	r7, [r3, #1]
 244 0064 0D40     		and	r5, r1
 245 0066 9540     		lsl	r5, r5, r2
ARM GAS  C:\Users\Steve\AppData\Local\Temp\ccroCuoh.s 			page 8


 246 0068 3D43     		orr	r5, r7
 247 006a 5D70     		strb	r5, [r3, #1]
  72:.\LED_Matrix.c **** 		matrix[index].g[i] |= (int8)((int8)((c.g & (0x01 << i)) && 1)<<(bit_pos));
 248              		.loc 1 72 0
 249 006c 6510     		asr	r5, r4, #1
 250 006e 9F79     		ldrb	r7, [r3, #6]
 251 0070 0D40     		and	r5, r1
 252 0072 9540     		lsl	r5, r5, r2
 253 0074 3D43     		orr	r5, r7
 254 0076 9D71     		strb	r5, [r3, #6]
  73:.\LED_Matrix.c **** 		matrix[index].b[i] |= (int8)((int8)((c.b & (0x01 << i)) && 1)<<(bit_pos));
 255              		.loc 1 73 0
 256 0078 4510     		asr	r5, r0, #1
 257 007a DF7A     		ldrb	r7, [r3, #11]
 258 007c 0D40     		and	r5, r1
 259 007e 9540     		lsl	r5, r5, r2
 260 0080 3D43     		orr	r5, r7
 261 0082 DD72     		strb	r5, [r3, #11]
 262              	.LVL18:
  71:.\LED_Matrix.c **** 		matrix[index].r[i] |= (int8)((int8)((c.r & (0x01 << i)) && 1)<<(bit_pos));
 263              		.loc 1 71 0
 264 0084 B510     		asr	r5, r6, #2
 265 0086 9F78     		ldrb	r7, [r3, #2]
 266 0088 0D40     		and	r5, r1
 267 008a 9540     		lsl	r5, r5, r2
 268 008c 3D43     		orr	r5, r7
 269 008e 9D70     		strb	r5, [r3, #2]
  72:.\LED_Matrix.c **** 		matrix[index].g[i] |= (int8)((int8)((c.g & (0x01 << i)) && 1)<<(bit_pos));
 270              		.loc 1 72 0
 271 0090 A510     		asr	r5, r4, #2
 272 0092 DF79     		ldrb	r7, [r3, #7]
 273 0094 0D40     		and	r5, r1
 274 0096 9540     		lsl	r5, r5, r2
 275 0098 3D43     		orr	r5, r7
 276 009a DD71     		strb	r5, [r3, #7]
  73:.\LED_Matrix.c **** 		matrix[index].b[i] |= (int8)((int8)((c.b & (0x01 << i)) && 1)<<(bit_pos));
 277              		.loc 1 73 0
 278 009c 8510     		asr	r5, r0, #2
 279 009e 1F7B     		ldrb	r7, [r3, #12]
 280 00a0 0D40     		and	r5, r1
 281 00a2 9540     		lsl	r5, r5, r2
 282 00a4 3D43     		orr	r5, r7
 283 00a6 1D73     		strb	r5, [r3, #12]
 284              	.LVL19:
  71:.\LED_Matrix.c **** 		matrix[index].r[i] |= (int8)((int8)((c.r & (0x01 << i)) && 1)<<(bit_pos));
 285              		.loc 1 71 0
 286 00a8 F510     		asr	r5, r6, #3
 287 00aa DF78     		ldrb	r7, [r3, #3]
 288 00ac 0D40     		and	r5, r1
 289 00ae 9540     		lsl	r5, r5, r2
 290 00b0 3D43     		orr	r5, r7
 291 00b2 DD70     		strb	r5, [r3, #3]
  72:.\LED_Matrix.c **** 		matrix[index].g[i] |= (int8)((int8)((c.g & (0x01 << i)) && 1)<<(bit_pos));
 292              		.loc 1 72 0
 293 00b4 E510     		asr	r5, r4, #3
 294 00b6 1F7A     		ldrb	r7, [r3, #8]
 295 00b8 0D40     		and	r5, r1
ARM GAS  C:\Users\Steve\AppData\Local\Temp\ccroCuoh.s 			page 9


 296 00ba 9540     		lsl	r5, r5, r2
 297 00bc 3D43     		orr	r5, r7
 298 00be 1D72     		strb	r5, [r3, #8]
  73:.\LED_Matrix.c **** 		matrix[index].b[i] |= (int8)((int8)((c.b & (0x01 << i)) && 1)<<(bit_pos));
 299              		.loc 1 73 0
 300 00c0 C510     		asr	r5, r0, #3
 301 00c2 5F7B     		ldrb	r7, [r3, #13]
 302 00c4 0D40     		and	r5, r1
 303 00c6 0011     		asr	r0, r0, #4
  71:.\LED_Matrix.c **** 		matrix[index].r[i] |= (int8)((int8)((c.r & (0x01 << i)) && 1)<<(bit_pos));
 304              		.loc 1 71 0
 305 00c8 3611     		asr	r6, r6, #4
  72:.\LED_Matrix.c **** 		matrix[index].g[i] |= (int8)((int8)((c.g & (0x01 << i)) && 1)<<(bit_pos));
 306              		.loc 1 72 0
 307 00ca 2411     		asr	r4, r4, #4
  73:.\LED_Matrix.c **** 		matrix[index].b[i] |= (int8)((int8)((c.b & (0x01 << i)) && 1)<<(bit_pos));
 308              		.loc 1 73 0
 309 00cc 9540     		lsl	r5, r5, r2
  71:.\LED_Matrix.c **** 		matrix[index].r[i] |= (int8)((int8)((c.r & (0x01 << i)) && 1)<<(bit_pos));
 310              		.loc 1 71 0
 311 00ce 0E40     		and	r6, r1
  72:.\LED_Matrix.c **** 		matrix[index].g[i] |= (int8)((int8)((c.g & (0x01 << i)) && 1)<<(bit_pos));
 312              		.loc 1 72 0
 313 00d0 0C40     		and	r4, r1
  73:.\LED_Matrix.c **** 		matrix[index].b[i] |= (int8)((int8)((c.b & (0x01 << i)) && 1)<<(bit_pos));
 314              		.loc 1 73 0
 315 00d2 0140     		and	r1, r0
 316 00d4 3D43     		orr	r5, r7
 317 00d6 9140     		lsl	r1, r1, r2
  72:.\LED_Matrix.c **** 		matrix[index].g[i] |= (int8)((int8)((c.g & (0x01 << i)) && 1)<<(bit_pos));
 318              		.loc 1 72 0
 319 00d8 5F7A     		ldrb	r7, [r3, #9]
  73:.\LED_Matrix.c **** 		matrix[index].b[i] |= (int8)((int8)((c.b & (0x01 << i)) && 1)<<(bit_pos));
 320              		.loc 1 73 0
 321 00da 5D73     		strb	r5, [r3, #13]
 322              	.LVL20:
  71:.\LED_Matrix.c **** 		matrix[index].r[i] |= (int8)((int8)((c.r & (0x01 << i)) && 1)<<(bit_pos));
 323              		.loc 1 71 0
 324 00dc 9640     		lsl	r6, r6, r2
 325 00de 1D79     		ldrb	r5, [r3, #4]
  72:.\LED_Matrix.c **** 		matrix[index].g[i] |= (int8)((int8)((c.g & (0x01 << i)) && 1)<<(bit_pos));
 326              		.loc 1 72 0
 327 00e0 9440     		lsl	r4, r4, r2
  73:.\LED_Matrix.c **** 		matrix[index].b[i] |= (int8)((int8)((c.b & (0x01 << i)) && 1)<<(bit_pos));
 328              		.loc 1 73 0
 329 00e2 0A1C     		mov	r2, r1
 330 00e4 997B     		ldrb	r1, [r3, #14]
  71:.\LED_Matrix.c **** 		matrix[index].r[i] |= (int8)((int8)((c.r & (0x01 << i)) && 1)<<(bit_pos));
 331              		.loc 1 71 0
 332 00e6 2E43     		orr	r6, r5
  72:.\LED_Matrix.c **** 		matrix[index].g[i] |= (int8)((int8)((c.g & (0x01 << i)) && 1)<<(bit_pos));
 333              		.loc 1 72 0
 334 00e8 3C43     		orr	r4, r7
  73:.\LED_Matrix.c **** 		matrix[index].b[i] |= (int8)((int8)((c.b & (0x01 << i)) && 1)<<(bit_pos));
 335              		.loc 1 73 0
 336 00ea 0A43     		orr	r2, r1
  71:.\LED_Matrix.c **** 		matrix[index].r[i] |= (int8)((int8)((c.r & (0x01 << i)) && 1)<<(bit_pos));
ARM GAS  C:\Users\Steve\AppData\Local\Temp\ccroCuoh.s 			page 10


 337              		.loc 1 71 0
 338 00ec 1E71     		strb	r6, [r3, #4]
  72:.\LED_Matrix.c **** 		matrix[index].g[i] |= (int8)((int8)((c.g & (0x01 << i)) && 1)<<(bit_pos));
 339              		.loc 1 72 0
 340 00ee 5C72     		strb	r4, [r3, #9]
  73:.\LED_Matrix.c **** 		matrix[index].b[i] |= (int8)((int8)((c.b & (0x01 << i)) && 1)<<(bit_pos));
 341              		.loc 1 73 0
 342 00f0 9A73     		strb	r2, [r3, #14]
 343              	.LVL21:
  75:.\LED_Matrix.c **** }
 344              		.loc 1 75 0
 345 00f2 03B0     		add	sp, sp, #12
 346              		@ sp needed for prologue
 347 00f4 F0BD     		pop	{r4, r5, r6, r7, pc}
 348              		.cfi_endproc
 349              	.LFE33:
 350              		.size	drawPixel, .-drawPixel
 351 00f6 C046     		.section	.text.clearScreen,"ax",%progbits
 352              		.align	2
 353              		.global	clearScreen
 354              		.code	16
 355              		.thumb_func
 356              		.type	clearScreen, %function
 357              	clearScreen:
 358              	.LFB35:
 109:.\LED_Matrix.c **** 
 110:.\LED_Matrix.c **** /*******************************************************************************
 111:.\LED_Matrix.c **** * Function Name: ClearScreen
 112:.\LED_Matrix.c **** ********************************************************************************
 113:.\LED_Matrix.c **** *
 114:.\LED_Matrix.c **** * Summary:
 115:.\LED_Matrix.c **** *  This function clears the 'matrix' buffer in RAM
 116:.\LED_Matrix.c **** *
 117:.\LED_Matrix.c **** * Parameters:  
 118:.\LED_Matrix.c **** * 	color *matrix: 	pointer to the matrix buffer
 119:.\LED_Matrix.c **** *
 120:.\LED_Matrix.c **** * Return:
 121:.\LED_Matrix.c **** *   None
 122:.\LED_Matrix.c **** *
 123:.\LED_Matrix.c **** *******************************************************************************/
 124:.\LED_Matrix.c **** void clearScreen(color *matrix)
 125:.\LED_Matrix.c **** {
 359              		.loc 1 125 0
 360              		.cfi_startproc
 361              	.LVL22:
 362 0000 00B5     		push	{lr}
 363              	.LCFI3:
 364              		.cfi_def_cfa_offset 4
 365              		.cfi_offset 14, -4
 124:.\LED_Matrix.c **** void clearScreen(color *matrix)
 366              		.loc 1 124 0
 367 0002 4021     		mov	r1, #64
 126:.\LED_Matrix.c **** 	uint8 x, index;
 127:.\LED_Matrix.c **** 	
 128:.\LED_Matrix.c **** 	for(index = 0; index < 64; index++)
 129:.\LED_Matrix.c **** 	{
 130:.\LED_Matrix.c **** 		for(x = 0; x < 5 ; x++)
ARM GAS  C:\Users\Steve\AppData\Local\Temp\ccroCuoh.s 			page 11


 131:.\LED_Matrix.c **** 		{
 132:.\LED_Matrix.c **** 			matrix[index].r[x] = 0x00;
 368              		.loc 1 132 0
 369 0004 0023     		mov	r3, #0
 370              	.LVL23:
 371              	.L4:
 372 0006 0239     		sub	r1, r1, #2
 373 0008 C9B2     		uxtb	r1, r1
 374              		.loc 1 132 0 is_stmt 0 discriminator 1
 375 000a 0370     		strb	r3, [r0]
 133:.\LED_Matrix.c **** 			matrix[index].g[x] = 0x00;
 376              		.loc 1 133 0 is_stmt 1 discriminator 1
 377 000c 4371     		strb	r3, [r0, #5]
 134:.\LED_Matrix.c **** 			matrix[index].b[x] = 0x00;
 378              		.loc 1 134 0 discriminator 1
 379 000e 8372     		strb	r3, [r0, #10]
 380              	.LVL24:
 132:.\LED_Matrix.c **** 			matrix[index].r[x] = 0x00;
 381              		.loc 1 132 0 discriminator 1
 382 0010 4370     		strb	r3, [r0, #1]
 133:.\LED_Matrix.c **** 			matrix[index].g[x] = 0x00;
 383              		.loc 1 133 0 discriminator 1
 384 0012 8371     		strb	r3, [r0, #6]
 385              		.loc 1 134 0 discriminator 1
 386 0014 C372     		strb	r3, [r0, #11]
 387              	.LVL25:
 132:.\LED_Matrix.c **** 			matrix[index].r[x] = 0x00;
 388              		.loc 1 132 0 discriminator 1
 389 0016 8370     		strb	r3, [r0, #2]
 133:.\LED_Matrix.c **** 			matrix[index].g[x] = 0x00;
 390              		.loc 1 133 0 discriminator 1
 391 0018 C371     		strb	r3, [r0, #7]
 392              		.loc 1 134 0 discriminator 1
 393 001a 0373     		strb	r3, [r0, #12]
 394              	.LVL26:
 132:.\LED_Matrix.c **** 			matrix[index].r[x] = 0x00;
 395              		.loc 1 132 0 discriminator 1
 396 001c C370     		strb	r3, [r0, #3]
 133:.\LED_Matrix.c **** 			matrix[index].g[x] = 0x00;
 397              		.loc 1 133 0 discriminator 1
 398 001e 0372     		strb	r3, [r0, #8]
 399              		.loc 1 134 0 discriminator 1
 400 0020 4373     		strb	r3, [r0, #13]
 401              	.LVL27:
 132:.\LED_Matrix.c **** 			matrix[index].r[x] = 0x00;
 402              		.loc 1 132 0 discriminator 1
 403 0022 0371     		strb	r3, [r0, #4]
 133:.\LED_Matrix.c **** 			matrix[index].g[x] = 0x00;
 404              		.loc 1 133 0 discriminator 1
 405 0024 4372     		strb	r3, [r0, #9]
 406              		.loc 1 134 0 discriminator 1
 407 0026 8373     		strb	r3, [r0, #14]
 408              	.LVL28:
 132:.\LED_Matrix.c **** 			matrix[index].r[x] = 0x00;
 409              		.loc 1 132 0 discriminator 1
 410 0028 C373     		strb	r3, [r0, #15]
 133:.\LED_Matrix.c **** 			matrix[index].g[x] = 0x00;
ARM GAS  C:\Users\Steve\AppData\Local\Temp\ccroCuoh.s 			page 12


 411              		.loc 1 133 0 discriminator 1
 412 002a 0375     		strb	r3, [r0, #20]
 413              		.loc 1 134 0 discriminator 1
 414 002c 4376     		strb	r3, [r0, #25]
 415              	.LVL29:
 132:.\LED_Matrix.c **** 			matrix[index].r[x] = 0x00;
 416              		.loc 1 132 0 discriminator 1
 417 002e 0374     		strb	r3, [r0, #16]
 133:.\LED_Matrix.c **** 			matrix[index].g[x] = 0x00;
 418              		.loc 1 133 0 discriminator 1
 419 0030 4375     		strb	r3, [r0, #21]
 420              		.loc 1 134 0 discriminator 1
 421 0032 8376     		strb	r3, [r0, #26]
 422              	.LVL30:
 132:.\LED_Matrix.c **** 			matrix[index].r[x] = 0x00;
 423              		.loc 1 132 0 discriminator 1
 424 0034 4374     		strb	r3, [r0, #17]
 133:.\LED_Matrix.c **** 			matrix[index].g[x] = 0x00;
 425              		.loc 1 133 0 discriminator 1
 426 0036 8375     		strb	r3, [r0, #22]
 427              		.loc 1 134 0 discriminator 1
 428 0038 C376     		strb	r3, [r0, #27]
 429              	.LVL31:
 132:.\LED_Matrix.c **** 			matrix[index].r[x] = 0x00;
 430              		.loc 1 132 0 discriminator 1
 431 003a 8374     		strb	r3, [r0, #18]
 133:.\LED_Matrix.c **** 			matrix[index].g[x] = 0x00;
 432              		.loc 1 133 0 discriminator 1
 433 003c C375     		strb	r3, [r0, #23]
 434              		.loc 1 134 0 discriminator 1
 435 003e 0377     		strb	r3, [r0, #28]
 436              	.LVL32:
 132:.\LED_Matrix.c **** 			matrix[index].r[x] = 0x00;
 437              		.loc 1 132 0 discriminator 1
 438 0040 C374     		strb	r3, [r0, #19]
 133:.\LED_Matrix.c **** 			matrix[index].g[x] = 0x00;
 439              		.loc 1 133 0 discriminator 1
 440 0042 0376     		strb	r3, [r0, #24]
 441              		.loc 1 134 0 discriminator 1
 442 0044 4377     		strb	r3, [r0, #29]
 443              	.LVL33:
 444 0046 1E30     		add	r0, r0, #30
 128:.\LED_Matrix.c **** 	for(index = 0; index < 64; index++)
 445              		.loc 1 128 0 discriminator 1
 446 0048 0029     		cmp	r1, #0
 447 004a DCD1     		bne	.L4
 135:.\LED_Matrix.c **** 		}
 136:.\LED_Matrix.c **** 	}
 137:.\LED_Matrix.c **** }
 448              		.loc 1 137 0
 449              		@ sp needed for prologue
 450 004c 00BD     		pop	{pc}
 451              		.cfi_endproc
 452              	.LFE35:
 453              		.size	clearScreen, .-clearScreen
 454 004e C046     		.section	.text.drawCircle,"ax",%progbits
 455              		.align	2
ARM GAS  C:\Users\Steve\AppData\Local\Temp\ccroCuoh.s 			page 13


 456              		.global	drawCircle
 457              		.code	16
 458              		.thumb_func
 459              		.type	drawCircle, %function
 460              	drawCircle:
 461              	.LFB36:
 138:.\LED_Matrix.c **** 
 139:.\LED_Matrix.c **** void drawCircle(int8 x0, int8 y0, int8 r,RGB c, color *matrix) {
 462              		.loc 1 139 0
 463              		.cfi_startproc
 464              	.LVL34:
 465 0000 F0B5     		push	{r4, r5, r6, r7, lr}
 466              	.LCFI4:
 467              		.cfi_def_cfa_offset 20
 468              		.cfi_offset 4, -20
 469              		.cfi_offset 5, -16
 470              		.cfi_offset 6, -12
 471              		.cfi_offset 7, -8
 472              		.cfi_offset 14, -4
 473 0002 5F46     		mov	r7, fp
 474 0004 5646     		mov	r6, sl
 475 0006 4D46     		mov	r5, r9
 476 0008 4446     		mov	r4, r8
 477 000a F0B4     		push	{r4, r5, r6, r7}
 478              	.LCFI5:
 479              		.cfi_def_cfa_offset 36
 480              		.cfi_offset 8, -36
 481              		.cfi_offset 9, -32
 482              		.cfi_offset 10, -28
 483              		.cfi_offset 11, -24
 484 000c 9046     		mov	r8, r2
 485 000e 0E1C     		mov	r6, r1
 140:.\LED_Matrix.c ****   int8 f = 1 - r;
 486              		.loc 1 140 0
 487 0010 4146     		mov	r1, r8
 488              	.LVL35:
 139:.\LED_Matrix.c **** void drawCircle(int8 x0, int8 y0, int8 r,RGB c, color *matrix) {
 489              		.loc 1 139 0
 490 0012 87B0     		sub	sp, sp, #28
 491              	.LCFI6:
 492              		.cfi_def_cfa_offset 64
 493              		.loc 1 140 0
 494 0014 CDB2     		uxtb	r5, r1
 139:.\LED_Matrix.c **** void drawCircle(int8 x0, int8 y0, int8 r,RGB c, color *matrix) {
 495              		.loc 1 139 0
 496 0016 1A1C     		mov	r2, r3
 497              	.LVL36:
 498 0018 0593     		str	r3, [sp, #20]
 499              		.loc 1 140 0
 500 001a 0127     		mov	r7, #1
 141:.\LED_Matrix.c ****   int8 ddF_x = 1;
 142:.\LED_Matrix.c ****   int8 ddF_y = -2 * r;
 501              		.loc 1 142 0
 502 001c EB01     		lsl	r3, r5, #7
 139:.\LED_Matrix.c **** void drawCircle(int8 x0, int8 y0, int8 r,RGB c, color *matrix) {
 503              		.loc 1 139 0
 504 001e 8146     		mov	r9, r0
ARM GAS  C:\Users\Steve\AppData\Local\Temp\ccroCuoh.s 			page 14


 505              		.loc 1 142 0
 506 0020 591B     		sub	r1, r3, r5
 140:.\LED_Matrix.c ****   int8 f = 1 - r;
 507              		.loc 1 140 0
 508 0022 781B     		sub	r0, r7, r5
 509              	.LVL37:
 139:.\LED_Matrix.c **** void drawCircle(int8 x0, int8 y0, int8 r,RGB c, color *matrix) {
 510              		.loc 1 139 0
 511 0024 109C     		ldr	r4, [sp, #64]
 140:.\LED_Matrix.c ****   int8 f = 1 - r;
 512              		.loc 1 140 0
 513 0026 C7B2     		uxtb	r7, r0
 514              	.LVL38:
 515              		.loc 1 142 0
 516 0028 4800     		lsl	r0, r1, #1
 517              	.LVL39:
 143:.\LED_Matrix.c ****   int8 x = 0;
 144:.\LED_Matrix.c ****   int8 y = r;
 145:.\LED_Matrix.c **** 
 146:.\LED_Matrix.c ****   drawPixel(x0 , y0+r, c,matrix);
 518              		.loc 1 146 0
 519 002a F1B2     		uxtb	r1, r6
 142:.\LED_Matrix.c ****   int8 ddF_y = -2 * r;
 520              		.loc 1 142 0
 521 002c C3B2     		uxtb	r3, r0
 522              		.loc 1 146 0
 523 002e 6818     		add	r0, r5, r1
 142:.\LED_Matrix.c ****   int8 ddF_y = -2 * r;
 524              		.loc 1 142 0
 525 0030 0493     		str	r3, [sp, #16]
 526              	.LVL40:
 527              		.loc 1 146 0
 528 0032 8A46     		mov	sl, r1
 529 0034 231C     		mov	r3, r4
 530 0036 41B2     		sxtb	r1, r0
 531 0038 4846     		mov	r0, r9
 532 003a FFF7FEFF 		bl	drawPixel
 533              	.LVL41:
 147:.\LED_Matrix.c ****   drawPixel(x0 , y0-r, c,matrix);
 534              		.loc 1 147 0
 535 003e 5246     		mov	r2, sl
 536 0040 531B     		sub	r3, r2, r5
 537 0042 59B2     		sxtb	r1, r3
 538 0044 4846     		mov	r0, r9
 539 0046 059A     		ldr	r2, [sp, #20]
 540 0048 231C     		mov	r3, r4
 541 004a FFF7FEFF 		bl	drawPixel
 542              	.LVL42:
 148:.\LED_Matrix.c ****   drawPixel(x0+r, y0 , c,matrix);
 543              		.loc 1 148 0
 544 004e 4946     		mov	r1, r9
 545 0050 C8B2     		uxtb	r0, r1
 546 0052 2A18     		add	r2, r5, r0
 547 0054 311C     		mov	r1, r6
 548 0056 8346     		mov	fp, r0
 549 0058 231C     		mov	r3, r4
 550 005a 50B2     		sxtb	r0, r2
ARM GAS  C:\Users\Steve\AppData\Local\Temp\ccroCuoh.s 			page 15


 551 005c 059A     		ldr	r2, [sp, #20]
 552 005e FFF7FEFF 		bl	drawPixel
 553              	.LVL43:
 149:.\LED_Matrix.c ****   drawPixel(x0-r, y0 , c,matrix);
 554              		.loc 1 149 0
 555 0062 5B46     		mov	r3, fp
 556 0064 5D1B     		sub	r5, r3, r5
 557 0066 311C     		mov	r1, r6
 558 0068 68B2     		sxtb	r0, r5
 559 006a 059A     		ldr	r2, [sp, #20]
 560 006c 231C     		mov	r3, r4
 150:.\LED_Matrix.c **** 
 151:.\LED_Matrix.c ****   while (x < y) 
 561              		.loc 1 151 0
 562 006e 4646     		mov	r6, r8
 149:.\LED_Matrix.c ****   drawPixel(x0-r, y0 , c,matrix);
 563              		.loc 1 149 0
 564 0070 FFF7FEFF 		bl	drawPixel
 565              	.LVL44:
 566              		.loc 1 151 0
 567 0074 002E     		cmp	r6, #0
 568 0076 6FDD     		ble	.L8
 569 0078 0196     		str	r6, [sp, #4]
 570 007a 0125     		mov	r5, #1
 571              	.LVL45:
 572              	.L9:
 152:.\LED_Matrix.c ****   {
 153:.\LED_Matrix.c ****     if (f >= 0) 
 573              		.loc 1 153 0
 574 007c 7AB2     		sxtb	r2, r7
 575 007e 002A     		cmp	r2, #0
 576 0080 0ADB     		blt	.L10
 154:.\LED_Matrix.c **** 	{
 155:.\LED_Matrix.c ****       y--;
 156:.\LED_Matrix.c ****       ddF_y += 2;
 577              		.loc 1 156 0
 578 0082 0499     		ldr	r1, [sp, #16]
 155:.\LED_Matrix.c ****       y--;
 579              		.loc 1 155 0
 580 0084 019B     		ldr	r3, [sp, #4]
 581              		.loc 1 156 0
 582 0086 0231     		add	r1, r1, #2
 583 0088 C8B2     		uxtb	r0, r1
 155:.\LED_Matrix.c ****       y--;
 584              		.loc 1 155 0
 585 008a 013B     		sub	r3, r3, #1
 586 008c DEB2     		uxtb	r6, r3
 587              		.loc 1 156 0
 588 008e C2B2     		uxtb	r2, r0
 157:.\LED_Matrix.c ****       f += ddF_y;
 589              		.loc 1 157 0
 590 0090 C719     		add	r7, r0, r7
 155:.\LED_Matrix.c ****       y--;
 591              		.loc 1 155 0
 592 0092 0196     		str	r6, [sp, #4]
 593              	.LVL46:
 156:.\LED_Matrix.c ****       ddF_y += 2;
ARM GAS  C:\Users\Steve\AppData\Local\Temp\ccroCuoh.s 			page 16


 594              		.loc 1 156 0
 595 0094 0492     		str	r2, [sp, #16]
 596              		.loc 1 157 0
 597 0096 FFB2     		uxtb	r7, r7
 598              	.LVL47:
 599              	.L10:
 158:.\LED_Matrix.c ****     }
 159:.\LED_Matrix.c ****     x++;
 600              		.loc 1 159 0
 601 0098 EBB2     		uxtb	r3, r5
 139:.\LED_Matrix.c **** void drawCircle(int8 x0, int8 y0, int8 r,RGB c, color *matrix) {
 602              		.loc 1 139 0
 603 009a 6E00     		lsl	r6, r5, #1
 604              		.loc 1 159 0
 605 009c 0393     		str	r3, [sp, #12]
 606              	.LVL48:
 139:.\LED_Matrix.c **** void drawCircle(int8 x0, int8 y0, int8 r,RGB c, color *matrix) {
 607              		.loc 1 139 0
 608 009e 0136     		add	r6, r6, #1
 160:.\LED_Matrix.c ****     ddF_x += 2;
 161:.\LED_Matrix.c ****     f += ddF_x;
 162:.\LED_Matrix.c ****   
 163:.\LED_Matrix.c ****     drawPixel(x0 + x, y0 + y, c,matrix);
 609              		.loc 1 163 0
 610 00a0 6B46     		mov	r3, sp
 161:.\LED_Matrix.c ****     f += ddF_x;
 611              		.loc 1 161 0
 612 00a2 B919     		add	r1, r7, r6
 613              		.loc 1 163 0
 614 00a4 1E79     		ldrb	r6, [r3, #4]
 139:.\LED_Matrix.c **** void drawCircle(int8 x0, int8 y0, int8 r,RGB c, color *matrix) {
 615              		.loc 1 139 0
 616 00a6 5846     		mov	r0, fp
 161:.\LED_Matrix.c ****     f += ddF_x;
 617              		.loc 1 161 0
 618 00a8 CFB2     		uxtb	r7, r1
 619              	.LVL49:
 620              		.loc 1 163 0
 621 00aa 5146     		mov	r1, sl
 622              	.LVL50:
 139:.\LED_Matrix.c **** void drawCircle(int8 x0, int8 y0, int8 r,RGB c, color *matrix) {
 623              		.loc 1 139 0
 624 00ac 4219     		add	r2, r0, r5
 625              		.loc 1 163 0
 626 00ae 7018     		add	r0, r6, r1
 627 00b0 43B2     		sxtb	r3, r0
 628 00b2 52B2     		sxtb	r2, r2
 629 00b4 9846     		mov	r8, r3
 630 00b6 101C     		mov	r0, r2
 631 00b8 191C     		mov	r1, r3
 632 00ba 0292     		str	r2, [sp, #8]
 633 00bc 231C     		mov	r3, r4
 634 00be 059A     		ldr	r2, [sp, #20]
 635 00c0 FFF7FEFF 		bl	drawPixel
 636              	.LVL51:
 139:.\LED_Matrix.c **** void drawCircle(int8 x0, int8 y0, int8 r,RGB c, color *matrix) {
 637              		.loc 1 139 0
ARM GAS  C:\Users\Steve\AppData\Local\Temp\ccroCuoh.s 			page 17


 638 00c4 5946     		mov	r1, fp
 639 00c6 481B     		sub	r0, r1, r5
 164:.\LED_Matrix.c ****     drawPixel(x0 - x, y0 + y, c,matrix);
 640              		.loc 1 164 0
 641 00c8 42B2     		sxtb	r2, r0
 642 00ca 9146     		mov	r9, r2
 643 00cc 101C     		mov	r0, r2
 644 00ce 4146     		mov	r1, r8
 645 00d0 059A     		ldr	r2, [sp, #20]
 646 00d2 231C     		mov	r3, r4
 647 00d4 FFF7FEFF 		bl	drawPixel
 648              	.LVL52:
 165:.\LED_Matrix.c ****     drawPixel(x0 + x, y0 - y, c,matrix);
 649              		.loc 1 165 0
 650 00d8 5346     		mov	r3, sl
 651 00da 991B     		sub	r1, r3, r6
 652 00dc 48B2     		sxtb	r0, r1
 653 00de 8046     		mov	r8, r0
 654 00e0 4146     		mov	r1, r8
 655 00e2 0298     		ldr	r0, [sp, #8]
 656 00e4 059A     		ldr	r2, [sp, #20]
 657 00e6 231C     		mov	r3, r4
 658 00e8 FFF7FEFF 		bl	drawPixel
 659              	.LVL53:
 166:.\LED_Matrix.c ****     drawPixel(x0 - x, y0 - y, c,matrix);
 660              		.loc 1 166 0
 661 00ec 4846     		mov	r0, r9
 662 00ee 4146     		mov	r1, r8
 663 00f0 059A     		ldr	r2, [sp, #20]
 664 00f2 231C     		mov	r3, r4
 665 00f4 FFF7FEFF 		bl	drawPixel
 666              	.LVL54:
 167:.\LED_Matrix.c ****     drawPixel(x0 + y, y0 + x, c,matrix);
 667              		.loc 1 167 0
 668 00f8 5A46     		mov	r2, fp
 139:.\LED_Matrix.c **** void drawCircle(int8 x0, int8 y0, int8 r,RGB c, color *matrix) {
 669              		.loc 1 139 0
 670 00fa 5346     		mov	r3, sl
 671 00fc 5919     		add	r1, r3, r5
 672              		.loc 1 167 0
 673 00fe B018     		add	r0, r6, r2
 674 0100 42B2     		sxtb	r2, r0
 675 0102 48B2     		sxtb	r0, r1
 676 0104 8146     		mov	r9, r0
 677 0106 4946     		mov	r1, r9
 678 0108 101C     		mov	r0, r2
 679 010a 9046     		mov	r8, r2
 680 010c 231C     		mov	r3, r4
 681 010e 059A     		ldr	r2, [sp, #20]
 682 0110 FFF7FEFF 		bl	drawPixel
 683              	.LVL55:
 168:.\LED_Matrix.c ****     drawPixel(x0 - y, y0 + x, c,matrix);
 684              		.loc 1 168 0
 685 0114 5B46     		mov	r3, fp
 686 0116 9E1B     		sub	r6, r3, r6
 687 0118 76B2     		sxtb	r6, r6
 688 011a 301C     		mov	r0, r6
ARM GAS  C:\Users\Steve\AppData\Local\Temp\ccroCuoh.s 			page 18


 689 011c 4946     		mov	r1, r9
 690 011e 059A     		ldr	r2, [sp, #20]
 691 0120 231C     		mov	r3, r4
 692 0122 FFF7FEFF 		bl	drawPixel
 693              	.LVL56:
 139:.\LED_Matrix.c **** void drawCircle(int8 x0, int8 y0, int8 r,RGB c, color *matrix) {
 694              		.loc 1 139 0
 695 0126 5146     		mov	r1, sl
 696 0128 4A1B     		sub	r2, r1, r5
 169:.\LED_Matrix.c ****     drawPixel(x0 + y, y0 - x, c,matrix);
 697              		.loc 1 169 0
 698 012a 50B2     		sxtb	r0, r2
 699 012c 8146     		mov	r9, r0
 700 012e 4946     		mov	r1, r9
 701 0130 4046     		mov	r0, r8
 702 0132 059A     		ldr	r2, [sp, #20]
 703 0134 231C     		mov	r3, r4
 704 0136 FFF7FEFF 		bl	drawPixel
 705              	.LVL57:
 170:.\LED_Matrix.c ****     drawPixel(x0 - y, y0 - x, c,matrix);
 706              		.loc 1 170 0
 707 013a 301C     		mov	r0, r6
 708 013c 4946     		mov	r1, r9
 709 013e 059A     		ldr	r2, [sp, #20]
 710 0140 231C     		mov	r3, r4
 711 0142 FFF7FEFF 		bl	drawPixel
 712              	.LVL58:
 151:.\LED_Matrix.c ****   while (x < y) 
 713              		.loc 1 151 0
 714 0146 0426     		mov	r6, #4
 715 0148 6B46     		mov	r3, sp
 716 014a 0C21     		mov	r1, #12
 717 014c 9A57     		ldrsb	r2, [r3, r6]
 718 014e C856     		ldrsb	r0, [r1, r3]
 719 0150 0135     		add	r5, r5, #1
 720              	.LVL59:
 721 0152 EDB2     		uxtb	r5, r5
 722              	.LVL60:
 723 0154 8242     		cmp	r2, r0
 724 0156 91DC     		bgt	.L9
 725              	.LVL61:
 726              	.L8:
 171:.\LED_Matrix.c ****   }
 172:.\LED_Matrix.c **** 
 173:.\LED_Matrix.c **** }
 727              		.loc 1 173 0
 728 0158 07B0     		add	sp, sp, #28
 729              		@ sp needed for prologue
 730 015a 3CBC     		pop	{r2, r3, r4, r5}
 731 015c 9046     		mov	r8, r2
 732 015e 9946     		mov	r9, r3
 733 0160 A246     		mov	sl, r4
 734 0162 AB46     		mov	fp, r5
 735 0164 F0BD     		pop	{r4, r5, r6, r7, pc}
 736              		.cfi_endproc
 737              	.LFE36:
 738              		.size	drawCircle, .-drawCircle
ARM GAS  C:\Users\Steve\AppData\Local\Temp\ccroCuoh.s 			page 19


 739 0166 C046     		.section	.text.drawCircleHelper,"ax",%progbits
 740              		.align	2
 741              		.global	drawCircleHelper
 742              		.code	16
 743              		.thumb_func
 744              		.type	drawCircleHelper, %function
 745              	drawCircleHelper:
 746              	.LFB37:
 174:.\LED_Matrix.c **** 
 175:.\LED_Matrix.c **** void drawCircleHelper( int8 x0, int8 y0,int8 r, int8 cornername, RGB c, color *matrix) {
 747              		.loc 1 175 0
 748              		.cfi_startproc
 749              	.LVL62:
 750 0000 F0B5     		push	{r4, r5, r6, r7, lr}
 751              	.LCFI7:
 752              		.cfi_def_cfa_offset 20
 753              		.cfi_offset 4, -20
 754              		.cfi_offset 5, -16
 755              		.cfi_offset 6, -12
 756              		.cfi_offset 7, -8
 757              		.cfi_offset 14, -4
 758 0002 5F46     		mov	r7, fp
 759 0004 5646     		mov	r6, sl
 760 0006 4D46     		mov	r5, r9
 761 0008 4446     		mov	r4, r8
 762 000a F0B4     		push	{r4, r5, r6, r7}
 763              	.LCFI8:
 764              		.cfi_def_cfa_offset 36
 765              		.cfi_offset 8, -36
 766              		.cfi_offset 9, -32
 767              		.cfi_offset 10, -28
 768              		.cfi_offset 11, -24
 176:.\LED_Matrix.c ****   int8 f = 1 - r;
 769              		.loc 1 176 0
 770 000c D4B2     		uxtb	r4, r2
 771 000e 0125     		mov	r5, #1
 772 0010 2E1B     		sub	r6, r5, r4
 773 0012 F5B2     		uxtb	r5, r6
 774              	.LVL63:
 177:.\LED_Matrix.c ****   int8 ddF_x = 1;
 178:.\LED_Matrix.c ****   int8 ddF_y = -2 * r;
 775              		.loc 1 178 0
 776 0014 E601     		lsl	r6, r4, #7
 777              	.LVL64:
 778 0016 341B     		sub	r4, r6, r4
 779 0018 6600     		lsl	r6, r4, #1
 175:.\LED_Matrix.c **** void drawCircleHelper( int8 x0, int8 y0,int8 r, int8 cornername, RGB c, color *matrix) {
 780              		.loc 1 175 0
 781 001a 87B0     		sub	sp, sp, #28
 782              	.LCFI9:
 783              		.cfi_def_cfa_offset 64
 784              		.loc 1 178 0
 785 001c F4B2     		uxtb	r4, r6
 175:.\LED_Matrix.c **** void drawCircleHelper( int8 x0, int8 y0,int8 r, int8 cornername, RGB c, color *matrix) {
 786              		.loc 1 175 0
 787 001e 119F     		ldr	r7, [sp, #68]
 788              		.loc 1 178 0
ARM GAS  C:\Users\Steve\AppData\Local\Temp\ccroCuoh.s 			page 20


 789 0020 0194     		str	r4, [sp, #4]
 790              	.LVL65:
 179:.\LED_Matrix.c ****   int8 x = 0;
 180:.\LED_Matrix.c ****   int8 y = r;
 181:.\LED_Matrix.c **** 
 182:.\LED_Matrix.c ****   while (x<y) {
 791              		.loc 1 182 0
 792 0022 002A     		cmp	r2, #0
 793 0024 00DC     		bgt	.LCB668
 794 0026 9FE0     		b	.L14	@long jump
 795              	.LCB668:
 796 0028 0226     		mov	r6, #2
 797 002a 0824     		mov	r4, #8
 798 002c 1E40     		and	r6, r3
 799 002e 1C40     		and	r4, r3
 800 0030 0396     		str	r6, [sp, #12]
 801 0032 0294     		str	r4, [sp, #8]
 802 0034 0126     		mov	r6, #1
 803 0036 0424     		mov	r4, #4
 804 0038 1E40     		and	r6, r3
 805 003a 1C40     		and	r4, r3
 183:.\LED_Matrix.c ****     if (f >= 0) {
 184:.\LED_Matrix.c ****       y--;
 185:.\LED_Matrix.c ****       ddF_y += 2;
 186:.\LED_Matrix.c ****       f += ddF_y;
 187:.\LED_Matrix.c ****     }
 188:.\LED_Matrix.c ****     x++;
 189:.\LED_Matrix.c ****     ddF_x += 2;
 190:.\LED_Matrix.c ****     f += ddF_x;
 191:.\LED_Matrix.c ****     if (cornername & 0x4) {
 192:.\LED_Matrix.c ****       drawPixel(x0 + x, y0 + y, c, matrix);
 806              		.loc 1 192 0
 807 003c C0B2     		uxtb	r0, r0
 808 003e C9B2     		uxtb	r1, r1
 809 0040 0596     		str	r6, [sp, #20]
 810 0042 0494     		str	r4, [sp, #16]
 182:.\LED_Matrix.c ****   while (x<y) {
 811              		.loc 1 182 0
 812 0044 161C     		mov	r6, r2
 813 0046 0124     		mov	r4, #1
 814              		.loc 1 192 0
 815 0048 8146     		mov	r9, r0
 816 004a 8846     		mov	r8, r1
 817 004c 0FE0     		b	.L21
 818              	.LVL66:
 819              	.L17:
 193:.\LED_Matrix.c ****       drawPixel(x0 + y, y0 + x, c, matrix);
 194:.\LED_Matrix.c ****     }
 195:.\LED_Matrix.c ****     if (cornername & 0x2) {
 820              		.loc 1 195 0
 821 004e 0398     		ldr	r0, [sp, #12]
 822              	.LVL67:
 823 0050 0028     		cmp	r0, #0
 824 0052 39D1     		bne	.L36
 825              	.L18:
 196:.\LED_Matrix.c ****       drawPixel(x0 + x, y0 - y, c, matrix);
 197:.\LED_Matrix.c ****       drawPixel(x0 + y, y0 - x, c, matrix);
ARM GAS  C:\Users\Steve\AppData\Local\Temp\ccroCuoh.s 			page 21


 198:.\LED_Matrix.c ****     }
 199:.\LED_Matrix.c ****     if (cornername & 0x8) {
 826              		.loc 1 199 0
 827 0054 0298     		ldr	r0, [sp, #8]
 828 0056 0028     		cmp	r0, #0
 829 0058 4FD1     		bne	.L37
 830              	.L19:
 200:.\LED_Matrix.c ****       drawPixel(x0 - y, y0 + x, c, matrix);
 201:.\LED_Matrix.c ****       drawPixel(x0 - x, y0 + y, c, matrix);
 202:.\LED_Matrix.c ****     }
 203:.\LED_Matrix.c ****     if (cornername & 0x1) {
 831              		.loc 1 203 0
 832 005a 0598     		ldr	r0, [sp, #20]
 833 005c 0028     		cmp	r0, #0
 834 005e 65D1     		bne	.L38
 835              	.L20:
 836              	.LVL68:
 182:.\LED_Matrix.c ****   while (x<y) {
 837              		.loc 1 182 0 discriminator 1
 838 0060 5146     		mov	r1, sl
 839 0062 0134     		add	r4, r4, #1
 840              	.LVL69:
 841 0064 70B2     		sxtb	r0, r6
 842 0066 4BB2     		sxtb	r3, r1
 843 0068 E4B2     		uxtb	r4, r4
 844              	.LVL70:
 845 006a 9842     		cmp	r0, r3
 846 006c 7CDD     		ble	.L14
 847              	.LVL71:
 848              	.L21:
 183:.\LED_Matrix.c ****     if (f >= 0) {
 849              		.loc 1 183 0
 850 006e 6BB2     		sxtb	r3, r5
 851 0070 002B     		cmp	r3, #0
 852 0072 08DB     		blt	.L16
 185:.\LED_Matrix.c ****       ddF_y += 2;
 853              		.loc 1 185 0
 854 0074 019A     		ldr	r2, [sp, #4]
 184:.\LED_Matrix.c ****       y--;
 855              		.loc 1 184 0
 856 0076 013E     		sub	r6, r6, #1
 185:.\LED_Matrix.c ****       ddF_y += 2;
 857              		.loc 1 185 0
 858 0078 0232     		add	r2, r2, #2
 859 007a D0B2     		uxtb	r0, r2
 860 007c C1B2     		uxtb	r1, r0
 186:.\LED_Matrix.c ****       f += ddF_y;
 861              		.loc 1 186 0
 862 007e 4519     		add	r5, r0, r5
 184:.\LED_Matrix.c ****       y--;
 863              		.loc 1 184 0
 864 0080 F6B2     		uxtb	r6, r6
 865              	.LVL72:
 185:.\LED_Matrix.c ****       ddF_y += 2;
 866              		.loc 1 185 0
 867 0082 0191     		str	r1, [sp, #4]
 186:.\LED_Matrix.c ****       f += ddF_y;
ARM GAS  C:\Users\Steve\AppData\Local\Temp\ccroCuoh.s 			page 22


 868              		.loc 1 186 0
 869 0084 EDB2     		uxtb	r5, r5
 870              	.LVL73:
 871              	.L16:
 175:.\LED_Matrix.c **** void drawCircleHelper( int8 x0, int8 y0,int8 r, int8 cornername, RGB c, color *matrix) {
 872              		.loc 1 175 0
 873 0086 6200     		lsl	r2, r4, #1
 874 0088 0132     		add	r2, r2, #1
 191:.\LED_Matrix.c ****     if (cornername & 0x4) {
 875              		.loc 1 191 0
 876 008a 0499     		ldr	r1, [sp, #16]
 188:.\LED_Matrix.c ****     x++;
 877              		.loc 1 188 0
 878 008c E3B2     		uxtb	r3, r4
 190:.\LED_Matrix.c ****     f += ddF_x;
 879              		.loc 1 190 0
 880 008e A818     		add	r0, r5, r2
 188:.\LED_Matrix.c ****     x++;
 881              		.loc 1 188 0
 882 0090 9A46     		mov	sl, r3
 883              	.LVL74:
 190:.\LED_Matrix.c ****     f += ddF_x;
 884              		.loc 1 190 0
 885 0092 C5B2     		uxtb	r5, r0
 886              	.LVL75:
 191:.\LED_Matrix.c ****     if (cornername & 0x4) {
 887              		.loc 1 191 0
 888 0094 0029     		cmp	r1, #0
 889 0096 DAD0     		beq	.L17
 192:.\LED_Matrix.c ****       drawPixel(x0 + x, y0 + y, c, matrix);
 890              		.loc 1 192 0
 891 0098 F1B2     		uxtb	r1, r6
 175:.\LED_Matrix.c **** void drawCircleHelper( int8 x0, int8 y0,int8 r, int8 cornername, RGB c, color *matrix) {
 892              		.loc 1 175 0
 893 009a 4B46     		mov	r3, r9
 894 009c 1A19     		add	r2, r3, r4
 192:.\LED_Matrix.c ****       drawPixel(x0 + x, y0 + y, c, matrix);
 895              		.loc 1 192 0
 896 009e 8B46     		mov	fp, r1
 897 00a0 4144     		add	r1, r1, r8
 898 00a2 50B2     		sxtb	r0, r2
 899              	.LVL76:
 900 00a4 49B2     		sxtb	r1, r1
 901 00a6 109A     		ldr	r2, [sp, #64]
 902 00a8 3B1C     		mov	r3, r7
 903 00aa FFF7FEFF 		bl	drawPixel
 904              	.LVL77:
 175:.\LED_Matrix.c **** void drawCircleHelper( int8 x0, int8 y0,int8 r, int8 cornername, RGB c, color *matrix) {
 905              		.loc 1 175 0
 906 00ae 4346     		mov	r3, r8
 193:.\LED_Matrix.c ****       drawPixel(x0 + y, y0 + x, c, matrix);
 907              		.loc 1 193 0
 908 00b0 5946     		mov	r1, fp
 175:.\LED_Matrix.c **** void drawCircleHelper( int8 x0, int8 y0,int8 r, int8 cornername, RGB c, color *matrix) {
 909              		.loc 1 175 0
 910 00b2 1A19     		add	r2, r3, r4
 193:.\LED_Matrix.c ****       drawPixel(x0 + y, y0 + x, c, matrix);
ARM GAS  C:\Users\Steve\AppData\Local\Temp\ccroCuoh.s 			page 23


 911              		.loc 1 193 0
 912 00b4 4944     		add	r1, r1, r9
 913 00b6 48B2     		sxtb	r0, r1
 914 00b8 3B1C     		mov	r3, r7
 915 00ba 51B2     		sxtb	r1, r2
 916 00bc 109A     		ldr	r2, [sp, #64]
 917 00be FFF7FEFF 		bl	drawPixel
 918              	.LVL78:
 195:.\LED_Matrix.c ****     if (cornername & 0x2) {
 919              		.loc 1 195 0
 920 00c2 0398     		ldr	r0, [sp, #12]
 921 00c4 0028     		cmp	r0, #0
 922 00c6 C5D0     		beq	.L18
 923              	.L36:
 175:.\LED_Matrix.c **** void drawCircleHelper( int8 x0, int8 y0,int8 r, int8 cornername, RGB c, color *matrix) {
 924              		.loc 1 175 0
 925 00c8 4B46     		mov	r3, r9
 926 00ca 1A19     		add	r2, r3, r4
 196:.\LED_Matrix.c ****       drawPixel(x0 + x, y0 - y, c, matrix);
 927              		.loc 1 196 0
 928 00cc F1B2     		uxtb	r1, r6
 929 00ce 4346     		mov	r3, r8
 930 00d0 8B46     		mov	fp, r1
 931 00d2 591A     		sub	r1, r3, r1
 932 00d4 50B2     		sxtb	r0, r2
 933 00d6 49B2     		sxtb	r1, r1
 934 00d8 109A     		ldr	r2, [sp, #64]
 935 00da 3B1C     		mov	r3, r7
 936 00dc FFF7FEFF 		bl	drawPixel
 937              	.LVL79:
 175:.\LED_Matrix.c **** void drawCircleHelper( int8 x0, int8 y0,int8 r, int8 cornername, RGB c, color *matrix) {
 938              		.loc 1 175 0
 939 00e0 4346     		mov	r3, r8
 197:.\LED_Matrix.c ****       drawPixel(x0 + y, y0 - x, c, matrix);
 940              		.loc 1 197 0
 941 00e2 5A46     		mov	r2, fp
 942 00e4 4A44     		add	r2, r2, r9
 175:.\LED_Matrix.c **** void drawCircleHelper( int8 x0, int8 y0,int8 r, int8 cornername, RGB c, color *matrix) {
 943              		.loc 1 175 0
 944 00e6 191B     		sub	r1, r3, r4
 197:.\LED_Matrix.c ****       drawPixel(x0 + y, y0 - x, c, matrix);
 945              		.loc 1 197 0
 946 00e8 50B2     		sxtb	r0, r2
 947 00ea 49B2     		sxtb	r1, r1
 948 00ec 109A     		ldr	r2, [sp, #64]
 949 00ee 3B1C     		mov	r3, r7
 950 00f0 FFF7FEFF 		bl	drawPixel
 951              	.LVL80:
 199:.\LED_Matrix.c ****     if (cornername & 0x8) {
 952              		.loc 1 199 0
 953 00f4 0298     		ldr	r0, [sp, #8]
 954 00f6 0028     		cmp	r0, #0
 955 00f8 AFD0     		beq	.L19
 956              	.L37:
 200:.\LED_Matrix.c ****       drawPixel(x0 - y, y0 + x, c, matrix);
 957              		.loc 1 200 0
 958 00fa F3B2     		uxtb	r3, r6
ARM GAS  C:\Users\Steve\AppData\Local\Temp\ccroCuoh.s 			page 24


 959 00fc 4A46     		mov	r2, r9
 960 00fe D11A     		sub	r1, r2, r3
 961 0100 9B46     		mov	fp, r3
 175:.\LED_Matrix.c **** void drawCircleHelper( int8 x0, int8 y0,int8 r, int8 cornername, RGB c, color *matrix) {
 962              		.loc 1 175 0
 963 0102 4346     		mov	r3, r8
 964 0104 1A19     		add	r2, r3, r4
 200:.\LED_Matrix.c ****       drawPixel(x0 - y, y0 + x, c, matrix);
 965              		.loc 1 200 0
 966 0106 48B2     		sxtb	r0, r1
 967 0108 3B1C     		mov	r3, r7
 968 010a 51B2     		sxtb	r1, r2
 969 010c 109A     		ldr	r2, [sp, #64]
 970 010e FFF7FEFF 		bl	drawPixel
 971              	.LVL81:
 175:.\LED_Matrix.c **** void drawCircleHelper( int8 x0, int8 y0,int8 r, int8 cornername, RGB c, color *matrix) {
 972              		.loc 1 175 0
 973 0112 4846     		mov	r0, r9
 201:.\LED_Matrix.c ****       drawPixel(x0 - x, y0 + y, c, matrix);
 974              		.loc 1 201 0
 975 0114 5A46     		mov	r2, fp
 175:.\LED_Matrix.c **** void drawCircleHelper( int8 x0, int8 y0,int8 r, int8 cornername, RGB c, color *matrix) {
 976              		.loc 1 175 0
 977 0116 011B     		sub	r1, r0, r4
 201:.\LED_Matrix.c ****       drawPixel(x0 - x, y0 + y, c, matrix);
 978              		.loc 1 201 0
 979 0118 4244     		add	r2, r2, r8
 980 011a 48B2     		sxtb	r0, r1
 981 011c 3B1C     		mov	r3, r7
 982 011e 51B2     		sxtb	r1, r2
 983 0120 109A     		ldr	r2, [sp, #64]
 984 0122 FFF7FEFF 		bl	drawPixel
 985              	.LVL82:
 986              		.loc 1 203 0
 987 0126 0598     		ldr	r0, [sp, #20]
 988 0128 0028     		cmp	r0, #0
 989 012a 99D0     		beq	.L20
 990              	.L38:
 204:.\LED_Matrix.c ****       drawPixel(x0 - y, y0 - x, c, matrix);
 991              		.loc 1 204 0
 992 012c F1B2     		uxtb	r1, r6
 993 012e 4B46     		mov	r3, r9
 994 0130 5A1A     		sub	r2, r3, r1
 995 0132 8B46     		mov	fp, r1
 175:.\LED_Matrix.c **** void drawCircleHelper( int8 x0, int8 y0,int8 r, int8 cornername, RGB c, color *matrix) {
 996              		.loc 1 175 0
 997 0134 4146     		mov	r1, r8
 998 0136 0B1B     		sub	r3, r1, r4
 999              		.loc 1 204 0
 1000 0138 50B2     		sxtb	r0, r2
 1001 013a 59B2     		sxtb	r1, r3
 1002 013c 109A     		ldr	r2, [sp, #64]
 1003 013e 3B1C     		mov	r3, r7
 1004 0140 FFF7FEFF 		bl	drawPixel
 1005              	.LVL83:
 175:.\LED_Matrix.c **** void drawCircleHelper( int8 x0, int8 y0,int8 r, int8 cornername, RGB c, color *matrix) {
 1006              		.loc 1 175 0
ARM GAS  C:\Users\Steve\AppData\Local\Temp\ccroCuoh.s 			page 25


 1007 0144 4846     		mov	r0, r9
 1008 0146 021B     		sub	r2, r0, r4
 205:.\LED_Matrix.c ****       drawPixel(x0 - x, y0 - y, c, matrix);
 1009              		.loc 1 205 0
 1010 0148 4146     		mov	r1, r8
 1011 014a 5B46     		mov	r3, fp
 1012 014c 50B2     		sxtb	r0, r2
 1013 014e CA1A     		sub	r2, r1, r3
 1014 0150 51B2     		sxtb	r1, r2
 1015 0152 3B1C     		mov	r3, r7
 1016 0154 109A     		ldr	r2, [sp, #64]
 1017 0156 FFF7FEFF 		bl	drawPixel
 1018              	.LVL84:
 182:.\LED_Matrix.c ****   while (x<y) {
 1019              		.loc 1 182 0
 1020 015a 5146     		mov	r1, sl
 1021 015c 0134     		add	r4, r4, #1
 1022              	.LVL85:
 1023 015e 70B2     		sxtb	r0, r6
 1024 0160 4BB2     		sxtb	r3, r1
 1025 0162 E4B2     		uxtb	r4, r4
 1026              	.LVL86:
 1027 0164 9842     		cmp	r0, r3
 1028 0166 82DC     		bgt	.L21
 1029              	.LVL87:
 1030              	.L14:
 206:.\LED_Matrix.c ****     }
 207:.\LED_Matrix.c ****   }
 208:.\LED_Matrix.c **** }
 1031              		.loc 1 208 0
 1032 0168 07B0     		add	sp, sp, #28
 1033              		@ sp needed for prologue
 1034 016a 3CBC     		pop	{r2, r3, r4, r5}
 1035 016c 9046     		mov	r8, r2
 1036 016e 9946     		mov	r9, r3
 1037 0170 A246     		mov	sl, r4
 1038 0172 AB46     		mov	fp, r5
 1039 0174 F0BD     		pop	{r4, r5, r6, r7, pc}
 1040              		.cfi_endproc
 1041              	.LFE37:
 1042              		.size	drawCircleHelper, .-drawCircleHelper
 1043 0176 C046     		.section	.text.drawLine,"ax",%progbits
 1044              		.align	2
 1045              		.global	drawLine
 1046              		.code	16
 1047              		.thumb_func
 1048              		.type	drawLine, %function
 1049              	drawLine:
 1050              	.LFB38:
 209:.\LED_Matrix.c **** 
 210:.\LED_Matrix.c **** void drawLine(int8 x0, int8 y0, int8 x1, int8 y1, RGB c, color *matrix)
 211:.\LED_Matrix.c **** {
 1051              		.loc 1 211 0
 1052              		.cfi_startproc
 1053              	.LVL88:
 1054 0000 F0B5     		push	{r4, r5, r6, r7, lr}
 1055              	.LCFI10:
ARM GAS  C:\Users\Steve\AppData\Local\Temp\ccroCuoh.s 			page 26


 1056              		.cfi_def_cfa_offset 20
 1057              		.cfi_offset 4, -20
 1058              		.cfi_offset 5, -16
 1059              		.cfi_offset 6, -12
 1060              		.cfi_offset 7, -8
 1061              		.cfi_offset 14, -4
 1062 0002 4D46     		mov	r5, r9
 1063 0004 4446     		mov	r4, r8
 1064 0006 5F46     		mov	r7, fp
 1065 0008 5646     		mov	r6, sl
 1066 000a F0B4     		push	{r4, r5, r6, r7}
 1067              	.LCFI11:
 1068              		.cfi_def_cfa_offset 36
 1069              		.cfi_offset 8, -36
 1070              		.cfi_offset 9, -32
 1071              		.cfi_offset 10, -28
 1072              		.cfi_offset 11, -24
 1073 000c 83B0     		sub	sp, sp, #12
 1074              	.LCFI12:
 1075              		.cfi_def_cfa_offset 48
 1076              		.loc 1 211 0
 1077 000e 041C     		mov	r4, r0
 1078 0010 0D1C     		mov	r5, r1
 1079 0012 0D98     		ldr	r0, [sp, #52]
 1080              	.LVL89:
 212:.\LED_Matrix.c ****   int8 steep = abs(y1 - y0) > abs(x1 - x0);
 1081              		.loc 1 212 0
 1082 0014 5E1B     		sub	r6, r3, r5
 211:.\LED_Matrix.c **** {
 1083              		.loc 1 211 0
 1084 0016 8046     		mov	r8, r0
 1085              		.loc 1 212 0
 1086 0018 F017     		asr	r0, r6, #31
 1087 001a 3618     		add	r6, r6, r0
 1088 001c 4640     		eor	r6, r0
 211:.\LED_Matrix.c **** {
 1089              		.loc 1 211 0
 1090 001e 171C     		mov	r7, r2
 1091              		.loc 1 212 0
 1092 0020 B146     		mov	r9, r6
 1093 0022 3E1B     		sub	r6, r7, r4
 1094 0024 F017     		asr	r0, r6, #31
 1095 0026 3618     		add	r6, r6, r0
 1096 0028 211C     		mov	r1, r4
 1097              	.LVL90:
 1098 002a 4640     		eor	r6, r0
 1099 002c B145     		cmp	r9, r6
 1100 002e 00DC     		bgt	.LCB973
 1101 0030 B9E0     		b	.L67	@long jump
 1102              	.LCB973:
 1103 0032 0124     		mov	r4, #1
 1104 0034 A146     		mov	r9, r4
 213:.\LED_Matrix.c ****   if (steep) {
 214:.\LED_Matrix.c ****     swap(x0, y0);
 215:.\LED_Matrix.c ****     swap(x1, y1);
 1105              		.loc 1 215 0
 1106 0036 1F1C     		mov	r7, r3
ARM GAS  C:\Users\Steve\AppData\Local\Temp\ccroCuoh.s 			page 27


 214:.\LED_Matrix.c ****     swap(x0, y0);
 1107              		.loc 1 214 0
 1108 0038 2C1C     		mov	r4, r5
 1109              		.loc 1 215 0
 1110 003a 131C     		mov	r3, r2
 1111              	.LVL91:
 214:.\LED_Matrix.c ****     swap(x0, y0);
 1112              		.loc 1 214 0
 1113 003c 0D1C     		mov	r5, r1
 1114              	.LVL92:
 1115              	.L41:
 216:.\LED_Matrix.c ****   }
 217:.\LED_Matrix.c **** 
 218:.\LED_Matrix.c ****   if (x0 > x1) {
 1116              		.loc 1 218 0
 1117 003e BC42     		cmp	r4, r7
 1118 0040 00DD     		ble	.LCB989
 1119 0042 A9E0     		b	.L51	@long jump
 1120              	.LCB989:
 1121 0044 081C     		mov	r0, r1
 1122 0046 111C     		mov	r1, r2
 1123 0048 021C     		mov	r2, r0
 1124              	.LVL93:
 1125              	.L42:
 219:.\LED_Matrix.c ****     swap(x0, x1);
 220:.\LED_Matrix.c ****     swap(y0, y1);
 221:.\LED_Matrix.c ****   }
 222:.\LED_Matrix.c **** 
 223:.\LED_Matrix.c ****   int8 dx, dy;
 224:.\LED_Matrix.c ****   dx = x1 - x0;
 1126              		.loc 1 224 0
 1127 004a 3E1B     		sub	r6, r7, r4
 225:.\LED_Matrix.c ****   dy = abs(y1 - y0);
 1128              		.loc 1 225 0
 1129 004c 8A1A     		sub	r2, r1, r2
 224:.\LED_Matrix.c ****   dx = x1 - x0;
 1130              		.loc 1 224 0
 1131 004e F0B2     		uxtb	r0, r6
 1132              		.loc 1 225 0
 1133 0050 D117     		asr	r1, r2, #31
 1134 0052 5218     		add	r2, r2, r1
 224:.\LED_Matrix.c ****   dx = x1 - x0;
 1135              		.loc 1 224 0
 1136 0054 8346     		mov	fp, r0
 1137              	.LVL94:
 226:.\LED_Matrix.c **** 
 227:.\LED_Matrix.c ****   int8 err = dx / 2;
 1138              		.loc 1 227 0
 1139 0056 40B2     		sxtb	r0, r0
 225:.\LED_Matrix.c ****   dy = abs(y1 - y0);
 1140              		.loc 1 225 0
 1141 0058 4A40     		eor	r2, r1
 1142              	.LVL95:
 1143              		.loc 1 227 0
 1144 005a C10F     		lsr	r1, r0, #31
 1145 005c 0E18     		add	r6, r1, r0
 1146              	.LVL96:
ARM GAS  C:\Users\Steve\AppData\Local\Temp\ccroCuoh.s 			page 28


 1147 005e 7010     		asr	r0, r6, #1
 228:.\LED_Matrix.c ****   int8 ystep;
 229:.\LED_Matrix.c **** 
 230:.\LED_Matrix.c ****   if (y0 < y1) {
 231:.\LED_Matrix.c ****     ystep = 1;
 232:.\LED_Matrix.c ****   } else {
 233:.\LED_Matrix.c ****     ystep = -1;
 1148              		.loc 1 233 0
 1149 0060 FF21     		mov	r1, #255
 227:.\LED_Matrix.c ****   int8 err = dx / 2;
 1150              		.loc 1 227 0
 1151 0062 C6B2     		uxtb	r6, r0
 1152              	.LVL97:
 1153              		.loc 1 233 0
 1154 0064 0091     		str	r1, [sp]
 230:.\LED_Matrix.c ****   if (y0 < y1) {
 1155              		.loc 1 230 0
 1156 0066 9D42     		cmp	r5, r3
 1157 0068 01DA     		bge	.L43
 231:.\LED_Matrix.c ****     ystep = 1;
 1158              		.loc 1 231 0
 1159 006a 0123     		mov	r3, #1
 1160              	.LVL98:
 1161 006c 0093     		str	r3, [sp]
 1162              	.L43:
 1163              	.LVL99:
 234:.\LED_Matrix.c ****   }
 235:.\LED_Matrix.c **** 
 236:.\LED_Matrix.c ****   for (; x0<=x1; x0++) {
 1164              		.loc 1 236 0 discriminator 1
 1165 006e BC42     		cmp	r4, r7
 1166 0070 00DD     		ble	.LCB1033
 1167 0072 8AE0     		b	.L39	@long jump
 1168              	.LCB1033:
 1169 0074 381B     		sub	r0, r7, r4
 1170 0076 0121     		mov	r1, #1
 1171 0078 D2B2     		uxtb	r2, r2
 1172              	.LVL100:
 1173 007a 0140     		and	r1, r0
 237:.\LED_Matrix.c ****     if (steep) {
 1174              		.loc 1 237 0
 1175 007c 4B46     		mov	r3, r9
 1176 007e 9246     		mov	sl, r2
 1177 0080 0191     		str	r1, [sp, #4]
 1178 0082 002B     		cmp	r3, #0
 1179 0084 00D0     		beq	.LCB1044
 1180 0086 93E0     		b	.L76	@long jump
 1181              	.LCB1044:
 238:.\LED_Matrix.c ****       drawPixel(y0, x0, c, matrix);
 239:.\LED_Matrix.c ****     } else {
 240:.\LED_Matrix.c ****       drawPixel(x0, y0, c, matrix);
 1182              		.loc 1 240 0
 1183 0088 201C     		mov	r0, r4
 1184 008a 291C     		mov	r1, r5
 1185 008c 0C9A     		ldr	r2, [sp, #48]
 1186 008e 4346     		mov	r3, r8
 1187 0090 FFF7FEFF 		bl	drawPixel
ARM GAS  C:\Users\Steve\AppData\Local\Temp\ccroCuoh.s 			page 29


 1188              	.LVL101:
 241:.\LED_Matrix.c ****     }
 242:.\LED_Matrix.c ****     err -= dy;
 1189              		.loc 1 242 0
 1190 0094 5246     		mov	r2, sl
 1191 0096 B61A     		sub	r6, r6, r2
 1192              	.LVL102:
 1193 0098 F0B2     		uxtb	r0, r6
 1194 009a C6B2     		uxtb	r6, r0
 243:.\LED_Matrix.c ****     if (err < 0) {
 1195              		.loc 1 243 0
 1196 009c 71B2     		sxtb	r1, r6
 1197 009e 0029     		cmp	r1, #0
 1198 00a0 00DA     		bge	.LCB1059
 1199 00a2 93E0     		b	.L77	@long jump
 1200              	.LCB1059:
 1201              	.LVL103:
 1202              	.L56:
 236:.\LED_Matrix.c ****   for (; x0<=x1; x0++) {
 1203              		.loc 1 236 0
 1204 00a4 0134     		add	r4, r4, #1
 1205              	.LVL104:
 1206 00a6 64B2     		sxtb	r4, r4
 1207              	.LVL105:
 1208 00a8 A742     		cmp	r7, r4
 1209 00aa 6EDB     		blt	.L39
 1210 00ac 019A     		ldr	r2, [sp, #4]
 1211 00ae 002A     		cmp	r2, #0
 1212 00b0 15D0     		beq	.L75
 237:.\LED_Matrix.c ****     if (steep) {
 1213              		.loc 1 237 0
 1214 00b2 4846     		mov	r0, r9
 1215 00b4 0028     		cmp	r0, #0
 1216 00b6 00D0     		beq	.LCB1079
 1217 00b8 8EE0     		b	.L71	@long jump
 1218              	.LCB1079:
 240:.\LED_Matrix.c ****       drawPixel(x0, y0, c, matrix);
 1219              		.loc 1 240 0
 1220 00ba 291C     		mov	r1, r5
 1221 00bc 0C9A     		ldr	r2, [sp, #48]
 1222 00be 4346     		mov	r3, r8
 1223 00c0 201C     		mov	r0, r4
 1224 00c2 FFF7FEFF 		bl	drawPixel
 1225              	.LVL106:
 242:.\LED_Matrix.c ****     err -= dy;
 1226              		.loc 1 242 0
 1227 00c6 5146     		mov	r1, sl
 1228 00c8 761A     		sub	r6, r6, r1
 1229 00ca F3B2     		uxtb	r3, r6
 1230 00cc DEB2     		uxtb	r6, r3
 1231              		.loc 1 243 0
 1232 00ce 72B2     		sxtb	r2, r6
 1233 00d0 002A     		cmp	r2, #0
 1234 00d2 00DA     		bge	.LCB1092
 1235 00d4 8EE0     		b	.L78	@long jump
 1236              	.LCB1092:
 1237              	.LVL107:
ARM GAS  C:\Users\Steve\AppData\Local\Temp\ccroCuoh.s 			page 30


 1238              	.L59:
 236:.\LED_Matrix.c ****   for (; x0<=x1; x0++) {
 1239              		.loc 1 236 0
 1240 00d6 0134     		add	r4, r4, #1
 1241 00d8 64B2     		sxtb	r4, r4
 1242 00da A742     		cmp	r7, r4
 1243 00dc 55DB     		blt	.L39
 1244              	.LVL108:
 1245              	.L75:
 1246 00de 391C     		mov	r1, r7
 1247 00e0 4F46     		mov	r7, r9
 1248              	.LVL109:
 1249 00e2 8946     		mov	r9, r1
 1250 00e4 21E0     		b	.L48
 1251              	.LVL110:
 1252              	.L81:
 238:.\LED_Matrix.c ****       drawPixel(y0, x0, c, matrix);
 1253              		.loc 1 238 0
 1254 00e6 211C     		mov	r1, r4
 1255 00e8 0C9A     		ldr	r2, [sp, #48]
 1256 00ea 4346     		mov	r3, r8
 1257 00ec 281C     		mov	r0, r5
 1258 00ee FFF7FEFF 		bl	drawPixel
 1259              	.LVL111:
 242:.\LED_Matrix.c ****     err -= dy;
 1260              		.loc 1 242 0
 1261 00f2 5346     		mov	r3, sl
 1262 00f4 F61A     		sub	r6, r6, r3
 1263 00f6 F1B2     		uxtb	r1, r6
 1264 00f8 CEB2     		uxtb	r6, r1
 1265              		.loc 1 243 0
 1266 00fa 72B2     		sxtb	r2, r6
 1267 00fc 002A     		cmp	r2, #0
 1268 00fe 23DB     		blt	.L79
 1269              	.L47:
 1270              	.LVL112:
 236:.\LED_Matrix.c ****   for (; x0<=x1; x0++) {
 1271              		.loc 1 236 0
 1272 0100 0134     		add	r4, r4, #1
 1273 0102 64B2     		sxtb	r4, r4
 237:.\LED_Matrix.c ****     if (steep) {
 1274              		.loc 1 237 0
 1275 0104 002F     		cmp	r7, #0
 1276 0106 29D0     		beq	.L62
 1277              	.LVL113:
 1278              	.L82:
 238:.\LED_Matrix.c ****       drawPixel(y0, x0, c, matrix);
 1279              		.loc 1 238 0
 1280 0108 281C     		mov	r0, r5
 1281 010a 211C     		mov	r1, r4
 1282 010c 0C9A     		ldr	r2, [sp, #48]
 1283 010e 4346     		mov	r3, r8
 1284 0110 FFF7FEFF 		bl	drawPixel
 1285              	.LVL114:
 242:.\LED_Matrix.c ****     err -= dy;
 1286              		.loc 1 242 0
 1287 0114 5146     		mov	r1, sl
ARM GAS  C:\Users\Steve\AppData\Local\Temp\ccroCuoh.s 			page 31


 1288 0116 721A     		sub	r2, r6, r1
 1289 0118 D3B2     		uxtb	r3, r2
 1290 011a DEB2     		uxtb	r6, r3
 1291              		.loc 1 243 0
 1292 011c 70B2     		sxtb	r0, r6
 1293 011e 0028     		cmp	r0, #0
 1294 0120 29DB     		blt	.L80
 1295              	.L63:
 1296              	.LVL115:
 236:.\LED_Matrix.c ****   for (; x0<=x1; x0++) {
 1297              		.loc 1 236 0
 1298 0122 0134     		add	r4, r4, #1
 1299 0124 64B2     		sxtb	r4, r4
 1300 0126 A145     		cmp	r9, r4
 1301 0128 2FDB     		blt	.L39
 1302              	.LVL116:
 1303              	.L48:
 237:.\LED_Matrix.c ****     if (steep) {
 1304              		.loc 1 237 0
 1305 012a 002F     		cmp	r7, #0
 1306 012c DBD1     		bne	.L81
 240:.\LED_Matrix.c ****       drawPixel(x0, y0, c, matrix);
 1307              		.loc 1 240 0
 1308 012e 291C     		mov	r1, r5
 1309 0130 0C9A     		ldr	r2, [sp, #48]
 1310 0132 4346     		mov	r3, r8
 1311 0134 201C     		mov	r0, r4
 1312 0136 FFF7FEFF 		bl	drawPixel
 1313              	.LVL117:
 242:.\LED_Matrix.c ****     err -= dy;
 1314              		.loc 1 242 0
 1315 013a 5346     		mov	r3, sl
 1316 013c F61A     		sub	r6, r6, r3
 1317 013e F1B2     		uxtb	r1, r6
 1318 0140 CEB2     		uxtb	r6, r1
 1319              		.loc 1 243 0
 1320 0142 72B2     		sxtb	r2, r6
 1321 0144 002A     		cmp	r2, #0
 1322 0146 DBDA     		bge	.L47
 1323              	.L79:
 244:.\LED_Matrix.c ****       y0 += ystep;
 1324              		.loc 1 244 0
 1325 0148 0098     		ldr	r0, [sp]
 245:.\LED_Matrix.c ****       err += dx;
 1326              		.loc 1 245 0
 1327 014a 5B46     		mov	r3, fp
 244:.\LED_Matrix.c ****       y0 += ystep;
 1328              		.loc 1 244 0
 1329 014c 2D18     		add	r5, r5, r0
 1330              		.loc 1 245 0
 1331 014e CE18     		add	r6, r1, r3
 236:.\LED_Matrix.c ****   for (; x0<=x1; x0++) {
 1332              		.loc 1 236 0
 1333 0150 0134     		add	r4, r4, #1
 244:.\LED_Matrix.c ****       y0 += ystep;
 1334              		.loc 1 244 0
 1335 0152 6DB2     		sxtb	r5, r5
ARM GAS  C:\Users\Steve\AppData\Local\Temp\ccroCuoh.s 			page 32


 1336              	.LVL118:
 1337              		.loc 1 245 0
 1338 0154 F6B2     		uxtb	r6, r6
 236:.\LED_Matrix.c ****   for (; x0<=x1; x0++) {
 1339              		.loc 1 236 0
 1340 0156 64B2     		sxtb	r4, r4
 237:.\LED_Matrix.c ****     if (steep) {
 1341              		.loc 1 237 0
 1342 0158 002F     		cmp	r7, #0
 1343 015a D5D1     		bne	.L82
 1344              	.LVL119:
 1345              	.L62:
 240:.\LED_Matrix.c ****       drawPixel(x0, y0, c, matrix);
 1346              		.loc 1 240 0
 1347 015c 201C     		mov	r0, r4
 1348 015e 291C     		mov	r1, r5
 1349 0160 0C9A     		ldr	r2, [sp, #48]
 1350 0162 4346     		mov	r3, r8
 1351 0164 FFF7FEFF 		bl	drawPixel
 1352              	.LVL120:
 242:.\LED_Matrix.c ****     err -= dy;
 1353              		.loc 1 242 0
 1354 0168 5146     		mov	r1, sl
 1355 016a 721A     		sub	r2, r6, r1
 1356 016c D3B2     		uxtb	r3, r2
 1357 016e DEB2     		uxtb	r6, r3
 243:.\LED_Matrix.c ****     if (err < 0) {
 1358              		.loc 1 243 0
 1359 0170 70B2     		sxtb	r0, r6
 1360 0172 0028     		cmp	r0, #0
 1361 0174 D5DA     		bge	.L63
 1362              	.L80:
 244:.\LED_Matrix.c ****       y0 += ystep;
 1363              		.loc 1 244 0
 1364 0176 009E     		ldr	r6, [sp]
 1365              		.loc 1 245 0
 1366 0178 5946     		mov	r1, fp
 236:.\LED_Matrix.c ****   for (; x0<=x1; x0++) {
 1367              		.loc 1 236 0
 1368 017a 0134     		add	r4, r4, #1
 244:.\LED_Matrix.c ****       y0 += ystep;
 1369              		.loc 1 244 0
 1370 017c AD19     		add	r5, r5, r6
 1371              		.loc 1 245 0
 1372 017e 5A18     		add	r2, r3, r1
 236:.\LED_Matrix.c ****   for (; x0<=x1; x0++) {
 1373              		.loc 1 236 0
 1374 0180 64B2     		sxtb	r4, r4
 244:.\LED_Matrix.c ****       y0 += ystep;
 1375              		.loc 1 244 0
 1376 0182 6DB2     		sxtb	r5, r5
 1377              	.LVL121:
 1378              		.loc 1 245 0
 1379 0184 D6B2     		uxtb	r6, r2
 236:.\LED_Matrix.c ****   for (; x0<=x1; x0++) {
 1380              		.loc 1 236 0
 1381 0186 A145     		cmp	r9, r4
ARM GAS  C:\Users\Steve\AppData\Local\Temp\ccroCuoh.s 			page 33


 1382 0188 CFDA     		bge	.L48
 1383              	.LVL122:
 1384              	.L39:
 246:.\LED_Matrix.c ****     }
 247:.\LED_Matrix.c ****   }
 248:.\LED_Matrix.c **** }
 1385              		.loc 1 248 0
 1386 018a 03B0     		add	sp, sp, #12
 1387              		@ sp needed for prologue
 1388              	.LVL123:
 1389 018c 3CBC     		pop	{r2, r3, r4, r5}
 1390 018e 9046     		mov	r8, r2
 1391 0190 9946     		mov	r9, r3
 1392 0192 A246     		mov	sl, r4
 1393 0194 AB46     		mov	fp, r5
 1394 0196 F0BD     		pop	{r4, r5, r6, r7, pc}
 1395              	.LVL124:
 1396              	.L51:
 218:.\LED_Matrix.c ****   if (x0 > x1) {
 1397              		.loc 1 218 0
 1398 0198 2E1C     		mov	r6, r5
 1399 019a 201C     		mov	r0, r4
 220:.\LED_Matrix.c ****     swap(y0, y1);
 1400              		.loc 1 220 0
 1401 019c 1D1C     		mov	r5, r3
 1402              	.LVL125:
 218:.\LED_Matrix.c ****   if (x0 > x1) {
 1403              		.loc 1 218 0
 1404 019e 3C1C     		mov	r4, r7
 1405              	.LVL126:
 220:.\LED_Matrix.c ****     swap(y0, y1);
 1406              		.loc 1 220 0
 1407 01a0 331C     		mov	r3, r6
 1408              	.LVL127:
 218:.\LED_Matrix.c ****   if (x0 > x1) {
 1409              		.loc 1 218 0
 1410 01a2 071C     		mov	r7, r0
 1411              	.LVL128:
 1412 01a4 51E7     		b	.L42
 1413              	.LVL129:
 1414              	.L67:
 1415 01a6 0021     		mov	r1, #0
 1416 01a8 8946     		mov	r9, r1
 213:.\LED_Matrix.c ****   if (steep) {
 1417              		.loc 1 213 0
 1418 01aa 1A1C     		mov	r2, r3
 1419              	.LVL130:
 1420 01ac 291C     		mov	r1, r5
 1421 01ae 46E7     		b	.L41
 1422              	.LVL131:
 1423              	.L76:
 238:.\LED_Matrix.c ****       drawPixel(y0, x0, c, matrix);
 1424              		.loc 1 238 0
 1425 01b0 281C     		mov	r0, r5
 1426 01b2 211C     		mov	r1, r4
 1427 01b4 0C9A     		ldr	r2, [sp, #48]
 1428 01b6 4346     		mov	r3, r8
ARM GAS  C:\Users\Steve\AppData\Local\Temp\ccroCuoh.s 			page 34


 1429 01b8 FFF7FEFF 		bl	drawPixel
 1430              	.LVL132:
 242:.\LED_Matrix.c ****     err -= dy;
 1431              		.loc 1 242 0
 1432 01bc 5246     		mov	r2, sl
 1433 01be B61A     		sub	r6, r6, r2
 1434              	.LVL133:
 1435 01c0 F0B2     		uxtb	r0, r6
 1436 01c2 C6B2     		uxtb	r6, r0
 243:.\LED_Matrix.c ****     if (err < 0) {
 1437              		.loc 1 243 0
 1438 01c4 71B2     		sxtb	r1, r6
 1439 01c6 0029     		cmp	r1, #0
 1440 01c8 00DB     		blt	.LCB1296
 1441 01ca 6BE7     		b	.L56	@long jump
 1442              	.LCB1296:
 1443              	.LVL134:
 1444              	.L77:
 244:.\LED_Matrix.c ****       y0 += ystep;
 1445              		.loc 1 244 0
 1446 01cc 009B     		ldr	r3, [sp]
 245:.\LED_Matrix.c ****       err += dx;
 1447              		.loc 1 245 0
 1448 01ce 5844     		add	r0, r0, fp
 244:.\LED_Matrix.c ****       y0 += ystep;
 1449              		.loc 1 244 0
 1450 01d0 ED18     		add	r5, r5, r3
 1451              	.LVL135:
 1452 01d2 6DB2     		sxtb	r5, r5
 1453              	.LVL136:
 245:.\LED_Matrix.c ****       err += dx;
 1454              		.loc 1 245 0
 1455 01d4 C6B2     		uxtb	r6, r0
 1456 01d6 65E7     		b	.L56
 1457              	.LVL137:
 1458              	.L71:
 238:.\LED_Matrix.c ****       drawPixel(y0, x0, c, matrix);
 1459              		.loc 1 238 0
 1460 01d8 211C     		mov	r1, r4
 1461 01da 0C9A     		ldr	r2, [sp, #48]
 1462 01dc 4346     		mov	r3, r8
 1463 01de 281C     		mov	r0, r5
 1464 01e0 FFF7FEFF 		bl	drawPixel
 1465              	.LVL138:
 242:.\LED_Matrix.c ****     err -= dy;
 1466              		.loc 1 242 0
 1467 01e4 5146     		mov	r1, sl
 1468 01e6 761A     		sub	r6, r6, r1
 1469 01e8 F3B2     		uxtb	r3, r6
 1470 01ea DEB2     		uxtb	r6, r3
 243:.\LED_Matrix.c ****     if (err < 0) {
 1471              		.loc 1 243 0
 1472 01ec 72B2     		sxtb	r2, r6
 1473 01ee 002A     		cmp	r2, #0
 1474 01f0 00DB     		blt	.LCB1329
 1475 01f2 70E7     		b	.L59	@long jump
 1476              	.LCB1329:
ARM GAS  C:\Users\Steve\AppData\Local\Temp\ccroCuoh.s 			page 35


 1477              	.L78:
 244:.\LED_Matrix.c ****       y0 += ystep;
 1478              		.loc 1 244 0
 1479 01f4 0098     		ldr	r0, [sp]
 245:.\LED_Matrix.c ****       err += dx;
 1480              		.loc 1 245 0
 1481 01f6 5B44     		add	r3, r3, fp
 244:.\LED_Matrix.c ****       y0 += ystep;
 1482              		.loc 1 244 0
 1483 01f8 2D18     		add	r5, r5, r0
 1484              	.LVL139:
 1485 01fa 6DB2     		sxtb	r5, r5
 1486              	.LVL140:
 245:.\LED_Matrix.c ****       err += dx;
 1487              		.loc 1 245 0
 1488 01fc DEB2     		uxtb	r6, r3
 1489 01fe 6AE7     		b	.L59
 1490              		.cfi_endproc
 1491              	.LFE38:
 1492              		.size	drawLine, .-drawLine
 1493              		.section	.text.drawFastVLine,"ax",%progbits
 1494              		.align	2
 1495              		.global	drawFastVLine
 1496              		.code	16
 1497              		.thumb_func
 1498              		.type	drawFastVLine, %function
 1499              	drawFastVLine:
 1500              	.LFB40:
 249:.\LED_Matrix.c **** 
 250:.\LED_Matrix.c **** void drawRect(int16_t x, int16_t y,int16_t w, int16_t h,RGB c, color *matrix) {
 251:.\LED_Matrix.c ****   drawFastHLine(x, y, w, c, matrix);
 252:.\LED_Matrix.c ****   drawFastHLine(x, y+h, w, c, matrix);
 253:.\LED_Matrix.c ****   drawFastVLine(x, y, h, c, matrix);
 254:.\LED_Matrix.c ****   drawFastVLine(x+w, y, h, c, matrix);
 255:.\LED_Matrix.c **** }
 256:.\LED_Matrix.c **** 
 257:.\LED_Matrix.c **** void drawFastVLine(int8 x, int8 y, int8 h, RGB c, color *matrix) 
 258:.\LED_Matrix.c **** {
 1501              		.loc 1 258 0
 1502              		.cfi_startproc
 1503              	.LVL141:
 1504 0000 70B5     		push	{r4, r5, r6, lr}
 1505              	.LCFI13:
 1506              		.cfi_def_cfa_offset 16
 1507              		.cfi_offset 4, -16
 1508              		.cfi_offset 5, -12
 1509              		.cfi_offset 6, -8
 1510              		.cfi_offset 14, -4
 1511 0002 84B0     		sub	sp, sp, #16
 1512              	.LCFI14:
 1513              		.cfi_def_cfa_offset 32
 1514              		.loc 1 258 0
 1515 0004 041C     		mov	r4, r0
 1516 0006 1D1C     		add	r5, r3, #0
 259:.\LED_Matrix.c ****   // Update in subclasses if desired!
 260:.\LED_Matrix.c ****   drawLine(x, y, x, y+h, c, matrix);
 1517              		.loc 1 260 0
ARM GAS  C:\Users\Steve\AppData\Local\Temp\ccroCuoh.s 			page 36


 1518 0008 6846     		mov	r0, sp
 1519              	.LVL142:
 258:.\LED_Matrix.c **** {
 1520              		.loc 1 258 0
 1521 000a 1E0C     		lsr	r6, r3, #16
 1522              		.loc 1 260 0
 1523 000c 0580     		strh	r5, [r0]
 1524 000e 8670     		strb	r6, [r0, #2]
 1525 0010 5318     		add	r3, r2, r1
 1526 0012 089A     		ldr	r2, [sp, #32]
 1527              	.LVL143:
 1528 0014 5BB2     		sxtb	r3, r3
 1529 0016 0192     		str	r2, [sp, #4]
 1530 0018 201C     		mov	r0, r4
 1531 001a 221C     		mov	r2, r4
 1532 001c FFF7FEFF 		bl	drawLine
 1533              	.LVL144:
 261:.\LED_Matrix.c **** }
 1534              		.loc 1 261 0
 1535 0020 04B0     		add	sp, sp, #16
 1536              		@ sp needed for prologue
 1537 0022 70BD     		pop	{r4, r5, r6, pc}
 1538              		.cfi_endproc
 1539              	.LFE40:
 1540              		.size	drawFastVLine, .-drawFastVLine
 1541              		.section	.text.drawFastHLine,"ax",%progbits
 1542              		.align	2
 1543              		.global	drawFastHLine
 1544              		.code	16
 1545              		.thumb_func
 1546              		.type	drawFastHLine, %function
 1547              	drawFastHLine:
 1548              	.LFB41:
 262:.\LED_Matrix.c **** 
 263:.\LED_Matrix.c **** void drawFastHLine(int8 x, int8 y, int8 w, RGB c, color *matrix) 
 264:.\LED_Matrix.c **** {
 1549              		.loc 1 264 0
 1550              		.cfi_startproc
 1551              	.LVL145:
 1552 0000 30B5     		push	{r4, r5, lr}
 1553              	.LCFI15:
 1554              		.cfi_def_cfa_offset 12
 1555              		.cfi_offset 4, -12
 1556              		.cfi_offset 5, -8
 1557              		.cfi_offset 14, -4
 1558 0002 85B0     		sub	sp, sp, #20
 1559              	.LCFI16:
 1560              		.cfi_def_cfa_offset 32
 1561              		.loc 1 264 0
 1562 0004 0C1C     		mov	r4, r1
 1563 0006 1D1C     		add	r5, r3, #0
 265:.\LED_Matrix.c ****   // Update in subclasses if desired!
 266:.\LED_Matrix.c ****   drawLine(x, y, x+w, y, c, matrix);
 1564              		.loc 1 266 0
 1565 0008 6946     		mov	r1, sp
 1566              	.LVL146:
 264:.\LED_Matrix.c **** {
ARM GAS  C:\Users\Steve\AppData\Local\Temp\ccroCuoh.s 			page 37


 1567              		.loc 1 264 0
 1568 000a 1B0C     		lsr	r3, r3, #16
 1569              		.loc 1 266 0
 1570 000c 8B70     		strb	r3, [r1, #2]
 1571 000e 0D80     		strh	r5, [r1]
 1572 0010 089D     		ldr	r5, [sp, #32]
 1573 0012 1218     		add	r2, r2, r0
 1574              	.LVL147:
 1575 0014 52B2     		sxtb	r2, r2
 1576 0016 0195     		str	r5, [sp, #4]
 1577 0018 211C     		mov	r1, r4
 1578 001a 231C     		mov	r3, r4
 1579 001c FFF7FEFF 		bl	drawLine
 1580              	.LVL148:
 267:.\LED_Matrix.c **** }
 1581              		.loc 1 267 0
 1582 0020 05B0     		add	sp, sp, #20
 1583              		@ sp needed for prologue
 1584 0022 30BD     		pop	{r4, r5, pc}
 1585              		.cfi_endproc
 1586              	.LFE41:
 1587              		.size	drawFastHLine, .-drawFastHLine
 1588              		.section	.text.drawRect,"ax",%progbits
 1589              		.align	2
 1590              		.global	drawRect
 1591              		.code	16
 1592              		.thumb_func
 1593              		.type	drawRect, %function
 1594              	drawRect:
 1595              	.LFB39:
 250:.\LED_Matrix.c **** void drawRect(int16_t x, int16_t y,int16_t w, int16_t h,RGB c, color *matrix) {
 1596              		.loc 1 250 0
 1597              		.cfi_startproc
 1598              	.LVL149:
 1599 0000 F0B5     		push	{r4, r5, r6, r7, lr}
 1600              	.LCFI17:
 1601              		.cfi_def_cfa_offset 20
 1602              		.cfi_offset 4, -20
 1603              		.cfi_offset 5, -16
 1604              		.cfi_offset 6, -12
 1605              		.cfi_offset 7, -8
 1606              		.cfi_offset 14, -4
 1607 0002 5F46     		mov	r7, fp
 1608 0004 5646     		mov	r6, sl
 1609 0006 4D46     		mov	r5, r9
 1610 0008 4446     		mov	r4, r8
 1611 000a F0B4     		push	{r4, r5, r6, r7}
 1612              	.LCFI18:
 1613              		.cfi_def_cfa_offset 36
 1614              		.cfi_offset 8, -36
 1615              		.cfi_offset 9, -32
 1616              		.cfi_offset 10, -28
 1617              		.cfi_offset 11, -24
 1618 000c 83B0     		sub	sp, sp, #12
 1619              	.LCFI19:
 1620              		.cfi_def_cfa_offset 48
 250:.\LED_Matrix.c **** void drawRect(int16_t x, int16_t y,int16_t w, int16_t h,RGB c, color *matrix) {
ARM GAS  C:\Users\Steve\AppData\Local\Temp\ccroCuoh.s 			page 38


 1621              		.loc 1 250 0
 1622 000e 0D9C     		ldr	r4, [sp, #52]
 251:.\LED_Matrix.c ****   drawFastHLine(x, y, w, c, matrix);
 1623              		.loc 1 251 0
 1624 0010 46B2     		sxtb	r6, r0
 1625 0012 4DB2     		sxtb	r5, r1
 250:.\LED_Matrix.c **** void drawRect(int16_t x, int16_t y,int16_t w, int16_t h,RGB c, color *matrix) {
 1626              		.loc 1 250 0
 1627 0014 8046     		mov	r8, r0
 1628 0016 8B46     		mov	fp, r1
 1629 0018 9146     		mov	r9, r2
 1630 001a 1F1C     		mov	r7, r3
 251:.\LED_Matrix.c ****   drawFastHLine(x, y, w, c, matrix);
 1631              		.loc 1 251 0
 1632 001c 52B2     		sxtb	r2, r2
 1633              	.LVL150:
 1634 001e 301C     		mov	r0, r6
 1635              	.LVL151:
 1636 0020 291C     		mov	r1, r5
 1637              	.LVL152:
 1638 0022 0C9B     		ldr	r3, [sp, #48]
 1639              	.LVL153:
 1640 0024 0094     		str	r4, [sp]
 1641 0026 9246     		mov	sl, r2
 1642 0028 FFF7FEFF 		bl	drawFastHLine
 1643              	.LVL154:
 252:.\LED_Matrix.c ****   drawFastHLine(x, y+h, w, c, matrix);
 1644              		.loc 1 252 0
 1645 002c 5B46     		mov	r3, fp
 1646 002e F818     		add	r0, r7, r3
 1647 0030 41B2     		sxtb	r1, r0
 1648 0032 5246     		mov	r2, sl
 1649 0034 301C     		mov	r0, r6
 1650 0036 0C9B     		ldr	r3, [sp, #48]
 253:.\LED_Matrix.c ****   drawFastVLine(x, y, h, c, matrix);
 1651              		.loc 1 253 0
 1652 0038 7FB2     		sxtb	r7, r7
 252:.\LED_Matrix.c ****   drawFastHLine(x, y+h, w, c, matrix);
 1653              		.loc 1 252 0
 1654 003a 0094     		str	r4, [sp]
 1655 003c FFF7FEFF 		bl	drawFastHLine
 1656              	.LVL155:
 253:.\LED_Matrix.c ****   drawFastVLine(x, y, h, c, matrix);
 1657              		.loc 1 253 0
 1658 0040 301C     		mov	r0, r6
 1659 0042 291C     		mov	r1, r5
 1660 0044 3A1C     		mov	r2, r7
 1661 0046 0C9B     		ldr	r3, [sp, #48]
 1662 0048 0094     		str	r4, [sp]
 1663 004a FFF7FEFF 		bl	drawFastVLine
 1664              	.LVL156:
 254:.\LED_Matrix.c ****   drawFastVLine(x+w, y, h, c, matrix);
 1665              		.loc 1 254 0
 1666 004e 4946     		mov	r1, r9
 1667 0050 4144     		add	r1, r1, r8
 1668 0052 48B2     		sxtb	r0, r1
 1669 0054 0094     		str	r4, [sp]
ARM GAS  C:\Users\Steve\AppData\Local\Temp\ccroCuoh.s 			page 39


 1670 0056 291C     		mov	r1, r5
 1671 0058 3A1C     		mov	r2, r7
 1672 005a 0C9B     		ldr	r3, [sp, #48]
 1673 005c FFF7FEFF 		bl	drawFastVLine
 1674              	.LVL157:
 255:.\LED_Matrix.c **** }
 1675              		.loc 1 255 0
 1676 0060 03B0     		add	sp, sp, #12
 1677              		@ sp needed for prologue
 1678 0062 3CBC     		pop	{r2, r3, r4, r5}
 1679 0064 9046     		mov	r8, r2
 1680 0066 9946     		mov	r9, r3
 1681 0068 A246     		mov	sl, r4
 1682 006a AB46     		mov	fp, r5
 1683 006c F0BD     		pop	{r4, r5, r6, r7, pc}
 1684              		.cfi_endproc
 1685              	.LFE39:
 1686              		.size	drawRect, .-drawRect
 1687 006e C046     		.section	.text.fillRect,"ax",%progbits
 1688              		.align	2
 1689              		.global	fillRect
 1690              		.code	16
 1691              		.thumb_func
 1692              		.type	fillRect, %function
 1693              	fillRect:
 1694              	.LFB42:
 268:.\LED_Matrix.c **** 
 269:.\LED_Matrix.c **** void fillRect(int8 x, int8 y, int8 w, int8 h, RGB c, color *matrix) 
 270:.\LED_Matrix.c **** {
 1695              		.loc 1 270 0
 1696              		.cfi_startproc
 1697              	.LVL158:
 1698 0000 F0B5     		push	{r4, r5, r6, r7, lr}
 1699              	.LCFI20:
 1700              		.cfi_def_cfa_offset 20
 1701              		.cfi_offset 4, -20
 1702              		.cfi_offset 5, -16
 1703              		.cfi_offset 6, -12
 1704              		.cfi_offset 7, -8
 1705              		.cfi_offset 14, -4
 1706 0002 4E46     		mov	r6, r9
 1707 0004 4546     		mov	r5, r8
 1708 0006 5746     		mov	r7, sl
 1709 0008 E0B4     		push	{r5, r6, r7}
 1710              	.LCFI21:
 1711              		.cfi_def_cfa_offset 32
 1712              		.cfi_offset 8, -32
 1713              		.cfi_offset 9, -28
 1714              		.cfi_offset 10, -24
 1715 000a 82B0     		sub	sp, sp, #8
 1716              	.LCFI22:
 1717              		.cfi_def_cfa_offset 40
 1718              		.loc 1 270 0
 1719 000c 1E1C     		mov	r6, r3
 271:.\LED_Matrix.c ****   // Update in subclasses if desired!
 272:.\LED_Matrix.c **** 	int8 i = 0;
 273:.\LED_Matrix.c ****   for(i=x; i<x+w; i++) {
ARM GAS  C:\Users\Steve\AppData\Local\Temp\ccroCuoh.s 			page 40


 1720              		.loc 1 273 0
 1721 000e 8218     		add	r2, r0, r2
 1722              	.LVL159:
 270:.\LED_Matrix.c **** {
 1723              		.loc 1 270 0
 1724 0010 0B9B     		ldr	r3, [sp, #44]
 1725              	.LVL160:
 1726 0012 051C     		mov	r5, r0
 269:.\LED_Matrix.c **** void fillRect(int8 x, int8 y, int8 w, int8 h, RGB c, color *matrix) 
 1727              		.loc 1 269 0
 1728 0014 101A     		sub	r0, r2, r0
 1729              	.LVL161:
 270:.\LED_Matrix.c **** {
 1730              		.loc 1 270 0
 1731 0016 0F1C     		mov	r7, r1
 1732 0018 9846     		mov	r8, r3
 269:.\LED_Matrix.c **** void fillRect(int8 x, int8 y, int8 w, int8 h, RGB c, color *matrix) 
 1733              		.loc 1 269 0
 1734 001a 8146     		mov	r9, r0
 1735              		.loc 1 273 0
 1736 001c 9542     		cmp	r5, r2
 1737 001e 32DA     		bge	.L86
 1738 0020 0138     		sub	r0, r0, #1
 1739 0022 0121     		mov	r1, #1
 1740              	.LVL162:
 1741 0024 0140     		and	r1, r0
 274:.\LED_Matrix.c ****     drawFastVLine(i, y, h, c, matrix);
 1742              		.loc 1 274 0
 1743 0026 0093     		str	r3, [sp]
 1744 0028 8A46     		mov	sl, r1
 1745 002a 68B2     		sxtb	r0, r5
 1746 002c 391C     		mov	r1, r7
 1747 002e 321C     		mov	r2, r6
 1748 0030 0A9B     		ldr	r3, [sp, #40]
 1749 0032 0124     		mov	r4, #1
 1750 0034 FFF7FEFF 		bl	drawFastVLine
 1751              	.LVL163:
 273:.\LED_Matrix.c ****   for(i=x; i<x+w; i++) {
 1752              		.loc 1 273 0
 1753 0038 4C45     		cmp	r4, r9
 1754 003a 24D0     		beq	.L86
 1755 003c 5346     		mov	r3, sl
 1756 003e 002B     		cmp	r3, #0
 1757 0040 0BD0     		beq	.L90
 269:.\LED_Matrix.c **** void fillRect(int8 x, int8 y, int8 w, int8 h, RGB c, color *matrix) 
 1758              		.loc 1 269 0
 1759 0042 6A1C     		add	r2, r5, #1
 1760              		.loc 1 274 0
 1761 0044 4146     		mov	r1, r8
 1762 0046 50B2     		sxtb	r0, r2
 1763 0048 0091     		str	r1, [sp]
 1764 004a 321C     		mov	r2, r6
 1765 004c 391C     		mov	r1, r7
 1766 004e 0A9B     		ldr	r3, [sp, #40]
 1767 0050 0224     		mov	r4, #2
 1768 0052 FFF7FEFF 		bl	drawFastVLine
 1769              	.LVL164:
ARM GAS  C:\Users\Steve\AppData\Local\Temp\ccroCuoh.s 			page 41


 273:.\LED_Matrix.c ****   for(i=x; i<x+w; i++) {
 1770              		.loc 1 273 0
 1771 0056 4C45     		cmp	r4, r9
 1772 0058 15D0     		beq	.L86
 1773              	.L90:
 269:.\LED_Matrix.c **** void fillRect(int8 x, int8 y, int8 w, int8 h, RGB c, color *matrix) 
 1774              		.loc 1 269 0 discriminator 2
 1775 005a 6019     		add	r0, r4, r5
 1776              		.loc 1 274 0 discriminator 2
 1777 005c 4346     		mov	r3, r8
 1778 005e 40B2     		sxtb	r0, r0
 1779 0060 0093     		str	r3, [sp]
 1780 0062 391C     		mov	r1, r7
 1781 0064 321C     		mov	r2, r6
 1782 0066 0A9B     		ldr	r3, [sp, #40]
 1783 0068 0134     		add	r4, r4, #1
 1784 006a FFF7FEFF 		bl	drawFastVLine
 1785              	.LVL165:
 269:.\LED_Matrix.c **** void fillRect(int8 x, int8 y, int8 w, int8 h, RGB c, color *matrix) 
 1786              		.loc 1 269 0 discriminator 2
 1787 006e 6219     		add	r2, r4, r5
 1788              		.loc 1 274 0 discriminator 2
 1789 0070 4146     		mov	r1, r8
 1790 0072 50B2     		sxtb	r0, r2
 1791 0074 0091     		str	r1, [sp]
 1792 0076 321C     		mov	r2, r6
 1793 0078 391C     		mov	r1, r7
 1794 007a 0A9B     		ldr	r3, [sp, #40]
 1795 007c 0134     		add	r4, r4, #1
 1796 007e FFF7FEFF 		bl	drawFastVLine
 1797              	.LVL166:
 273:.\LED_Matrix.c ****   for(i=x; i<x+w; i++) {
 1798              		.loc 1 273 0 discriminator 2
 1799 0082 4C45     		cmp	r4, r9
 1800 0084 E9D1     		bne	.L90
 1801              	.L86:
 275:.\LED_Matrix.c ****   }
 276:.\LED_Matrix.c **** }
 1802              		.loc 1 276 0
 1803 0086 02B0     		add	sp, sp, #8
 1804              		@ sp needed for prologue
 1805 0088 1CBC     		pop	{r2, r3, r4}
 1806 008a 9046     		mov	r8, r2
 1807 008c 9946     		mov	r9, r3
 1808 008e A246     		mov	sl, r4
 1809 0090 F0BD     		pop	{r4, r5, r6, r7, pc}
 1810              		.cfi_endproc
 1811              	.LFE42:
 1812              		.size	fillRect, .-fillRect
 1813 0092 C046     		.section	.text.fillScreen,"ax",%progbits
 1814              		.align	2
 1815              		.global	fillScreen
 1816              		.code	16
 1817              		.thumb_func
 1818              		.type	fillScreen, %function
 1819              	fillScreen:
 1820              	.LFB43:
ARM GAS  C:\Users\Steve\AppData\Local\Temp\ccroCuoh.s 			page 42


 277:.\LED_Matrix.c **** 
 278:.\LED_Matrix.c **** void fillScreen(RGB c, color *matrix)
 279:.\LED_Matrix.c **** {
 1821              		.loc 1 279 0
 1822              		.cfi_startproc
 1823              	.LVL167:
 1824 0000 00B5     		push	{lr}
 1825              	.LCFI23:
 1826              		.cfi_def_cfa_offset 4
 1827              		.cfi_offset 14, -4
 1828 0002 85B0     		sub	sp, sp, #20
 1829              	.LCFI24:
 1830              		.cfi_def_cfa_offset 24
 280:.\LED_Matrix.c ****   fillRect(0, 0, 32, 16, c, matrix);
 1831              		.loc 1 280 0
 1832 0004 6B46     		mov	r3, sp
 279:.\LED_Matrix.c **** {
 1833              		.loc 1 279 0
 1834 0006 021C     		add	r2, r0, #0
 1835 0008 000C     		lsr	r0, r0, #16
 1836              		.loc 1 280 0
 1837 000a 1A80     		strh	r2, [r3]
 1838 000c 9870     		strb	r0, [r3, #2]
 1839 000e 2022     		mov	r2, #32
 1840 0010 0191     		str	r1, [sp, #4]
 1841 0012 0020     		mov	r0, #0
 1842 0014 0021     		mov	r1, #0
 1843              	.LVL168:
 1844 0016 1023     		mov	r3, #16
 1845 0018 FFF7FEFF 		bl	fillRect
 1846              	.LVL169:
 281:.\LED_Matrix.c **** }
 1847              		.loc 1 281 0
 1848 001c 05B0     		add	sp, sp, #20
 1849              		@ sp needed for prologue
 1850 001e 00BD     		pop	{pc}
 1851              		.cfi_endproc
 1852              	.LFE43:
 1853              		.size	fillScreen, .-fillScreen
 1854              		.section	.text.drawTriangle,"ax",%progbits
 1855              		.align	2
 1856              		.global	drawTriangle
 1857              		.code	16
 1858              		.thumb_func
 1859              		.type	drawTriangle, %function
 1860              	drawTriangle:
 1861              	.LFB44:
 282:.\LED_Matrix.c **** 
 283:.\LED_Matrix.c **** void drawTriangle(int8 x0, int8 y0,int8 x1, int8 y1,
 284:.\LED_Matrix.c **** 						int8 x2, int8 y2, RGB c, color *matrix) 
 285:.\LED_Matrix.c **** {
 1862              		.loc 1 285 0
 1863              		.cfi_startproc
 1864              	.LVL170:
 1865 0000 F0B5     		push	{r4, r5, r6, r7, lr}
 1866              	.LCFI25:
 1867              		.cfi_def_cfa_offset 20
ARM GAS  C:\Users\Steve\AppData\Local\Temp\ccroCuoh.s 			page 43


 1868              		.cfi_offset 4, -20
 1869              		.cfi_offset 5, -16
 1870              		.cfi_offset 6, -12
 1871              		.cfi_offset 7, -8
 1872              		.cfi_offset 14, -4
 1873 0002 5F46     		mov	r7, fp
 1874 0004 5646     		mov	r6, sl
 1875 0006 4D46     		mov	r5, r9
 1876 0008 E0B4     		push	{r5, r6, r7}
 1877              	.LCFI26:
 1878              		.cfi_def_cfa_offset 32
 1879              		.cfi_offset 9, -32
 1880              		.cfi_offset 10, -28
 1881              		.cfi_offset 11, -24
 1882 000a 82B0     		sub	sp, sp, #8
 1883              	.LCFI27:
 1884              		.cfi_def_cfa_offset 40
 1885              		.loc 1 285 0
 1886 000c 9A46     		mov	sl, r3
 1887 000e 0AAB     		add	r3, sp, #40
 1888              	.LVL171:
 1889 0010 071C     		mov	r7, r0
 1890 0012 1878     		ldrb	r0, [r3]
 1891              	.LVL172:
 286:.\LED_Matrix.c ****   drawLine(x0, y0, x1, y1, c, matrix);
 1892              		.loc 1 286 0
 1893 0014 0CAC     		add	r4, sp, #48
 285:.\LED_Matrix.c **** {
 1894              		.loc 1 285 0
 1895 0016 0E1C     		mov	r6, r1
 1896 0018 41B2     		sxtb	r1, r0
 1897              	.LVL173:
 1898              		.loc 1 286 0
 1899 001a 2088     		ldrh	r0, [r4]
 285:.\LED_Matrix.c **** {
 1900              		.loc 1 285 0
 1901 001c 9346     		mov	fp, r2
 1902              		.loc 1 286 0
 1903 001e 6B46     		mov	r3, sp
 285:.\LED_Matrix.c **** {
 1904              		.loc 1 285 0
 1905 0020 0BAA     		add	r2, sp, #44
 1906              	.LVL174:
 1907 0022 0025     		mov	r5, #0
 1908 0024 5557     		ldrsb	r5, [r2, r5]
 1909              		.loc 1 286 0
 1910 0026 1880     		strh	r0, [r3]
 285:.\LED_Matrix.c **** {
 1911              		.loc 1 285 0
 1912 0028 8946     		mov	r9, r1
 1913              		.loc 1 286 0
 1914 002a A178     		ldrb	r1, [r4, #2]
 1915 002c 381C     		mov	r0, r7
 1916 002e 9970     		strb	r1, [r3, #2]
 1917 0030 0D9A     		ldr	r2, [sp, #52]
 1918 0032 311C     		mov	r1, r6
 1919 0034 0192     		str	r2, [sp, #4]
ARM GAS  C:\Users\Steve\AppData\Local\Temp\ccroCuoh.s 			page 44


 1920 0036 5346     		mov	r3, sl
 1921 0038 5A46     		mov	r2, fp
 1922 003a FFF7FEFF 		bl	drawLine
 1923              	.LVL175:
 287:.\LED_Matrix.c ****   drawLine(x1, y1, x2, y2, c, matrix);
 1924              		.loc 1 287 0
 1925 003e 2088     		ldrh	r0, [r4]
 1926 0040 6B46     		mov	r3, sp
 1927 0042 1880     		strh	r0, [r3]
 1928 0044 A178     		ldrb	r1, [r4, #2]
 1929 0046 5846     		mov	r0, fp
 1930 0048 9970     		strb	r1, [r3, #2]
 1931 004a 0D9A     		ldr	r2, [sp, #52]
 1932 004c 5146     		mov	r1, sl
 1933 004e 0192     		str	r2, [sp, #4]
 1934 0050 2B1C     		mov	r3, r5
 1935 0052 4A46     		mov	r2, r9
 1936 0054 FFF7FEFF 		bl	drawLine
 1937              	.LVL176:
 288:.\LED_Matrix.c ****   drawLine(x2, y2, x0, y0, c, matrix);
 1938              		.loc 1 288 0
 1939 0058 2088     		ldrh	r0, [r4]
 1940 005a 6B46     		mov	r3, sp
 1941 005c 1880     		strh	r0, [r3]
 1942 005e A478     		ldrb	r4, [r4, #2]
 1943 0060 4846     		mov	r0, r9
 1944 0062 9C70     		strb	r4, [r3, #2]
 1945 0064 0D99     		ldr	r1, [sp, #52]
 1946 0066 3A1C     		mov	r2, r7
 1947 0068 0191     		str	r1, [sp, #4]
 1948 006a 331C     		mov	r3, r6
 1949 006c 291C     		mov	r1, r5
 1950 006e FFF7FEFF 		bl	drawLine
 1951              	.LVL177:
 289:.\LED_Matrix.c **** }
 1952              		.loc 1 289 0
 1953 0072 02B0     		add	sp, sp, #8
 1954              		@ sp needed for prologue
 1955 0074 1CBC     		pop	{r2, r3, r4}
 1956 0076 9146     		mov	r9, r2
 1957 0078 9A46     		mov	sl, r3
 1958 007a A346     		mov	fp, r4
 1959 007c F0BD     		pop	{r4, r5, r6, r7, pc}
 1960              		.cfi_endproc
 1961              	.LFE44:
 1962              		.size	drawTriangle, .-drawTriangle
 1963 007e C046     		.section	.text.drawOne,"ax",%progbits
 1964              		.align	2
 1965              		.global	drawOne
 1966              		.code	16
 1967              		.thumb_func
 1968              		.type	drawOne, %function
 1969              	drawOne:
 1970              	.LFB45:
 290:.\LED_Matrix.c **** 
 291:.\LED_Matrix.c **** void drawOne(int8 x0, int8 y0,RGB c, color *matrix) 
 292:.\LED_Matrix.c **** { 
ARM GAS  C:\Users\Steve\AppData\Local\Temp\ccroCuoh.s 			page 45


 1971              		.loc 1 292 0
 1972              		.cfi_startproc
 1973              	.LVL178:
 1974 0000 F0B5     		push	{r4, r5, r6, r7, lr}
 1975              	.LCFI28:
 1976              		.cfi_def_cfa_offset 20
 1977              		.cfi_offset 4, -20
 1978              		.cfi_offset 5, -16
 1979              		.cfi_offset 6, -12
 1980              		.cfi_offset 7, -8
 1981              		.cfi_offset 14, -4
 1982 0002 5746     		mov	r7, sl
 1983 0004 4E46     		mov	r6, r9
 1984 0006 4546     		mov	r5, r8
 1985 0008 E0B4     		push	{r5, r6, r7}
 1986              	.LCFI29:
 1987              		.cfi_def_cfa_offset 32
 1988              		.cfi_offset 8, -32
 1989              		.cfi_offset 9, -28
 1990              		.cfi_offset 10, -24
 1991 000a 8946     		mov	r9, r1
 1992 000c 111C     		mov	r1, r2
 1993              	.LVL179:
 1994 000e 0D0C     		lsr	r5, r1, #16
 1995 0010 84B0     		sub	sp, sp, #16
 1996              	.LCFI30:
 1997              		.cfi_def_cfa_offset 48
 1998              		.loc 1 292 0
 1999 0012 AC46     		mov	ip, r5
 293:.\LED_Matrix.c **** 	drawLine(x0+1, y0+2, x0+3, y0, c,matrix); 
 2000              		.loc 1 293 0
 2001 0014 C5B2     		uxtb	r5, r0
 292:.\LED_Matrix.c **** { 
 2002              		.loc 1 292 0
 2003 0016 0392     		str	r2, [sp, #12]
 2004 0018 1F1C     		mov	r7, r3
 2005 001a 9246     		mov	sl, r2
 2006              		.loc 1 293 0
 2007 001c EB1C     		add	r3, r5, #3
 2008              	.LVL180:
 2009 001e 4A46     		mov	r2, r9
 2010 0020 D6B2     		uxtb	r6, r2
 2011 0022 5AB2     		sxtb	r2, r3
 2012 0024 9046     		mov	r8, r2
 2013 0026 6B46     		mov	r3, sp
 2014 0028 5246     		mov	r2, sl
 2015 002a 1A80     		strh	r2, [r3]
 2016 002c 681C     		add	r0, r5, #1
 2017              	.LVL181:
 2018 002e 6246     		mov	r2, ip
 2019 0030 B11C     		add	r1, r6, #2
 292:.\LED_Matrix.c **** { 
 2020              		.loc 1 292 0
 2021 0032 03AC     		add	r4, sp, #12
 2022              		.loc 1 293 0
 2023 0034 9A70     		strb	r2, [r3, #2]
 2024 0036 40B2     		sxtb	r0, r0
ARM GAS  C:\Users\Steve\AppData\Local\Temp\ccroCuoh.s 			page 46


 2025 0038 4246     		mov	r2, r8
 2026 003a 4B46     		mov	r3, r9
 2027 003c 49B2     		sxtb	r1, r1
 2028 003e 0197     		str	r7, [sp, #4]
 2029 0040 FFF7FEFF 		bl	drawLine
 2030              	.LVL182:
 294:.\LED_Matrix.c **** 	drawLine(x0+3, y0, x0+3, y0+11, c,matrix); 
 2031              		.loc 1 294 0
 2032 0044 2188     		ldrh	r1, [r4]
 2033 0046 6846     		mov	r0, sp
 2034 0048 0180     		strh	r1, [r0]
 2035 004a A378     		ldrb	r3, [r4, #2]
 2036 004c 0B36     		add	r6, r6, #11
 2037 004e 76B2     		sxtb	r6, r6
 2038 0050 8370     		strb	r3, [r0, #2]
 2039 0052 4946     		mov	r1, r9
 2040 0054 4046     		mov	r0, r8
 2041 0056 4246     		mov	r2, r8
 2042 0058 331C     		mov	r3, r6
 2043 005a 0197     		str	r7, [sp, #4]
 2044 005c FFF7FEFF 		bl	drawLine
 2045              	.LVL183:
 295:.\LED_Matrix.c **** 	drawLine(x0+2, y0+11, x0+4, y0+11, c,matrix);
 2046              		.loc 1 295 0
 2047 0060 2188     		ldrh	r1, [r4]
 2048 0062 AA1C     		add	r2, r5, #2
 2049 0064 0435     		add	r5, r5, #4
 2050              	.LVL184:
 2051 0066 50B2     		sxtb	r0, r2
 2052 0068 6AB2     		sxtb	r2, r5
 2053 006a 6D46     		mov	r5, sp
 2054              	.LVL185:
 2055 006c 2980     		strh	r1, [r5]
 2056 006e A478     		ldrb	r4, [r4, #2]
 2057 0070 311C     		mov	r1, r6
 2058 0072 AC70     		strb	r4, [r5, #2]
 2059 0074 331C     		mov	r3, r6
 2060 0076 0197     		str	r7, [sp, #4]
 2061 0078 FFF7FEFF 		bl	drawLine
 2062              	.LVL186:
 296:.\LED_Matrix.c **** }
 2063              		.loc 1 296 0
 2064 007c 04B0     		add	sp, sp, #16
 2065              		@ sp needed for prologue
 2066              	.LVL187:
 2067 007e 1CBC     		pop	{r2, r3, r4}
 2068 0080 9046     		mov	r8, r2
 2069 0082 9946     		mov	r9, r3
 2070 0084 A246     		mov	sl, r4
 2071 0086 F0BD     		pop	{r4, r5, r6, r7, pc}
 2072              		.cfi_endproc
 2073              	.LFE45:
 2074              		.size	drawOne, .-drawOne
 2075              		.section	.text.drawTwo,"ax",%progbits
 2076              		.align	2
 2077              		.global	drawTwo
 2078              		.code	16
ARM GAS  C:\Users\Steve\AppData\Local\Temp\ccroCuoh.s 			page 47


 2079              		.thumb_func
 2080              		.type	drawTwo, %function
 2081              	drawTwo:
 2082              	.LFB46:
 297:.\LED_Matrix.c **** 
 298:.\LED_Matrix.c **** void drawTwo(int8 x0, int8 y0,RGB c, color *matrix) 
 299:.\LED_Matrix.c **** { 
 2083              		.loc 1 299 0
 2084              		.cfi_startproc
 2085              	.LVL188:
 2086 0000 F0B5     		push	{r4, r5, r6, r7, lr}
 2087              	.LCFI31:
 2088              		.cfi_def_cfa_offset 20
 2089              		.cfi_offset 4, -20
 2090              		.cfi_offset 5, -16
 2091              		.cfi_offset 6, -12
 2092              		.cfi_offset 7, -8
 2093              		.cfi_offset 14, -4
 2094 0002 5746     		mov	r7, sl
 2095 0004 4E46     		mov	r6, r9
 2096 0006 4546     		mov	r5, r8
 2097 0008 E0B4     		push	{r5, r6, r7}
 2098              	.LCFI32:
 2099              		.cfi_def_cfa_offset 32
 2100              		.cfi_offset 8, -32
 2101              		.cfi_offset 9, -28
 2102              		.cfi_offset 10, -24
 300:.\LED_Matrix.c **** 	drawPixel(x0,y0+1,c,matrix);
 2103              		.loc 1 300 0
 2104 000a CEB2     		uxtb	r6, r1
 299:.\LED_Matrix.c **** { 
 2105              		.loc 1 299 0
 2106 000c 1C1C     		mov	r4, r3
 2107 000e 051C     		mov	r5, r0
 2108              		.loc 1 300 0
 2109 0010 701C     		add	r0, r6, #1
 2110              	.LVL189:
 299:.\LED_Matrix.c **** { 
 2111              		.loc 1 299 0
 2112 0012 84B0     		sub	sp, sp, #16
 2113              	.LCFI33:
 2114              		.cfi_def_cfa_offset 48
 299:.\LED_Matrix.c **** { 
 2115              		.loc 1 299 0
 2116 0014 8A46     		mov	sl, r1
 2117              		.loc 1 300 0
 2118 0016 231C     		mov	r3, r4
 2119 0018 41B2     		sxtb	r1, r0
 2120              	.LVL190:
 2121 001a 281C     		mov	r0, r5
 2122 001c 8846     		mov	r8, r1
 299:.\LED_Matrix.c **** { 
 2123              		.loc 1 299 0
 2124 001e 0392     		str	r2, [sp, #12]
 2125              		.loc 1 300 0
 2126 0020 FFF7FEFF 		bl	drawPixel
 2127              	.LVL191:
ARM GAS  C:\Users\Steve\AppData\Local\Temp\ccroCuoh.s 			page 48


 301:.\LED_Matrix.c **** 	drawFastHLine(x0+1,y0,3,c,matrix);
 2128              		.loc 1 301 0
 2129 0024 EAB2     		uxtb	r2, r5
 2130 0026 171C     		mov	r7, r2
 2131 0028 0137     		add	r7, r7, #1
 2132 002a 7FB2     		sxtb	r7, r7
 2133 002c 9146     		mov	r9, r2
 2134 002e 381C     		mov	r0, r7
 2135 0030 5146     		mov	r1, sl
 2136 0032 039B     		ldr	r3, [sp, #12]
 2137 0034 0094     		str	r4, [sp]
 2138 0036 0322     		mov	r2, #3
 2139 0038 FFF7FEFF 		bl	drawFastHLine
 2140              	.LVL192:
 302:.\LED_Matrix.c **** 	drawFastVLine(x0+4,y0+1,4,c,matrix);
 2141              		.loc 1 302 0
 2142 003c 4B46     		mov	r3, r9
 2143 003e 0433     		add	r3, r3, #4
 2144 0040 58B2     		sxtb	r0, r3
 2145 0042 4146     		mov	r1, r8
 2146 0044 039B     		ldr	r3, [sp, #12]
 2147 0046 0094     		str	r4, [sp]
 2148 0048 0422     		mov	r2, #4
 2149 004a FFF7FEFF 		bl	drawFastVLine
 2150              	.LVL193:
 303:.\LED_Matrix.c **** 	drawFastHLine(x0+1,y0+5,3,c,matrix);
 2151              		.loc 1 303 0
 2152 004e 701D     		add	r0, r6, #5
 2153 0050 41B2     		sxtb	r1, r0
 2154 0052 039B     		ldr	r3, [sp, #12]
 2155 0054 381C     		mov	r0, r7
 2156 0056 0094     		str	r4, [sp]
 2157 0058 0322     		mov	r2, #3
 2158 005a FFF7FEFF 		bl	drawFastHLine
 2159              	.LVL194:
 304:.\LED_Matrix.c **** 	drawFastVLine(x0,y0+6,6,c,matrix);
 2160              		.loc 1 304 0
 2161 005e B11D     		add	r1, r6, #6
 2162 0060 281C     		mov	r0, r5
 2163 0062 039B     		ldr	r3, [sp, #12]
 2164 0064 49B2     		sxtb	r1, r1
 2165 0066 0094     		str	r4, [sp]
 2166 0068 0622     		mov	r2, #6
 305:.\LED_Matrix.c **** 	drawFastHLine(x0,y0+11,5,c,matrix);
 2167              		.loc 1 305 0
 2168 006a 0B36     		add	r6, r6, #11
 2169              	.LVL195:
 304:.\LED_Matrix.c **** 	drawFastVLine(x0,y0+6,6,c,matrix);
 2170              		.loc 1 304 0
 2171 006c FFF7FEFF 		bl	drawFastVLine
 2172              	.LVL196:
 2173              		.loc 1 305 0
 2174 0070 71B2     		sxtb	r1, r6
 2175 0072 0094     		str	r4, [sp]
 2176 0074 281C     		mov	r0, r5
 2177 0076 0522     		mov	r2, #5
 2178 0078 039B     		ldr	r3, [sp, #12]
ARM GAS  C:\Users\Steve\AppData\Local\Temp\ccroCuoh.s 			page 49


 2179 007a FFF7FEFF 		bl	drawFastHLine
 2180              	.LVL197:
 306:.\LED_Matrix.c **** }
 2181              		.loc 1 306 0
 2182 007e 04B0     		add	sp, sp, #16
 2183              		@ sp needed for prologue
 2184              	.LVL198:
 2185              	.LVL199:
 2186 0080 1CBC     		pop	{r2, r3, r4}
 2187 0082 9046     		mov	r8, r2
 2188 0084 9946     		mov	r9, r3
 2189 0086 A246     		mov	sl, r4
 2190 0088 F0BD     		pop	{r4, r5, r6, r7, pc}
 2191              		.cfi_endproc
 2192              	.LFE46:
 2193              		.size	drawTwo, .-drawTwo
 2194 008a C046     		.section	.text.drawColon,"ax",%progbits
 2195              		.align	2
 2196              		.global	drawColon
 2197              		.code	16
 2198              		.thumb_func
 2199              		.type	drawColon, %function
 2200              	drawColon:
 2201              	.LFB47:
 307:.\LED_Matrix.c **** 
 308:.\LED_Matrix.c **** void drawColon(int8 x0, int8 y0,RGB c, color *matrix)
 309:.\LED_Matrix.c **** {
 2202              		.loc 1 309 0
 2203              		.cfi_startproc
 2204              	.LVL200:
 2205 0000 F0B5     		push	{r4, r5, r6, r7, lr}
 2206              	.LCFI34:
 2207              		.cfi_def_cfa_offset 20
 2208              		.cfi_offset 4, -20
 2209              		.cfi_offset 5, -16
 2210              		.cfi_offset 6, -12
 2211              		.cfi_offset 7, -8
 2212              		.cfi_offset 14, -4
 310:.\LED_Matrix.c **** 	drawFastVLine(x0,y0+3,2,c,matrix);
 2213              		.loc 1 310 0
 2214 0002 CEB2     		uxtb	r6, r1
 309:.\LED_Matrix.c **** {
 2215              		.loc 1 309 0
 2216 0004 85B0     		sub	sp, sp, #20
 2217              	.LCFI35:
 2218              		.cfi_def_cfa_offset 40
 309:.\LED_Matrix.c **** {
 2219              		.loc 1 309 0
 2220 0006 171C     		mov	r7, r2
 2221              		.loc 1 310 0
 2222 0008 F11C     		add	r1, r6, #3
 2223              	.LVL201:
 309:.\LED_Matrix.c **** {
 2224              		.loc 1 309 0
 2225 000a 041C     		mov	r4, r0
 2226 000c 0392     		str	r2, [sp, #12]
 2227 000e 1D1C     		mov	r5, r3
ARM GAS  C:\Users\Steve\AppData\Local\Temp\ccroCuoh.s 			page 50


 2228              		.loc 1 310 0
 2229 0010 0093     		str	r3, [sp]
 2230 0012 49B2     		sxtb	r1, r1
 2231 0014 3B1C     		mov	r3, r7
 2232              	.LVL202:
 2233 0016 0222     		mov	r2, #2
 311:.\LED_Matrix.c **** 	drawFastVLine(x0,y0+7,2,c,matrix);
 2234              		.loc 1 311 0
 2235 0018 0736     		add	r6, r6, #7
 2236              	.LVL203:
 310:.\LED_Matrix.c **** 	drawFastVLine(x0,y0+3,2,c,matrix);
 2237              		.loc 1 310 0
 2238 001a FFF7FEFF 		bl	drawFastVLine
 2239              	.LVL204:
 2240              		.loc 1 311 0
 2241 001e 71B2     		sxtb	r1, r6
 2242 0020 0095     		str	r5, [sp]
 2243 0022 201C     		mov	r0, r4
 2244 0024 0222     		mov	r2, #2
 2245 0026 039B     		ldr	r3, [sp, #12]
 2246 0028 FFF7FEFF 		bl	drawFastVLine
 2247              	.LVL205:
 312:.\LED_Matrix.c **** }
 2248              		.loc 1 312 0
 2249 002c 05B0     		add	sp, sp, #20
 2250              		@ sp needed for prologue
 2251              	.LVL206:
 2252              	.LVL207:
 2253 002e F0BD     		pop	{r4, r5, r6, r7, pc}
 2254              		.cfi_endproc
 2255              	.LFE47:
 2256              		.size	drawColon, .-drawColon
 2257              		.section	.text.drawThree,"ax",%progbits
 2258              		.align	2
 2259              		.global	drawThree
 2260              		.code	16
 2261              		.thumb_func
 2262              		.type	drawThree, %function
 2263              	drawThree:
 2264              	.LFB48:
 313:.\LED_Matrix.c **** 
 314:.\LED_Matrix.c **** void drawThree(int8 x0, int8 y0,RGB c, color *matrix)
 315:.\LED_Matrix.c **** {
 2265              		.loc 1 315 0
 2266              		.cfi_startproc
 2267              	.LVL208:
 2268 0000 F0B5     		push	{r4, r5, r6, r7, lr}
 2269              	.LCFI36:
 2270              		.cfi_def_cfa_offset 20
 2271              		.cfi_offset 4, -20
 2272              		.cfi_offset 5, -16
 2273              		.cfi_offset 6, -12
 2274              		.cfi_offset 7, -8
 2275              		.cfi_offset 14, -4
 2276 0002 4746     		mov	r7, r8
 2277 0004 80B4     		push	{r7}
 2278              	.LCFI37:
ARM GAS  C:\Users\Steve\AppData\Local\Temp\ccroCuoh.s 			page 51


 2279              		.cfi_def_cfa_offset 24
 2280              		.cfi_offset 8, -24
 2281 0006 161C     		mov	r6, r2
 2282 0008 84B0     		sub	sp, sp, #16
 2283              	.LCFI38:
 2284              		.cfi_def_cfa_offset 40
 2285              		.loc 1 315 0
 2286 000a 071C     		mov	r7, r0
 2287 000c 1C1C     		mov	r4, r3
 2288 000e 0392     		str	r2, [sp, #12]
 316:.\LED_Matrix.c **** 	drawFastHLine(x0,y0,5,c,matrix);
 2289              		.loc 1 316 0
 2290 0010 0093     		str	r3, [sp]
 2291 0012 0522     		mov	r2, #5
 2292 0014 331C     		mov	r3, r6
 2293              	.LVL209:
 317:.\LED_Matrix.c **** 	drawFastVLine(x0+4,y0,4,c,matrix);
 2294              		.loc 1 317 0
 2295 0016 FEB2     		uxtb	r6, r7
 315:.\LED_Matrix.c **** {
 2296              		.loc 1 315 0
 2297 0018 0D1C     		mov	r5, r1
 316:.\LED_Matrix.c **** 	drawFastHLine(x0,y0,5,c,matrix);
 2298              		.loc 1 316 0
 2299 001a FFF7FEFF 		bl	drawFastHLine
 2300              	.LVL210:
 2301              		.loc 1 317 0
 2302 001e 331D     		add	r3, r6, #4
 2303 0020 58B2     		sxtb	r0, r3
 2304 0022 291C     		mov	r1, r5
 2305 0024 039B     		ldr	r3, [sp, #12]
 318:.\LED_Matrix.c **** 	drawPixel(x0+3,y0+4,c,matrix);
 2306              		.loc 1 318 0
 2307 0026 EDB2     		uxtb	r5, r5
 317:.\LED_Matrix.c **** 	drawFastVLine(x0+4,y0,4,c,matrix);
 2308              		.loc 1 317 0
 2309 0028 0094     		str	r4, [sp]
 2310 002a 0422     		mov	r2, #4
 2311 002c 8046     		mov	r8, r0
 2312 002e FFF7FEFF 		bl	drawFastVLine
 2313              	.LVL211:
 2314              		.loc 1 318 0
 2315 0032 F11C     		add	r1, r6, #3
 2316 0034 2A1D     		add	r2, r5, #4
 2317 0036 48B2     		sxtb	r0, r1
 2318 0038 231C     		mov	r3, r4
 2319 003a 51B2     		sxtb	r1, r2
 2320 003c 039A     		ldr	r2, [sp, #12]
 2321 003e FFF7FEFF 		bl	drawPixel
 2322              	.LVL212:
 319:.\LED_Matrix.c **** 	drawFastHLine(x0+2,y0+5,2,c,matrix);
 2323              		.loc 1 319 0
 2324 0042 B31C     		add	r3, r6, #2
 2325 0044 691D     		add	r1, r5, #5
 2326 0046 58B2     		sxtb	r0, r3
 2327 0048 49B2     		sxtb	r1, r1
 2328 004a 039B     		ldr	r3, [sp, #12]
ARM GAS  C:\Users\Steve\AppData\Local\Temp\ccroCuoh.s 			page 52


 2329 004c 0094     		str	r4, [sp]
 2330 004e 0222     		mov	r2, #2
 2331 0050 FFF7FEFF 		bl	drawFastHLine
 2332              	.LVL213:
 320:.\LED_Matrix.c **** 	drawFastVLine(x0+4,y0+6,5,c,matrix);
 2333              		.loc 1 320 0
 2334 0054 A81D     		add	r0, r5, #6
 2335 0056 41B2     		sxtb	r1, r0
 2336 0058 039B     		ldr	r3, [sp, #12]
 2337 005a 4046     		mov	r0, r8
 2338 005c 0094     		str	r4, [sp]
 2339 005e 0522     		mov	r2, #5
 321:.\LED_Matrix.c **** 	drawFastHLine(x0+1,y0+11,3,c,matrix);
 2340              		.loc 1 321 0
 2341 0060 0136     		add	r6, r6, #1
 320:.\LED_Matrix.c **** 	drawFastVLine(x0+4,y0+6,5,c,matrix);
 2342              		.loc 1 320 0
 2343 0062 FFF7FEFF 		bl	drawFastVLine
 2344              	.LVL214:
 2345              		.loc 1 321 0
 2346 0066 70B2     		sxtb	r0, r6
 2347 0068 2E1C     		mov	r6, r5
 2348 006a 0B36     		add	r6, r6, #11
 2349 006c 71B2     		sxtb	r1, r6
 2350 006e 039B     		ldr	r3, [sp, #12]
 2351 0070 0094     		str	r4, [sp]
 2352 0072 0322     		mov	r2, #3
 322:.\LED_Matrix.c **** 	drawPixel(x0,y0+10,c,matrix);
 2353              		.loc 1 322 0
 2354 0074 0A35     		add	r5, r5, #10
 321:.\LED_Matrix.c **** 	drawFastHLine(x0+1,y0+11,3,c,matrix);
 2355              		.loc 1 321 0
 2356 0076 FFF7FEFF 		bl	drawFastHLine
 2357              	.LVL215:
 2358              		.loc 1 322 0
 2359 007a 69B2     		sxtb	r1, r5
 2360 007c 381C     		mov	r0, r7
 2361 007e 039A     		ldr	r2, [sp, #12]
 2362 0080 231C     		mov	r3, r4
 2363 0082 FFF7FEFF 		bl	drawPixel
 2364              	.LVL216:
 323:.\LED_Matrix.c **** }
 2365              		.loc 1 323 0
 2366 0086 04B0     		add	sp, sp, #16
 2367              		@ sp needed for prologue
 2368              	.LVL217:
 2369 0088 04BC     		pop	{r2}
 2370 008a 9046     		mov	r8, r2
 2371 008c F0BD     		pop	{r4, r5, r6, r7, pc}
 2372              		.cfi_endproc
 2373              	.LFE48:
 2374              		.size	drawThree, .-drawThree
 2375 008e C046     		.section	.text.drawFour,"ax",%progbits
 2376              		.align	2
 2377              		.global	drawFour
 2378              		.code	16
 2379              		.thumb_func
ARM GAS  C:\Users\Steve\AppData\Local\Temp\ccroCuoh.s 			page 53


 2380              		.type	drawFour, %function
 2381              	drawFour:
 2382              	.LFB49:
 324:.\LED_Matrix.c **** 
 325:.\LED_Matrix.c **** void drawFour(int8 x0, int8 y0,RGB c, color *matrix)
 326:.\LED_Matrix.c **** {
 2383              		.loc 1 326 0
 2384              		.cfi_startproc
 2385              	.LVL218:
 2386 0000 F0B5     		push	{r4, r5, r6, r7, lr}
 2387              	.LCFI39:
 2388              		.cfi_def_cfa_offset 20
 2389              		.cfi_offset 4, -20
 2390              		.cfi_offset 5, -16
 2391              		.cfi_offset 6, -12
 2392              		.cfi_offset 7, -8
 2393              		.cfi_offset 14, -4
 2394 0002 171C     		mov	r7, r2
 2395 0004 85B0     		sub	sp, sp, #20
 2396              	.LCFI40:
 2397              		.cfi_def_cfa_offset 40
 2398              		.loc 1 326 0
 2399 0006 0C1C     		mov	r4, r1
 2400 0008 1D1C     		mov	r5, r3
 2401 000a 0392     		str	r2, [sp, #12]
 327:.\LED_Matrix.c **** 	drawFastVLine(x0,y0,7,c,matrix);
 2402              		.loc 1 327 0
 2403 000c 0093     		str	r3, [sp]
 2404 000e 0722     		mov	r2, #7
 2405 0010 3B1C     		mov	r3, r7
 2406              	.LVL219:
 326:.\LED_Matrix.c **** {
 2407              		.loc 1 326 0
 2408 0012 061C     		mov	r6, r0
 2409              		.loc 1 327 0
 2410 0014 FFF7FEFF 		bl	drawFastVLine
 2411              	.LVL220:
 328:.\LED_Matrix.c **** 	drawFastHLine(x0,y0+6,5,c,matrix);
 2412              		.loc 1 328 0
 2413 0018 A11D     		add	r1, r4, #6
 2414 001a 301C     		mov	r0, r6
 2415 001c 039B     		ldr	r3, [sp, #12]
 2416 001e 49B2     		sxtb	r1, r1
 2417 0020 0095     		str	r5, [sp]
 2418 0022 0522     		mov	r2, #5
 329:.\LED_Matrix.c **** 	drawFastVLine(x0+3,y0,12,c,matrix);
 2419              		.loc 1 329 0
 2420 0024 0336     		add	r6, r6, #3
 328:.\LED_Matrix.c **** 	drawFastHLine(x0,y0+6,5,c,matrix);
 2421              		.loc 1 328 0
 2422 0026 FFF7FEFF 		bl	drawFastHLine
 2423              	.LVL221:
 2424              		.loc 1 329 0
 2425 002a 70B2     		sxtb	r0, r6
 2426 002c 0095     		str	r5, [sp]
 2427 002e 211C     		mov	r1, r4
 2428 0030 0C22     		mov	r2, #12
ARM GAS  C:\Users\Steve\AppData\Local\Temp\ccroCuoh.s 			page 54


 2429 0032 039B     		ldr	r3, [sp, #12]
 2430 0034 FFF7FEFF 		bl	drawFastVLine
 2431              	.LVL222:
 330:.\LED_Matrix.c **** }
 2432              		.loc 1 330 0
 2433 0038 05B0     		add	sp, sp, #20
 2434              		@ sp needed for prologue
 2435              	.LVL223:
 2436 003a F0BD     		pop	{r4, r5, r6, r7, pc}
 2437              		.cfi_endproc
 2438              	.LFE49:
 2439              		.size	drawFour, .-drawFour
 2440              		.section	.text.drawFive,"ax",%progbits
 2441              		.align	2
 2442              		.global	drawFive
 2443              		.code	16
 2444              		.thumb_func
 2445              		.type	drawFive, %function
 2446              	drawFive:
 2447              	.LFB50:
 331:.\LED_Matrix.c **** 
 332:.\LED_Matrix.c **** void drawFive(int8 x0, int8 y0,RGB c, color *matrix)
 333:.\LED_Matrix.c **** {
 2448              		.loc 1 333 0
 2449              		.cfi_startproc
 2450              	.LVL224:
 2451 0000 F0B5     		push	{r4, r5, r6, r7, lr}
 2452              	.LCFI41:
 2453              		.cfi_def_cfa_offset 20
 2454              		.cfi_offset 4, -20
 2455              		.cfi_offset 5, -16
 2456              		.cfi_offset 6, -12
 2457              		.cfi_offset 7, -8
 2458              		.cfi_offset 14, -4
 2459 0002 4746     		mov	r7, r8
 2460 0004 80B4     		push	{r7}
 2461              	.LCFI42:
 2462              		.cfi_def_cfa_offset 24
 2463              		.cfi_offset 8, -24
 2464 0006 0D1C     		mov	r5, r1
 2465 0008 84B0     		sub	sp, sp, #16
 2466              	.LCFI43:
 2467              		.cfi_def_cfa_offset 40
 2468              		.loc 1 333 0
 2469 000a 171C     		mov	r7, r2
 2470 000c 1C1C     		mov	r4, r3
 334:.\LED_Matrix.c **** 	drawFastHLine(x0,y0,5,c,matrix);
 335:.\LED_Matrix.c **** 	drawFastVLine(x0,y0+1,6,c,matrix);
 2471              		.loc 1 335 0
 2472 000e EDB2     		uxtb	r5, r5
 333:.\LED_Matrix.c **** {
 2473              		.loc 1 333 0
 2474 0010 0392     		str	r2, [sp, #12]
 334:.\LED_Matrix.c **** 	drawFastHLine(x0,y0,5,c,matrix);
 2475              		.loc 1 334 0
 2476 0012 0093     		str	r3, [sp]
 2477 0014 0522     		mov	r2, #5
ARM GAS  C:\Users\Steve\AppData\Local\Temp\ccroCuoh.s 			page 55


 2478 0016 3B1C     		mov	r3, r7
 2479              	.LVL225:
 333:.\LED_Matrix.c **** {
 2480              		.loc 1 333 0
 2481 0018 061C     		mov	r6, r0
 334:.\LED_Matrix.c **** 	drawFastHLine(x0,y0,5,c,matrix);
 2482              		.loc 1 334 0
 2483 001a FFF7FEFF 		bl	drawFastHLine
 2484              	.LVL226:
 2485              		.loc 1 335 0
 2486 001e 691C     		add	r1, r5, #1
 2487 0020 301C     		mov	r0, r6
 2488 0022 039B     		ldr	r3, [sp, #12]
 2489 0024 49B2     		sxtb	r1, r1
 2490 0026 0094     		str	r4, [sp]
 2491 0028 0622     		mov	r2, #6
 2492 002a FFF7FEFF 		bl	drawFastVLine
 2493              	.LVL227:
 336:.\LED_Matrix.c **** 	drawFastHLine(x0+1,y0+5,3,c,matrix);
 2494              		.loc 1 336 0
 2495 002e F3B2     		uxtb	r3, r6
 2496 0030 181C     		mov	r0, r3
 2497 0032 0130     		add	r0, r0, #1
 2498 0034 47B2     		sxtb	r7, r0
 2499 0036 6A1D     		add	r2, r5, #5
 2500 0038 9846     		mov	r8, r3
 2501 003a 51B2     		sxtb	r1, r2
 2502 003c 381C     		mov	r0, r7
 2503 003e 039B     		ldr	r3, [sp, #12]
 2504 0040 0094     		str	r4, [sp]
 2505 0042 0322     		mov	r2, #3
 2506 0044 FFF7FEFF 		bl	drawFastHLine
 2507              	.LVL228:
 337:.\LED_Matrix.c **** 	drawFastVLine(x0+4,y0+6,5,c,matrix);
 2508              		.loc 1 337 0
 2509 0048 4146     		mov	r1, r8
 2510 004a AB1D     		add	r3, r5, #6
 2511 004c 0431     		add	r1, r1, #4
 2512 004e 48B2     		sxtb	r0, r1
 2513 0050 0094     		str	r4, [sp]
 2514 0052 59B2     		sxtb	r1, r3
 2515 0054 0522     		mov	r2, #5
 2516 0056 039B     		ldr	r3, [sp, #12]
 2517 0058 FFF7FEFF 		bl	drawFastVLine
 2518              	.LVL229:
 338:.\LED_Matrix.c **** 	drawFastHLine(x0+1,y0+11,3,c,matrix);
 2519              		.loc 1 338 0
 2520 005c 281C     		mov	r0, r5
 2521 005e 0B30     		add	r0, r0, #11
 2522 0060 41B2     		sxtb	r1, r0
 2523 0062 039B     		ldr	r3, [sp, #12]
 2524 0064 381C     		mov	r0, r7
 2525 0066 0094     		str	r4, [sp]
 2526 0068 0322     		mov	r2, #3
 339:.\LED_Matrix.c **** 	drawPixel(x0,y0+10,c,matrix);
 2527              		.loc 1 339 0
 2528 006a 0A35     		add	r5, r5, #10
ARM GAS  C:\Users\Steve\AppData\Local\Temp\ccroCuoh.s 			page 56


 338:.\LED_Matrix.c **** 	drawFastHLine(x0+1,y0+11,3,c,matrix);
 2529              		.loc 1 338 0
 2530 006c FFF7FEFF 		bl	drawFastHLine
 2531              	.LVL230:
 2532              		.loc 1 339 0
 2533 0070 69B2     		sxtb	r1, r5
 2534 0072 301C     		mov	r0, r6
 2535 0074 039A     		ldr	r2, [sp, #12]
 2536 0076 231C     		mov	r3, r4
 2537 0078 FFF7FEFF 		bl	drawPixel
 2538              	.LVL231:
 340:.\LED_Matrix.c **** 	
 341:.\LED_Matrix.c **** 	
 342:.\LED_Matrix.c **** }
 2539              		.loc 1 342 0
 2540 007c 04B0     		add	sp, sp, #16
 2541              		@ sp needed for prologue
 2542              	.LVL232:
 2543 007e 04BC     		pop	{r2}
 2544 0080 9046     		mov	r8, r2
 2545 0082 F0BD     		pop	{r4, r5, r6, r7, pc}
 2546              		.cfi_endproc
 2547              	.LFE50:
 2548              		.size	drawFive, .-drawFive
 2549              		.section	.text.drawSix,"ax",%progbits
 2550              		.align	2
 2551              		.global	drawSix
 2552              		.code	16
 2553              		.thumb_func
 2554              		.type	drawSix, %function
 2555              	drawSix:
 2556              	.LFB51:
 343:.\LED_Matrix.c **** void drawSix(int8 x0, int8 y0,RGB c, color *matrix)
 344:.\LED_Matrix.c **** {
 2557              		.loc 1 344 0
 2558              		.cfi_startproc
 2559              	.LVL233:
 2560 0000 F0B5     		push	{r4, r5, r6, r7, lr}
 2561              	.LCFI44:
 2562              		.cfi_def_cfa_offset 20
 2563              		.cfi_offset 4, -20
 2564              		.cfi_offset 5, -16
 2565              		.cfi_offset 6, -12
 2566              		.cfi_offset 7, -8
 2567              		.cfi_offset 14, -4
 2568 0002 4746     		mov	r7, r8
 2569 0004 80B4     		push	{r7}
 2570              	.LCFI45:
 2571              		.cfi_def_cfa_offset 24
 2572              		.cfi_offset 8, -24
 345:.\LED_Matrix.c **** 	drawFastHLine(x0+1,y0,4,c,matrix);
 2573              		.loc 1 345 0
 2574 0006 C7B2     		uxtb	r7, r0
 2575 0008 7E1C     		add	r6, r7, #1
 344:.\LED_Matrix.c **** {
 2576              		.loc 1 344 0
 2577 000a 84B0     		sub	sp, sp, #16
ARM GAS  C:\Users\Steve\AppData\Local\Temp\ccroCuoh.s 			page 57


 2578              	.LCFI46:
 2579              		.cfi_def_cfa_offset 40
 344:.\LED_Matrix.c **** {
 2580              		.loc 1 344 0
 2581 000c 9446     		mov	ip, r2
 2582 000e 1C1C     		mov	r4, r3
 2583              		.loc 1 345 0
 2584 0010 76B2     		sxtb	r6, r6
 344:.\LED_Matrix.c **** {
 2585              		.loc 1 344 0
 2586 0012 0D1C     		mov	r5, r1
 2587              		.loc 1 345 0
 2588 0014 6346     		mov	r3, ip
 2589              	.LVL234:
 346:.\LED_Matrix.c **** 	drawFastVLine(x0,y0+1,10,c,matrix);
 2590              		.loc 1 346 0
 2591 0016 EDB2     		uxtb	r5, r5
 344:.\LED_Matrix.c **** {
 2592              		.loc 1 344 0
 2593 0018 8046     		mov	r8, r0
 2594 001a 0392     		str	r2, [sp, #12]
 345:.\LED_Matrix.c **** 	drawFastHLine(x0+1,y0,4,c,matrix);
 2595              		.loc 1 345 0
 2596 001c 301C     		mov	r0, r6
 2597              	.LVL235:
 2598 001e 0094     		str	r4, [sp]
 2599 0020 0422     		mov	r2, #4
 2600 0022 FFF7FEFF 		bl	drawFastHLine
 2601              	.LVL236:
 2602              		.loc 1 346 0
 2603 0026 691C     		add	r1, r5, #1
 2604 0028 4046     		mov	r0, r8
 2605 002a 039B     		ldr	r3, [sp, #12]
 2606 002c 49B2     		sxtb	r1, r1
 2607 002e 0094     		str	r4, [sp]
 2608 0030 0A22     		mov	r2, #10
 2609 0032 FFF7FEFF 		bl	drawFastVLine
 2610              	.LVL237:
 347:.\LED_Matrix.c **** 	drawFastHLine(x0+1,y0+5,3,c,matrix);
 2611              		.loc 1 347 0
 2612 0036 681D     		add	r0, r5, #5
 2613 0038 41B2     		sxtb	r1, r0
 2614 003a 039B     		ldr	r3, [sp, #12]
 2615 003c 301C     		mov	r0, r6
 2616 003e 0094     		str	r4, [sp]
 2617 0040 0322     		mov	r2, #3
 2618 0042 FFF7FEFF 		bl	drawFastHLine
 2619              	.LVL238:
 348:.\LED_Matrix.c **** 	drawFastVLine(x0+4,y0+6,5,c,matrix);
 2620              		.loc 1 348 0
 2621 0046 0437     		add	r7, r7, #4
 2622              	.LVL239:
 2623 0048 AA1D     		add	r2, r5, #6
 2624 004a 78B2     		sxtb	r0, r7
 2625 004c 51B2     		sxtb	r1, r2
 2626 004e 039B     		ldr	r3, [sp, #12]
 2627 0050 0094     		str	r4, [sp]
ARM GAS  C:\Users\Steve\AppData\Local\Temp\ccroCuoh.s 			page 58


 2628 0052 0522     		mov	r2, #5
 349:.\LED_Matrix.c **** 	drawFastHLine(x0+1,y0+11,3,c,matrix);
 2629              		.loc 1 349 0
 2630 0054 0B35     		add	r5, r5, #11
 348:.\LED_Matrix.c **** 	drawFastVLine(x0+4,y0+6,5,c,matrix);
 2631              		.loc 1 348 0
 2632 0056 FFF7FEFF 		bl	drawFastVLine
 2633              	.LVL240:
 2634              		.loc 1 349 0
 2635 005a 69B2     		sxtb	r1, r5
 2636 005c 0094     		str	r4, [sp]
 2637 005e 301C     		mov	r0, r6
 2638 0060 0322     		mov	r2, #3
 2639 0062 039B     		ldr	r3, [sp, #12]
 2640 0064 FFF7FEFF 		bl	drawFastHLine
 2641              	.LVL241:
 350:.\LED_Matrix.c **** 	
 351:.\LED_Matrix.c **** }
 2642              		.loc 1 351 0
 2643 0068 04B0     		add	sp, sp, #16
 2644              		@ sp needed for prologue
 2645              	.LVL242:
 2646              	.LVL243:
 2647 006a 04BC     		pop	{r2}
 2648 006c 9046     		mov	r8, r2
 2649 006e F0BD     		pop	{r4, r5, r6, r7, pc}
 2650              		.cfi_endproc
 2651              	.LFE51:
 2652              		.size	drawSix, .-drawSix
 2653              		.section	.text.drawSeven,"ax",%progbits
 2654              		.align	2
 2655              		.global	drawSeven
 2656              		.code	16
 2657              		.thumb_func
 2658              		.type	drawSeven, %function
 2659              	drawSeven:
 2660              	.LFB52:
 352:.\LED_Matrix.c **** void drawSeven(int8 x0, int8 y0,RGB c, color *matrix)
 353:.\LED_Matrix.c **** {
 2661              		.loc 1 353 0
 2662              		.cfi_startproc
 2663              	.LVL244:
 2664 0000 F0B5     		push	{r4, r5, r6, r7, lr}
 2665              	.LCFI47:
 2666              		.cfi_def_cfa_offset 20
 2667              		.cfi_offset 4, -20
 2668              		.cfi_offset 5, -16
 2669              		.cfi_offset 6, -12
 2670              		.cfi_offset 7, -8
 2671              		.cfi_offset 14, -4
 2672 0002 0C1C     		mov	r4, r1
 354:.\LED_Matrix.c **** 	drawPixel(x0,y0+1,c,matrix);
 2673              		.loc 1 354 0
 2674 0004 0131     		add	r1, r1, #1
 2675              	.LVL245:
 353:.\LED_Matrix.c **** {
 2676              		.loc 1 353 0
ARM GAS  C:\Users\Steve\AppData\Local\Temp\ccroCuoh.s 			page 59


 2677 0006 85B0     		sub	sp, sp, #20
 2678              	.LCFI48:
 2679              		.cfi_def_cfa_offset 40
 353:.\LED_Matrix.c **** {
 2680              		.loc 1 353 0
 2681 0008 1D1C     		mov	r5, r3
 2682 000a 061C     		mov	r6, r0
 2683              		.loc 1 354 0
 2684 000c 49B2     		sxtb	r1, r1
 353:.\LED_Matrix.c **** {
 2685              		.loc 1 353 0
 2686 000e 0392     		str	r2, [sp, #12]
 2687              		.loc 1 354 0
 2688 0010 FFF7FEFF 		bl	drawPixel
 2689              	.LVL246:
 355:.\LED_Matrix.c **** 	drawFastHLine(x0,y0,5,c,matrix);
 2690              		.loc 1 355 0
 2691 0014 301C     		mov	r0, r6
 2692 0016 211C     		mov	r1, r4
 2693 0018 039B     		ldr	r3, [sp, #12]
 2694 001a 0095     		str	r5, [sp]
 2695 001c 0522     		mov	r2, #5
 356:.\LED_Matrix.c **** 	drawFastVLine(x0+4,y0,12,c,matrix);
 2696              		.loc 1 356 0
 2697 001e 0436     		add	r6, r6, #4
 355:.\LED_Matrix.c **** 	drawFastHLine(x0,y0,5,c,matrix);
 2698              		.loc 1 355 0
 2699 0020 FFF7FEFF 		bl	drawFastHLine
 2700              	.LVL247:
 2701              		.loc 1 356 0
 2702 0024 70B2     		sxtb	r0, r6
 2703 0026 0095     		str	r5, [sp]
 2704 0028 211C     		mov	r1, r4
 2705 002a 0C22     		mov	r2, #12
 2706 002c 039B     		ldr	r3, [sp, #12]
 2707 002e FFF7FEFF 		bl	drawFastVLine
 2708              	.LVL248:
 357:.\LED_Matrix.c **** }
 2709              		.loc 1 357 0
 2710 0032 05B0     		add	sp, sp, #20
 2711              		@ sp needed for prologue
 2712              	.LVL249:
 2713 0034 F0BD     		pop	{r4, r5, r6, r7, pc}
 2714              		.cfi_endproc
 2715              	.LFE52:
 2716              		.size	drawSeven, .-drawSeven
 2717 0036 C046     		.section	.text.drawEight,"ax",%progbits
 2718              		.align	2
 2719              		.global	drawEight
 2720              		.code	16
 2721              		.thumb_func
 2722              		.type	drawEight, %function
 2723              	drawEight:
 2724              	.LFB53:
 358:.\LED_Matrix.c **** void drawEight(int8 x0, int8 y0,RGB c, color *matrix)
 359:.\LED_Matrix.c **** {
 2725              		.loc 1 359 0
ARM GAS  C:\Users\Steve\AppData\Local\Temp\ccroCuoh.s 			page 60


 2726              		.cfi_startproc
 2727              	.LVL250:
 2728 0000 F0B5     		push	{r4, r5, r6, r7, lr}
 2729              	.LCFI49:
 2730              		.cfi_def_cfa_offset 20
 2731              		.cfi_offset 4, -20
 2732              		.cfi_offset 5, -16
 2733              		.cfi_offset 6, -12
 2734              		.cfi_offset 7, -8
 2735              		.cfi_offset 14, -4
 2736 0002 4F46     		mov	r7, r9
 2737 0004 4646     		mov	r6, r8
 2738 0006 C0B4     		push	{r6, r7}
 2739              	.LCFI50:
 2740              		.cfi_def_cfa_offset 28
 2741              		.cfi_offset 8, -28
 2742              		.cfi_offset 9, -24
 2743 0008 1C1C     		mov	r4, r3
 360:.\LED_Matrix.c **** 	drawFastHLine(x0+1,y0,3,c,matrix);
 2744              		.loc 1 360 0
 2745 000a C3B2     		uxtb	r3, r0
 2746              	.LVL251:
 2747 000c 1F1C     		mov	r7, r3
 2748 000e 0137     		add	r7, r7, #1
 359:.\LED_Matrix.c **** {
 2749              		.loc 1 359 0
 2750 0010 85B0     		sub	sp, sp, #20
 2751              	.LCFI51:
 2752              		.cfi_def_cfa_offset 48
 359:.\LED_Matrix.c **** {
 2753              		.loc 1 359 0
 2754 0012 9446     		mov	ip, r2
 2755              		.loc 1 360 0
 2756 0014 7FB2     		sxtb	r7, r7
 359:.\LED_Matrix.c **** {
 2757              		.loc 1 359 0
 2758 0016 0D1C     		mov	r5, r1
 2759 0018 061C     		mov	r6, r0
 361:.\LED_Matrix.c **** 	drawFastHLine(x0+1,y0+5,3,c,matrix);
 2760              		.loc 1 361 0
 2761 001a EDB2     		uxtb	r5, r5
 359:.\LED_Matrix.c **** {
 2762              		.loc 1 359 0
 2763 001c 0392     		str	r2, [sp, #12]
 360:.\LED_Matrix.c **** 	drawFastHLine(x0+1,y0,3,c,matrix);
 2764              		.loc 1 360 0
 2765 001e 9946     		mov	r9, r3
 2766 0020 381C     		mov	r0, r7
 2767              	.LVL252:
 2768 0022 6346     		mov	r3, ip
 2769              	.LVL253:
 2770 0024 0094     		str	r4, [sp]
 2771 0026 0322     		mov	r2, #3
 2772 0028 FFF7FEFF 		bl	drawFastHLine
 2773              	.LVL254:
 2774              		.loc 1 361 0
 2775 002c 691D     		add	r1, r5, #5
ARM GAS  C:\Users\Steve\AppData\Local\Temp\ccroCuoh.s 			page 61


 2776 002e 381C     		mov	r0, r7
 2777 0030 039B     		ldr	r3, [sp, #12]
 2778 0032 49B2     		sxtb	r1, r1
 2779 0034 0094     		str	r4, [sp]
 2780 0036 0322     		mov	r2, #3
 2781 0038 FFF7FEFF 		bl	drawFastHLine
 2782              	.LVL255:
 362:.\LED_Matrix.c **** 	drawFastHLine(x0+1,y0+11,3,c,matrix);
 2783              		.loc 1 362 0
 2784 003c 281C     		mov	r0, r5
 2785 003e 0B30     		add	r0, r0, #11
 2786 0040 41B2     		sxtb	r1, r0
 2787 0042 039B     		ldr	r3, [sp, #12]
 2788 0044 381C     		mov	r0, r7
 2789 0046 0094     		str	r4, [sp]
 2790 0048 0322     		mov	r2, #3
 2791 004a FFF7FEFF 		bl	drawFastHLine
 2792              	.LVL256:
 363:.\LED_Matrix.c **** 	drawFastVLine(x0,y0+1,4,c,matrix);
 364:.\LED_Matrix.c **** 	drawFastVLine(x0+4,y0+1,4,c,matrix);
 2793              		.loc 1 364 0
 2794 004e 4F46     		mov	r7, r9
 363:.\LED_Matrix.c **** 	drawFastVLine(x0,y0+1,4,c,matrix);
 2795              		.loc 1 363 0
 2796 0050 6A1C     		add	r2, r5, #1
 2797 0052 53B2     		sxtb	r3, r2
 2798              		.loc 1 364 0
 2799 0054 0437     		add	r7, r7, #4
 363:.\LED_Matrix.c **** 	drawFastVLine(x0,y0+1,4,c,matrix);
 2800              		.loc 1 363 0
 2801 0056 9846     		mov	r8, r3
 2802 0058 301C     		mov	r0, r6
 2803 005a 191C     		mov	r1, r3
 2804              		.loc 1 364 0
 2805 005c 7FB2     		sxtb	r7, r7
 363:.\LED_Matrix.c **** 	drawFastVLine(x0,y0+1,4,c,matrix);
 2806              		.loc 1 363 0
 2807 005e 039B     		ldr	r3, [sp, #12]
 2808 0060 0094     		str	r4, [sp]
 2809 0062 0422     		mov	r2, #4
 365:.\LED_Matrix.c **** 	drawFastVLine(x0,y0+6,5,c,matrix);
 2810              		.loc 1 365 0
 2811 0064 0635     		add	r5, r5, #6
 363:.\LED_Matrix.c **** 	drawFastVLine(x0,y0+1,4,c,matrix);
 2812              		.loc 1 363 0
 2813 0066 FFF7FEFF 		bl	drawFastVLine
 2814              	.LVL257:
 2815              		.loc 1 365 0
 2816 006a 6DB2     		sxtb	r5, r5
 364:.\LED_Matrix.c **** 	drawFastVLine(x0+4,y0+1,4,c,matrix);
 2817              		.loc 1 364 0
 2818 006c 381C     		mov	r0, r7
 2819 006e 4146     		mov	r1, r8
 2820 0070 039B     		ldr	r3, [sp, #12]
 2821 0072 0094     		str	r4, [sp]
 2822 0074 0422     		mov	r2, #4
 2823 0076 FFF7FEFF 		bl	drawFastVLine
ARM GAS  C:\Users\Steve\AppData\Local\Temp\ccroCuoh.s 			page 62


 2824              	.LVL258:
 2825              		.loc 1 365 0
 2826 007a 301C     		mov	r0, r6
 2827 007c 291C     		mov	r1, r5
 2828 007e 039B     		ldr	r3, [sp, #12]
 2829 0080 0094     		str	r4, [sp]
 2830 0082 0522     		mov	r2, #5
 2831 0084 FFF7FEFF 		bl	drawFastVLine
 2832              	.LVL259:
 366:.\LED_Matrix.c **** 	drawFastVLine(x0+4,y0+6,5,c,matrix);
 2833              		.loc 1 366 0
 2834 0088 0094     		str	r4, [sp]
 2835 008a 381C     		mov	r0, r7
 2836 008c 291C     		mov	r1, r5
 2837 008e 0522     		mov	r2, #5
 2838 0090 039B     		ldr	r3, [sp, #12]
 2839 0092 FFF7FEFF 		bl	drawFastVLine
 2840              	.LVL260:
 367:.\LED_Matrix.c **** }
 2841              		.loc 1 367 0
 2842 0096 05B0     		add	sp, sp, #20
 2843              		@ sp needed for prologue
 2844              	.LVL261:
 2845              	.LVL262:
 2846 0098 0CBC     		pop	{r2, r3}
 2847 009a 9046     		mov	r8, r2
 2848 009c 9946     		mov	r9, r3
 2849 009e F0BD     		pop	{r4, r5, r6, r7, pc}
 2850              		.cfi_endproc
 2851              	.LFE53:
 2852              		.size	drawEight, .-drawEight
 2853              		.section	.text.drawNine,"ax",%progbits
 2854              		.align	2
 2855              		.global	drawNine
 2856              		.code	16
 2857              		.thumb_func
 2858              		.type	drawNine, %function
 2859              	drawNine:
 2860              	.LFB54:
 368:.\LED_Matrix.c **** void drawNine(int8 x0, int8 y0,RGB c, color *matrix)
 369:.\LED_Matrix.c **** {
 2861              		.loc 1 369 0
 2862              		.cfi_startproc
 2863              	.LVL263:
 2864 0000 F0B5     		push	{r4, r5, r6, r7, lr}
 2865              	.LCFI52:
 2866              		.cfi_def_cfa_offset 20
 2867              		.cfi_offset 4, -20
 2868              		.cfi_offset 5, -16
 2869              		.cfi_offset 6, -12
 2870              		.cfi_offset 7, -8
 2871              		.cfi_offset 14, -4
 2872 0002 4746     		mov	r7, r8
 2873 0004 80B4     		push	{r7}
 2874              	.LCFI53:
 2875              		.cfi_def_cfa_offset 24
 2876              		.cfi_offset 8, -24
ARM GAS  C:\Users\Steve\AppData\Local\Temp\ccroCuoh.s 			page 63


 370:.\LED_Matrix.c **** 	drawFastHLine(x0+1,y0,3,c,matrix);
 2877              		.loc 1 370 0
 2878 0006 C6B2     		uxtb	r6, r0
 369:.\LED_Matrix.c **** {
 2879              		.loc 1 369 0
 2880 0008 84B0     		sub	sp, sp, #16
 2881              	.LCFI54:
 2882              		.cfi_def_cfa_offset 40
 369:.\LED_Matrix.c **** {
 2883              		.loc 1 369 0
 2884 000a 9446     		mov	ip, r2
 2885 000c 1C1C     		mov	r4, r3
 2886 000e 0D1C     		mov	r5, r1
 2887              		.loc 1 370 0
 2888 0010 731C     		add	r3, r6, #1
 2889              	.LVL264:
 369:.\LED_Matrix.c **** {
 2890              		.loc 1 369 0
 2891 0012 071C     		mov	r7, r0
 2892 0014 0392     		str	r2, [sp, #12]
 2893              		.loc 1 370 0
 2894 0016 58B2     		sxtb	r0, r3
 2895              	.LVL265:
 2896 0018 0094     		str	r4, [sp]
 2897 001a 6346     		mov	r3, ip
 2898 001c 0322     		mov	r2, #3
 371:.\LED_Matrix.c **** 	drawFastHLine(x0+1,y0+5,3,c,matrix);
 2899              		.loc 1 371 0
 2900 001e EDB2     		uxtb	r5, r5
 370:.\LED_Matrix.c **** 	drawFastHLine(x0+1,y0,3,c,matrix);
 2901              		.loc 1 370 0
 2902 0020 8046     		mov	r8, r0
 2903 0022 FFF7FEFF 		bl	drawFastHLine
 2904              	.LVL266:
 2905              		.loc 1 371 0
 2906 0026 691D     		add	r1, r5, #5
 372:.\LED_Matrix.c **** 	drawFastVLine(x0,y0+1,4,c,matrix);
 2907              		.loc 1 372 0
 2908 0028 0135     		add	r5, r5, #1
 371:.\LED_Matrix.c **** 	drawFastHLine(x0+1,y0+5,3,c,matrix);
 2909              		.loc 1 371 0
 2910 002a 4046     		mov	r0, r8
 2911 002c 039B     		ldr	r3, [sp, #12]
 2912              		.loc 1 372 0
 2913 002e 6DB2     		sxtb	r5, r5
 371:.\LED_Matrix.c **** 	drawFastHLine(x0+1,y0+5,3,c,matrix);
 2914              		.loc 1 371 0
 2915 0030 49B2     		sxtb	r1, r1
 2916 0032 0094     		str	r4, [sp]
 2917 0034 0322     		mov	r2, #3
 2918 0036 FFF7FEFF 		bl	drawFastHLine
 2919              	.LVL267:
 373:.\LED_Matrix.c **** 	drawFastVLine(x0+4,y0+1,11,c,matrix);
 2920              		.loc 1 373 0
 2921 003a 0436     		add	r6, r6, #4
 2922              	.LVL268:
 372:.\LED_Matrix.c **** 	drawFastVLine(x0,y0+1,4,c,matrix);
ARM GAS  C:\Users\Steve\AppData\Local\Temp\ccroCuoh.s 			page 64


 2923              		.loc 1 372 0
 2924 003c 381C     		mov	r0, r7
 2925 003e 291C     		mov	r1, r5
 2926 0040 039B     		ldr	r3, [sp, #12]
 2927 0042 0094     		str	r4, [sp]
 2928 0044 0422     		mov	r2, #4
 2929 0046 FFF7FEFF 		bl	drawFastVLine
 2930              	.LVL269:
 2931              		.loc 1 373 0
 2932 004a 70B2     		sxtb	r0, r6
 2933 004c 0094     		str	r4, [sp]
 2934 004e 291C     		mov	r1, r5
 2935 0050 0B22     		mov	r2, #11
 2936 0052 039B     		ldr	r3, [sp, #12]
 2937 0054 FFF7FEFF 		bl	drawFastVLine
 2938              	.LVL270:
 374:.\LED_Matrix.c **** }
 2939              		.loc 1 374 0
 2940 0058 04B0     		add	sp, sp, #16
 2941              		@ sp needed for prologue
 2942              	.LVL271:
 2943              	.LVL272:
 2944 005a 04BC     		pop	{r2}
 2945 005c 9046     		mov	r8, r2
 2946 005e F0BD     		pop	{r4, r5, r6, r7, pc}
 2947              		.cfi_endproc
 2948              	.LFE54:
 2949              		.size	drawNine, .-drawNine
 2950              		.section	.text.drawZero,"ax",%progbits
 2951              		.align	2
 2952              		.global	drawZero
 2953              		.code	16
 2954              		.thumb_func
 2955              		.type	drawZero, %function
 2956              	drawZero:
 2957              	.LFB55:
 375:.\LED_Matrix.c **** void drawZero(int8 x0, int8 y0,RGB c, color *matrix)
 376:.\LED_Matrix.c **** {
 2958              		.loc 1 376 0
 2959              		.cfi_startproc
 2960              	.LVL273:
 2961 0000 F0B5     		push	{r4, r5, r6, r7, lr}
 2962              	.LCFI55:
 2963              		.cfi_def_cfa_offset 20
 2964              		.cfi_offset 4, -20
 2965              		.cfi_offset 5, -16
 2966              		.cfi_offset 6, -12
 2967              		.cfi_offset 7, -8
 2968              		.cfi_offset 14, -4
 2969 0002 4746     		mov	r7, r8
 2970 0004 80B4     		push	{r7}
 2971              	.LCFI56:
 2972              		.cfi_def_cfa_offset 24
 2973              		.cfi_offset 8, -24
 377:.\LED_Matrix.c **** 	drawFastHLine(x0+1,y0,3,c,matrix);
 2974              		.loc 1 377 0
 2975 0006 C6B2     		uxtb	r6, r0
ARM GAS  C:\Users\Steve\AppData\Local\Temp\ccroCuoh.s 			page 65


 376:.\LED_Matrix.c **** {
 2976              		.loc 1 376 0
 2977 0008 84B0     		sub	sp, sp, #16
 2978              	.LCFI57:
 2979              		.cfi_def_cfa_offset 40
 376:.\LED_Matrix.c **** {
 2980              		.loc 1 376 0
 2981 000a 9446     		mov	ip, r2
 2982 000c 1C1C     		mov	r4, r3
 2983 000e 0D1C     		mov	r5, r1
 2984              		.loc 1 377 0
 2985 0010 731C     		add	r3, r6, #1
 2986              	.LVL274:
 376:.\LED_Matrix.c **** {
 2987              		.loc 1 376 0
 2988 0012 071C     		mov	r7, r0
 2989 0014 0392     		str	r2, [sp, #12]
 2990              		.loc 1 377 0
 2991 0016 58B2     		sxtb	r0, r3
 2992              	.LVL275:
 2993 0018 0094     		str	r4, [sp]
 2994 001a 6346     		mov	r3, ip
 2995 001c 0322     		mov	r2, #3
 378:.\LED_Matrix.c **** 	drawFastHLine(x0+1,y0+11,3,c,matrix);
 2996              		.loc 1 378 0
 2997 001e EDB2     		uxtb	r5, r5
 377:.\LED_Matrix.c **** 	drawFastHLine(x0+1,y0,3,c,matrix);
 2998              		.loc 1 377 0
 2999 0020 8046     		mov	r8, r0
 3000 0022 FFF7FEFF 		bl	drawFastHLine
 3001              	.LVL276:
 3002              		.loc 1 378 0
 3003 0026 291C     		mov	r1, r5
 3004 0028 0B31     		add	r1, r1, #11
 379:.\LED_Matrix.c **** 	drawFastVLine(x0,y0+1,10,c,matrix);
 3005              		.loc 1 379 0
 3006 002a 0135     		add	r5, r5, #1
 378:.\LED_Matrix.c **** 	drawFastHLine(x0+1,y0+11,3,c,matrix);
 3007              		.loc 1 378 0
 3008 002c 4046     		mov	r0, r8
 3009 002e 039B     		ldr	r3, [sp, #12]
 3010              		.loc 1 379 0
 3011 0030 6DB2     		sxtb	r5, r5
 378:.\LED_Matrix.c **** 	drawFastHLine(x0+1,y0+11,3,c,matrix);
 3012              		.loc 1 378 0
 3013 0032 49B2     		sxtb	r1, r1
 3014 0034 0094     		str	r4, [sp]
 3015 0036 0322     		mov	r2, #3
 3016 0038 FFF7FEFF 		bl	drawFastHLine
 3017              	.LVL277:
 380:.\LED_Matrix.c **** 	drawFastVLine(x0+4,y0+1,10,c,matrix);
 3018              		.loc 1 380 0
 3019 003c 0436     		add	r6, r6, #4
 3020              	.LVL278:
 379:.\LED_Matrix.c **** 	drawFastVLine(x0,y0+1,10,c,matrix);
 3021              		.loc 1 379 0
 3022 003e 381C     		mov	r0, r7
ARM GAS  C:\Users\Steve\AppData\Local\Temp\ccroCuoh.s 			page 66


 3023 0040 291C     		mov	r1, r5
 3024 0042 039B     		ldr	r3, [sp, #12]
 3025 0044 0094     		str	r4, [sp]
 3026 0046 0A22     		mov	r2, #10
 3027 0048 FFF7FEFF 		bl	drawFastVLine
 3028              	.LVL279:
 3029              		.loc 1 380 0
 3030 004c 70B2     		sxtb	r0, r6
 3031 004e 0094     		str	r4, [sp]
 3032 0050 291C     		mov	r1, r5
 3033 0052 0A22     		mov	r2, #10
 3034 0054 039B     		ldr	r3, [sp, #12]
 3035 0056 FFF7FEFF 		bl	drawFastVLine
 3036              	.LVL280:
 381:.\LED_Matrix.c **** }
 3037              		.loc 1 381 0
 3038 005a 04B0     		add	sp, sp, #16
 3039              		@ sp needed for prologue
 3040              	.LVL281:
 3041              	.LVL282:
 3042 005c 04BC     		pop	{r2}
 3043 005e 9046     		mov	r8, r2
 3044 0060 F0BD     		pop	{r4, r5, r6, r7, pc}
 3045              		.cfi_endproc
 3046              	.LFE55:
 3047              		.size	drawZero, .-drawZero
 3048              		.section	.text.drawA,"ax",%progbits
 3049              		.align	2
 3050              		.global	drawA
 3051              		.code	16
 3052              		.thumb_func
 3053              		.type	drawA, %function
 3054              	drawA:
 3055              	.LFB56:
 382:.\LED_Matrix.c **** 
 383:.\LED_Matrix.c **** void drawA(int8 x0, int8 y0,RGB c, color *matrix)
 384:.\LED_Matrix.c **** {
 3056              		.loc 1 384 0
 3057              		.cfi_startproc
 3058              	.LVL283:
 3059 0000 F0B5     		push	{r4, r5, r6, r7, lr}
 3060              	.LCFI58:
 3061              		.cfi_def_cfa_offset 20
 3062              		.cfi_offset 4, -20
 3063              		.cfi_offset 5, -16
 3064              		.cfi_offset 6, -12
 3065              		.cfi_offset 7, -8
 3066              		.cfi_offset 14, -4
 3067 0002 5F46     		mov	r7, fp
 3068 0004 5646     		mov	r6, sl
 3069 0006 4D46     		mov	r5, r9
 3070 0008 4446     		mov	r4, r8
 3071 000a F0B4     		push	{r4, r5, r6, r7}
 3072              	.LCFI59:
 3073              		.cfi_def_cfa_offset 36
 3074              		.cfi_offset 8, -36
 3075              		.cfi_offset 9, -32
ARM GAS  C:\Users\Steve\AppData\Local\Temp\ccroCuoh.s 			page 67


 3076              		.cfi_offset 10, -28
 3077              		.cfi_offset 11, -24
 3078 000c 061C     		mov	r6, r0
 3079 000e 85B0     		sub	sp, sp, #20
 3080              	.LCFI60:
 3081              		.cfi_def_cfa_offset 56
 3082              		.loc 1 384 0
 3083 0010 101C     		mov	r0, r2
 3084              	.LVL284:
 3085 0012 0392     		str	r2, [sp, #12]
 3086 0014 9346     		mov	fp, r2
 3087 0016 040C     		lsr	r4, r0, #16
 385:.\LED_Matrix.c **** 	drawLine(x0+2, y0, x0+4, y0+2, c, matrix);
 3088              		.loc 1 385 0
 3089 0018 F2B2     		uxtb	r2, r6
 384:.\LED_Matrix.c **** {
 3090              		.loc 1 384 0
 3091 001a A446     		mov	ip, r4
 3092              		.loc 1 385 0
 3093 001c CDB2     		uxtb	r5, r1
 384:.\LED_Matrix.c **** {
 3094              		.loc 1 384 0
 3095 001e 1C1C     		mov	r4, r3
 3096              		.loc 1 385 0
 3097 0020 131C     		mov	r3, r2
 3098              	.LVL285:
 3099 0022 9146     		mov	r9, r2
 3100 0024 0433     		add	r3, r3, #4
 3101 0026 2A1C     		mov	r2, r5
 3102 0028 0232     		add	r2, r2, #2
 3103 002a 5BB2     		sxtb	r3, r3
 3104 002c A846     		mov	r8, r5
 3105 002e 9A46     		mov	sl, r3
 3106 0030 55B2     		sxtb	r5, r2
 3107 0032 6B46     		mov	r3, sp
 3108 0034 5A46     		mov	r2, fp
 3109 0036 4846     		mov	r0, r9
 3110 0038 1A80     		strh	r2, [r3]
 3111 003a 0230     		add	r0, r0, #2
 3112 003c 6246     		mov	r2, ip
 3113 003e 9A70     		strb	r2, [r3, #2]
 3114 0040 40B2     		sxtb	r0, r0
 3115 0042 5246     		mov	r2, sl
 3116 0044 2B1C     		mov	r3, r5
 3117 0046 0194     		str	r4, [sp, #4]
 3118 0048 FFF7FEFF 		bl	drawLine
 3119              	.LVL286:
 386:.\LED_Matrix.c **** 	drawLine(x0, y0+2, x0+1, y0+1, c, matrix);
 3120              		.loc 1 386 0
 3121 004c 4946     		mov	r1, r9
 384:.\LED_Matrix.c **** {
 3122              		.loc 1 384 0
 3123 004e 03AF     		add	r7, sp, #12
 3124              		.loc 1 386 0
 3125 0050 0131     		add	r1, r1, #1
 3126 0052 48B2     		sxtb	r0, r1
 3127 0054 3988     		ldrh	r1, [r7]
ARM GAS  C:\Users\Steve\AppData\Local\Temp\ccroCuoh.s 			page 68


 3128 0056 6A46     		mov	r2, sp
 3129 0058 1180     		strh	r1, [r2]
 3130 005a BF78     		ldrb	r7, [r7, #2]
 3131 005c 4346     		mov	r3, r8
 3132 005e 8346     		mov	fp, r0
 3133 0060 0133     		add	r3, r3, #1
 3134 0062 9770     		strb	r7, [r2, #2]
 3135 0064 301C     		mov	r0, r6
 3136 0066 291C     		mov	r1, r5
 3137 0068 5A46     		mov	r2, fp
 3138 006a 5BB2     		sxtb	r3, r3
 3139 006c 0194     		str	r4, [sp, #4]
 3140 006e FFF7FEFF 		bl	drawLine
 3141              	.LVL287:
 387:.\LED_Matrix.c **** 	drawFastHLine(x0+1,y0+7,3,c,matrix);
 3142              		.loc 1 387 0
 3143 0072 4046     		mov	r0, r8
 3144 0074 0730     		add	r0, r0, #7
 3145 0076 41B2     		sxtb	r1, r0
 3146 0078 039B     		ldr	r3, [sp, #12]
 3147 007a 5846     		mov	r0, fp
 3148 007c 0094     		str	r4, [sp]
 3149 007e 0322     		mov	r2, #3
 3150 0080 FFF7FEFF 		bl	drawFastHLine
 3151              	.LVL288:
 388:.\LED_Matrix.c **** 	drawFastVLine(x0+4,y0+2,10,c,matrix);
 3152              		.loc 1 388 0
 3153 0084 5046     		mov	r0, sl
 3154 0086 291C     		mov	r1, r5
 3155 0088 039B     		ldr	r3, [sp, #12]
 3156 008a 0094     		str	r4, [sp]
 3157 008c 0A22     		mov	r2, #10
 3158 008e FFF7FEFF 		bl	drawFastVLine
 3159              	.LVL289:
 389:.\LED_Matrix.c **** 	drawFastVLine(x0,y0+2,10,c,matrix);
 3160              		.loc 1 389 0
 3161 0092 0094     		str	r4, [sp]
 3162 0094 301C     		mov	r0, r6
 3163 0096 291C     		mov	r1, r5
 3164 0098 0A22     		mov	r2, #10
 3165 009a 039B     		ldr	r3, [sp, #12]
 3166 009c FFF7FEFF 		bl	drawFastVLine
 3167              	.LVL290:
 390:.\LED_Matrix.c **** 	
 391:.\LED_Matrix.c **** }
 3168              		.loc 1 391 0
 3169 00a0 05B0     		add	sp, sp, #20
 3170              		@ sp needed for prologue
 3171              	.LVL291:
 3172              	.LVL292:
 3173 00a2 3CBC     		pop	{r2, r3, r4, r5}
 3174 00a4 9046     		mov	r8, r2
 3175 00a6 9946     		mov	r9, r3
 3176 00a8 A246     		mov	sl, r4
 3177 00aa AB46     		mov	fp, r5
 3178 00ac F0BD     		pop	{r4, r5, r6, r7, pc}
 3179              		.cfi_endproc
ARM GAS  C:\Users\Steve\AppData\Local\Temp\ccroCuoh.s 			page 69


 3180              	.LFE56:
 3181              		.size	drawA, .-drawA
 3182 00ae C046     		.section	.text.drawB,"ax",%progbits
 3183              		.align	2
 3184              		.global	drawB
 3185              		.code	16
 3186              		.thumb_func
 3187              		.type	drawB, %function
 3188              	drawB:
 3189              	.LFB57:
 392:.\LED_Matrix.c **** 
 393:.\LED_Matrix.c **** void drawB(int8 x0, int8 y0,RGB c, color *matrix)
 394:.\LED_Matrix.c **** {
 3190              		.loc 1 394 0
 3191              		.cfi_startproc
 3192              	.LVL293:
 3193 0000 F0B5     		push	{r4, r5, r6, r7, lr}
 3194              	.LCFI61:
 3195              		.cfi_def_cfa_offset 20
 3196              		.cfi_offset 4, -20
 3197              		.cfi_offset 5, -16
 3198              		.cfi_offset 6, -12
 3199              		.cfi_offset 7, -8
 3200              		.cfi_offset 14, -4
 3201 0002 4F46     		mov	r7, r9
 3202 0004 4646     		mov	r6, r8
 3203 0006 C0B4     		push	{r6, r7}
 3204              	.LCFI62:
 3205              		.cfi_def_cfa_offset 28
 3206              		.cfi_offset 8, -28
 3207              		.cfi_offset 9, -24
 3208 0008 8146     		mov	r9, r0
 395:.\LED_Matrix.c **** 	drawFastHLine(x0+1,y0+5,3,c,matrix);
 3209              		.loc 1 395 0
 3210 000a C0B2     		uxtb	r0, r0
 3211 000c 061C     		mov	r6, r0
 3212 000e CDB2     		uxtb	r5, r1
 3213 0010 0136     		add	r6, r6, #1
 394:.\LED_Matrix.c **** {
 3214              		.loc 1 394 0
 3215 0012 85B0     		sub	sp, sp, #20
 3216              	.LCFI63:
 3217              		.cfi_def_cfa_offset 48
 394:.\LED_Matrix.c **** {
 3218              		.loc 1 394 0
 3219 0014 9446     		mov	ip, r2
 3220 0016 1C1C     		mov	r4, r3
 3221 0018 0F1C     		mov	r7, r1
 3222              		.loc 1 395 0
 3223 001a 76B2     		sxtb	r6, r6
 3224 001c 691D     		add	r1, r5, #5
 3225              	.LVL294:
 3226 001e 6346     		mov	r3, ip
 3227              	.LVL295:
 394:.\LED_Matrix.c **** {
 3228              		.loc 1 394 0
 3229 0020 0392     		str	r2, [sp, #12]
ARM GAS  C:\Users\Steve\AppData\Local\Temp\ccroCuoh.s 			page 70


 3230              		.loc 1 395 0
 3231 0022 8046     		mov	r8, r0
 3232 0024 49B2     		sxtb	r1, r1
 3233 0026 301C     		mov	r0, r6
 3234              	.LVL296:
 3235 0028 0094     		str	r4, [sp]
 3236 002a 0322     		mov	r2, #3
 3237 002c FFF7FEFF 		bl	drawFastHLine
 3238              	.LVL297:
 396:.\LED_Matrix.c **** 	drawFastVLine(x0,y0,12,c,matrix);
 3239              		.loc 1 396 0
 3240 0030 4846     		mov	r0, r9
 3241 0032 391C     		mov	r1, r7
 3242 0034 039B     		ldr	r3, [sp, #12]
 3243 0036 0094     		str	r4, [sp]
 3244 0038 0C22     		mov	r2, #12
 3245 003a FFF7FEFF 		bl	drawFastVLine
 3246              	.LVL298:
 397:.\LED_Matrix.c **** 	drawFastVLine(x0+4,y0+1,4,c,matrix);
 3247              		.loc 1 397 0
 3248 003e 4246     		mov	r2, r8
 3249 0040 0432     		add	r2, r2, #4
 3250 0042 53B2     		sxtb	r3, r2
 3251 0044 681C     		add	r0, r5, #1
 3252 0046 9946     		mov	r9, r3
 3253 0048 41B2     		sxtb	r1, r0
 3254 004a 0094     		str	r4, [sp]
 3255 004c 181C     		mov	r0, r3
 3256 004e 0422     		mov	r2, #4
 3257 0050 039B     		ldr	r3, [sp, #12]
 3258 0052 FFF7FEFF 		bl	drawFastVLine
 3259              	.LVL299:
 398:.\LED_Matrix.c **** 	drawFastVLine(x0+4,y0+6,5,c,matrix);
 3260              		.loc 1 398 0
 3261 0056 A91D     		add	r1, r5, #6
 3262 0058 4846     		mov	r0, r9
 3263 005a 039B     		ldr	r3, [sp, #12]
 3264 005c 49B2     		sxtb	r1, r1
 3265 005e 0094     		str	r4, [sp]
 3266 0060 0522     		mov	r2, #5
 3267 0062 FFF7FEFF 		bl	drawFastVLine
 3268              	.LVL300:
 399:.\LED_Matrix.c **** 	drawFastHLine(x0+1,y0,3,c,matrix);
 400:.\LED_Matrix.c **** 	drawFastHLine(x0+1,y0+11,3,c,matrix);
 3269              		.loc 1 400 0
 3270 0066 0B35     		add	r5, r5, #11
 3271              	.LVL301:
 399:.\LED_Matrix.c **** 	drawFastHLine(x0+1,y0,3,c,matrix);
 3272              		.loc 1 399 0
 3273 0068 301C     		mov	r0, r6
 3274 006a 391C     		mov	r1, r7
 3275 006c 039B     		ldr	r3, [sp, #12]
 3276 006e 0094     		str	r4, [sp]
 3277 0070 0322     		mov	r2, #3
 3278 0072 FFF7FEFF 		bl	drawFastHLine
 3279              	.LVL302:
 3280              		.loc 1 400 0
ARM GAS  C:\Users\Steve\AppData\Local\Temp\ccroCuoh.s 			page 71


 3281 0076 69B2     		sxtb	r1, r5
 3282 0078 0094     		str	r4, [sp]
 3283 007a 301C     		mov	r0, r6
 3284 007c 0322     		mov	r2, #3
 3285 007e 039B     		ldr	r3, [sp, #12]
 3286 0080 FFF7FEFF 		bl	drawFastHLine
 3287              	.LVL303:
 401:.\LED_Matrix.c **** }
 3288              		.loc 1 401 0
 3289 0084 05B0     		add	sp, sp, #20
 3290              		@ sp needed for prologue
 3291              	.LVL304:
 3292              	.LVL305:
 3293              	.LVL306:
 3294 0086 0CBC     		pop	{r2, r3}
 3295 0088 9046     		mov	r8, r2
 3296 008a 9946     		mov	r9, r3
 3297 008c F0BD     		pop	{r4, r5, r6, r7, pc}
 3298              		.cfi_endproc
 3299              	.LFE57:
 3300              		.size	drawB, .-drawB
 3301 008e C046     		.section	.text.drawC,"ax",%progbits
 3302              		.align	2
 3303              		.global	drawC
 3304              		.code	16
 3305              		.thumb_func
 3306              		.type	drawC, %function
 3307              	drawC:
 3308              	.LFB58:
 402:.\LED_Matrix.c **** 
 403:.\LED_Matrix.c **** void drawC(int8 x0, int8 y0,RGB c, color *matrix)
 404:.\LED_Matrix.c **** {
 3309              		.loc 1 404 0
 3310              		.cfi_startproc
 3311              	.LVL307:
 3312 0000 F0B5     		push	{r4, r5, r6, r7, lr}
 3313              	.LCFI64:
 3314              		.cfi_def_cfa_offset 20
 3315              		.cfi_offset 4, -20
 3316              		.cfi_offset 5, -16
 3317              		.cfi_offset 6, -12
 3318              		.cfi_offset 7, -8
 3319              		.cfi_offset 14, -4
 3320 0002 4746     		mov	r7, r8
 3321 0004 80B4     		push	{r7}
 3322              	.LCFI65:
 3323              		.cfi_def_cfa_offset 24
 3324              		.cfi_offset 8, -24
 405:.\LED_Matrix.c **** 	drawFastVLine(x0,y0+2,8,c,matrix);
 3325              		.loc 1 405 0
 3326 0006 CDB2     		uxtb	r5, r1
 404:.\LED_Matrix.c **** {
 3327              		.loc 1 404 0
 3328 0008 84B0     		sub	sp, sp, #16
 3329              	.LCFI66:
 3330              		.cfi_def_cfa_offset 40
 404:.\LED_Matrix.c **** {
ARM GAS  C:\Users\Steve\AppData\Local\Temp\ccroCuoh.s 			page 72


 3331              		.loc 1 404 0
 3332 000a 1C1C     		mov	r4, r3
 3333 000c 061C     		mov	r6, r0
 3334 000e 8846     		mov	r8, r1
 3335 0010 171C     		mov	r7, r2
 3336              		.loc 1 405 0
 3337 0012 A91C     		add	r1, r5, #2
 3338              	.LVL308:
 404:.\LED_Matrix.c **** {
 3339              		.loc 1 404 0
 3340 0014 0392     		str	r2, [sp, #12]
 3341              		.loc 1 405 0
 3342 0016 3B1C     		mov	r3, r7
 3343              	.LVL309:
 3344 0018 49B2     		sxtb	r1, r1
 3345 001a 0094     		str	r4, [sp]
 3346 001c 0822     		mov	r2, #8
 406:.\LED_Matrix.c **** 	drawFastHLine(x0+2,y0,3,c,matrix);
 3347              		.loc 1 406 0
 3348 001e F6B2     		uxtb	r6, r6
 405:.\LED_Matrix.c **** 	drawFastVLine(x0,y0+2,8,c,matrix);
 3349              		.loc 1 405 0
 3350 0020 FFF7FEFF 		bl	drawFastVLine
 3351              	.LVL310:
 3352              		.loc 1 406 0
 3353 0024 B01C     		add	r0, r6, #2
 3354 0026 47B2     		sxtb	r7, r0
 3355 0028 381C     		mov	r0, r7
 3356 002a 4146     		mov	r1, r8
 3357 002c 039B     		ldr	r3, [sp, #12]
 3358 002e 0094     		str	r4, [sp]
 3359 0030 0322     		mov	r2, #3
 3360 0032 FFF7FEFF 		bl	drawFastHLine
 3361              	.LVL311:
 407:.\LED_Matrix.c **** 	drawFastHLine(x0+2,y0+11,3,c,matrix);
 3362              		.loc 1 407 0
 3363 0036 2A1C     		mov	r2, r5
 3364 0038 0B32     		add	r2, r2, #11
 3365 003a 51B2     		sxtb	r1, r2
 3366 003c 381C     		mov	r0, r7
 3367 003e 039B     		ldr	r3, [sp, #12]
 3368 0040 0094     		str	r4, [sp]
 3369 0042 0322     		mov	r2, #3
 408:.\LED_Matrix.c **** 	//drawPixel(x0+4,y0+1,c,matrix);
 409:.\LED_Matrix.c **** 	//drawPixel(x0+4,y0+10,c,matrix);
 410:.\LED_Matrix.c **** 	drawPixel(x0+1,y0+1,c,matrix);
 3370              		.loc 1 410 0
 3371 0044 0136     		add	r6, r6, #1
 407:.\LED_Matrix.c **** 	drawFastHLine(x0+2,y0+11,3,c,matrix);
 3372              		.loc 1 407 0
 3373 0046 FFF7FEFF 		bl	drawFastHLine
 3374              	.LVL312:
 3375              		.loc 1 410 0
 3376 004a 76B2     		sxtb	r6, r6
 3377 004c 6B1C     		add	r3, r5, #1
 3378 004e 59B2     		sxtb	r1, r3
 3379 0050 301C     		mov	r0, r6
ARM GAS  C:\Users\Steve\AppData\Local\Temp\ccroCuoh.s 			page 73


 3380 0052 039A     		ldr	r2, [sp, #12]
 3381 0054 231C     		mov	r3, r4
 411:.\LED_Matrix.c **** 	drawPixel(x0+1,y0+10,c,matrix);
 3382              		.loc 1 411 0
 3383 0056 0A35     		add	r5, r5, #10
 3384              	.LVL313:
 410:.\LED_Matrix.c **** 	drawPixel(x0+1,y0+1,c,matrix);
 3385              		.loc 1 410 0
 3386 0058 FFF7FEFF 		bl	drawPixel
 3387              	.LVL314:
 3388              		.loc 1 411 0
 3389 005c 69B2     		sxtb	r1, r5
 3390 005e 301C     		mov	r0, r6
 3391 0060 039A     		ldr	r2, [sp, #12]
 3392 0062 231C     		mov	r3, r4
 3393 0064 FFF7FEFF 		bl	drawPixel
 3394              	.LVL315:
 412:.\LED_Matrix.c **** }
 3395              		.loc 1 412 0
 3396 0068 04B0     		add	sp, sp, #16
 3397              		@ sp needed for prologue
 3398              	.LVL316:
 3399              	.LVL317:
 3400 006a 04BC     		pop	{r2}
 3401 006c 9046     		mov	r8, r2
 3402 006e F0BD     		pop	{r4, r5, r6, r7, pc}
 3403              		.cfi_endproc
 3404              	.LFE58:
 3405              		.size	drawC, .-drawC
 3406              		.section	.text.drawD,"ax",%progbits
 3407              		.align	2
 3408              		.global	drawD
 3409              		.code	16
 3410              		.thumb_func
 3411              		.type	drawD, %function
 3412              	drawD:
 3413              	.LFB59:
 413:.\LED_Matrix.c **** 
 414:.\LED_Matrix.c **** void drawD(int8 x0, int8 y0,RGB c, color *matrix)
 415:.\LED_Matrix.c **** {
 3414              		.loc 1 415 0
 3415              		.cfi_startproc
 3416              	.LVL318:
 3417 0000 F0B5     		push	{r4, r5, r6, r7, lr}
 3418              	.LCFI67:
 3419              		.cfi_def_cfa_offset 20
 3420              		.cfi_offset 4, -20
 3421              		.cfi_offset 5, -16
 3422              		.cfi_offset 6, -12
 3423              		.cfi_offset 7, -8
 3424              		.cfi_offset 14, -4
 3425 0002 4746     		mov	r7, r8
 3426 0004 80B4     		push	{r7}
 3427              	.LCFI68:
 3428              		.cfi_def_cfa_offset 24
 3429              		.cfi_offset 8, -24
 416:.\LED_Matrix.c **** 	drawFastHLine(x0+1,y0,3,c,matrix);
ARM GAS  C:\Users\Steve\AppData\Local\Temp\ccroCuoh.s 			page 74


 3430              		.loc 1 416 0
 3431 0006 C6B2     		uxtb	r6, r0
 3432 0008 771C     		add	r7, r6, #1
 415:.\LED_Matrix.c **** {
 3433              		.loc 1 415 0
 3434 000a 84B0     		sub	sp, sp, #16
 3435              	.LCFI69:
 3436              		.cfi_def_cfa_offset 40
 415:.\LED_Matrix.c **** {
 3437              		.loc 1 415 0
 3438 000c 9446     		mov	ip, r2
 3439 000e 1C1C     		mov	r4, r3
 3440              		.loc 1 416 0
 3441 0010 7FB2     		sxtb	r7, r7
 3442 0012 6346     		mov	r3, ip
 3443              	.LVL319:
 415:.\LED_Matrix.c **** {
 3444              		.loc 1 415 0
 3445 0014 8046     		mov	r8, r0
 3446 0016 0D1C     		mov	r5, r1
 3447 0018 0392     		str	r2, [sp, #12]
 3448              		.loc 1 416 0
 3449 001a 381C     		mov	r0, r7
 3450              	.LVL320:
 3451 001c 0094     		str	r4, [sp]
 3452 001e 0322     		mov	r2, #3
 3453 0020 FFF7FEFF 		bl	drawFastHLine
 3454              	.LVL321:
 417:.\LED_Matrix.c **** 	drawFastVLine(x0,y0,12,c,matrix);
 3455              		.loc 1 417 0
 3456 0024 4046     		mov	r0, r8
 3457 0026 291C     		mov	r1, r5
 3458 0028 039B     		ldr	r3, [sp, #12]
 3459 002a 0094     		str	r4, [sp]
 3460 002c 0C22     		mov	r2, #12
 418:.\LED_Matrix.c **** 	drawFastHLine(x0+1,y0+11,3,c,matrix);
 3461              		.loc 1 418 0
 3462 002e EDB2     		uxtb	r5, r5
 417:.\LED_Matrix.c **** 	drawFastVLine(x0,y0,12,c,matrix);
 3463              		.loc 1 417 0
 3464 0030 FFF7FEFF 		bl	drawFastVLine
 3465              	.LVL322:
 3466              		.loc 1 418 0
 3467 0034 291C     		mov	r1, r5
 3468 0036 0B31     		add	r1, r1, #11
 3469 0038 381C     		mov	r0, r7
 3470 003a 039B     		ldr	r3, [sp, #12]
 3471 003c 49B2     		sxtb	r1, r1
 3472 003e 0094     		str	r4, [sp]
 3473 0040 0322     		mov	r2, #3
 419:.\LED_Matrix.c **** 	drawFastVLine(x0+4,y0+1,10,c,matrix);
 3474              		.loc 1 419 0
 3475 0042 0436     		add	r6, r6, #4
 3476              	.LVL323:
 3477 0044 0135     		add	r5, r5, #1
 418:.\LED_Matrix.c **** 	drawFastHLine(x0+1,y0+11,3,c,matrix);
 3478              		.loc 1 418 0
ARM GAS  C:\Users\Steve\AppData\Local\Temp\ccroCuoh.s 			page 75


 3479 0046 FFF7FEFF 		bl	drawFastHLine
 3480              	.LVL324:
 3481              		.loc 1 419 0
 3482 004a 70B2     		sxtb	r0, r6
 3483 004c 69B2     		sxtb	r1, r5
 3484 004e 0094     		str	r4, [sp]
 3485 0050 0A22     		mov	r2, #10
 3486 0052 039B     		ldr	r3, [sp, #12]
 3487 0054 FFF7FEFF 		bl	drawFastVLine
 3488              	.LVL325:
 420:.\LED_Matrix.c **** 	
 421:.\LED_Matrix.c **** }
 3489              		.loc 1 421 0
 3490 0058 04B0     		add	sp, sp, #16
 3491              		@ sp needed for prologue
 3492              	.LVL326:
 3493              	.LVL327:
 3494 005a 04BC     		pop	{r2}
 3495 005c 9046     		mov	r8, r2
 3496 005e F0BD     		pop	{r4, r5, r6, r7, pc}
 3497              		.cfi_endproc
 3498              	.LFE59:
 3499              		.size	drawD, .-drawD
 3500              		.section	.text.drawE,"ax",%progbits
 3501              		.align	2
 3502              		.global	drawE
 3503              		.code	16
 3504              		.thumb_func
 3505              		.type	drawE, %function
 3506              	drawE:
 3507              	.LFB60:
 422:.\LED_Matrix.c **** 
 423:.\LED_Matrix.c **** void drawE(int8 x0, int8 y0,RGB c, color *matrix)
 424:.\LED_Matrix.c **** {
 3508              		.loc 1 424 0
 3509              		.cfi_startproc
 3510              	.LVL328:
 3511 0000 F0B5     		push	{r4, r5, r6, r7, lr}
 3512              	.LCFI70:
 3513              		.cfi_def_cfa_offset 20
 3514              		.cfi_offset 4, -20
 3515              		.cfi_offset 5, -16
 3516              		.cfi_offset 6, -12
 3517              		.cfi_offset 7, -8
 3518              		.cfi_offset 14, -4
 425:.\LED_Matrix.c **** 	drawFastHLine(x0+1,y0,4,c,matrix);
 3519              		.loc 1 425 0
 3520 0002 451C     		add	r5, r0, #1
 424:.\LED_Matrix.c **** {
 3521              		.loc 1 424 0
 3522 0004 85B0     		sub	sp, sp, #20
 3523              	.LCFI71:
 3524              		.cfi_def_cfa_offset 40
 424:.\LED_Matrix.c **** {
 3525              		.loc 1 424 0
 3526 0006 9446     		mov	ip, r2
 3527              		.loc 1 425 0
ARM GAS  C:\Users\Steve\AppData\Local\Temp\ccroCuoh.s 			page 76


 3528 0008 6DB2     		sxtb	r5, r5
 424:.\LED_Matrix.c **** {
 3529              		.loc 1 424 0
 3530 000a 1C1C     		mov	r4, r3
 3531 000c 0E1C     		mov	r6, r1
 3532 000e 071C     		mov	r7, r0
 3533 0010 0392     		str	r2, [sp, #12]
 3534              		.loc 1 425 0
 3535 0012 0093     		str	r3, [sp]
 3536 0014 281C     		mov	r0, r5
 3537              	.LVL329:
 3538 0016 6346     		mov	r3, ip
 3539              	.LVL330:
 3540 0018 0422     		mov	r2, #4
 3541 001a FFF7FEFF 		bl	drawFastHLine
 3542              	.LVL331:
 426:.\LED_Matrix.c **** 	drawFastVLine(x0,y0,12,c,matrix);
 3543              		.loc 1 426 0
 3544 001e 381C     		mov	r0, r7
 3545 0020 311C     		mov	r1, r6
 3546 0022 039B     		ldr	r3, [sp, #12]
 427:.\LED_Matrix.c **** 	drawFastHLine(x0+1,y0+11,4,c,matrix);
 3547              		.loc 1 427 0
 3548 0024 F7B2     		uxtb	r7, r6
 426:.\LED_Matrix.c **** 	drawFastVLine(x0,y0,12,c,matrix);
 3549              		.loc 1 426 0
 3550 0026 0094     		str	r4, [sp]
 3551 0028 0C22     		mov	r2, #12
 3552 002a FFF7FEFF 		bl	drawFastVLine
 3553              	.LVL332:
 3554              		.loc 1 427 0
 3555 002e 391C     		mov	r1, r7
 3556 0030 0B31     		add	r1, r1, #11
 3557 0032 281C     		mov	r0, r5
 3558 0034 039B     		ldr	r3, [sp, #12]
 3559 0036 49B2     		sxtb	r1, r1
 3560 0038 0094     		str	r4, [sp]
 3561 003a 0422     		mov	r2, #4
 428:.\LED_Matrix.c **** 	drawFastHLine(x0+1,y0+5,4,c,matrix);
 3562              		.loc 1 428 0
 3563 003c 0537     		add	r7, r7, #5
 427:.\LED_Matrix.c **** 	drawFastHLine(x0+1,y0+11,4,c,matrix);
 3564              		.loc 1 427 0
 3565 003e FFF7FEFF 		bl	drawFastHLine
 3566              	.LVL333:
 3567              		.loc 1 428 0
 3568 0042 79B2     		sxtb	r1, r7
 3569 0044 0094     		str	r4, [sp]
 3570 0046 281C     		mov	r0, r5
 3571 0048 0422     		mov	r2, #4
 3572 004a 039B     		ldr	r3, [sp, #12]
 3573 004c FFF7FEFF 		bl	drawFastHLine
 3574              	.LVL334:
 429:.\LED_Matrix.c **** }
 3575              		.loc 1 429 0
 3576 0050 05B0     		add	sp, sp, #20
 3577              		@ sp needed for prologue
ARM GAS  C:\Users\Steve\AppData\Local\Temp\ccroCuoh.s 			page 77


 3578              	.LVL335:
 3579 0052 F0BD     		pop	{r4, r5, r6, r7, pc}
 3580              		.cfi_endproc
 3581              	.LFE60:
 3582              		.size	drawE, .-drawE
 3583              		.section	.text.drawF,"ax",%progbits
 3584              		.align	2
 3585              		.global	drawF
 3586              		.code	16
 3587              		.thumb_func
 3588              		.type	drawF, %function
 3589              	drawF:
 3590              	.LFB61:
 430:.\LED_Matrix.c **** 
 431:.\LED_Matrix.c **** void drawF(int8 x0, int8 y0,RGB c, color *matrix)
 432:.\LED_Matrix.c **** {
 3591              		.loc 1 432 0
 3592              		.cfi_startproc
 3593              	.LVL336:
 3594 0000 F0B5     		push	{r4, r5, r6, r7, lr}
 3595              	.LCFI72:
 3596              		.cfi_def_cfa_offset 20
 3597              		.cfi_offset 4, -20
 3598              		.cfi_offset 5, -16
 3599              		.cfi_offset 6, -12
 3600              		.cfi_offset 7, -8
 3601              		.cfi_offset 14, -4
 433:.\LED_Matrix.c **** 	drawFastHLine(x0+1,y0,4,c,matrix);
 3602              		.loc 1 433 0
 3603 0002 461C     		add	r6, r0, #1
 432:.\LED_Matrix.c **** {
 3604              		.loc 1 432 0
 3605 0004 85B0     		sub	sp, sp, #20
 3606              	.LCFI73:
 3607              		.cfi_def_cfa_offset 40
 432:.\LED_Matrix.c **** {
 3608              		.loc 1 432 0
 3609 0006 9446     		mov	ip, r2
 3610              		.loc 1 433 0
 3611 0008 76B2     		sxtb	r6, r6
 432:.\LED_Matrix.c **** {
 3612              		.loc 1 432 0
 3613 000a 1C1C     		mov	r4, r3
 3614 000c 071C     		mov	r7, r0
 3615 000e 0D1C     		mov	r5, r1
 3616 0010 0392     		str	r2, [sp, #12]
 3617              		.loc 1 433 0
 3618 0012 0093     		str	r3, [sp]
 3619 0014 301C     		mov	r0, r6
 3620              	.LVL337:
 3621 0016 6346     		mov	r3, ip
 3622              	.LVL338:
 3623 0018 0422     		mov	r2, #4
 3624 001a FFF7FEFF 		bl	drawFastHLine
 3625              	.LVL339:
 434:.\LED_Matrix.c **** 	drawFastVLine(x0,y0,12,c,matrix);
 3626              		.loc 1 434 0
ARM GAS  C:\Users\Steve\AppData\Local\Temp\ccroCuoh.s 			page 78


 3627 001e 381C     		mov	r0, r7
 3628 0020 291C     		mov	r1, r5
 3629 0022 039B     		ldr	r3, [sp, #12]
 3630 0024 0094     		str	r4, [sp]
 3631 0026 0C22     		mov	r2, #12
 435:.\LED_Matrix.c **** 	drawFastHLine(x0+1,y0+5,4,c,matrix);
 3632              		.loc 1 435 0
 3633 0028 0535     		add	r5, r5, #5
 434:.\LED_Matrix.c **** 	drawFastVLine(x0,y0,12,c,matrix);
 3634              		.loc 1 434 0
 3635 002a FFF7FEFF 		bl	drawFastVLine
 3636              	.LVL340:
 3637              		.loc 1 435 0
 3638 002e 69B2     		sxtb	r1, r5
 3639 0030 0094     		str	r4, [sp]
 3640 0032 301C     		mov	r0, r6
 3641 0034 0422     		mov	r2, #4
 3642 0036 039B     		ldr	r3, [sp, #12]
 3643 0038 FFF7FEFF 		bl	drawFastHLine
 3644              	.LVL341:
 436:.\LED_Matrix.c **** }
 3645              		.loc 1 436 0
 3646 003c 05B0     		add	sp, sp, #20
 3647              		@ sp needed for prologue
 3648              	.LVL342:
 3649 003e F0BD     		pop	{r4, r5, r6, r7, pc}
 3650              		.cfi_endproc
 3651              	.LFE61:
 3652              		.size	drawF, .-drawF
 3653              		.section	.text.drawHex,"ax",%progbits
 3654              		.align	2
 3655              		.global	drawHex
 3656              		.code	16
 3657              		.thumb_func
 3658              		.type	drawHex, %function
 3659              	drawHex:
 3660              	.LFB64:
 437:.\LED_Matrix.c **** 
 438:.\LED_Matrix.c **** void printHexString(uint16 num,int8 x0, int8 y0,RGB c, color *matrix)
 439:.\LED_Matrix.c **** {
 440:.\LED_Matrix.c **** 	uint8 tokens[4]={0,0,0,0};	
 441:.\LED_Matrix.c **** 	tokens[3] = 0x000F & num;
 442:.\LED_Matrix.c **** 	tokens[2] = 0x000F & num>>4;
 443:.\LED_Matrix.c **** 	tokens[1] = 0x000F & num>>8;
 444:.\LED_Matrix.c **** 	tokens[0] = 0x000F & num>>12;
 445:.\LED_Matrix.c **** 	
 446:.\LED_Matrix.c **** 	drawHex(tokens[0],3, 2,c, matrix);
 447:.\LED_Matrix.c **** 	drawHex(tokens[1],9, 2,c, matrix);
 448:.\LED_Matrix.c **** 	drawHex(tokens[2],15, 2,c, matrix);
 449:.\LED_Matrix.c **** 	drawHex(tokens[3],21, 2,c, matrix);
 450:.\LED_Matrix.c **** }
 451:.\LED_Matrix.c **** 
 452:.\LED_Matrix.c **** void printTime(uint8 hours,uint8 min,RGB c, color *matrix)
 453:.\LED_Matrix.c **** {
 454:.\LED_Matrix.c **** 	uint8 tHour = hours >>4;
 455:.\LED_Matrix.c **** 	if(tHour > 0)
 456:.\LED_Matrix.c **** 	{
ARM GAS  C:\Users\Steve\AppData\Local\Temp\ccroCuoh.s 			page 79


 457:.\LED_Matrix.c **** 		drawHex(hours>>4,3, 2,c, matrix);
 458:.\LED_Matrix.c **** 	}
 459:.\LED_Matrix.c **** 	drawHex(hours,9, 2,c, matrix);
 460:.\LED_Matrix.c **** 	drawColon(15, 2,c, matrix);
 461:.\LED_Matrix.c **** 	drawHex(min>>4,17, 2,c, matrix);
 462:.\LED_Matrix.c **** 	drawHex(min,23, 2,c, matrix);
 463:.\LED_Matrix.c **** }
 464:.\LED_Matrix.c **** 
 465:.\LED_Matrix.c **** void drawHex(uint8 num,int8 x0, int8 y0,RGB c, color *matrix)
 466:.\LED_Matrix.c **** {
 3661              		.loc 1 466 0
 3662              		.cfi_startproc
 3663              	.LVL343:
 3664 0000 00B5     		push	{lr}
 3665              	.LCFI74:
 3666              		.cfi_def_cfa_offset 4
 3667              		.cfi_offset 14, -4
 3668 0002 83B0     		sub	sp, sp, #12
 3669              	.LCFI75:
 3670              		.cfi_def_cfa_offset 16
 3671              		.loc 1 466 0
 3672 0004 0193     		str	r3, [sp, #4]
 467:.\LED_Matrix.c **** 	switch (num & 0x0F) 
 3673              		.loc 1 467 0
 3674 0006 0F23     		mov	r3, #15
 3675 0008 0340     		and	r3, r0
 3676 000a 0F2B     		cmp	r3, #15
 3677 000c 07D9     		bls	.L137
 3678              	.LVL344:
 3679              	.L119:
 468:.\LED_Matrix.c **** 	{
 469:.\LED_Matrix.c **** 		case 0x1:
 470:.\LED_Matrix.c **** 		  drawOne(x0,y0,c,matrix);
 471:.\LED_Matrix.c **** 		  break;
 472:.\LED_Matrix.c **** 		case 0x2:
 473:.\LED_Matrix.c **** 		  drawTwo(x0,y0,c,matrix);
 474:.\LED_Matrix.c **** 		  break;
 475:.\LED_Matrix.c **** 		case 0x3:
 476:.\LED_Matrix.c **** 		  drawThree(x0,y0,c,matrix);
 477:.\LED_Matrix.c **** 		  break;
 478:.\LED_Matrix.c **** 		case 0x4:
 479:.\LED_Matrix.c **** 		  drawFour(x0,y0,c,matrix);
 480:.\LED_Matrix.c **** 		  break;
 481:.\LED_Matrix.c **** 		case 0x5:
 482:.\LED_Matrix.c **** 		  drawFive(x0,y0,c,matrix);
 483:.\LED_Matrix.c **** 		  break;
 484:.\LED_Matrix.c **** 		case 0x6:
 485:.\LED_Matrix.c **** 		  drawSix(x0,y0,c,matrix);
 486:.\LED_Matrix.c **** 		  break;
 487:.\LED_Matrix.c **** 		case 0x7:
 488:.\LED_Matrix.c **** 		  drawSeven(x0,y0,c,matrix);
 489:.\LED_Matrix.c **** 		  break;
 490:.\LED_Matrix.c **** 		case 0x8:
 491:.\LED_Matrix.c **** 		  drawEight(x0,y0,c,matrix);
 492:.\LED_Matrix.c **** 		  break;
 493:.\LED_Matrix.c **** 		case 0x9:
 494:.\LED_Matrix.c **** 		  drawNine(x0,y0,c,matrix);
ARM GAS  C:\Users\Steve\AppData\Local\Temp\ccroCuoh.s 			page 80


 495:.\LED_Matrix.c **** 		  break;
 496:.\LED_Matrix.c **** 		case 0xA:
 497:.\LED_Matrix.c **** 		  drawA(x0,y0,c,matrix);
 498:.\LED_Matrix.c **** 		  break;
 499:.\LED_Matrix.c **** 		case 0xB:
 500:.\LED_Matrix.c **** 		  drawB(x0,y0,c,matrix);
 501:.\LED_Matrix.c **** 		  break;
 502:.\LED_Matrix.c **** 		case 0xC:
 503:.\LED_Matrix.c **** 		  drawC(x0,y0,c,matrix);
 504:.\LED_Matrix.c **** 		  break;
 505:.\LED_Matrix.c **** 		case 0xD:
 506:.\LED_Matrix.c **** 		  drawD(x0,y0,c,matrix);
 507:.\LED_Matrix.c **** 		  break;
 508:.\LED_Matrix.c **** 		case 0xE:
 509:.\LED_Matrix.c **** 		  drawE(x0,y0,c,matrix);
 510:.\LED_Matrix.c **** 		  break;
 511:.\LED_Matrix.c **** 		case 0xF:
 512:.\LED_Matrix.c **** 		  drawF(x0,y0,c,matrix);
 513:.\LED_Matrix.c **** 		  break;
 514:.\LED_Matrix.c **** 		default:
 515:.\LED_Matrix.c **** 		  drawZero(x0,y0,c,matrix);
 3680              		.loc 1 515 0
 3681 000e 081C     		mov	r0, r1
 3682 0010 049B     		ldr	r3, [sp, #16]
 3683 0012 111C     		mov	r1, r2
 3684              	.LVL345:
 3685 0014 019A     		ldr	r2, [sp, #4]
 3686              	.LVL346:
 3687 0016 FFF7FEFF 		bl	drawZero
 3688              	.LVL347:
 3689              	.L118:
 516:.\LED_Matrix.c **** 		  break;
 517:.\LED_Matrix.c **** 	}	
 518:.\LED_Matrix.c **** }
 3690              		.loc 1 518 0
 3691 001a 03B0     		add	sp, sp, #12
 3692              		@ sp needed for prologue
 3693 001c 00BD     		pop	{pc}
 3694              	.LVL348:
 3695              	.L137:
 467:.\LED_Matrix.c **** 	switch (num & 0x0F) 
 3696              		.loc 1 467 0
 3697 001e 3648     		ldr	r0, .L138
 3698              	.LVL349:
 3699 0020 9B00     		lsl	r3, r3, #2
 3700 0022 C358     		ldr	r3, [r0, r3]
 3701 0024 9F46     		mov	pc, r3
 3702              		.section	.rodata
 3703              		.align	2
 3704              	.L135:
 3705 0000 0E000000 		.word	.L119
 3706 0004 34000000 		.word	.L120
 3707 0008 42000000 		.word	.L121
 3708 000c 50000000 		.word	.L122
 3709 0010 5E000000 		.word	.L123
 3710 0014 6C000000 		.word	.L124
 3711 0018 7A000000 		.word	.L125
ARM GAS  C:\Users\Steve\AppData\Local\Temp\ccroCuoh.s 			page 81


 3712 001c 88000000 		.word	.L126
 3713 0020 96000000 		.word	.L127
 3714 0024 A4000000 		.word	.L128
 3715 0028 B2000000 		.word	.L129
 3716 002c C0000000 		.word	.L130
 3717 0030 CE000000 		.word	.L131
 3718 0034 DC000000 		.word	.L132
 3719 0038 EA000000 		.word	.L133
 3720 003c 26000000 		.word	.L134
 3721              		.section	.text.drawHex
 3722              	.L134:
 512:.\LED_Matrix.c **** 		  drawF(x0,y0,c,matrix);
 3723              		.loc 1 512 0
 3724 0026 081C     		mov	r0, r1
 3725 0028 049B     		ldr	r3, [sp, #16]
 3726 002a 111C     		mov	r1, r2
 3727              	.LVL350:
 3728 002c 019A     		ldr	r2, [sp, #4]
 3729              	.LVL351:
 3730 002e FFF7FEFF 		bl	drawF
 3731              	.LVL352:
 513:.\LED_Matrix.c **** 		  break;
 3732              		.loc 1 513 0
 3733 0032 F2E7     		b	.L118
 3734              	.LVL353:
 3735              	.L120:
 470:.\LED_Matrix.c **** 		  drawOne(x0,y0,c,matrix);
 3736              		.loc 1 470 0
 3737 0034 081C     		mov	r0, r1
 3738 0036 049B     		ldr	r3, [sp, #16]
 3739 0038 111C     		mov	r1, r2
 3740              	.LVL354:
 3741 003a 019A     		ldr	r2, [sp, #4]
 3742              	.LVL355:
 3743 003c FFF7FEFF 		bl	drawOne
 3744              	.LVL356:
 471:.\LED_Matrix.c **** 		  break;
 3745              		.loc 1 471 0
 3746 0040 EBE7     		b	.L118
 3747              	.LVL357:
 3748              	.L121:
 473:.\LED_Matrix.c **** 		  drawTwo(x0,y0,c,matrix);
 3749              		.loc 1 473 0
 3750 0042 081C     		mov	r0, r1
 3751 0044 049B     		ldr	r3, [sp, #16]
 3752 0046 111C     		mov	r1, r2
 3753              	.LVL358:
 3754 0048 019A     		ldr	r2, [sp, #4]
 3755              	.LVL359:
 3756 004a FFF7FEFF 		bl	drawTwo
 3757              	.LVL360:
 474:.\LED_Matrix.c **** 		  break;
 3758              		.loc 1 474 0
 3759 004e E4E7     		b	.L118
 3760              	.LVL361:
 3761              	.L122:
 476:.\LED_Matrix.c **** 		  drawThree(x0,y0,c,matrix);
ARM GAS  C:\Users\Steve\AppData\Local\Temp\ccroCuoh.s 			page 82


 3762              		.loc 1 476 0
 3763 0050 081C     		mov	r0, r1
 3764 0052 049B     		ldr	r3, [sp, #16]
 3765 0054 111C     		mov	r1, r2
 3766              	.LVL362:
 3767 0056 019A     		ldr	r2, [sp, #4]
 3768              	.LVL363:
 3769 0058 FFF7FEFF 		bl	drawThree
 3770              	.LVL364:
 477:.\LED_Matrix.c **** 		  break;
 3771              		.loc 1 477 0
 3772 005c DDE7     		b	.L118
 3773              	.LVL365:
 3774              	.L123:
 479:.\LED_Matrix.c **** 		  drawFour(x0,y0,c,matrix);
 3775              		.loc 1 479 0
 3776 005e 081C     		mov	r0, r1
 3777 0060 049B     		ldr	r3, [sp, #16]
 3778 0062 111C     		mov	r1, r2
 3779              	.LVL366:
 3780 0064 019A     		ldr	r2, [sp, #4]
 3781              	.LVL367:
 3782 0066 FFF7FEFF 		bl	drawFour
 3783              	.LVL368:
 480:.\LED_Matrix.c **** 		  break;
 3784              		.loc 1 480 0
 3785 006a D6E7     		b	.L118
 3786              	.LVL369:
 3787              	.L124:
 482:.\LED_Matrix.c **** 		  drawFive(x0,y0,c,matrix);
 3788              		.loc 1 482 0
 3789 006c 081C     		mov	r0, r1
 3790 006e 049B     		ldr	r3, [sp, #16]
 3791 0070 111C     		mov	r1, r2
 3792              	.LVL370:
 3793 0072 019A     		ldr	r2, [sp, #4]
 3794              	.LVL371:
 3795 0074 FFF7FEFF 		bl	drawFive
 3796              	.LVL372:
 483:.\LED_Matrix.c **** 		  break;
 3797              		.loc 1 483 0
 3798 0078 CFE7     		b	.L118
 3799              	.LVL373:
 3800              	.L125:
 485:.\LED_Matrix.c **** 		  drawSix(x0,y0,c,matrix);
 3801              		.loc 1 485 0
 3802 007a 081C     		mov	r0, r1
 3803 007c 049B     		ldr	r3, [sp, #16]
 3804 007e 111C     		mov	r1, r2
 3805              	.LVL374:
 3806 0080 019A     		ldr	r2, [sp, #4]
 3807              	.LVL375:
 3808 0082 FFF7FEFF 		bl	drawSix
 3809              	.LVL376:
 486:.\LED_Matrix.c **** 		  break;
 3810              		.loc 1 486 0
 3811 0086 C8E7     		b	.L118
ARM GAS  C:\Users\Steve\AppData\Local\Temp\ccroCuoh.s 			page 83


 3812              	.LVL377:
 3813              	.L126:
 488:.\LED_Matrix.c **** 		  drawSeven(x0,y0,c,matrix);
 3814              		.loc 1 488 0
 3815 0088 081C     		mov	r0, r1
 3816 008a 049B     		ldr	r3, [sp, #16]
 3817 008c 111C     		mov	r1, r2
 3818              	.LVL378:
 3819 008e 019A     		ldr	r2, [sp, #4]
 3820              	.LVL379:
 3821 0090 FFF7FEFF 		bl	drawSeven
 3822              	.LVL380:
 489:.\LED_Matrix.c **** 		  break;
 3823              		.loc 1 489 0
 3824 0094 C1E7     		b	.L118
 3825              	.LVL381:
 3826              	.L127:
 491:.\LED_Matrix.c **** 		  drawEight(x0,y0,c,matrix);
 3827              		.loc 1 491 0
 3828 0096 081C     		mov	r0, r1
 3829 0098 049B     		ldr	r3, [sp, #16]
 3830 009a 111C     		mov	r1, r2
 3831              	.LVL382:
 3832 009c 019A     		ldr	r2, [sp, #4]
 3833              	.LVL383:
 3834 009e FFF7FEFF 		bl	drawEight
 3835              	.LVL384:
 492:.\LED_Matrix.c **** 		  break;
 3836              		.loc 1 492 0
 3837 00a2 BAE7     		b	.L118
 3838              	.LVL385:
 3839              	.L128:
 494:.\LED_Matrix.c **** 		  drawNine(x0,y0,c,matrix);
 3840              		.loc 1 494 0
 3841 00a4 081C     		mov	r0, r1
 3842 00a6 049B     		ldr	r3, [sp, #16]
 3843 00a8 111C     		mov	r1, r2
 3844              	.LVL386:
 3845 00aa 019A     		ldr	r2, [sp, #4]
 3846              	.LVL387:
 3847 00ac FFF7FEFF 		bl	drawNine
 3848              	.LVL388:
 495:.\LED_Matrix.c **** 		  break;
 3849              		.loc 1 495 0
 3850 00b0 B3E7     		b	.L118
 3851              	.LVL389:
 3852              	.L129:
 497:.\LED_Matrix.c **** 		  drawA(x0,y0,c,matrix);
 3853              		.loc 1 497 0
 3854 00b2 081C     		mov	r0, r1
 3855 00b4 049B     		ldr	r3, [sp, #16]
 3856 00b6 111C     		mov	r1, r2
 3857              	.LVL390:
 3858 00b8 019A     		ldr	r2, [sp, #4]
 3859              	.LVL391:
 3860 00ba FFF7FEFF 		bl	drawA
 3861              	.LVL392:
ARM GAS  C:\Users\Steve\AppData\Local\Temp\ccroCuoh.s 			page 84


 498:.\LED_Matrix.c **** 		  break;
 3862              		.loc 1 498 0
 3863 00be ACE7     		b	.L118
 3864              	.LVL393:
 3865              	.L130:
 500:.\LED_Matrix.c **** 		  drawB(x0,y0,c,matrix);
 3866              		.loc 1 500 0
 3867 00c0 081C     		mov	r0, r1
 3868 00c2 049B     		ldr	r3, [sp, #16]
 3869 00c4 111C     		mov	r1, r2
 3870              	.LVL394:
 3871 00c6 019A     		ldr	r2, [sp, #4]
 3872              	.LVL395:
 3873 00c8 FFF7FEFF 		bl	drawB
 3874              	.LVL396:
 501:.\LED_Matrix.c **** 		  break;
 3875              		.loc 1 501 0
 3876 00cc A5E7     		b	.L118
 3877              	.LVL397:
 3878              	.L131:
 503:.\LED_Matrix.c **** 		  drawC(x0,y0,c,matrix);
 3879              		.loc 1 503 0
 3880 00ce 081C     		mov	r0, r1
 3881 00d0 049B     		ldr	r3, [sp, #16]
 3882 00d2 111C     		mov	r1, r2
 3883              	.LVL398:
 3884 00d4 019A     		ldr	r2, [sp, #4]
 3885              	.LVL399:
 3886 00d6 FFF7FEFF 		bl	drawC
 3887              	.LVL400:
 504:.\LED_Matrix.c **** 		  break;
 3888              		.loc 1 504 0
 3889 00da 9EE7     		b	.L118
 3890              	.LVL401:
 3891              	.L132:
 506:.\LED_Matrix.c **** 		  drawD(x0,y0,c,matrix);
 3892              		.loc 1 506 0
 3893 00dc 081C     		mov	r0, r1
 3894 00de 049B     		ldr	r3, [sp, #16]
 3895 00e0 111C     		mov	r1, r2
 3896              	.LVL402:
 3897 00e2 019A     		ldr	r2, [sp, #4]
 3898              	.LVL403:
 3899 00e4 FFF7FEFF 		bl	drawD
 3900              	.LVL404:
 507:.\LED_Matrix.c **** 		  break;
 3901              		.loc 1 507 0
 3902 00e8 97E7     		b	.L118
 3903              	.LVL405:
 3904              	.L133:
 509:.\LED_Matrix.c **** 		  drawE(x0,y0,c,matrix);
 3905              		.loc 1 509 0
 3906 00ea 081C     		mov	r0, r1
 3907 00ec 049B     		ldr	r3, [sp, #16]
 3908 00ee 111C     		mov	r1, r2
 3909              	.LVL406:
 3910 00f0 019A     		ldr	r2, [sp, #4]
ARM GAS  C:\Users\Steve\AppData\Local\Temp\ccroCuoh.s 			page 85


 3911              	.LVL407:
 3912 00f2 FFF7FEFF 		bl	drawE
 3913              	.LVL408:
 510:.\LED_Matrix.c **** 		  break;
 3914              		.loc 1 510 0
 3915 00f6 90E7     		b	.L118
 3916              	.L139:
 3917              		.align	2
 3918              	.L138:
 3919 00f8 00000000 		.word	.L135
 3920              		.cfi_endproc
 3921              	.LFE64:
 3922              		.size	drawHex, .-drawHex
 3923              		.section	.text.printTime,"ax",%progbits
 3924              		.align	2
 3925              		.global	printTime
 3926              		.code	16
 3927              		.thumb_func
 3928              		.type	printTime, %function
 3929              	printTime:
 3930              	.LFB63:
 453:.\LED_Matrix.c **** {
 3931              		.loc 1 453 0
 3932              		.cfi_startproc
 3933              	.LVL409:
 3934 0000 70B5     		push	{r4, r5, r6, lr}
 3935              	.LCFI76:
 3936              		.cfi_def_cfa_offset 16
 3937              		.cfi_offset 4, -16
 3938              		.cfi_offset 5, -12
 3939              		.cfi_offset 6, -8
 3940              		.cfi_offset 14, -4
 3941 0002 84B0     		sub	sp, sp, #16
 3942              	.LCFI77:
 3943              		.cfi_def_cfa_offset 32
 453:.\LED_Matrix.c **** {
 3944              		.loc 1 453 0
 3945 0004 061C     		mov	r6, r0
 3946 0006 0D1C     		mov	r5, r1
 3947 0008 0392     		str	r2, [sp, #12]
 3948 000a 1C1C     		mov	r4, r3
 454:.\LED_Matrix.c **** 	uint8 tHour = hours >>4;
 3949              		.loc 1 454 0
 3950 000c 0009     		lsr	r0, r0, #4
 3951              	.LVL410:
 455:.\LED_Matrix.c **** 	if(tHour > 0)
 3952              		.loc 1 455 0
 3953 000e 05D0     		beq	.L141
 457:.\LED_Matrix.c **** 		drawHex(hours>>4,3, 2,c, matrix);
 3954              		.loc 1 457 0
 3955 0010 0093     		str	r3, [sp]
 3956 0012 0321     		mov	r1, #3
 3957              	.LVL411:
 3958 0014 0222     		mov	r2, #2
 3959 0016 039B     		ldr	r3, [sp, #12]
 3960              	.LVL412:
 3961 0018 FFF7FEFF 		bl	drawHex
ARM GAS  C:\Users\Steve\AppData\Local\Temp\ccroCuoh.s 			page 86


 3962              	.LVL413:
 3963              	.L141:
 459:.\LED_Matrix.c **** 	drawHex(hours,9, 2,c, matrix);
 3964              		.loc 1 459 0
 3965 001c 301C     		mov	r0, r6
 3966 001e 039B     		ldr	r3, [sp, #12]
 3967 0020 0094     		str	r4, [sp]
 3968 0022 0921     		mov	r1, #9
 3969 0024 0222     		mov	r2, #2
 3970 0026 FFF7FEFF 		bl	drawHex
 3971              	.LVL414:
 460:.\LED_Matrix.c **** 	drawColon(15, 2,c, matrix);
 3972              		.loc 1 460 0
 3973 002a 039A     		ldr	r2, [sp, #12]
 3974 002c 231C     		mov	r3, r4
 3975 002e 0F20     		mov	r0, #15
 3976 0030 0221     		mov	r1, #2
 3977 0032 FFF7FEFF 		bl	drawColon
 3978              	.LVL415:
 461:.\LED_Matrix.c **** 	drawHex(min>>4,17, 2,c, matrix);
 3979              		.loc 1 461 0
 3980 0036 2809     		lsr	r0, r5, #4
 3981 0038 039B     		ldr	r3, [sp, #12]
 3982 003a 0094     		str	r4, [sp]
 3983 003c 1121     		mov	r1, #17
 3984 003e 0222     		mov	r2, #2
 3985 0040 FFF7FEFF 		bl	drawHex
 3986              	.LVL416:
 462:.\LED_Matrix.c **** 	drawHex(min,23, 2,c, matrix);
 3987              		.loc 1 462 0
 3988 0044 0094     		str	r4, [sp]
 3989 0046 281C     		mov	r0, r5
 3990 0048 1721     		mov	r1, #23
 3991 004a 0222     		mov	r2, #2
 3992 004c 039B     		ldr	r3, [sp, #12]
 3993 004e FFF7FEFF 		bl	drawHex
 3994              	.LVL417:
 463:.\LED_Matrix.c **** }
 3995              		.loc 1 463 0
 3996 0052 04B0     		add	sp, sp, #16
 3997              		@ sp needed for prologue
 3998              	.LVL418:
 3999              	.LVL419:
 4000 0054 70BD     		pop	{r4, r5, r6, pc}
 4001              		.cfi_endproc
 4002              	.LFE63:
 4003              		.size	printTime, .-printTime
 4004 0056 C046     		.section	.text.printHexString,"ax",%progbits
 4005              		.align	2
 4006              		.global	printHexString
 4007              		.code	16
 4008              		.thumb_func
 4009              		.type	printHexString, %function
 4010              	printHexString:
 4011              	.LFB62:
 439:.\LED_Matrix.c **** {
 4012              		.loc 1 439 0
ARM GAS  C:\Users\Steve\AppData\Local\Temp\ccroCuoh.s 			page 87


 4013              		.cfi_startproc
 4014              	.LVL420:
 4015 0000 70B5     		push	{r4, r5, r6, lr}
 4016              	.LCFI78:
 4017              		.cfi_def_cfa_offset 16
 4018              		.cfi_offset 4, -16
 4019              		.cfi_offset 5, -12
 4020              		.cfi_offset 6, -8
 4021              		.cfi_offset 14, -4
 4022 0002 84B0     		sub	sp, sp, #16
 4023              	.LCFI79:
 4024              		.cfi_def_cfa_offset 32
 439:.\LED_Matrix.c **** {
 4025              		.loc 1 439 0
 4026 0004 089C     		ldr	r4, [sp, #32]
 4027 0006 051C     		mov	r5, r0
 446:.\LED_Matrix.c **** 	drawHex(tokens[0],3, 2,c, matrix);
 4028              		.loc 1 446 0
 4029 0008 0094     		str	r4, [sp]
 4030 000a 000B     		lsr	r0, r0, #12
 4031              	.LVL421:
 4032 000c 0321     		mov	r1, #3
 4033              	.LVL422:
 4034 000e 0222     		mov	r2, #2
 4035              	.LVL423:
 443:.\LED_Matrix.c **** 	tokens[1] = 0x000F & num>>8;
 4036              		.loc 1 443 0
 4037 0010 0F26     		mov	r6, #15
 439:.\LED_Matrix.c **** {
 4038              		.loc 1 439 0
 4039 0012 0393     		str	r3, [sp, #12]
 446:.\LED_Matrix.c **** 	drawHex(tokens[0],3, 2,c, matrix);
 4040              		.loc 1 446 0
 4041 0014 FFF7FEFF 		bl	drawHex
 4042              	.LVL424:
 443:.\LED_Matrix.c **** 	tokens[1] = 0x000F & num>>8;
 4043              		.loc 1 443 0
 4044 0018 280A     		lsr	r0, r5, #8
 447:.\LED_Matrix.c **** 	drawHex(tokens[1],9, 2,c, matrix);
 4045              		.loc 1 447 0
 4046 001a 3040     		and	r0, r6
 4047 001c 039B     		ldr	r3, [sp, #12]
 4048 001e 0094     		str	r4, [sp]
 4049 0020 0921     		mov	r1, #9
 4050 0022 0222     		mov	r2, #2
 4051 0024 FFF7FEFF 		bl	drawHex
 4052              	.LVL425:
 442:.\LED_Matrix.c **** 	tokens[2] = 0x000F & num>>4;
 4053              		.loc 1 442 0
 4054 0028 2809     		lsr	r0, r5, #4
 448:.\LED_Matrix.c **** 	drawHex(tokens[2],15, 2,c, matrix);
 4055              		.loc 1 448 0
 4056 002a 3040     		and	r0, r6
 4057 002c 039B     		ldr	r3, [sp, #12]
 4058 002e 0094     		str	r4, [sp]
 4059 0030 0F21     		mov	r1, #15
 4060 0032 0222     		mov	r2, #2
ARM GAS  C:\Users\Steve\AppData\Local\Temp\ccroCuoh.s 			page 88


 4061 0034 FFF7FEFF 		bl	drawHex
 4062              	.LVL426:
 449:.\LED_Matrix.c **** 	drawHex(tokens[3],21, 2,c, matrix);
 4063              		.loc 1 449 0
 4064 0038 301C     		mov	r0, r6
 4065 003a 2840     		and	r0, r5
 4066 003c 0094     		str	r4, [sp]
 4067 003e 1521     		mov	r1, #21
 4068 0040 0222     		mov	r2, #2
 4069 0042 039B     		ldr	r3, [sp, #12]
 4070 0044 FFF7FEFF 		bl	drawHex
 4071              	.LVL427:
 450:.\LED_Matrix.c **** }
 4072              		.loc 1 450 0
 4073 0048 04B0     		add	sp, sp, #16
 4074              		@ sp needed for prologue
 4075              	.LVL428:
 4076 004a 70BD     		pop	{r4, r5, r6, pc}
 4077              		.cfi_endproc
 4078              	.LFE62:
 4079              		.size	printHexString, .-printHexString
 4080              		.section	.text.drawblock,"ax",%progbits
 4081              		.align	2
 4082              		.global	drawblock
 4083              		.code	16
 4084              		.thumb_func
 4085              		.type	drawblock, %function
 4086              	drawblock:
 4087              	.LFB65:
 519:.\LED_Matrix.c **** 
 520:.\LED_Matrix.c **** void drawblock(int8 blockLoc, int8 h, RGB c, color *matrix)
 521:.\LED_Matrix.c **** {
 4088              		.loc 1 521 0
 4089              		.cfi_startproc
 4090              	.LVL429:
 4091 0000 F0B5     		push	{r4, r5, r6, r7, lr}
 4092              	.LCFI80:
 4093              		.cfi_def_cfa_offset 20
 4094              		.cfi_offset 4, -20
 4095              		.cfi_offset 5, -16
 4096              		.cfi_offset 6, -12
 4097              		.cfi_offset 7, -8
 4098              		.cfi_offset 14, -4
 4099 0002 4646     		mov	r6, r8
 4100 0004 4F46     		mov	r7, r9
 4101 0006 C0B4     		push	{r6, r7}
 4102              	.LCFI81:
 4103              		.cfi_def_cfa_offset 28
 4104              		.cfi_offset 8, -28
 4105              		.cfi_offset 9, -24
 4106 0008 8600     		lsl	r6, r0, #2
 4107 000a 87B0     		sub	sp, sp, #28
 4108              	.LCFI82:
 4109              		.cfi_def_cfa_offset 56
 4110              		.loc 1 521 0
 4111 000c 0392     		str	r2, [sp, #12]
 4112 000e 1C1C     		mov	r4, r3
ARM GAS  C:\Users\Steve\AppData\Local\Temp\ccroCuoh.s 			page 89


 522:.\LED_Matrix.c **** 	int i = 0;
 523:.\LED_Matrix.c **** 	RGB black;
 524:.\LED_Matrix.c **** 	black.r = 0;
 4113              		.loc 1 524 0
 4114 0010 0022     		mov	r2, #0
 4115 0012 05AB     		add	r3, sp, #20
 4116              	.LVL430:
 4117 0014 70B2     		sxtb	r0, r6
 4118              	.LVL431:
 521:.\LED_Matrix.c **** {
 4119              		.loc 1 521 0
 4120 0016 0D1C     		mov	r5, r1
 4121              		.loc 1 524 0
 4122 0018 1A70     		strb	r2, [r3]
 525:.\LED_Matrix.c **** 	black.g = 0;
 4123              		.loc 1 525 0
 4124 001a 5A70     		strb	r2, [r3, #1]
 526:.\LED_Matrix.c **** 	black.b = 0;
 4125              		.loc 1 526 0
 4126 001c 9A70     		strb	r2, [r3, #2]
 4127 001e 0028     		cmp	r0, #0
 4128 0020 4DDB     		blt	.L153
 4129              	.L147:
 4130 0022 1C28     		cmp	r0, #28
 4131 0024 00DD     		ble	.L148
 4132 0026 1C26     		mov	r6, #28
 4133              	.L148:
 4134 0028 71B2     		sxtb	r1, r6
 4135              	.LVL432:
 4136 002a F6B2     		uxtb	r6, r6
 527:.\LED_Matrix.c **** 	blockLoc = blockLoc*4;
 528:.\LED_Matrix.c **** 	int8 maxHeight = 15;
 529:.\LED_Matrix.c **** 	if(blockLoc>28)
 530:.\LED_Matrix.c **** 	{
 531:.\LED_Matrix.c **** 		blockLoc=28;
 532:.\LED_Matrix.c **** 	}
 533:.\LED_Matrix.c **** 	else if(blockLoc<0)
 534:.\LED_Matrix.c **** 	{
 535:.\LED_Matrix.c **** 		blockLoc=0;
 536:.\LED_Matrix.c **** 	}
 537:.\LED_Matrix.c **** 	for(i=0;i<4;i++)
 538:.\LED_Matrix.c **** 	{
 539:.\LED_Matrix.c **** 		drawFastVLine(blockLoc+i, 0,h, c, matrix);
 4137              		.loc 1 539 0
 4138 002c 081C     		mov	r0, r1
 4139 002e 771C     		add	r7, r6, #1
 4140 0030 2A1C     		mov	r2, r5
 4141 0032 039B     		ldr	r3, [sp, #12]
 4142 0034 8846     		mov	r8, r1
 4143              	.LVL433:
 4144 0036 0094     		str	r4, [sp]
 4145 0038 0021     		mov	r1, #0
 4146 003a FFF7FEFF 		bl	drawFastVLine
 4147              	.LVL434:
 4148 003e 7BB2     		sxtb	r3, r7
 4149 0040 181C     		mov	r0, r3
 4150 0042 0021     		mov	r1, #0
ARM GAS  C:\Users\Steve\AppData\Local\Temp\ccroCuoh.s 			page 90


 4151 0044 2A1C     		mov	r2, r5
 4152 0046 9946     		mov	r9, r3
 4153 0048 0094     		str	r4, [sp]
 4154 004a 039B     		ldr	r3, [sp, #12]
 4155 004c FFF7FEFF 		bl	drawFastVLine
 4156              	.LVL435:
 4157 0050 B21C     		add	r2, r6, #2
 4158 0052 57B2     		sxtb	r7, r2
 4159 0054 0336     		add	r6, r6, #3
 4160 0056 381C     		mov	r0, r7
 4161 0058 0021     		mov	r1, #0
 4162 005a 2A1C     		mov	r2, r5
 4163 005c 039B     		ldr	r3, [sp, #12]
 4164 005e 0094     		str	r4, [sp]
 4165 0060 76B2     		sxtb	r6, r6
 4166 0062 FFF7FEFF 		bl	drawFastVLine
 4167              	.LVL436:
 4168 0066 0094     		str	r4, [sp]
 4169 0068 301C     		mov	r0, r6
 4170 006a 0021     		mov	r1, #0
 4171 006c 2A1C     		mov	r2, r5
 4172 006e 039B     		ldr	r3, [sp, #12]
 4173 0070 FFF7FEFF 		bl	drawFastVLine
 4174              	.LVL437:
 540:.\LED_Matrix.c **** 	}
 541:.\LED_Matrix.c **** 	
 542:.\LED_Matrix.c **** 	for(i=0;i<4;i++)
 543:.\LED_Matrix.c **** 	{
 544:.\LED_Matrix.c **** 		if(h != maxHeight)
 4175              		.loc 1 544 0
 4176 0074 0F2D     		cmp	r5, #15
 4177 0076 1DD0     		beq	.L146
 545:.\LED_Matrix.c **** 		{
 546:.\LED_Matrix.c **** 			drawFastVLine(blockLoc+i, h+1,maxHeight, black, matrix);
 4178              		.loc 1 546 0
 4179 0078 0135     		add	r5, r5, #1
 4180 007a 6DB2     		sxtb	r5, r5
 4181 007c 4046     		mov	r0, r8
 4182 007e 291C     		mov	r1, r5
 4183 0080 0F22     		mov	r2, #15
 4184 0082 059B     		ldr	r3, [sp, #20]
 4185 0084 0094     		str	r4, [sp]
 4186 0086 FFF7FEFF 		bl	drawFastVLine
 4187              	.LVL438:
 4188 008a 4846     		mov	r0, r9
 4189 008c 291C     		mov	r1, r5
 4190 008e 0F22     		mov	r2, #15
 4191 0090 059B     		ldr	r3, [sp, #20]
 4192 0092 0094     		str	r4, [sp]
 4193 0094 FFF7FEFF 		bl	drawFastVLine
 4194              	.LVL439:
 4195 0098 381C     		mov	r0, r7
 4196 009a 291C     		mov	r1, r5
 4197 009c 0F22     		mov	r2, #15
 4198 009e 059B     		ldr	r3, [sp, #20]
 4199 00a0 0094     		str	r4, [sp]
 4200 00a2 FFF7FEFF 		bl	drawFastVLine
ARM GAS  C:\Users\Steve\AppData\Local\Temp\ccroCuoh.s 			page 91


 4201              	.LVL440:
 4202 00a6 0094     		str	r4, [sp]
 4203 00a8 301C     		mov	r0, r6
 4204 00aa 291C     		mov	r1, r5
 4205 00ac 0F22     		mov	r2, #15
 4206 00ae 059B     		ldr	r3, [sp, #20]
 4207 00b0 FFF7FEFF 		bl	drawFastVLine
 4208              	.LVL441:
 4209              	.L146:
 547:.\LED_Matrix.c **** 		}
 548:.\LED_Matrix.c **** 	}
 549:.\LED_Matrix.c **** 	
 550:.\LED_Matrix.c **** }
 4210              		.loc 1 550 0
 4211 00b4 07B0     		add	sp, sp, #28
 4212              		@ sp needed for prologue
 4213              	.LVL442:
 4214 00b6 0CBC     		pop	{r2, r3}
 4215 00b8 9046     		mov	r8, r2
 4216 00ba 9946     		mov	r9, r3
 4217 00bc F0BD     		pop	{r4, r5, r6, r7, pc}
 4218              	.LVL443:
 4219              	.L153:
 4220 00be 0026     		mov	r6, #0
 4221 00c0 0020     		mov	r0, #0
 4222 00c2 AEE7     		b	.L147
 4223              		.cfi_endproc
 4224              	.LFE65:
 4225              		.size	drawblock, .-drawblock
 4226              		.section	.text.ifDataChange,"ax",%progbits
 4227              		.align	2
 4228              		.global	ifDataChange
 4229              		.code	16
 4230              		.thumb_func
 4231              		.type	ifDataChange, %function
 4232              	ifDataChange:
 4233              	.LFB66:
 551:.\LED_Matrix.c **** 
 552:.\LED_Matrix.c **** int ifDataChange(uint8 *oldResult,uint16 *result)
 553:.\LED_Matrix.c **** {
 4234              		.loc 1 553 0
 4235              		.cfi_startproc
 4236              	.LVL444:
 4237 0000 00B5     		push	{lr}
 4238              	.LCFI83:
 4239              		.cfi_def_cfa_offset 4
 4240              		.cfi_offset 14, -4
 554:.\LED_Matrix.c **** 	int i;
 555:.\LED_Matrix.c **** 	uint8 temp = 0;
 556:.\LED_Matrix.c **** 	for(i=0;i<8;i++)
 557:.\LED_Matrix.c **** 	{
 558:.\LED_Matrix.c **** 		temp = ((uint8)(result[i]>>7));
 4241              		.loc 1 558 0
 4242 0002 0B88     		ldrh	r3, [r1]
 559:.\LED_Matrix.c **** 		if(oldResult[i] != temp)
 4243              		.loc 1 559 0
 4244 0004 0278     		ldrb	r2, [r0]
ARM GAS  C:\Users\Steve\AppData\Local\Temp\ccroCuoh.s 			page 92


 558:.\LED_Matrix.c **** 		temp = ((uint8)(result[i]>>7));
 4245              		.loc 1 558 0
 4246 0006 DB09     		lsr	r3, r3, #7
 4247              		.loc 1 559 0
 4248 0008 DBB2     		uxtb	r3, r3
 4249 000a 9A42     		cmp	r2, r3
 4250 000c 2BD1     		bne	.L162
 4251              	.LVL445:
 558:.\LED_Matrix.c **** 		temp = ((uint8)(result[i]>>7));
 4252              		.loc 1 558 0
 4253 000e 4A88     		ldrh	r2, [r1, #2]
 4254 0010 D309     		lsr	r3, r2, #7
 4255              		.loc 1 559 0
 4256 0012 4278     		ldrb	r2, [r0, #1]
 4257 0014 DBB2     		uxtb	r3, r3
 4258 0016 9A42     		cmp	r2, r3
 4259 0018 25D1     		bne	.L162
 4260              	.LVL446:
 558:.\LED_Matrix.c **** 		temp = ((uint8)(result[i]>>7));
 4261              		.loc 1 558 0
 4262 001a 8A88     		ldrh	r2, [r1, #4]
 4263 001c D309     		lsr	r3, r2, #7
 4264              		.loc 1 559 0
 4265 001e 8278     		ldrb	r2, [r0, #2]
 4266 0020 DBB2     		uxtb	r3, r3
 4267 0022 9A42     		cmp	r2, r3
 4268 0024 1FD1     		bne	.L162
 4269              	.LVL447:
 558:.\LED_Matrix.c **** 		temp = ((uint8)(result[i]>>7));
 4270              		.loc 1 558 0
 4271 0026 CA88     		ldrh	r2, [r1, #6]
 4272 0028 D309     		lsr	r3, r2, #7
 4273              		.loc 1 559 0
 4274 002a C278     		ldrb	r2, [r0, #3]
 4275 002c DBB2     		uxtb	r3, r3
 4276 002e 9A42     		cmp	r2, r3
 4277 0030 19D1     		bne	.L162
 4278              	.LVL448:
 558:.\LED_Matrix.c **** 		temp = ((uint8)(result[i]>>7));
 4279              		.loc 1 558 0
 4280 0032 0A89     		ldrh	r2, [r1, #8]
 4281 0034 D309     		lsr	r3, r2, #7
 4282              		.loc 1 559 0
 4283 0036 0279     		ldrb	r2, [r0, #4]
 4284 0038 DBB2     		uxtb	r3, r3
 4285 003a 9A42     		cmp	r2, r3
 4286 003c 13D1     		bne	.L162
 4287              	.LVL449:
 558:.\LED_Matrix.c **** 		temp = ((uint8)(result[i]>>7));
 4288              		.loc 1 558 0
 4289 003e 4A89     		ldrh	r2, [r1, #10]
 4290 0040 D309     		lsr	r3, r2, #7
 4291              		.loc 1 559 0
 4292 0042 4279     		ldrb	r2, [r0, #5]
 4293 0044 DBB2     		uxtb	r3, r3
 4294 0046 9A42     		cmp	r2, r3
 4295 0048 0DD1     		bne	.L162
ARM GAS  C:\Users\Steve\AppData\Local\Temp\ccroCuoh.s 			page 93


 4296              	.LVL450:
 558:.\LED_Matrix.c **** 		temp = ((uint8)(result[i]>>7));
 4297              		.loc 1 558 0
 4298 004a 8A89     		ldrh	r2, [r1, #12]
 4299 004c D309     		lsr	r3, r2, #7
 4300              		.loc 1 559 0
 4301 004e 8279     		ldrb	r2, [r0, #6]
 4302 0050 DBB2     		uxtb	r3, r3
 4303 0052 9A42     		cmp	r2, r3
 4304 0054 07D1     		bne	.L162
 4305              	.LVL451:
 558:.\LED_Matrix.c **** 		temp = ((uint8)(result[i]>>7));
 4306              		.loc 1 558 0
 4307 0056 C989     		ldrh	r1, [r1, #14]
 4308              	.LVL452:
 4309              		.loc 1 559 0
 4310 0058 C079     		ldrb	r0, [r0, #7]
 4311              	.LVL453:
 558:.\LED_Matrix.c **** 		temp = ((uint8)(result[i]>>7));
 4312              		.loc 1 558 0
 4313 005a CA09     		lsr	r2, r1, #7
 4314              		.loc 1 559 0
 4315 005c D1B2     		uxtb	r1, r2
 4316 005e 081A     		sub	r0, r1, r0
 560:.\LED_Matrix.c **** 		{
 561:.\LED_Matrix.c **** 			return 1;
 4317              		.loc 1 561 0
 4318 0060 431E     		sub	r3, r0, #1
 4319 0062 9841     		sbc	r0, r0, r3
 4320              	.LVL454:
 4321              	.L155:
 562:.\LED_Matrix.c **** 		}
 563:.\LED_Matrix.c **** 	}
 564:.\LED_Matrix.c **** 	return 0;
 565:.\LED_Matrix.c **** }
 4322              		.loc 1 565 0
 4323              		@ sp needed for prologue
 4324 0064 00BD     		pop	{pc}
 4325              	.LVL455:
 4326              	.L162:
 561:.\LED_Matrix.c **** 			return 1;
 4327              		.loc 1 561 0
 4328 0066 0120     		mov	r0, #1
 4329              	.LVL456:
 4330 0068 FCE7     		b	.L155
 4331              		.cfi_endproc
 4332              	.LFE66:
 4333              		.size	ifDataChange, .-ifDataChange
 4334 006a C046     		.section	.text.anyDataDecrease,"ax",%progbits
 4335              		.align	2
 4336              		.global	anyDataDecrease
 4337              		.code	16
 4338              		.thumb_func
 4339              		.type	anyDataDecrease, %function
 4340              	anyDataDecrease:
 4341              	.LFB67:
 566:.\LED_Matrix.c **** 
ARM GAS  C:\Users\Steve\AppData\Local\Temp\ccroCuoh.s 			page 94


 567:.\LED_Matrix.c **** int anyDataDecrease(uint8 *oldResult,uint16 *result)
 568:.\LED_Matrix.c **** {
 4342              		.loc 1 568 0
 4343              		.cfi_startproc
 4344              	.LVL457:
 4345 0000 00B5     		push	{lr}
 4346              	.LCFI84:
 4347              		.cfi_def_cfa_offset 4
 4348              		.cfi_offset 14, -4
 569:.\LED_Matrix.c **** 	int i;
 570:.\LED_Matrix.c **** 	uint8 temp = 0;
 571:.\LED_Matrix.c **** 	for(i=0;i<8;i++)
 572:.\LED_Matrix.c **** 	{
 573:.\LED_Matrix.c **** 		temp = ((uint8)(result[i]>>7));
 4349              		.loc 1 573 0
 4350 0002 0A88     		ldrh	r2, [r1]
 4351 0004 D309     		lsr	r3, r2, #7
 574:.\LED_Matrix.c **** 		if(oldResult[i] > temp)
 4352              		.loc 1 574 0
 4353 0006 DAB2     		uxtb	r2, r3
 4354 0008 0378     		ldrb	r3, [r0]
 4355 000a 9A42     		cmp	r2, r3
 4356 000c 2BD3     		bcc	.L171
 4357              	.LVL458:
 573:.\LED_Matrix.c **** 		temp = ((uint8)(result[i]>>7));
 4358              		.loc 1 573 0
 4359 000e 4A88     		ldrh	r2, [r1, #2]
 4360 0010 D309     		lsr	r3, r2, #7
 4361              		.loc 1 574 0
 4362 0012 DAB2     		uxtb	r2, r3
 4363 0014 4378     		ldrb	r3, [r0, #1]
 4364 0016 9A42     		cmp	r2, r3
 4365 0018 25D3     		bcc	.L171
 4366              	.LVL459:
 573:.\LED_Matrix.c **** 		temp = ((uint8)(result[i]>>7));
 4367              		.loc 1 573 0
 4368 001a 8A88     		ldrh	r2, [r1, #4]
 4369 001c D309     		lsr	r3, r2, #7
 4370              		.loc 1 574 0
 4371 001e DAB2     		uxtb	r2, r3
 4372 0020 8378     		ldrb	r3, [r0, #2]
 4373 0022 9A42     		cmp	r2, r3
 4374 0024 1FD3     		bcc	.L171
 4375              	.LVL460:
 573:.\LED_Matrix.c **** 		temp = ((uint8)(result[i]>>7));
 4376              		.loc 1 573 0
 4377 0026 CA88     		ldrh	r2, [r1, #6]
 4378 0028 D309     		lsr	r3, r2, #7
 4379              		.loc 1 574 0
 4380 002a DAB2     		uxtb	r2, r3
 4381 002c C378     		ldrb	r3, [r0, #3]
 4382 002e 9A42     		cmp	r2, r3
 4383 0030 19D3     		bcc	.L171
 4384              	.LVL461:
 573:.\LED_Matrix.c **** 		temp = ((uint8)(result[i]>>7));
 4385              		.loc 1 573 0
 4386 0032 0A89     		ldrh	r2, [r1, #8]
ARM GAS  C:\Users\Steve\AppData\Local\Temp\ccroCuoh.s 			page 95


 4387 0034 D309     		lsr	r3, r2, #7
 4388              		.loc 1 574 0
 4389 0036 DAB2     		uxtb	r2, r3
 4390 0038 0379     		ldrb	r3, [r0, #4]
 4391 003a 9A42     		cmp	r2, r3
 4392 003c 13D3     		bcc	.L171
 4393              	.LVL462:
 573:.\LED_Matrix.c **** 		temp = ((uint8)(result[i]>>7));
 4394              		.loc 1 573 0
 4395 003e 4A89     		ldrh	r2, [r1, #10]
 4396 0040 D309     		lsr	r3, r2, #7
 4397              		.loc 1 574 0
 4398 0042 DAB2     		uxtb	r2, r3
 4399 0044 4379     		ldrb	r3, [r0, #5]
 4400 0046 9A42     		cmp	r2, r3
 4401 0048 0DD3     		bcc	.L171
 4402              	.LVL463:
 573:.\LED_Matrix.c **** 		temp = ((uint8)(result[i]>>7));
 4403              		.loc 1 573 0
 4404 004a 8A89     		ldrh	r2, [r1, #12]
 4405 004c D309     		lsr	r3, r2, #7
 4406              		.loc 1 574 0
 4407 004e DAB2     		uxtb	r2, r3
 4408 0050 8379     		ldrb	r3, [r0, #6]
 4409 0052 9A42     		cmp	r2, r3
 4410 0054 07D3     		bcc	.L171
 4411              	.LVL464:
 573:.\LED_Matrix.c **** 		temp = ((uint8)(result[i]>>7));
 4412              		.loc 1 573 0
 4413 0056 C989     		ldrh	r1, [r1, #14]
 4414              	.LVL465:
 4415              		.loc 1 574 0
 4416 0058 C079     		ldrb	r0, [r0, #7]
 4417              	.LVL466:
 573:.\LED_Matrix.c **** 		temp = ((uint8)(result[i]>>7));
 4418              		.loc 1 573 0
 4419 005a CA09     		lsr	r2, r1, #7
 4420              		.loc 1 574 0
 4421 005c D1B2     		uxtb	r1, r2
 4422 005e 8142     		cmp	r1, r0
 4423 0060 9B41     		sbc	r3, r3, r3
 4424 0062 5842     		neg	r0, r3
 4425              	.LVL467:
 4426              	.L164:
 575:.\LED_Matrix.c **** 		{
 576:.\LED_Matrix.c **** 			return 1;
 577:.\LED_Matrix.c **** 		}
 578:.\LED_Matrix.c **** 	}
 579:.\LED_Matrix.c **** 	return 0;
 580:.\LED_Matrix.c **** }
 4427              		.loc 1 580 0
 4428              		@ sp needed for prologue
 4429 0064 00BD     		pop	{pc}
 4430              	.LVL468:
 4431              	.L171:
 576:.\LED_Matrix.c **** 			return 1;
 4432              		.loc 1 576 0
ARM GAS  C:\Users\Steve\AppData\Local\Temp\ccroCuoh.s 			page 96


 4433 0066 0120     		mov	r0, #1
 4434              	.LVL469:
 4435 0068 FCE7     		b	.L164
 4436              		.cfi_endproc
 4437              	.LFE67:
 4438              		.size	anyDataDecrease, .-anyDataDecrease
 4439 006a C046     		.text
 4440              	.Letext0:
 4441              		.file 2 "c:\\program files (x86)\\cypress\\psoc creator\\3.0\\psoc creator\\import\\gnu_cs\\arm\\4
 4442              		.file 3 "./Generated_Source/PSoC4/cytypes.h"
 4443              		.file 4 "./LED_Matrix.h"
 4444              		.section	.debug_info,"",%progbits
 4445              	.Ldebug_info0:
 4446 0000 1F240000 		.4byte	0x241f
 4447 0004 0200     		.2byte	0x2
 4448 0006 00000000 		.4byte	.Ldebug_abbrev0
 4449 000a 04       		.byte	0x4
 4450 000b 01       		.uleb128 0x1
 4451 000c F6010000 		.4byte	.LASF71
 4452 0010 01       		.byte	0x1
 4453 0011 2B000000 		.4byte	.LASF72
 4454 0015 30010000 		.4byte	.LASF73
 4455 0019 00000000 		.4byte	.Ldebug_ranges0+0
 4456 001d 00000000 		.4byte	0
 4457 0021 00000000 		.4byte	0
 4458 0025 00000000 		.4byte	.Ldebug_line0
 4459 0029 02       		.uleb128 0x2
 4460 002a 01       		.byte	0x1
 4461 002b 06       		.byte	0x6
 4462 002c 62000000 		.4byte	.LASF0
 4463 0030 02       		.uleb128 0x2
 4464 0031 01       		.byte	0x1
 4465 0032 08       		.byte	0x8
 4466 0033 4C020000 		.4byte	.LASF1
 4467 0037 03       		.uleb128 0x3
 4468 0038 4C000000 		.4byte	.LASF9
 4469 003c 02       		.byte	0x2
 4470 003d 35       		.byte	0x35
 4471 003e 42000000 		.4byte	0x42
 4472 0042 02       		.uleb128 0x2
 4473 0043 02       		.byte	0x2
 4474 0044 05       		.byte	0x5
 4475 0045 5A020000 		.4byte	.LASF2
 4476 0049 02       		.uleb128 0x2
 4477 004a 02       		.byte	0x2
 4478 004b 07       		.byte	0x7
 4479 004c 6B010000 		.4byte	.LASF3
 4480 0050 02       		.uleb128 0x2
 4481 0051 04       		.byte	0x4
 4482 0052 05       		.byte	0x5
 4483 0053 8F000000 		.4byte	.LASF4
 4484 0057 02       		.uleb128 0x2
 4485 0058 04       		.byte	0x4
 4486 0059 07       		.byte	0x7
 4487 005a 01010000 		.4byte	.LASF5
 4488 005e 02       		.uleb128 0x2
 4489 005f 08       		.byte	0x8
ARM GAS  C:\Users\Steve\AppData\Local\Temp\ccroCuoh.s 			page 97


 4490 0060 05       		.byte	0x5
 4491 0061 54000000 		.4byte	.LASF6
 4492 0065 02       		.uleb128 0x2
 4493 0066 08       		.byte	0x8
 4494 0067 07       		.byte	0x7
 4495 0068 6E000000 		.4byte	.LASF7
 4496 006c 04       		.uleb128 0x4
 4497 006d 04       		.byte	0x4
 4498 006e 05       		.byte	0x5
 4499 006f 696E7400 		.ascii	"int\000"
 4500 0073 02       		.uleb128 0x2
 4501 0074 04       		.byte	0x4
 4502 0075 07       		.byte	0x7
 4503 0076 F4000000 		.4byte	.LASF8
 4504 007a 03       		.uleb128 0x3
 4505 007b 98000000 		.4byte	.LASF10
 4506 007f 03       		.byte	0x3
 4507 0080 5B       		.byte	0x5b
 4508 0081 30000000 		.4byte	0x30
 4509 0085 03       		.uleb128 0x3
 4510 0086 0C000000 		.4byte	.LASF11
 4511 008a 03       		.byte	0x3
 4512 008b 5C       		.byte	0x5c
 4513 008c 49000000 		.4byte	0x49
 4514 0090 03       		.uleb128 0x3
 4515 0091 7E010000 		.4byte	.LASF12
 4516 0095 03       		.byte	0x3
 4517 0096 5E       		.byte	0x5e
 4518 0097 29000000 		.4byte	0x29
 4519 009b 02       		.uleb128 0x2
 4520 009c 04       		.byte	0x4
 4521 009d 04       		.byte	0x4
 4522 009e E5010000 		.4byte	.LASF13
 4523 00a2 02       		.uleb128 0x2
 4524 00a3 08       		.byte	0x8
 4525 00a4 04       		.byte	0x4
 4526 00a5 B2000000 		.4byte	.LASF14
 4527 00a9 02       		.uleb128 0x2
 4528 00aa 01       		.byte	0x1
 4529 00ab 08       		.byte	0x8
 4530 00ac B0020000 		.4byte	.LASF15
 4531 00b0 02       		.uleb128 0x2
 4532 00b1 04       		.byte	0x4
 4533 00b2 07       		.byte	0x7
 4534 00b3 A7010000 		.4byte	.LASF16
 4535 00b7 05       		.uleb128 0x5
 4536 00b8 0F       		.byte	0xf
 4537 00b9 04       		.byte	0x4
 4538 00ba 26       		.byte	0x26
 4539 00bb E4000000 		.4byte	0xe4
 4540 00bf 06       		.uleb128 0x6
 4541 00c0 7200     		.ascii	"r\000"
 4542 00c2 04       		.byte	0x4
 4543 00c3 28       		.byte	0x28
 4544 00c4 E4000000 		.4byte	0xe4
 4545 00c8 02       		.byte	0x2
 4546 00c9 23       		.byte	0x23
ARM GAS  C:\Users\Steve\AppData\Local\Temp\ccroCuoh.s 			page 98


 4547 00ca 00       		.uleb128 0
 4548 00cb 06       		.uleb128 0x6
 4549 00cc 6700     		.ascii	"g\000"
 4550 00ce 04       		.byte	0x4
 4551 00cf 29       		.byte	0x29
 4552 00d0 E4000000 		.4byte	0xe4
 4553 00d4 02       		.byte	0x2
 4554 00d5 23       		.byte	0x23
 4555 00d6 05       		.uleb128 0x5
 4556 00d7 06       		.uleb128 0x6
 4557 00d8 6200     		.ascii	"b\000"
 4558 00da 04       		.byte	0x4
 4559 00db 2A       		.byte	0x2a
 4560 00dc E4000000 		.4byte	0xe4
 4561 00e0 02       		.byte	0x2
 4562 00e1 23       		.byte	0x23
 4563 00e2 0A       		.uleb128 0xa
 4564 00e3 00       		.byte	0
 4565 00e4 07       		.uleb128 0x7
 4566 00e5 7A000000 		.4byte	0x7a
 4567 00e9 F4000000 		.4byte	0xf4
 4568 00ed 08       		.uleb128 0x8
 4569 00ee B0000000 		.4byte	0xb0
 4570 00f2 04       		.byte	0x4
 4571 00f3 00       		.byte	0
 4572 00f4 03       		.uleb128 0x3
 4573 00f5 AA020000 		.4byte	.LASF17
 4574 00f9 04       		.byte	0x4
 4575 00fa 2B       		.byte	0x2b
 4576 00fb B7000000 		.4byte	0xb7
 4577 00ff 05       		.uleb128 0x5
 4578 0100 03       		.byte	0x3
 4579 0101 04       		.byte	0x4
 4580 0102 2E       		.byte	0x2e
 4581 0103 2C010000 		.4byte	0x12c
 4582 0107 06       		.uleb128 0x6
 4583 0108 7200     		.ascii	"r\000"
 4584 010a 04       		.byte	0x4
 4585 010b 30       		.byte	0x30
 4586 010c 7A000000 		.4byte	0x7a
 4587 0110 02       		.byte	0x2
 4588 0111 23       		.byte	0x23
 4589 0112 00       		.uleb128 0
 4590 0113 06       		.uleb128 0x6
 4591 0114 6700     		.ascii	"g\000"
 4592 0116 04       		.byte	0x4
 4593 0117 31       		.byte	0x31
 4594 0118 7A000000 		.4byte	0x7a
 4595 011c 02       		.byte	0x2
 4596 011d 23       		.byte	0x23
 4597 011e 01       		.uleb128 0x1
 4598 011f 06       		.uleb128 0x6
 4599 0120 6200     		.ascii	"b\000"
 4600 0122 04       		.byte	0x4
 4601 0123 32       		.byte	0x32
 4602 0124 7A000000 		.4byte	0x7a
 4603 0128 02       		.byte	0x2
ARM GAS  C:\Users\Steve\AppData\Local\Temp\ccroCuoh.s 			page 99


 4604 0129 23       		.byte	0x23
 4605 012a 02       		.uleb128 0x2
 4606 012b 00       		.byte	0
 4607 012c 09       		.uleb128 0x9
 4608 012d 52474200 		.ascii	"RGB\000"
 4609 0131 04       		.byte	0x4
 4610 0132 33       		.byte	0x33
 4611 0133 FF000000 		.4byte	0xff
 4612 0137 0A       		.uleb128 0xa
 4613 0138 01       		.byte	0x1
 4614 0139 B5020000 		.4byte	.LASF23
 4615 013d 01       		.byte	0x1
 4616 013e 5D       		.byte	0x5d
 4617 013f 01       		.byte	0x1
 4618 0140 00000000 		.4byte	.LFB34
 4619 0144 78000000 		.4byte	.LFE34
 4620 0148 00000000 		.4byte	.LLST0
 4621 014c 01       		.byte	0x1
 4622 014d C4010000 		.4byte	0x1c4
 4623 0151 0B       		.uleb128 0xb
 4624 0152 7800     		.ascii	"x\000"
 4625 0154 01       		.byte	0x1
 4626 0155 5D       		.byte	0x5d
 4627 0156 7A000000 		.4byte	0x7a
 4628 015a 20000000 		.4byte	.LLST1
 4629 015e 0B       		.uleb128 0xb
 4630 015f 7900     		.ascii	"y\000"
 4631 0161 01       		.byte	0x1
 4632 0162 5D       		.byte	0x5d
 4633 0163 7A000000 		.4byte	0x7a
 4634 0167 41000000 		.4byte	.LLST2
 4635 016b 0C       		.uleb128 0xc
 4636 016c DA000000 		.4byte	.LASF18
 4637 0170 01       		.byte	0x1
 4638 0171 5D       		.byte	0x5d
 4639 0172 C4010000 		.4byte	0x1c4
 4640 0176 62000000 		.4byte	.LLST3
 4641 017a 0D       		.uleb128 0xd
 4642 017b 6900     		.ascii	"i\000"
 4643 017d 01       		.byte	0x1
 4644 017e 5F       		.byte	0x5f
 4645 017f 7A000000 		.4byte	0x7a
 4646 0183 83000000 		.4byte	.LLST4
 4647 0187 0E       		.uleb128 0xe
 4648 0188 C0020000 		.4byte	.LASF19
 4649 018c 01       		.byte	0x1
 4650 018d 5F       		.byte	0x5f
 4651 018e 7A000000 		.4byte	0x7a
 4652 0192 D3000000 		.4byte	.LLST5
 4653 0196 0E       		.uleb128 0xe
 4654 0197 CE020000 		.4byte	.LASF20
 4655 019b 01       		.byte	0x1
 4656 019c 60       		.byte	0x60
 4657 019d 7A000000 		.4byte	0x7a
 4658 01a1 EF000000 		.4byte	.LLST6
 4659 01a5 0E       		.uleb128 0xe
 4660 01a6 D7020000 		.4byte	.LASF21
ARM GAS  C:\Users\Steve\AppData\Local\Temp\ccroCuoh.s 			page 100


 4661 01aa 01       		.byte	0x1
 4662 01ab 61       		.byte	0x61
 4663 01ac 7A000000 		.4byte	0x7a
 4664 01b0 06010000 		.4byte	.LLST7
 4665 01b4 0E       		.uleb128 0xe
 4666 01b5 F0020000 		.4byte	.LASF22
 4667 01b9 01       		.byte	0x1
 4668 01ba 62       		.byte	0x62
 4669 01bb 7A000000 		.4byte	0x7a
 4670 01bf 1D010000 		.4byte	.LLST8
 4671 01c3 00       		.byte	0
 4672 01c4 0F       		.uleb128 0xf
 4673 01c5 04       		.byte	0x4
 4674 01c6 F4000000 		.4byte	0xf4
 4675 01ca 0A       		.uleb128 0xa
 4676 01cb 01       		.byte	0x1
 4677 01cc C4010000 		.4byte	.LASF24
 4678 01d0 01       		.byte	0x1
 4679 01d1 2C       		.byte	0x2c
 4680 01d2 01       		.byte	0x1
 4681 01d3 00000000 		.4byte	.LFB33
 4682 01d7 F6000000 		.4byte	.LFE33
 4683 01db 34010000 		.4byte	.LLST9
 4684 01df 01       		.byte	0x1
 4685 01e0 80020000 		.4byte	0x280
 4686 01e4 0B       		.uleb128 0xb
 4687 01e5 7800     		.ascii	"x\000"
 4688 01e7 01       		.byte	0x1
 4689 01e8 2C       		.byte	0x2c
 4690 01e9 90000000 		.4byte	0x90
 4691 01ed 60010000 		.4byte	.LLST10
 4692 01f1 0B       		.uleb128 0xb
 4693 01f2 7900     		.ascii	"y\000"
 4694 01f4 01       		.byte	0x1
 4695 01f5 2C       		.byte	0x2c
 4696 01f6 90000000 		.4byte	0x90
 4697 01fa 81010000 		.4byte	.LLST11
 4698 01fe 10       		.uleb128 0x10
 4699 01ff 6300     		.ascii	"c\000"
 4700 0201 01       		.byte	0x1
 4701 0202 2C       		.byte	0x2c
 4702 0203 2C010000 		.4byte	0x12c
 4703 0207 02       		.byte	0x2
 4704 0208 91       		.byte	0x91
 4705 0209 64       		.sleb128 -28
 4706 020a 0C       		.uleb128 0xc
 4707 020b DA000000 		.4byte	.LASF18
 4708 020f 01       		.byte	0x1
 4709 0210 2C       		.byte	0x2c
 4710 0211 C4010000 		.4byte	0x1c4
 4711 0215 AD010000 		.4byte	.LLST12
 4712 0219 0D       		.uleb128 0xd
 4713 021a 6900     		.ascii	"i\000"
 4714 021c 01       		.byte	0x1
 4715 021d 32       		.byte	0x32
 4716 021e 90000000 		.4byte	0x90
 4717 0222 D9010000 		.4byte	.LLST13
ARM GAS  C:\Users\Steve\AppData\Local\Temp\ccroCuoh.s 			page 101


 4718 0226 0E       		.uleb128 0xe
 4719 0227 C0020000 		.4byte	.LASF19
 4720 022b 01       		.byte	0x1
 4721 022c 32       		.byte	0x32
 4722 022d 90000000 		.4byte	0x90
 4723 0231 29020000 		.4byte	.LLST14
 4724 0235 0E       		.uleb128 0xe
 4725 0236 CE020000 		.4byte	.LASF20
 4726 023a 01       		.byte	0x1
 4727 023b 38       		.byte	0x38
 4728 023c 90000000 		.4byte	0x90
 4729 0240 59020000 		.4byte	.LLST15
 4730 0244 0E       		.uleb128 0xe
 4731 0245 D7020000 		.4byte	.LASF21
 4732 0249 01       		.byte	0x1
 4733 024a 3E       		.byte	0x3e
 4734 024b 90000000 		.4byte	0x90
 4735 024f 80020000 		.4byte	.LLST16
 4736 0253 0E       		.uleb128 0xe
 4737 0254 F0020000 		.4byte	.LASF22
 4738 0258 01       		.byte	0x1
 4739 0259 3F       		.byte	0x3f
 4740 025a 90000000 		.4byte	0x90
 4741 025e A6020000 		.4byte	.LLST17
 4742 0262 11       		.uleb128 0x11
 4743 0263 16000000 		.4byte	.LVL13
 4744 0267 37010000 		.4byte	0x137
 4745 026b 12       		.uleb128 0x12
 4746 026c 01       		.byte	0x1
 4747 026d 52       		.byte	0x52
 4748 026e 02       		.byte	0x2
 4749 026f 76       		.byte	0x76
 4750 0270 00       		.sleb128 0
 4751 0271 12       		.uleb128 0x12
 4752 0272 01       		.byte	0x1
 4753 0273 51       		.byte	0x51
 4754 0274 02       		.byte	0x2
 4755 0275 77       		.byte	0x77
 4756 0276 00       		.sleb128 0
 4757 0277 12       		.uleb128 0x12
 4758 0278 01       		.byte	0x1
 4759 0279 50       		.byte	0x50
 4760 027a 03       		.byte	0x3
 4761 027b F3       		.byte	0xf3
 4762 027c 01       		.uleb128 0x1
 4763 027d 50       		.byte	0x50
 4764 027e 00       		.byte	0
 4765 027f 00       		.byte	0
 4766 0280 0A       		.uleb128 0xa
 4767 0281 01       		.byte	0x1
 4768 0282 95010000 		.4byte	.LASF25
 4769 0286 01       		.byte	0x1
 4770 0287 7C       		.byte	0x7c
 4771 0288 01       		.byte	0x1
 4772 0289 00000000 		.4byte	.LFB35
 4773 028d 4E000000 		.4byte	.LFE35
 4774 0291 D4020000 		.4byte	.LLST18
ARM GAS  C:\Users\Steve\AppData\Local\Temp\ccroCuoh.s 			page 102


 4775 0295 01       		.byte	0x1
 4776 0296 C6020000 		.4byte	0x2c6
 4777 029a 0C       		.uleb128 0xc
 4778 029b DA000000 		.4byte	.LASF18
 4779 029f 01       		.byte	0x1
 4780 02a0 7C       		.byte	0x7c
 4781 02a1 C4010000 		.4byte	0x1c4
 4782 02a5 F4020000 		.4byte	.LLST19
 4783 02a9 0D       		.uleb128 0xd
 4784 02aa 7800     		.ascii	"x\000"
 4785 02ac 01       		.byte	0x1
 4786 02ad 7E       		.byte	0x7e
 4787 02ae 7A000000 		.4byte	0x7a
 4788 02b2 15030000 		.4byte	.LLST20
 4789 02b6 0E       		.uleb128 0xe
 4790 02b7 C0020000 		.4byte	.LASF19
 4791 02bb 01       		.byte	0x1
 4792 02bc 7E       		.byte	0x7e
 4793 02bd 7A000000 		.4byte	0x7a
 4794 02c1 A1030000 		.4byte	.LLST21
 4795 02c5 00       		.byte	0
 4796 02c6 0A       		.uleb128 0xa
 4797 02c7 01       		.byte	0x1
 4798 02c8 EB010000 		.4byte	.LASF26
 4799 02cc 01       		.byte	0x1
 4800 02cd 8B       		.byte	0x8b
 4801 02ce 01       		.byte	0x1
 4802 02cf 00000000 		.4byte	.LFB36
 4803 02d3 66010000 		.4byte	.LFE36
 4804 02d7 B5030000 		.4byte	.LLST22
 4805 02db 01       		.byte	0x1
 4806 02dc EB040000 		.4byte	0x4eb
 4807 02e0 0B       		.uleb128 0xb
 4808 02e1 783000   		.ascii	"x0\000"
 4809 02e4 01       		.byte	0x1
 4810 02e5 8B       		.byte	0x8b
 4811 02e6 90000000 		.4byte	0x90
 4812 02ea EE030000 		.4byte	.LLST23
 4813 02ee 0B       		.uleb128 0xb
 4814 02ef 793000   		.ascii	"y0\000"
 4815 02f2 01       		.byte	0x1
 4816 02f3 8B       		.byte	0x8b
 4817 02f4 90000000 		.4byte	0x90
 4818 02f8 0F040000 		.4byte	.LLST24
 4819 02fc 0B       		.uleb128 0xb
 4820 02fd 7200     		.ascii	"r\000"
 4821 02ff 01       		.byte	0x1
 4822 0300 8B       		.byte	0x8b
 4823 0301 90000000 		.4byte	0x90
 4824 0305 30040000 		.4byte	.LLST25
 4825 0309 10       		.uleb128 0x10
 4826 030a 6300     		.ascii	"c\000"
 4827 030c 01       		.byte	0x1
 4828 030d 8B       		.byte	0x8b
 4829 030e 2C010000 		.4byte	0x12c
 4830 0312 02       		.byte	0x2
 4831 0313 91       		.byte	0x91
ARM GAS  C:\Users\Steve\AppData\Local\Temp\ccroCuoh.s 			page 103


 4832 0314 54       		.sleb128 -44
 4833 0315 13       		.uleb128 0x13
 4834 0316 DA000000 		.4byte	.LASF18
 4835 031a 01       		.byte	0x1
 4836 031b 8B       		.byte	0x8b
 4837 031c C4010000 		.4byte	0x1c4
 4838 0320 02       		.byte	0x2
 4839 0321 91       		.byte	0x91
 4840 0322 00       		.sleb128 0
 4841 0323 0D       		.uleb128 0xd
 4842 0324 6600     		.ascii	"f\000"
 4843 0326 01       		.byte	0x1
 4844 0327 8C       		.byte	0x8c
 4845 0328 90000000 		.4byte	0x90
 4846 032c 51040000 		.4byte	.LLST26
 4847 0330 0E       		.uleb128 0xe
 4848 0331 24010000 		.4byte	.LASF27
 4849 0335 01       		.byte	0x1
 4850 0336 8D       		.byte	0x8d
 4851 0337 90000000 		.4byte	0x90
 4852 033b 90040000 		.4byte	.LLST27
 4853 033f 14       		.uleb128 0x14
 4854 0340 2A010000 		.4byte	.LASF28
 4855 0344 01       		.byte	0x1
 4856 0345 8E       		.byte	0x8e
 4857 0346 90000000 		.4byte	0x90
 4858 034a 02       		.byte	0x2
 4859 034b 91       		.byte	0x91
 4860 034c 50       		.sleb128 -48
 4861 034d 0D       		.uleb128 0xd
 4862 034e 7800     		.ascii	"x\000"
 4863 0350 01       		.byte	0x1
 4864 0351 8F       		.byte	0x8f
 4865 0352 90000000 		.4byte	0x90
 4866 0356 C6040000 		.4byte	.LLST28
 4867 035a 0D       		.uleb128 0xd
 4868 035b 7900     		.ascii	"y\000"
 4869 035d 01       		.byte	0x1
 4870 035e 90       		.byte	0x90
 4871 035f 90000000 		.4byte	0x90
 4872 0363 E6040000 		.4byte	.LLST29
 4873 0367 15       		.uleb128 0x15
 4874 0368 3E000000 		.4byte	.LVL41
 4875 036c CA010000 		.4byte	0x1ca
 4876 0370 8A030000 		.4byte	0x38a
 4877 0374 12       		.uleb128 0x12
 4878 0375 01       		.byte	0x1
 4879 0376 53       		.byte	0x53
 4880 0377 02       		.byte	0x2
 4881 0378 74       		.byte	0x74
 4882 0379 00       		.sleb128 0
 4883 037a 12       		.uleb128 0x12
 4884 037b 01       		.byte	0x1
 4885 037c 51       		.byte	0x51
 4886 037d 05       		.byte	0x5
 4887 037e 75       		.byte	0x75
 4888 037f 00       		.sleb128 0
ARM GAS  C:\Users\Steve\AppData\Local\Temp\ccroCuoh.s 			page 104


 4889 0380 7A       		.byte	0x7a
 4890 0381 00       		.sleb128 0
 4891 0382 22       		.byte	0x22
 4892 0383 12       		.uleb128 0x12
 4893 0384 01       		.byte	0x1
 4894 0385 50       		.byte	0x50
 4895 0386 02       		.byte	0x2
 4896 0387 79       		.byte	0x79
 4897 0388 00       		.sleb128 0
 4898 0389 00       		.byte	0
 4899 038a 15       		.uleb128 0x15
 4900 038b 4E000000 		.4byte	.LVL42
 4901 038f CA010000 		.4byte	0x1ca
 4902 0393 AD030000 		.4byte	0x3ad
 4903 0397 12       		.uleb128 0x12
 4904 0398 01       		.byte	0x1
 4905 0399 53       		.byte	0x53
 4906 039a 02       		.byte	0x2
 4907 039b 74       		.byte	0x74
 4908 039c 00       		.sleb128 0
 4909 039d 12       		.uleb128 0x12
 4910 039e 01       		.byte	0x1
 4911 039f 51       		.byte	0x51
 4912 03a0 05       		.byte	0x5
 4913 03a1 7A       		.byte	0x7a
 4914 03a2 00       		.sleb128 0
 4915 03a3 75       		.byte	0x75
 4916 03a4 00       		.sleb128 0
 4917 03a5 1C       		.byte	0x1c
 4918 03a6 12       		.uleb128 0x12
 4919 03a7 01       		.byte	0x1
 4920 03a8 50       		.byte	0x50
 4921 03a9 02       		.byte	0x2
 4922 03aa 79       		.byte	0x79
 4923 03ab 00       		.sleb128 0
 4924 03ac 00       		.byte	0
 4925 03ad 15       		.uleb128 0x15
 4926 03ae 62000000 		.4byte	.LVL43
 4927 03b2 CA010000 		.4byte	0x1ca
 4928 03b6 D0030000 		.4byte	0x3d0
 4929 03ba 12       		.uleb128 0x12
 4930 03bb 01       		.byte	0x1
 4931 03bc 53       		.byte	0x53
 4932 03bd 02       		.byte	0x2
 4933 03be 74       		.byte	0x74
 4934 03bf 00       		.sleb128 0
 4935 03c0 12       		.uleb128 0x12
 4936 03c1 01       		.byte	0x1
 4937 03c2 51       		.byte	0x51
 4938 03c3 02       		.byte	0x2
 4939 03c4 76       		.byte	0x76
 4940 03c5 00       		.sleb128 0
 4941 03c6 12       		.uleb128 0x12
 4942 03c7 01       		.byte	0x1
 4943 03c8 50       		.byte	0x50
 4944 03c9 05       		.byte	0x5
 4945 03ca 75       		.byte	0x75
ARM GAS  C:\Users\Steve\AppData\Local\Temp\ccroCuoh.s 			page 105


 4946 03cb 00       		.sleb128 0
 4947 03cc 7B       		.byte	0x7b
 4948 03cd 00       		.sleb128 0
 4949 03ce 22       		.byte	0x22
 4950 03cf 00       		.byte	0
 4951 03d0 15       		.uleb128 0x15
 4952 03d1 74000000 		.4byte	.LVL44
 4953 03d5 CA010000 		.4byte	0x1ca
 4954 03d9 EA030000 		.4byte	0x3ea
 4955 03dd 12       		.uleb128 0x12
 4956 03de 01       		.byte	0x1
 4957 03df 53       		.byte	0x53
 4958 03e0 02       		.byte	0x2
 4959 03e1 74       		.byte	0x74
 4960 03e2 00       		.sleb128 0
 4961 03e3 12       		.uleb128 0x12
 4962 03e4 01       		.byte	0x1
 4963 03e5 50       		.byte	0x50
 4964 03e6 02       		.byte	0x2
 4965 03e7 75       		.byte	0x75
 4966 03e8 00       		.sleb128 0
 4967 03e9 00       		.byte	0
 4968 03ea 15       		.uleb128 0x15
 4969 03eb C4000000 		.4byte	.LVL51
 4970 03ef CA010000 		.4byte	0x1ca
 4971 03f3 0C040000 		.4byte	0x40c
 4972 03f7 12       		.uleb128 0x12
 4973 03f8 01       		.byte	0x1
 4974 03f9 53       		.byte	0x53
 4975 03fa 02       		.byte	0x2
 4976 03fb 74       		.byte	0x74
 4977 03fc 00       		.sleb128 0
 4978 03fd 12       		.uleb128 0x12
 4979 03fe 01       		.byte	0x1
 4980 03ff 51       		.byte	0x51
 4981 0400 02       		.byte	0x2
 4982 0401 78       		.byte	0x78
 4983 0402 00       		.sleb128 0
 4984 0403 12       		.uleb128 0x12
 4985 0404 01       		.byte	0x1
 4986 0405 50       		.byte	0x50
 4987 0406 04       		.byte	0x4
 4988 0407 91       		.byte	0x91
 4989 0408 48       		.sleb128 -56
 4990 0409 94       		.byte	0x94
 4991 040a 01       		.byte	0x1
 4992 040b 00       		.byte	0
 4993 040c 15       		.uleb128 0x15
 4994 040d D8000000 		.4byte	.LVL52
 4995 0411 CA010000 		.4byte	0x1ca
 4996 0415 2C040000 		.4byte	0x42c
 4997 0419 12       		.uleb128 0x12
 4998 041a 01       		.byte	0x1
 4999 041b 53       		.byte	0x53
 5000 041c 02       		.byte	0x2
 5001 041d 74       		.byte	0x74
 5002 041e 00       		.sleb128 0
ARM GAS  C:\Users\Steve\AppData\Local\Temp\ccroCuoh.s 			page 106


 5003 041f 12       		.uleb128 0x12
 5004 0420 01       		.byte	0x1
 5005 0421 51       		.byte	0x51
 5006 0422 02       		.byte	0x2
 5007 0423 78       		.byte	0x78
 5008 0424 00       		.sleb128 0
 5009 0425 12       		.uleb128 0x12
 5010 0426 01       		.byte	0x1
 5011 0427 50       		.byte	0x50
 5012 0428 02       		.byte	0x2
 5013 0429 79       		.byte	0x79
 5014 042a 00       		.sleb128 0
 5015 042b 00       		.byte	0
 5016 042c 15       		.uleb128 0x15
 5017 042d EC000000 		.4byte	.LVL53
 5018 0431 CA010000 		.4byte	0x1ca
 5019 0435 4E040000 		.4byte	0x44e
 5020 0439 12       		.uleb128 0x12
 5021 043a 01       		.byte	0x1
 5022 043b 53       		.byte	0x53
 5023 043c 02       		.byte	0x2
 5024 043d 74       		.byte	0x74
 5025 043e 00       		.sleb128 0
 5026 043f 12       		.uleb128 0x12
 5027 0440 01       		.byte	0x1
 5028 0441 51       		.byte	0x51
 5029 0442 02       		.byte	0x2
 5030 0443 78       		.byte	0x78
 5031 0444 00       		.sleb128 0
 5032 0445 12       		.uleb128 0x12
 5033 0446 01       		.byte	0x1
 5034 0447 50       		.byte	0x50
 5035 0448 04       		.byte	0x4
 5036 0449 91       		.byte	0x91
 5037 044a 48       		.sleb128 -56
 5038 044b 94       		.byte	0x94
 5039 044c 01       		.byte	0x1
 5040 044d 00       		.byte	0
 5041 044e 15       		.uleb128 0x15
 5042 044f F8000000 		.4byte	.LVL54
 5043 0453 CA010000 		.4byte	0x1ca
 5044 0457 6E040000 		.4byte	0x46e
 5045 045b 12       		.uleb128 0x12
 5046 045c 01       		.byte	0x1
 5047 045d 53       		.byte	0x53
 5048 045e 02       		.byte	0x2
 5049 045f 74       		.byte	0x74
 5050 0460 00       		.sleb128 0
 5051 0461 12       		.uleb128 0x12
 5052 0462 01       		.byte	0x1
 5053 0463 51       		.byte	0x51
 5054 0464 02       		.byte	0x2
 5055 0465 78       		.byte	0x78
 5056 0466 00       		.sleb128 0
 5057 0467 12       		.uleb128 0x12
 5058 0468 01       		.byte	0x1
 5059 0469 50       		.byte	0x50
ARM GAS  C:\Users\Steve\AppData\Local\Temp\ccroCuoh.s 			page 107


 5060 046a 02       		.byte	0x2
 5061 046b 79       		.byte	0x79
 5062 046c 00       		.sleb128 0
 5063 046d 00       		.byte	0
 5064 046e 15       		.uleb128 0x15
 5065 046f 14010000 		.4byte	.LVL55
 5066 0473 CA010000 		.4byte	0x1ca
 5067 0477 8E040000 		.4byte	0x48e
 5068 047b 12       		.uleb128 0x12
 5069 047c 01       		.byte	0x1
 5070 047d 53       		.byte	0x53
 5071 047e 02       		.byte	0x2
 5072 047f 74       		.byte	0x74
 5073 0480 00       		.sleb128 0
 5074 0481 12       		.uleb128 0x12
 5075 0482 01       		.byte	0x1
 5076 0483 51       		.byte	0x51
 5077 0484 02       		.byte	0x2
 5078 0485 79       		.byte	0x79
 5079 0486 00       		.sleb128 0
 5080 0487 12       		.uleb128 0x12
 5081 0488 01       		.byte	0x1
 5082 0489 50       		.byte	0x50
 5083 048a 02       		.byte	0x2
 5084 048b 78       		.byte	0x78
 5085 048c 00       		.sleb128 0
 5086 048d 00       		.byte	0
 5087 048e 15       		.uleb128 0x15
 5088 048f 26010000 		.4byte	.LVL56
 5089 0493 CA010000 		.4byte	0x1ca
 5090 0497 AE040000 		.4byte	0x4ae
 5091 049b 12       		.uleb128 0x12
 5092 049c 01       		.byte	0x1
 5093 049d 53       		.byte	0x53
 5094 049e 02       		.byte	0x2
 5095 049f 74       		.byte	0x74
 5096 04a0 00       		.sleb128 0
 5097 04a1 12       		.uleb128 0x12
 5098 04a2 01       		.byte	0x1
 5099 04a3 51       		.byte	0x51
 5100 04a4 02       		.byte	0x2
 5101 04a5 79       		.byte	0x79
 5102 04a6 00       		.sleb128 0
 5103 04a7 12       		.uleb128 0x12
 5104 04a8 01       		.byte	0x1
 5105 04a9 50       		.byte	0x50
 5106 04aa 02       		.byte	0x2
 5107 04ab 76       		.byte	0x76
 5108 04ac 00       		.sleb128 0
 5109 04ad 00       		.byte	0
 5110 04ae 15       		.uleb128 0x15
 5111 04af 3A010000 		.4byte	.LVL57
 5112 04b3 CA010000 		.4byte	0x1ca
 5113 04b7 CE040000 		.4byte	0x4ce
 5114 04bb 12       		.uleb128 0x12
 5115 04bc 01       		.byte	0x1
 5116 04bd 53       		.byte	0x53
ARM GAS  C:\Users\Steve\AppData\Local\Temp\ccroCuoh.s 			page 108


 5117 04be 02       		.byte	0x2
 5118 04bf 74       		.byte	0x74
 5119 04c0 00       		.sleb128 0
 5120 04c1 12       		.uleb128 0x12
 5121 04c2 01       		.byte	0x1
 5122 04c3 51       		.byte	0x51
 5123 04c4 02       		.byte	0x2
 5124 04c5 79       		.byte	0x79
 5125 04c6 00       		.sleb128 0
 5126 04c7 12       		.uleb128 0x12
 5127 04c8 01       		.byte	0x1
 5128 04c9 50       		.byte	0x50
 5129 04ca 02       		.byte	0x2
 5130 04cb 78       		.byte	0x78
 5131 04cc 00       		.sleb128 0
 5132 04cd 00       		.byte	0
 5133 04ce 11       		.uleb128 0x11
 5134 04cf 46010000 		.4byte	.LVL58
 5135 04d3 CA010000 		.4byte	0x1ca
 5136 04d7 12       		.uleb128 0x12
 5137 04d8 01       		.byte	0x1
 5138 04d9 53       		.byte	0x53
 5139 04da 02       		.byte	0x2
 5140 04db 74       		.byte	0x74
 5141 04dc 00       		.sleb128 0
 5142 04dd 12       		.uleb128 0x12
 5143 04de 01       		.byte	0x1
 5144 04df 51       		.byte	0x51
 5145 04e0 02       		.byte	0x2
 5146 04e1 79       		.byte	0x79
 5147 04e2 00       		.sleb128 0
 5148 04e3 12       		.uleb128 0x12
 5149 04e4 01       		.byte	0x1
 5150 04e5 50       		.byte	0x50
 5151 04e6 02       		.byte	0x2
 5152 04e7 76       		.byte	0x76
 5153 04e8 00       		.sleb128 0
 5154 04e9 00       		.byte	0
 5155 04ea 00       		.byte	0
 5156 04eb 0A       		.uleb128 0xa
 5157 04ec 01       		.byte	0x1
 5158 04ed 13010000 		.4byte	.LASF29
 5159 04f1 01       		.byte	0x1
 5160 04f2 AF       		.byte	0xaf
 5161 04f3 01       		.byte	0x1
 5162 04f4 00000000 		.4byte	.LFB37
 5163 04f8 76010000 		.4byte	.LFE37
 5164 04fc 05050000 		.4byte	.LLST30
 5165 0500 01       		.byte	0x1
 5166 0501 C8060000 		.4byte	0x6c8
 5167 0505 0B       		.uleb128 0xb
 5168 0506 783000   		.ascii	"x0\000"
 5169 0509 01       		.byte	0x1
 5170 050a AF       		.byte	0xaf
 5171 050b 90000000 		.4byte	0x90
 5172 050f 3E050000 		.4byte	.LLST31
 5173 0513 0B       		.uleb128 0xb
ARM GAS  C:\Users\Steve\AppData\Local\Temp\ccroCuoh.s 			page 109


 5174 0514 793000   		.ascii	"y0\000"
 5175 0517 01       		.byte	0x1
 5176 0518 AF       		.byte	0xaf
 5177 0519 90000000 		.4byte	0x90
 5178 051d 6A050000 		.4byte	.LLST32
 5179 0521 0B       		.uleb128 0xb
 5180 0522 7200     		.ascii	"r\000"
 5181 0524 01       		.byte	0x1
 5182 0525 AF       		.byte	0xaf
 5183 0526 90000000 		.4byte	0x90
 5184 052a 96050000 		.4byte	.LLST33
 5185 052e 0C       		.uleb128 0xc
 5186 052f 7B020000 		.4byte	.LASF30
 5187 0533 01       		.byte	0x1
 5188 0534 AF       		.byte	0xaf
 5189 0535 90000000 		.4byte	0x90
 5190 0539 B7050000 		.4byte	.LLST34
 5191 053d 10       		.uleb128 0x10
 5192 053e 6300     		.ascii	"c\000"
 5193 0540 01       		.byte	0x1
 5194 0541 AF       		.byte	0xaf
 5195 0542 2C010000 		.4byte	0x12c
 5196 0546 02       		.byte	0x2
 5197 0547 91       		.byte	0x91
 5198 0548 00       		.sleb128 0
 5199 0549 13       		.uleb128 0x13
 5200 054a DA000000 		.4byte	.LASF18
 5201 054e 01       		.byte	0x1
 5202 054f AF       		.byte	0xaf
 5203 0550 C4010000 		.4byte	0x1c4
 5204 0554 02       		.byte	0x2
 5205 0555 91       		.byte	0x91
 5206 0556 04       		.sleb128 4
 5207 0557 0D       		.uleb128 0xd
 5208 0558 6600     		.ascii	"f\000"
 5209 055a 01       		.byte	0x1
 5210 055b B0       		.byte	0xb0
 5211 055c 90000000 		.4byte	0x90
 5212 0560 D8050000 		.4byte	.LLST35
 5213 0564 0E       		.uleb128 0xe
 5214 0565 24010000 		.4byte	.LASF27
 5215 0569 01       		.byte	0x1
 5216 056a B1       		.byte	0xb1
 5217 056b 90000000 		.4byte	0x90
 5218 056f 2D060000 		.4byte	.LLST36
 5219 0573 14       		.uleb128 0x14
 5220 0574 2A010000 		.4byte	.LASF28
 5221 0578 01       		.byte	0x1
 5222 0579 B2       		.byte	0xb2
 5223 057a 90000000 		.4byte	0x90
 5224 057e 02       		.byte	0x2
 5225 057f 91       		.byte	0x91
 5226 0580 44       		.sleb128 -60
 5227 0581 0D       		.uleb128 0xd
 5228 0582 7800     		.ascii	"x\000"
 5229 0584 01       		.byte	0x1
 5230 0585 B3       		.byte	0xb3
ARM GAS  C:\Users\Steve\AppData\Local\Temp\ccroCuoh.s 			page 110


 5231 0586 90000000 		.4byte	0x90
 5232 058a 85060000 		.4byte	.LLST37
 5233 058e 0D       		.uleb128 0xd
 5234 058f 7900     		.ascii	"y\000"
 5235 0591 01       		.byte	0x1
 5236 0592 B4       		.byte	0xb4
 5237 0593 90000000 		.4byte	0x90
 5238 0597 C5060000 		.4byte	.LLST38
 5239 059b 15       		.uleb128 0x15
 5240 059c AE000000 		.4byte	.LVL77
 5241 05a0 CA010000 		.4byte	0x1ca
 5242 05a4 C1050000 		.4byte	0x5c1
 5243 05a8 12       		.uleb128 0x12
 5244 05a9 01       		.byte	0x1
 5245 05aa 53       		.byte	0x53
 5246 05ab 02       		.byte	0x2
 5247 05ac 77       		.byte	0x77
 5248 05ad 00       		.sleb128 0
 5249 05ae 12       		.uleb128 0x12
 5250 05af 01       		.byte	0x1
 5251 05b0 51       		.byte	0x51
 5252 05b1 05       		.byte	0x5
 5253 05b2 7B       		.byte	0x7b
 5254 05b3 00       		.sleb128 0
 5255 05b4 78       		.byte	0x78
 5256 05b5 00       		.sleb128 0
 5257 05b6 22       		.byte	0x22
 5258 05b7 12       		.uleb128 0x12
 5259 05b8 01       		.byte	0x1
 5260 05b9 50       		.byte	0x50
 5261 05ba 05       		.byte	0x5
 5262 05bb 79       		.byte	0x79
 5263 05bc 00       		.sleb128 0
 5264 05bd 74       		.byte	0x74
 5265 05be 00       		.sleb128 0
 5266 05bf 22       		.byte	0x22
 5267 05c0 00       		.byte	0
 5268 05c1 15       		.uleb128 0x15
 5269 05c2 C2000000 		.4byte	.LVL78
 5270 05c6 CA010000 		.4byte	0x1ca
 5271 05ca E7050000 		.4byte	0x5e7
 5272 05ce 12       		.uleb128 0x12
 5273 05cf 01       		.byte	0x1
 5274 05d0 53       		.byte	0x53
 5275 05d1 02       		.byte	0x2
 5276 05d2 77       		.byte	0x77
 5277 05d3 00       		.sleb128 0
 5278 05d4 12       		.uleb128 0x12
 5279 05d5 01       		.byte	0x1
 5280 05d6 51       		.byte	0x51
 5281 05d7 05       		.byte	0x5
 5282 05d8 78       		.byte	0x78
 5283 05d9 00       		.sleb128 0
 5284 05da 74       		.byte	0x74
 5285 05db 00       		.sleb128 0
 5286 05dc 22       		.byte	0x22
 5287 05dd 12       		.uleb128 0x12
ARM GAS  C:\Users\Steve\AppData\Local\Temp\ccroCuoh.s 			page 111


 5288 05de 01       		.byte	0x1
 5289 05df 50       		.byte	0x50
 5290 05e0 05       		.byte	0x5
 5291 05e1 7B       		.byte	0x7b
 5292 05e2 00       		.sleb128 0
 5293 05e3 79       		.byte	0x79
 5294 05e4 00       		.sleb128 0
 5295 05e5 22       		.byte	0x22
 5296 05e6 00       		.byte	0
 5297 05e7 15       		.uleb128 0x15
 5298 05e8 E0000000 		.4byte	.LVL79
 5299 05ec CA010000 		.4byte	0x1ca
 5300 05f0 0D060000 		.4byte	0x60d
 5301 05f4 12       		.uleb128 0x12
 5302 05f5 01       		.byte	0x1
 5303 05f6 53       		.byte	0x53
 5304 05f7 02       		.byte	0x2
 5305 05f8 77       		.byte	0x77
 5306 05f9 00       		.sleb128 0
 5307 05fa 12       		.uleb128 0x12
 5308 05fb 01       		.byte	0x1
 5309 05fc 51       		.byte	0x51
 5310 05fd 05       		.byte	0x5
 5311 05fe 78       		.byte	0x78
 5312 05ff 00       		.sleb128 0
 5313 0600 7B       		.byte	0x7b
 5314 0601 00       		.sleb128 0
 5315 0602 1C       		.byte	0x1c
 5316 0603 12       		.uleb128 0x12
 5317 0604 01       		.byte	0x1
 5318 0605 50       		.byte	0x50
 5319 0606 05       		.byte	0x5
 5320 0607 79       		.byte	0x79
 5321 0608 00       		.sleb128 0
 5322 0609 74       		.byte	0x74
 5323 060a 00       		.sleb128 0
 5324 060b 22       		.byte	0x22
 5325 060c 00       		.byte	0
 5326 060d 15       		.uleb128 0x15
 5327 060e F4000000 		.4byte	.LVL80
 5328 0612 CA010000 		.4byte	0x1ca
 5329 0616 33060000 		.4byte	0x633
 5330 061a 12       		.uleb128 0x12
 5331 061b 01       		.byte	0x1
 5332 061c 53       		.byte	0x53
 5333 061d 02       		.byte	0x2
 5334 061e 77       		.byte	0x77
 5335 061f 00       		.sleb128 0
 5336 0620 12       		.uleb128 0x12
 5337 0621 01       		.byte	0x1
 5338 0622 51       		.byte	0x51
 5339 0623 05       		.byte	0x5
 5340 0624 78       		.byte	0x78
 5341 0625 00       		.sleb128 0
 5342 0626 74       		.byte	0x74
 5343 0627 00       		.sleb128 0
 5344 0628 1C       		.byte	0x1c
ARM GAS  C:\Users\Steve\AppData\Local\Temp\ccroCuoh.s 			page 112


 5345 0629 12       		.uleb128 0x12
 5346 062a 01       		.byte	0x1
 5347 062b 50       		.byte	0x50
 5348 062c 05       		.byte	0x5
 5349 062d 7B       		.byte	0x7b
 5350 062e 00       		.sleb128 0
 5351 062f 79       		.byte	0x79
 5352 0630 00       		.sleb128 0
 5353 0631 22       		.byte	0x22
 5354 0632 00       		.byte	0
 5355 0633 15       		.uleb128 0x15
 5356 0634 12010000 		.4byte	.LVL81
 5357 0638 CA010000 		.4byte	0x1ca
 5358 063c 59060000 		.4byte	0x659
 5359 0640 12       		.uleb128 0x12
 5360 0641 01       		.byte	0x1
 5361 0642 53       		.byte	0x53
 5362 0643 02       		.byte	0x2
 5363 0644 77       		.byte	0x77
 5364 0645 00       		.sleb128 0
 5365 0646 12       		.uleb128 0x12
 5366 0647 01       		.byte	0x1
 5367 0648 51       		.byte	0x51
 5368 0649 05       		.byte	0x5
 5369 064a 78       		.byte	0x78
 5370 064b 00       		.sleb128 0
 5371 064c 74       		.byte	0x74
 5372 064d 00       		.sleb128 0
 5373 064e 22       		.byte	0x22
 5374 064f 12       		.uleb128 0x12
 5375 0650 01       		.byte	0x1
 5376 0651 50       		.byte	0x50
 5377 0652 05       		.byte	0x5
 5378 0653 79       		.byte	0x79
 5379 0654 00       		.sleb128 0
 5380 0655 7B       		.byte	0x7b
 5381 0656 00       		.sleb128 0
 5382 0657 1C       		.byte	0x1c
 5383 0658 00       		.byte	0
 5384 0659 15       		.uleb128 0x15
 5385 065a 26010000 		.4byte	.LVL82
 5386 065e CA010000 		.4byte	0x1ca
 5387 0662 7F060000 		.4byte	0x67f
 5388 0666 12       		.uleb128 0x12
 5389 0667 01       		.byte	0x1
 5390 0668 53       		.byte	0x53
 5391 0669 02       		.byte	0x2
 5392 066a 77       		.byte	0x77
 5393 066b 00       		.sleb128 0
 5394 066c 12       		.uleb128 0x12
 5395 066d 01       		.byte	0x1
 5396 066e 51       		.byte	0x51
 5397 066f 05       		.byte	0x5
 5398 0670 7B       		.byte	0x7b
 5399 0671 00       		.sleb128 0
 5400 0672 78       		.byte	0x78
 5401 0673 00       		.sleb128 0
ARM GAS  C:\Users\Steve\AppData\Local\Temp\ccroCuoh.s 			page 113


 5402 0674 22       		.byte	0x22
 5403 0675 12       		.uleb128 0x12
 5404 0676 01       		.byte	0x1
 5405 0677 50       		.byte	0x50
 5406 0678 05       		.byte	0x5
 5407 0679 79       		.byte	0x79
 5408 067a 00       		.sleb128 0
 5409 067b 74       		.byte	0x74
 5410 067c 00       		.sleb128 0
 5411 067d 1C       		.byte	0x1c
 5412 067e 00       		.byte	0
 5413 067f 15       		.uleb128 0x15
 5414 0680 44010000 		.4byte	.LVL83
 5415 0684 CA010000 		.4byte	0x1ca
 5416 0688 A5060000 		.4byte	0x6a5
 5417 068c 12       		.uleb128 0x12
 5418 068d 01       		.byte	0x1
 5419 068e 53       		.byte	0x53
 5420 068f 02       		.byte	0x2
 5421 0690 77       		.byte	0x77
 5422 0691 00       		.sleb128 0
 5423 0692 12       		.uleb128 0x12
 5424 0693 01       		.byte	0x1
 5425 0694 51       		.byte	0x51
 5426 0695 05       		.byte	0x5
 5427 0696 78       		.byte	0x78
 5428 0697 00       		.sleb128 0
 5429 0698 74       		.byte	0x74
 5430 0699 00       		.sleb128 0
 5431 069a 1C       		.byte	0x1c
 5432 069b 12       		.uleb128 0x12
 5433 069c 01       		.byte	0x1
 5434 069d 50       		.byte	0x50
 5435 069e 05       		.byte	0x5
 5436 069f 79       		.byte	0x79
 5437 06a0 00       		.sleb128 0
 5438 06a1 7B       		.byte	0x7b
 5439 06a2 00       		.sleb128 0
 5440 06a3 1C       		.byte	0x1c
 5441 06a4 00       		.byte	0
 5442 06a5 11       		.uleb128 0x11
 5443 06a6 5A010000 		.4byte	.LVL84
 5444 06aa CA010000 		.4byte	0x1ca
 5445 06ae 12       		.uleb128 0x12
 5446 06af 01       		.byte	0x1
 5447 06b0 53       		.byte	0x53
 5448 06b1 02       		.byte	0x2
 5449 06b2 77       		.byte	0x77
 5450 06b3 00       		.sleb128 0
 5451 06b4 12       		.uleb128 0x12
 5452 06b5 01       		.byte	0x1
 5453 06b6 51       		.byte	0x51
 5454 06b7 05       		.byte	0x5
 5455 06b8 78       		.byte	0x78
 5456 06b9 00       		.sleb128 0
 5457 06ba 7B       		.byte	0x7b
 5458 06bb 00       		.sleb128 0
ARM GAS  C:\Users\Steve\AppData\Local\Temp\ccroCuoh.s 			page 114


 5459 06bc 1C       		.byte	0x1c
 5460 06bd 12       		.uleb128 0x12
 5461 06be 01       		.byte	0x1
 5462 06bf 50       		.byte	0x50
 5463 06c0 05       		.byte	0x5
 5464 06c1 79       		.byte	0x79
 5465 06c2 00       		.sleb128 0
 5466 06c3 74       		.byte	0x74
 5467 06c4 00       		.sleb128 0
 5468 06c5 1C       		.byte	0x1c
 5469 06c6 00       		.byte	0
 5470 06c7 00       		.byte	0
 5471 06c8 0A       		.uleb128 0xa
 5472 06c9 01       		.byte	0x1
 5473 06ca B9000000 		.4byte	.LASF31
 5474 06ce 01       		.byte	0x1
 5475 06cf D2       		.byte	0xd2
 5476 06d0 01       		.byte	0x1
 5477 06d1 00000000 		.4byte	.LFB38
 5478 06d5 00020000 		.4byte	.LFE38
 5479 06d9 EE060000 		.4byte	.LLST39
 5480 06dd 01       		.byte	0x1
 5481 06de 78080000 		.4byte	0x878
 5482 06e2 0B       		.uleb128 0xb
 5483 06e3 783000   		.ascii	"x0\000"
 5484 06e6 01       		.byte	0x1
 5485 06e7 D2       		.byte	0xd2
 5486 06e8 90000000 		.4byte	0x90
 5487 06ec 26070000 		.4byte	.LLST40
 5488 06f0 0B       		.uleb128 0xb
 5489 06f1 793000   		.ascii	"y0\000"
 5490 06f4 01       		.byte	0x1
 5491 06f5 D2       		.byte	0xd2
 5492 06f6 90000000 		.4byte	0x90
 5493 06fa 8E070000 		.4byte	.LLST41
 5494 06fe 0B       		.uleb128 0xb
 5495 06ff 783100   		.ascii	"x1\000"
 5496 0702 01       		.byte	0x1
 5497 0703 D2       		.byte	0xd2
 5498 0704 90000000 		.4byte	0x90
 5499 0708 2B080000 		.4byte	.LLST42
 5500 070c 0B       		.uleb128 0xb
 5501 070d 793100   		.ascii	"y1\000"
 5502 0710 01       		.byte	0x1
 5503 0711 D2       		.byte	0xd2
 5504 0712 90000000 		.4byte	0x90
 5505 0716 99080000 		.4byte	.LLST43
 5506 071a 10       		.uleb128 0x10
 5507 071b 6300     		.ascii	"c\000"
 5508 071d 01       		.byte	0x1
 5509 071e D2       		.byte	0xd2
 5510 071f 2C010000 		.4byte	0x12c
 5511 0723 02       		.byte	0x2
 5512 0724 91       		.byte	0x91
 5513 0725 00       		.sleb128 0
 5514 0726 13       		.uleb128 0x13
 5515 0727 DA000000 		.4byte	.LASF18
ARM GAS  C:\Users\Steve\AppData\Local\Temp\ccroCuoh.s 			page 115


 5516 072b 01       		.byte	0x1
 5517 072c D2       		.byte	0xd2
 5518 072d C4010000 		.4byte	0x1c4
 5519 0731 02       		.byte	0x2
 5520 0732 91       		.byte	0x91
 5521 0733 04       		.sleb128 4
 5522 0734 14       		.uleb128 0x14
 5523 0735 BE010000 		.4byte	.LASF32
 5524 0739 01       		.byte	0x1
 5525 073a D4       		.byte	0xd4
 5526 073b 90000000 		.4byte	0x90
 5527 073f 01       		.byte	0x1
 5528 0740 59       		.byte	0x59
 5529 0741 0D       		.uleb128 0xd
 5530 0742 647800   		.ascii	"dx\000"
 5531 0745 01       		.byte	0x1
 5532 0746 DF       		.byte	0xdf
 5533 0747 90000000 		.4byte	0x90
 5534 074b E6080000 		.4byte	.LLST44
 5535 074f 0D       		.uleb128 0xd
 5536 0750 647900   		.ascii	"dy\000"
 5537 0753 01       		.byte	0x1
 5538 0754 DF       		.byte	0xdf
 5539 0755 90000000 		.4byte	0x90
 5540 0759 0F090000 		.4byte	.LLST45
 5541 075d 0D       		.uleb128 0xd
 5542 075e 65727200 		.ascii	"err\000"
 5543 0762 01       		.byte	0x1
 5544 0763 E3       		.byte	0xe3
 5545 0764 90000000 		.4byte	0x90
 5546 0768 22090000 		.4byte	.LLST46
 5547 076c 0E       		.uleb128 0xe
 5548 076d 6A020000 		.4byte	.LASF33
 5549 0771 01       		.byte	0x1
 5550 0772 E4       		.byte	0xe4
 5551 0773 90000000 		.4byte	0x90
 5552 0777 83090000 		.4byte	.LLST47
 5553 077b 15       		.uleb128 0x15
 5554 077c 94000000 		.4byte	.LVL101
 5555 0780 CA010000 		.4byte	0x1ca
 5556 0784 9B070000 		.4byte	0x79b
 5557 0788 12       		.uleb128 0x12
 5558 0789 01       		.byte	0x1
 5559 078a 53       		.byte	0x53
 5560 078b 02       		.byte	0x2
 5561 078c 78       		.byte	0x78
 5562 078d 00       		.sleb128 0
 5563 078e 12       		.uleb128 0x12
 5564 078f 01       		.byte	0x1
 5565 0790 51       		.byte	0x51
 5566 0791 02       		.byte	0x2
 5567 0792 75       		.byte	0x75
 5568 0793 00       		.sleb128 0
 5569 0794 12       		.uleb128 0x12
 5570 0795 01       		.byte	0x1
 5571 0796 50       		.byte	0x50
 5572 0797 02       		.byte	0x2
ARM GAS  C:\Users\Steve\AppData\Local\Temp\ccroCuoh.s 			page 116


 5573 0798 74       		.byte	0x74
 5574 0799 00       		.sleb128 0
 5575 079a 00       		.byte	0
 5576 079b 15       		.uleb128 0x15
 5577 079c C6000000 		.4byte	.LVL106
 5578 07a0 CA010000 		.4byte	0x1ca
 5579 07a4 BB070000 		.4byte	0x7bb
 5580 07a8 12       		.uleb128 0x12
 5581 07a9 01       		.byte	0x1
 5582 07aa 53       		.byte	0x53
 5583 07ab 02       		.byte	0x2
 5584 07ac 78       		.byte	0x78
 5585 07ad 00       		.sleb128 0
 5586 07ae 12       		.uleb128 0x12
 5587 07af 01       		.byte	0x1
 5588 07b0 51       		.byte	0x51
 5589 07b1 02       		.byte	0x2
 5590 07b2 75       		.byte	0x75
 5591 07b3 00       		.sleb128 0
 5592 07b4 12       		.uleb128 0x12
 5593 07b5 01       		.byte	0x1
 5594 07b6 50       		.byte	0x50
 5595 07b7 02       		.byte	0x2
 5596 07b8 74       		.byte	0x74
 5597 07b9 00       		.sleb128 0
 5598 07ba 00       		.byte	0
 5599 07bb 15       		.uleb128 0x15
 5600 07bc F2000000 		.4byte	.LVL111
 5601 07c0 CA010000 		.4byte	0x1ca
 5602 07c4 DB070000 		.4byte	0x7db
 5603 07c8 12       		.uleb128 0x12
 5604 07c9 01       		.byte	0x1
 5605 07ca 53       		.byte	0x53
 5606 07cb 02       		.byte	0x2
 5607 07cc 78       		.byte	0x78
 5608 07cd 00       		.sleb128 0
 5609 07ce 12       		.uleb128 0x12
 5610 07cf 01       		.byte	0x1
 5611 07d0 51       		.byte	0x51
 5612 07d1 02       		.byte	0x2
 5613 07d2 74       		.byte	0x74
 5614 07d3 00       		.sleb128 0
 5615 07d4 12       		.uleb128 0x12
 5616 07d5 01       		.byte	0x1
 5617 07d6 50       		.byte	0x50
 5618 07d7 02       		.byte	0x2
 5619 07d8 75       		.byte	0x75
 5620 07d9 00       		.sleb128 0
 5621 07da 00       		.byte	0
 5622 07db 15       		.uleb128 0x15
 5623 07dc 14010000 		.4byte	.LVL114
 5624 07e0 CA010000 		.4byte	0x1ca
 5625 07e4 FB070000 		.4byte	0x7fb
 5626 07e8 12       		.uleb128 0x12
 5627 07e9 01       		.byte	0x1
 5628 07ea 53       		.byte	0x53
 5629 07eb 02       		.byte	0x2
ARM GAS  C:\Users\Steve\AppData\Local\Temp\ccroCuoh.s 			page 117


 5630 07ec 78       		.byte	0x78
 5631 07ed 00       		.sleb128 0
 5632 07ee 12       		.uleb128 0x12
 5633 07ef 01       		.byte	0x1
 5634 07f0 51       		.byte	0x51
 5635 07f1 02       		.byte	0x2
 5636 07f2 74       		.byte	0x74
 5637 07f3 00       		.sleb128 0
 5638 07f4 12       		.uleb128 0x12
 5639 07f5 01       		.byte	0x1
 5640 07f6 50       		.byte	0x50
 5641 07f7 02       		.byte	0x2
 5642 07f8 75       		.byte	0x75
 5643 07f9 00       		.sleb128 0
 5644 07fa 00       		.byte	0
 5645 07fb 15       		.uleb128 0x15
 5646 07fc 3A010000 		.4byte	.LVL117
 5647 0800 CA010000 		.4byte	0x1ca
 5648 0804 1B080000 		.4byte	0x81b
 5649 0808 12       		.uleb128 0x12
 5650 0809 01       		.byte	0x1
 5651 080a 53       		.byte	0x53
 5652 080b 02       		.byte	0x2
 5653 080c 78       		.byte	0x78
 5654 080d 00       		.sleb128 0
 5655 080e 12       		.uleb128 0x12
 5656 080f 01       		.byte	0x1
 5657 0810 51       		.byte	0x51
 5658 0811 02       		.byte	0x2
 5659 0812 75       		.byte	0x75
 5660 0813 00       		.sleb128 0
 5661 0814 12       		.uleb128 0x12
 5662 0815 01       		.byte	0x1
 5663 0816 50       		.byte	0x50
 5664 0817 02       		.byte	0x2
 5665 0818 74       		.byte	0x74
 5666 0819 00       		.sleb128 0
 5667 081a 00       		.byte	0
 5668 081b 15       		.uleb128 0x15
 5669 081c 68010000 		.4byte	.LVL120
 5670 0820 CA010000 		.4byte	0x1ca
 5671 0824 3B080000 		.4byte	0x83b
 5672 0828 12       		.uleb128 0x12
 5673 0829 01       		.byte	0x1
 5674 082a 53       		.byte	0x53
 5675 082b 02       		.byte	0x2
 5676 082c 78       		.byte	0x78
 5677 082d 00       		.sleb128 0
 5678 082e 12       		.uleb128 0x12
 5679 082f 01       		.byte	0x1
 5680 0830 51       		.byte	0x51
 5681 0831 02       		.byte	0x2
 5682 0832 75       		.byte	0x75
 5683 0833 00       		.sleb128 0
 5684 0834 12       		.uleb128 0x12
 5685 0835 01       		.byte	0x1
 5686 0836 50       		.byte	0x50
ARM GAS  C:\Users\Steve\AppData\Local\Temp\ccroCuoh.s 			page 118


 5687 0837 02       		.byte	0x2
 5688 0838 74       		.byte	0x74
 5689 0839 00       		.sleb128 0
 5690 083a 00       		.byte	0
 5691 083b 15       		.uleb128 0x15
 5692 083c BC010000 		.4byte	.LVL132
 5693 0840 CA010000 		.4byte	0x1ca
 5694 0844 5B080000 		.4byte	0x85b
 5695 0848 12       		.uleb128 0x12
 5696 0849 01       		.byte	0x1
 5697 084a 53       		.byte	0x53
 5698 084b 02       		.byte	0x2
 5699 084c 78       		.byte	0x78
 5700 084d 00       		.sleb128 0
 5701 084e 12       		.uleb128 0x12
 5702 084f 01       		.byte	0x1
 5703 0850 51       		.byte	0x51
 5704 0851 02       		.byte	0x2
 5705 0852 74       		.byte	0x74
 5706 0853 00       		.sleb128 0
 5707 0854 12       		.uleb128 0x12
 5708 0855 01       		.byte	0x1
 5709 0856 50       		.byte	0x50
 5710 0857 02       		.byte	0x2
 5711 0858 75       		.byte	0x75
 5712 0859 00       		.sleb128 0
 5713 085a 00       		.byte	0
 5714 085b 11       		.uleb128 0x11
 5715 085c E4010000 		.4byte	.LVL138
 5716 0860 CA010000 		.4byte	0x1ca
 5717 0864 12       		.uleb128 0x12
 5718 0865 01       		.byte	0x1
 5719 0866 53       		.byte	0x53
 5720 0867 02       		.byte	0x2
 5721 0868 78       		.byte	0x78
 5722 0869 00       		.sleb128 0
 5723 086a 12       		.uleb128 0x12
 5724 086b 01       		.byte	0x1
 5725 086c 51       		.byte	0x51
 5726 086d 02       		.byte	0x2
 5727 086e 74       		.byte	0x74
 5728 086f 00       		.sleb128 0
 5729 0870 12       		.uleb128 0x12
 5730 0871 01       		.byte	0x1
 5731 0872 50       		.byte	0x50
 5732 0873 02       		.byte	0x2
 5733 0874 75       		.byte	0x75
 5734 0875 00       		.sleb128 0
 5735 0876 00       		.byte	0
 5736 0877 00       		.byte	0
 5737 0878 16       		.uleb128 0x16
 5738 0879 01       		.byte	0x1
 5739 087a E6000000 		.4byte	.LASF34
 5740 087e 01       		.byte	0x1
 5741 087f 0101     		.2byte	0x101
 5742 0881 01       		.byte	0x1
 5743 0882 00000000 		.4byte	.LFB40
ARM GAS  C:\Users\Steve\AppData\Local\Temp\ccroCuoh.s 			page 119


 5744 0886 24000000 		.4byte	.LFE40
 5745 088a A3090000 		.4byte	.LLST48
 5746 088e 01       		.byte	0x1
 5747 088f F8080000 		.4byte	0x8f8
 5748 0893 17       		.uleb128 0x17
 5749 0894 7800     		.ascii	"x\000"
 5750 0896 01       		.byte	0x1
 5751 0897 0101     		.2byte	0x101
 5752 0899 90000000 		.4byte	0x90
 5753 089d CF090000 		.4byte	.LLST49
 5754 08a1 17       		.uleb128 0x17
 5755 08a2 7900     		.ascii	"y\000"
 5756 08a4 01       		.byte	0x1
 5757 08a5 0101     		.2byte	0x101
 5758 08a7 90000000 		.4byte	0x90
 5759 08ab F0090000 		.4byte	.LLST50
 5760 08af 17       		.uleb128 0x17
 5761 08b0 6800     		.ascii	"h\000"
 5762 08b2 01       		.byte	0x1
 5763 08b3 0101     		.2byte	0x101
 5764 08b5 90000000 		.4byte	0x90
 5765 08b9 110A0000 		.4byte	.LLST51
 5766 08bd 18       		.uleb128 0x18
 5767 08be 6300     		.ascii	"c\000"
 5768 08c0 01       		.byte	0x1
 5769 08c1 0101     		.2byte	0x101
 5770 08c3 2C010000 		.4byte	0x12c
 5771 08c7 02       		.byte	0x2
 5772 08c8 91       		.byte	0x91
 5773 08c9 6C       		.sleb128 -20
 5774 08ca 19       		.uleb128 0x19
 5775 08cb DA000000 		.4byte	.LASF18
 5776 08cf 01       		.byte	0x1
 5777 08d0 0101     		.2byte	0x101
 5778 08d2 C4010000 		.4byte	0x1c4
 5779 08d6 02       		.byte	0x2
 5780 08d7 91       		.byte	0x91
 5781 08d8 00       		.sleb128 0
 5782 08d9 11       		.uleb128 0x11
 5783 08da 20000000 		.4byte	.LVL144
 5784 08de C8060000 		.4byte	0x6c8
 5785 08e2 12       		.uleb128 0x12
 5786 08e3 01       		.byte	0x1
 5787 08e4 52       		.byte	0x52
 5788 08e5 02       		.byte	0x2
 5789 08e6 74       		.byte	0x74
 5790 08e7 00       		.sleb128 0
 5791 08e8 12       		.uleb128 0x12
 5792 08e9 01       		.byte	0x1
 5793 08ea 50       		.byte	0x50
 5794 08eb 02       		.byte	0x2
 5795 08ec 74       		.byte	0x74
 5796 08ed 00       		.sleb128 0
 5797 08ee 12       		.uleb128 0x12
 5798 08ef 02       		.byte	0x2
 5799 08f0 7D       		.byte	0x7d
 5800 08f1 04       		.sleb128 4
ARM GAS  C:\Users\Steve\AppData\Local\Temp\ccroCuoh.s 			page 120


 5801 08f2 03       		.byte	0x3
 5802 08f3 91       		.byte	0x91
 5803 08f4 00       		.sleb128 0
 5804 08f5 06       		.byte	0x6
 5805 08f6 00       		.byte	0
 5806 08f7 00       		.byte	0
 5807 08f8 16       		.uleb128 0x16
 5808 08f9 01       		.byte	0x1
 5809 08fa B0010000 		.4byte	.LASF35
 5810 08fe 01       		.byte	0x1
 5811 08ff 0701     		.2byte	0x107
 5812 0901 01       		.byte	0x1
 5813 0902 00000000 		.4byte	.LFB41
 5814 0906 24000000 		.4byte	.LFE41
 5815 090a 320A0000 		.4byte	.LLST52
 5816 090e 01       		.byte	0x1
 5817 090f 77090000 		.4byte	0x977
 5818 0913 17       		.uleb128 0x17
 5819 0914 7800     		.ascii	"x\000"
 5820 0916 01       		.byte	0x1
 5821 0917 0701     		.2byte	0x107
 5822 0919 90000000 		.4byte	0x90
 5823 091d 5E0A0000 		.4byte	.LLST53
 5824 0921 17       		.uleb128 0x17
 5825 0922 7900     		.ascii	"y\000"
 5826 0924 01       		.byte	0x1
 5827 0925 0701     		.2byte	0x107
 5828 0927 90000000 		.4byte	0x90
 5829 092b 7F0A0000 		.4byte	.LLST54
 5830 092f 17       		.uleb128 0x17
 5831 0930 7700     		.ascii	"w\000"
 5832 0932 01       		.byte	0x1
 5833 0933 0701     		.2byte	0x107
 5834 0935 90000000 		.4byte	0x90
 5835 0939 A00A0000 		.4byte	.LLST55
 5836 093d 18       		.uleb128 0x18
 5837 093e 6300     		.ascii	"c\000"
 5838 0940 01       		.byte	0x1
 5839 0941 0701     		.2byte	0x107
 5840 0943 2C010000 		.4byte	0x12c
 5841 0947 02       		.byte	0x2
 5842 0948 91       		.byte	0x91
 5843 0949 6C       		.sleb128 -20
 5844 094a 19       		.uleb128 0x19
 5845 094b DA000000 		.4byte	.LASF18
 5846 094f 01       		.byte	0x1
 5847 0950 0701     		.2byte	0x107
 5848 0952 C4010000 		.4byte	0x1c4
 5849 0956 02       		.byte	0x2
 5850 0957 91       		.byte	0x91
 5851 0958 00       		.sleb128 0
 5852 0959 11       		.uleb128 0x11
 5853 095a 20000000 		.4byte	.LVL148
 5854 095e C8060000 		.4byte	0x6c8
 5855 0962 12       		.uleb128 0x12
 5856 0963 01       		.byte	0x1
 5857 0964 53       		.byte	0x53
ARM GAS  C:\Users\Steve\AppData\Local\Temp\ccroCuoh.s 			page 121


 5858 0965 02       		.byte	0x2
 5859 0966 74       		.byte	0x74
 5860 0967 00       		.sleb128 0
 5861 0968 12       		.uleb128 0x12
 5862 0969 01       		.byte	0x1
 5863 096a 51       		.byte	0x51
 5864 096b 02       		.byte	0x2
 5865 096c 74       		.byte	0x74
 5866 096d 00       		.sleb128 0
 5867 096e 12       		.uleb128 0x12
 5868 096f 02       		.byte	0x2
 5869 0970 7D       		.byte	0x7d
 5870 0971 04       		.sleb128 4
 5871 0972 02       		.byte	0x2
 5872 0973 75       		.byte	0x75
 5873 0974 00       		.sleb128 0
 5874 0975 00       		.byte	0
 5875 0976 00       		.byte	0
 5876 0977 0A       		.uleb128 0xa
 5877 0978 01       		.byte	0x1
 5878 0979 F8020000 		.4byte	.LASF36
 5879 097d 01       		.byte	0x1
 5880 097e FA       		.byte	0xfa
 5881 097f 01       		.byte	0x1
 5882 0980 00000000 		.4byte	.LFB39
 5883 0984 6E000000 		.4byte	.LFE39
 5884 0988 C10A0000 		.4byte	.LLST56
 5885 098c 01       		.byte	0x1
 5886 098d 750A0000 		.4byte	0xa75
 5887 0991 0B       		.uleb128 0xb
 5888 0992 7800     		.ascii	"x\000"
 5889 0994 01       		.byte	0x1
 5890 0995 FA       		.byte	0xfa
 5891 0996 37000000 		.4byte	0x37
 5892 099a F90A0000 		.4byte	.LLST57
 5893 099e 0B       		.uleb128 0xb
 5894 099f 7900     		.ascii	"y\000"
 5895 09a1 01       		.byte	0x1
 5896 09a2 FA       		.byte	0xfa
 5897 09a3 37000000 		.4byte	0x37
 5898 09a7 1A0B0000 		.4byte	.LLST58
 5899 09ab 0B       		.uleb128 0xb
 5900 09ac 7700     		.ascii	"w\000"
 5901 09ae 01       		.byte	0x1
 5902 09af FA       		.byte	0xfa
 5903 09b0 37000000 		.4byte	0x37
 5904 09b4 3B0B0000 		.4byte	.LLST59
 5905 09b8 0B       		.uleb128 0xb
 5906 09b9 6800     		.ascii	"h\000"
 5907 09bb 01       		.byte	0x1
 5908 09bc FA       		.byte	0xfa
 5909 09bd 37000000 		.4byte	0x37
 5910 09c1 5C0B0000 		.4byte	.LLST60
 5911 09c5 10       		.uleb128 0x10
 5912 09c6 6300     		.ascii	"c\000"
 5913 09c8 01       		.byte	0x1
 5914 09c9 FA       		.byte	0xfa
ARM GAS  C:\Users\Steve\AppData\Local\Temp\ccroCuoh.s 			page 122


 5915 09ca 2C010000 		.4byte	0x12c
 5916 09ce 02       		.byte	0x2
 5917 09cf 91       		.byte	0x91
 5918 09d0 00       		.sleb128 0
 5919 09d1 13       		.uleb128 0x13
 5920 09d2 DA000000 		.4byte	.LASF18
 5921 09d6 01       		.byte	0x1
 5922 09d7 FA       		.byte	0xfa
 5923 09d8 C4010000 		.4byte	0x1c4
 5924 09dc 02       		.byte	0x2
 5925 09dd 91       		.byte	0x91
 5926 09de 04       		.sleb128 4
 5927 09df 15       		.uleb128 0x15
 5928 09e0 2C000000 		.4byte	.LVL154
 5929 09e4 F8080000 		.4byte	0x8f8
 5930 09e8 060A0000 		.4byte	0xa06
 5931 09ec 12       		.uleb128 0x12
 5932 09ed 01       		.byte	0x1
 5933 09ee 52       		.byte	0x52
 5934 09ef 02       		.byte	0x2
 5935 09f0 7A       		.byte	0x7a
 5936 09f1 00       		.sleb128 0
 5937 09f2 12       		.uleb128 0x12
 5938 09f3 01       		.byte	0x1
 5939 09f4 51       		.byte	0x51
 5940 09f5 02       		.byte	0x2
 5941 09f6 75       		.byte	0x75
 5942 09f7 00       		.sleb128 0
 5943 09f8 12       		.uleb128 0x12
 5944 09f9 01       		.byte	0x1
 5945 09fa 50       		.byte	0x50
 5946 09fb 02       		.byte	0x2
 5947 09fc 76       		.byte	0x76
 5948 09fd 00       		.sleb128 0
 5949 09fe 12       		.uleb128 0x12
 5950 09ff 02       		.byte	0x2
 5951 0a00 7D       		.byte	0x7d
 5952 0a01 00       		.sleb128 0
 5953 0a02 02       		.byte	0x2
 5954 0a03 74       		.byte	0x74
 5955 0a04 00       		.sleb128 0
 5956 0a05 00       		.byte	0
 5957 0a06 15       		.uleb128 0x15
 5958 0a07 40000000 		.4byte	.LVL155
 5959 0a0b F8080000 		.4byte	0x8f8
 5960 0a0f 270A0000 		.4byte	0xa27
 5961 0a13 12       		.uleb128 0x12
 5962 0a14 01       		.byte	0x1
 5963 0a15 52       		.byte	0x52
 5964 0a16 02       		.byte	0x2
 5965 0a17 7A       		.byte	0x7a
 5966 0a18 00       		.sleb128 0
 5967 0a19 12       		.uleb128 0x12
 5968 0a1a 01       		.byte	0x1
 5969 0a1b 50       		.byte	0x50
 5970 0a1c 02       		.byte	0x2
 5971 0a1d 76       		.byte	0x76
ARM GAS  C:\Users\Steve\AppData\Local\Temp\ccroCuoh.s 			page 123


 5972 0a1e 00       		.sleb128 0
 5973 0a1f 12       		.uleb128 0x12
 5974 0a20 02       		.byte	0x2
 5975 0a21 7D       		.byte	0x7d
 5976 0a22 00       		.sleb128 0
 5977 0a23 02       		.byte	0x2
 5978 0a24 74       		.byte	0x74
 5979 0a25 00       		.sleb128 0
 5980 0a26 00       		.byte	0
 5981 0a27 15       		.uleb128 0x15
 5982 0a28 4E000000 		.4byte	.LVL156
 5983 0a2c 78080000 		.4byte	0x878
 5984 0a30 4E0A0000 		.4byte	0xa4e
 5985 0a34 12       		.uleb128 0x12
 5986 0a35 01       		.byte	0x1
 5987 0a36 52       		.byte	0x52
 5988 0a37 02       		.byte	0x2
 5989 0a38 77       		.byte	0x77
 5990 0a39 00       		.sleb128 0
 5991 0a3a 12       		.uleb128 0x12
 5992 0a3b 01       		.byte	0x1
 5993 0a3c 51       		.byte	0x51
 5994 0a3d 02       		.byte	0x2
 5995 0a3e 75       		.byte	0x75
 5996 0a3f 00       		.sleb128 0
 5997 0a40 12       		.uleb128 0x12
 5998 0a41 01       		.byte	0x1
 5999 0a42 50       		.byte	0x50
 6000 0a43 02       		.byte	0x2
 6001 0a44 76       		.byte	0x76
 6002 0a45 00       		.sleb128 0
 6003 0a46 12       		.uleb128 0x12
 6004 0a47 02       		.byte	0x2
 6005 0a48 7D       		.byte	0x7d
 6006 0a49 00       		.sleb128 0
 6007 0a4a 02       		.byte	0x2
 6008 0a4b 74       		.byte	0x74
 6009 0a4c 00       		.sleb128 0
 6010 0a4d 00       		.byte	0
 6011 0a4e 11       		.uleb128 0x11
 6012 0a4f 60000000 		.4byte	.LVL157
 6013 0a53 78080000 		.4byte	0x878
 6014 0a57 12       		.uleb128 0x12
 6015 0a58 01       		.byte	0x1
 6016 0a59 52       		.byte	0x52
 6017 0a5a 02       		.byte	0x2
 6018 0a5b 77       		.byte	0x77
 6019 0a5c 00       		.sleb128 0
 6020 0a5d 12       		.uleb128 0x12
 6021 0a5e 01       		.byte	0x1
 6022 0a5f 51       		.byte	0x51
 6023 0a60 02       		.byte	0x2
 6024 0a61 75       		.byte	0x75
 6025 0a62 00       		.sleb128 0
 6026 0a63 12       		.uleb128 0x12
 6027 0a64 01       		.byte	0x1
 6028 0a65 50       		.byte	0x50
ARM GAS  C:\Users\Steve\AppData\Local\Temp\ccroCuoh.s 			page 124


 6029 0a66 05       		.byte	0x5
 6030 0a67 79       		.byte	0x79
 6031 0a68 00       		.sleb128 0
 6032 0a69 78       		.byte	0x78
 6033 0a6a 00       		.sleb128 0
 6034 0a6b 22       		.byte	0x22
 6035 0a6c 12       		.uleb128 0x12
 6036 0a6d 02       		.byte	0x2
 6037 0a6e 7D       		.byte	0x7d
 6038 0a6f 00       		.sleb128 0
 6039 0a70 02       		.byte	0x2
 6040 0a71 74       		.byte	0x74
 6041 0a72 00       		.sleb128 0
 6042 0a73 00       		.byte	0
 6043 0a74 00       		.byte	0
 6044 0a75 16       		.uleb128 0x16
 6045 0a76 01       		.byte	0x1
 6046 0a77 31030000 		.4byte	.LASF37
 6047 0a7b 01       		.byte	0x1
 6048 0a7c 0D01     		.2byte	0x10d
 6049 0a7e 01       		.byte	0x1
 6050 0a7f 00000000 		.4byte	.LFB42
 6051 0a83 92000000 		.4byte	.LFE42
 6052 0a87 7D0B0000 		.4byte	.LLST61
 6053 0a8b 01       		.byte	0x1
 6054 0a8c 950B0000 		.4byte	0xb95
 6055 0a90 17       		.uleb128 0x17
 6056 0a91 7800     		.ascii	"x\000"
 6057 0a93 01       		.byte	0x1
 6058 0a94 0D01     		.2byte	0x10d
 6059 0a96 90000000 		.4byte	0x90
 6060 0a9a B50B0000 		.4byte	.LLST62
 6061 0a9e 17       		.uleb128 0x17
 6062 0a9f 7900     		.ascii	"y\000"
 6063 0aa1 01       		.byte	0x1
 6064 0aa2 0D01     		.2byte	0x10d
 6065 0aa4 90000000 		.4byte	0x90
 6066 0aa8 D60B0000 		.4byte	.LLST63
 6067 0aac 17       		.uleb128 0x17
 6068 0aad 7700     		.ascii	"w\000"
 6069 0aaf 01       		.byte	0x1
 6070 0ab0 0D01     		.2byte	0x10d
 6071 0ab2 90000000 		.4byte	0x90
 6072 0ab6 F70B0000 		.4byte	.LLST64
 6073 0aba 17       		.uleb128 0x17
 6074 0abb 6800     		.ascii	"h\000"
 6075 0abd 01       		.byte	0x1
 6076 0abe 0D01     		.2byte	0x10d
 6077 0ac0 90000000 		.4byte	0x90
 6078 0ac4 180C0000 		.4byte	.LLST65
 6079 0ac8 18       		.uleb128 0x18
 6080 0ac9 6300     		.ascii	"c\000"
 6081 0acb 01       		.byte	0x1
 6082 0acc 0D01     		.2byte	0x10d
 6083 0ace 2C010000 		.4byte	0x12c
 6084 0ad2 02       		.byte	0x2
 6085 0ad3 91       		.byte	0x91
ARM GAS  C:\Users\Steve\AppData\Local\Temp\ccroCuoh.s 			page 125


 6086 0ad4 00       		.sleb128 0
 6087 0ad5 19       		.uleb128 0x19
 6088 0ad6 DA000000 		.4byte	.LASF18
 6089 0ada 01       		.byte	0x1
 6090 0adb 0D01     		.2byte	0x10d
 6091 0add C4010000 		.4byte	0x1c4
 6092 0ae1 02       		.byte	0x2
 6093 0ae2 91       		.byte	0x91
 6094 0ae3 04       		.sleb128 4
 6095 0ae4 1A       		.uleb128 0x1a
 6096 0ae5 6900     		.ascii	"i\000"
 6097 0ae7 01       		.byte	0x1
 6098 0ae8 1001     		.2byte	0x110
 6099 0aea 90000000 		.4byte	0x90
 6100 0aee 390C0000 		.4byte	.LLST66
 6101 0af2 15       		.uleb128 0x15
 6102 0af3 38000000 		.4byte	.LVL163
 6103 0af7 78080000 		.4byte	0x878
 6104 0afb 190B0000 		.4byte	0xb19
 6105 0aff 12       		.uleb128 0x12
 6106 0b00 01       		.byte	0x1
 6107 0b01 52       		.byte	0x52
 6108 0b02 02       		.byte	0x2
 6109 0b03 76       		.byte	0x76
 6110 0b04 00       		.sleb128 0
 6111 0b05 12       		.uleb128 0x12
 6112 0b06 01       		.byte	0x1
 6113 0b07 51       		.byte	0x51
 6114 0b08 02       		.byte	0x2
 6115 0b09 77       		.byte	0x77
 6116 0b0a 00       		.sleb128 0
 6117 0b0b 12       		.uleb128 0x12
 6118 0b0c 01       		.byte	0x1
 6119 0b0d 50       		.byte	0x50
 6120 0b0e 02       		.byte	0x2
 6121 0b0f 75       		.byte	0x75
 6122 0b10 00       		.sleb128 0
 6123 0b11 12       		.uleb128 0x12
 6124 0b12 02       		.byte	0x2
 6125 0b13 7D       		.byte	0x7d
 6126 0b14 00       		.sleb128 0
 6127 0b15 02       		.byte	0x2
 6128 0b16 78       		.byte	0x78
 6129 0b17 00       		.sleb128 0
 6130 0b18 00       		.byte	0
 6131 0b19 15       		.uleb128 0x15
 6132 0b1a 56000000 		.4byte	.LVL164
 6133 0b1e 78080000 		.4byte	0x878
 6134 0b22 400B0000 		.4byte	0xb40
 6135 0b26 12       		.uleb128 0x12
 6136 0b27 01       		.byte	0x1
 6137 0b28 52       		.byte	0x52
 6138 0b29 02       		.byte	0x2
 6139 0b2a 76       		.byte	0x76
 6140 0b2b 00       		.sleb128 0
 6141 0b2c 12       		.uleb128 0x12
 6142 0b2d 01       		.byte	0x1
ARM GAS  C:\Users\Steve\AppData\Local\Temp\ccroCuoh.s 			page 126


 6143 0b2e 51       		.byte	0x51
 6144 0b2f 02       		.byte	0x2
 6145 0b30 77       		.byte	0x77
 6146 0b31 00       		.sleb128 0
 6147 0b32 12       		.uleb128 0x12
 6148 0b33 01       		.byte	0x1
 6149 0b34 50       		.byte	0x50
 6150 0b35 02       		.byte	0x2
 6151 0b36 75       		.byte	0x75
 6152 0b37 01       		.sleb128 1
 6153 0b38 12       		.uleb128 0x12
 6154 0b39 02       		.byte	0x2
 6155 0b3a 7D       		.byte	0x7d
 6156 0b3b 00       		.sleb128 0
 6157 0b3c 02       		.byte	0x2
 6158 0b3d 78       		.byte	0x78
 6159 0b3e 00       		.sleb128 0
 6160 0b3f 00       		.byte	0
 6161 0b40 15       		.uleb128 0x15
 6162 0b41 6E000000 		.4byte	.LVL165
 6163 0b45 78080000 		.4byte	0x878
 6164 0b49 6C0B0000 		.4byte	0xb6c
 6165 0b4d 12       		.uleb128 0x12
 6166 0b4e 01       		.byte	0x1
 6167 0b4f 52       		.byte	0x52
 6168 0b50 02       		.byte	0x2
 6169 0b51 76       		.byte	0x76
 6170 0b52 00       		.sleb128 0
 6171 0b53 12       		.uleb128 0x12
 6172 0b54 01       		.byte	0x1
 6173 0b55 51       		.byte	0x51
 6174 0b56 02       		.byte	0x2
 6175 0b57 77       		.byte	0x77
 6176 0b58 00       		.sleb128 0
 6177 0b59 12       		.uleb128 0x12
 6178 0b5a 01       		.byte	0x1
 6179 0b5b 50       		.byte	0x50
 6180 0b5c 07       		.byte	0x7
 6181 0b5d 74       		.byte	0x74
 6182 0b5e 00       		.sleb128 0
 6183 0b5f 75       		.byte	0x75
 6184 0b60 00       		.sleb128 0
 6185 0b61 22       		.byte	0x22
 6186 0b62 31       		.byte	0x31
 6187 0b63 1C       		.byte	0x1c
 6188 0b64 12       		.uleb128 0x12
 6189 0b65 02       		.byte	0x2
 6190 0b66 7D       		.byte	0x7d
 6191 0b67 00       		.sleb128 0
 6192 0b68 02       		.byte	0x2
 6193 0b69 78       		.byte	0x78
 6194 0b6a 00       		.sleb128 0
 6195 0b6b 00       		.byte	0
 6196 0b6c 11       		.uleb128 0x11
 6197 0b6d 82000000 		.4byte	.LVL166
 6198 0b71 78080000 		.4byte	0x878
 6199 0b75 12       		.uleb128 0x12
ARM GAS  C:\Users\Steve\AppData\Local\Temp\ccroCuoh.s 			page 127


 6200 0b76 01       		.byte	0x1
 6201 0b77 52       		.byte	0x52
 6202 0b78 02       		.byte	0x2
 6203 0b79 76       		.byte	0x76
 6204 0b7a 00       		.sleb128 0
 6205 0b7b 12       		.uleb128 0x12
 6206 0b7c 01       		.byte	0x1
 6207 0b7d 51       		.byte	0x51
 6208 0b7e 02       		.byte	0x2
 6209 0b7f 77       		.byte	0x77
 6210 0b80 00       		.sleb128 0
 6211 0b81 12       		.uleb128 0x12
 6212 0b82 01       		.byte	0x1
 6213 0b83 50       		.byte	0x50
 6214 0b84 07       		.byte	0x7
 6215 0b85 74       		.byte	0x74
 6216 0b86 00       		.sleb128 0
 6217 0b87 75       		.byte	0x75
 6218 0b88 00       		.sleb128 0
 6219 0b89 22       		.byte	0x22
 6220 0b8a 31       		.byte	0x31
 6221 0b8b 1C       		.byte	0x1c
 6222 0b8c 12       		.uleb128 0x12
 6223 0b8d 02       		.byte	0x2
 6224 0b8e 7D       		.byte	0x7d
 6225 0b8f 00       		.sleb128 0
 6226 0b90 02       		.byte	0x2
 6227 0b91 78       		.byte	0x78
 6228 0b92 00       		.sleb128 0
 6229 0b93 00       		.byte	0
 6230 0b94 00       		.byte	0
 6231 0b95 16       		.uleb128 0x16
 6232 0b96 01       		.byte	0x1
 6233 0b97 70020000 		.4byte	.LASF38
 6234 0b9b 01       		.byte	0x1
 6235 0b9c 1601     		.2byte	0x116
 6236 0b9e 01       		.byte	0x1
 6237 0b9f 00000000 		.4byte	.LFB43
 6238 0ba3 20000000 		.4byte	.LFE43
 6239 0ba7 570C0000 		.4byte	.LLST67
 6240 0bab 01       		.byte	0x1
 6241 0bac F50B0000 		.4byte	0xbf5
 6242 0bb0 18       		.uleb128 0x18
 6243 0bb1 6300     		.ascii	"c\000"
 6244 0bb3 01       		.byte	0x1
 6245 0bb4 1601     		.2byte	0x116
 6246 0bb6 2C010000 		.4byte	0x12c
 6247 0bba 02       		.byte	0x2
 6248 0bbb 91       		.byte	0x91
 6249 0bbc 74       		.sleb128 -12
 6250 0bbd 1B       		.uleb128 0x1b
 6251 0bbe DA000000 		.4byte	.LASF18
 6252 0bc2 01       		.byte	0x1
 6253 0bc3 1601     		.2byte	0x116
 6254 0bc5 C4010000 		.4byte	0x1c4
 6255 0bc9 830C0000 		.4byte	.LLST68
 6256 0bcd 11       		.uleb128 0x11
ARM GAS  C:\Users\Steve\AppData\Local\Temp\ccroCuoh.s 			page 128


 6257 0bce 1C000000 		.4byte	.LVL169
 6258 0bd2 750A0000 		.4byte	0xa75
 6259 0bd6 12       		.uleb128 0x12
 6260 0bd7 01       		.byte	0x1
 6261 0bd8 53       		.byte	0x53
 6262 0bd9 01       		.byte	0x1
 6263 0bda 40       		.byte	0x40
 6264 0bdb 12       		.uleb128 0x12
 6265 0bdc 01       		.byte	0x1
 6266 0bdd 52       		.byte	0x52
 6267 0bde 02       		.byte	0x2
 6268 0bdf 08       		.byte	0x8
 6269 0be0 20       		.byte	0x20
 6270 0be1 12       		.uleb128 0x12
 6271 0be2 01       		.byte	0x1
 6272 0be3 51       		.byte	0x51
 6273 0be4 01       		.byte	0x1
 6274 0be5 30       		.byte	0x30
 6275 0be6 12       		.uleb128 0x12
 6276 0be7 01       		.byte	0x1
 6277 0be8 50       		.byte	0x50
 6278 0be9 01       		.byte	0x1
 6279 0bea 30       		.byte	0x30
 6280 0beb 12       		.uleb128 0x12
 6281 0bec 02       		.byte	0x2
 6282 0bed 7D       		.byte	0x7d
 6283 0bee 04       		.sleb128 4
 6284 0bef 03       		.byte	0x3
 6285 0bf0 F3       		.byte	0xf3
 6286 0bf1 01       		.uleb128 0x1
 6287 0bf2 51       		.byte	0x51
 6288 0bf3 00       		.byte	0
 6289 0bf4 00       		.byte	0
 6290 0bf5 16       		.uleb128 0x16
 6291 0bf6 01       		.byte	0x1
 6292 0bf7 3F020000 		.4byte	.LASF39
 6293 0bfb 01       		.byte	0x1
 6294 0bfc 1B01     		.2byte	0x11b
 6295 0bfe 01       		.byte	0x1
 6296 0bff 00000000 		.4byte	.LFB44
 6297 0c03 7E000000 		.4byte	.LFE44
 6298 0c07 B00C0000 		.4byte	.LLST69
 6299 0c0b 01       		.byte	0x1
 6300 0c0c 0B0D0000 		.4byte	0xd0b
 6301 0c10 17       		.uleb128 0x17
 6302 0c11 783000   		.ascii	"x0\000"
 6303 0c14 01       		.byte	0x1
 6304 0c15 1B01     		.2byte	0x11b
 6305 0c17 90000000 		.4byte	0x90
 6306 0c1b E80C0000 		.4byte	.LLST70
 6307 0c1f 17       		.uleb128 0x17
 6308 0c20 793000   		.ascii	"y0\000"
 6309 0c23 01       		.byte	0x1
 6310 0c24 1B01     		.2byte	0x11b
 6311 0c26 90000000 		.4byte	0x90
 6312 0c2a 090D0000 		.4byte	.LLST71
 6313 0c2e 17       		.uleb128 0x17
ARM GAS  C:\Users\Steve\AppData\Local\Temp\ccroCuoh.s 			page 129


 6314 0c2f 783100   		.ascii	"x1\000"
 6315 0c32 01       		.byte	0x1
 6316 0c33 1B01     		.2byte	0x11b
 6317 0c35 90000000 		.4byte	0x90
 6318 0c39 2A0D0000 		.4byte	.LLST72
 6319 0c3d 17       		.uleb128 0x17
 6320 0c3e 793100   		.ascii	"y1\000"
 6321 0c41 01       		.byte	0x1
 6322 0c42 1B01     		.2byte	0x11b
 6323 0c44 90000000 		.4byte	0x90
 6324 0c48 4B0D0000 		.4byte	.LLST73
 6325 0c4c 18       		.uleb128 0x18
 6326 0c4d 783200   		.ascii	"x2\000"
 6327 0c50 01       		.byte	0x1
 6328 0c51 1C01     		.2byte	0x11c
 6329 0c53 90000000 		.4byte	0x90
 6330 0c57 02       		.byte	0x2
 6331 0c58 91       		.byte	0x91
 6332 0c59 00       		.sleb128 0
 6333 0c5a 18       		.uleb128 0x18
 6334 0c5b 793200   		.ascii	"y2\000"
 6335 0c5e 01       		.byte	0x1
 6336 0c5f 1C01     		.2byte	0x11c
 6337 0c61 90000000 		.4byte	0x90
 6338 0c65 02       		.byte	0x2
 6339 0c66 91       		.byte	0x91
 6340 0c67 04       		.sleb128 4
 6341 0c68 18       		.uleb128 0x18
 6342 0c69 6300     		.ascii	"c\000"
 6343 0c6b 01       		.byte	0x1
 6344 0c6c 1C01     		.2byte	0x11c
 6345 0c6e 2C010000 		.4byte	0x12c
 6346 0c72 02       		.byte	0x2
 6347 0c73 91       		.byte	0x91
 6348 0c74 08       		.sleb128 8
 6349 0c75 19       		.uleb128 0x19
 6350 0c76 DA000000 		.4byte	.LASF18
 6351 0c7a 01       		.byte	0x1
 6352 0c7b 1C01     		.2byte	0x11c
 6353 0c7d C4010000 		.4byte	0x1c4
 6354 0c81 02       		.byte	0x2
 6355 0c82 91       		.byte	0x91
 6356 0c83 0C       		.sleb128 12
 6357 0c84 15       		.uleb128 0x15
 6358 0c85 3E000000 		.4byte	.LVL175
 6359 0c89 C8060000 		.4byte	0x6c8
 6360 0c8d B20C0000 		.4byte	0xcb2
 6361 0c91 12       		.uleb128 0x12
 6362 0c92 01       		.byte	0x1
 6363 0c93 53       		.byte	0x53
 6364 0c94 02       		.byte	0x2
 6365 0c95 7A       		.byte	0x7a
 6366 0c96 00       		.sleb128 0
 6367 0c97 12       		.uleb128 0x12
 6368 0c98 01       		.byte	0x1
 6369 0c99 52       		.byte	0x52
 6370 0c9a 02       		.byte	0x2
ARM GAS  C:\Users\Steve\AppData\Local\Temp\ccroCuoh.s 			page 130


 6371 0c9b 7B       		.byte	0x7b
 6372 0c9c 00       		.sleb128 0
 6373 0c9d 12       		.uleb128 0x12
 6374 0c9e 01       		.byte	0x1
 6375 0c9f 51       		.byte	0x51
 6376 0ca0 02       		.byte	0x2
 6377 0ca1 76       		.byte	0x76
 6378 0ca2 00       		.sleb128 0
 6379 0ca3 12       		.uleb128 0x12
 6380 0ca4 01       		.byte	0x1
 6381 0ca5 50       		.byte	0x50
 6382 0ca6 02       		.byte	0x2
 6383 0ca7 77       		.byte	0x77
 6384 0ca8 00       		.sleb128 0
 6385 0ca9 12       		.uleb128 0x12
 6386 0caa 02       		.byte	0x2
 6387 0cab 7D       		.byte	0x7d
 6388 0cac 04       		.sleb128 4
 6389 0cad 03       		.byte	0x3
 6390 0cae 91       		.byte	0x91
 6391 0caf 0C       		.sleb128 12
 6392 0cb0 06       		.byte	0x6
 6393 0cb1 00       		.byte	0
 6394 0cb2 15       		.uleb128 0x15
 6395 0cb3 58000000 		.4byte	.LVL176
 6396 0cb7 C8060000 		.4byte	0x6c8
 6397 0cbb E00C0000 		.4byte	0xce0
 6398 0cbf 12       		.uleb128 0x12
 6399 0cc0 01       		.byte	0x1
 6400 0cc1 53       		.byte	0x53
 6401 0cc2 02       		.byte	0x2
 6402 0cc3 75       		.byte	0x75
 6403 0cc4 00       		.sleb128 0
 6404 0cc5 12       		.uleb128 0x12
 6405 0cc6 01       		.byte	0x1
 6406 0cc7 52       		.byte	0x52
 6407 0cc8 02       		.byte	0x2
 6408 0cc9 79       		.byte	0x79
 6409 0cca 00       		.sleb128 0
 6410 0ccb 12       		.uleb128 0x12
 6411 0ccc 01       		.byte	0x1
 6412 0ccd 51       		.byte	0x51
 6413 0cce 02       		.byte	0x2
 6414 0ccf 7A       		.byte	0x7a
 6415 0cd0 00       		.sleb128 0
 6416 0cd1 12       		.uleb128 0x12
 6417 0cd2 01       		.byte	0x1
 6418 0cd3 50       		.byte	0x50
 6419 0cd4 02       		.byte	0x2
 6420 0cd5 7B       		.byte	0x7b
 6421 0cd6 00       		.sleb128 0
 6422 0cd7 12       		.uleb128 0x12
 6423 0cd8 02       		.byte	0x2
 6424 0cd9 7D       		.byte	0x7d
 6425 0cda 04       		.sleb128 4
 6426 0cdb 03       		.byte	0x3
 6427 0cdc 91       		.byte	0x91
ARM GAS  C:\Users\Steve\AppData\Local\Temp\ccroCuoh.s 			page 131


 6428 0cdd 0C       		.sleb128 12
 6429 0cde 06       		.byte	0x6
 6430 0cdf 00       		.byte	0
 6431 0ce0 11       		.uleb128 0x11
 6432 0ce1 72000000 		.4byte	.LVL177
 6433 0ce5 C8060000 		.4byte	0x6c8
 6434 0ce9 12       		.uleb128 0x12
 6435 0cea 01       		.byte	0x1
 6436 0ceb 53       		.byte	0x53
 6437 0cec 02       		.byte	0x2
 6438 0ced 76       		.byte	0x76
 6439 0cee 00       		.sleb128 0
 6440 0cef 12       		.uleb128 0x12
 6441 0cf0 01       		.byte	0x1
 6442 0cf1 52       		.byte	0x52
 6443 0cf2 02       		.byte	0x2
 6444 0cf3 77       		.byte	0x77
 6445 0cf4 00       		.sleb128 0
 6446 0cf5 12       		.uleb128 0x12
 6447 0cf6 01       		.byte	0x1
 6448 0cf7 51       		.byte	0x51
 6449 0cf8 02       		.byte	0x2
 6450 0cf9 75       		.byte	0x75
 6451 0cfa 00       		.sleb128 0
 6452 0cfb 12       		.uleb128 0x12
 6453 0cfc 01       		.byte	0x1
 6454 0cfd 50       		.byte	0x50
 6455 0cfe 02       		.byte	0x2
 6456 0cff 79       		.byte	0x79
 6457 0d00 00       		.sleb128 0
 6458 0d01 12       		.uleb128 0x12
 6459 0d02 02       		.byte	0x2
 6460 0d03 7D       		.byte	0x7d
 6461 0d04 04       		.sleb128 4
 6462 0d05 03       		.byte	0x3
 6463 0d06 91       		.byte	0x91
 6464 0d07 0C       		.sleb128 12
 6465 0d08 06       		.byte	0x6
 6466 0d09 00       		.byte	0
 6467 0d0a 00       		.byte	0
 6468 0d0b 16       		.uleb128 0x16
 6469 0d0c 01       		.byte	0x1
 6470 0d0d 44000000 		.4byte	.LASF40
 6471 0d11 01       		.byte	0x1
 6472 0d12 2301     		.2byte	0x123
 6473 0d14 01       		.byte	0x1
 6474 0d15 00000000 		.4byte	.LFB45
 6475 0d19 88000000 		.4byte	.LFE45
 6476 0d1d 6C0D0000 		.4byte	.LLST74
 6477 0d21 01       		.byte	0x1
 6478 0d22 F10D0000 		.4byte	0xdf1
 6479 0d26 17       		.uleb128 0x17
 6480 0d27 783000   		.ascii	"x0\000"
 6481 0d2a 01       		.byte	0x1
 6482 0d2b 2301     		.2byte	0x123
 6483 0d2d 90000000 		.4byte	0x90
 6484 0d31 A40D0000 		.4byte	.LLST75
ARM GAS  C:\Users\Steve\AppData\Local\Temp\ccroCuoh.s 			page 132


 6485 0d35 17       		.uleb128 0x17
 6486 0d36 793000   		.ascii	"y0\000"
 6487 0d39 01       		.byte	0x1
 6488 0d3a 2301     		.2byte	0x123
 6489 0d3c 90000000 		.4byte	0x90
 6490 0d40 DD0D0000 		.4byte	.LLST76
 6491 0d44 18       		.uleb128 0x18
 6492 0d45 6300     		.ascii	"c\000"
 6493 0d47 01       		.byte	0x1
 6494 0d48 2301     		.2byte	0x123
 6495 0d4a 2C010000 		.4byte	0x12c
 6496 0d4e 02       		.byte	0x2
 6497 0d4f 91       		.byte	0x91
 6498 0d50 5C       		.sleb128 -36
 6499 0d51 1B       		.uleb128 0x1b
 6500 0d52 DA000000 		.4byte	.LASF18
 6501 0d56 01       		.byte	0x1
 6502 0d57 2301     		.2byte	0x123
 6503 0d59 C4010000 		.4byte	0x1c4
 6504 0d5d FE0D0000 		.4byte	.LLST77
 6505 0d61 15       		.uleb128 0x15
 6506 0d62 44000000 		.4byte	.LVL182
 6507 0d66 C8060000 		.4byte	0x6c8
 6508 0d6a 8E0D0000 		.4byte	0xd8e
 6509 0d6e 12       		.uleb128 0x12
 6510 0d6f 01       		.byte	0x1
 6511 0d70 53       		.byte	0x53
 6512 0d71 02       		.byte	0x2
 6513 0d72 79       		.byte	0x79
 6514 0d73 00       		.sleb128 0
 6515 0d74 12       		.uleb128 0x12
 6516 0d75 01       		.byte	0x1
 6517 0d76 52       		.byte	0x52
 6518 0d77 02       		.byte	0x2
 6519 0d78 78       		.byte	0x78
 6520 0d79 00       		.sleb128 0
 6521 0d7a 12       		.uleb128 0x12
 6522 0d7b 01       		.byte	0x1
 6523 0d7c 51       		.byte	0x51
 6524 0d7d 02       		.byte	0x2
 6525 0d7e 76       		.byte	0x76
 6526 0d7f 02       		.sleb128 2
 6527 0d80 12       		.uleb128 0x12
 6528 0d81 01       		.byte	0x1
 6529 0d82 50       		.byte	0x50
 6530 0d83 02       		.byte	0x2
 6531 0d84 75       		.byte	0x75
 6532 0d85 01       		.sleb128 1
 6533 0d86 12       		.uleb128 0x12
 6534 0d87 02       		.byte	0x2
 6535 0d88 7D       		.byte	0x7d
 6536 0d89 04       		.sleb128 4
 6537 0d8a 02       		.byte	0x2
 6538 0d8b 77       		.byte	0x77
 6539 0d8c 00       		.sleb128 0
 6540 0d8d 00       		.byte	0
 6541 0d8e 15       		.uleb128 0x15
ARM GAS  C:\Users\Steve\AppData\Local\Temp\ccroCuoh.s 			page 133


 6542 0d8f 60000000 		.4byte	.LVL183
 6543 0d93 C8060000 		.4byte	0x6c8
 6544 0d97 BB0D0000 		.4byte	0xdbb
 6545 0d9b 12       		.uleb128 0x12
 6546 0d9c 01       		.byte	0x1
 6547 0d9d 53       		.byte	0x53
 6548 0d9e 02       		.byte	0x2
 6549 0d9f 76       		.byte	0x76
 6550 0da0 00       		.sleb128 0
 6551 0da1 12       		.uleb128 0x12
 6552 0da2 01       		.byte	0x1
 6553 0da3 52       		.byte	0x52
 6554 0da4 02       		.byte	0x2
 6555 0da5 78       		.byte	0x78
 6556 0da6 00       		.sleb128 0
 6557 0da7 12       		.uleb128 0x12
 6558 0da8 01       		.byte	0x1
 6559 0da9 51       		.byte	0x51
 6560 0daa 02       		.byte	0x2
 6561 0dab 79       		.byte	0x79
 6562 0dac 00       		.sleb128 0
 6563 0dad 12       		.uleb128 0x12
 6564 0dae 01       		.byte	0x1
 6565 0daf 50       		.byte	0x50
 6566 0db0 02       		.byte	0x2
 6567 0db1 78       		.byte	0x78
 6568 0db2 00       		.sleb128 0
 6569 0db3 12       		.uleb128 0x12
 6570 0db4 02       		.byte	0x2
 6571 0db5 7D       		.byte	0x7d
 6572 0db6 04       		.sleb128 4
 6573 0db7 02       		.byte	0x2
 6574 0db8 77       		.byte	0x77
 6575 0db9 00       		.sleb128 0
 6576 0dba 00       		.byte	0
 6577 0dbb 11       		.uleb128 0x11
 6578 0dbc 7C000000 		.4byte	.LVL186
 6579 0dc0 C8060000 		.4byte	0x6c8
 6580 0dc4 12       		.uleb128 0x12
 6581 0dc5 01       		.byte	0x1
 6582 0dc6 53       		.byte	0x53
 6583 0dc7 02       		.byte	0x2
 6584 0dc8 76       		.byte	0x76
 6585 0dc9 00       		.sleb128 0
 6586 0dca 12       		.uleb128 0x12
 6587 0dcb 01       		.byte	0x1
 6588 0dcc 52       		.byte	0x52
 6589 0dcd 08       		.byte	0x8
 6590 0dce F3       		.byte	0xf3
 6591 0dcf 01       		.uleb128 0x1
 6592 0dd0 50       		.byte	0x50
 6593 0dd1 08       		.byte	0x8
 6594 0dd2 FF       		.byte	0xff
 6595 0dd3 1A       		.byte	0x1a
 6596 0dd4 23       		.byte	0x23
 6597 0dd5 04       		.uleb128 0x4
 6598 0dd6 12       		.uleb128 0x12
ARM GAS  C:\Users\Steve\AppData\Local\Temp\ccroCuoh.s 			page 134


 6599 0dd7 01       		.byte	0x1
 6600 0dd8 51       		.byte	0x51
 6601 0dd9 02       		.byte	0x2
 6602 0dda 76       		.byte	0x76
 6603 0ddb 00       		.sleb128 0
 6604 0ddc 12       		.uleb128 0x12
 6605 0ddd 01       		.byte	0x1
 6606 0dde 50       		.byte	0x50
 6607 0ddf 08       		.byte	0x8
 6608 0de0 F3       		.byte	0xf3
 6609 0de1 01       		.uleb128 0x1
 6610 0de2 50       		.byte	0x50
 6611 0de3 08       		.byte	0x8
 6612 0de4 FF       		.byte	0xff
 6613 0de5 1A       		.byte	0x1a
 6614 0de6 23       		.byte	0x23
 6615 0de7 02       		.uleb128 0x2
 6616 0de8 12       		.uleb128 0x12
 6617 0de9 02       		.byte	0x2
 6618 0dea 7D       		.byte	0x7d
 6619 0deb 04       		.sleb128 4
 6620 0dec 02       		.byte	0x2
 6621 0ded 77       		.byte	0x77
 6622 0dee 00       		.sleb128 0
 6623 0def 00       		.byte	0
 6624 0df0 00       		.byte	0
 6625 0df1 16       		.uleb128 0x16
 6626 0df2 01       		.byte	0x1
 6627 0df3 8D010000 		.4byte	.LASF41
 6628 0df7 01       		.byte	0x1
 6629 0df8 2A01     		.2byte	0x12a
 6630 0dfa 01       		.byte	0x1
 6631 0dfb 00000000 		.4byte	.LFB46
 6632 0dff 8A000000 		.4byte	.LFE46
 6633 0e03 2A0E0000 		.4byte	.LLST78
 6634 0e07 01       		.byte	0x1
 6635 0e08 220F0000 		.4byte	0xf22
 6636 0e0c 17       		.uleb128 0x17
 6637 0e0d 783000   		.ascii	"x0\000"
 6638 0e10 01       		.byte	0x1
 6639 0e11 2A01     		.2byte	0x12a
 6640 0e13 90000000 		.4byte	0x90
 6641 0e17 620E0000 		.4byte	.LLST79
 6642 0e1b 17       		.uleb128 0x17
 6643 0e1c 793000   		.ascii	"y0\000"
 6644 0e1f 01       		.byte	0x1
 6645 0e20 2A01     		.2byte	0x12a
 6646 0e22 90000000 		.4byte	0x90
 6647 0e26 830E0000 		.4byte	.LLST80
 6648 0e2a 18       		.uleb128 0x18
 6649 0e2b 6300     		.ascii	"c\000"
 6650 0e2d 01       		.byte	0x1
 6651 0e2e 2A01     		.2byte	0x12a
 6652 0e30 2C010000 		.4byte	0x12c
 6653 0e34 02       		.byte	0x2
 6654 0e35 91       		.byte	0x91
 6655 0e36 5C       		.sleb128 -36
ARM GAS  C:\Users\Steve\AppData\Local\Temp\ccroCuoh.s 			page 135


 6656 0e37 1B       		.uleb128 0x1b
 6657 0e38 DA000000 		.4byte	.LASF18
 6658 0e3c 01       		.byte	0x1
 6659 0e3d 2A01     		.2byte	0x12a
 6660 0e3f C4010000 		.4byte	0x1c4
 6661 0e43 BC0E0000 		.4byte	.LLST81
 6662 0e47 15       		.uleb128 0x15
 6663 0e48 24000000 		.4byte	.LVL191
 6664 0e4c CA010000 		.4byte	0x1ca
 6665 0e50 670E0000 		.4byte	0xe67
 6666 0e54 12       		.uleb128 0x12
 6667 0e55 01       		.byte	0x1
 6668 0e56 53       		.byte	0x53
 6669 0e57 02       		.byte	0x2
 6670 0e58 74       		.byte	0x74
 6671 0e59 00       		.sleb128 0
 6672 0e5a 12       		.uleb128 0x12
 6673 0e5b 01       		.byte	0x1
 6674 0e5c 51       		.byte	0x51
 6675 0e5d 02       		.byte	0x2
 6676 0e5e 78       		.byte	0x78
 6677 0e5f 00       		.sleb128 0
 6678 0e60 12       		.uleb128 0x12
 6679 0e61 01       		.byte	0x1
 6680 0e62 50       		.byte	0x50
 6681 0e63 02       		.byte	0x2
 6682 0e64 75       		.byte	0x75
 6683 0e65 00       		.sleb128 0
 6684 0e66 00       		.byte	0
 6685 0e67 15       		.uleb128 0x15
 6686 0e68 3C000000 		.4byte	.LVL192
 6687 0e6c F8080000 		.4byte	0x8f8
 6688 0e70 8D0E0000 		.4byte	0xe8d
 6689 0e74 12       		.uleb128 0x12
 6690 0e75 01       		.byte	0x1
 6691 0e76 52       		.byte	0x52
 6692 0e77 01       		.byte	0x1
 6693 0e78 33       		.byte	0x33
 6694 0e79 12       		.uleb128 0x12
 6695 0e7a 01       		.byte	0x1
 6696 0e7b 51       		.byte	0x51
 6697 0e7c 02       		.byte	0x2
 6698 0e7d 7A       		.byte	0x7a
 6699 0e7e 00       		.sleb128 0
 6700 0e7f 12       		.uleb128 0x12
 6701 0e80 01       		.byte	0x1
 6702 0e81 50       		.byte	0x50
 6703 0e82 02       		.byte	0x2
 6704 0e83 77       		.byte	0x77
 6705 0e84 00       		.sleb128 0
 6706 0e85 12       		.uleb128 0x12
 6707 0e86 02       		.byte	0x2
 6708 0e87 7D       		.byte	0x7d
 6709 0e88 00       		.sleb128 0
 6710 0e89 02       		.byte	0x2
 6711 0e8a 74       		.byte	0x74
 6712 0e8b 00       		.sleb128 0
ARM GAS  C:\Users\Steve\AppData\Local\Temp\ccroCuoh.s 			page 136


 6713 0e8c 00       		.byte	0
 6714 0e8d 15       		.uleb128 0x15
 6715 0e8e 4E000000 		.4byte	.LVL193
 6716 0e92 78080000 		.4byte	0x878
 6717 0e96 B30E0000 		.4byte	0xeb3
 6718 0e9a 12       		.uleb128 0x12
 6719 0e9b 01       		.byte	0x1
 6720 0e9c 52       		.byte	0x52
 6721 0e9d 01       		.byte	0x1
 6722 0e9e 34       		.byte	0x34
 6723 0e9f 12       		.uleb128 0x12
 6724 0ea0 01       		.byte	0x1
 6725 0ea1 51       		.byte	0x51
 6726 0ea2 02       		.byte	0x2
 6727 0ea3 78       		.byte	0x78
 6728 0ea4 00       		.sleb128 0
 6729 0ea5 12       		.uleb128 0x12
 6730 0ea6 01       		.byte	0x1
 6731 0ea7 50       		.byte	0x50
 6732 0ea8 02       		.byte	0x2
 6733 0ea9 79       		.byte	0x79
 6734 0eaa 04       		.sleb128 4
 6735 0eab 12       		.uleb128 0x12
 6736 0eac 02       		.byte	0x2
 6737 0ead 7D       		.byte	0x7d
 6738 0eae 00       		.sleb128 0
 6739 0eaf 02       		.byte	0x2
 6740 0eb0 74       		.byte	0x74
 6741 0eb1 00       		.sleb128 0
 6742 0eb2 00       		.byte	0
 6743 0eb3 15       		.uleb128 0x15
 6744 0eb4 5E000000 		.4byte	.LVL194
 6745 0eb8 F8080000 		.4byte	0x8f8
 6746 0ebc D90E0000 		.4byte	0xed9
 6747 0ec0 12       		.uleb128 0x12
 6748 0ec1 01       		.byte	0x1
 6749 0ec2 52       		.byte	0x52
 6750 0ec3 01       		.byte	0x1
 6751 0ec4 33       		.byte	0x33
 6752 0ec5 12       		.uleb128 0x12
 6753 0ec6 01       		.byte	0x1
 6754 0ec7 51       		.byte	0x51
 6755 0ec8 02       		.byte	0x2
 6756 0ec9 76       		.byte	0x76
 6757 0eca 05       		.sleb128 5
 6758 0ecb 12       		.uleb128 0x12
 6759 0ecc 01       		.byte	0x1
 6760 0ecd 50       		.byte	0x50
 6761 0ece 02       		.byte	0x2
 6762 0ecf 77       		.byte	0x77
 6763 0ed0 00       		.sleb128 0
 6764 0ed1 12       		.uleb128 0x12
 6765 0ed2 02       		.byte	0x2
 6766 0ed3 7D       		.byte	0x7d
 6767 0ed4 00       		.sleb128 0
 6768 0ed5 02       		.byte	0x2
 6769 0ed6 74       		.byte	0x74
ARM GAS  C:\Users\Steve\AppData\Local\Temp\ccroCuoh.s 			page 137


 6770 0ed7 00       		.sleb128 0
 6771 0ed8 00       		.byte	0
 6772 0ed9 15       		.uleb128 0x15
 6773 0eda 70000000 		.4byte	.LVL196
 6774 0ede 78080000 		.4byte	0x878
 6775 0ee2 FF0E0000 		.4byte	0xeff
 6776 0ee6 12       		.uleb128 0x12
 6777 0ee7 01       		.byte	0x1
 6778 0ee8 52       		.byte	0x52
 6779 0ee9 01       		.byte	0x1
 6780 0eea 36       		.byte	0x36
 6781 0eeb 12       		.uleb128 0x12
 6782 0eec 01       		.byte	0x1
 6783 0eed 51       		.byte	0x51
 6784 0eee 02       		.byte	0x2
 6785 0eef 76       		.byte	0x76
 6786 0ef0 7B       		.sleb128 -5
 6787 0ef1 12       		.uleb128 0x12
 6788 0ef2 01       		.byte	0x1
 6789 0ef3 50       		.byte	0x50
 6790 0ef4 02       		.byte	0x2
 6791 0ef5 75       		.byte	0x75
 6792 0ef6 00       		.sleb128 0
 6793 0ef7 12       		.uleb128 0x12
 6794 0ef8 02       		.byte	0x2
 6795 0ef9 7D       		.byte	0x7d
 6796 0efa 00       		.sleb128 0
 6797 0efb 02       		.byte	0x2
 6798 0efc 74       		.byte	0x74
 6799 0efd 00       		.sleb128 0
 6800 0efe 00       		.byte	0
 6801 0eff 11       		.uleb128 0x11
 6802 0f00 7E000000 		.4byte	.LVL197
 6803 0f04 F8080000 		.4byte	0x8f8
 6804 0f08 12       		.uleb128 0x12
 6805 0f09 01       		.byte	0x1
 6806 0f0a 52       		.byte	0x52
 6807 0f0b 01       		.byte	0x1
 6808 0f0c 35       		.byte	0x35
 6809 0f0d 12       		.uleb128 0x12
 6810 0f0e 01       		.byte	0x1
 6811 0f0f 51       		.byte	0x51
 6812 0f10 02       		.byte	0x2
 6813 0f11 76       		.byte	0x76
 6814 0f12 00       		.sleb128 0
 6815 0f13 12       		.uleb128 0x12
 6816 0f14 01       		.byte	0x1
 6817 0f15 50       		.byte	0x50
 6818 0f16 02       		.byte	0x2
 6819 0f17 75       		.byte	0x75
 6820 0f18 00       		.sleb128 0
 6821 0f19 12       		.uleb128 0x12
 6822 0f1a 02       		.byte	0x2
 6823 0f1b 7D       		.byte	0x7d
 6824 0f1c 00       		.sleb128 0
 6825 0f1d 02       		.byte	0x2
 6826 0f1e 74       		.byte	0x74
ARM GAS  C:\Users\Steve\AppData\Local\Temp\ccroCuoh.s 			page 138


 6827 0f1f 00       		.sleb128 0
 6828 0f20 00       		.byte	0
 6829 0f21 00       		.byte	0
 6830 0f22 16       		.uleb128 0x16
 6831 0f23 01       		.byte	0x1
 6832 0f24 85000000 		.4byte	.LASF42
 6833 0f28 01       		.byte	0x1
 6834 0f29 3401     		.2byte	0x134
 6835 0f2b 01       		.byte	0x1
 6836 0f2c 00000000 		.4byte	.LFB47
 6837 0f30 30000000 		.4byte	.LFE47
 6838 0f34 E80E0000 		.4byte	.LLST82
 6839 0f38 01       		.byte	0x1
 6840 0f39 C10F0000 		.4byte	0xfc1
 6841 0f3d 17       		.uleb128 0x17
 6842 0f3e 783000   		.ascii	"x0\000"
 6843 0f41 01       		.byte	0x1
 6844 0f42 3401     		.2byte	0x134
 6845 0f44 90000000 		.4byte	0x90
 6846 0f48 140F0000 		.4byte	.LLST83
 6847 0f4c 17       		.uleb128 0x17
 6848 0f4d 793000   		.ascii	"y0\000"
 6849 0f50 01       		.byte	0x1
 6850 0f51 3401     		.2byte	0x134
 6851 0f53 90000000 		.4byte	0x90
 6852 0f57 350F0000 		.4byte	.LLST84
 6853 0f5b 18       		.uleb128 0x18
 6854 0f5c 6300     		.ascii	"c\000"
 6855 0f5e 01       		.byte	0x1
 6856 0f5f 3401     		.2byte	0x134
 6857 0f61 2C010000 		.4byte	0x12c
 6858 0f65 02       		.byte	0x2
 6859 0f66 91       		.byte	0x91
 6860 0f67 64       		.sleb128 -28
 6861 0f68 1B       		.uleb128 0x1b
 6862 0f69 DA000000 		.4byte	.LASF18
 6863 0f6d 01       		.byte	0x1
 6864 0f6e 3401     		.2byte	0x134
 6865 0f70 C4010000 		.4byte	0x1c4
 6866 0f74 6E0F0000 		.4byte	.LLST85
 6867 0f78 15       		.uleb128 0x15
 6868 0f79 1E000000 		.4byte	.LVL204
 6869 0f7d 78080000 		.4byte	0x878
 6870 0f81 9E0F0000 		.4byte	0xf9e
 6871 0f85 12       		.uleb128 0x12
 6872 0f86 01       		.byte	0x1
 6873 0f87 52       		.byte	0x52
 6874 0f88 01       		.byte	0x1
 6875 0f89 32       		.byte	0x32
 6876 0f8a 12       		.uleb128 0x12
 6877 0f8b 01       		.byte	0x1
 6878 0f8c 51       		.byte	0x51
 6879 0f8d 02       		.byte	0x2
 6880 0f8e 76       		.byte	0x76
 6881 0f8f 7C       		.sleb128 -4
 6882 0f90 12       		.uleb128 0x12
 6883 0f91 01       		.byte	0x1
ARM GAS  C:\Users\Steve\AppData\Local\Temp\ccroCuoh.s 			page 139


 6884 0f92 50       		.byte	0x50
 6885 0f93 02       		.byte	0x2
 6886 0f94 74       		.byte	0x74
 6887 0f95 00       		.sleb128 0
 6888 0f96 12       		.uleb128 0x12
 6889 0f97 02       		.byte	0x2
 6890 0f98 7D       		.byte	0x7d
 6891 0f99 00       		.sleb128 0
 6892 0f9a 02       		.byte	0x2
 6893 0f9b 75       		.byte	0x75
 6894 0f9c 00       		.sleb128 0
 6895 0f9d 00       		.byte	0
 6896 0f9e 11       		.uleb128 0x11
 6897 0f9f 2C000000 		.4byte	.LVL205
 6898 0fa3 78080000 		.4byte	0x878
 6899 0fa7 12       		.uleb128 0x12
 6900 0fa8 01       		.byte	0x1
 6901 0fa9 52       		.byte	0x52
 6902 0faa 01       		.byte	0x1
 6903 0fab 32       		.byte	0x32
 6904 0fac 12       		.uleb128 0x12
 6905 0fad 01       		.byte	0x1
 6906 0fae 51       		.byte	0x51
 6907 0faf 02       		.byte	0x2
 6908 0fb0 76       		.byte	0x76
 6909 0fb1 00       		.sleb128 0
 6910 0fb2 12       		.uleb128 0x12
 6911 0fb3 01       		.byte	0x1
 6912 0fb4 50       		.byte	0x50
 6913 0fb5 02       		.byte	0x2
 6914 0fb6 74       		.byte	0x74
 6915 0fb7 00       		.sleb128 0
 6916 0fb8 12       		.uleb128 0x12
 6917 0fb9 02       		.byte	0x2
 6918 0fba 7D       		.byte	0x7d
 6919 0fbb 00       		.sleb128 0
 6920 0fbc 02       		.byte	0x2
 6921 0fbd 75       		.byte	0x75
 6922 0fbe 00       		.sleb128 0
 6923 0fbf 00       		.byte	0
 6924 0fc0 00       		.byte	0
 6925 0fc1 16       		.uleb128 0x16
 6926 0fc2 01       		.byte	0x1
 6927 0fc3 A8000000 		.4byte	.LASF43
 6928 0fc7 01       		.byte	0x1
 6929 0fc8 3A01     		.2byte	0x13a
 6930 0fca 01       		.byte	0x1
 6931 0fcb 00000000 		.4byte	.LFB48
 6932 0fcf 8E000000 		.4byte	.LFE48
 6933 0fd3 9A0F0000 		.4byte	.LLST86
 6934 0fd7 01       		.byte	0x1
 6935 0fd8 11110000 		.4byte	0x1111
 6936 0fdc 17       		.uleb128 0x17
 6937 0fdd 783000   		.ascii	"x0\000"
 6938 0fe0 01       		.byte	0x1
 6939 0fe1 3A01     		.2byte	0x13a
 6940 0fe3 90000000 		.4byte	0x90
ARM GAS  C:\Users\Steve\AppData\Local\Temp\ccroCuoh.s 			page 140


 6941 0fe7 D20F0000 		.4byte	.LLST87
 6942 0feb 17       		.uleb128 0x17
 6943 0fec 793000   		.ascii	"y0\000"
 6944 0fef 01       		.byte	0x1
 6945 0ff0 3A01     		.2byte	0x13a
 6946 0ff2 90000000 		.4byte	0x90
 6947 0ff6 F30F0000 		.4byte	.LLST88
 6948 0ffa 18       		.uleb128 0x18
 6949 0ffb 6300     		.ascii	"c\000"
 6950 0ffd 01       		.byte	0x1
 6951 0ffe 3A01     		.2byte	0x13a
 6952 1000 2C010000 		.4byte	0x12c
 6953 1004 02       		.byte	0x2
 6954 1005 91       		.byte	0x91
 6955 1006 64       		.sleb128 -28
 6956 1007 1B       		.uleb128 0x1b
 6957 1008 DA000000 		.4byte	.LASF18
 6958 100c 01       		.byte	0x1
 6959 100d 3A01     		.2byte	0x13a
 6960 100f C4010000 		.4byte	0x1c4
 6961 1013 14100000 		.4byte	.LLST89
 6962 1017 15       		.uleb128 0x15
 6963 1018 1E000000 		.4byte	.LVL210
 6964 101c F8080000 		.4byte	0x8f8
 6965 1020 3D100000 		.4byte	0x103d
 6966 1024 12       		.uleb128 0x12
 6967 1025 01       		.byte	0x1
 6968 1026 52       		.byte	0x52
 6969 1027 01       		.byte	0x1
 6970 1028 35       		.byte	0x35
 6971 1029 12       		.uleb128 0x12
 6972 102a 01       		.byte	0x1
 6973 102b 51       		.byte	0x51
 6974 102c 02       		.byte	0x2
 6975 102d 75       		.byte	0x75
 6976 102e 00       		.sleb128 0
 6977 102f 12       		.uleb128 0x12
 6978 1030 01       		.byte	0x1
 6979 1031 50       		.byte	0x50
 6980 1032 02       		.byte	0x2
 6981 1033 77       		.byte	0x77
 6982 1034 00       		.sleb128 0
 6983 1035 12       		.uleb128 0x12
 6984 1036 02       		.byte	0x2
 6985 1037 7D       		.byte	0x7d
 6986 1038 00       		.sleb128 0
 6987 1039 02       		.byte	0x2
 6988 103a 74       		.byte	0x74
 6989 103b 00       		.sleb128 0
 6990 103c 00       		.byte	0
 6991 103d 15       		.uleb128 0x15
 6992 103e 32000000 		.4byte	.LVL211
 6993 1042 78080000 		.4byte	0x878
 6994 1046 5D100000 		.4byte	0x105d
 6995 104a 12       		.uleb128 0x12
 6996 104b 01       		.byte	0x1
 6997 104c 52       		.byte	0x52
ARM GAS  C:\Users\Steve\AppData\Local\Temp\ccroCuoh.s 			page 141


 6998 104d 01       		.byte	0x1
 6999 104e 34       		.byte	0x34
 7000 104f 12       		.uleb128 0x12
 7001 1050 01       		.byte	0x1
 7002 1051 50       		.byte	0x50
 7003 1052 02       		.byte	0x2
 7004 1053 78       		.byte	0x78
 7005 1054 00       		.sleb128 0
 7006 1055 12       		.uleb128 0x12
 7007 1056 02       		.byte	0x2
 7008 1057 7D       		.byte	0x7d
 7009 1058 00       		.sleb128 0
 7010 1059 02       		.byte	0x2
 7011 105a 74       		.byte	0x74
 7012 105b 00       		.sleb128 0
 7013 105c 00       		.byte	0
 7014 105d 15       		.uleb128 0x15
 7015 105e 42000000 		.4byte	.LVL212
 7016 1062 CA010000 		.4byte	0x1ca
 7017 1066 7D100000 		.4byte	0x107d
 7018 106a 12       		.uleb128 0x12
 7019 106b 01       		.byte	0x1
 7020 106c 53       		.byte	0x53
 7021 106d 02       		.byte	0x2
 7022 106e 74       		.byte	0x74
 7023 106f 00       		.sleb128 0
 7024 1070 12       		.uleb128 0x12
 7025 1071 01       		.byte	0x1
 7026 1072 51       		.byte	0x51
 7027 1073 02       		.byte	0x2
 7028 1074 75       		.byte	0x75
 7029 1075 04       		.sleb128 4
 7030 1076 12       		.uleb128 0x12
 7031 1077 01       		.byte	0x1
 7032 1078 50       		.byte	0x50
 7033 1079 02       		.byte	0x2
 7034 107a 76       		.byte	0x76
 7035 107b 03       		.sleb128 3
 7036 107c 00       		.byte	0
 7037 107d 15       		.uleb128 0x15
 7038 107e 54000000 		.4byte	.LVL213
 7039 1082 F8080000 		.4byte	0x8f8
 7040 1086 A3100000 		.4byte	0x10a3
 7041 108a 12       		.uleb128 0x12
 7042 108b 01       		.byte	0x1
 7043 108c 52       		.byte	0x52
 7044 108d 01       		.byte	0x1
 7045 108e 32       		.byte	0x32
 7046 108f 12       		.uleb128 0x12
 7047 1090 01       		.byte	0x1
 7048 1091 51       		.byte	0x51
 7049 1092 02       		.byte	0x2
 7050 1093 75       		.byte	0x75
 7051 1094 05       		.sleb128 5
 7052 1095 12       		.uleb128 0x12
 7053 1096 01       		.byte	0x1
 7054 1097 50       		.byte	0x50
ARM GAS  C:\Users\Steve\AppData\Local\Temp\ccroCuoh.s 			page 142


 7055 1098 02       		.byte	0x2
 7056 1099 76       		.byte	0x76
 7057 109a 02       		.sleb128 2
 7058 109b 12       		.uleb128 0x12
 7059 109c 02       		.byte	0x2
 7060 109d 7D       		.byte	0x7d
 7061 109e 00       		.sleb128 0
 7062 109f 02       		.byte	0x2
 7063 10a0 74       		.byte	0x74
 7064 10a1 00       		.sleb128 0
 7065 10a2 00       		.byte	0
 7066 10a3 15       		.uleb128 0x15
 7067 10a4 66000000 		.4byte	.LVL214
 7068 10a8 78080000 		.4byte	0x878
 7069 10ac C9100000 		.4byte	0x10c9
 7070 10b0 12       		.uleb128 0x12
 7071 10b1 01       		.byte	0x1
 7072 10b2 52       		.byte	0x52
 7073 10b3 01       		.byte	0x1
 7074 10b4 35       		.byte	0x35
 7075 10b5 12       		.uleb128 0x12
 7076 10b6 01       		.byte	0x1
 7077 10b7 51       		.byte	0x51
 7078 10b8 02       		.byte	0x2
 7079 10b9 75       		.byte	0x75
 7080 10ba 06       		.sleb128 6
 7081 10bb 12       		.uleb128 0x12
 7082 10bc 01       		.byte	0x1
 7083 10bd 50       		.byte	0x50
 7084 10be 02       		.byte	0x2
 7085 10bf 78       		.byte	0x78
 7086 10c0 00       		.sleb128 0
 7087 10c1 12       		.uleb128 0x12
 7088 10c2 02       		.byte	0x2
 7089 10c3 7D       		.byte	0x7d
 7090 10c4 00       		.sleb128 0
 7091 10c5 02       		.byte	0x2
 7092 10c6 74       		.byte	0x74
 7093 10c7 00       		.sleb128 0
 7094 10c8 00       		.byte	0
 7095 10c9 15       		.uleb128 0x15
 7096 10ca 7A000000 		.4byte	.LVL215
 7097 10ce F8080000 		.4byte	0x8f8
 7098 10d2 F4100000 		.4byte	0x10f4
 7099 10d6 12       		.uleb128 0x12
 7100 10d7 01       		.byte	0x1
 7101 10d8 52       		.byte	0x52
 7102 10d9 01       		.byte	0x1
 7103 10da 33       		.byte	0x33
 7104 10db 12       		.uleb128 0x12
 7105 10dc 01       		.byte	0x1
 7106 10dd 51       		.byte	0x51
 7107 10de 02       		.byte	0x2
 7108 10df 76       		.byte	0x76
 7109 10e0 00       		.sleb128 0
 7110 10e1 12       		.uleb128 0x12
 7111 10e2 01       		.byte	0x1
ARM GAS  C:\Users\Steve\AppData\Local\Temp\ccroCuoh.s 			page 143


 7112 10e3 50       		.byte	0x50
 7113 10e4 07       		.byte	0x7
 7114 10e5 77       		.byte	0x77
 7115 10e6 00       		.sleb128 0
 7116 10e7 08       		.byte	0x8
 7117 10e8 FF       		.byte	0xff
 7118 10e9 1A       		.byte	0x1a
 7119 10ea 23       		.byte	0x23
 7120 10eb 01       		.uleb128 0x1
 7121 10ec 12       		.uleb128 0x12
 7122 10ed 02       		.byte	0x2
 7123 10ee 7D       		.byte	0x7d
 7124 10ef 00       		.sleb128 0
 7125 10f0 02       		.byte	0x2
 7126 10f1 74       		.byte	0x74
 7127 10f2 00       		.sleb128 0
 7128 10f3 00       		.byte	0
 7129 10f4 11       		.uleb128 0x11
 7130 10f5 86000000 		.4byte	.LVL216
 7131 10f9 CA010000 		.4byte	0x1ca
 7132 10fd 12       		.uleb128 0x12
 7133 10fe 01       		.byte	0x1
 7134 10ff 53       		.byte	0x53
 7135 1100 02       		.byte	0x2
 7136 1101 74       		.byte	0x74
 7137 1102 00       		.sleb128 0
 7138 1103 12       		.uleb128 0x12
 7139 1104 01       		.byte	0x1
 7140 1105 51       		.byte	0x51
 7141 1106 02       		.byte	0x2
 7142 1107 75       		.byte	0x75
 7143 1108 00       		.sleb128 0
 7144 1109 12       		.uleb128 0x12
 7145 110a 01       		.byte	0x1
 7146 110b 50       		.byte	0x50
 7147 110c 02       		.byte	0x2
 7148 110d 77       		.byte	0x77
 7149 110e 00       		.sleb128 0
 7150 110f 00       		.byte	0
 7151 1110 00       		.byte	0
 7152 1111 16       		.uleb128 0x16
 7153 1112 01       		.byte	0x1
 7154 1113 9B020000 		.4byte	.LASF44
 7155 1117 01       		.byte	0x1
 7156 1118 4501     		.2byte	0x145
 7157 111a 01       		.byte	0x1
 7158 111b 00000000 		.4byte	.LFB49
 7159 111f 3C000000 		.4byte	.LFE49
 7160 1123 40100000 		.4byte	.LLST90
 7161 1127 01       		.byte	0x1
 7162 1128 D6110000 		.4byte	0x11d6
 7163 112c 17       		.uleb128 0x17
 7164 112d 783000   		.ascii	"x0\000"
 7165 1130 01       		.byte	0x1
 7166 1131 4501     		.2byte	0x145
 7167 1133 90000000 		.4byte	0x90
 7168 1137 6C100000 		.4byte	.LLST91
ARM GAS  C:\Users\Steve\AppData\Local\Temp\ccroCuoh.s 			page 144


 7169 113b 17       		.uleb128 0x17
 7170 113c 793000   		.ascii	"y0\000"
 7171 113f 01       		.byte	0x1
 7172 1140 4501     		.2byte	0x145
 7173 1142 90000000 		.4byte	0x90
 7174 1146 8D100000 		.4byte	.LLST92
 7175 114a 18       		.uleb128 0x18
 7176 114b 6300     		.ascii	"c\000"
 7177 114d 01       		.byte	0x1
 7178 114e 4501     		.2byte	0x145
 7179 1150 2C010000 		.4byte	0x12c
 7180 1154 02       		.byte	0x2
 7181 1155 91       		.byte	0x91
 7182 1156 64       		.sleb128 -28
 7183 1157 1B       		.uleb128 0x1b
 7184 1158 DA000000 		.4byte	.LASF18
 7185 115c 01       		.byte	0x1
 7186 115d 4501     		.2byte	0x145
 7187 115f C4010000 		.4byte	0x1c4
 7188 1163 AE100000 		.4byte	.LLST93
 7189 1167 15       		.uleb128 0x15
 7190 1168 18000000 		.4byte	.LVL220
 7191 116c 78080000 		.4byte	0x878
 7192 1170 8D110000 		.4byte	0x118d
 7193 1174 12       		.uleb128 0x12
 7194 1175 01       		.byte	0x1
 7195 1176 52       		.byte	0x52
 7196 1177 01       		.byte	0x1
 7197 1178 37       		.byte	0x37
 7198 1179 12       		.uleb128 0x12
 7199 117a 01       		.byte	0x1
 7200 117b 51       		.byte	0x51
 7201 117c 02       		.byte	0x2
 7202 117d 74       		.byte	0x74
 7203 117e 00       		.sleb128 0
 7204 117f 12       		.uleb128 0x12
 7205 1180 01       		.byte	0x1
 7206 1181 50       		.byte	0x50
 7207 1182 02       		.byte	0x2
 7208 1183 76       		.byte	0x76
 7209 1184 00       		.sleb128 0
 7210 1185 12       		.uleb128 0x12
 7211 1186 02       		.byte	0x2
 7212 1187 7D       		.byte	0x7d
 7213 1188 00       		.sleb128 0
 7214 1189 02       		.byte	0x2
 7215 118a 75       		.byte	0x75
 7216 118b 00       		.sleb128 0
 7217 118c 00       		.byte	0
 7218 118d 15       		.uleb128 0x15
 7219 118e 2A000000 		.4byte	.LVL221
 7220 1192 F8080000 		.4byte	0x8f8
 7221 1196 B3110000 		.4byte	0x11b3
 7222 119a 12       		.uleb128 0x12
 7223 119b 01       		.byte	0x1
 7224 119c 52       		.byte	0x52
 7225 119d 01       		.byte	0x1
ARM GAS  C:\Users\Steve\AppData\Local\Temp\ccroCuoh.s 			page 145


 7226 119e 35       		.byte	0x35
 7227 119f 12       		.uleb128 0x12
 7228 11a0 01       		.byte	0x1
 7229 11a1 51       		.byte	0x51
 7230 11a2 02       		.byte	0x2
 7231 11a3 74       		.byte	0x74
 7232 11a4 06       		.sleb128 6
 7233 11a5 12       		.uleb128 0x12
 7234 11a6 01       		.byte	0x1
 7235 11a7 50       		.byte	0x50
 7236 11a8 02       		.byte	0x2
 7237 11a9 76       		.byte	0x76
 7238 11aa 7D       		.sleb128 -3
 7239 11ab 12       		.uleb128 0x12
 7240 11ac 02       		.byte	0x2
 7241 11ad 7D       		.byte	0x7d
 7242 11ae 00       		.sleb128 0
 7243 11af 02       		.byte	0x2
 7244 11b0 75       		.byte	0x75
 7245 11b1 00       		.sleb128 0
 7246 11b2 00       		.byte	0
 7247 11b3 11       		.uleb128 0x11
 7248 11b4 38000000 		.4byte	.LVL222
 7249 11b8 78080000 		.4byte	0x878
 7250 11bc 12       		.uleb128 0x12
 7251 11bd 01       		.byte	0x1
 7252 11be 52       		.byte	0x52
 7253 11bf 01       		.byte	0x1
 7254 11c0 3C       		.byte	0x3c
 7255 11c1 12       		.uleb128 0x12
 7256 11c2 01       		.byte	0x1
 7257 11c3 51       		.byte	0x51
 7258 11c4 02       		.byte	0x2
 7259 11c5 74       		.byte	0x74
 7260 11c6 00       		.sleb128 0
 7261 11c7 12       		.uleb128 0x12
 7262 11c8 01       		.byte	0x1
 7263 11c9 50       		.byte	0x50
 7264 11ca 02       		.byte	0x2
 7265 11cb 76       		.byte	0x76
 7266 11cc 00       		.sleb128 0
 7267 11cd 12       		.uleb128 0x12
 7268 11ce 02       		.byte	0x2
 7269 11cf 7D       		.byte	0x7d
 7270 11d0 00       		.sleb128 0
 7271 11d1 02       		.byte	0x2
 7272 11d2 75       		.byte	0x75
 7273 11d3 00       		.sleb128 0
 7274 11d4 00       		.byte	0
 7275 11d5 00       		.byte	0
 7276 11d6 16       		.uleb128 0x16
 7277 11d7 01       		.byte	0x1
 7278 11d8 0E030000 		.4byte	.LASF45
 7279 11dc 01       		.byte	0x1
 7280 11dd 4C01     		.2byte	0x14c
 7281 11df 01       		.byte	0x1
 7282 11e0 00000000 		.4byte	.LFB50
ARM GAS  C:\Users\Steve\AppData\Local\Temp\ccroCuoh.s 			page 146


 7283 11e4 84000000 		.4byte	.LFE50
 7284 11e8 DA100000 		.4byte	.LLST94
 7285 11ec 01       		.byte	0x1
 7286 11ed 01130000 		.4byte	0x1301
 7287 11f1 17       		.uleb128 0x17
 7288 11f2 783000   		.ascii	"x0\000"
 7289 11f5 01       		.byte	0x1
 7290 11f6 4C01     		.2byte	0x14c
 7291 11f8 90000000 		.4byte	0x90
 7292 11fc 12110000 		.4byte	.LLST95
 7293 1200 17       		.uleb128 0x17
 7294 1201 793000   		.ascii	"y0\000"
 7295 1204 01       		.byte	0x1
 7296 1205 4C01     		.2byte	0x14c
 7297 1207 90000000 		.4byte	0x90
 7298 120b 33110000 		.4byte	.LLST96
 7299 120f 18       		.uleb128 0x18
 7300 1210 6300     		.ascii	"c\000"
 7301 1212 01       		.byte	0x1
 7302 1213 4C01     		.2byte	0x14c
 7303 1215 2C010000 		.4byte	0x12c
 7304 1219 02       		.byte	0x2
 7305 121a 91       		.byte	0x91
 7306 121b 64       		.sleb128 -28
 7307 121c 1B       		.uleb128 0x1b
 7308 121d DA000000 		.4byte	.LASF18
 7309 1221 01       		.byte	0x1
 7310 1222 4C01     		.2byte	0x14c
 7311 1224 C4010000 		.4byte	0x1c4
 7312 1228 54110000 		.4byte	.LLST97
 7313 122c 15       		.uleb128 0x15
 7314 122d 1E000000 		.4byte	.LVL226
 7315 1231 F8080000 		.4byte	0x8f8
 7316 1235 4C120000 		.4byte	0x124c
 7317 1239 12       		.uleb128 0x12
 7318 123a 01       		.byte	0x1
 7319 123b 52       		.byte	0x52
 7320 123c 01       		.byte	0x1
 7321 123d 35       		.byte	0x35
 7322 123e 12       		.uleb128 0x12
 7323 123f 01       		.byte	0x1
 7324 1240 50       		.byte	0x50
 7325 1241 02       		.byte	0x2
 7326 1242 76       		.byte	0x76
 7327 1243 00       		.sleb128 0
 7328 1244 12       		.uleb128 0x12
 7329 1245 02       		.byte	0x2
 7330 1246 7D       		.byte	0x7d
 7331 1247 00       		.sleb128 0
 7332 1248 02       		.byte	0x2
 7333 1249 74       		.byte	0x74
 7334 124a 00       		.sleb128 0
 7335 124b 00       		.byte	0
 7336 124c 15       		.uleb128 0x15
 7337 124d 2E000000 		.4byte	.LVL227
 7338 1251 78080000 		.4byte	0x878
 7339 1255 72120000 		.4byte	0x1272
ARM GAS  C:\Users\Steve\AppData\Local\Temp\ccroCuoh.s 			page 147


 7340 1259 12       		.uleb128 0x12
 7341 125a 01       		.byte	0x1
 7342 125b 52       		.byte	0x52
 7343 125c 01       		.byte	0x1
 7344 125d 36       		.byte	0x36
 7345 125e 12       		.uleb128 0x12
 7346 125f 01       		.byte	0x1
 7347 1260 51       		.byte	0x51
 7348 1261 02       		.byte	0x2
 7349 1262 75       		.byte	0x75
 7350 1263 01       		.sleb128 1
 7351 1264 12       		.uleb128 0x12
 7352 1265 01       		.byte	0x1
 7353 1266 50       		.byte	0x50
 7354 1267 02       		.byte	0x2
 7355 1268 76       		.byte	0x76
 7356 1269 00       		.sleb128 0
 7357 126a 12       		.uleb128 0x12
 7358 126b 02       		.byte	0x2
 7359 126c 7D       		.byte	0x7d
 7360 126d 00       		.sleb128 0
 7361 126e 02       		.byte	0x2
 7362 126f 74       		.byte	0x74
 7363 1270 00       		.sleb128 0
 7364 1271 00       		.byte	0
 7365 1272 15       		.uleb128 0x15
 7366 1273 48000000 		.4byte	.LVL228
 7367 1277 F8080000 		.4byte	0x8f8
 7368 127b 98120000 		.4byte	0x1298
 7369 127f 12       		.uleb128 0x12
 7370 1280 01       		.byte	0x1
 7371 1281 52       		.byte	0x52
 7372 1282 01       		.byte	0x1
 7373 1283 33       		.byte	0x33
 7374 1284 12       		.uleb128 0x12
 7375 1285 01       		.byte	0x1
 7376 1286 51       		.byte	0x51
 7377 1287 02       		.byte	0x2
 7378 1288 75       		.byte	0x75
 7379 1289 05       		.sleb128 5
 7380 128a 12       		.uleb128 0x12
 7381 128b 01       		.byte	0x1
 7382 128c 50       		.byte	0x50
 7383 128d 02       		.byte	0x2
 7384 128e 77       		.byte	0x77
 7385 128f 00       		.sleb128 0
 7386 1290 12       		.uleb128 0x12
 7387 1291 02       		.byte	0x2
 7388 1292 7D       		.byte	0x7d
 7389 1293 00       		.sleb128 0
 7390 1294 02       		.byte	0x2
 7391 1295 74       		.byte	0x74
 7392 1296 00       		.sleb128 0
 7393 1297 00       		.byte	0
 7394 1298 15       		.uleb128 0x15
 7395 1299 5C000000 		.4byte	.LVL229
 7396 129d 78080000 		.4byte	0x878
ARM GAS  C:\Users\Steve\AppData\Local\Temp\ccroCuoh.s 			page 148


 7397 12a1 BE120000 		.4byte	0x12be
 7398 12a5 12       		.uleb128 0x12
 7399 12a6 01       		.byte	0x1
 7400 12a7 52       		.byte	0x52
 7401 12a8 01       		.byte	0x1
 7402 12a9 35       		.byte	0x35
 7403 12aa 12       		.uleb128 0x12
 7404 12ab 01       		.byte	0x1
 7405 12ac 51       		.byte	0x51
 7406 12ad 02       		.byte	0x2
 7407 12ae 75       		.byte	0x75
 7408 12af 06       		.sleb128 6
 7409 12b0 12       		.uleb128 0x12
 7410 12b1 01       		.byte	0x1
 7411 12b2 50       		.byte	0x50
 7412 12b3 02       		.byte	0x2
 7413 12b4 78       		.byte	0x78
 7414 12b5 04       		.sleb128 4
 7415 12b6 12       		.uleb128 0x12
 7416 12b7 02       		.byte	0x2
 7417 12b8 7D       		.byte	0x7d
 7418 12b9 00       		.sleb128 0
 7419 12ba 02       		.byte	0x2
 7420 12bb 74       		.byte	0x74
 7421 12bc 00       		.sleb128 0
 7422 12bd 00       		.byte	0
 7423 12be 15       		.uleb128 0x15
 7424 12bf 70000000 		.4byte	.LVL230
 7425 12c3 F8080000 		.4byte	0x8f8
 7426 12c7 E4120000 		.4byte	0x12e4
 7427 12cb 12       		.uleb128 0x12
 7428 12cc 01       		.byte	0x1
 7429 12cd 52       		.byte	0x52
 7430 12ce 01       		.byte	0x1
 7431 12cf 33       		.byte	0x33
 7432 12d0 12       		.uleb128 0x12
 7433 12d1 01       		.byte	0x1
 7434 12d2 51       		.byte	0x51
 7435 12d3 02       		.byte	0x2
 7436 12d4 75       		.byte	0x75
 7437 12d5 01       		.sleb128 1
 7438 12d6 12       		.uleb128 0x12
 7439 12d7 01       		.byte	0x1
 7440 12d8 50       		.byte	0x50
 7441 12d9 02       		.byte	0x2
 7442 12da 77       		.byte	0x77
 7443 12db 00       		.sleb128 0
 7444 12dc 12       		.uleb128 0x12
 7445 12dd 02       		.byte	0x2
 7446 12de 7D       		.byte	0x7d
 7447 12df 00       		.sleb128 0
 7448 12e0 02       		.byte	0x2
 7449 12e1 74       		.byte	0x74
 7450 12e2 00       		.sleb128 0
 7451 12e3 00       		.byte	0
 7452 12e4 11       		.uleb128 0x11
 7453 12e5 7C000000 		.4byte	.LVL231
ARM GAS  C:\Users\Steve\AppData\Local\Temp\ccroCuoh.s 			page 149


 7454 12e9 CA010000 		.4byte	0x1ca
 7455 12ed 12       		.uleb128 0x12
 7456 12ee 01       		.byte	0x1
 7457 12ef 53       		.byte	0x53
 7458 12f0 02       		.byte	0x2
 7459 12f1 74       		.byte	0x74
 7460 12f2 00       		.sleb128 0
 7461 12f3 12       		.uleb128 0x12
 7462 12f4 01       		.byte	0x1
 7463 12f5 51       		.byte	0x51
 7464 12f6 02       		.byte	0x2
 7465 12f7 75       		.byte	0x75
 7466 12f8 00       		.sleb128 0
 7467 12f9 12       		.uleb128 0x12
 7468 12fa 01       		.byte	0x1
 7469 12fb 50       		.byte	0x50
 7470 12fc 02       		.byte	0x2
 7471 12fd 76       		.byte	0x76
 7472 12fe 00       		.sleb128 0
 7473 12ff 00       		.byte	0
 7474 1300 00       		.byte	0
 7475 1301 16       		.uleb128 0x16
 7476 1302 01       		.byte	0x1
 7477 1303 C6020000 		.4byte	.LASF46
 7478 1307 01       		.byte	0x1
 7479 1308 5701     		.2byte	0x157
 7480 130a 01       		.byte	0x1
 7481 130b 00000000 		.4byte	.LFB51
 7482 130f 70000000 		.4byte	.LFE51
 7483 1313 80110000 		.4byte	.LLST98
 7484 1317 01       		.byte	0x1
 7485 1318 0C140000 		.4byte	0x140c
 7486 131c 17       		.uleb128 0x17
 7487 131d 783000   		.ascii	"x0\000"
 7488 1320 01       		.byte	0x1
 7489 1321 5701     		.2byte	0x157
 7490 1323 90000000 		.4byte	0x90
 7491 1327 B8110000 		.4byte	.LLST99
 7492 132b 17       		.uleb128 0x17
 7493 132c 793000   		.ascii	"y0\000"
 7494 132f 01       		.byte	0x1
 7495 1330 5701     		.2byte	0x157
 7496 1332 90000000 		.4byte	0x90
 7497 1336 F1110000 		.4byte	.LLST100
 7498 133a 18       		.uleb128 0x18
 7499 133b 6300     		.ascii	"c\000"
 7500 133d 01       		.byte	0x1
 7501 133e 5701     		.2byte	0x157
 7502 1340 2C010000 		.4byte	0x12c
 7503 1344 02       		.byte	0x2
 7504 1345 91       		.byte	0x91
 7505 1346 64       		.sleb128 -28
 7506 1347 1B       		.uleb128 0x1b
 7507 1348 DA000000 		.4byte	.LASF18
 7508 134c 01       		.byte	0x1
 7509 134d 5701     		.2byte	0x157
 7510 134f C4010000 		.4byte	0x1c4
ARM GAS  C:\Users\Steve\AppData\Local\Temp\ccroCuoh.s 			page 150


 7511 1353 12120000 		.4byte	.LLST101
 7512 1357 15       		.uleb128 0x15
 7513 1358 26000000 		.4byte	.LVL236
 7514 135c F8080000 		.4byte	0x8f8
 7515 1360 77130000 		.4byte	0x1377
 7516 1364 12       		.uleb128 0x12
 7517 1365 01       		.byte	0x1
 7518 1366 52       		.byte	0x52
 7519 1367 01       		.byte	0x1
 7520 1368 34       		.byte	0x34
 7521 1369 12       		.uleb128 0x12
 7522 136a 01       		.byte	0x1
 7523 136b 50       		.byte	0x50
 7524 136c 02       		.byte	0x2
 7525 136d 76       		.byte	0x76
 7526 136e 00       		.sleb128 0
 7527 136f 12       		.uleb128 0x12
 7528 1370 02       		.byte	0x2
 7529 1371 7D       		.byte	0x7d
 7530 1372 00       		.sleb128 0
 7531 1373 02       		.byte	0x2
 7532 1374 74       		.byte	0x74
 7533 1375 00       		.sleb128 0
 7534 1376 00       		.byte	0
 7535 1377 15       		.uleb128 0x15
 7536 1378 36000000 		.4byte	.LVL237
 7537 137c 78080000 		.4byte	0x878
 7538 1380 9D130000 		.4byte	0x139d
 7539 1384 12       		.uleb128 0x12
 7540 1385 01       		.byte	0x1
 7541 1386 52       		.byte	0x52
 7542 1387 01       		.byte	0x1
 7543 1388 3A       		.byte	0x3a
 7544 1389 12       		.uleb128 0x12
 7545 138a 01       		.byte	0x1
 7546 138b 51       		.byte	0x51
 7547 138c 02       		.byte	0x2
 7548 138d 75       		.byte	0x75
 7549 138e 01       		.sleb128 1
 7550 138f 12       		.uleb128 0x12
 7551 1390 01       		.byte	0x1
 7552 1391 50       		.byte	0x50
 7553 1392 02       		.byte	0x2
 7554 1393 78       		.byte	0x78
 7555 1394 00       		.sleb128 0
 7556 1395 12       		.uleb128 0x12
 7557 1396 02       		.byte	0x2
 7558 1397 7D       		.byte	0x7d
 7559 1398 00       		.sleb128 0
 7560 1399 02       		.byte	0x2
 7561 139a 74       		.byte	0x74
 7562 139b 00       		.sleb128 0
 7563 139c 00       		.byte	0
 7564 139d 15       		.uleb128 0x15
 7565 139e 46000000 		.4byte	.LVL238
 7566 13a2 F8080000 		.4byte	0x8f8
 7567 13a6 C3130000 		.4byte	0x13c3
ARM GAS  C:\Users\Steve\AppData\Local\Temp\ccroCuoh.s 			page 151


 7568 13aa 12       		.uleb128 0x12
 7569 13ab 01       		.byte	0x1
 7570 13ac 52       		.byte	0x52
 7571 13ad 01       		.byte	0x1
 7572 13ae 33       		.byte	0x33
 7573 13af 12       		.uleb128 0x12
 7574 13b0 01       		.byte	0x1
 7575 13b1 51       		.byte	0x51
 7576 13b2 02       		.byte	0x2
 7577 13b3 75       		.byte	0x75
 7578 13b4 05       		.sleb128 5
 7579 13b5 12       		.uleb128 0x12
 7580 13b6 01       		.byte	0x1
 7581 13b7 50       		.byte	0x50
 7582 13b8 02       		.byte	0x2
 7583 13b9 76       		.byte	0x76
 7584 13ba 00       		.sleb128 0
 7585 13bb 12       		.uleb128 0x12
 7586 13bc 02       		.byte	0x2
 7587 13bd 7D       		.byte	0x7d
 7588 13be 00       		.sleb128 0
 7589 13bf 02       		.byte	0x2
 7590 13c0 74       		.byte	0x74
 7591 13c1 00       		.sleb128 0
 7592 13c2 00       		.byte	0
 7593 13c3 15       		.uleb128 0x15
 7594 13c4 5A000000 		.4byte	.LVL240
 7595 13c8 78080000 		.4byte	0x878
 7596 13cc E9130000 		.4byte	0x13e9
 7597 13d0 12       		.uleb128 0x12
 7598 13d1 01       		.byte	0x1
 7599 13d2 52       		.byte	0x52
 7600 13d3 01       		.byte	0x1
 7601 13d4 35       		.byte	0x35
 7602 13d5 12       		.uleb128 0x12
 7603 13d6 01       		.byte	0x1
 7604 13d7 51       		.byte	0x51
 7605 13d8 02       		.byte	0x2
 7606 13d9 75       		.byte	0x75
 7607 13da 7B       		.sleb128 -5
 7608 13db 12       		.uleb128 0x12
 7609 13dc 01       		.byte	0x1
 7610 13dd 50       		.byte	0x50
 7611 13de 02       		.byte	0x2
 7612 13df 77       		.byte	0x77
 7613 13e0 00       		.sleb128 0
 7614 13e1 12       		.uleb128 0x12
 7615 13e2 02       		.byte	0x2
 7616 13e3 7D       		.byte	0x7d
 7617 13e4 00       		.sleb128 0
 7618 13e5 02       		.byte	0x2
 7619 13e6 74       		.byte	0x74
 7620 13e7 00       		.sleb128 0
 7621 13e8 00       		.byte	0
 7622 13e9 11       		.uleb128 0x11
 7623 13ea 68000000 		.4byte	.LVL241
 7624 13ee F8080000 		.4byte	0x8f8
ARM GAS  C:\Users\Steve\AppData\Local\Temp\ccroCuoh.s 			page 152


 7625 13f2 12       		.uleb128 0x12
 7626 13f3 01       		.byte	0x1
 7627 13f4 52       		.byte	0x52
 7628 13f5 01       		.byte	0x1
 7629 13f6 33       		.byte	0x33
 7630 13f7 12       		.uleb128 0x12
 7631 13f8 01       		.byte	0x1
 7632 13f9 51       		.byte	0x51
 7633 13fa 02       		.byte	0x2
 7634 13fb 75       		.byte	0x75
 7635 13fc 00       		.sleb128 0
 7636 13fd 12       		.uleb128 0x12
 7637 13fe 01       		.byte	0x1
 7638 13ff 50       		.byte	0x50
 7639 1400 02       		.byte	0x2
 7640 1401 76       		.byte	0x76
 7641 1402 00       		.sleb128 0
 7642 1403 12       		.uleb128 0x12
 7643 1404 02       		.byte	0x2
 7644 1405 7D       		.byte	0x7d
 7645 1406 00       		.sleb128 0
 7646 1407 02       		.byte	0x2
 7647 1408 74       		.byte	0x74
 7648 1409 00       		.sleb128 0
 7649 140a 00       		.byte	0
 7650 140b 00       		.byte	0
 7651 140c 16       		.uleb128 0x16
 7652 140d 01       		.byte	0x1
 7653 140e 9E000000 		.4byte	.LASF47
 7654 1412 01       		.byte	0x1
 7655 1413 6001     		.2byte	0x160
 7656 1415 01       		.byte	0x1
 7657 1416 00000000 		.4byte	.LFB52
 7658 141a 36000000 		.4byte	.LFE52
 7659 141e 3E120000 		.4byte	.LLST102
 7660 1422 01       		.byte	0x1
 7661 1423 CB140000 		.4byte	0x14cb
 7662 1427 17       		.uleb128 0x17
 7663 1428 783000   		.ascii	"x0\000"
 7664 142b 01       		.byte	0x1
 7665 142c 6001     		.2byte	0x160
 7666 142e 90000000 		.4byte	0x90
 7667 1432 6A120000 		.4byte	.LLST103
 7668 1436 17       		.uleb128 0x17
 7669 1437 793000   		.ascii	"y0\000"
 7670 143a 01       		.byte	0x1
 7671 143b 6001     		.2byte	0x160
 7672 143d 90000000 		.4byte	0x90
 7673 1441 8B120000 		.4byte	.LLST104
 7674 1445 18       		.uleb128 0x18
 7675 1446 6300     		.ascii	"c\000"
 7676 1448 01       		.byte	0x1
 7677 1449 6001     		.2byte	0x160
 7678 144b 2C010000 		.4byte	0x12c
 7679 144f 02       		.byte	0x2
 7680 1450 91       		.byte	0x91
 7681 1451 64       		.sleb128 -28
ARM GAS  C:\Users\Steve\AppData\Local\Temp\ccroCuoh.s 			page 153


 7682 1452 1B       		.uleb128 0x1b
 7683 1453 DA000000 		.4byte	.LASF18
 7684 1457 01       		.byte	0x1
 7685 1458 6001     		.2byte	0x160
 7686 145a C4010000 		.4byte	0x1c4
 7687 145e AC120000 		.4byte	.LLST105
 7688 1462 15       		.uleb128 0x15
 7689 1463 14000000 		.4byte	.LVL246
 7690 1467 CA010000 		.4byte	0x1ca
 7691 146b 82140000 		.4byte	0x1482
 7692 146f 12       		.uleb128 0x12
 7693 1470 01       		.byte	0x1
 7694 1471 53       		.byte	0x53
 7695 1472 02       		.byte	0x2
 7696 1473 75       		.byte	0x75
 7697 1474 00       		.sleb128 0
 7698 1475 12       		.uleb128 0x12
 7699 1476 01       		.byte	0x1
 7700 1477 51       		.byte	0x51
 7701 1478 02       		.byte	0x2
 7702 1479 74       		.byte	0x74
 7703 147a 01       		.sleb128 1
 7704 147b 12       		.uleb128 0x12
 7705 147c 01       		.byte	0x1
 7706 147d 50       		.byte	0x50
 7707 147e 02       		.byte	0x2
 7708 147f 76       		.byte	0x76
 7709 1480 00       		.sleb128 0
 7710 1481 00       		.byte	0
 7711 1482 15       		.uleb128 0x15
 7712 1483 24000000 		.4byte	.LVL247
 7713 1487 F8080000 		.4byte	0x8f8
 7714 148b A8140000 		.4byte	0x14a8
 7715 148f 12       		.uleb128 0x12
 7716 1490 01       		.byte	0x1
 7717 1491 52       		.byte	0x52
 7718 1492 01       		.byte	0x1
 7719 1493 35       		.byte	0x35
 7720 1494 12       		.uleb128 0x12
 7721 1495 01       		.byte	0x1
 7722 1496 51       		.byte	0x51
 7723 1497 02       		.byte	0x2
 7724 1498 74       		.byte	0x74
 7725 1499 00       		.sleb128 0
 7726 149a 12       		.uleb128 0x12
 7727 149b 01       		.byte	0x1
 7728 149c 50       		.byte	0x50
 7729 149d 02       		.byte	0x2
 7730 149e 76       		.byte	0x76
 7731 149f 7C       		.sleb128 -4
 7732 14a0 12       		.uleb128 0x12
 7733 14a1 02       		.byte	0x2
 7734 14a2 7D       		.byte	0x7d
 7735 14a3 00       		.sleb128 0
 7736 14a4 02       		.byte	0x2
 7737 14a5 75       		.byte	0x75
 7738 14a6 00       		.sleb128 0
ARM GAS  C:\Users\Steve\AppData\Local\Temp\ccroCuoh.s 			page 154


 7739 14a7 00       		.byte	0
 7740 14a8 11       		.uleb128 0x11
 7741 14a9 32000000 		.4byte	.LVL248
 7742 14ad 78080000 		.4byte	0x878
 7743 14b1 12       		.uleb128 0x12
 7744 14b2 01       		.byte	0x1
 7745 14b3 52       		.byte	0x52
 7746 14b4 01       		.byte	0x1
 7747 14b5 3C       		.byte	0x3c
 7748 14b6 12       		.uleb128 0x12
 7749 14b7 01       		.byte	0x1
 7750 14b8 51       		.byte	0x51
 7751 14b9 02       		.byte	0x2
 7752 14ba 74       		.byte	0x74
 7753 14bb 00       		.sleb128 0
 7754 14bc 12       		.uleb128 0x12
 7755 14bd 01       		.byte	0x1
 7756 14be 50       		.byte	0x50
 7757 14bf 02       		.byte	0x2
 7758 14c0 76       		.byte	0x76
 7759 14c1 00       		.sleb128 0
 7760 14c2 12       		.uleb128 0x12
 7761 14c3 02       		.byte	0x2
 7762 14c4 7D       		.byte	0x7d
 7763 14c5 00       		.sleb128 0
 7764 14c6 02       		.byte	0x2
 7765 14c7 75       		.byte	0x75
 7766 14c8 00       		.sleb128 0
 7767 14c9 00       		.byte	0
 7768 14ca 00       		.byte	0
 7769 14cb 16       		.uleb128 0x16
 7770 14cc 01       		.byte	0x1
 7771 14cd 3A000000 		.4byte	.LASF48
 7772 14d1 01       		.byte	0x1
 7773 14d2 6601     		.2byte	0x166
 7774 14d4 01       		.byte	0x1
 7775 14d5 00000000 		.4byte	.LFB53
 7776 14d9 A0000000 		.4byte	.LFE53
 7777 14dd D8120000 		.4byte	.LLST106
 7778 14e1 01       		.byte	0x1
 7779 14e2 22160000 		.4byte	0x1622
 7780 14e6 17       		.uleb128 0x17
 7781 14e7 783000   		.ascii	"x0\000"
 7782 14ea 01       		.byte	0x1
 7783 14eb 6601     		.2byte	0x166
 7784 14ed 90000000 		.4byte	0x90
 7785 14f1 10130000 		.4byte	.LLST107
 7786 14f5 17       		.uleb128 0x17
 7787 14f6 793000   		.ascii	"y0\000"
 7788 14f9 01       		.byte	0x1
 7789 14fa 6601     		.2byte	0x166
 7790 14fc 90000000 		.4byte	0x90
 7791 1500 47130000 		.4byte	.LLST108
 7792 1504 18       		.uleb128 0x18
 7793 1505 6300     		.ascii	"c\000"
 7794 1507 01       		.byte	0x1
 7795 1508 6601     		.2byte	0x166
ARM GAS  C:\Users\Steve\AppData\Local\Temp\ccroCuoh.s 			page 155


 7796 150a 2C010000 		.4byte	0x12c
 7797 150e 02       		.byte	0x2
 7798 150f 91       		.byte	0x91
 7799 1510 5C       		.sleb128 -36
 7800 1511 1B       		.uleb128 0x1b
 7801 1512 DA000000 		.4byte	.LASF18
 7802 1516 01       		.byte	0x1
 7803 1517 6601     		.2byte	0x166
 7804 1519 C4010000 		.4byte	0x1c4
 7805 151d 68130000 		.4byte	.LLST109
 7806 1521 15       		.uleb128 0x15
 7807 1522 2C000000 		.4byte	.LVL254
 7808 1526 F8080000 		.4byte	0x8f8
 7809 152a 41150000 		.4byte	0x1541
 7810 152e 12       		.uleb128 0x12
 7811 152f 01       		.byte	0x1
 7812 1530 52       		.byte	0x52
 7813 1531 01       		.byte	0x1
 7814 1532 33       		.byte	0x33
 7815 1533 12       		.uleb128 0x12
 7816 1534 01       		.byte	0x1
 7817 1535 50       		.byte	0x50
 7818 1536 02       		.byte	0x2
 7819 1537 77       		.byte	0x77
 7820 1538 00       		.sleb128 0
 7821 1539 12       		.uleb128 0x12
 7822 153a 02       		.byte	0x2
 7823 153b 7D       		.byte	0x7d
 7824 153c 00       		.sleb128 0
 7825 153d 02       		.byte	0x2
 7826 153e 74       		.byte	0x74
 7827 153f 00       		.sleb128 0
 7828 1540 00       		.byte	0
 7829 1541 15       		.uleb128 0x15
 7830 1542 3C000000 		.4byte	.LVL255
 7831 1546 F8080000 		.4byte	0x8f8
 7832 154a 67150000 		.4byte	0x1567
 7833 154e 12       		.uleb128 0x12
 7834 154f 01       		.byte	0x1
 7835 1550 52       		.byte	0x52
 7836 1551 01       		.byte	0x1
 7837 1552 33       		.byte	0x33
 7838 1553 12       		.uleb128 0x12
 7839 1554 01       		.byte	0x1
 7840 1555 51       		.byte	0x51
 7841 1556 02       		.byte	0x2
 7842 1557 75       		.byte	0x75
 7843 1558 05       		.sleb128 5
 7844 1559 12       		.uleb128 0x12
 7845 155a 01       		.byte	0x1
 7846 155b 50       		.byte	0x50
 7847 155c 02       		.byte	0x2
 7848 155d 77       		.byte	0x77
 7849 155e 00       		.sleb128 0
 7850 155f 12       		.uleb128 0x12
 7851 1560 02       		.byte	0x2
 7852 1561 7D       		.byte	0x7d
ARM GAS  C:\Users\Steve\AppData\Local\Temp\ccroCuoh.s 			page 156


 7853 1562 00       		.sleb128 0
 7854 1563 02       		.byte	0x2
 7855 1564 74       		.byte	0x74
 7856 1565 00       		.sleb128 0
 7857 1566 00       		.byte	0
 7858 1567 15       		.uleb128 0x15
 7859 1568 4E000000 		.4byte	.LVL256
 7860 156c F8080000 		.4byte	0x8f8
 7861 1570 8D150000 		.4byte	0x158d
 7862 1574 12       		.uleb128 0x12
 7863 1575 01       		.byte	0x1
 7864 1576 52       		.byte	0x52
 7865 1577 01       		.byte	0x1
 7866 1578 33       		.byte	0x33
 7867 1579 12       		.uleb128 0x12
 7868 157a 01       		.byte	0x1
 7869 157b 51       		.byte	0x51
 7870 157c 02       		.byte	0x2
 7871 157d 75       		.byte	0x75
 7872 157e 0B       		.sleb128 11
 7873 157f 12       		.uleb128 0x12
 7874 1580 01       		.byte	0x1
 7875 1581 50       		.byte	0x50
 7876 1582 02       		.byte	0x2
 7877 1583 77       		.byte	0x77
 7878 1584 00       		.sleb128 0
 7879 1585 12       		.uleb128 0x12
 7880 1586 02       		.byte	0x2
 7881 1587 7D       		.byte	0x7d
 7882 1588 00       		.sleb128 0
 7883 1589 02       		.byte	0x2
 7884 158a 74       		.byte	0x74
 7885 158b 00       		.sleb128 0
 7886 158c 00       		.byte	0
 7887 158d 15       		.uleb128 0x15
 7888 158e 6A000000 		.4byte	.LVL257
 7889 1592 78080000 		.4byte	0x878
 7890 1596 B3150000 		.4byte	0x15b3
 7891 159a 12       		.uleb128 0x12
 7892 159b 01       		.byte	0x1
 7893 159c 52       		.byte	0x52
 7894 159d 01       		.byte	0x1
 7895 159e 34       		.byte	0x34
 7896 159f 12       		.uleb128 0x12
 7897 15a0 01       		.byte	0x1
 7898 15a1 51       		.byte	0x51
 7899 15a2 02       		.byte	0x2
 7900 15a3 78       		.byte	0x78
 7901 15a4 00       		.sleb128 0
 7902 15a5 12       		.uleb128 0x12
 7903 15a6 01       		.byte	0x1
 7904 15a7 50       		.byte	0x50
 7905 15a8 02       		.byte	0x2
 7906 15a9 76       		.byte	0x76
 7907 15aa 00       		.sleb128 0
 7908 15ab 12       		.uleb128 0x12
 7909 15ac 02       		.byte	0x2
ARM GAS  C:\Users\Steve\AppData\Local\Temp\ccroCuoh.s 			page 157


 7910 15ad 7D       		.byte	0x7d
 7911 15ae 00       		.sleb128 0
 7912 15af 02       		.byte	0x2
 7913 15b0 74       		.byte	0x74
 7914 15b1 00       		.sleb128 0
 7915 15b2 00       		.byte	0
 7916 15b3 15       		.uleb128 0x15
 7917 15b4 7A000000 		.4byte	.LVL258
 7918 15b8 78080000 		.4byte	0x878
 7919 15bc D9150000 		.4byte	0x15d9
 7920 15c0 12       		.uleb128 0x12
 7921 15c1 01       		.byte	0x1
 7922 15c2 52       		.byte	0x52
 7923 15c3 01       		.byte	0x1
 7924 15c4 34       		.byte	0x34
 7925 15c5 12       		.uleb128 0x12
 7926 15c6 01       		.byte	0x1
 7927 15c7 51       		.byte	0x51
 7928 15c8 02       		.byte	0x2
 7929 15c9 78       		.byte	0x78
 7930 15ca 00       		.sleb128 0
 7931 15cb 12       		.uleb128 0x12
 7932 15cc 01       		.byte	0x1
 7933 15cd 50       		.byte	0x50
 7934 15ce 02       		.byte	0x2
 7935 15cf 77       		.byte	0x77
 7936 15d0 00       		.sleb128 0
 7937 15d1 12       		.uleb128 0x12
 7938 15d2 02       		.byte	0x2
 7939 15d3 7D       		.byte	0x7d
 7940 15d4 00       		.sleb128 0
 7941 15d5 02       		.byte	0x2
 7942 15d6 74       		.byte	0x74
 7943 15d7 00       		.sleb128 0
 7944 15d8 00       		.byte	0
 7945 15d9 15       		.uleb128 0x15
 7946 15da 88000000 		.4byte	.LVL259
 7947 15de 78080000 		.4byte	0x878
 7948 15e2 FF150000 		.4byte	0x15ff
 7949 15e6 12       		.uleb128 0x12
 7950 15e7 01       		.byte	0x1
 7951 15e8 52       		.byte	0x52
 7952 15e9 01       		.byte	0x1
 7953 15ea 35       		.byte	0x35
 7954 15eb 12       		.uleb128 0x12
 7955 15ec 01       		.byte	0x1
 7956 15ed 51       		.byte	0x51
 7957 15ee 02       		.byte	0x2
 7958 15ef 75       		.byte	0x75
 7959 15f0 00       		.sleb128 0
 7960 15f1 12       		.uleb128 0x12
 7961 15f2 01       		.byte	0x1
 7962 15f3 50       		.byte	0x50
 7963 15f4 02       		.byte	0x2
 7964 15f5 76       		.byte	0x76
 7965 15f6 00       		.sleb128 0
 7966 15f7 12       		.uleb128 0x12
ARM GAS  C:\Users\Steve\AppData\Local\Temp\ccroCuoh.s 			page 158


 7967 15f8 02       		.byte	0x2
 7968 15f9 7D       		.byte	0x7d
 7969 15fa 00       		.sleb128 0
 7970 15fb 02       		.byte	0x2
 7971 15fc 74       		.byte	0x74
 7972 15fd 00       		.sleb128 0
 7973 15fe 00       		.byte	0
 7974 15ff 11       		.uleb128 0x11
 7975 1600 96000000 		.4byte	.LVL260
 7976 1604 78080000 		.4byte	0x878
 7977 1608 12       		.uleb128 0x12
 7978 1609 01       		.byte	0x1
 7979 160a 52       		.byte	0x52
 7980 160b 01       		.byte	0x1
 7981 160c 35       		.byte	0x35
 7982 160d 12       		.uleb128 0x12
 7983 160e 01       		.byte	0x1
 7984 160f 51       		.byte	0x51
 7985 1610 02       		.byte	0x2
 7986 1611 75       		.byte	0x75
 7987 1612 00       		.sleb128 0
 7988 1613 12       		.uleb128 0x12
 7989 1614 01       		.byte	0x1
 7990 1615 50       		.byte	0x50
 7991 1616 02       		.byte	0x2
 7992 1617 77       		.byte	0x77
 7993 1618 00       		.sleb128 0
 7994 1619 12       		.uleb128 0x12
 7995 161a 02       		.byte	0x2
 7996 161b 7D       		.byte	0x7d
 7997 161c 00       		.sleb128 0
 7998 161d 02       		.byte	0x2
 7999 161e 74       		.byte	0x74
 8000 161f 00       		.sleb128 0
 8001 1620 00       		.byte	0
 8002 1621 00       		.byte	0
 8003 1622 16       		.uleb128 0x16
 8004 1623 01       		.byte	0x1
 8005 1624 19000000 		.4byte	.LASF49
 8006 1628 01       		.byte	0x1
 8007 1629 7001     		.2byte	0x170
 8008 162b 01       		.byte	0x1
 8009 162c 00000000 		.4byte	.LFB54
 8010 1630 60000000 		.4byte	.LFE54
 8011 1634 94130000 		.4byte	.LLST110
 8012 1638 01       		.byte	0x1
 8013 1639 01170000 		.4byte	0x1701
 8014 163d 17       		.uleb128 0x17
 8015 163e 783000   		.ascii	"x0\000"
 8016 1641 01       		.byte	0x1
 8017 1642 7001     		.2byte	0x170
 8018 1644 90000000 		.4byte	0x90
 8019 1648 CC130000 		.4byte	.LLST111
 8020 164c 17       		.uleb128 0x17
 8021 164d 793000   		.ascii	"y0\000"
 8022 1650 01       		.byte	0x1
 8023 1651 7001     		.2byte	0x170
ARM GAS  C:\Users\Steve\AppData\Local\Temp\ccroCuoh.s 			page 159


 8024 1653 90000000 		.4byte	0x90
 8025 1657 05140000 		.4byte	.LLST112
 8026 165b 18       		.uleb128 0x18
 8027 165c 6300     		.ascii	"c\000"
 8028 165e 01       		.byte	0x1
 8029 165f 7001     		.2byte	0x170
 8030 1661 2C010000 		.4byte	0x12c
 8031 1665 02       		.byte	0x2
 8032 1666 91       		.byte	0x91
 8033 1667 64       		.sleb128 -28
 8034 1668 1B       		.uleb128 0x1b
 8035 1669 DA000000 		.4byte	.LASF18
 8036 166d 01       		.byte	0x1
 8037 166e 7001     		.2byte	0x170
 8038 1670 C4010000 		.4byte	0x1c4
 8039 1674 26140000 		.4byte	.LLST113
 8040 1678 15       		.uleb128 0x15
 8041 1679 26000000 		.4byte	.LVL266
 8042 167d F8080000 		.4byte	0x8f8
 8043 1681 98160000 		.4byte	0x1698
 8044 1685 12       		.uleb128 0x12
 8045 1686 01       		.byte	0x1
 8046 1687 52       		.byte	0x52
 8047 1688 01       		.byte	0x1
 8048 1689 33       		.byte	0x33
 8049 168a 12       		.uleb128 0x12
 8050 168b 01       		.byte	0x1
 8051 168c 50       		.byte	0x50
 8052 168d 02       		.byte	0x2
 8053 168e 78       		.byte	0x78
 8054 168f 00       		.sleb128 0
 8055 1690 12       		.uleb128 0x12
 8056 1691 02       		.byte	0x2
 8057 1692 7D       		.byte	0x7d
 8058 1693 00       		.sleb128 0
 8059 1694 02       		.byte	0x2
 8060 1695 74       		.byte	0x74
 8061 1696 00       		.sleb128 0
 8062 1697 00       		.byte	0
 8063 1698 15       		.uleb128 0x15
 8064 1699 3A000000 		.4byte	.LVL267
 8065 169d F8080000 		.4byte	0x8f8
 8066 16a1 B8160000 		.4byte	0x16b8
 8067 16a5 12       		.uleb128 0x12
 8068 16a6 01       		.byte	0x1
 8069 16a7 52       		.byte	0x52
 8070 16a8 01       		.byte	0x1
 8071 16a9 33       		.byte	0x33
 8072 16aa 12       		.uleb128 0x12
 8073 16ab 01       		.byte	0x1
 8074 16ac 50       		.byte	0x50
 8075 16ad 02       		.byte	0x2
 8076 16ae 78       		.byte	0x78
 8077 16af 00       		.sleb128 0
 8078 16b0 12       		.uleb128 0x12
 8079 16b1 02       		.byte	0x2
 8080 16b2 7D       		.byte	0x7d
ARM GAS  C:\Users\Steve\AppData\Local\Temp\ccroCuoh.s 			page 160


 8081 16b3 00       		.sleb128 0
 8082 16b4 02       		.byte	0x2
 8083 16b5 74       		.byte	0x74
 8084 16b6 00       		.sleb128 0
 8085 16b7 00       		.byte	0
 8086 16b8 15       		.uleb128 0x15
 8087 16b9 4A000000 		.4byte	.LVL269
 8088 16bd 78080000 		.4byte	0x878
 8089 16c1 DE160000 		.4byte	0x16de
 8090 16c5 12       		.uleb128 0x12
 8091 16c6 01       		.byte	0x1
 8092 16c7 52       		.byte	0x52
 8093 16c8 01       		.byte	0x1
 8094 16c9 34       		.byte	0x34
 8095 16ca 12       		.uleb128 0x12
 8096 16cb 01       		.byte	0x1
 8097 16cc 51       		.byte	0x51
 8098 16cd 02       		.byte	0x2
 8099 16ce 75       		.byte	0x75
 8100 16cf 00       		.sleb128 0
 8101 16d0 12       		.uleb128 0x12
 8102 16d1 01       		.byte	0x1
 8103 16d2 50       		.byte	0x50
 8104 16d3 02       		.byte	0x2
 8105 16d4 77       		.byte	0x77
 8106 16d5 00       		.sleb128 0
 8107 16d6 12       		.uleb128 0x12
 8108 16d7 02       		.byte	0x2
 8109 16d8 7D       		.byte	0x7d
 8110 16d9 00       		.sleb128 0
 8111 16da 02       		.byte	0x2
 8112 16db 74       		.byte	0x74
 8113 16dc 00       		.sleb128 0
 8114 16dd 00       		.byte	0
 8115 16de 11       		.uleb128 0x11
 8116 16df 58000000 		.4byte	.LVL270
 8117 16e3 78080000 		.4byte	0x878
 8118 16e7 12       		.uleb128 0x12
 8119 16e8 01       		.byte	0x1
 8120 16e9 52       		.byte	0x52
 8121 16ea 01       		.byte	0x1
 8122 16eb 3B       		.byte	0x3b
 8123 16ec 12       		.uleb128 0x12
 8124 16ed 01       		.byte	0x1
 8125 16ee 51       		.byte	0x51
 8126 16ef 02       		.byte	0x2
 8127 16f0 75       		.byte	0x75
 8128 16f1 00       		.sleb128 0
 8129 16f2 12       		.uleb128 0x12
 8130 16f3 01       		.byte	0x1
 8131 16f4 50       		.byte	0x50
 8132 16f5 02       		.byte	0x2
 8133 16f6 76       		.byte	0x76
 8134 16f7 00       		.sleb128 0
 8135 16f8 12       		.uleb128 0x12
 8136 16f9 02       		.byte	0x2
 8137 16fa 7D       		.byte	0x7d
ARM GAS  C:\Users\Steve\AppData\Local\Temp\ccroCuoh.s 			page 161


 8138 16fb 00       		.sleb128 0
 8139 16fc 02       		.byte	0x2
 8140 16fd 74       		.byte	0x74
 8141 16fe 00       		.sleb128 0
 8142 16ff 00       		.byte	0
 8143 1700 00       		.byte	0
 8144 1701 16       		.uleb128 0x16
 8145 1702 01       		.byte	0x1
 8146 1703 21030000 		.4byte	.LASF50
 8147 1707 01       		.byte	0x1
 8148 1708 7701     		.2byte	0x177
 8149 170a 01       		.byte	0x1
 8150 170b 00000000 		.4byte	.LFB55
 8151 170f 62000000 		.4byte	.LFE55
 8152 1713 52140000 		.4byte	.LLST114
 8153 1717 01       		.byte	0x1
 8154 1718 E0170000 		.4byte	0x17e0
 8155 171c 17       		.uleb128 0x17
 8156 171d 783000   		.ascii	"x0\000"
 8157 1720 01       		.byte	0x1
 8158 1721 7701     		.2byte	0x177
 8159 1723 90000000 		.4byte	0x90
 8160 1727 8A140000 		.4byte	.LLST115
 8161 172b 17       		.uleb128 0x17
 8162 172c 793000   		.ascii	"y0\000"
 8163 172f 01       		.byte	0x1
 8164 1730 7701     		.2byte	0x177
 8165 1732 90000000 		.4byte	0x90
 8166 1736 C3140000 		.4byte	.LLST116
 8167 173a 18       		.uleb128 0x18
 8168 173b 6300     		.ascii	"c\000"
 8169 173d 01       		.byte	0x1
 8170 173e 7701     		.2byte	0x177
 8171 1740 2C010000 		.4byte	0x12c
 8172 1744 02       		.byte	0x2
 8173 1745 91       		.byte	0x91
 8174 1746 64       		.sleb128 -28
 8175 1747 1B       		.uleb128 0x1b
 8176 1748 DA000000 		.4byte	.LASF18
 8177 174c 01       		.byte	0x1
 8178 174d 7701     		.2byte	0x177
 8179 174f C4010000 		.4byte	0x1c4
 8180 1753 E4140000 		.4byte	.LLST117
 8181 1757 15       		.uleb128 0x15
 8182 1758 26000000 		.4byte	.LVL276
 8183 175c F8080000 		.4byte	0x8f8
 8184 1760 77170000 		.4byte	0x1777
 8185 1764 12       		.uleb128 0x12
 8186 1765 01       		.byte	0x1
 8187 1766 52       		.byte	0x52
 8188 1767 01       		.byte	0x1
 8189 1768 33       		.byte	0x33
 8190 1769 12       		.uleb128 0x12
 8191 176a 01       		.byte	0x1
 8192 176b 50       		.byte	0x50
 8193 176c 02       		.byte	0x2
 8194 176d 78       		.byte	0x78
ARM GAS  C:\Users\Steve\AppData\Local\Temp\ccroCuoh.s 			page 162


 8195 176e 00       		.sleb128 0
 8196 176f 12       		.uleb128 0x12
 8197 1770 02       		.byte	0x2
 8198 1771 7D       		.byte	0x7d
 8199 1772 00       		.sleb128 0
 8200 1773 02       		.byte	0x2
 8201 1774 74       		.byte	0x74
 8202 1775 00       		.sleb128 0
 8203 1776 00       		.byte	0
 8204 1777 15       		.uleb128 0x15
 8205 1778 3C000000 		.4byte	.LVL277
 8206 177c F8080000 		.4byte	0x8f8
 8207 1780 97170000 		.4byte	0x1797
 8208 1784 12       		.uleb128 0x12
 8209 1785 01       		.byte	0x1
 8210 1786 52       		.byte	0x52
 8211 1787 01       		.byte	0x1
 8212 1788 33       		.byte	0x33
 8213 1789 12       		.uleb128 0x12
 8214 178a 01       		.byte	0x1
 8215 178b 50       		.byte	0x50
 8216 178c 02       		.byte	0x2
 8217 178d 78       		.byte	0x78
 8218 178e 00       		.sleb128 0
 8219 178f 12       		.uleb128 0x12
 8220 1790 02       		.byte	0x2
 8221 1791 7D       		.byte	0x7d
 8222 1792 00       		.sleb128 0
 8223 1793 02       		.byte	0x2
 8224 1794 74       		.byte	0x74
 8225 1795 00       		.sleb128 0
 8226 1796 00       		.byte	0
 8227 1797 15       		.uleb128 0x15
 8228 1798 4C000000 		.4byte	.LVL279
 8229 179c 78080000 		.4byte	0x878
 8230 17a0 BD170000 		.4byte	0x17bd
 8231 17a4 12       		.uleb128 0x12
 8232 17a5 01       		.byte	0x1
 8233 17a6 52       		.byte	0x52
 8234 17a7 01       		.byte	0x1
 8235 17a8 3A       		.byte	0x3a
 8236 17a9 12       		.uleb128 0x12
 8237 17aa 01       		.byte	0x1
 8238 17ab 51       		.byte	0x51
 8239 17ac 02       		.byte	0x2
 8240 17ad 75       		.byte	0x75
 8241 17ae 00       		.sleb128 0
 8242 17af 12       		.uleb128 0x12
 8243 17b0 01       		.byte	0x1
 8244 17b1 50       		.byte	0x50
 8245 17b2 02       		.byte	0x2
 8246 17b3 77       		.byte	0x77
 8247 17b4 00       		.sleb128 0
 8248 17b5 12       		.uleb128 0x12
 8249 17b6 02       		.byte	0x2
 8250 17b7 7D       		.byte	0x7d
 8251 17b8 00       		.sleb128 0
ARM GAS  C:\Users\Steve\AppData\Local\Temp\ccroCuoh.s 			page 163


 8252 17b9 02       		.byte	0x2
 8253 17ba 74       		.byte	0x74
 8254 17bb 00       		.sleb128 0
 8255 17bc 00       		.byte	0
 8256 17bd 11       		.uleb128 0x11
 8257 17be 5A000000 		.4byte	.LVL280
 8258 17c2 78080000 		.4byte	0x878
 8259 17c6 12       		.uleb128 0x12
 8260 17c7 01       		.byte	0x1
 8261 17c8 52       		.byte	0x52
 8262 17c9 01       		.byte	0x1
 8263 17ca 3A       		.byte	0x3a
 8264 17cb 12       		.uleb128 0x12
 8265 17cc 01       		.byte	0x1
 8266 17cd 51       		.byte	0x51
 8267 17ce 02       		.byte	0x2
 8268 17cf 75       		.byte	0x75
 8269 17d0 00       		.sleb128 0
 8270 17d1 12       		.uleb128 0x12
 8271 17d2 01       		.byte	0x1
 8272 17d3 50       		.byte	0x50
 8273 17d4 02       		.byte	0x2
 8274 17d5 76       		.byte	0x76
 8275 17d6 00       		.sleb128 0
 8276 17d7 12       		.uleb128 0x12
 8277 17d8 02       		.byte	0x2
 8278 17d9 7D       		.byte	0x7d
 8279 17da 00       		.sleb128 0
 8280 17db 02       		.byte	0x2
 8281 17dc 74       		.byte	0x74
 8282 17dd 00       		.sleb128 0
 8283 17de 00       		.byte	0
 8284 17df 00       		.byte	0
 8285 17e0 16       		.uleb128 0x16
 8286 17e1 01       		.byte	0x1
 8287 17e2 95020000 		.4byte	.LASF51
 8288 17e6 01       		.byte	0x1
 8289 17e7 7F01     		.2byte	0x17f
 8290 17e9 01       		.byte	0x1
 8291 17ea 00000000 		.4byte	.LFB56
 8292 17ee AE000000 		.4byte	.LFE56
 8293 17f2 10150000 		.4byte	.LLST118
 8294 17f6 01       		.byte	0x1
 8295 17f7 F9180000 		.4byte	0x18f9
 8296 17fb 17       		.uleb128 0x17
 8297 17fc 783000   		.ascii	"x0\000"
 8298 17ff 01       		.byte	0x1
 8299 1800 7F01     		.2byte	0x17f
 8300 1802 90000000 		.4byte	0x90
 8301 1806 48150000 		.4byte	.LLST119
 8302 180a 17       		.uleb128 0x17
 8303 180b 793000   		.ascii	"y0\000"
 8304 180e 01       		.byte	0x1
 8305 180f 7F01     		.2byte	0x17f
 8306 1811 90000000 		.4byte	0x90
 8307 1815 69150000 		.4byte	.LLST120
 8308 1819 18       		.uleb128 0x18
ARM GAS  C:\Users\Steve\AppData\Local\Temp\ccroCuoh.s 			page 164


 8309 181a 6300     		.ascii	"c\000"
 8310 181c 01       		.byte	0x1
 8311 181d 7F01     		.2byte	0x17f
 8312 181f 2C010000 		.4byte	0x12c
 8313 1823 02       		.byte	0x2
 8314 1824 91       		.byte	0x91
 8315 1825 54       		.sleb128 -44
 8316 1826 1B       		.uleb128 0x1b
 8317 1827 DA000000 		.4byte	.LASF18
 8318 182b 01       		.byte	0x1
 8319 182c 7F01     		.2byte	0x17f
 8320 182e C4010000 		.4byte	0x1c4
 8321 1832 95150000 		.4byte	.LLST121
 8322 1836 15       		.uleb128 0x15
 8323 1837 4C000000 		.4byte	.LVL286
 8324 183b C8060000 		.4byte	0x6c8
 8325 183f 5D180000 		.4byte	0x185d
 8326 1843 12       		.uleb128 0x12
 8327 1844 01       		.byte	0x1
 8328 1845 53       		.byte	0x53
 8329 1846 02       		.byte	0x2
 8330 1847 75       		.byte	0x75
 8331 1848 00       		.sleb128 0
 8332 1849 12       		.uleb128 0x12
 8333 184a 01       		.byte	0x1
 8334 184b 52       		.byte	0x52
 8335 184c 02       		.byte	0x2
 8336 184d 7A       		.byte	0x7a
 8337 184e 00       		.sleb128 0
 8338 184f 12       		.uleb128 0x12
 8339 1850 01       		.byte	0x1
 8340 1851 50       		.byte	0x50
 8341 1852 02       		.byte	0x2
 8342 1853 79       		.byte	0x79
 8343 1854 02       		.sleb128 2
 8344 1855 12       		.uleb128 0x12
 8345 1856 02       		.byte	0x2
 8346 1857 7D       		.byte	0x7d
 8347 1858 04       		.sleb128 4
 8348 1859 02       		.byte	0x2
 8349 185a 74       		.byte	0x74
 8350 185b 00       		.sleb128 0
 8351 185c 00       		.byte	0
 8352 185d 15       		.uleb128 0x15
 8353 185e 72000000 		.4byte	.LVL287
 8354 1862 C8060000 		.4byte	0x6c8
 8355 1866 8A180000 		.4byte	0x188a
 8356 186a 12       		.uleb128 0x12
 8357 186b 01       		.byte	0x1
 8358 186c 53       		.byte	0x53
 8359 186d 02       		.byte	0x2
 8360 186e 78       		.byte	0x78
 8361 186f 01       		.sleb128 1
 8362 1870 12       		.uleb128 0x12
 8363 1871 01       		.byte	0x1
 8364 1872 52       		.byte	0x52
 8365 1873 02       		.byte	0x2
ARM GAS  C:\Users\Steve\AppData\Local\Temp\ccroCuoh.s 			page 165


 8366 1874 7B       		.byte	0x7b
 8367 1875 00       		.sleb128 0
 8368 1876 12       		.uleb128 0x12
 8369 1877 01       		.byte	0x1
 8370 1878 51       		.byte	0x51
 8371 1879 02       		.byte	0x2
 8372 187a 75       		.byte	0x75
 8373 187b 00       		.sleb128 0
 8374 187c 12       		.uleb128 0x12
 8375 187d 01       		.byte	0x1
 8376 187e 50       		.byte	0x50
 8377 187f 02       		.byte	0x2
 8378 1880 76       		.byte	0x76
 8379 1881 00       		.sleb128 0
 8380 1882 12       		.uleb128 0x12
 8381 1883 02       		.byte	0x2
 8382 1884 7D       		.byte	0x7d
 8383 1885 04       		.sleb128 4
 8384 1886 02       		.byte	0x2
 8385 1887 74       		.byte	0x74
 8386 1888 00       		.sleb128 0
 8387 1889 00       		.byte	0
 8388 188a 15       		.uleb128 0x15
 8389 188b 84000000 		.4byte	.LVL288
 8390 188f F8080000 		.4byte	0x8f8
 8391 1893 B0180000 		.4byte	0x18b0
 8392 1897 12       		.uleb128 0x12
 8393 1898 01       		.byte	0x1
 8394 1899 52       		.byte	0x52
 8395 189a 01       		.byte	0x1
 8396 189b 33       		.byte	0x33
 8397 189c 12       		.uleb128 0x12
 8398 189d 01       		.byte	0x1
 8399 189e 51       		.byte	0x51
 8400 189f 02       		.byte	0x2
 8401 18a0 78       		.byte	0x78
 8402 18a1 07       		.sleb128 7
 8403 18a2 12       		.uleb128 0x12
 8404 18a3 01       		.byte	0x1
 8405 18a4 50       		.byte	0x50
 8406 18a5 02       		.byte	0x2
 8407 18a6 7B       		.byte	0x7b
 8408 18a7 00       		.sleb128 0
 8409 18a8 12       		.uleb128 0x12
 8410 18a9 02       		.byte	0x2
 8411 18aa 7D       		.byte	0x7d
 8412 18ab 00       		.sleb128 0
 8413 18ac 02       		.byte	0x2
 8414 18ad 74       		.byte	0x74
 8415 18ae 00       		.sleb128 0
 8416 18af 00       		.byte	0
 8417 18b0 15       		.uleb128 0x15
 8418 18b1 92000000 		.4byte	.LVL289
 8419 18b5 78080000 		.4byte	0x878
 8420 18b9 D6180000 		.4byte	0x18d6
 8421 18bd 12       		.uleb128 0x12
 8422 18be 01       		.byte	0x1
ARM GAS  C:\Users\Steve\AppData\Local\Temp\ccroCuoh.s 			page 166


 8423 18bf 52       		.byte	0x52
 8424 18c0 01       		.byte	0x1
 8425 18c1 3A       		.byte	0x3a
 8426 18c2 12       		.uleb128 0x12
 8427 18c3 01       		.byte	0x1
 8428 18c4 51       		.byte	0x51
 8429 18c5 02       		.byte	0x2
 8430 18c6 75       		.byte	0x75
 8431 18c7 00       		.sleb128 0
 8432 18c8 12       		.uleb128 0x12
 8433 18c9 01       		.byte	0x1
 8434 18ca 50       		.byte	0x50
 8435 18cb 02       		.byte	0x2
 8436 18cc 7A       		.byte	0x7a
 8437 18cd 00       		.sleb128 0
 8438 18ce 12       		.uleb128 0x12
 8439 18cf 02       		.byte	0x2
 8440 18d0 7D       		.byte	0x7d
 8441 18d1 00       		.sleb128 0
 8442 18d2 02       		.byte	0x2
 8443 18d3 74       		.byte	0x74
 8444 18d4 00       		.sleb128 0
 8445 18d5 00       		.byte	0
 8446 18d6 11       		.uleb128 0x11
 8447 18d7 A0000000 		.4byte	.LVL290
 8448 18db 78080000 		.4byte	0x878
 8449 18df 12       		.uleb128 0x12
 8450 18e0 01       		.byte	0x1
 8451 18e1 52       		.byte	0x52
 8452 18e2 01       		.byte	0x1
 8453 18e3 3A       		.byte	0x3a
 8454 18e4 12       		.uleb128 0x12
 8455 18e5 01       		.byte	0x1
 8456 18e6 51       		.byte	0x51
 8457 18e7 02       		.byte	0x2
 8458 18e8 75       		.byte	0x75
 8459 18e9 00       		.sleb128 0
 8460 18ea 12       		.uleb128 0x12
 8461 18eb 01       		.byte	0x1
 8462 18ec 50       		.byte	0x50
 8463 18ed 02       		.byte	0x2
 8464 18ee 76       		.byte	0x76
 8465 18ef 00       		.sleb128 0
 8466 18f0 12       		.uleb128 0x12
 8467 18f1 02       		.byte	0x2
 8468 18f2 7D       		.byte	0x7d
 8469 18f3 00       		.sleb128 0
 8470 18f4 02       		.byte	0x2
 8471 18f5 74       		.byte	0x74
 8472 18f6 00       		.sleb128 0
 8473 18f7 00       		.byte	0
 8474 18f8 00       		.byte	0
 8475 18f9 16       		.uleb128 0x16
 8476 18fa 01       		.byte	0x1
 8477 18fb 00000000 		.4byte	.LASF52
 8478 18ff 01       		.byte	0x1
 8479 1900 8901     		.2byte	0x189
ARM GAS  C:\Users\Steve\AppData\Local\Temp\ccroCuoh.s 			page 167


 8480 1902 01       		.byte	0x1
 8481 1903 00000000 		.4byte	.LFB57
 8482 1907 8E000000 		.4byte	.LFE57
 8483 190b C1150000 		.4byte	.LLST122
 8484 190f 01       		.byte	0x1
 8485 1910 301A0000 		.4byte	0x1a30
 8486 1914 17       		.uleb128 0x17
 8487 1915 783000   		.ascii	"x0\000"
 8488 1918 01       		.byte	0x1
 8489 1919 8901     		.2byte	0x189
 8490 191b 90000000 		.4byte	0x90
 8491 191f F9150000 		.4byte	.LLST123
 8492 1923 17       		.uleb128 0x17
 8493 1924 793000   		.ascii	"y0\000"
 8494 1927 01       		.byte	0x1
 8495 1928 8901     		.2byte	0x189
 8496 192a 90000000 		.4byte	0x90
 8497 192e 25160000 		.4byte	.LLST124
 8498 1932 18       		.uleb128 0x18
 8499 1933 6300     		.ascii	"c\000"
 8500 1935 01       		.byte	0x1
 8501 1936 8901     		.2byte	0x189
 8502 1938 2C010000 		.4byte	0x12c
 8503 193c 02       		.byte	0x2
 8504 193d 91       		.byte	0x91
 8505 193e 5C       		.sleb128 -36
 8506 193f 1B       		.uleb128 0x1b
 8507 1940 DA000000 		.4byte	.LASF18
 8508 1944 01       		.byte	0x1
 8509 1945 8901     		.2byte	0x189
 8510 1947 C4010000 		.4byte	0x1c4
 8511 194b 5E160000 		.4byte	.LLST125
 8512 194f 15       		.uleb128 0x15
 8513 1950 30000000 		.4byte	.LVL297
 8514 1954 F8080000 		.4byte	0x8f8
 8515 1958 75190000 		.4byte	0x1975
 8516 195c 12       		.uleb128 0x12
 8517 195d 01       		.byte	0x1
 8518 195e 52       		.byte	0x52
 8519 195f 01       		.byte	0x1
 8520 1960 33       		.byte	0x33
 8521 1961 12       		.uleb128 0x12
 8522 1962 01       		.byte	0x1
 8523 1963 51       		.byte	0x51
 8524 1964 02       		.byte	0x2
 8525 1965 75       		.byte	0x75
 8526 1966 05       		.sleb128 5
 8527 1967 12       		.uleb128 0x12
 8528 1968 01       		.byte	0x1
 8529 1969 50       		.byte	0x50
 8530 196a 02       		.byte	0x2
 8531 196b 76       		.byte	0x76
 8532 196c 00       		.sleb128 0
 8533 196d 12       		.uleb128 0x12
 8534 196e 02       		.byte	0x2
 8535 196f 7D       		.byte	0x7d
 8536 1970 00       		.sleb128 0
ARM GAS  C:\Users\Steve\AppData\Local\Temp\ccroCuoh.s 			page 168


 8537 1971 02       		.byte	0x2
 8538 1972 74       		.byte	0x74
 8539 1973 00       		.sleb128 0
 8540 1974 00       		.byte	0
 8541 1975 15       		.uleb128 0x15
 8542 1976 3E000000 		.4byte	.LVL298
 8543 197a 78080000 		.4byte	0x878
 8544 197e 9B190000 		.4byte	0x199b
 8545 1982 12       		.uleb128 0x12
 8546 1983 01       		.byte	0x1
 8547 1984 52       		.byte	0x52
 8548 1985 01       		.byte	0x1
 8549 1986 3C       		.byte	0x3c
 8550 1987 12       		.uleb128 0x12
 8551 1988 01       		.byte	0x1
 8552 1989 51       		.byte	0x51
 8553 198a 02       		.byte	0x2
 8554 198b 77       		.byte	0x77
 8555 198c 00       		.sleb128 0
 8556 198d 12       		.uleb128 0x12
 8557 198e 01       		.byte	0x1
 8558 198f 50       		.byte	0x50
 8559 1990 02       		.byte	0x2
 8560 1991 79       		.byte	0x79
 8561 1992 00       		.sleb128 0
 8562 1993 12       		.uleb128 0x12
 8563 1994 02       		.byte	0x2
 8564 1995 7D       		.byte	0x7d
 8565 1996 00       		.sleb128 0
 8566 1997 02       		.byte	0x2
 8567 1998 74       		.byte	0x74
 8568 1999 00       		.sleb128 0
 8569 199a 00       		.byte	0
 8570 199b 15       		.uleb128 0x15
 8571 199c 56000000 		.4byte	.LVL299
 8572 19a0 78080000 		.4byte	0x878
 8573 19a4 C1190000 		.4byte	0x19c1
 8574 19a8 12       		.uleb128 0x12
 8575 19a9 01       		.byte	0x1
 8576 19aa 52       		.byte	0x52
 8577 19ab 01       		.byte	0x1
 8578 19ac 34       		.byte	0x34
 8579 19ad 12       		.uleb128 0x12
 8580 19ae 01       		.byte	0x1
 8581 19af 51       		.byte	0x51
 8582 19b0 02       		.byte	0x2
 8583 19b1 75       		.byte	0x75
 8584 19b2 01       		.sleb128 1
 8585 19b3 12       		.uleb128 0x12
 8586 19b4 01       		.byte	0x1
 8587 19b5 50       		.byte	0x50
 8588 19b6 02       		.byte	0x2
 8589 19b7 79       		.byte	0x79
 8590 19b8 00       		.sleb128 0
 8591 19b9 12       		.uleb128 0x12
 8592 19ba 02       		.byte	0x2
 8593 19bb 7D       		.byte	0x7d
ARM GAS  C:\Users\Steve\AppData\Local\Temp\ccroCuoh.s 			page 169


 8594 19bc 00       		.sleb128 0
 8595 19bd 02       		.byte	0x2
 8596 19be 74       		.byte	0x74
 8597 19bf 00       		.sleb128 0
 8598 19c0 00       		.byte	0
 8599 19c1 15       		.uleb128 0x15
 8600 19c2 66000000 		.4byte	.LVL300
 8601 19c6 78080000 		.4byte	0x878
 8602 19ca E7190000 		.4byte	0x19e7
 8603 19ce 12       		.uleb128 0x12
 8604 19cf 01       		.byte	0x1
 8605 19d0 52       		.byte	0x52
 8606 19d1 01       		.byte	0x1
 8607 19d2 35       		.byte	0x35
 8608 19d3 12       		.uleb128 0x12
 8609 19d4 01       		.byte	0x1
 8610 19d5 51       		.byte	0x51
 8611 19d6 02       		.byte	0x2
 8612 19d7 75       		.byte	0x75
 8613 19d8 06       		.sleb128 6
 8614 19d9 12       		.uleb128 0x12
 8615 19da 01       		.byte	0x1
 8616 19db 50       		.byte	0x50
 8617 19dc 02       		.byte	0x2
 8618 19dd 79       		.byte	0x79
 8619 19de 00       		.sleb128 0
 8620 19df 12       		.uleb128 0x12
 8621 19e0 02       		.byte	0x2
 8622 19e1 7D       		.byte	0x7d
 8623 19e2 00       		.sleb128 0
 8624 19e3 02       		.byte	0x2
 8625 19e4 74       		.byte	0x74
 8626 19e5 00       		.sleb128 0
 8627 19e6 00       		.byte	0
 8628 19e7 15       		.uleb128 0x15
 8629 19e8 76000000 		.4byte	.LVL302
 8630 19ec F8080000 		.4byte	0x8f8
 8631 19f0 0D1A0000 		.4byte	0x1a0d
 8632 19f4 12       		.uleb128 0x12
 8633 19f5 01       		.byte	0x1
 8634 19f6 52       		.byte	0x52
 8635 19f7 01       		.byte	0x1
 8636 19f8 33       		.byte	0x33
 8637 19f9 12       		.uleb128 0x12
 8638 19fa 01       		.byte	0x1
 8639 19fb 51       		.byte	0x51
 8640 19fc 02       		.byte	0x2
 8641 19fd 77       		.byte	0x77
 8642 19fe 00       		.sleb128 0
 8643 19ff 12       		.uleb128 0x12
 8644 1a00 01       		.byte	0x1
 8645 1a01 50       		.byte	0x50
 8646 1a02 02       		.byte	0x2
 8647 1a03 76       		.byte	0x76
 8648 1a04 00       		.sleb128 0
 8649 1a05 12       		.uleb128 0x12
 8650 1a06 02       		.byte	0x2
ARM GAS  C:\Users\Steve\AppData\Local\Temp\ccroCuoh.s 			page 170


 8651 1a07 7D       		.byte	0x7d
 8652 1a08 00       		.sleb128 0
 8653 1a09 02       		.byte	0x2
 8654 1a0a 74       		.byte	0x74
 8655 1a0b 00       		.sleb128 0
 8656 1a0c 00       		.byte	0
 8657 1a0d 11       		.uleb128 0x11
 8658 1a0e 84000000 		.4byte	.LVL303
 8659 1a12 F8080000 		.4byte	0x8f8
 8660 1a16 12       		.uleb128 0x12
 8661 1a17 01       		.byte	0x1
 8662 1a18 52       		.byte	0x52
 8663 1a19 01       		.byte	0x1
 8664 1a1a 33       		.byte	0x33
 8665 1a1b 12       		.uleb128 0x12
 8666 1a1c 01       		.byte	0x1
 8667 1a1d 51       		.byte	0x51
 8668 1a1e 02       		.byte	0x2
 8669 1a1f 75       		.byte	0x75
 8670 1a20 00       		.sleb128 0
 8671 1a21 12       		.uleb128 0x12
 8672 1a22 01       		.byte	0x1
 8673 1a23 50       		.byte	0x50
 8674 1a24 02       		.byte	0x2
 8675 1a25 76       		.byte	0x76
 8676 1a26 00       		.sleb128 0
 8677 1a27 12       		.uleb128 0x12
 8678 1a28 02       		.byte	0x2
 8679 1a29 7D       		.byte	0x7d
 8680 1a2a 00       		.sleb128 0
 8681 1a2b 02       		.byte	0x2
 8682 1a2c 74       		.byte	0x74
 8683 1a2d 00       		.sleb128 0
 8684 1a2e 00       		.byte	0
 8685 1a2f 00       		.byte	0
 8686 1a30 16       		.uleb128 0x16
 8687 1a31 01       		.byte	0x1
 8688 1a32 06000000 		.4byte	.LASF53
 8689 1a36 01       		.byte	0x1
 8690 1a37 9301     		.2byte	0x193
 8691 1a39 01       		.byte	0x1
 8692 1a3a 00000000 		.4byte	.LFB58
 8693 1a3e 70000000 		.4byte	.LFE58
 8694 1a42 8A160000 		.4byte	.LLST126
 8695 1a46 01       		.byte	0x1
 8696 1a47 2F1B0000 		.4byte	0x1b2f
 8697 1a4b 17       		.uleb128 0x17
 8698 1a4c 783000   		.ascii	"x0\000"
 8699 1a4f 01       		.byte	0x1
 8700 1a50 9301     		.2byte	0x193
 8701 1a52 90000000 		.4byte	0x90
 8702 1a56 C2160000 		.4byte	.LLST127
 8703 1a5a 17       		.uleb128 0x17
 8704 1a5b 793000   		.ascii	"y0\000"
 8705 1a5e 01       		.byte	0x1
 8706 1a5f 9301     		.2byte	0x193
 8707 1a61 90000000 		.4byte	0x90
ARM GAS  C:\Users\Steve\AppData\Local\Temp\ccroCuoh.s 			page 171


 8708 1a65 E3160000 		.4byte	.LLST128
 8709 1a69 18       		.uleb128 0x18
 8710 1a6a 6300     		.ascii	"c\000"
 8711 1a6c 01       		.byte	0x1
 8712 1a6d 9301     		.2byte	0x193
 8713 1a6f 2C010000 		.4byte	0x12c
 8714 1a73 02       		.byte	0x2
 8715 1a74 91       		.byte	0x91
 8716 1a75 64       		.sleb128 -28
 8717 1a76 1B       		.uleb128 0x1b
 8718 1a77 DA000000 		.4byte	.LASF18
 8719 1a7b 01       		.byte	0x1
 8720 1a7c 9301     		.2byte	0x193
 8721 1a7e C4010000 		.4byte	0x1c4
 8722 1a82 1C170000 		.4byte	.LLST129
 8723 1a86 15       		.uleb128 0x15
 8724 1a87 24000000 		.4byte	.LVL310
 8725 1a8b 78080000 		.4byte	0x878
 8726 1a8f A61A0000 		.4byte	0x1aa6
 8727 1a93 12       		.uleb128 0x12
 8728 1a94 01       		.byte	0x1
 8729 1a95 52       		.byte	0x52
 8730 1a96 01       		.byte	0x1
 8731 1a97 38       		.byte	0x38
 8732 1a98 12       		.uleb128 0x12
 8733 1a99 01       		.byte	0x1
 8734 1a9a 51       		.byte	0x51
 8735 1a9b 02       		.byte	0x2
 8736 1a9c 75       		.byte	0x75
 8737 1a9d 02       		.sleb128 2
 8738 1a9e 12       		.uleb128 0x12
 8739 1a9f 02       		.byte	0x2
 8740 1aa0 7D       		.byte	0x7d
 8741 1aa1 00       		.sleb128 0
 8742 1aa2 02       		.byte	0x2
 8743 1aa3 74       		.byte	0x74
 8744 1aa4 00       		.sleb128 0
 8745 1aa5 00       		.byte	0
 8746 1aa6 15       		.uleb128 0x15
 8747 1aa7 36000000 		.4byte	.LVL311
 8748 1aab F8080000 		.4byte	0x8f8
 8749 1aaf CC1A0000 		.4byte	0x1acc
 8750 1ab3 12       		.uleb128 0x12
 8751 1ab4 01       		.byte	0x1
 8752 1ab5 52       		.byte	0x52
 8753 1ab6 01       		.byte	0x1
 8754 1ab7 33       		.byte	0x33
 8755 1ab8 12       		.uleb128 0x12
 8756 1ab9 01       		.byte	0x1
 8757 1aba 51       		.byte	0x51
 8758 1abb 02       		.byte	0x2
 8759 1abc 78       		.byte	0x78
 8760 1abd 00       		.sleb128 0
 8761 1abe 12       		.uleb128 0x12
 8762 1abf 01       		.byte	0x1
 8763 1ac0 50       		.byte	0x50
 8764 1ac1 02       		.byte	0x2
ARM GAS  C:\Users\Steve\AppData\Local\Temp\ccroCuoh.s 			page 172


 8765 1ac2 77       		.byte	0x77
 8766 1ac3 00       		.sleb128 0
 8767 1ac4 12       		.uleb128 0x12
 8768 1ac5 02       		.byte	0x2
 8769 1ac6 7D       		.byte	0x7d
 8770 1ac7 00       		.sleb128 0
 8771 1ac8 02       		.byte	0x2
 8772 1ac9 74       		.byte	0x74
 8773 1aca 00       		.sleb128 0
 8774 1acb 00       		.byte	0
 8775 1acc 15       		.uleb128 0x15
 8776 1acd 4A000000 		.4byte	.LVL312
 8777 1ad1 F8080000 		.4byte	0x8f8
 8778 1ad5 F21A0000 		.4byte	0x1af2
 8779 1ad9 12       		.uleb128 0x12
 8780 1ada 01       		.byte	0x1
 8781 1adb 52       		.byte	0x52
 8782 1adc 01       		.byte	0x1
 8783 1add 33       		.byte	0x33
 8784 1ade 12       		.uleb128 0x12
 8785 1adf 01       		.byte	0x1
 8786 1ae0 51       		.byte	0x51
 8787 1ae1 02       		.byte	0x2
 8788 1ae2 75       		.byte	0x75
 8789 1ae3 0B       		.sleb128 11
 8790 1ae4 12       		.uleb128 0x12
 8791 1ae5 01       		.byte	0x1
 8792 1ae6 50       		.byte	0x50
 8793 1ae7 02       		.byte	0x2
 8794 1ae8 77       		.byte	0x77
 8795 1ae9 00       		.sleb128 0
 8796 1aea 12       		.uleb128 0x12
 8797 1aeb 02       		.byte	0x2
 8798 1aec 7D       		.byte	0x7d
 8799 1aed 00       		.sleb128 0
 8800 1aee 02       		.byte	0x2
 8801 1aef 74       		.byte	0x74
 8802 1af0 00       		.sleb128 0
 8803 1af1 00       		.byte	0
 8804 1af2 15       		.uleb128 0x15
 8805 1af3 5C000000 		.4byte	.LVL314
 8806 1af7 CA010000 		.4byte	0x1ca
 8807 1afb 121B0000 		.4byte	0x1b12
 8808 1aff 12       		.uleb128 0x12
 8809 1b00 01       		.byte	0x1
 8810 1b01 53       		.byte	0x53
 8811 1b02 02       		.byte	0x2
 8812 1b03 74       		.byte	0x74
 8813 1b04 00       		.sleb128 0
 8814 1b05 12       		.uleb128 0x12
 8815 1b06 01       		.byte	0x1
 8816 1b07 51       		.byte	0x51
 8817 1b08 02       		.byte	0x2
 8818 1b09 75       		.byte	0x75
 8819 1b0a 77       		.sleb128 -9
 8820 1b0b 12       		.uleb128 0x12
 8821 1b0c 01       		.byte	0x1
ARM GAS  C:\Users\Steve\AppData\Local\Temp\ccroCuoh.s 			page 173


 8822 1b0d 50       		.byte	0x50
 8823 1b0e 02       		.byte	0x2
 8824 1b0f 76       		.byte	0x76
 8825 1b10 00       		.sleb128 0
 8826 1b11 00       		.byte	0
 8827 1b12 11       		.uleb128 0x11
 8828 1b13 68000000 		.4byte	.LVL315
 8829 1b17 CA010000 		.4byte	0x1ca
 8830 1b1b 12       		.uleb128 0x12
 8831 1b1c 01       		.byte	0x1
 8832 1b1d 53       		.byte	0x53
 8833 1b1e 02       		.byte	0x2
 8834 1b1f 74       		.byte	0x74
 8835 1b20 00       		.sleb128 0
 8836 1b21 12       		.uleb128 0x12
 8837 1b22 01       		.byte	0x1
 8838 1b23 51       		.byte	0x51
 8839 1b24 02       		.byte	0x2
 8840 1b25 75       		.byte	0x75
 8841 1b26 00       		.sleb128 0
 8842 1b27 12       		.uleb128 0x12
 8843 1b28 01       		.byte	0x1
 8844 1b29 50       		.byte	0x50
 8845 1b2a 02       		.byte	0x2
 8846 1b2b 76       		.byte	0x76
 8847 1b2c 00       		.sleb128 0
 8848 1b2d 00       		.byte	0
 8849 1b2e 00       		.byte	0
 8850 1b2f 16       		.uleb128 0x16
 8851 1b30 01       		.byte	0x1
 8852 1b31 A4020000 		.4byte	.LASF54
 8853 1b35 01       		.byte	0x1
 8854 1b36 9E01     		.2byte	0x19e
 8855 1b38 01       		.byte	0x1
 8856 1b39 00000000 		.4byte	.LFB59
 8857 1b3d 60000000 		.4byte	.LFE59
 8858 1b41 48170000 		.4byte	.LLST130
 8859 1b45 01       		.byte	0x1
 8860 1b46 141C0000 		.4byte	0x1c14
 8861 1b4a 17       		.uleb128 0x17
 8862 1b4b 783000   		.ascii	"x0\000"
 8863 1b4e 01       		.byte	0x1
 8864 1b4f 9E01     		.2byte	0x19e
 8865 1b51 90000000 		.4byte	0x90
 8866 1b55 80170000 		.4byte	.LLST131
 8867 1b59 17       		.uleb128 0x17
 8868 1b5a 793000   		.ascii	"y0\000"
 8869 1b5d 01       		.byte	0x1
 8870 1b5e 9E01     		.2byte	0x19e
 8871 1b60 90000000 		.4byte	0x90
 8872 1b64 B9170000 		.4byte	.LLST132
 8873 1b68 18       		.uleb128 0x18
 8874 1b69 6300     		.ascii	"c\000"
 8875 1b6b 01       		.byte	0x1
 8876 1b6c 9E01     		.2byte	0x19e
 8877 1b6e 2C010000 		.4byte	0x12c
 8878 1b72 02       		.byte	0x2
ARM GAS  C:\Users\Steve\AppData\Local\Temp\ccroCuoh.s 			page 174


 8879 1b73 91       		.byte	0x91
 8880 1b74 64       		.sleb128 -28
 8881 1b75 1B       		.uleb128 0x1b
 8882 1b76 DA000000 		.4byte	.LASF18
 8883 1b7a 01       		.byte	0x1
 8884 1b7b 9E01     		.2byte	0x19e
 8885 1b7d C4010000 		.4byte	0x1c4
 8886 1b81 DA170000 		.4byte	.LLST133
 8887 1b85 15       		.uleb128 0x15
 8888 1b86 24000000 		.4byte	.LVL321
 8889 1b8a F8080000 		.4byte	0x8f8
 8890 1b8e AB1B0000 		.4byte	0x1bab
 8891 1b92 12       		.uleb128 0x12
 8892 1b93 01       		.byte	0x1
 8893 1b94 52       		.byte	0x52
 8894 1b95 01       		.byte	0x1
 8895 1b96 33       		.byte	0x33
 8896 1b97 12       		.uleb128 0x12
 8897 1b98 01       		.byte	0x1
 8898 1b99 51       		.byte	0x51
 8899 1b9a 02       		.byte	0x2
 8900 1b9b 75       		.byte	0x75
 8901 1b9c 00       		.sleb128 0
 8902 1b9d 12       		.uleb128 0x12
 8903 1b9e 01       		.byte	0x1
 8904 1b9f 50       		.byte	0x50
 8905 1ba0 02       		.byte	0x2
 8906 1ba1 77       		.byte	0x77
 8907 1ba2 00       		.sleb128 0
 8908 1ba3 12       		.uleb128 0x12
 8909 1ba4 02       		.byte	0x2
 8910 1ba5 7D       		.byte	0x7d
 8911 1ba6 00       		.sleb128 0
 8912 1ba7 02       		.byte	0x2
 8913 1ba8 74       		.byte	0x74
 8914 1ba9 00       		.sleb128 0
 8915 1baa 00       		.byte	0
 8916 1bab 15       		.uleb128 0x15
 8917 1bac 34000000 		.4byte	.LVL322
 8918 1bb0 78080000 		.4byte	0x878
 8919 1bb4 CB1B0000 		.4byte	0x1bcb
 8920 1bb8 12       		.uleb128 0x12
 8921 1bb9 01       		.byte	0x1
 8922 1bba 52       		.byte	0x52
 8923 1bbb 01       		.byte	0x1
 8924 1bbc 3C       		.byte	0x3c
 8925 1bbd 12       		.uleb128 0x12
 8926 1bbe 01       		.byte	0x1
 8927 1bbf 50       		.byte	0x50
 8928 1bc0 02       		.byte	0x2
 8929 1bc1 78       		.byte	0x78
 8930 1bc2 00       		.sleb128 0
 8931 1bc3 12       		.uleb128 0x12
 8932 1bc4 02       		.byte	0x2
 8933 1bc5 7D       		.byte	0x7d
 8934 1bc6 00       		.sleb128 0
 8935 1bc7 02       		.byte	0x2
ARM GAS  C:\Users\Steve\AppData\Local\Temp\ccroCuoh.s 			page 175


 8936 1bc8 74       		.byte	0x74
 8937 1bc9 00       		.sleb128 0
 8938 1bca 00       		.byte	0
 8939 1bcb 15       		.uleb128 0x15
 8940 1bcc 4A000000 		.4byte	.LVL324
 8941 1bd0 F8080000 		.4byte	0x8f8
 8942 1bd4 F11B0000 		.4byte	0x1bf1
 8943 1bd8 12       		.uleb128 0x12
 8944 1bd9 01       		.byte	0x1
 8945 1bda 52       		.byte	0x52
 8946 1bdb 01       		.byte	0x1
 8947 1bdc 33       		.byte	0x33
 8948 1bdd 12       		.uleb128 0x12
 8949 1bde 01       		.byte	0x1
 8950 1bdf 51       		.byte	0x51
 8951 1be0 02       		.byte	0x2
 8952 1be1 75       		.byte	0x75
 8953 1be2 0A       		.sleb128 10
 8954 1be3 12       		.uleb128 0x12
 8955 1be4 01       		.byte	0x1
 8956 1be5 50       		.byte	0x50
 8957 1be6 02       		.byte	0x2
 8958 1be7 77       		.byte	0x77
 8959 1be8 00       		.sleb128 0
 8960 1be9 12       		.uleb128 0x12
 8961 1bea 02       		.byte	0x2
 8962 1beb 7D       		.byte	0x7d
 8963 1bec 00       		.sleb128 0
 8964 1bed 02       		.byte	0x2
 8965 1bee 74       		.byte	0x74
 8966 1bef 00       		.sleb128 0
 8967 1bf0 00       		.byte	0
 8968 1bf1 11       		.uleb128 0x11
 8969 1bf2 58000000 		.4byte	.LVL325
 8970 1bf6 78080000 		.4byte	0x878
 8971 1bfa 12       		.uleb128 0x12
 8972 1bfb 01       		.byte	0x1
 8973 1bfc 52       		.byte	0x52
 8974 1bfd 01       		.byte	0x1
 8975 1bfe 3A       		.byte	0x3a
 8976 1bff 12       		.uleb128 0x12
 8977 1c00 01       		.byte	0x1
 8978 1c01 51       		.byte	0x51
 8979 1c02 02       		.byte	0x2
 8980 1c03 75       		.byte	0x75
 8981 1c04 00       		.sleb128 0
 8982 1c05 12       		.uleb128 0x12
 8983 1c06 01       		.byte	0x1
 8984 1c07 50       		.byte	0x50
 8985 1c08 02       		.byte	0x2
 8986 1c09 76       		.byte	0x76
 8987 1c0a 00       		.sleb128 0
 8988 1c0b 12       		.uleb128 0x12
 8989 1c0c 02       		.byte	0x2
 8990 1c0d 7D       		.byte	0x7d
 8991 1c0e 00       		.sleb128 0
 8992 1c0f 02       		.byte	0x2
ARM GAS  C:\Users\Steve\AppData\Local\Temp\ccroCuoh.s 			page 176


 8993 1c10 74       		.byte	0x74
 8994 1c11 00       		.sleb128 0
 8995 1c12 00       		.byte	0
 8996 1c13 00       		.byte	0
 8997 1c14 16       		.uleb128 0x16
 8998 1c15 01       		.byte	0x1
 8999 1c16 13000000 		.4byte	.LASF55
 9000 1c1a 01       		.byte	0x1
 9001 1c1b A701     		.2byte	0x1a7
 9002 1c1d 01       		.byte	0x1
 9003 1c1e 00000000 		.4byte	.LFB60
 9004 1c22 54000000 		.4byte	.LFE60
 9005 1c26 06180000 		.4byte	.LLST134
 9006 1c2a 01       		.byte	0x1
 9007 1c2b F91C0000 		.4byte	0x1cf9
 9008 1c2f 17       		.uleb128 0x17
 9009 1c30 783000   		.ascii	"x0\000"
 9010 1c33 01       		.byte	0x1
 9011 1c34 A701     		.2byte	0x1a7
 9012 1c36 90000000 		.4byte	0x90
 9013 1c3a 32180000 		.4byte	.LLST135
 9014 1c3e 17       		.uleb128 0x17
 9015 1c3f 793000   		.ascii	"y0\000"
 9016 1c42 01       		.byte	0x1
 9017 1c43 A701     		.2byte	0x1a7
 9018 1c45 90000000 		.4byte	0x90
 9019 1c49 53180000 		.4byte	.LLST136
 9020 1c4d 18       		.uleb128 0x18
 9021 1c4e 6300     		.ascii	"c\000"
 9022 1c50 01       		.byte	0x1
 9023 1c51 A701     		.2byte	0x1a7
 9024 1c53 2C010000 		.4byte	0x12c
 9025 1c57 02       		.byte	0x2
 9026 1c58 91       		.byte	0x91
 9027 1c59 64       		.sleb128 -28
 9028 1c5a 1B       		.uleb128 0x1b
 9029 1c5b DA000000 		.4byte	.LASF18
 9030 1c5f 01       		.byte	0x1
 9031 1c60 A701     		.2byte	0x1a7
 9032 1c62 C4010000 		.4byte	0x1c4
 9033 1c66 74180000 		.4byte	.LLST137
 9034 1c6a 15       		.uleb128 0x15
 9035 1c6b 1E000000 		.4byte	.LVL331
 9036 1c6f F8080000 		.4byte	0x8f8
 9037 1c73 901C0000 		.4byte	0x1c90
 9038 1c77 12       		.uleb128 0x12
 9039 1c78 01       		.byte	0x1
 9040 1c79 52       		.byte	0x52
 9041 1c7a 01       		.byte	0x1
 9042 1c7b 34       		.byte	0x34
 9043 1c7c 12       		.uleb128 0x12
 9044 1c7d 01       		.byte	0x1
 9045 1c7e 51       		.byte	0x51
 9046 1c7f 02       		.byte	0x2
 9047 1c80 76       		.byte	0x76
 9048 1c81 00       		.sleb128 0
 9049 1c82 12       		.uleb128 0x12
ARM GAS  C:\Users\Steve\AppData\Local\Temp\ccroCuoh.s 			page 177


 9050 1c83 01       		.byte	0x1
 9051 1c84 50       		.byte	0x50
 9052 1c85 02       		.byte	0x2
 9053 1c86 75       		.byte	0x75
 9054 1c87 00       		.sleb128 0
 9055 1c88 12       		.uleb128 0x12
 9056 1c89 02       		.byte	0x2
 9057 1c8a 7D       		.byte	0x7d
 9058 1c8b 00       		.sleb128 0
 9059 1c8c 02       		.byte	0x2
 9060 1c8d 74       		.byte	0x74
 9061 1c8e 00       		.sleb128 0
 9062 1c8f 00       		.byte	0
 9063 1c90 15       		.uleb128 0x15
 9064 1c91 2E000000 		.4byte	.LVL332
 9065 1c95 78080000 		.4byte	0x878
 9066 1c99 B01C0000 		.4byte	0x1cb0
 9067 1c9d 12       		.uleb128 0x12
 9068 1c9e 01       		.byte	0x1
 9069 1c9f 52       		.byte	0x52
 9070 1ca0 01       		.byte	0x1
 9071 1ca1 3C       		.byte	0x3c
 9072 1ca2 12       		.uleb128 0x12
 9073 1ca3 01       		.byte	0x1
 9074 1ca4 51       		.byte	0x51
 9075 1ca5 02       		.byte	0x2
 9076 1ca6 76       		.byte	0x76
 9077 1ca7 00       		.sleb128 0
 9078 1ca8 12       		.uleb128 0x12
 9079 1ca9 02       		.byte	0x2
 9080 1caa 7D       		.byte	0x7d
 9081 1cab 00       		.sleb128 0
 9082 1cac 02       		.byte	0x2
 9083 1cad 74       		.byte	0x74
 9084 1cae 00       		.sleb128 0
 9085 1caf 00       		.byte	0
 9086 1cb0 15       		.uleb128 0x15
 9087 1cb1 42000000 		.4byte	.LVL333
 9088 1cb5 F8080000 		.4byte	0x8f8
 9089 1cb9 D61C0000 		.4byte	0x1cd6
 9090 1cbd 12       		.uleb128 0x12
 9091 1cbe 01       		.byte	0x1
 9092 1cbf 52       		.byte	0x52
 9093 1cc0 01       		.byte	0x1
 9094 1cc1 34       		.byte	0x34
 9095 1cc2 12       		.uleb128 0x12
 9096 1cc3 01       		.byte	0x1
 9097 1cc4 51       		.byte	0x51
 9098 1cc5 02       		.byte	0x2
 9099 1cc6 77       		.byte	0x77
 9100 1cc7 06       		.sleb128 6
 9101 1cc8 12       		.uleb128 0x12
 9102 1cc9 01       		.byte	0x1
 9103 1cca 50       		.byte	0x50
 9104 1ccb 02       		.byte	0x2
 9105 1ccc 75       		.byte	0x75
 9106 1ccd 00       		.sleb128 0
ARM GAS  C:\Users\Steve\AppData\Local\Temp\ccroCuoh.s 			page 178


 9107 1cce 12       		.uleb128 0x12
 9108 1ccf 02       		.byte	0x2
 9109 1cd0 7D       		.byte	0x7d
 9110 1cd1 00       		.sleb128 0
 9111 1cd2 02       		.byte	0x2
 9112 1cd3 74       		.byte	0x74
 9113 1cd4 00       		.sleb128 0
 9114 1cd5 00       		.byte	0
 9115 1cd6 11       		.uleb128 0x11
 9116 1cd7 50000000 		.4byte	.LVL334
 9117 1cdb F8080000 		.4byte	0x8f8
 9118 1cdf 12       		.uleb128 0x12
 9119 1ce0 01       		.byte	0x1
 9120 1ce1 52       		.byte	0x52
 9121 1ce2 01       		.byte	0x1
 9122 1ce3 34       		.byte	0x34
 9123 1ce4 12       		.uleb128 0x12
 9124 1ce5 01       		.byte	0x1
 9125 1ce6 51       		.byte	0x51
 9126 1ce7 02       		.byte	0x2
 9127 1ce8 77       		.byte	0x77
 9128 1ce9 00       		.sleb128 0
 9129 1cea 12       		.uleb128 0x12
 9130 1ceb 01       		.byte	0x1
 9131 1cec 50       		.byte	0x50
 9132 1ced 02       		.byte	0x2
 9133 1cee 75       		.byte	0x75
 9134 1cef 00       		.sleb128 0
 9135 1cf0 12       		.uleb128 0x12
 9136 1cf1 02       		.byte	0x2
 9137 1cf2 7D       		.byte	0x7d
 9138 1cf3 00       		.sleb128 0
 9139 1cf4 02       		.byte	0x2
 9140 1cf5 74       		.byte	0x74
 9141 1cf6 00       		.sleb128 0
 9142 1cf7 00       		.byte	0
 9143 1cf8 00       		.byte	0
 9144 1cf9 16       		.uleb128 0x16
 9145 1cfa 01       		.byte	0x1
 9146 1cfb A1010000 		.4byte	.LASF56
 9147 1cff 01       		.byte	0x1
 9148 1d00 AF01     		.2byte	0x1af
 9149 1d02 01       		.byte	0x1
 9150 1d03 00000000 		.4byte	.LFB61
 9151 1d07 40000000 		.4byte	.LFE61
 9152 1d0b A0180000 		.4byte	.LLST138
 9153 1d0f 01       		.byte	0x1
 9154 1d10 BE1D0000 		.4byte	0x1dbe
 9155 1d14 17       		.uleb128 0x17
 9156 1d15 783000   		.ascii	"x0\000"
 9157 1d18 01       		.byte	0x1
 9158 1d19 AF01     		.2byte	0x1af
 9159 1d1b 90000000 		.4byte	0x90
 9160 1d1f CC180000 		.4byte	.LLST139
 9161 1d23 17       		.uleb128 0x17
 9162 1d24 793000   		.ascii	"y0\000"
 9163 1d27 01       		.byte	0x1
ARM GAS  C:\Users\Steve\AppData\Local\Temp\ccroCuoh.s 			page 179


 9164 1d28 AF01     		.2byte	0x1af
 9165 1d2a 90000000 		.4byte	0x90
 9166 1d2e ED180000 		.4byte	.LLST140
 9167 1d32 18       		.uleb128 0x18
 9168 1d33 6300     		.ascii	"c\000"
 9169 1d35 01       		.byte	0x1
 9170 1d36 AF01     		.2byte	0x1af
 9171 1d38 2C010000 		.4byte	0x12c
 9172 1d3c 02       		.byte	0x2
 9173 1d3d 91       		.byte	0x91
 9174 1d3e 64       		.sleb128 -28
 9175 1d3f 1B       		.uleb128 0x1b
 9176 1d40 DA000000 		.4byte	.LASF18
 9177 1d44 01       		.byte	0x1
 9178 1d45 AF01     		.2byte	0x1af
 9179 1d47 C4010000 		.4byte	0x1c4
 9180 1d4b 0E190000 		.4byte	.LLST141
 9181 1d4f 15       		.uleb128 0x15
 9182 1d50 1E000000 		.4byte	.LVL339
 9183 1d54 F8080000 		.4byte	0x8f8
 9184 1d58 751D0000 		.4byte	0x1d75
 9185 1d5c 12       		.uleb128 0x12
 9186 1d5d 01       		.byte	0x1
 9187 1d5e 52       		.byte	0x52
 9188 1d5f 01       		.byte	0x1
 9189 1d60 34       		.byte	0x34
 9190 1d61 12       		.uleb128 0x12
 9191 1d62 01       		.byte	0x1
 9192 1d63 51       		.byte	0x51
 9193 1d64 02       		.byte	0x2
 9194 1d65 75       		.byte	0x75
 9195 1d66 00       		.sleb128 0
 9196 1d67 12       		.uleb128 0x12
 9197 1d68 01       		.byte	0x1
 9198 1d69 50       		.byte	0x50
 9199 1d6a 02       		.byte	0x2
 9200 1d6b 76       		.byte	0x76
 9201 1d6c 00       		.sleb128 0
 9202 1d6d 12       		.uleb128 0x12
 9203 1d6e 02       		.byte	0x2
 9204 1d6f 7D       		.byte	0x7d
 9205 1d70 00       		.sleb128 0
 9206 1d71 02       		.byte	0x2
 9207 1d72 74       		.byte	0x74
 9208 1d73 00       		.sleb128 0
 9209 1d74 00       		.byte	0
 9210 1d75 15       		.uleb128 0x15
 9211 1d76 2E000000 		.4byte	.LVL340
 9212 1d7a 78080000 		.4byte	0x878
 9213 1d7e 9B1D0000 		.4byte	0x1d9b
 9214 1d82 12       		.uleb128 0x12
 9215 1d83 01       		.byte	0x1
 9216 1d84 52       		.byte	0x52
 9217 1d85 01       		.byte	0x1
 9218 1d86 3C       		.byte	0x3c
 9219 1d87 12       		.uleb128 0x12
 9220 1d88 01       		.byte	0x1
ARM GAS  C:\Users\Steve\AppData\Local\Temp\ccroCuoh.s 			page 180


 9221 1d89 51       		.byte	0x51
 9222 1d8a 02       		.byte	0x2
 9223 1d8b 75       		.byte	0x75
 9224 1d8c 7B       		.sleb128 -5
 9225 1d8d 12       		.uleb128 0x12
 9226 1d8e 01       		.byte	0x1
 9227 1d8f 50       		.byte	0x50
 9228 1d90 02       		.byte	0x2
 9229 1d91 77       		.byte	0x77
 9230 1d92 00       		.sleb128 0
 9231 1d93 12       		.uleb128 0x12
 9232 1d94 02       		.byte	0x2
 9233 1d95 7D       		.byte	0x7d
 9234 1d96 00       		.sleb128 0
 9235 1d97 02       		.byte	0x2
 9236 1d98 74       		.byte	0x74
 9237 1d99 00       		.sleb128 0
 9238 1d9a 00       		.byte	0
 9239 1d9b 11       		.uleb128 0x11
 9240 1d9c 3C000000 		.4byte	.LVL341
 9241 1da0 F8080000 		.4byte	0x8f8
 9242 1da4 12       		.uleb128 0x12
 9243 1da5 01       		.byte	0x1
 9244 1da6 52       		.byte	0x52
 9245 1da7 01       		.byte	0x1
 9246 1da8 34       		.byte	0x34
 9247 1da9 12       		.uleb128 0x12
 9248 1daa 01       		.byte	0x1
 9249 1dab 51       		.byte	0x51
 9250 1dac 02       		.byte	0x2
 9251 1dad 75       		.byte	0x75
 9252 1dae 00       		.sleb128 0
 9253 1daf 12       		.uleb128 0x12
 9254 1db0 01       		.byte	0x1
 9255 1db1 50       		.byte	0x50
 9256 1db2 02       		.byte	0x2
 9257 1db3 76       		.byte	0x76
 9258 1db4 00       		.sleb128 0
 9259 1db5 12       		.uleb128 0x12
 9260 1db6 02       		.byte	0x2
 9261 1db7 7D       		.byte	0x7d
 9262 1db8 00       		.sleb128 0
 9263 1db9 02       		.byte	0x2
 9264 1dba 74       		.byte	0x74
 9265 1dbb 00       		.sleb128 0
 9266 1dbc 00       		.byte	0
 9267 1dbd 00       		.byte	0
 9268 1dbe 16       		.uleb128 0x16
 9269 1dbf 01       		.byte	0x1
 9270 1dc0 C2000000 		.4byte	.LASF57
 9271 1dc4 01       		.byte	0x1
 9272 1dc5 D101     		.2byte	0x1d1
 9273 1dc7 01       		.byte	0x1
 9274 1dc8 00000000 		.4byte	.LFB64
 9275 1dcc FC000000 		.4byte	.LFE64
 9276 1dd0 3A190000 		.4byte	.LLST142
 9277 1dd4 01       		.byte	0x1
ARM GAS  C:\Users\Steve\AppData\Local\Temp\ccroCuoh.s 			page 181


 9278 1dd5 701F0000 		.4byte	0x1f70
 9279 1dd9 17       		.uleb128 0x17
 9280 1dda 6E756D00 		.ascii	"num\000"
 9281 1dde 01       		.byte	0x1
 9282 1ddf D101     		.2byte	0x1d1
 9283 1de1 7A000000 		.4byte	0x7a
 9284 1de5 66190000 		.4byte	.LLST143
 9285 1de9 17       		.uleb128 0x17
 9286 1dea 783000   		.ascii	"x0\000"
 9287 1ded 01       		.byte	0x1
 9288 1dee D101     		.2byte	0x1d1
 9289 1df0 90000000 		.4byte	0x90
 9290 1df4 A0190000 		.4byte	.LLST144
 9291 1df8 17       		.uleb128 0x17
 9292 1df9 793000   		.ascii	"y0\000"
 9293 1dfc 01       		.byte	0x1
 9294 1dfd D101     		.2byte	0x1d1
 9295 1dff 90000000 		.4byte	0x90
 9296 1e03 381B0000 		.4byte	.LLST145
 9297 1e07 18       		.uleb128 0x18
 9298 1e08 6300     		.ascii	"c\000"
 9299 1e0a 01       		.byte	0x1
 9300 1e0b D101     		.2byte	0x1d1
 9301 1e0d 2C010000 		.4byte	0x12c
 9302 1e11 02       		.byte	0x2
 9303 1e12 91       		.byte	0x91
 9304 1e13 74       		.sleb128 -12
 9305 1e14 19       		.uleb128 0x19
 9306 1e15 DA000000 		.4byte	.LASF18
 9307 1e19 01       		.byte	0x1
 9308 1e1a D101     		.2byte	0x1d1
 9309 1e1c C4010000 		.4byte	0x1c4
 9310 1e20 02       		.byte	0x2
 9311 1e21 91       		.byte	0x91
 9312 1e22 00       		.sleb128 0
 9313 1e23 15       		.uleb128 0x15
 9314 1e24 1A000000 		.4byte	.LVL347
 9315 1e28 01170000 		.4byte	0x1701
 9316 1e2c 381E0000 		.4byte	0x1e38
 9317 1e30 12       		.uleb128 0x12
 9318 1e31 01       		.byte	0x1
 9319 1e32 53       		.byte	0x53
 9320 1e33 03       		.byte	0x3
 9321 1e34 91       		.byte	0x91
 9322 1e35 00       		.sleb128 0
 9323 1e36 06       		.byte	0x6
 9324 1e37 00       		.byte	0
 9325 1e38 15       		.uleb128 0x15
 9326 1e39 32000000 		.4byte	.LVL352
 9327 1e3d F91C0000 		.4byte	0x1cf9
 9328 1e41 4D1E0000 		.4byte	0x1e4d
 9329 1e45 12       		.uleb128 0x12
 9330 1e46 01       		.byte	0x1
 9331 1e47 53       		.byte	0x53
 9332 1e48 03       		.byte	0x3
 9333 1e49 91       		.byte	0x91
 9334 1e4a 00       		.sleb128 0
ARM GAS  C:\Users\Steve\AppData\Local\Temp\ccroCuoh.s 			page 182


 9335 1e4b 06       		.byte	0x6
 9336 1e4c 00       		.byte	0
 9337 1e4d 15       		.uleb128 0x15
 9338 1e4e 40000000 		.4byte	.LVL356
 9339 1e52 0B0D0000 		.4byte	0xd0b
 9340 1e56 621E0000 		.4byte	0x1e62
 9341 1e5a 12       		.uleb128 0x12
 9342 1e5b 01       		.byte	0x1
 9343 1e5c 53       		.byte	0x53
 9344 1e5d 03       		.byte	0x3
 9345 1e5e 91       		.byte	0x91
 9346 1e5f 00       		.sleb128 0
 9347 1e60 06       		.byte	0x6
 9348 1e61 00       		.byte	0
 9349 1e62 15       		.uleb128 0x15
 9350 1e63 4E000000 		.4byte	.LVL360
 9351 1e67 F10D0000 		.4byte	0xdf1
 9352 1e6b 771E0000 		.4byte	0x1e77
 9353 1e6f 12       		.uleb128 0x12
 9354 1e70 01       		.byte	0x1
 9355 1e71 53       		.byte	0x53
 9356 1e72 03       		.byte	0x3
 9357 1e73 91       		.byte	0x91
 9358 1e74 00       		.sleb128 0
 9359 1e75 06       		.byte	0x6
 9360 1e76 00       		.byte	0
 9361 1e77 15       		.uleb128 0x15
 9362 1e78 5C000000 		.4byte	.LVL364
 9363 1e7c C10F0000 		.4byte	0xfc1
 9364 1e80 8C1E0000 		.4byte	0x1e8c
 9365 1e84 12       		.uleb128 0x12
 9366 1e85 01       		.byte	0x1
 9367 1e86 53       		.byte	0x53
 9368 1e87 03       		.byte	0x3
 9369 1e88 91       		.byte	0x91
 9370 1e89 00       		.sleb128 0
 9371 1e8a 06       		.byte	0x6
 9372 1e8b 00       		.byte	0
 9373 1e8c 15       		.uleb128 0x15
 9374 1e8d 6A000000 		.4byte	.LVL368
 9375 1e91 11110000 		.4byte	0x1111
 9376 1e95 A11E0000 		.4byte	0x1ea1
 9377 1e99 12       		.uleb128 0x12
 9378 1e9a 01       		.byte	0x1
 9379 1e9b 53       		.byte	0x53
 9380 1e9c 03       		.byte	0x3
 9381 1e9d 91       		.byte	0x91
 9382 1e9e 00       		.sleb128 0
 9383 1e9f 06       		.byte	0x6
 9384 1ea0 00       		.byte	0
 9385 1ea1 15       		.uleb128 0x15
 9386 1ea2 78000000 		.4byte	.LVL372
 9387 1ea6 D6110000 		.4byte	0x11d6
 9388 1eaa B61E0000 		.4byte	0x1eb6
 9389 1eae 12       		.uleb128 0x12
 9390 1eaf 01       		.byte	0x1
 9391 1eb0 53       		.byte	0x53
ARM GAS  C:\Users\Steve\AppData\Local\Temp\ccroCuoh.s 			page 183


 9392 1eb1 03       		.byte	0x3
 9393 1eb2 91       		.byte	0x91
 9394 1eb3 00       		.sleb128 0
 9395 1eb4 06       		.byte	0x6
 9396 1eb5 00       		.byte	0
 9397 1eb6 15       		.uleb128 0x15
 9398 1eb7 86000000 		.4byte	.LVL376
 9399 1ebb 01130000 		.4byte	0x1301
 9400 1ebf CB1E0000 		.4byte	0x1ecb
 9401 1ec3 12       		.uleb128 0x12
 9402 1ec4 01       		.byte	0x1
 9403 1ec5 53       		.byte	0x53
 9404 1ec6 03       		.byte	0x3
 9405 1ec7 91       		.byte	0x91
 9406 1ec8 00       		.sleb128 0
 9407 1ec9 06       		.byte	0x6
 9408 1eca 00       		.byte	0
 9409 1ecb 15       		.uleb128 0x15
 9410 1ecc 94000000 		.4byte	.LVL380
 9411 1ed0 0C140000 		.4byte	0x140c
 9412 1ed4 E01E0000 		.4byte	0x1ee0
 9413 1ed8 12       		.uleb128 0x12
 9414 1ed9 01       		.byte	0x1
 9415 1eda 53       		.byte	0x53
 9416 1edb 03       		.byte	0x3
 9417 1edc 91       		.byte	0x91
 9418 1edd 00       		.sleb128 0
 9419 1ede 06       		.byte	0x6
 9420 1edf 00       		.byte	0
 9421 1ee0 15       		.uleb128 0x15
 9422 1ee1 A2000000 		.4byte	.LVL384
 9423 1ee5 CB140000 		.4byte	0x14cb
 9424 1ee9 F51E0000 		.4byte	0x1ef5
 9425 1eed 12       		.uleb128 0x12
 9426 1eee 01       		.byte	0x1
 9427 1eef 53       		.byte	0x53
 9428 1ef0 03       		.byte	0x3
 9429 1ef1 91       		.byte	0x91
 9430 1ef2 00       		.sleb128 0
 9431 1ef3 06       		.byte	0x6
 9432 1ef4 00       		.byte	0
 9433 1ef5 15       		.uleb128 0x15
 9434 1ef6 B0000000 		.4byte	.LVL388
 9435 1efa 22160000 		.4byte	0x1622
 9436 1efe 0A1F0000 		.4byte	0x1f0a
 9437 1f02 12       		.uleb128 0x12
 9438 1f03 01       		.byte	0x1
 9439 1f04 53       		.byte	0x53
 9440 1f05 03       		.byte	0x3
 9441 1f06 91       		.byte	0x91
 9442 1f07 00       		.sleb128 0
 9443 1f08 06       		.byte	0x6
 9444 1f09 00       		.byte	0
 9445 1f0a 15       		.uleb128 0x15
 9446 1f0b BE000000 		.4byte	.LVL392
 9447 1f0f E0170000 		.4byte	0x17e0
 9448 1f13 1F1F0000 		.4byte	0x1f1f
ARM GAS  C:\Users\Steve\AppData\Local\Temp\ccroCuoh.s 			page 184


 9449 1f17 12       		.uleb128 0x12
 9450 1f18 01       		.byte	0x1
 9451 1f19 53       		.byte	0x53
 9452 1f1a 03       		.byte	0x3
 9453 1f1b 91       		.byte	0x91
 9454 1f1c 00       		.sleb128 0
 9455 1f1d 06       		.byte	0x6
 9456 1f1e 00       		.byte	0
 9457 1f1f 15       		.uleb128 0x15
 9458 1f20 CC000000 		.4byte	.LVL396
 9459 1f24 F9180000 		.4byte	0x18f9
 9460 1f28 341F0000 		.4byte	0x1f34
 9461 1f2c 12       		.uleb128 0x12
 9462 1f2d 01       		.byte	0x1
 9463 1f2e 53       		.byte	0x53
 9464 1f2f 03       		.byte	0x3
 9465 1f30 91       		.byte	0x91
 9466 1f31 00       		.sleb128 0
 9467 1f32 06       		.byte	0x6
 9468 1f33 00       		.byte	0
 9469 1f34 15       		.uleb128 0x15
 9470 1f35 DA000000 		.4byte	.LVL400
 9471 1f39 301A0000 		.4byte	0x1a30
 9472 1f3d 491F0000 		.4byte	0x1f49
 9473 1f41 12       		.uleb128 0x12
 9474 1f42 01       		.byte	0x1
 9475 1f43 53       		.byte	0x53
 9476 1f44 03       		.byte	0x3
 9477 1f45 91       		.byte	0x91
 9478 1f46 00       		.sleb128 0
 9479 1f47 06       		.byte	0x6
 9480 1f48 00       		.byte	0
 9481 1f49 15       		.uleb128 0x15
 9482 1f4a E8000000 		.4byte	.LVL404
 9483 1f4e 2F1B0000 		.4byte	0x1b2f
 9484 1f52 5E1F0000 		.4byte	0x1f5e
 9485 1f56 12       		.uleb128 0x12
 9486 1f57 01       		.byte	0x1
 9487 1f58 53       		.byte	0x53
 9488 1f59 03       		.byte	0x3
 9489 1f5a 91       		.byte	0x91
 9490 1f5b 00       		.sleb128 0
 9491 1f5c 06       		.byte	0x6
 9492 1f5d 00       		.byte	0
 9493 1f5e 11       		.uleb128 0x11
 9494 1f5f F6000000 		.4byte	.LVL408
 9495 1f63 141C0000 		.4byte	0x1c14
 9496 1f67 12       		.uleb128 0x12
 9497 1f68 01       		.byte	0x1
 9498 1f69 53       		.byte	0x53
 9499 1f6a 03       		.byte	0x3
 9500 1f6b 91       		.byte	0x91
 9501 1f6c 00       		.sleb128 0
 9502 1f6d 06       		.byte	0x6
 9503 1f6e 00       		.byte	0
 9504 1f6f 00       		.byte	0
 9505 1f70 16       		.uleb128 0x16
ARM GAS  C:\Users\Steve\AppData\Local\Temp\ccroCuoh.s 			page 185


 9506 1f71 01       		.byte	0x1
 9507 1f72 83010000 		.4byte	.LASF58
 9508 1f76 01       		.byte	0x1
 9509 1f77 C401     		.2byte	0x1c4
 9510 1f79 01       		.byte	0x1
 9511 1f7a 00000000 		.4byte	.LFB63
 9512 1f7e 56000000 		.4byte	.LFE63
 9513 1f82 D01C0000 		.4byte	.LLST146
 9514 1f86 01       		.byte	0x1
 9515 1f87 8B200000 		.4byte	0x208b
 9516 1f8b 1B       		.uleb128 0x1b
 9517 1f8c 64020000 		.4byte	.LASF59
 9518 1f90 01       		.byte	0x1
 9519 1f91 C401     		.2byte	0x1c4
 9520 1f93 7A000000 		.4byte	0x7a
 9521 1f97 FC1C0000 		.4byte	.LLST147
 9522 1f9b 17       		.uleb128 0x17
 9523 1f9c 6D696E00 		.ascii	"min\000"
 9524 1fa0 01       		.byte	0x1
 9525 1fa1 C401     		.2byte	0x1c4
 9526 1fa3 7A000000 		.4byte	0x7a
 9527 1fa7 1D1D0000 		.4byte	.LLST148
 9528 1fab 18       		.uleb128 0x18
 9529 1fac 6300     		.ascii	"c\000"
 9530 1fae 01       		.byte	0x1
 9531 1faf C401     		.2byte	0x1c4
 9532 1fb1 2C010000 		.4byte	0x12c
 9533 1fb5 02       		.byte	0x2
 9534 1fb6 91       		.byte	0x91
 9535 1fb7 6C       		.sleb128 -20
 9536 1fb8 1B       		.uleb128 0x1b
 9537 1fb9 DA000000 		.4byte	.LASF18
 9538 1fbd 01       		.byte	0x1
 9539 1fbe C401     		.2byte	0x1c4
 9540 1fc0 C4010000 		.4byte	0x1c4
 9541 1fc4 3E1D0000 		.4byte	.LLST149
 9542 1fc8 1C       		.uleb128 0x1c
 9543 1fc9 D4000000 		.4byte	.LASF60
 9544 1fcd 01       		.byte	0x1
 9545 1fce C601     		.2byte	0x1c6
 9546 1fd0 7A000000 		.4byte	0x7a
 9547 1fd4 6A1D0000 		.4byte	.LLST150
 9548 1fd8 15       		.uleb128 0x15
 9549 1fd9 1C000000 		.4byte	.LVL413
 9550 1fdd BE1D0000 		.4byte	0x1dbe
 9551 1fe1 FF1F0000 		.4byte	0x1fff
 9552 1fe5 12       		.uleb128 0x12
 9553 1fe6 01       		.byte	0x1
 9554 1fe7 52       		.byte	0x52
 9555 1fe8 01       		.byte	0x1
 9556 1fe9 32       		.byte	0x32
 9557 1fea 12       		.uleb128 0x12
 9558 1feb 01       		.byte	0x1
 9559 1fec 51       		.byte	0x51
 9560 1fed 01       		.byte	0x1
 9561 1fee 33       		.byte	0x33
 9562 1fef 12       		.uleb128 0x12
ARM GAS  C:\Users\Steve\AppData\Local\Temp\ccroCuoh.s 			page 186


 9563 1ff0 01       		.byte	0x1
 9564 1ff1 50       		.byte	0x50
 9565 1ff2 04       		.byte	0x4
 9566 1ff3 76       		.byte	0x76
 9567 1ff4 00       		.sleb128 0
 9568 1ff5 34       		.byte	0x34
 9569 1ff6 25       		.byte	0x25
 9570 1ff7 12       		.uleb128 0x12
 9571 1ff8 02       		.byte	0x2
 9572 1ff9 7D       		.byte	0x7d
 9573 1ffa 00       		.sleb128 0
 9574 1ffb 02       		.byte	0x2
 9575 1ffc 74       		.byte	0x74
 9576 1ffd 00       		.sleb128 0
 9577 1ffe 00       		.byte	0
 9578 1fff 15       		.uleb128 0x15
 9579 2000 2A000000 		.4byte	.LVL414
 9580 2004 BE1D0000 		.4byte	0x1dbe
 9581 2008 24200000 		.4byte	0x2024
 9582 200c 12       		.uleb128 0x12
 9583 200d 01       		.byte	0x1
 9584 200e 52       		.byte	0x52
 9585 200f 01       		.byte	0x1
 9586 2010 32       		.byte	0x32
 9587 2011 12       		.uleb128 0x12
 9588 2012 01       		.byte	0x1
 9589 2013 51       		.byte	0x51
 9590 2014 01       		.byte	0x1
 9591 2015 39       		.byte	0x39
 9592 2016 12       		.uleb128 0x12
 9593 2017 01       		.byte	0x1
 9594 2018 50       		.byte	0x50
 9595 2019 02       		.byte	0x2
 9596 201a 76       		.byte	0x76
 9597 201b 00       		.sleb128 0
 9598 201c 12       		.uleb128 0x12
 9599 201d 02       		.byte	0x2
 9600 201e 7D       		.byte	0x7d
 9601 201f 00       		.sleb128 0
 9602 2020 02       		.byte	0x2
 9603 2021 74       		.byte	0x74
 9604 2022 00       		.sleb128 0
 9605 2023 00       		.byte	0
 9606 2024 15       		.uleb128 0x15
 9607 2025 36000000 		.4byte	.LVL415
 9608 2029 220F0000 		.4byte	0xf22
 9609 202d 42200000 		.4byte	0x2042
 9610 2031 12       		.uleb128 0x12
 9611 2032 01       		.byte	0x1
 9612 2033 53       		.byte	0x53
 9613 2034 02       		.byte	0x2
 9614 2035 74       		.byte	0x74
 9615 2036 00       		.sleb128 0
 9616 2037 12       		.uleb128 0x12
 9617 2038 01       		.byte	0x1
 9618 2039 51       		.byte	0x51
 9619 203a 01       		.byte	0x1
ARM GAS  C:\Users\Steve\AppData\Local\Temp\ccroCuoh.s 			page 187


 9620 203b 32       		.byte	0x32
 9621 203c 12       		.uleb128 0x12
 9622 203d 01       		.byte	0x1
 9623 203e 50       		.byte	0x50
 9624 203f 01       		.byte	0x1
 9625 2040 3F       		.byte	0x3f
 9626 2041 00       		.byte	0
 9627 2042 15       		.uleb128 0x15
 9628 2043 44000000 		.4byte	.LVL416
 9629 2047 BE1D0000 		.4byte	0x1dbe
 9630 204b 69200000 		.4byte	0x2069
 9631 204f 12       		.uleb128 0x12
 9632 2050 01       		.byte	0x1
 9633 2051 52       		.byte	0x52
 9634 2052 01       		.byte	0x1
 9635 2053 32       		.byte	0x32
 9636 2054 12       		.uleb128 0x12
 9637 2055 01       		.byte	0x1
 9638 2056 51       		.byte	0x51
 9639 2057 01       		.byte	0x1
 9640 2058 41       		.byte	0x41
 9641 2059 12       		.uleb128 0x12
 9642 205a 01       		.byte	0x1
 9643 205b 50       		.byte	0x50
 9644 205c 04       		.byte	0x4
 9645 205d 75       		.byte	0x75
 9646 205e 00       		.sleb128 0
 9647 205f 34       		.byte	0x34
 9648 2060 25       		.byte	0x25
 9649 2061 12       		.uleb128 0x12
 9650 2062 02       		.byte	0x2
 9651 2063 7D       		.byte	0x7d
 9652 2064 00       		.sleb128 0
 9653 2065 02       		.byte	0x2
 9654 2066 74       		.byte	0x74
 9655 2067 00       		.sleb128 0
 9656 2068 00       		.byte	0
 9657 2069 11       		.uleb128 0x11
 9658 206a 52000000 		.4byte	.LVL417
 9659 206e BE1D0000 		.4byte	0x1dbe
 9660 2072 12       		.uleb128 0x12
 9661 2073 01       		.byte	0x1
 9662 2074 52       		.byte	0x52
 9663 2075 01       		.byte	0x1
 9664 2076 32       		.byte	0x32
 9665 2077 12       		.uleb128 0x12
 9666 2078 01       		.byte	0x1
 9667 2079 51       		.byte	0x51
 9668 207a 01       		.byte	0x1
 9669 207b 47       		.byte	0x47
 9670 207c 12       		.uleb128 0x12
 9671 207d 01       		.byte	0x1
 9672 207e 50       		.byte	0x50
 9673 207f 02       		.byte	0x2
 9674 2080 75       		.byte	0x75
 9675 2081 00       		.sleb128 0
 9676 2082 12       		.uleb128 0x12
ARM GAS  C:\Users\Steve\AppData\Local\Temp\ccroCuoh.s 			page 188


 9677 2083 02       		.byte	0x2
 9678 2084 7D       		.byte	0x7d
 9679 2085 00       		.sleb128 0
 9680 2086 02       		.byte	0x2
 9681 2087 74       		.byte	0x74
 9682 2088 00       		.sleb128 0
 9683 2089 00       		.byte	0
 9684 208a 00       		.byte	0
 9685 208b 16       		.uleb128 0x16
 9686 208c 01       		.byte	0x1
 9687 208d 86020000 		.4byte	.LASF61
 9688 2091 01       		.byte	0x1
 9689 2092 B601     		.2byte	0x1b6
 9690 2094 01       		.byte	0x1
 9691 2095 00000000 		.4byte	.LFB62
 9692 2099 4C000000 		.4byte	.LFE62
 9693 209d 8C1D0000 		.4byte	.LLST151
 9694 20a1 01       		.byte	0x1
 9695 20a2 A1210000 		.4byte	0x21a1
 9696 20a6 17       		.uleb128 0x17
 9697 20a7 6E756D00 		.ascii	"num\000"
 9698 20ab 01       		.byte	0x1
 9699 20ac B601     		.2byte	0x1b6
 9700 20ae 85000000 		.4byte	0x85
 9701 20b2 B81D0000 		.4byte	.LLST152
 9702 20b6 17       		.uleb128 0x17
 9703 20b7 783000   		.ascii	"x0\000"
 9704 20ba 01       		.byte	0x1
 9705 20bb B601     		.2byte	0x1b6
 9706 20bd 90000000 		.4byte	0x90
 9707 20c1 D91D0000 		.4byte	.LLST153
 9708 20c5 17       		.uleb128 0x17
 9709 20c6 793000   		.ascii	"y0\000"
 9710 20c9 01       		.byte	0x1
 9711 20ca B601     		.2byte	0x1b6
 9712 20cc 90000000 		.4byte	0x90
 9713 20d0 FA1D0000 		.4byte	.LLST154
 9714 20d4 18       		.uleb128 0x18
 9715 20d5 6300     		.ascii	"c\000"
 9716 20d7 01       		.byte	0x1
 9717 20d8 B601     		.2byte	0x1b6
 9718 20da 2C010000 		.4byte	0x12c
 9719 20de 02       		.byte	0x2
 9720 20df 91       		.byte	0x91
 9721 20e0 6C       		.sleb128 -20
 9722 20e1 19       		.uleb128 0x19
 9723 20e2 DA000000 		.4byte	.LASF18
 9724 20e6 01       		.byte	0x1
 9725 20e7 B601     		.2byte	0x1b6
 9726 20e9 C4010000 		.4byte	0x1c4
 9727 20ed 02       		.byte	0x2
 9728 20ee 91       		.byte	0x91
 9729 20ef 00       		.sleb128 0
 9730 20f0 1C       		.uleb128 0x1c
 9731 20f1 CE010000 		.4byte	.LASF62
 9732 20f5 01       		.byte	0x1
 9733 20f6 B801     		.2byte	0x1b8
ARM GAS  C:\Users\Steve\AppData\Local\Temp\ccroCuoh.s 			page 189


 9734 20f8 A1210000 		.4byte	0x21a1
 9735 20fc 1B1E0000 		.4byte	.LLST155
 9736 2100 15       		.uleb128 0x15
 9737 2101 18000000 		.4byte	.LVL424
 9738 2105 BE1D0000 		.4byte	0x1dbe
 9739 2109 27210000 		.4byte	0x2127
 9740 210d 12       		.uleb128 0x12
 9741 210e 01       		.byte	0x1
 9742 210f 52       		.byte	0x52
 9743 2110 01       		.byte	0x1
 9744 2111 32       		.byte	0x32
 9745 2112 12       		.uleb128 0x12
 9746 2113 01       		.byte	0x1
 9747 2114 51       		.byte	0x51
 9748 2115 01       		.byte	0x1
 9749 2116 33       		.byte	0x33
 9750 2117 12       		.uleb128 0x12
 9751 2118 01       		.byte	0x1
 9752 2119 50       		.byte	0x50
 9753 211a 04       		.byte	0x4
 9754 211b 75       		.byte	0x75
 9755 211c 00       		.sleb128 0
 9756 211d 3C       		.byte	0x3c
 9757 211e 25       		.byte	0x25
 9758 211f 12       		.uleb128 0x12
 9759 2120 02       		.byte	0x2
 9760 2121 7D       		.byte	0x7d
 9761 2122 00       		.sleb128 0
 9762 2123 02       		.byte	0x2
 9763 2124 74       		.byte	0x74
 9764 2125 00       		.sleb128 0
 9765 2126 00       		.byte	0
 9766 2127 15       		.uleb128 0x15
 9767 2128 28000000 		.4byte	.LVL425
 9768 212c BE1D0000 		.4byte	0x1dbe
 9769 2130 51210000 		.4byte	0x2151
 9770 2134 12       		.uleb128 0x12
 9771 2135 01       		.byte	0x1
 9772 2136 52       		.byte	0x52
 9773 2137 01       		.byte	0x1
 9774 2138 32       		.byte	0x32
 9775 2139 12       		.uleb128 0x12
 9776 213a 01       		.byte	0x1
 9777 213b 51       		.byte	0x51
 9778 213c 01       		.byte	0x1
 9779 213d 39       		.byte	0x39
 9780 213e 12       		.uleb128 0x12
 9781 213f 01       		.byte	0x1
 9782 2140 50       		.byte	0x50
 9783 2141 07       		.byte	0x7
 9784 2142 75       		.byte	0x75
 9785 2143 00       		.sleb128 0
 9786 2144 38       		.byte	0x38
 9787 2145 25       		.byte	0x25
 9788 2146 76       		.byte	0x76
 9789 2147 00       		.sleb128 0
 9790 2148 1A       		.byte	0x1a
ARM GAS  C:\Users\Steve\AppData\Local\Temp\ccroCuoh.s 			page 190


 9791 2149 12       		.uleb128 0x12
 9792 214a 02       		.byte	0x2
 9793 214b 7D       		.byte	0x7d
 9794 214c 00       		.sleb128 0
 9795 214d 02       		.byte	0x2
 9796 214e 74       		.byte	0x74
 9797 214f 00       		.sleb128 0
 9798 2150 00       		.byte	0
 9799 2151 15       		.uleb128 0x15
 9800 2152 38000000 		.4byte	.LVL426
 9801 2156 BE1D0000 		.4byte	0x1dbe
 9802 215a 7C210000 		.4byte	0x217c
 9803 215e 12       		.uleb128 0x12
 9804 215f 01       		.byte	0x1
 9805 2160 52       		.byte	0x52
 9806 2161 01       		.byte	0x1
 9807 2162 32       		.byte	0x32
 9808 2163 12       		.uleb128 0x12
 9809 2164 01       		.byte	0x1
 9810 2165 51       		.byte	0x51
 9811 2166 02       		.byte	0x2
 9812 2167 76       		.byte	0x76
 9813 2168 00       		.sleb128 0
 9814 2169 12       		.uleb128 0x12
 9815 216a 01       		.byte	0x1
 9816 216b 50       		.byte	0x50
 9817 216c 07       		.byte	0x7
 9818 216d 75       		.byte	0x75
 9819 216e 00       		.sleb128 0
 9820 216f 34       		.byte	0x34
 9821 2170 25       		.byte	0x25
 9822 2171 76       		.byte	0x76
 9823 2172 00       		.sleb128 0
 9824 2173 1A       		.byte	0x1a
 9825 2174 12       		.uleb128 0x12
 9826 2175 02       		.byte	0x2
 9827 2176 7D       		.byte	0x7d
 9828 2177 00       		.sleb128 0
 9829 2178 02       		.byte	0x2
 9830 2179 74       		.byte	0x74
 9831 217a 00       		.sleb128 0
 9832 217b 00       		.byte	0
 9833 217c 11       		.uleb128 0x11
 9834 217d 48000000 		.4byte	.LVL427
 9835 2181 BE1D0000 		.4byte	0x1dbe
 9836 2185 12       		.uleb128 0x12
 9837 2186 01       		.byte	0x1
 9838 2187 52       		.byte	0x52
 9839 2188 01       		.byte	0x1
 9840 2189 32       		.byte	0x32
 9841 218a 12       		.uleb128 0x12
 9842 218b 01       		.byte	0x1
 9843 218c 51       		.byte	0x51
 9844 218d 01       		.byte	0x1
 9845 218e 45       		.byte	0x45
 9846 218f 12       		.uleb128 0x12
 9847 2190 01       		.byte	0x1
ARM GAS  C:\Users\Steve\AppData\Local\Temp\ccroCuoh.s 			page 191


 9848 2191 50       		.byte	0x50
 9849 2192 05       		.byte	0x5
 9850 2193 76       		.byte	0x76
 9851 2194 00       		.sleb128 0
 9852 2195 75       		.byte	0x75
 9853 2196 00       		.sleb128 0
 9854 2197 1A       		.byte	0x1a
 9855 2198 12       		.uleb128 0x12
 9856 2199 02       		.byte	0x2
 9857 219a 7D       		.byte	0x7d
 9858 219b 00       		.sleb128 0
 9859 219c 02       		.byte	0x2
 9860 219d 74       		.byte	0x74
 9861 219e 00       		.sleb128 0
 9862 219f 00       		.byte	0
 9863 21a0 00       		.byte	0
 9864 21a1 07       		.uleb128 0x7
 9865 21a2 7A000000 		.4byte	0x7a
 9866 21a6 B1210000 		.4byte	0x21b1
 9867 21aa 08       		.uleb128 0x8
 9868 21ab B0000000 		.4byte	0xb0
 9869 21af 03       		.byte	0x3
 9870 21b0 00       		.byte	0
 9871 21b1 16       		.uleb128 0x16
 9872 21b2 01       		.byte	0x1
 9873 21b3 E6020000 		.4byte	.LASF63
 9874 21b7 01       		.byte	0x1
 9875 21b8 0802     		.2byte	0x208
 9876 21ba 01       		.byte	0x1
 9877 21bb 00000000 		.4byte	.LFB65
 9878 21bf C4000000 		.4byte	.LFE65
 9879 21c3 771E0000 		.4byte	.LLST156
 9880 21c7 01       		.byte	0x1
 9881 21c8 5E230000 		.4byte	0x235e
 9882 21cc 1B       		.uleb128 0x1b
 9883 21cd 22000000 		.4byte	.LASF64
 9884 21d1 01       		.byte	0x1
 9885 21d2 0802     		.2byte	0x208
 9886 21d4 90000000 		.4byte	0x90
 9887 21d8 AF1E0000 		.4byte	.LLST157
 9888 21dc 17       		.uleb128 0x17
 9889 21dd 6800     		.ascii	"h\000"
 9890 21df 01       		.byte	0x1
 9891 21e0 0802     		.2byte	0x208
 9892 21e2 90000000 		.4byte	0x90
 9893 21e6 F11E0000 		.4byte	.LLST158
 9894 21ea 18       		.uleb128 0x18
 9895 21eb 6300     		.ascii	"c\000"
 9896 21ed 01       		.byte	0x1
 9897 21ee 0802     		.2byte	0x208
 9898 21f0 2C010000 		.4byte	0x12c
 9899 21f4 02       		.byte	0x2
 9900 21f5 91       		.byte	0x91
 9901 21f6 54       		.sleb128 -44
 9902 21f7 1B       		.uleb128 0x1b
 9903 21f8 DA000000 		.4byte	.LASF18
 9904 21fc 01       		.byte	0x1
ARM GAS  C:\Users\Steve\AppData\Local\Temp\ccroCuoh.s 			page 192


 9905 21fd 0802     		.2byte	0x208
 9906 21ff C4010000 		.4byte	0x1c4
 9907 2203 1D1F0000 		.4byte	.LLST159
 9908 2207 1A       		.uleb128 0x1a
 9909 2208 6900     		.ascii	"i\000"
 9910 220a 01       		.byte	0x1
 9911 220b 0A02     		.2byte	0x20a
 9912 220d 6C000000 		.4byte	0x6c
 9913 2211 541F0000 		.4byte	.LLST160
 9914 2215 1D       		.uleb128 0x1d
 9915 2216 E0020000 		.4byte	.LASF65
 9916 221a 01       		.byte	0x1
 9917 221b 0B02     		.2byte	0x20b
 9918 221d 2C010000 		.4byte	0x12c
 9919 2221 02       		.byte	0x2
 9920 2222 91       		.byte	0x91
 9921 2223 5C       		.sleb128 -36
 9922 2224 1E       		.uleb128 0x1e
 9923 2225 CA000000 		.4byte	.LASF66
 9924 2229 01       		.byte	0x1
 9925 222a 1002     		.2byte	0x210
 9926 222c 90000000 		.4byte	0x90
 9927 2230 0F       		.byte	0xf
 9928 2231 15       		.uleb128 0x15
 9929 2232 3E000000 		.4byte	.LVL434
 9930 2236 78080000 		.4byte	0x878
 9931 223a 57220000 		.4byte	0x2257
 9932 223e 12       		.uleb128 0x12
 9933 223f 01       		.byte	0x1
 9934 2240 52       		.byte	0x52
 9935 2241 02       		.byte	0x2
 9936 2242 75       		.byte	0x75
 9937 2243 00       		.sleb128 0
 9938 2244 12       		.uleb128 0x12
 9939 2245 01       		.byte	0x1
 9940 2246 51       		.byte	0x51
 9941 2247 01       		.byte	0x1
 9942 2248 30       		.byte	0x30
 9943 2249 12       		.uleb128 0x12
 9944 224a 01       		.byte	0x1
 9945 224b 50       		.byte	0x50
 9946 224c 02       		.byte	0x2
 9947 224d 78       		.byte	0x78
 9948 224e 00       		.sleb128 0
 9949 224f 12       		.uleb128 0x12
 9950 2250 02       		.byte	0x2
 9951 2251 7D       		.byte	0x7d
 9952 2252 00       		.sleb128 0
 9953 2253 02       		.byte	0x2
 9954 2254 74       		.byte	0x74
 9955 2255 00       		.sleb128 0
 9956 2256 00       		.byte	0
 9957 2257 15       		.uleb128 0x15
 9958 2258 50000000 		.4byte	.LVL435
 9959 225c 78080000 		.4byte	0x878
 9960 2260 7D220000 		.4byte	0x227d
 9961 2264 12       		.uleb128 0x12
ARM GAS  C:\Users\Steve\AppData\Local\Temp\ccroCuoh.s 			page 193


 9962 2265 01       		.byte	0x1
 9963 2266 52       		.byte	0x52
 9964 2267 02       		.byte	0x2
 9965 2268 75       		.byte	0x75
 9966 2269 00       		.sleb128 0
 9967 226a 12       		.uleb128 0x12
 9968 226b 01       		.byte	0x1
 9969 226c 51       		.byte	0x51
 9970 226d 01       		.byte	0x1
 9971 226e 30       		.byte	0x30
 9972 226f 12       		.uleb128 0x12
 9973 2270 01       		.byte	0x1
 9974 2271 50       		.byte	0x50
 9975 2272 02       		.byte	0x2
 9976 2273 79       		.byte	0x79
 9977 2274 00       		.sleb128 0
 9978 2275 12       		.uleb128 0x12
 9979 2276 02       		.byte	0x2
 9980 2277 7D       		.byte	0x7d
 9981 2278 00       		.sleb128 0
 9982 2279 02       		.byte	0x2
 9983 227a 74       		.byte	0x74
 9984 227b 00       		.sleb128 0
 9985 227c 00       		.byte	0
 9986 227d 15       		.uleb128 0x15
 9987 227e 66000000 		.4byte	.LVL436
 9988 2282 78080000 		.4byte	0x878
 9989 2286 A3220000 		.4byte	0x22a3
 9990 228a 12       		.uleb128 0x12
 9991 228b 01       		.byte	0x1
 9992 228c 52       		.byte	0x52
 9993 228d 02       		.byte	0x2
 9994 228e 75       		.byte	0x75
 9995 228f 00       		.sleb128 0
 9996 2290 12       		.uleb128 0x12
 9997 2291 01       		.byte	0x1
 9998 2292 51       		.byte	0x51
 9999 2293 01       		.byte	0x1
 10000 2294 30       		.byte	0x30
 10001 2295 12       		.uleb128 0x12
 10002 2296 01       		.byte	0x1
 10003 2297 50       		.byte	0x50
 10004 2298 02       		.byte	0x2
 10005 2299 77       		.byte	0x77
 10006 229a 00       		.sleb128 0
 10007 229b 12       		.uleb128 0x12
 10008 229c 02       		.byte	0x2
 10009 229d 7D       		.byte	0x7d
 10010 229e 00       		.sleb128 0
 10011 229f 02       		.byte	0x2
 10012 22a0 74       		.byte	0x74
 10013 22a1 00       		.sleb128 0
 10014 22a2 00       		.byte	0
 10015 22a3 15       		.uleb128 0x15
 10016 22a4 74000000 		.4byte	.LVL437
 10017 22a8 78080000 		.4byte	0x878
 10018 22ac C9220000 		.4byte	0x22c9
ARM GAS  C:\Users\Steve\AppData\Local\Temp\ccroCuoh.s 			page 194


 10019 22b0 12       		.uleb128 0x12
 10020 22b1 01       		.byte	0x1
 10021 22b2 52       		.byte	0x52
 10022 22b3 02       		.byte	0x2
 10023 22b4 75       		.byte	0x75
 10024 22b5 00       		.sleb128 0
 10025 22b6 12       		.uleb128 0x12
 10026 22b7 01       		.byte	0x1
 10027 22b8 51       		.byte	0x51
 10028 22b9 01       		.byte	0x1
 10029 22ba 30       		.byte	0x30
 10030 22bb 12       		.uleb128 0x12
 10031 22bc 01       		.byte	0x1
 10032 22bd 50       		.byte	0x50
 10033 22be 02       		.byte	0x2
 10034 22bf 76       		.byte	0x76
 10035 22c0 00       		.sleb128 0
 10036 22c1 12       		.uleb128 0x12
 10037 22c2 02       		.byte	0x2
 10038 22c3 7D       		.byte	0x7d
 10039 22c4 00       		.sleb128 0
 10040 22c5 02       		.byte	0x2
 10041 22c6 74       		.byte	0x74
 10042 22c7 00       		.sleb128 0
 10043 22c8 00       		.byte	0
 10044 22c9 15       		.uleb128 0x15
 10045 22ca 8A000000 		.4byte	.LVL438
 10046 22ce 78080000 		.4byte	0x878
 10047 22d2 EF220000 		.4byte	0x22ef
 10048 22d6 12       		.uleb128 0x12
 10049 22d7 01       		.byte	0x1
 10050 22d8 52       		.byte	0x52
 10051 22d9 01       		.byte	0x1
 10052 22da 3F       		.byte	0x3f
 10053 22db 12       		.uleb128 0x12
 10054 22dc 01       		.byte	0x1
 10055 22dd 51       		.byte	0x51
 10056 22de 02       		.byte	0x2
 10057 22df 75       		.byte	0x75
 10058 22e0 00       		.sleb128 0
 10059 22e1 12       		.uleb128 0x12
 10060 22e2 01       		.byte	0x1
 10061 22e3 50       		.byte	0x50
 10062 22e4 02       		.byte	0x2
 10063 22e5 78       		.byte	0x78
 10064 22e6 00       		.sleb128 0
 10065 22e7 12       		.uleb128 0x12
 10066 22e8 02       		.byte	0x2
 10067 22e9 7D       		.byte	0x7d
 10068 22ea 00       		.sleb128 0
 10069 22eb 02       		.byte	0x2
 10070 22ec 74       		.byte	0x74
 10071 22ed 00       		.sleb128 0
 10072 22ee 00       		.byte	0
 10073 22ef 15       		.uleb128 0x15
 10074 22f0 98000000 		.4byte	.LVL439
 10075 22f4 78080000 		.4byte	0x878
ARM GAS  C:\Users\Steve\AppData\Local\Temp\ccroCuoh.s 			page 195


 10076 22f8 15230000 		.4byte	0x2315
 10077 22fc 12       		.uleb128 0x12
 10078 22fd 01       		.byte	0x1
 10079 22fe 52       		.byte	0x52
 10080 22ff 01       		.byte	0x1
 10081 2300 3F       		.byte	0x3f
 10082 2301 12       		.uleb128 0x12
 10083 2302 01       		.byte	0x1
 10084 2303 51       		.byte	0x51
 10085 2304 02       		.byte	0x2
 10086 2305 75       		.byte	0x75
 10087 2306 00       		.sleb128 0
 10088 2307 12       		.uleb128 0x12
 10089 2308 01       		.byte	0x1
 10090 2309 50       		.byte	0x50
 10091 230a 02       		.byte	0x2
 10092 230b 79       		.byte	0x79
 10093 230c 00       		.sleb128 0
 10094 230d 12       		.uleb128 0x12
 10095 230e 02       		.byte	0x2
 10096 230f 7D       		.byte	0x7d
 10097 2310 00       		.sleb128 0
 10098 2311 02       		.byte	0x2
 10099 2312 74       		.byte	0x74
 10100 2313 00       		.sleb128 0
 10101 2314 00       		.byte	0
 10102 2315 15       		.uleb128 0x15
 10103 2316 A6000000 		.4byte	.LVL440
 10104 231a 78080000 		.4byte	0x878
 10105 231e 3B230000 		.4byte	0x233b
 10106 2322 12       		.uleb128 0x12
 10107 2323 01       		.byte	0x1
 10108 2324 52       		.byte	0x52
 10109 2325 01       		.byte	0x1
 10110 2326 3F       		.byte	0x3f
 10111 2327 12       		.uleb128 0x12
 10112 2328 01       		.byte	0x1
 10113 2329 51       		.byte	0x51
 10114 232a 02       		.byte	0x2
 10115 232b 75       		.byte	0x75
 10116 232c 00       		.sleb128 0
 10117 232d 12       		.uleb128 0x12
 10118 232e 01       		.byte	0x1
 10119 232f 50       		.byte	0x50
 10120 2330 02       		.byte	0x2
 10121 2331 77       		.byte	0x77
 10122 2332 00       		.sleb128 0
 10123 2333 12       		.uleb128 0x12
 10124 2334 02       		.byte	0x2
 10125 2335 7D       		.byte	0x7d
 10126 2336 00       		.sleb128 0
 10127 2337 02       		.byte	0x2
 10128 2338 74       		.byte	0x74
 10129 2339 00       		.sleb128 0
 10130 233a 00       		.byte	0
 10131 233b 11       		.uleb128 0x11
 10132 233c B4000000 		.4byte	.LVL441
ARM GAS  C:\Users\Steve\AppData\Local\Temp\ccroCuoh.s 			page 196


 10133 2340 78080000 		.4byte	0x878
 10134 2344 12       		.uleb128 0x12
 10135 2345 01       		.byte	0x1
 10136 2346 52       		.byte	0x52
 10137 2347 01       		.byte	0x1
 10138 2348 3F       		.byte	0x3f
 10139 2349 12       		.uleb128 0x12
 10140 234a 01       		.byte	0x1
 10141 234b 51       		.byte	0x51
 10142 234c 02       		.byte	0x2
 10143 234d 75       		.byte	0x75
 10144 234e 00       		.sleb128 0
 10145 234f 12       		.uleb128 0x12
 10146 2350 01       		.byte	0x1
 10147 2351 50       		.byte	0x50
 10148 2352 02       		.byte	0x2
 10149 2353 76       		.byte	0x76
 10150 2354 00       		.sleb128 0
 10151 2355 12       		.uleb128 0x12
 10152 2356 02       		.byte	0x2
 10153 2357 7D       		.byte	0x7d
 10154 2358 00       		.sleb128 0
 10155 2359 02       		.byte	0x2
 10156 235a 74       		.byte	0x74
 10157 235b 00       		.sleb128 0
 10158 235c 00       		.byte	0
 10159 235d 00       		.byte	0
 10160 235e 1F       		.uleb128 0x1f
 10161 235f 01       		.byte	0x1
 10162 2360 01030000 		.4byte	.LASF74
 10163 2364 01       		.byte	0x1
 10164 2365 2802     		.2byte	0x228
 10165 2367 01       		.byte	0x1
 10166 2368 6C000000 		.4byte	0x6c
 10167 236c 00000000 		.4byte	.LFB66
 10168 2370 6A000000 		.4byte	.LFE66
 10169 2374 D41F0000 		.4byte	.LLST161
 10170 2378 01       		.byte	0x1
 10171 2379 BC230000 		.4byte	0x23bc
 10172 237d 1B       		.uleb128 0x1b
 10173 237e 17030000 		.4byte	.LASF67
 10174 2382 01       		.byte	0x1
 10175 2383 2802     		.2byte	0x228
 10176 2385 BC230000 		.4byte	0x23bc
 10177 2389 F41F0000 		.4byte	.LLST162
 10178 238d 1B       		.uleb128 0x1b
 10179 238e 2A030000 		.4byte	.LASF68
 10180 2392 01       		.byte	0x1
 10181 2393 2802     		.2byte	0x228
 10182 2395 C2230000 		.4byte	0x23c2
 10183 2399 2E200000 		.4byte	.LLST163
 10184 239d 1A       		.uleb128 0x1a
 10185 239e 6900     		.ascii	"i\000"
 10186 23a0 01       		.byte	0x1
 10187 23a1 2A02     		.2byte	0x22a
 10188 23a3 6C000000 		.4byte	0x6c
 10189 23a7 5A200000 		.4byte	.LLST164
ARM GAS  C:\Users\Steve\AppData\Local\Temp\ccroCuoh.s 			page 197


 10190 23ab 1C       		.uleb128 0x1c
 10191 23ac E1000000 		.4byte	.LASF69
 10192 23b0 01       		.byte	0x1
 10193 23b1 2B02     		.2byte	0x22b
 10194 23b3 7A000000 		.4byte	0x7a
 10195 23b7 C2200000 		.4byte	.LLST165
 10196 23bb 00       		.byte	0
 10197 23bc 0F       		.uleb128 0xf
 10198 23bd 04       		.byte	0x4
 10199 23be 7A000000 		.4byte	0x7a
 10200 23c2 0F       		.uleb128 0xf
 10201 23c3 04       		.byte	0x4
 10202 23c4 85000000 		.4byte	0x85
 10203 23c8 20       		.uleb128 0x20
 10204 23c9 01       		.byte	0x1
 10205 23ca D5010000 		.4byte	.LASF70
 10206 23ce 01       		.byte	0x1
 10207 23cf 3702     		.2byte	0x237
 10208 23d1 01       		.byte	0x1
 10209 23d2 6C000000 		.4byte	0x6c
 10210 23d6 00000000 		.4byte	.LFB67
 10211 23da 6A000000 		.4byte	.LFE67
 10212 23de 66210000 		.4byte	.LLST166
 10213 23e2 01       		.byte	0x1
 10214 23e3 1B       		.uleb128 0x1b
 10215 23e4 17030000 		.4byte	.LASF67
 10216 23e8 01       		.byte	0x1
 10217 23e9 3702     		.2byte	0x237
 10218 23eb BC230000 		.4byte	0x23bc
 10219 23ef 86210000 		.4byte	.LLST167
 10220 23f3 1B       		.uleb128 0x1b
 10221 23f4 2A030000 		.4byte	.LASF68
 10222 23f8 01       		.byte	0x1
 10223 23f9 3702     		.2byte	0x237
 10224 23fb C2230000 		.4byte	0x23c2
 10225 23ff C0210000 		.4byte	.LLST168
 10226 2403 1A       		.uleb128 0x1a
 10227 2404 6900     		.ascii	"i\000"
 10228 2406 01       		.byte	0x1
 10229 2407 3902     		.2byte	0x239
 10230 2409 6C000000 		.4byte	0x6c
 10231 240d EC210000 		.4byte	.LLST169
 10232 2411 1C       		.uleb128 0x1c
 10233 2412 E1000000 		.4byte	.LASF69
 10234 2416 01       		.byte	0x1
 10235 2417 3A02     		.2byte	0x23a
 10236 2419 7A000000 		.4byte	0x7a
 10237 241d 54220000 		.4byte	.LLST170
 10238 2421 00       		.byte	0
 10239 2422 00       		.byte	0
 10240              		.section	.debug_abbrev,"",%progbits
 10241              	.Ldebug_abbrev0:
 10242 0000 01       		.uleb128 0x1
 10243 0001 11       		.uleb128 0x11
 10244 0002 01       		.byte	0x1
 10245 0003 25       		.uleb128 0x25
 10246 0004 0E       		.uleb128 0xe
ARM GAS  C:\Users\Steve\AppData\Local\Temp\ccroCuoh.s 			page 198


 10247 0005 13       		.uleb128 0x13
 10248 0006 0B       		.uleb128 0xb
 10249 0007 03       		.uleb128 0x3
 10250 0008 0E       		.uleb128 0xe
 10251 0009 1B       		.uleb128 0x1b
 10252 000a 0E       		.uleb128 0xe
 10253 000b 55       		.uleb128 0x55
 10254 000c 06       		.uleb128 0x6
 10255 000d 11       		.uleb128 0x11
 10256 000e 01       		.uleb128 0x1
 10257 000f 52       		.uleb128 0x52
 10258 0010 01       		.uleb128 0x1
 10259 0011 10       		.uleb128 0x10
 10260 0012 06       		.uleb128 0x6
 10261 0013 00       		.byte	0
 10262 0014 00       		.byte	0
 10263 0015 02       		.uleb128 0x2
 10264 0016 24       		.uleb128 0x24
 10265 0017 00       		.byte	0
 10266 0018 0B       		.uleb128 0xb
 10267 0019 0B       		.uleb128 0xb
 10268 001a 3E       		.uleb128 0x3e
 10269 001b 0B       		.uleb128 0xb
 10270 001c 03       		.uleb128 0x3
 10271 001d 0E       		.uleb128 0xe
 10272 001e 00       		.byte	0
 10273 001f 00       		.byte	0
 10274 0020 03       		.uleb128 0x3
 10275 0021 16       		.uleb128 0x16
 10276 0022 00       		.byte	0
 10277 0023 03       		.uleb128 0x3
 10278 0024 0E       		.uleb128 0xe
 10279 0025 3A       		.uleb128 0x3a
 10280 0026 0B       		.uleb128 0xb
 10281 0027 3B       		.uleb128 0x3b
 10282 0028 0B       		.uleb128 0xb
 10283 0029 49       		.uleb128 0x49
 10284 002a 13       		.uleb128 0x13
 10285 002b 00       		.byte	0
 10286 002c 00       		.byte	0
 10287 002d 04       		.uleb128 0x4
 10288 002e 24       		.uleb128 0x24
 10289 002f 00       		.byte	0
 10290 0030 0B       		.uleb128 0xb
 10291 0031 0B       		.uleb128 0xb
 10292 0032 3E       		.uleb128 0x3e
 10293 0033 0B       		.uleb128 0xb
 10294 0034 03       		.uleb128 0x3
 10295 0035 08       		.uleb128 0x8
 10296 0036 00       		.byte	0
 10297 0037 00       		.byte	0
 10298 0038 05       		.uleb128 0x5
 10299 0039 13       		.uleb128 0x13
 10300 003a 01       		.byte	0x1
 10301 003b 0B       		.uleb128 0xb
 10302 003c 0B       		.uleb128 0xb
 10303 003d 3A       		.uleb128 0x3a
ARM GAS  C:\Users\Steve\AppData\Local\Temp\ccroCuoh.s 			page 199


 10304 003e 0B       		.uleb128 0xb
 10305 003f 3B       		.uleb128 0x3b
 10306 0040 0B       		.uleb128 0xb
 10307 0041 01       		.uleb128 0x1
 10308 0042 13       		.uleb128 0x13
 10309 0043 00       		.byte	0
 10310 0044 00       		.byte	0
 10311 0045 06       		.uleb128 0x6
 10312 0046 0D       		.uleb128 0xd
 10313 0047 00       		.byte	0
 10314 0048 03       		.uleb128 0x3
 10315 0049 08       		.uleb128 0x8
 10316 004a 3A       		.uleb128 0x3a
 10317 004b 0B       		.uleb128 0xb
 10318 004c 3B       		.uleb128 0x3b
 10319 004d 0B       		.uleb128 0xb
 10320 004e 49       		.uleb128 0x49
 10321 004f 13       		.uleb128 0x13
 10322 0050 38       		.uleb128 0x38
 10323 0051 0A       		.uleb128 0xa
 10324 0052 00       		.byte	0
 10325 0053 00       		.byte	0
 10326 0054 07       		.uleb128 0x7
 10327 0055 01       		.uleb128 0x1
 10328 0056 01       		.byte	0x1
 10329 0057 49       		.uleb128 0x49
 10330 0058 13       		.uleb128 0x13
 10331 0059 01       		.uleb128 0x1
 10332 005a 13       		.uleb128 0x13
 10333 005b 00       		.byte	0
 10334 005c 00       		.byte	0
 10335 005d 08       		.uleb128 0x8
 10336 005e 21       		.uleb128 0x21
 10337 005f 00       		.byte	0
 10338 0060 49       		.uleb128 0x49
 10339 0061 13       		.uleb128 0x13
 10340 0062 2F       		.uleb128 0x2f
 10341 0063 0B       		.uleb128 0xb
 10342 0064 00       		.byte	0
 10343 0065 00       		.byte	0
 10344 0066 09       		.uleb128 0x9
 10345 0067 16       		.uleb128 0x16
 10346 0068 00       		.byte	0
 10347 0069 03       		.uleb128 0x3
 10348 006a 08       		.uleb128 0x8
 10349 006b 3A       		.uleb128 0x3a
 10350 006c 0B       		.uleb128 0xb
 10351 006d 3B       		.uleb128 0x3b
 10352 006e 0B       		.uleb128 0xb
 10353 006f 49       		.uleb128 0x49
 10354 0070 13       		.uleb128 0x13
 10355 0071 00       		.byte	0
 10356 0072 00       		.byte	0
 10357 0073 0A       		.uleb128 0xa
 10358 0074 2E       		.uleb128 0x2e
 10359 0075 01       		.byte	0x1
 10360 0076 3F       		.uleb128 0x3f
ARM GAS  C:\Users\Steve\AppData\Local\Temp\ccroCuoh.s 			page 200


 10361 0077 0C       		.uleb128 0xc
 10362 0078 03       		.uleb128 0x3
 10363 0079 0E       		.uleb128 0xe
 10364 007a 3A       		.uleb128 0x3a
 10365 007b 0B       		.uleb128 0xb
 10366 007c 3B       		.uleb128 0x3b
 10367 007d 0B       		.uleb128 0xb
 10368 007e 27       		.uleb128 0x27
 10369 007f 0C       		.uleb128 0xc
 10370 0080 11       		.uleb128 0x11
 10371 0081 01       		.uleb128 0x1
 10372 0082 12       		.uleb128 0x12
 10373 0083 01       		.uleb128 0x1
 10374 0084 40       		.uleb128 0x40
 10375 0085 06       		.uleb128 0x6
 10376 0086 9742     		.uleb128 0x2117
 10377 0088 0C       		.uleb128 0xc
 10378 0089 01       		.uleb128 0x1
 10379 008a 13       		.uleb128 0x13
 10380 008b 00       		.byte	0
 10381 008c 00       		.byte	0
 10382 008d 0B       		.uleb128 0xb
 10383 008e 05       		.uleb128 0x5
 10384 008f 00       		.byte	0
 10385 0090 03       		.uleb128 0x3
 10386 0091 08       		.uleb128 0x8
 10387 0092 3A       		.uleb128 0x3a
 10388 0093 0B       		.uleb128 0xb
 10389 0094 3B       		.uleb128 0x3b
 10390 0095 0B       		.uleb128 0xb
 10391 0096 49       		.uleb128 0x49
 10392 0097 13       		.uleb128 0x13
 10393 0098 02       		.uleb128 0x2
 10394 0099 06       		.uleb128 0x6
 10395 009a 00       		.byte	0
 10396 009b 00       		.byte	0
 10397 009c 0C       		.uleb128 0xc
 10398 009d 05       		.uleb128 0x5
 10399 009e 00       		.byte	0
 10400 009f 03       		.uleb128 0x3
 10401 00a0 0E       		.uleb128 0xe
 10402 00a1 3A       		.uleb128 0x3a
 10403 00a2 0B       		.uleb128 0xb
 10404 00a3 3B       		.uleb128 0x3b
 10405 00a4 0B       		.uleb128 0xb
 10406 00a5 49       		.uleb128 0x49
 10407 00a6 13       		.uleb128 0x13
 10408 00a7 02       		.uleb128 0x2
 10409 00a8 06       		.uleb128 0x6
 10410 00a9 00       		.byte	0
 10411 00aa 00       		.byte	0
 10412 00ab 0D       		.uleb128 0xd
 10413 00ac 34       		.uleb128 0x34
 10414 00ad 00       		.byte	0
 10415 00ae 03       		.uleb128 0x3
 10416 00af 08       		.uleb128 0x8
 10417 00b0 3A       		.uleb128 0x3a
ARM GAS  C:\Users\Steve\AppData\Local\Temp\ccroCuoh.s 			page 201


 10418 00b1 0B       		.uleb128 0xb
 10419 00b2 3B       		.uleb128 0x3b
 10420 00b3 0B       		.uleb128 0xb
 10421 00b4 49       		.uleb128 0x49
 10422 00b5 13       		.uleb128 0x13
 10423 00b6 02       		.uleb128 0x2
 10424 00b7 06       		.uleb128 0x6
 10425 00b8 00       		.byte	0
 10426 00b9 00       		.byte	0
 10427 00ba 0E       		.uleb128 0xe
 10428 00bb 34       		.uleb128 0x34
 10429 00bc 00       		.byte	0
 10430 00bd 03       		.uleb128 0x3
 10431 00be 0E       		.uleb128 0xe
 10432 00bf 3A       		.uleb128 0x3a
 10433 00c0 0B       		.uleb128 0xb
 10434 00c1 3B       		.uleb128 0x3b
 10435 00c2 0B       		.uleb128 0xb
 10436 00c3 49       		.uleb128 0x49
 10437 00c4 13       		.uleb128 0x13
 10438 00c5 02       		.uleb128 0x2
 10439 00c6 06       		.uleb128 0x6
 10440 00c7 00       		.byte	0
 10441 00c8 00       		.byte	0
 10442 00c9 0F       		.uleb128 0xf
 10443 00ca 0F       		.uleb128 0xf
 10444 00cb 00       		.byte	0
 10445 00cc 0B       		.uleb128 0xb
 10446 00cd 0B       		.uleb128 0xb
 10447 00ce 49       		.uleb128 0x49
 10448 00cf 13       		.uleb128 0x13
 10449 00d0 00       		.byte	0
 10450 00d1 00       		.byte	0
 10451 00d2 10       		.uleb128 0x10
 10452 00d3 05       		.uleb128 0x5
 10453 00d4 00       		.byte	0
 10454 00d5 03       		.uleb128 0x3
 10455 00d6 08       		.uleb128 0x8
 10456 00d7 3A       		.uleb128 0x3a
 10457 00d8 0B       		.uleb128 0xb
 10458 00d9 3B       		.uleb128 0x3b
 10459 00da 0B       		.uleb128 0xb
 10460 00db 49       		.uleb128 0x49
 10461 00dc 13       		.uleb128 0x13
 10462 00dd 02       		.uleb128 0x2
 10463 00de 0A       		.uleb128 0xa
 10464 00df 00       		.byte	0
 10465 00e0 00       		.byte	0
 10466 00e1 11       		.uleb128 0x11
 10467 00e2 898201   		.uleb128 0x4109
 10468 00e5 01       		.byte	0x1
 10469 00e6 11       		.uleb128 0x11
 10470 00e7 01       		.uleb128 0x1
 10471 00e8 31       		.uleb128 0x31
 10472 00e9 13       		.uleb128 0x13
 10473 00ea 00       		.byte	0
 10474 00eb 00       		.byte	0
ARM GAS  C:\Users\Steve\AppData\Local\Temp\ccroCuoh.s 			page 202


 10475 00ec 12       		.uleb128 0x12
 10476 00ed 8A8201   		.uleb128 0x410a
 10477 00f0 00       		.byte	0
 10478 00f1 02       		.uleb128 0x2
 10479 00f2 0A       		.uleb128 0xa
 10480 00f3 9142     		.uleb128 0x2111
 10481 00f5 0A       		.uleb128 0xa
 10482 00f6 00       		.byte	0
 10483 00f7 00       		.byte	0
 10484 00f8 13       		.uleb128 0x13
 10485 00f9 05       		.uleb128 0x5
 10486 00fa 00       		.byte	0
 10487 00fb 03       		.uleb128 0x3
 10488 00fc 0E       		.uleb128 0xe
 10489 00fd 3A       		.uleb128 0x3a
 10490 00fe 0B       		.uleb128 0xb
 10491 00ff 3B       		.uleb128 0x3b
 10492 0100 0B       		.uleb128 0xb
 10493 0101 49       		.uleb128 0x49
 10494 0102 13       		.uleb128 0x13
 10495 0103 02       		.uleb128 0x2
 10496 0104 0A       		.uleb128 0xa
 10497 0105 00       		.byte	0
 10498 0106 00       		.byte	0
 10499 0107 14       		.uleb128 0x14
 10500 0108 34       		.uleb128 0x34
 10501 0109 00       		.byte	0
 10502 010a 03       		.uleb128 0x3
 10503 010b 0E       		.uleb128 0xe
 10504 010c 3A       		.uleb128 0x3a
 10505 010d 0B       		.uleb128 0xb
 10506 010e 3B       		.uleb128 0x3b
 10507 010f 0B       		.uleb128 0xb
 10508 0110 49       		.uleb128 0x49
 10509 0111 13       		.uleb128 0x13
 10510 0112 02       		.uleb128 0x2
 10511 0113 0A       		.uleb128 0xa
 10512 0114 00       		.byte	0
 10513 0115 00       		.byte	0
 10514 0116 15       		.uleb128 0x15
 10515 0117 898201   		.uleb128 0x4109
 10516 011a 01       		.byte	0x1
 10517 011b 11       		.uleb128 0x11
 10518 011c 01       		.uleb128 0x1
 10519 011d 31       		.uleb128 0x31
 10520 011e 13       		.uleb128 0x13
 10521 011f 01       		.uleb128 0x1
 10522 0120 13       		.uleb128 0x13
 10523 0121 00       		.byte	0
 10524 0122 00       		.byte	0
 10525 0123 16       		.uleb128 0x16
 10526 0124 2E       		.uleb128 0x2e
 10527 0125 01       		.byte	0x1
 10528 0126 3F       		.uleb128 0x3f
 10529 0127 0C       		.uleb128 0xc
 10530 0128 03       		.uleb128 0x3
 10531 0129 0E       		.uleb128 0xe
ARM GAS  C:\Users\Steve\AppData\Local\Temp\ccroCuoh.s 			page 203


 10532 012a 3A       		.uleb128 0x3a
 10533 012b 0B       		.uleb128 0xb
 10534 012c 3B       		.uleb128 0x3b
 10535 012d 05       		.uleb128 0x5
 10536 012e 27       		.uleb128 0x27
 10537 012f 0C       		.uleb128 0xc
 10538 0130 11       		.uleb128 0x11
 10539 0131 01       		.uleb128 0x1
 10540 0132 12       		.uleb128 0x12
 10541 0133 01       		.uleb128 0x1
 10542 0134 40       		.uleb128 0x40
 10543 0135 06       		.uleb128 0x6
 10544 0136 9742     		.uleb128 0x2117
 10545 0138 0C       		.uleb128 0xc
 10546 0139 01       		.uleb128 0x1
 10547 013a 13       		.uleb128 0x13
 10548 013b 00       		.byte	0
 10549 013c 00       		.byte	0
 10550 013d 17       		.uleb128 0x17
 10551 013e 05       		.uleb128 0x5
 10552 013f 00       		.byte	0
 10553 0140 03       		.uleb128 0x3
 10554 0141 08       		.uleb128 0x8
 10555 0142 3A       		.uleb128 0x3a
 10556 0143 0B       		.uleb128 0xb
 10557 0144 3B       		.uleb128 0x3b
 10558 0145 05       		.uleb128 0x5
 10559 0146 49       		.uleb128 0x49
 10560 0147 13       		.uleb128 0x13
 10561 0148 02       		.uleb128 0x2
 10562 0149 06       		.uleb128 0x6
 10563 014a 00       		.byte	0
 10564 014b 00       		.byte	0
 10565 014c 18       		.uleb128 0x18
 10566 014d 05       		.uleb128 0x5
 10567 014e 00       		.byte	0
 10568 014f 03       		.uleb128 0x3
 10569 0150 08       		.uleb128 0x8
 10570 0151 3A       		.uleb128 0x3a
 10571 0152 0B       		.uleb128 0xb
 10572 0153 3B       		.uleb128 0x3b
 10573 0154 05       		.uleb128 0x5
 10574 0155 49       		.uleb128 0x49
 10575 0156 13       		.uleb128 0x13
 10576 0157 02       		.uleb128 0x2
 10577 0158 0A       		.uleb128 0xa
 10578 0159 00       		.byte	0
 10579 015a 00       		.byte	0
 10580 015b 19       		.uleb128 0x19
 10581 015c 05       		.uleb128 0x5
 10582 015d 00       		.byte	0
 10583 015e 03       		.uleb128 0x3
 10584 015f 0E       		.uleb128 0xe
 10585 0160 3A       		.uleb128 0x3a
 10586 0161 0B       		.uleb128 0xb
 10587 0162 3B       		.uleb128 0x3b
 10588 0163 05       		.uleb128 0x5
ARM GAS  C:\Users\Steve\AppData\Local\Temp\ccroCuoh.s 			page 204


 10589 0164 49       		.uleb128 0x49
 10590 0165 13       		.uleb128 0x13
 10591 0166 02       		.uleb128 0x2
 10592 0167 0A       		.uleb128 0xa
 10593 0168 00       		.byte	0
 10594 0169 00       		.byte	0
 10595 016a 1A       		.uleb128 0x1a
 10596 016b 34       		.uleb128 0x34
 10597 016c 00       		.byte	0
 10598 016d 03       		.uleb128 0x3
 10599 016e 08       		.uleb128 0x8
 10600 016f 3A       		.uleb128 0x3a
 10601 0170 0B       		.uleb128 0xb
 10602 0171 3B       		.uleb128 0x3b
 10603 0172 05       		.uleb128 0x5
 10604 0173 49       		.uleb128 0x49
 10605 0174 13       		.uleb128 0x13
 10606 0175 02       		.uleb128 0x2
 10607 0176 06       		.uleb128 0x6
 10608 0177 00       		.byte	0
 10609 0178 00       		.byte	0
 10610 0179 1B       		.uleb128 0x1b
 10611 017a 05       		.uleb128 0x5
 10612 017b 00       		.byte	0
 10613 017c 03       		.uleb128 0x3
 10614 017d 0E       		.uleb128 0xe
 10615 017e 3A       		.uleb128 0x3a
 10616 017f 0B       		.uleb128 0xb
 10617 0180 3B       		.uleb128 0x3b
 10618 0181 05       		.uleb128 0x5
 10619 0182 49       		.uleb128 0x49
 10620 0183 13       		.uleb128 0x13
 10621 0184 02       		.uleb128 0x2
 10622 0185 06       		.uleb128 0x6
 10623 0186 00       		.byte	0
 10624 0187 00       		.byte	0
 10625 0188 1C       		.uleb128 0x1c
 10626 0189 34       		.uleb128 0x34
 10627 018a 00       		.byte	0
 10628 018b 03       		.uleb128 0x3
 10629 018c 0E       		.uleb128 0xe
 10630 018d 3A       		.uleb128 0x3a
 10631 018e 0B       		.uleb128 0xb
 10632 018f 3B       		.uleb128 0x3b
 10633 0190 05       		.uleb128 0x5
 10634 0191 49       		.uleb128 0x49
 10635 0192 13       		.uleb128 0x13
 10636 0193 02       		.uleb128 0x2
 10637 0194 06       		.uleb128 0x6
 10638 0195 00       		.byte	0
 10639 0196 00       		.byte	0
 10640 0197 1D       		.uleb128 0x1d
 10641 0198 34       		.uleb128 0x34
 10642 0199 00       		.byte	0
 10643 019a 03       		.uleb128 0x3
 10644 019b 0E       		.uleb128 0xe
 10645 019c 3A       		.uleb128 0x3a
ARM GAS  C:\Users\Steve\AppData\Local\Temp\ccroCuoh.s 			page 205


 10646 019d 0B       		.uleb128 0xb
 10647 019e 3B       		.uleb128 0x3b
 10648 019f 05       		.uleb128 0x5
 10649 01a0 49       		.uleb128 0x49
 10650 01a1 13       		.uleb128 0x13
 10651 01a2 02       		.uleb128 0x2
 10652 01a3 0A       		.uleb128 0xa
 10653 01a4 00       		.byte	0
 10654 01a5 00       		.byte	0
 10655 01a6 1E       		.uleb128 0x1e
 10656 01a7 34       		.uleb128 0x34
 10657 01a8 00       		.byte	0
 10658 01a9 03       		.uleb128 0x3
 10659 01aa 0E       		.uleb128 0xe
 10660 01ab 3A       		.uleb128 0x3a
 10661 01ac 0B       		.uleb128 0xb
 10662 01ad 3B       		.uleb128 0x3b
 10663 01ae 05       		.uleb128 0x5
 10664 01af 49       		.uleb128 0x49
 10665 01b0 13       		.uleb128 0x13
 10666 01b1 1C       		.uleb128 0x1c
 10667 01b2 0B       		.uleb128 0xb
 10668 01b3 00       		.byte	0
 10669 01b4 00       		.byte	0
 10670 01b5 1F       		.uleb128 0x1f
 10671 01b6 2E       		.uleb128 0x2e
 10672 01b7 01       		.byte	0x1
 10673 01b8 3F       		.uleb128 0x3f
 10674 01b9 0C       		.uleb128 0xc
 10675 01ba 03       		.uleb128 0x3
 10676 01bb 0E       		.uleb128 0xe
 10677 01bc 3A       		.uleb128 0x3a
 10678 01bd 0B       		.uleb128 0xb
 10679 01be 3B       		.uleb128 0x3b
 10680 01bf 05       		.uleb128 0x5
 10681 01c0 27       		.uleb128 0x27
 10682 01c1 0C       		.uleb128 0xc
 10683 01c2 49       		.uleb128 0x49
 10684 01c3 13       		.uleb128 0x13
 10685 01c4 11       		.uleb128 0x11
 10686 01c5 01       		.uleb128 0x1
 10687 01c6 12       		.uleb128 0x12
 10688 01c7 01       		.uleb128 0x1
 10689 01c8 40       		.uleb128 0x40
 10690 01c9 06       		.uleb128 0x6
 10691 01ca 9742     		.uleb128 0x2117
 10692 01cc 0C       		.uleb128 0xc
 10693 01cd 01       		.uleb128 0x1
 10694 01ce 13       		.uleb128 0x13
 10695 01cf 00       		.byte	0
 10696 01d0 00       		.byte	0
 10697 01d1 20       		.uleb128 0x20
 10698 01d2 2E       		.uleb128 0x2e
 10699 01d3 01       		.byte	0x1
 10700 01d4 3F       		.uleb128 0x3f
 10701 01d5 0C       		.uleb128 0xc
 10702 01d6 03       		.uleb128 0x3
ARM GAS  C:\Users\Steve\AppData\Local\Temp\ccroCuoh.s 			page 206


 10703 01d7 0E       		.uleb128 0xe
 10704 01d8 3A       		.uleb128 0x3a
 10705 01d9 0B       		.uleb128 0xb
 10706 01da 3B       		.uleb128 0x3b
 10707 01db 05       		.uleb128 0x5
 10708 01dc 27       		.uleb128 0x27
 10709 01dd 0C       		.uleb128 0xc
 10710 01de 49       		.uleb128 0x49
 10711 01df 13       		.uleb128 0x13
 10712 01e0 11       		.uleb128 0x11
 10713 01e1 01       		.uleb128 0x1
 10714 01e2 12       		.uleb128 0x12
 10715 01e3 01       		.uleb128 0x1
 10716 01e4 40       		.uleb128 0x40
 10717 01e5 06       		.uleb128 0x6
 10718 01e6 9742     		.uleb128 0x2117
 10719 01e8 0C       		.uleb128 0xc
 10720 01e9 00       		.byte	0
 10721 01ea 00       		.byte	0
 10722 01eb 00       		.byte	0
 10723              		.section	.debug_loc,"",%progbits
 10724              	.Ldebug_loc0:
 10725              	.LLST0:
 10726 0000 00000000 		.4byte	.LFB34
 10727 0004 02000000 		.4byte	.LCFI0
 10728 0008 0200     		.2byte	0x2
 10729 000a 7D       		.byte	0x7d
 10730 000b 00       		.sleb128 0
 10731 000c 02000000 		.4byte	.LCFI0
 10732 0010 78000000 		.4byte	.LFE34
 10733 0014 0200     		.2byte	0x2
 10734 0016 7D       		.byte	0x7d
 10735 0017 08       		.sleb128 8
 10736 0018 00000000 		.4byte	0
 10737 001c 00000000 		.4byte	0
 10738              	.LLST1:
 10739 0020 00000000 		.4byte	.LVL0
 10740 0024 12000000 		.4byte	.LVL2
 10741 0028 0100     		.2byte	0x1
 10742 002a 50       		.byte	0x50
 10743 002b 12000000 		.4byte	.LVL2
 10744 002f 78000000 		.4byte	.LFE34
 10745 0033 0400     		.2byte	0x4
 10746 0035 F3       		.byte	0xf3
 10747 0036 01       		.uleb128 0x1
 10748 0037 50       		.byte	0x50
 10749 0038 9F       		.byte	0x9f
 10750 0039 00000000 		.4byte	0
 10751 003d 00000000 		.4byte	0
 10752              	.LLST2:
 10753 0041 00000000 		.4byte	.LVL0
 10754 0045 08000000 		.4byte	.LVL1
 10755 0049 0100     		.2byte	0x1
 10756 004b 51       		.byte	0x51
 10757 004c 08000000 		.4byte	.LVL1
 10758 0050 78000000 		.4byte	.LFE34
 10759 0054 0400     		.2byte	0x4
ARM GAS  C:\Users\Steve\AppData\Local\Temp\ccroCuoh.s 			page 207


 10760 0056 F3       		.byte	0xf3
 10761 0057 01       		.uleb128 0x1
 10762 0058 51       		.byte	0x51
 10763 0059 9F       		.byte	0x9f
 10764 005a 00000000 		.4byte	0
 10765 005e 00000000 		.4byte	0
 10766              	.LLST3:
 10767 0062 00000000 		.4byte	.LVL0
 10768 0066 18000000 		.4byte	.LVL3
 10769 006a 0100     		.2byte	0x1
 10770 006c 52       		.byte	0x52
 10771 006d 18000000 		.4byte	.LVL3
 10772 0071 78000000 		.4byte	.LFE34
 10773 0075 0400     		.2byte	0x4
 10774 0077 F3       		.byte	0xf3
 10775 0078 01       		.uleb128 0x1
 10776 0079 52       		.byte	0x52
 10777 007a 9F       		.byte	0x9f
 10778 007b 00000000 		.4byte	0
 10779 007f 00000000 		.4byte	0
 10780              	.LLST4:
 10781 0083 00000000 		.4byte	.LVL0
 10782 0087 32000000 		.4byte	.LVL4
 10783 008b 0200     		.2byte	0x2
 10784 008d 30       		.byte	0x30
 10785 008e 9F       		.byte	0x9f
 10786 008f 32000000 		.4byte	.LVL4
 10787 0093 44000000 		.4byte	.LVL5
 10788 0097 0200     		.2byte	0x2
 10789 0099 31       		.byte	0x31
 10790 009a 9F       		.byte	0x9f
 10791 009b 44000000 		.4byte	.LVL5
 10792 009f 56000000 		.4byte	.LVL6
 10793 00a3 0200     		.2byte	0x2
 10794 00a5 32       		.byte	0x32
 10795 00a6 9F       		.byte	0x9f
 10796 00a7 56000000 		.4byte	.LVL6
 10797 00ab 68000000 		.4byte	.LVL7
 10798 00af 0200     		.2byte	0x2
 10799 00b1 33       		.byte	0x33
 10800 00b2 9F       		.byte	0x9f
 10801 00b3 68000000 		.4byte	.LVL7
 10802 00b7 76000000 		.4byte	.LVL8
 10803 00bb 0200     		.2byte	0x2
 10804 00bd 34       		.byte	0x34
 10805 00be 9F       		.byte	0x9f
 10806 00bf 76000000 		.4byte	.LVL8
 10807 00c3 78000000 		.4byte	.LFE34
 10808 00c7 0200     		.2byte	0x2
 10809 00c9 35       		.byte	0x35
 10810 00ca 9F       		.byte	0x9f
 10811 00cb 00000000 		.4byte	0
 10812 00cf 00000000 		.4byte	0
 10813              	.LLST5:
 10814 00d3 00000000 		.4byte	.LVL0
 10815 00d7 08000000 		.4byte	.LVL1
 10816 00db 0A00     		.2byte	0xa
ARM GAS  C:\Users\Steve\AppData\Local\Temp\ccroCuoh.s 			page 208


 10817 00dd 71       		.byte	0x71
 10818 00de 00       		.sleb128 0
 10819 00df 32       		.byte	0x32
 10820 00e0 24       		.byte	0x24
 10821 00e1 70       		.byte	0x70
 10822 00e2 00       		.sleb128 0
 10823 00e3 33       		.byte	0x33
 10824 00e4 25       		.byte	0x25
 10825 00e5 22       		.byte	0x22
 10826 00e6 9F       		.byte	0x9f
 10827 00e7 00000000 		.4byte	0
 10828 00eb 00000000 		.4byte	0
 10829              	.LLST6:
 10830 00ef 00000000 		.4byte	.LVL0
 10831 00f3 08000000 		.4byte	.LVL1
 10832 00f7 0500     		.2byte	0x5
 10833 00f9 71       		.byte	0x71
 10834 00fa 00       		.sleb128 0
 10835 00fb 32       		.byte	0x32
 10836 00fc 24       		.byte	0x24
 10837 00fd 9F       		.byte	0x9f
 10838 00fe 00000000 		.4byte	0
 10839 0102 00000000 		.4byte	0
 10840              	.LLST7:
 10841 0106 00000000 		.4byte	.LVL0
 10842 010a 12000000 		.4byte	.LVL2
 10843 010e 0500     		.2byte	0x5
 10844 0110 70       		.byte	0x70
 10845 0111 00       		.sleb128 0
 10846 0112 33       		.byte	0x33
 10847 0113 25       		.byte	0x25
 10848 0114 9F       		.byte	0x9f
 10849 0115 00000000 		.4byte	0
 10850 0119 00000000 		.4byte	0
 10851              	.LLST8:
 10852 011d 00000000 		.4byte	.LVL0
 10853 0121 12000000 		.4byte	.LVL2
 10854 0125 0500     		.2byte	0x5
 10855 0127 70       		.byte	0x70
 10856 0128 00       		.sleb128 0
 10857 0129 37       		.byte	0x37
 10858 012a 1A       		.byte	0x1a
 10859 012b 9F       		.byte	0x9f
 10860 012c 00000000 		.4byte	0
 10861 0130 00000000 		.4byte	0
 10862              	.LLST9:
 10863 0134 00000000 		.4byte	.LFB33
 10864 0138 02000000 		.4byte	.LCFI1
 10865 013c 0200     		.2byte	0x2
 10866 013e 7D       		.byte	0x7d
 10867 013f 00       		.sleb128 0
 10868 0140 02000000 		.4byte	.LCFI1
 10869 0144 06000000 		.4byte	.LCFI2
 10870 0148 0200     		.2byte	0x2
 10871 014a 7D       		.byte	0x7d
 10872 014b 14       		.sleb128 20
 10873 014c 06000000 		.4byte	.LCFI2
ARM GAS  C:\Users\Steve\AppData\Local\Temp\ccroCuoh.s 			page 209


 10874 0150 F6000000 		.4byte	.LFE33
 10875 0154 0200     		.2byte	0x2
 10876 0156 7D       		.byte	0x7d
 10877 0157 20       		.sleb128 32
 10878 0158 00000000 		.4byte	0
 10879 015c 00000000 		.4byte	0
 10880              	.LLST10:
 10881 0160 00000000 		.4byte	.LVL9
 10882 0164 15000000 		.4byte	.LVL13-1
 10883 0168 0100     		.2byte	0x1
 10884 016a 50       		.byte	0x50
 10885 016b 15000000 		.4byte	.LVL13-1
 10886 016f F6000000 		.4byte	.LFE33
 10887 0173 0400     		.2byte	0x4
 10888 0175 F3       		.byte	0xf3
 10889 0176 01       		.uleb128 0x1
 10890 0177 50       		.byte	0x50
 10891 0178 9F       		.byte	0x9f
 10892 0179 00000000 		.4byte	0
 10893 017d 00000000 		.4byte	0
 10894              	.LLST11:
 10895 0181 00000000 		.4byte	.LVL9
 10896 0185 0C000000 		.4byte	.LVL11
 10897 0189 0100     		.2byte	0x1
 10898 018b 51       		.byte	0x51
 10899 018c 0C000000 		.4byte	.LVL11
 10900 0190 24000000 		.4byte	.LVL15
 10901 0194 0100     		.2byte	0x1
 10902 0196 57       		.byte	0x57
 10903 0197 24000000 		.4byte	.LVL15
 10904 019b F6000000 		.4byte	.LFE33
 10905 019f 0400     		.2byte	0x4
 10906 01a1 F3       		.byte	0xf3
 10907 01a2 01       		.uleb128 0x1
 10908 01a3 51       		.byte	0x51
 10909 01a4 9F       		.byte	0x9f
 10910 01a5 00000000 		.4byte	0
 10911 01a9 00000000 		.4byte	0
 10912              	.LLST12:
 10913 01ad 00000000 		.4byte	.LVL9
 10914 01b1 15000000 		.4byte	.LVL13-1
 10915 01b5 0100     		.2byte	0x1
 10916 01b7 53       		.byte	0x53
 10917 01b8 15000000 		.4byte	.LVL13-1
 10918 01bc 36000000 		.4byte	.LVL16
 10919 01c0 0100     		.2byte	0x1
 10920 01c2 56       		.byte	0x56
 10921 01c3 36000000 		.4byte	.LVL16
 10922 01c7 F6000000 		.4byte	.LFE33
 10923 01cb 0400     		.2byte	0x4
 10924 01cd F3       		.byte	0xf3
 10925 01ce 01       		.uleb128 0x1
 10926 01cf 53       		.byte	0x53
 10927 01d0 9F       		.byte	0x9f
 10928 01d1 00000000 		.4byte	0
 10929 01d5 00000000 		.4byte	0
 10930              	.LLST13:
ARM GAS  C:\Users\Steve\AppData\Local\Temp\ccroCuoh.s 			page 210


 10931 01d9 00000000 		.4byte	.LVL9
 10932 01dd 60000000 		.4byte	.LVL17
 10933 01e1 0200     		.2byte	0x2
 10934 01e3 30       		.byte	0x30
 10935 01e4 9F       		.byte	0x9f
 10936 01e5 60000000 		.4byte	.LVL17
 10937 01e9 84000000 		.4byte	.LVL18
 10938 01ed 0200     		.2byte	0x2
 10939 01ef 31       		.byte	0x31
 10940 01f0 9F       		.byte	0x9f
 10941 01f1 84000000 		.4byte	.LVL18
 10942 01f5 A8000000 		.4byte	.LVL19
 10943 01f9 0200     		.2byte	0x2
 10944 01fb 32       		.byte	0x32
 10945 01fc 9F       		.byte	0x9f
 10946 01fd A8000000 		.4byte	.LVL19
 10947 0201 DC000000 		.4byte	.LVL20
 10948 0205 0200     		.2byte	0x2
 10949 0207 33       		.byte	0x33
 10950 0208 9F       		.byte	0x9f
 10951 0209 DC000000 		.4byte	.LVL20
 10952 020d F2000000 		.4byte	.LVL21
 10953 0211 0200     		.2byte	0x2
 10954 0213 34       		.byte	0x34
 10955 0214 9F       		.byte	0x9f
 10956 0215 F2000000 		.4byte	.LVL21
 10957 0219 F6000000 		.4byte	.LFE33
 10958 021d 0200     		.2byte	0x2
 10959 021f 35       		.byte	0x35
 10960 0220 9F       		.byte	0x9f
 10961 0221 00000000 		.4byte	0
 10962 0225 00000000 		.4byte	0
 10963              	.LLST14:
 10964 0229 04000000 		.4byte	.LVL10
 10965 022d 10000000 		.4byte	.LVL12
 10966 0231 0A00     		.2byte	0xa
 10967 0233 77       		.byte	0x77
 10968 0234 00       		.sleb128 0
 10969 0235 32       		.byte	0x32
 10970 0236 24       		.byte	0x24
 10971 0237 70       		.byte	0x70
 10972 0238 00       		.sleb128 0
 10973 0239 38       		.byte	0x38
 10974 023a 1B       		.byte	0x1b
 10975 023b 22       		.byte	0x22
 10976 023c 9F       		.byte	0x9f
 10977 023d 10000000 		.4byte	.LVL12
 10978 0241 1C000000 		.4byte	.LVL14
 10979 0245 0A00     		.2byte	0xa
 10980 0247 77       		.byte	0x77
 10981 0248 00       		.sleb128 0
 10982 0249 32       		.byte	0x32
 10983 024a 24       		.byte	0x24
 10984 024b 74       		.byte	0x74
 10985 024c 00       		.sleb128 0
 10986 024d 38       		.byte	0x38
 10987 024e 1B       		.byte	0x1b
ARM GAS  C:\Users\Steve\AppData\Local\Temp\ccroCuoh.s 			page 211


 10988 024f 22       		.byte	0x22
 10989 0250 9F       		.byte	0x9f
 10990 0251 00000000 		.4byte	0
 10991 0255 00000000 		.4byte	0
 10992              	.LLST15:
 10993 0259 04000000 		.4byte	.LVL10
 10994 025d 24000000 		.4byte	.LVL15
 10995 0261 0500     		.2byte	0x5
 10996 0263 77       		.byte	0x77
 10997 0264 00       		.sleb128 0
 10998 0265 32       		.byte	0x32
 10999 0266 24       		.byte	0x24
 11000 0267 9F       		.byte	0x9f
 11001 0268 24000000 		.4byte	.LVL15
 11002 026c F6000000 		.4byte	.LFE33
 11003 0270 0600     		.2byte	0x6
 11004 0272 F3       		.byte	0xf3
 11005 0273 01       		.uleb128 0x1
 11006 0274 51       		.byte	0x51
 11007 0275 32       		.byte	0x32
 11008 0276 24       		.byte	0x24
 11009 0277 9F       		.byte	0x9f
 11010 0278 00000000 		.4byte	0
 11011 027c 00000000 		.4byte	0
 11012              	.LLST16:
 11013 0280 04000000 		.4byte	.LVL10
 11014 0284 10000000 		.4byte	.LVL12
 11015 0288 0500     		.2byte	0x5
 11016 028a 70       		.byte	0x70
 11017 028b 00       		.sleb128 0
 11018 028c 38       		.byte	0x38
 11019 028d 1B       		.byte	0x1b
 11020 028e 9F       		.byte	0x9f
 11021 028f 10000000 		.4byte	.LVL12
 11022 0293 1C000000 		.4byte	.LVL14
 11023 0297 0500     		.2byte	0x5
 11024 0299 74       		.byte	0x74
 11025 029a 00       		.sleb128 0
 11026 029b 38       		.byte	0x38
 11027 029c 1B       		.byte	0x1b
 11028 029d 9F       		.byte	0x9f
 11029 029e 00000000 		.4byte	0
 11030 02a2 00000000 		.4byte	0
 11031              	.LLST17:
 11032 02a6 04000000 		.4byte	.LVL10
 11033 02aa 10000000 		.4byte	.LVL12
 11034 02ae 0900     		.2byte	0x9
 11035 02b0 70       		.byte	0x70
 11036 02b1 00       		.sleb128 0
 11037 02b2 38       		.byte	0x38
 11038 02b3 14       		.byte	0x14
 11039 02b4 14       		.byte	0x14
 11040 02b5 1B       		.byte	0x1b
 11041 02b6 1E       		.byte	0x1e
 11042 02b7 1C       		.byte	0x1c
 11043 02b8 9F       		.byte	0x9f
 11044 02b9 10000000 		.4byte	.LVL12
ARM GAS  C:\Users\Steve\AppData\Local\Temp\ccroCuoh.s 			page 212


 11045 02bd 1C000000 		.4byte	.LVL14
 11046 02c1 0900     		.2byte	0x9
 11047 02c3 74       		.byte	0x74
 11048 02c4 00       		.sleb128 0
 11049 02c5 38       		.byte	0x38
 11050 02c6 14       		.byte	0x14
 11051 02c7 14       		.byte	0x14
 11052 02c8 1B       		.byte	0x1b
 11053 02c9 1E       		.byte	0x1e
 11054 02ca 1C       		.byte	0x1c
 11055 02cb 9F       		.byte	0x9f
 11056 02cc 00000000 		.4byte	0
 11057 02d0 00000000 		.4byte	0
 11058              	.LLST18:
 11059 02d4 00000000 		.4byte	.LFB35
 11060 02d8 02000000 		.4byte	.LCFI3
 11061 02dc 0200     		.2byte	0x2
 11062 02de 7D       		.byte	0x7d
 11063 02df 00       		.sleb128 0
 11064 02e0 02000000 		.4byte	.LCFI3
 11065 02e4 4E000000 		.4byte	.LFE35
 11066 02e8 0200     		.2byte	0x2
 11067 02ea 7D       		.byte	0x7d
 11068 02eb 04       		.sleb128 4
 11069 02ec 00000000 		.4byte	0
 11070 02f0 00000000 		.4byte	0
 11071              	.LLST19:
 11072 02f4 00000000 		.4byte	.LVL22
 11073 02f8 06000000 		.4byte	.LVL23
 11074 02fc 0100     		.2byte	0x1
 11075 02fe 50       		.byte	0x50
 11076 02ff 06000000 		.4byte	.LVL23
 11077 0303 4E000000 		.4byte	.LFE35
 11078 0307 0400     		.2byte	0x4
 11079 0309 F3       		.byte	0xf3
 11080 030a 01       		.uleb128 0x1
 11081 030b 50       		.byte	0x50
 11082 030c 9F       		.byte	0x9f
 11083 030d 00000000 		.4byte	0
 11084 0311 00000000 		.4byte	0
 11085              	.LLST20:
 11086 0315 06000000 		.4byte	.LVL23
 11087 0319 10000000 		.4byte	.LVL24
 11088 031d 0200     		.2byte	0x2
 11089 031f 30       		.byte	0x30
 11090 0320 9F       		.byte	0x9f
 11091 0321 10000000 		.4byte	.LVL24
 11092 0325 16000000 		.4byte	.LVL25
 11093 0329 0200     		.2byte	0x2
 11094 032b 31       		.byte	0x31
 11095 032c 9F       		.byte	0x9f
 11096 032d 16000000 		.4byte	.LVL25
 11097 0331 1C000000 		.4byte	.LVL26
 11098 0335 0200     		.2byte	0x2
 11099 0337 32       		.byte	0x32
 11100 0338 9F       		.byte	0x9f
 11101 0339 1C000000 		.4byte	.LVL26
ARM GAS  C:\Users\Steve\AppData\Local\Temp\ccroCuoh.s 			page 213


 11102 033d 22000000 		.4byte	.LVL27
 11103 0341 0200     		.2byte	0x2
 11104 0343 33       		.byte	0x33
 11105 0344 9F       		.byte	0x9f
 11106 0345 22000000 		.4byte	.LVL27
 11107 0349 28000000 		.4byte	.LVL28
 11108 034d 0200     		.2byte	0x2
 11109 034f 34       		.byte	0x34
 11110 0350 9F       		.byte	0x9f
 11111 0351 28000000 		.4byte	.LVL28
 11112 0355 2E000000 		.4byte	.LVL29
 11113 0359 0200     		.2byte	0x2
 11114 035b 30       		.byte	0x30
 11115 035c 9F       		.byte	0x9f
 11116 035d 2E000000 		.4byte	.LVL29
 11117 0361 34000000 		.4byte	.LVL30
 11118 0365 0200     		.2byte	0x2
 11119 0367 31       		.byte	0x31
 11120 0368 9F       		.byte	0x9f
 11121 0369 34000000 		.4byte	.LVL30
 11122 036d 3A000000 		.4byte	.LVL31
 11123 0371 0200     		.2byte	0x2
 11124 0373 32       		.byte	0x32
 11125 0374 9F       		.byte	0x9f
 11126 0375 3A000000 		.4byte	.LVL31
 11127 0379 40000000 		.4byte	.LVL32
 11128 037d 0200     		.2byte	0x2
 11129 037f 33       		.byte	0x33
 11130 0380 9F       		.byte	0x9f
 11131 0381 40000000 		.4byte	.LVL32
 11132 0385 46000000 		.4byte	.LVL33
 11133 0389 0200     		.2byte	0x2
 11134 038b 34       		.byte	0x34
 11135 038c 9F       		.byte	0x9f
 11136 038d 46000000 		.4byte	.LVL33
 11137 0391 4E000000 		.4byte	.LFE35
 11138 0395 0200     		.2byte	0x2
 11139 0397 35       		.byte	0x35
 11140 0398 9F       		.byte	0x9f
 11141 0399 00000000 		.4byte	0
 11142 039d 00000000 		.4byte	0
 11143              	.LLST21:
 11144 03a1 00000000 		.4byte	.LVL22
 11145 03a5 06000000 		.4byte	.LVL23
 11146 03a9 0200     		.2byte	0x2
 11147 03ab 30       		.byte	0x30
 11148 03ac 9F       		.byte	0x9f
 11149 03ad 00000000 		.4byte	0
 11150 03b1 00000000 		.4byte	0
 11151              	.LLST22:
 11152 03b5 00000000 		.4byte	.LFB36
 11153 03b9 02000000 		.4byte	.LCFI4
 11154 03bd 0200     		.2byte	0x2
 11155 03bf 7D       		.byte	0x7d
 11156 03c0 00       		.sleb128 0
 11157 03c1 02000000 		.4byte	.LCFI4
 11158 03c5 0C000000 		.4byte	.LCFI5
ARM GAS  C:\Users\Steve\AppData\Local\Temp\ccroCuoh.s 			page 214


 11159 03c9 0200     		.2byte	0x2
 11160 03cb 7D       		.byte	0x7d
 11161 03cc 14       		.sleb128 20
 11162 03cd 0C000000 		.4byte	.LCFI5
 11163 03d1 14000000 		.4byte	.LCFI6
 11164 03d5 0200     		.2byte	0x2
 11165 03d7 7D       		.byte	0x7d
 11166 03d8 24       		.sleb128 36
 11167 03d9 14000000 		.4byte	.LCFI6
 11168 03dd 66010000 		.4byte	.LFE36
 11169 03e1 0300     		.2byte	0x3
 11170 03e3 7D       		.byte	0x7d
 11171 03e4 C000     		.sleb128 64
 11172 03e6 00000000 		.4byte	0
 11173 03ea 00000000 		.4byte	0
 11174              	.LLST23:
 11175 03ee 00000000 		.4byte	.LVL34
 11176 03f2 24000000 		.4byte	.LVL37
 11177 03f6 0100     		.2byte	0x1
 11178 03f8 50       		.byte	0x50
 11179 03f9 24000000 		.4byte	.LVL37
 11180 03fd 66010000 		.4byte	.LFE36
 11181 0401 0400     		.2byte	0x4
 11182 0403 F3       		.byte	0xf3
 11183 0404 01       		.uleb128 0x1
 11184 0405 50       		.byte	0x50
 11185 0406 9F       		.byte	0x9f
 11186 0407 00000000 		.4byte	0
 11187 040b 00000000 		.4byte	0
 11188              	.LLST24:
 11189 040f 00000000 		.4byte	.LVL34
 11190 0413 12000000 		.4byte	.LVL35
 11191 0417 0100     		.2byte	0x1
 11192 0419 51       		.byte	0x51
 11193 041a 12000000 		.4byte	.LVL35
 11194 041e 66010000 		.4byte	.LFE36
 11195 0422 0400     		.2byte	0x4
 11196 0424 F3       		.byte	0xf3
 11197 0425 01       		.uleb128 0x1
 11198 0426 51       		.byte	0x51
 11199 0427 9F       		.byte	0x9f
 11200 0428 00000000 		.4byte	0
 11201 042c 00000000 		.4byte	0
 11202              	.LLST25:
 11203 0430 00000000 		.4byte	.LVL34
 11204 0434 18000000 		.4byte	.LVL36
 11205 0438 0100     		.2byte	0x1
 11206 043a 52       		.byte	0x52
 11207 043b 18000000 		.4byte	.LVL36
 11208 043f 66010000 		.4byte	.LFE36
 11209 0443 0400     		.2byte	0x4
 11210 0445 F3       		.byte	0xf3
 11211 0446 01       		.uleb128 0x1
 11212 0447 52       		.byte	0x52
 11213 0448 9F       		.byte	0x9f
 11214 0449 00000000 		.4byte	0
 11215 044d 00000000 		.4byte	0
ARM GAS  C:\Users\Steve\AppData\Local\Temp\ccroCuoh.s 			page 215


 11216              	.LLST26:
 11217 0451 28000000 		.4byte	.LVL38
 11218 0455 2A000000 		.4byte	.LVL39
 11219 0459 0100     		.2byte	0x1
 11220 045b 50       		.byte	0x50
 11221 045c 2A000000 		.4byte	.LVL39
 11222 0460 7C000000 		.4byte	.LVL45
 11223 0464 0100     		.2byte	0x1
 11224 0466 57       		.byte	0x57
 11225 0467 98000000 		.4byte	.LVL47
 11226 046b AA000000 		.4byte	.LVL49
 11227 046f 0100     		.2byte	0x1
 11228 0471 57       		.byte	0x57
 11229 0472 AA000000 		.4byte	.LVL49
 11230 0476 AC000000 		.4byte	.LVL50
 11231 047a 0100     		.2byte	0x1
 11232 047c 51       		.byte	0x51
 11233 047d AC000000 		.4byte	.LVL50
 11234 0481 58010000 		.4byte	.LVL61
 11235 0485 0100     		.2byte	0x1
 11236 0487 57       		.byte	0x57
 11237 0488 00000000 		.4byte	0
 11238 048c 00000000 		.4byte	0
 11239              	.LLST27:
 11240 0490 28000000 		.4byte	.LVL38
 11241 0494 7C000000 		.4byte	.LVL45
 11242 0498 0200     		.2byte	0x2
 11243 049a 31       		.byte	0x31
 11244 049b 9F       		.byte	0x9f
 11245 049c 9E000000 		.4byte	.LVL48
 11246 04a0 52010000 		.4byte	.LVL59
 11247 04a4 0700     		.2byte	0x7
 11248 04a6 75       		.byte	0x75
 11249 04a7 00       		.sleb128 0
 11250 04a8 31       		.byte	0x31
 11251 04a9 24       		.byte	0x24
 11252 04aa 23       		.byte	0x23
 11253 04ab 01       		.uleb128 0x1
 11254 04ac 9F       		.byte	0x9f
 11255 04ad 52010000 		.4byte	.LVL59
 11256 04b1 54010000 		.4byte	.LVL60
 11257 04b5 0700     		.2byte	0x7
 11258 04b7 75       		.byte	0x75
 11259 04b8 7F       		.sleb128 -1
 11260 04b9 31       		.byte	0x31
 11261 04ba 24       		.byte	0x24
 11262 04bb 23       		.byte	0x23
 11263 04bc 01       		.uleb128 0x1
 11264 04bd 9F       		.byte	0x9f
 11265 04be 00000000 		.4byte	0
 11266 04c2 00000000 		.4byte	0
 11267              	.LLST28:
 11268 04c6 32000000 		.4byte	.LVL40
 11269 04ca 7C000000 		.4byte	.LVL45
 11270 04ce 0200     		.2byte	0x2
 11271 04d0 30       		.byte	0x30
 11272 04d1 9F       		.byte	0x9f
ARM GAS  C:\Users\Steve\AppData\Local\Temp\ccroCuoh.s 			page 216


 11273 04d2 9E000000 		.4byte	.LVL48
 11274 04d6 58010000 		.4byte	.LVL61
 11275 04da 0200     		.2byte	0x2
 11276 04dc 91       		.byte	0x91
 11277 04dd 4C       		.sleb128 -52
 11278 04de 00000000 		.4byte	0
 11279 04e2 00000000 		.4byte	0
 11280              	.LLST29:
 11281 04e6 32000000 		.4byte	.LVL40
 11282 04ea 7C000000 		.4byte	.LVL45
 11283 04ee 0100     		.2byte	0x1
 11284 04f0 58       		.byte	0x58
 11285 04f1 94000000 		.4byte	.LVL46
 11286 04f5 58010000 		.4byte	.LVL61
 11287 04f9 0200     		.2byte	0x2
 11288 04fb 91       		.byte	0x91
 11289 04fc 44       		.sleb128 -60
 11290 04fd 00000000 		.4byte	0
 11291 0501 00000000 		.4byte	0
 11292              	.LLST30:
 11293 0505 00000000 		.4byte	.LFB37
 11294 0509 02000000 		.4byte	.LCFI7
 11295 050d 0200     		.2byte	0x2
 11296 050f 7D       		.byte	0x7d
 11297 0510 00       		.sleb128 0
 11298 0511 02000000 		.4byte	.LCFI7
 11299 0515 0C000000 		.4byte	.LCFI8
 11300 0519 0200     		.2byte	0x2
 11301 051b 7D       		.byte	0x7d
 11302 051c 14       		.sleb128 20
 11303 051d 0C000000 		.4byte	.LCFI8
 11304 0521 1C000000 		.4byte	.LCFI9
 11305 0525 0200     		.2byte	0x2
 11306 0527 7D       		.byte	0x7d
 11307 0528 24       		.sleb128 36
 11308 0529 1C000000 		.4byte	.LCFI9
 11309 052d 76010000 		.4byte	.LFE37
 11310 0531 0300     		.2byte	0x3
 11311 0533 7D       		.byte	0x7d
 11312 0534 C000     		.sleb128 64
 11313 0536 00000000 		.4byte	0
 11314 053a 00000000 		.4byte	0
 11315              	.LLST31:
 11316 053e 00000000 		.4byte	.LVL62
 11317 0542 4E000000 		.4byte	.LVL66
 11318 0546 0100     		.2byte	0x1
 11319 0548 50       		.byte	0x50
 11320 0549 4E000000 		.4byte	.LVL66
 11321 054d 68010000 		.4byte	.LVL87
 11322 0551 0100     		.2byte	0x1
 11323 0553 59       		.byte	0x59
 11324 0554 68010000 		.4byte	.LVL87
 11325 0558 76010000 		.4byte	.LFE37
 11326 055c 0400     		.2byte	0x4
 11327 055e F3       		.byte	0xf3
 11328 055f 01       		.uleb128 0x1
 11329 0560 50       		.byte	0x50
ARM GAS  C:\Users\Steve\AppData\Local\Temp\ccroCuoh.s 			page 217


 11330 0561 9F       		.byte	0x9f
 11331 0562 00000000 		.4byte	0
 11332 0566 00000000 		.4byte	0
 11333              	.LLST32:
 11334 056a 00000000 		.4byte	.LVL62
 11335 056e 4E000000 		.4byte	.LVL66
 11336 0572 0100     		.2byte	0x1
 11337 0574 51       		.byte	0x51
 11338 0575 4E000000 		.4byte	.LVL66
 11339 0579 68010000 		.4byte	.LVL87
 11340 057d 0100     		.2byte	0x1
 11341 057f 58       		.byte	0x58
 11342 0580 68010000 		.4byte	.LVL87
 11343 0584 76010000 		.4byte	.LFE37
 11344 0588 0400     		.2byte	0x4
 11345 058a F3       		.byte	0xf3
 11346 058b 01       		.uleb128 0x1
 11347 058c 51       		.byte	0x51
 11348 058d 9F       		.byte	0x9f
 11349 058e 00000000 		.4byte	0
 11350 0592 00000000 		.4byte	0
 11351              	.LLST33:
 11352 0596 00000000 		.4byte	.LVL62
 11353 059a 4E000000 		.4byte	.LVL66
 11354 059e 0100     		.2byte	0x1
 11355 05a0 52       		.byte	0x52
 11356 05a1 4E000000 		.4byte	.LVL66
 11357 05a5 76010000 		.4byte	.LFE37
 11358 05a9 0400     		.2byte	0x4
 11359 05ab F3       		.byte	0xf3
 11360 05ac 01       		.uleb128 0x1
 11361 05ad 52       		.byte	0x52
 11362 05ae 9F       		.byte	0x9f
 11363 05af 00000000 		.4byte	0
 11364 05b3 00000000 		.4byte	0
 11365              	.LLST34:
 11366 05b7 00000000 		.4byte	.LVL62
 11367 05bb 4E000000 		.4byte	.LVL66
 11368 05bf 0100     		.2byte	0x1
 11369 05c1 53       		.byte	0x53
 11370 05c2 4E000000 		.4byte	.LVL66
 11371 05c6 76010000 		.4byte	.LFE37
 11372 05ca 0400     		.2byte	0x4
 11373 05cc F3       		.byte	0xf3
 11374 05cd 01       		.uleb128 0x1
 11375 05ce 53       		.byte	0x53
 11376 05cf 9F       		.byte	0x9f
 11377 05d0 00000000 		.4byte	0
 11378 05d4 00000000 		.4byte	0
 11379              	.LLST35:
 11380 05d8 14000000 		.4byte	.LVL63
 11381 05dc 16000000 		.4byte	.LVL64
 11382 05e0 0100     		.2byte	0x1
 11383 05e2 56       		.byte	0x56
 11384 05e3 16000000 		.4byte	.LVL64
 11385 05e7 4E000000 		.4byte	.LVL66
 11386 05eb 0100     		.2byte	0x1
ARM GAS  C:\Users\Steve\AppData\Local\Temp\ccroCuoh.s 			page 218


 11387 05ed 55       		.byte	0x55
 11388 05ee 4E000000 		.4byte	.LVL66
 11389 05f2 50000000 		.4byte	.LVL67
 11390 05f6 0100     		.2byte	0x1
 11391 05f8 50       		.byte	0x50
 11392 05f9 50000000 		.4byte	.LVL67
 11393 05fd 6E000000 		.4byte	.LVL71
 11394 0601 0100     		.2byte	0x1
 11395 0603 55       		.byte	0x55
 11396 0604 86000000 		.4byte	.LVL73
 11397 0608 94000000 		.4byte	.LVL75
 11398 060c 0100     		.2byte	0x1
 11399 060e 55       		.byte	0x55
 11400 060f 94000000 		.4byte	.LVL75
 11401 0613 A4000000 		.4byte	.LVL76
 11402 0617 0100     		.2byte	0x1
 11403 0619 50       		.byte	0x50
 11404 061a A4000000 		.4byte	.LVL76
 11405 061e 68010000 		.4byte	.LVL87
 11406 0622 0100     		.2byte	0x1
 11407 0624 55       		.byte	0x55
 11408 0625 00000000 		.4byte	0
 11409 0629 00000000 		.4byte	0
 11410              	.LLST36:
 11411 062d 14000000 		.4byte	.LVL63
 11412 0631 4E000000 		.4byte	.LVL66
 11413 0635 0200     		.2byte	0x2
 11414 0637 31       		.byte	0x31
 11415 0638 9F       		.byte	0x9f
 11416 0639 4E000000 		.4byte	.LVL66
 11417 063d 64000000 		.4byte	.LVL69
 11418 0641 0700     		.2byte	0x7
 11419 0643 74       		.byte	0x74
 11420 0644 00       		.sleb128 0
 11421 0645 31       		.byte	0x31
 11422 0646 24       		.byte	0x24
 11423 0647 23       		.byte	0x23
 11424 0648 01       		.uleb128 0x1
 11425 0649 9F       		.byte	0x9f
 11426 064a 64000000 		.4byte	.LVL69
 11427 064e 6A000000 		.4byte	.LVL70
 11428 0652 0700     		.2byte	0x7
 11429 0654 74       		.byte	0x74
 11430 0655 7F       		.sleb128 -1
 11431 0656 31       		.byte	0x31
 11432 0657 24       		.byte	0x24
 11433 0658 23       		.byte	0x23
 11434 0659 01       		.uleb128 0x1
 11435 065a 9F       		.byte	0x9f
 11436 065b 92000000 		.4byte	.LVL74
 11437 065f 5E010000 		.4byte	.LVL85
 11438 0663 0700     		.2byte	0x7
 11439 0665 74       		.byte	0x74
 11440 0666 00       		.sleb128 0
 11441 0667 31       		.byte	0x31
 11442 0668 24       		.byte	0x24
 11443 0669 23       		.byte	0x23
ARM GAS  C:\Users\Steve\AppData\Local\Temp\ccroCuoh.s 			page 219


 11444 066a 01       		.uleb128 0x1
 11445 066b 9F       		.byte	0x9f
 11446 066c 5E010000 		.4byte	.LVL85
 11447 0670 64010000 		.4byte	.LVL86
 11448 0674 0700     		.2byte	0x7
 11449 0676 74       		.byte	0x74
 11450 0677 7F       		.sleb128 -1
 11451 0678 31       		.byte	0x31
 11452 0679 24       		.byte	0x24
 11453 067a 23       		.byte	0x23
 11454 067b 01       		.uleb128 0x1
 11455 067c 9F       		.byte	0x9f
 11456 067d 00000000 		.4byte	0
 11457 0681 00000000 		.4byte	0
 11458              	.LLST37:
 11459 0685 22000000 		.4byte	.LVL65
 11460 0689 4E000000 		.4byte	.LVL66
 11461 068d 0200     		.2byte	0x2
 11462 068f 30       		.byte	0x30
 11463 0690 9F       		.byte	0x9f
 11464 0691 4E000000 		.4byte	.LVL66
 11465 0695 60000000 		.4byte	.LVL68
 11466 0699 0100     		.2byte	0x1
 11467 069b 54       		.byte	0x54
 11468 069c 60000000 		.4byte	.LVL68
 11469 06a0 6E000000 		.4byte	.LVL71
 11470 06a4 0100     		.2byte	0x1
 11471 06a6 5A       		.byte	0x5a
 11472 06a7 92000000 		.4byte	.LVL74
 11473 06ab 5A010000 		.4byte	.LVL84
 11474 06af 0100     		.2byte	0x1
 11475 06b1 54       		.byte	0x54
 11476 06b2 5A010000 		.4byte	.LVL84
 11477 06b6 68010000 		.4byte	.LVL87
 11478 06ba 0100     		.2byte	0x1
 11479 06bc 5A       		.byte	0x5a
 11480 06bd 00000000 		.4byte	0
 11481 06c1 00000000 		.4byte	0
 11482              	.LLST38:
 11483 06c5 22000000 		.4byte	.LVL65
 11484 06c9 4E000000 		.4byte	.LVL66
 11485 06cd 0100     		.2byte	0x1
 11486 06cf 52       		.byte	0x52
 11487 06d0 4E000000 		.4byte	.LVL66
 11488 06d4 6E000000 		.4byte	.LVL71
 11489 06d8 0100     		.2byte	0x1
 11490 06da 56       		.byte	0x56
 11491 06db 82000000 		.4byte	.LVL72
 11492 06df 68010000 		.4byte	.LVL87
 11493 06e3 0100     		.2byte	0x1
 11494 06e5 56       		.byte	0x56
 11495 06e6 00000000 		.4byte	0
 11496 06ea 00000000 		.4byte	0
 11497              	.LLST39:
 11498 06ee 00000000 		.4byte	.LFB38
 11499 06f2 02000000 		.4byte	.LCFI10
 11500 06f6 0200     		.2byte	0x2
ARM GAS  C:\Users\Steve\AppData\Local\Temp\ccroCuoh.s 			page 220


 11501 06f8 7D       		.byte	0x7d
 11502 06f9 00       		.sleb128 0
 11503 06fa 02000000 		.4byte	.LCFI10
 11504 06fe 0C000000 		.4byte	.LCFI11
 11505 0702 0200     		.2byte	0x2
 11506 0704 7D       		.byte	0x7d
 11507 0705 14       		.sleb128 20
 11508 0706 0C000000 		.4byte	.LCFI11
 11509 070a 0E000000 		.4byte	.LCFI12
 11510 070e 0200     		.2byte	0x2
 11511 0710 7D       		.byte	0x7d
 11512 0711 24       		.sleb128 36
 11513 0712 0E000000 		.4byte	.LCFI12
 11514 0716 00020000 		.4byte	.LFE38
 11515 071a 0200     		.2byte	0x2
 11516 071c 7D       		.byte	0x7d
 11517 071d 30       		.sleb128 48
 11518 071e 00000000 		.4byte	0
 11519 0722 00000000 		.4byte	0
 11520              	.LLST40:
 11521 0726 00000000 		.4byte	.LVL88
 11522 072a 14000000 		.4byte	.LVL89
 11523 072e 0100     		.2byte	0x1
 11524 0730 50       		.byte	0x50
 11525 0731 14000000 		.4byte	.LVL89
 11526 0735 3E000000 		.4byte	.LVL92
 11527 0739 0400     		.2byte	0x4
 11528 073b F3       		.byte	0xf3
 11529 073c 01       		.uleb128 0x1
 11530 073d 50       		.byte	0x50
 11531 073e 9F       		.byte	0x9f
 11532 073f 3E000000 		.4byte	.LVL92
 11533 0743 A6000000 		.4byte	.LVL104
 11534 0747 0100     		.2byte	0x1
 11535 0749 54       		.byte	0x54
 11536 074a A6000000 		.4byte	.LVL104
 11537 074e A8000000 		.4byte	.LVL105
 11538 0752 0300     		.2byte	0x3
 11539 0754 74       		.byte	0x74
 11540 0755 7F       		.sleb128 -1
 11541 0756 9F       		.byte	0x9f
 11542 0757 98010000 		.4byte	.LVL124
 11543 075b A0010000 		.4byte	.LVL126
 11544 075f 0100     		.2byte	0x1
 11545 0761 54       		.byte	0x54
 11546 0762 A0010000 		.4byte	.LVL126
 11547 0766 A6010000 		.4byte	.LVL129
 11548 076a 0100     		.2byte	0x1
 11549 076c 50       		.byte	0x50
 11550 076d A6010000 		.4byte	.LVL129
 11551 0771 B0010000 		.4byte	.LVL131
 11552 0775 0400     		.2byte	0x4
 11553 0777 F3       		.byte	0xf3
 11554 0778 01       		.uleb128 0x1
 11555 0779 50       		.byte	0x50
 11556 077a 9F       		.byte	0x9f
 11557 077b B0010000 		.4byte	.LVL131
ARM GAS  C:\Users\Steve\AppData\Local\Temp\ccroCuoh.s 			page 221


 11558 077f D8010000 		.4byte	.LVL137
 11559 0783 0100     		.2byte	0x1
 11560 0785 54       		.byte	0x54
 11561 0786 00000000 		.4byte	0
 11562 078a 00000000 		.4byte	0
 11563              	.LLST41:
 11564 078e 00000000 		.4byte	.LVL88
 11565 0792 2A000000 		.4byte	.LVL90
 11566 0796 0100     		.2byte	0x1
 11567 0798 51       		.byte	0x51
 11568 0799 2A000000 		.4byte	.LVL90
 11569 079d 3E000000 		.4byte	.LVL92
 11570 07a1 0400     		.2byte	0x4
 11571 07a3 F3       		.byte	0xf3
 11572 07a4 01       		.uleb128 0x1
 11573 07a5 51       		.byte	0x51
 11574 07a6 9F       		.byte	0x9f
 11575 07a7 3E000000 		.4byte	.LVL92
 11576 07ab DE000000 		.4byte	.LVL108
 11577 07af 0100     		.2byte	0x1
 11578 07b1 55       		.byte	0x55
 11579 07b2 00010000 		.4byte	.LVL112
 11580 07b6 08010000 		.4byte	.LVL113
 11581 07ba 0100     		.2byte	0x1
 11582 07bc 55       		.byte	0x55
 11583 07bd 22010000 		.4byte	.LVL115
 11584 07c1 2A010000 		.4byte	.LVL116
 11585 07c5 0100     		.2byte	0x1
 11586 07c7 55       		.byte	0x55
 11587 07c8 54010000 		.4byte	.LVL118
 11588 07cc 5C010000 		.4byte	.LVL119
 11589 07d0 0100     		.2byte	0x1
 11590 07d2 55       		.byte	0x55
 11591 07d3 84010000 		.4byte	.LVL121
 11592 07d7 8A010000 		.4byte	.LVL122
 11593 07db 0100     		.2byte	0x1
 11594 07dd 55       		.byte	0x55
 11595 07de 98010000 		.4byte	.LVL124
 11596 07e2 9E010000 		.4byte	.LVL125
 11597 07e6 0100     		.2byte	0x1
 11598 07e8 55       		.byte	0x55
 11599 07e9 9E010000 		.4byte	.LVL125
 11600 07ed A6010000 		.4byte	.LVL129
 11601 07f1 0100     		.2byte	0x1
 11602 07f3 56       		.byte	0x56
 11603 07f4 A6010000 		.4byte	.LVL129
 11604 07f8 B0010000 		.4byte	.LVL131
 11605 07fc 0400     		.2byte	0x4
 11606 07fe F3       		.byte	0xf3
 11607 07ff 01       		.uleb128 0x1
 11608 0800 51       		.byte	0x51
 11609 0801 9F       		.byte	0x9f
 11610 0802 B0010000 		.4byte	.LVL131
 11611 0806 D2010000 		.4byte	.LVL135
 11612 080a 0100     		.2byte	0x1
 11613 080c 55       		.byte	0x55
 11614 080d D4010000 		.4byte	.LVL136
ARM GAS  C:\Users\Steve\AppData\Local\Temp\ccroCuoh.s 			page 222


 11615 0811 FA010000 		.4byte	.LVL139
 11616 0815 0100     		.2byte	0x1
 11617 0817 55       		.byte	0x55
 11618 0818 FC010000 		.4byte	.LVL140
 11619 081c 00020000 		.4byte	.LFE38
 11620 0820 0100     		.2byte	0x1
 11621 0822 55       		.byte	0x55
 11622 0823 00000000 		.4byte	0
 11623 0827 00000000 		.4byte	0
 11624              	.LLST42:
 11625 082b 00000000 		.4byte	.LVL88
 11626 082f 3E000000 		.4byte	.LVL92
 11627 0833 0100     		.2byte	0x1
 11628 0835 52       		.byte	0x52
 11629 0836 3E000000 		.4byte	.LVL92
 11630 083a E2000000 		.4byte	.LVL109
 11631 083e 0100     		.2byte	0x1
 11632 0840 57       		.byte	0x57
 11633 0841 E2000000 		.4byte	.LVL109
 11634 0845 E6000000 		.4byte	.LVL110
 11635 0849 0100     		.2byte	0x1
 11636 084b 51       		.byte	0x51
 11637 084c E6000000 		.4byte	.LVL110
 11638 0850 8A010000 		.4byte	.LVL122
 11639 0854 0100     		.2byte	0x1
 11640 0856 59       		.byte	0x59
 11641 0857 98010000 		.4byte	.LVL124
 11642 085b A4010000 		.4byte	.LVL128
 11643 085f 0100     		.2byte	0x1
 11644 0861 57       		.byte	0x57
 11645 0862 A4010000 		.4byte	.LVL128
 11646 0866 A6010000 		.4byte	.LVL129
 11647 086a 0100     		.2byte	0x1
 11648 086c 54       		.byte	0x54
 11649 086d A6010000 		.4byte	.LVL129
 11650 0871 AC010000 		.4byte	.LVL130
 11651 0875 0100     		.2byte	0x1
 11652 0877 52       		.byte	0x52
 11653 0878 AC010000 		.4byte	.LVL130
 11654 087c B0010000 		.4byte	.LVL131
 11655 0880 0400     		.2byte	0x4
 11656 0882 F3       		.byte	0xf3
 11657 0883 01       		.uleb128 0x1
 11658 0884 52       		.byte	0x52
 11659 0885 9F       		.byte	0x9f
 11660 0886 B0010000 		.4byte	.LVL131
 11661 088a 00020000 		.4byte	.LFE38
 11662 088e 0100     		.2byte	0x1
 11663 0890 57       		.byte	0x57
 11664 0891 00000000 		.4byte	0
 11665 0895 00000000 		.4byte	0
 11666              	.LLST43:
 11667 0899 00000000 		.4byte	.LVL88
 11668 089d 3C000000 		.4byte	.LVL91
 11669 08a1 0100     		.2byte	0x1
 11670 08a3 53       		.byte	0x53
 11671 08a4 3C000000 		.4byte	.LVL91
ARM GAS  C:\Users\Steve\AppData\Local\Temp\ccroCuoh.s 			page 223


 11672 08a8 3E000000 		.4byte	.LVL92
 11673 08ac 0400     		.2byte	0x4
 11674 08ae F3       		.byte	0xf3
 11675 08af 01       		.uleb128 0x1
 11676 08b0 53       		.byte	0x53
 11677 08b1 9F       		.byte	0x9f
 11678 08b2 3E000000 		.4byte	.LVL92
 11679 08b6 6C000000 		.4byte	.LVL98
 11680 08ba 0100     		.2byte	0x1
 11681 08bc 53       		.byte	0x53
 11682 08bd 98010000 		.4byte	.LVL124
 11683 08c1 A2010000 		.4byte	.LVL127
 11684 08c5 0100     		.2byte	0x1
 11685 08c7 53       		.byte	0x53
 11686 08c8 A2010000 		.4byte	.LVL127
 11687 08cc A6010000 		.4byte	.LVL129
 11688 08d0 0100     		.2byte	0x1
 11689 08d2 55       		.byte	0x55
 11690 08d3 A6010000 		.4byte	.LVL129
 11691 08d7 B0010000 		.4byte	.LVL131
 11692 08db 0100     		.2byte	0x1
 11693 08dd 53       		.byte	0x53
 11694 08de 00000000 		.4byte	0
 11695 08e2 00000000 		.4byte	0
 11696              	.LLST44:
 11697 08e6 56000000 		.4byte	.LVL94
 11698 08ea 5E000000 		.4byte	.LVL96
 11699 08ee 0100     		.2byte	0x1
 11700 08f0 56       		.byte	0x56
 11701 08f1 5E000000 		.4byte	.LVL96
 11702 08f5 8C010000 		.4byte	.LVL123
 11703 08f9 0100     		.2byte	0x1
 11704 08fb 5B       		.byte	0x5b
 11705 08fc B0010000 		.4byte	.LVL131
 11706 0900 00020000 		.4byte	.LFE38
 11707 0904 0100     		.2byte	0x1
 11708 0906 5B       		.byte	0x5b
 11709 0907 00000000 		.4byte	0
 11710 090b 00000000 		.4byte	0
 11711              	.LLST45:
 11712 090f 5A000000 		.4byte	.LVL95
 11713 0913 7A000000 		.4byte	.LVL100
 11714 0917 0100     		.2byte	0x1
 11715 0919 52       		.byte	0x52
 11716 091a 00000000 		.4byte	0
 11717 091e 00000000 		.4byte	0
 11718              	.LLST46:
 11719 0922 64000000 		.4byte	.LVL97
 11720 0926 6E000000 		.4byte	.LVL99
 11721 092a 0100     		.2byte	0x1
 11722 092c 50       		.byte	0x50
 11723 092d 6E000000 		.4byte	.LVL99
 11724 0931 98000000 		.4byte	.LVL102
 11725 0935 0100     		.2byte	0x1
 11726 0937 56       		.byte	0x56
 11727 0938 98000000 		.4byte	.LVL102
 11728 093c A4000000 		.4byte	.LVL103
ARM GAS  C:\Users\Steve\AppData\Local\Temp\ccroCuoh.s 			page 224


 11729 0940 1200     		.2byte	0x12
 11730 0942 7B       		.byte	0x7b
 11731 0943 00       		.sleb128 0
 11732 0944 48       		.byte	0x48
 11733 0945 24       		.byte	0x24
 11734 0946 48       		.byte	0x48
 11735 0947 26       		.byte	0x26
 11736 0948 4F       		.byte	0x4f
 11737 0949 25       		.byte	0x25
 11738 094a 7B       		.byte	0x7b
 11739 094b 00       		.sleb128 0
 11740 094c 48       		.byte	0x48
 11741 094d 24       		.byte	0x24
 11742 094e 48       		.byte	0x48
 11743 094f 26       		.byte	0x26
 11744 0950 22       		.byte	0x22
 11745 0951 31       		.byte	0x31
 11746 0952 26       		.byte	0x26
 11747 0953 9F       		.byte	0x9f
 11748 0954 B0010000 		.4byte	.LVL131
 11749 0958 C0010000 		.4byte	.LVL133
 11750 095c 0100     		.2byte	0x1
 11751 095e 56       		.byte	0x56
 11752 095f C0010000 		.4byte	.LVL133
 11753 0963 CC010000 		.4byte	.LVL134
 11754 0967 1200     		.2byte	0x12
 11755 0969 7B       		.byte	0x7b
 11756 096a 00       		.sleb128 0
 11757 096b 48       		.byte	0x48
 11758 096c 24       		.byte	0x24
 11759 096d 48       		.byte	0x48
 11760 096e 26       		.byte	0x26
 11761 096f 4F       		.byte	0x4f
 11762 0970 25       		.byte	0x25
 11763 0971 7B       		.byte	0x7b
 11764 0972 00       		.sleb128 0
 11765 0973 48       		.byte	0x48
 11766 0974 24       		.byte	0x24
 11767 0975 48       		.byte	0x48
 11768 0976 26       		.byte	0x26
 11769 0977 22       		.byte	0x22
 11770 0978 31       		.byte	0x31
 11771 0979 26       		.byte	0x26
 11772 097a 9F       		.byte	0x9f
 11773 097b 00000000 		.4byte	0
 11774 097f 00000000 		.4byte	0
 11775              	.LLST47:
 11776 0983 6E000000 		.4byte	.LVL99
 11777 0987 A8000000 		.4byte	.LVL105
 11778 098b 0200     		.2byte	0x2
 11779 098d 7D       		.byte	0x7d
 11780 098e 00       		.sleb128 0
 11781 098f B0010000 		.4byte	.LVL131
 11782 0993 D8010000 		.4byte	.LVL137
 11783 0997 0200     		.2byte	0x2
 11784 0999 7D       		.byte	0x7d
 11785 099a 00       		.sleb128 0
ARM GAS  C:\Users\Steve\AppData\Local\Temp\ccroCuoh.s 			page 225


 11786 099b 00000000 		.4byte	0
 11787 099f 00000000 		.4byte	0
 11788              	.LLST48:
 11789 09a3 00000000 		.4byte	.LFB40
 11790 09a7 02000000 		.4byte	.LCFI13
 11791 09ab 0200     		.2byte	0x2
 11792 09ad 7D       		.byte	0x7d
 11793 09ae 00       		.sleb128 0
 11794 09af 02000000 		.4byte	.LCFI13
 11795 09b3 04000000 		.4byte	.LCFI14
 11796 09b7 0200     		.2byte	0x2
 11797 09b9 7D       		.byte	0x7d
 11798 09ba 10       		.sleb128 16
 11799 09bb 04000000 		.4byte	.LCFI14
 11800 09bf 24000000 		.4byte	.LFE40
 11801 09c3 0200     		.2byte	0x2
 11802 09c5 7D       		.byte	0x7d
 11803 09c6 20       		.sleb128 32
 11804 09c7 00000000 		.4byte	0
 11805 09cb 00000000 		.4byte	0
 11806              	.LLST49:
 11807 09cf 00000000 		.4byte	.LVL141
 11808 09d3 0A000000 		.4byte	.LVL142
 11809 09d7 0100     		.2byte	0x1
 11810 09d9 50       		.byte	0x50
 11811 09da 0A000000 		.4byte	.LVL142
 11812 09de 24000000 		.4byte	.LFE40
 11813 09e2 0400     		.2byte	0x4
 11814 09e4 F3       		.byte	0xf3
 11815 09e5 01       		.uleb128 0x1
 11816 09e6 50       		.byte	0x50
 11817 09e7 9F       		.byte	0x9f
 11818 09e8 00000000 		.4byte	0
 11819 09ec 00000000 		.4byte	0
 11820              	.LLST50:
 11821 09f0 00000000 		.4byte	.LVL141
 11822 09f4 1F000000 		.4byte	.LVL144-1
 11823 09f8 0100     		.2byte	0x1
 11824 09fa 51       		.byte	0x51
 11825 09fb 1F000000 		.4byte	.LVL144-1
 11826 09ff 24000000 		.4byte	.LFE40
 11827 0a03 0400     		.2byte	0x4
 11828 0a05 F3       		.byte	0xf3
 11829 0a06 01       		.uleb128 0x1
 11830 0a07 51       		.byte	0x51
 11831 0a08 9F       		.byte	0x9f
 11832 0a09 00000000 		.4byte	0
 11833 0a0d 00000000 		.4byte	0
 11834              	.LLST51:
 11835 0a11 00000000 		.4byte	.LVL141
 11836 0a15 14000000 		.4byte	.LVL143
 11837 0a19 0100     		.2byte	0x1
 11838 0a1b 52       		.byte	0x52
 11839 0a1c 14000000 		.4byte	.LVL143
 11840 0a20 24000000 		.4byte	.LFE40
 11841 0a24 0400     		.2byte	0x4
 11842 0a26 F3       		.byte	0xf3
ARM GAS  C:\Users\Steve\AppData\Local\Temp\ccroCuoh.s 			page 226


 11843 0a27 01       		.uleb128 0x1
 11844 0a28 52       		.byte	0x52
 11845 0a29 9F       		.byte	0x9f
 11846 0a2a 00000000 		.4byte	0
 11847 0a2e 00000000 		.4byte	0
 11848              	.LLST52:
 11849 0a32 00000000 		.4byte	.LFB41
 11850 0a36 02000000 		.4byte	.LCFI15
 11851 0a3a 0200     		.2byte	0x2
 11852 0a3c 7D       		.byte	0x7d
 11853 0a3d 00       		.sleb128 0
 11854 0a3e 02000000 		.4byte	.LCFI15
 11855 0a42 04000000 		.4byte	.LCFI16
 11856 0a46 0200     		.2byte	0x2
 11857 0a48 7D       		.byte	0x7d
 11858 0a49 0C       		.sleb128 12
 11859 0a4a 04000000 		.4byte	.LCFI16
 11860 0a4e 24000000 		.4byte	.LFE41
 11861 0a52 0200     		.2byte	0x2
 11862 0a54 7D       		.byte	0x7d
 11863 0a55 20       		.sleb128 32
 11864 0a56 00000000 		.4byte	0
 11865 0a5a 00000000 		.4byte	0
 11866              	.LLST53:
 11867 0a5e 00000000 		.4byte	.LVL145
 11868 0a62 1F000000 		.4byte	.LVL148-1
 11869 0a66 0100     		.2byte	0x1
 11870 0a68 50       		.byte	0x50
 11871 0a69 1F000000 		.4byte	.LVL148-1
 11872 0a6d 24000000 		.4byte	.LFE41
 11873 0a71 0400     		.2byte	0x4
 11874 0a73 F3       		.byte	0xf3
 11875 0a74 01       		.uleb128 0x1
 11876 0a75 50       		.byte	0x50
 11877 0a76 9F       		.byte	0x9f
 11878 0a77 00000000 		.4byte	0
 11879 0a7b 00000000 		.4byte	0
 11880              	.LLST54:
 11881 0a7f 00000000 		.4byte	.LVL145
 11882 0a83 0A000000 		.4byte	.LVL146
 11883 0a87 0100     		.2byte	0x1
 11884 0a89 51       		.byte	0x51
 11885 0a8a 0A000000 		.4byte	.LVL146
 11886 0a8e 24000000 		.4byte	.LFE41
 11887 0a92 0400     		.2byte	0x4
 11888 0a94 F3       		.byte	0xf3
 11889 0a95 01       		.uleb128 0x1
 11890 0a96 51       		.byte	0x51
 11891 0a97 9F       		.byte	0x9f
 11892 0a98 00000000 		.4byte	0
 11893 0a9c 00000000 		.4byte	0
 11894              	.LLST55:
 11895 0aa0 00000000 		.4byte	.LVL145
 11896 0aa4 14000000 		.4byte	.LVL147
 11897 0aa8 0100     		.2byte	0x1
 11898 0aaa 52       		.byte	0x52
 11899 0aab 14000000 		.4byte	.LVL147
ARM GAS  C:\Users\Steve\AppData\Local\Temp\ccroCuoh.s 			page 227


 11900 0aaf 24000000 		.4byte	.LFE41
 11901 0ab3 0400     		.2byte	0x4
 11902 0ab5 F3       		.byte	0xf3
 11903 0ab6 01       		.uleb128 0x1
 11904 0ab7 52       		.byte	0x52
 11905 0ab8 9F       		.byte	0x9f
 11906 0ab9 00000000 		.4byte	0
 11907 0abd 00000000 		.4byte	0
 11908              	.LLST56:
 11909 0ac1 00000000 		.4byte	.LFB39
 11910 0ac5 02000000 		.4byte	.LCFI17
 11911 0ac9 0200     		.2byte	0x2
 11912 0acb 7D       		.byte	0x7d
 11913 0acc 00       		.sleb128 0
 11914 0acd 02000000 		.4byte	.LCFI17
 11915 0ad1 0C000000 		.4byte	.LCFI18
 11916 0ad5 0200     		.2byte	0x2
 11917 0ad7 7D       		.byte	0x7d
 11918 0ad8 14       		.sleb128 20
 11919 0ad9 0C000000 		.4byte	.LCFI18
 11920 0add 0E000000 		.4byte	.LCFI19
 11921 0ae1 0200     		.2byte	0x2
 11922 0ae3 7D       		.byte	0x7d
 11923 0ae4 24       		.sleb128 36
 11924 0ae5 0E000000 		.4byte	.LCFI19
 11925 0ae9 6E000000 		.4byte	.LFE39
 11926 0aed 0200     		.2byte	0x2
 11927 0aef 7D       		.byte	0x7d
 11928 0af0 30       		.sleb128 48
 11929 0af1 00000000 		.4byte	0
 11930 0af5 00000000 		.4byte	0
 11931              	.LLST57:
 11932 0af9 00000000 		.4byte	.LVL149
 11933 0afd 20000000 		.4byte	.LVL151
 11934 0b01 0100     		.2byte	0x1
 11935 0b03 50       		.byte	0x50
 11936 0b04 20000000 		.4byte	.LVL151
 11937 0b08 6E000000 		.4byte	.LFE39
 11938 0b0c 0400     		.2byte	0x4
 11939 0b0e F3       		.byte	0xf3
 11940 0b0f 01       		.uleb128 0x1
 11941 0b10 50       		.byte	0x50
 11942 0b11 9F       		.byte	0x9f
 11943 0b12 00000000 		.4byte	0
 11944 0b16 00000000 		.4byte	0
 11945              	.LLST58:
 11946 0b1a 00000000 		.4byte	.LVL149
 11947 0b1e 22000000 		.4byte	.LVL152
 11948 0b22 0100     		.2byte	0x1
 11949 0b24 51       		.byte	0x51
 11950 0b25 22000000 		.4byte	.LVL152
 11951 0b29 6E000000 		.4byte	.LFE39
 11952 0b2d 0400     		.2byte	0x4
 11953 0b2f F3       		.byte	0xf3
 11954 0b30 01       		.uleb128 0x1
 11955 0b31 51       		.byte	0x51
 11956 0b32 9F       		.byte	0x9f
ARM GAS  C:\Users\Steve\AppData\Local\Temp\ccroCuoh.s 			page 228


 11957 0b33 00000000 		.4byte	0
 11958 0b37 00000000 		.4byte	0
 11959              	.LLST59:
 11960 0b3b 00000000 		.4byte	.LVL149
 11961 0b3f 1E000000 		.4byte	.LVL150
 11962 0b43 0100     		.2byte	0x1
 11963 0b45 52       		.byte	0x52
 11964 0b46 1E000000 		.4byte	.LVL150
 11965 0b4a 6E000000 		.4byte	.LFE39
 11966 0b4e 0400     		.2byte	0x4
 11967 0b50 F3       		.byte	0xf3
 11968 0b51 01       		.uleb128 0x1
 11969 0b52 52       		.byte	0x52
 11970 0b53 9F       		.byte	0x9f
 11971 0b54 00000000 		.4byte	0
 11972 0b58 00000000 		.4byte	0
 11973              	.LLST60:
 11974 0b5c 00000000 		.4byte	.LVL149
 11975 0b60 24000000 		.4byte	.LVL153
 11976 0b64 0100     		.2byte	0x1
 11977 0b66 53       		.byte	0x53
 11978 0b67 24000000 		.4byte	.LVL153
 11979 0b6b 6E000000 		.4byte	.LFE39
 11980 0b6f 0400     		.2byte	0x4
 11981 0b71 F3       		.byte	0xf3
 11982 0b72 01       		.uleb128 0x1
 11983 0b73 53       		.byte	0x53
 11984 0b74 9F       		.byte	0x9f
 11985 0b75 00000000 		.4byte	0
 11986 0b79 00000000 		.4byte	0
 11987              	.LLST61:
 11988 0b7d 00000000 		.4byte	.LFB42
 11989 0b81 02000000 		.4byte	.LCFI20
 11990 0b85 0200     		.2byte	0x2
 11991 0b87 7D       		.byte	0x7d
 11992 0b88 00       		.sleb128 0
 11993 0b89 02000000 		.4byte	.LCFI20
 11994 0b8d 0A000000 		.4byte	.LCFI21
 11995 0b91 0200     		.2byte	0x2
 11996 0b93 7D       		.byte	0x7d
 11997 0b94 14       		.sleb128 20
 11998 0b95 0A000000 		.4byte	.LCFI21
 11999 0b99 0C000000 		.4byte	.LCFI22
 12000 0b9d 0200     		.2byte	0x2
 12001 0b9f 7D       		.byte	0x7d
 12002 0ba0 20       		.sleb128 32
 12003 0ba1 0C000000 		.4byte	.LCFI22
 12004 0ba5 92000000 		.4byte	.LFE42
 12005 0ba9 0200     		.2byte	0x2
 12006 0bab 7D       		.byte	0x7d
 12007 0bac 28       		.sleb128 40
 12008 0bad 00000000 		.4byte	0
 12009 0bb1 00000000 		.4byte	0
 12010              	.LLST62:
 12011 0bb5 00000000 		.4byte	.LVL158
 12012 0bb9 16000000 		.4byte	.LVL161
 12013 0bbd 0100     		.2byte	0x1
ARM GAS  C:\Users\Steve\AppData\Local\Temp\ccroCuoh.s 			page 229


 12014 0bbf 50       		.byte	0x50
 12015 0bc0 16000000 		.4byte	.LVL161
 12016 0bc4 92000000 		.4byte	.LFE42
 12017 0bc8 0400     		.2byte	0x4
 12018 0bca F3       		.byte	0xf3
 12019 0bcb 01       		.uleb128 0x1
 12020 0bcc 50       		.byte	0x50
 12021 0bcd 9F       		.byte	0x9f
 12022 0bce 00000000 		.4byte	0
 12023 0bd2 00000000 		.4byte	0
 12024              	.LLST63:
 12025 0bd6 00000000 		.4byte	.LVL158
 12026 0bda 24000000 		.4byte	.LVL162
 12027 0bde 0100     		.2byte	0x1
 12028 0be0 51       		.byte	0x51
 12029 0be1 24000000 		.4byte	.LVL162
 12030 0be5 92000000 		.4byte	.LFE42
 12031 0be9 0400     		.2byte	0x4
 12032 0beb F3       		.byte	0xf3
 12033 0bec 01       		.uleb128 0x1
 12034 0bed 51       		.byte	0x51
 12035 0bee 9F       		.byte	0x9f
 12036 0bef 00000000 		.4byte	0
 12037 0bf3 00000000 		.4byte	0
 12038              	.LLST64:
 12039 0bf7 00000000 		.4byte	.LVL158
 12040 0bfb 10000000 		.4byte	.LVL159
 12041 0bff 0100     		.2byte	0x1
 12042 0c01 52       		.byte	0x52
 12043 0c02 10000000 		.4byte	.LVL159
 12044 0c06 92000000 		.4byte	.LFE42
 12045 0c0a 0400     		.2byte	0x4
 12046 0c0c F3       		.byte	0xf3
 12047 0c0d 01       		.uleb128 0x1
 12048 0c0e 52       		.byte	0x52
 12049 0c0f 9F       		.byte	0x9f
 12050 0c10 00000000 		.4byte	0
 12051 0c14 00000000 		.4byte	0
 12052              	.LLST65:
 12053 0c18 00000000 		.4byte	.LVL158
 12054 0c1c 12000000 		.4byte	.LVL160
 12055 0c20 0100     		.2byte	0x1
 12056 0c22 53       		.byte	0x53
 12057 0c23 12000000 		.4byte	.LVL160
 12058 0c27 92000000 		.4byte	.LFE42
 12059 0c2b 0400     		.2byte	0x4
 12060 0c2d F3       		.byte	0xf3
 12061 0c2e 01       		.uleb128 0x1
 12062 0c2f 53       		.byte	0x53
 12063 0c30 9F       		.byte	0x9f
 12064 0c31 00000000 		.4byte	0
 12065 0c35 00000000 		.4byte	0
 12066              	.LLST66:
 12067 0c39 00000000 		.4byte	.LVL158
 12068 0c3d 16000000 		.4byte	.LVL161
 12069 0c41 0100     		.2byte	0x1
 12070 0c43 50       		.byte	0x50
ARM GAS  C:\Users\Steve\AppData\Local\Temp\ccroCuoh.s 			page 230


 12071 0c44 16000000 		.4byte	.LVL161
 12072 0c48 38000000 		.4byte	.LVL163
 12073 0c4c 0100     		.2byte	0x1
 12074 0c4e 55       		.byte	0x55
 12075 0c4f 00000000 		.4byte	0
 12076 0c53 00000000 		.4byte	0
 12077              	.LLST67:
 12078 0c57 00000000 		.4byte	.LFB43
 12079 0c5b 02000000 		.4byte	.LCFI23
 12080 0c5f 0200     		.2byte	0x2
 12081 0c61 7D       		.byte	0x7d
 12082 0c62 00       		.sleb128 0
 12083 0c63 02000000 		.4byte	.LCFI23
 12084 0c67 04000000 		.4byte	.LCFI24
 12085 0c6b 0200     		.2byte	0x2
 12086 0c6d 7D       		.byte	0x7d
 12087 0c6e 04       		.sleb128 4
 12088 0c6f 04000000 		.4byte	.LCFI24
 12089 0c73 20000000 		.4byte	.LFE43
 12090 0c77 0200     		.2byte	0x2
 12091 0c79 7D       		.byte	0x7d
 12092 0c7a 18       		.sleb128 24
 12093 0c7b 00000000 		.4byte	0
 12094 0c7f 00000000 		.4byte	0
 12095              	.LLST68:
 12096 0c83 00000000 		.4byte	.LVL167
 12097 0c87 16000000 		.4byte	.LVL168
 12098 0c8b 0100     		.2byte	0x1
 12099 0c8d 51       		.byte	0x51
 12100 0c8e 16000000 		.4byte	.LVL168
 12101 0c92 1B000000 		.4byte	.LVL169-1
 12102 0c96 0200     		.2byte	0x2
 12103 0c98 91       		.byte	0x91
 12104 0c99 6C       		.sleb128 -20
 12105 0c9a 1B000000 		.4byte	.LVL169-1
 12106 0c9e 20000000 		.4byte	.LFE43
 12107 0ca2 0400     		.2byte	0x4
 12108 0ca4 F3       		.byte	0xf3
 12109 0ca5 01       		.uleb128 0x1
 12110 0ca6 51       		.byte	0x51
 12111 0ca7 9F       		.byte	0x9f
 12112 0ca8 00000000 		.4byte	0
 12113 0cac 00000000 		.4byte	0
 12114              	.LLST69:
 12115 0cb0 00000000 		.4byte	.LFB44
 12116 0cb4 02000000 		.4byte	.LCFI25
 12117 0cb8 0200     		.2byte	0x2
 12118 0cba 7D       		.byte	0x7d
 12119 0cbb 00       		.sleb128 0
 12120 0cbc 02000000 		.4byte	.LCFI25
 12121 0cc0 0A000000 		.4byte	.LCFI26
 12122 0cc4 0200     		.2byte	0x2
 12123 0cc6 7D       		.byte	0x7d
 12124 0cc7 14       		.sleb128 20
 12125 0cc8 0A000000 		.4byte	.LCFI26
 12126 0ccc 0C000000 		.4byte	.LCFI27
 12127 0cd0 0200     		.2byte	0x2
ARM GAS  C:\Users\Steve\AppData\Local\Temp\ccroCuoh.s 			page 231


 12128 0cd2 7D       		.byte	0x7d
 12129 0cd3 20       		.sleb128 32
 12130 0cd4 0C000000 		.4byte	.LCFI27
 12131 0cd8 7E000000 		.4byte	.LFE44
 12132 0cdc 0200     		.2byte	0x2
 12133 0cde 7D       		.byte	0x7d
 12134 0cdf 28       		.sleb128 40
 12135 0ce0 00000000 		.4byte	0
 12136 0ce4 00000000 		.4byte	0
 12137              	.LLST70:
 12138 0ce8 00000000 		.4byte	.LVL170
 12139 0cec 14000000 		.4byte	.LVL172
 12140 0cf0 0100     		.2byte	0x1
 12141 0cf2 50       		.byte	0x50
 12142 0cf3 14000000 		.4byte	.LVL172
 12143 0cf7 7E000000 		.4byte	.LFE44
 12144 0cfb 0400     		.2byte	0x4
 12145 0cfd F3       		.byte	0xf3
 12146 0cfe 01       		.uleb128 0x1
 12147 0cff 50       		.byte	0x50
 12148 0d00 9F       		.byte	0x9f
 12149 0d01 00000000 		.4byte	0
 12150 0d05 00000000 		.4byte	0
 12151              	.LLST71:
 12152 0d09 00000000 		.4byte	.LVL170
 12153 0d0d 1A000000 		.4byte	.LVL173
 12154 0d11 0100     		.2byte	0x1
 12155 0d13 51       		.byte	0x51
 12156 0d14 1A000000 		.4byte	.LVL173
 12157 0d18 7E000000 		.4byte	.LFE44
 12158 0d1c 0400     		.2byte	0x4
 12159 0d1e F3       		.byte	0xf3
 12160 0d1f 01       		.uleb128 0x1
 12161 0d20 51       		.byte	0x51
 12162 0d21 9F       		.byte	0x9f
 12163 0d22 00000000 		.4byte	0
 12164 0d26 00000000 		.4byte	0
 12165              	.LLST72:
 12166 0d2a 00000000 		.4byte	.LVL170
 12167 0d2e 22000000 		.4byte	.LVL174
 12168 0d32 0100     		.2byte	0x1
 12169 0d34 52       		.byte	0x52
 12170 0d35 22000000 		.4byte	.LVL174
 12171 0d39 7E000000 		.4byte	.LFE44
 12172 0d3d 0400     		.2byte	0x4
 12173 0d3f F3       		.byte	0xf3
 12174 0d40 01       		.uleb128 0x1
 12175 0d41 52       		.byte	0x52
 12176 0d42 9F       		.byte	0x9f
 12177 0d43 00000000 		.4byte	0
 12178 0d47 00000000 		.4byte	0
 12179              	.LLST73:
 12180 0d4b 00000000 		.4byte	.LVL170
 12181 0d4f 10000000 		.4byte	.LVL171
 12182 0d53 0100     		.2byte	0x1
 12183 0d55 53       		.byte	0x53
 12184 0d56 10000000 		.4byte	.LVL171
ARM GAS  C:\Users\Steve\AppData\Local\Temp\ccroCuoh.s 			page 232


 12185 0d5a 7E000000 		.4byte	.LFE44
 12186 0d5e 0400     		.2byte	0x4
 12187 0d60 F3       		.byte	0xf3
 12188 0d61 01       		.uleb128 0x1
 12189 0d62 53       		.byte	0x53
 12190 0d63 9F       		.byte	0x9f
 12191 0d64 00000000 		.4byte	0
 12192 0d68 00000000 		.4byte	0
 12193              	.LLST74:
 12194 0d6c 00000000 		.4byte	.LFB45
 12195 0d70 02000000 		.4byte	.LCFI28
 12196 0d74 0200     		.2byte	0x2
 12197 0d76 7D       		.byte	0x7d
 12198 0d77 00       		.sleb128 0
 12199 0d78 02000000 		.4byte	.LCFI28
 12200 0d7c 0A000000 		.4byte	.LCFI29
 12201 0d80 0200     		.2byte	0x2
 12202 0d82 7D       		.byte	0x7d
 12203 0d83 14       		.sleb128 20
 12204 0d84 0A000000 		.4byte	.LCFI29
 12205 0d88 12000000 		.4byte	.LCFI30
 12206 0d8c 0200     		.2byte	0x2
 12207 0d8e 7D       		.byte	0x7d
 12208 0d8f 20       		.sleb128 32
 12209 0d90 12000000 		.4byte	.LCFI30
 12210 0d94 88000000 		.4byte	.LFE45
 12211 0d98 0200     		.2byte	0x2
 12212 0d9a 7D       		.byte	0x7d
 12213 0d9b 30       		.sleb128 48
 12214 0d9c 00000000 		.4byte	0
 12215 0da0 00000000 		.4byte	0
 12216              	.LLST75:
 12217 0da4 00000000 		.4byte	.LVL178
 12218 0da8 2E000000 		.4byte	.LVL181
 12219 0dac 0100     		.2byte	0x1
 12220 0dae 50       		.byte	0x50
 12221 0daf 2E000000 		.4byte	.LVL181
 12222 0db3 66000000 		.4byte	.LVL184
 12223 0db7 0100     		.2byte	0x1
 12224 0db9 55       		.byte	0x55
 12225 0dba 66000000 		.4byte	.LVL184
 12226 0dbe 6C000000 		.4byte	.LVL185
 12227 0dc2 0300     		.2byte	0x3
 12228 0dc4 75       		.byte	0x75
 12229 0dc5 7C       		.sleb128 -4
 12230 0dc6 9F       		.byte	0x9f
 12231 0dc7 6C000000 		.4byte	.LVL185
 12232 0dcb 88000000 		.4byte	.LFE45
 12233 0dcf 0400     		.2byte	0x4
 12234 0dd1 F3       		.byte	0xf3
 12235 0dd2 01       		.uleb128 0x1
 12236 0dd3 50       		.byte	0x50
 12237 0dd4 9F       		.byte	0x9f
 12238 0dd5 00000000 		.4byte	0
 12239 0dd9 00000000 		.4byte	0
 12240              	.LLST76:
 12241 0ddd 00000000 		.4byte	.LVL178
ARM GAS  C:\Users\Steve\AppData\Local\Temp\ccroCuoh.s 			page 233


 12242 0de1 0E000000 		.4byte	.LVL179
 12243 0de5 0100     		.2byte	0x1
 12244 0de7 51       		.byte	0x51
 12245 0de8 0E000000 		.4byte	.LVL179
 12246 0dec 88000000 		.4byte	.LFE45
 12247 0df0 0400     		.2byte	0x4
 12248 0df2 F3       		.byte	0xf3
 12249 0df3 01       		.uleb128 0x1
 12250 0df4 51       		.byte	0x51
 12251 0df5 9F       		.byte	0x9f
 12252 0df6 00000000 		.4byte	0
 12253 0dfa 00000000 		.4byte	0
 12254              	.LLST77:
 12255 0dfe 00000000 		.4byte	.LVL178
 12256 0e02 1E000000 		.4byte	.LVL180
 12257 0e06 0100     		.2byte	0x1
 12258 0e08 53       		.byte	0x53
 12259 0e09 1E000000 		.4byte	.LVL180
 12260 0e0d 7E000000 		.4byte	.LVL187
 12261 0e11 0100     		.2byte	0x1
 12262 0e13 57       		.byte	0x57
 12263 0e14 7E000000 		.4byte	.LVL187
 12264 0e18 88000000 		.4byte	.LFE45
 12265 0e1c 0400     		.2byte	0x4
 12266 0e1e F3       		.byte	0xf3
 12267 0e1f 01       		.uleb128 0x1
 12268 0e20 53       		.byte	0x53
 12269 0e21 9F       		.byte	0x9f
 12270 0e22 00000000 		.4byte	0
 12271 0e26 00000000 		.4byte	0
 12272              	.LLST78:
 12273 0e2a 00000000 		.4byte	.LFB46
 12274 0e2e 02000000 		.4byte	.LCFI31
 12275 0e32 0200     		.2byte	0x2
 12276 0e34 7D       		.byte	0x7d
 12277 0e35 00       		.sleb128 0
 12278 0e36 02000000 		.4byte	.LCFI31
 12279 0e3a 0A000000 		.4byte	.LCFI32
 12280 0e3e 0200     		.2byte	0x2
 12281 0e40 7D       		.byte	0x7d
 12282 0e41 14       		.sleb128 20
 12283 0e42 0A000000 		.4byte	.LCFI32
 12284 0e46 14000000 		.4byte	.LCFI33
 12285 0e4a 0200     		.2byte	0x2
 12286 0e4c 7D       		.byte	0x7d
 12287 0e4d 20       		.sleb128 32
 12288 0e4e 14000000 		.4byte	.LCFI33
 12289 0e52 8A000000 		.4byte	.LFE46
 12290 0e56 0200     		.2byte	0x2
 12291 0e58 7D       		.byte	0x7d
 12292 0e59 30       		.sleb128 48
 12293 0e5a 00000000 		.4byte	0
 12294 0e5e 00000000 		.4byte	0
 12295              	.LLST79:
 12296 0e62 00000000 		.4byte	.LVL188
 12297 0e66 12000000 		.4byte	.LVL189
 12298 0e6a 0100     		.2byte	0x1
ARM GAS  C:\Users\Steve\AppData\Local\Temp\ccroCuoh.s 			page 234


 12299 0e6c 50       		.byte	0x50
 12300 0e6d 12000000 		.4byte	.LVL189
 12301 0e71 8A000000 		.4byte	.LFE46
 12302 0e75 0400     		.2byte	0x4
 12303 0e77 F3       		.byte	0xf3
 12304 0e78 01       		.uleb128 0x1
 12305 0e79 50       		.byte	0x50
 12306 0e7a 9F       		.byte	0x9f
 12307 0e7b 00000000 		.4byte	0
 12308 0e7f 00000000 		.4byte	0
 12309              	.LLST80:
 12310 0e83 00000000 		.4byte	.LVL188
 12311 0e87 1A000000 		.4byte	.LVL190
 12312 0e8b 0100     		.2byte	0x1
 12313 0e8d 51       		.byte	0x51
 12314 0e8e 1A000000 		.4byte	.LVL190
 12315 0e92 6C000000 		.4byte	.LVL195
 12316 0e96 0100     		.2byte	0x1
 12317 0e98 56       		.byte	0x56
 12318 0e99 6C000000 		.4byte	.LVL195
 12319 0e9d 80000000 		.4byte	.LVL199
 12320 0ea1 0300     		.2byte	0x3
 12321 0ea3 76       		.byte	0x76
 12322 0ea4 75       		.sleb128 -11
 12323 0ea5 9F       		.byte	0x9f
 12324 0ea6 80000000 		.4byte	.LVL199
 12325 0eaa 8A000000 		.4byte	.LFE46
 12326 0eae 0400     		.2byte	0x4
 12327 0eb0 F3       		.byte	0xf3
 12328 0eb1 01       		.uleb128 0x1
 12329 0eb2 51       		.byte	0x51
 12330 0eb3 9F       		.byte	0x9f
 12331 0eb4 00000000 		.4byte	0
 12332 0eb8 00000000 		.4byte	0
 12333              	.LLST81:
 12334 0ebc 00000000 		.4byte	.LVL188
 12335 0ec0 23000000 		.4byte	.LVL191-1
 12336 0ec4 0100     		.2byte	0x1
 12337 0ec6 53       		.byte	0x53
 12338 0ec7 23000000 		.4byte	.LVL191-1
 12339 0ecb 80000000 		.4byte	.LVL198
 12340 0ecf 0100     		.2byte	0x1
 12341 0ed1 54       		.byte	0x54
 12342 0ed2 80000000 		.4byte	.LVL198
 12343 0ed6 8A000000 		.4byte	.LFE46
 12344 0eda 0400     		.2byte	0x4
 12345 0edc F3       		.byte	0xf3
 12346 0edd 01       		.uleb128 0x1
 12347 0ede 53       		.byte	0x53
 12348 0edf 9F       		.byte	0x9f
 12349 0ee0 00000000 		.4byte	0
 12350 0ee4 00000000 		.4byte	0
 12351              	.LLST82:
 12352 0ee8 00000000 		.4byte	.LFB47
 12353 0eec 02000000 		.4byte	.LCFI34
 12354 0ef0 0200     		.2byte	0x2
 12355 0ef2 7D       		.byte	0x7d
ARM GAS  C:\Users\Steve\AppData\Local\Temp\ccroCuoh.s 			page 235


 12356 0ef3 00       		.sleb128 0
 12357 0ef4 02000000 		.4byte	.LCFI34
 12358 0ef8 06000000 		.4byte	.LCFI35
 12359 0efc 0200     		.2byte	0x2
 12360 0efe 7D       		.byte	0x7d
 12361 0eff 14       		.sleb128 20
 12362 0f00 06000000 		.4byte	.LCFI35
 12363 0f04 30000000 		.4byte	.LFE47
 12364 0f08 0200     		.2byte	0x2
 12365 0f0a 7D       		.byte	0x7d
 12366 0f0b 28       		.sleb128 40
 12367 0f0c 00000000 		.4byte	0
 12368 0f10 00000000 		.4byte	0
 12369              	.LLST83:
 12370 0f14 00000000 		.4byte	.LVL200
 12371 0f18 1D000000 		.4byte	.LVL204-1
 12372 0f1c 0100     		.2byte	0x1
 12373 0f1e 50       		.byte	0x50
 12374 0f1f 1D000000 		.4byte	.LVL204-1
 12375 0f23 30000000 		.4byte	.LFE47
 12376 0f27 0400     		.2byte	0x4
 12377 0f29 F3       		.byte	0xf3
 12378 0f2a 01       		.uleb128 0x1
 12379 0f2b 50       		.byte	0x50
 12380 0f2c 9F       		.byte	0x9f
 12381 0f2d 00000000 		.4byte	0
 12382 0f31 00000000 		.4byte	0
 12383              	.LLST84:
 12384 0f35 00000000 		.4byte	.LVL200
 12385 0f39 0A000000 		.4byte	.LVL201
 12386 0f3d 0100     		.2byte	0x1
 12387 0f3f 51       		.byte	0x51
 12388 0f40 0A000000 		.4byte	.LVL201
 12389 0f44 1A000000 		.4byte	.LVL203
 12390 0f48 0100     		.2byte	0x1
 12391 0f4a 56       		.byte	0x56
 12392 0f4b 1A000000 		.4byte	.LVL203
 12393 0f4f 2E000000 		.4byte	.LVL207
 12394 0f53 0300     		.2byte	0x3
 12395 0f55 76       		.byte	0x76
 12396 0f56 79       		.sleb128 -7
 12397 0f57 9F       		.byte	0x9f
 12398 0f58 2E000000 		.4byte	.LVL207
 12399 0f5c 30000000 		.4byte	.LFE47
 12400 0f60 0400     		.2byte	0x4
 12401 0f62 F3       		.byte	0xf3
 12402 0f63 01       		.uleb128 0x1
 12403 0f64 51       		.byte	0x51
 12404 0f65 9F       		.byte	0x9f
 12405 0f66 00000000 		.4byte	0
 12406 0f6a 00000000 		.4byte	0
 12407              	.LLST85:
 12408 0f6e 00000000 		.4byte	.LVL200
 12409 0f72 16000000 		.4byte	.LVL202
 12410 0f76 0100     		.2byte	0x1
 12411 0f78 53       		.byte	0x53
 12412 0f79 16000000 		.4byte	.LVL202
ARM GAS  C:\Users\Steve\AppData\Local\Temp\ccroCuoh.s 			page 236


 12413 0f7d 2E000000 		.4byte	.LVL206
 12414 0f81 0100     		.2byte	0x1
 12415 0f83 55       		.byte	0x55
 12416 0f84 2E000000 		.4byte	.LVL206
 12417 0f88 30000000 		.4byte	.LFE47
 12418 0f8c 0400     		.2byte	0x4
 12419 0f8e F3       		.byte	0xf3
 12420 0f8f 01       		.uleb128 0x1
 12421 0f90 53       		.byte	0x53
 12422 0f91 9F       		.byte	0x9f
 12423 0f92 00000000 		.4byte	0
 12424 0f96 00000000 		.4byte	0
 12425              	.LLST86:
 12426 0f9a 00000000 		.4byte	.LFB48
 12427 0f9e 02000000 		.4byte	.LCFI36
 12428 0fa2 0200     		.2byte	0x2
 12429 0fa4 7D       		.byte	0x7d
 12430 0fa5 00       		.sleb128 0
 12431 0fa6 02000000 		.4byte	.LCFI36
 12432 0faa 06000000 		.4byte	.LCFI37
 12433 0fae 0200     		.2byte	0x2
 12434 0fb0 7D       		.byte	0x7d
 12435 0fb1 14       		.sleb128 20
 12436 0fb2 06000000 		.4byte	.LCFI37
 12437 0fb6 0A000000 		.4byte	.LCFI38
 12438 0fba 0200     		.2byte	0x2
 12439 0fbc 7D       		.byte	0x7d
 12440 0fbd 18       		.sleb128 24
 12441 0fbe 0A000000 		.4byte	.LCFI38
 12442 0fc2 8E000000 		.4byte	.LFE48
 12443 0fc6 0200     		.2byte	0x2
 12444 0fc8 7D       		.byte	0x7d
 12445 0fc9 28       		.sleb128 40
 12446 0fca 00000000 		.4byte	0
 12447 0fce 00000000 		.4byte	0
 12448              	.LLST87:
 12449 0fd2 00000000 		.4byte	.LVL208
 12450 0fd6 1D000000 		.4byte	.LVL210-1
 12451 0fda 0100     		.2byte	0x1
 12452 0fdc 50       		.byte	0x50
 12453 0fdd 1D000000 		.4byte	.LVL210-1
 12454 0fe1 8E000000 		.4byte	.LFE48
 12455 0fe5 0400     		.2byte	0x4
 12456 0fe7 F3       		.byte	0xf3
 12457 0fe8 01       		.uleb128 0x1
 12458 0fe9 50       		.byte	0x50
 12459 0fea 9F       		.byte	0x9f
 12460 0feb 00000000 		.4byte	0
 12461 0fef 00000000 		.4byte	0
 12462              	.LLST88:
 12463 0ff3 00000000 		.4byte	.LVL208
 12464 0ff7 1D000000 		.4byte	.LVL210-1
 12465 0ffb 0100     		.2byte	0x1
 12466 0ffd 51       		.byte	0x51
 12467 0ffe 1D000000 		.4byte	.LVL210-1
 12468 1002 8E000000 		.4byte	.LFE48
 12469 1006 0400     		.2byte	0x4
ARM GAS  C:\Users\Steve\AppData\Local\Temp\ccroCuoh.s 			page 237


 12470 1008 F3       		.byte	0xf3
 12471 1009 01       		.uleb128 0x1
 12472 100a 51       		.byte	0x51
 12473 100b 9F       		.byte	0x9f
 12474 100c 00000000 		.4byte	0
 12475 1010 00000000 		.4byte	0
 12476              	.LLST89:
 12477 1014 00000000 		.4byte	.LVL208
 12478 1018 16000000 		.4byte	.LVL209
 12479 101c 0100     		.2byte	0x1
 12480 101e 53       		.byte	0x53
 12481 101f 16000000 		.4byte	.LVL209
 12482 1023 88000000 		.4byte	.LVL217
 12483 1027 0100     		.2byte	0x1
 12484 1029 54       		.byte	0x54
 12485 102a 88000000 		.4byte	.LVL217
 12486 102e 8E000000 		.4byte	.LFE48
 12487 1032 0400     		.2byte	0x4
 12488 1034 F3       		.byte	0xf3
 12489 1035 01       		.uleb128 0x1
 12490 1036 53       		.byte	0x53
 12491 1037 9F       		.byte	0x9f
 12492 1038 00000000 		.4byte	0
 12493 103c 00000000 		.4byte	0
 12494              	.LLST90:
 12495 1040 00000000 		.4byte	.LFB49
 12496 1044 02000000 		.4byte	.LCFI39
 12497 1048 0200     		.2byte	0x2
 12498 104a 7D       		.byte	0x7d
 12499 104b 00       		.sleb128 0
 12500 104c 02000000 		.4byte	.LCFI39
 12501 1050 06000000 		.4byte	.LCFI40
 12502 1054 0200     		.2byte	0x2
 12503 1056 7D       		.byte	0x7d
 12504 1057 14       		.sleb128 20
 12505 1058 06000000 		.4byte	.LCFI40
 12506 105c 3C000000 		.4byte	.LFE49
 12507 1060 0200     		.2byte	0x2
 12508 1062 7D       		.byte	0x7d
 12509 1063 28       		.sleb128 40
 12510 1064 00000000 		.4byte	0
 12511 1068 00000000 		.4byte	0
 12512              	.LLST91:
 12513 106c 00000000 		.4byte	.LVL218
 12514 1070 17000000 		.4byte	.LVL220-1
 12515 1074 0100     		.2byte	0x1
 12516 1076 50       		.byte	0x50
 12517 1077 17000000 		.4byte	.LVL220-1
 12518 107b 3C000000 		.4byte	.LFE49
 12519 107f 0400     		.2byte	0x4
 12520 1081 F3       		.byte	0xf3
 12521 1082 01       		.uleb128 0x1
 12522 1083 50       		.byte	0x50
 12523 1084 9F       		.byte	0x9f
 12524 1085 00000000 		.4byte	0
 12525 1089 00000000 		.4byte	0
 12526              	.LLST92:
ARM GAS  C:\Users\Steve\AppData\Local\Temp\ccroCuoh.s 			page 238


 12527 108d 00000000 		.4byte	.LVL218
 12528 1091 17000000 		.4byte	.LVL220-1
 12529 1095 0100     		.2byte	0x1
 12530 1097 51       		.byte	0x51
 12531 1098 17000000 		.4byte	.LVL220-1
 12532 109c 3C000000 		.4byte	.LFE49
 12533 10a0 0400     		.2byte	0x4
 12534 10a2 F3       		.byte	0xf3
 12535 10a3 01       		.uleb128 0x1
 12536 10a4 51       		.byte	0x51
 12537 10a5 9F       		.byte	0x9f
 12538 10a6 00000000 		.4byte	0
 12539 10aa 00000000 		.4byte	0
 12540              	.LLST93:
 12541 10ae 00000000 		.4byte	.LVL218
 12542 10b2 12000000 		.4byte	.LVL219
 12543 10b6 0100     		.2byte	0x1
 12544 10b8 53       		.byte	0x53
 12545 10b9 12000000 		.4byte	.LVL219
 12546 10bd 3A000000 		.4byte	.LVL223
 12547 10c1 0100     		.2byte	0x1
 12548 10c3 55       		.byte	0x55
 12549 10c4 3A000000 		.4byte	.LVL223
 12550 10c8 3C000000 		.4byte	.LFE49
 12551 10cc 0400     		.2byte	0x4
 12552 10ce F3       		.byte	0xf3
 12553 10cf 01       		.uleb128 0x1
 12554 10d0 53       		.byte	0x53
 12555 10d1 9F       		.byte	0x9f
 12556 10d2 00000000 		.4byte	0
 12557 10d6 00000000 		.4byte	0
 12558              	.LLST94:
 12559 10da 00000000 		.4byte	.LFB50
 12560 10de 02000000 		.4byte	.LCFI41
 12561 10e2 0200     		.2byte	0x2
 12562 10e4 7D       		.byte	0x7d
 12563 10e5 00       		.sleb128 0
 12564 10e6 02000000 		.4byte	.LCFI41
 12565 10ea 06000000 		.4byte	.LCFI42
 12566 10ee 0200     		.2byte	0x2
 12567 10f0 7D       		.byte	0x7d
 12568 10f1 14       		.sleb128 20
 12569 10f2 06000000 		.4byte	.LCFI42
 12570 10f6 0A000000 		.4byte	.LCFI43
 12571 10fa 0200     		.2byte	0x2
 12572 10fc 7D       		.byte	0x7d
 12573 10fd 18       		.sleb128 24
 12574 10fe 0A000000 		.4byte	.LCFI43
 12575 1102 84000000 		.4byte	.LFE50
 12576 1106 0200     		.2byte	0x2
 12577 1108 7D       		.byte	0x7d
 12578 1109 28       		.sleb128 40
 12579 110a 00000000 		.4byte	0
 12580 110e 00000000 		.4byte	0
 12581              	.LLST95:
 12582 1112 00000000 		.4byte	.LVL224
 12583 1116 1D000000 		.4byte	.LVL226-1
ARM GAS  C:\Users\Steve\AppData\Local\Temp\ccroCuoh.s 			page 239


 12584 111a 0100     		.2byte	0x1
 12585 111c 50       		.byte	0x50
 12586 111d 1D000000 		.4byte	.LVL226-1
 12587 1121 84000000 		.4byte	.LFE50
 12588 1125 0400     		.2byte	0x4
 12589 1127 F3       		.byte	0xf3
 12590 1128 01       		.uleb128 0x1
 12591 1129 50       		.byte	0x50
 12592 112a 9F       		.byte	0x9f
 12593 112b 00000000 		.4byte	0
 12594 112f 00000000 		.4byte	0
 12595              	.LLST96:
 12596 1133 00000000 		.4byte	.LVL224
 12597 1137 1D000000 		.4byte	.LVL226-1
 12598 113b 0100     		.2byte	0x1
 12599 113d 51       		.byte	0x51
 12600 113e 1D000000 		.4byte	.LVL226-1
 12601 1142 84000000 		.4byte	.LFE50
 12602 1146 0400     		.2byte	0x4
 12603 1148 F3       		.byte	0xf3
 12604 1149 01       		.uleb128 0x1
 12605 114a 51       		.byte	0x51
 12606 114b 9F       		.byte	0x9f
 12607 114c 00000000 		.4byte	0
 12608 1150 00000000 		.4byte	0
 12609              	.LLST97:
 12610 1154 00000000 		.4byte	.LVL224
 12611 1158 18000000 		.4byte	.LVL225
 12612 115c 0100     		.2byte	0x1
 12613 115e 53       		.byte	0x53
 12614 115f 18000000 		.4byte	.LVL225
 12615 1163 7E000000 		.4byte	.LVL232
 12616 1167 0100     		.2byte	0x1
 12617 1169 54       		.byte	0x54
 12618 116a 7E000000 		.4byte	.LVL232
 12619 116e 84000000 		.4byte	.LFE50
 12620 1172 0400     		.2byte	0x4
 12621 1174 F3       		.byte	0xf3
 12622 1175 01       		.uleb128 0x1
 12623 1176 53       		.byte	0x53
 12624 1177 9F       		.byte	0x9f
 12625 1178 00000000 		.4byte	0
 12626 117c 00000000 		.4byte	0
 12627              	.LLST98:
 12628 1180 00000000 		.4byte	.LFB51
 12629 1184 02000000 		.4byte	.LCFI44
 12630 1188 0200     		.2byte	0x2
 12631 118a 7D       		.byte	0x7d
 12632 118b 00       		.sleb128 0
 12633 118c 02000000 		.4byte	.LCFI44
 12634 1190 06000000 		.4byte	.LCFI45
 12635 1194 0200     		.2byte	0x2
 12636 1196 7D       		.byte	0x7d
 12637 1197 14       		.sleb128 20
 12638 1198 06000000 		.4byte	.LCFI45
 12639 119c 0C000000 		.4byte	.LCFI46
 12640 11a0 0200     		.2byte	0x2
ARM GAS  C:\Users\Steve\AppData\Local\Temp\ccroCuoh.s 			page 240


 12641 11a2 7D       		.byte	0x7d
 12642 11a3 18       		.sleb128 24
 12643 11a4 0C000000 		.4byte	.LCFI46
 12644 11a8 70000000 		.4byte	.LFE51
 12645 11ac 0200     		.2byte	0x2
 12646 11ae 7D       		.byte	0x7d
 12647 11af 28       		.sleb128 40
 12648 11b0 00000000 		.4byte	0
 12649 11b4 00000000 		.4byte	0
 12650              	.LLST99:
 12651 11b8 00000000 		.4byte	.LVL233
 12652 11bc 1E000000 		.4byte	.LVL235
 12653 11c0 0100     		.2byte	0x1
 12654 11c2 50       		.byte	0x50
 12655 11c3 1E000000 		.4byte	.LVL235
 12656 11c7 48000000 		.4byte	.LVL239
 12657 11cb 0100     		.2byte	0x1
 12658 11cd 57       		.byte	0x57
 12659 11ce 48000000 		.4byte	.LVL239
 12660 11d2 6A000000 		.4byte	.LVL243
 12661 11d6 0300     		.2byte	0x3
 12662 11d8 77       		.byte	0x77
 12663 11d9 7C       		.sleb128 -4
 12664 11da 9F       		.byte	0x9f
 12665 11db 6A000000 		.4byte	.LVL243
 12666 11df 70000000 		.4byte	.LFE51
 12667 11e3 0400     		.2byte	0x4
 12668 11e5 F3       		.byte	0xf3
 12669 11e6 01       		.uleb128 0x1
 12670 11e7 50       		.byte	0x50
 12671 11e8 9F       		.byte	0x9f
 12672 11e9 00000000 		.4byte	0
 12673 11ed 00000000 		.4byte	0
 12674              	.LLST100:
 12675 11f1 00000000 		.4byte	.LVL233
 12676 11f5 25000000 		.4byte	.LVL236-1
 12677 11f9 0100     		.2byte	0x1
 12678 11fb 51       		.byte	0x51
 12679 11fc 25000000 		.4byte	.LVL236-1
 12680 1200 70000000 		.4byte	.LFE51
 12681 1204 0400     		.2byte	0x4
 12682 1206 F3       		.byte	0xf3
 12683 1207 01       		.uleb128 0x1
 12684 1208 51       		.byte	0x51
 12685 1209 9F       		.byte	0x9f
 12686 120a 00000000 		.4byte	0
 12687 120e 00000000 		.4byte	0
 12688              	.LLST101:
 12689 1212 00000000 		.4byte	.LVL233
 12690 1216 16000000 		.4byte	.LVL234
 12691 121a 0100     		.2byte	0x1
 12692 121c 53       		.byte	0x53
 12693 121d 16000000 		.4byte	.LVL234
 12694 1221 6A000000 		.4byte	.LVL242
 12695 1225 0100     		.2byte	0x1
 12696 1227 54       		.byte	0x54
 12697 1228 6A000000 		.4byte	.LVL242
ARM GAS  C:\Users\Steve\AppData\Local\Temp\ccroCuoh.s 			page 241


 12698 122c 70000000 		.4byte	.LFE51
 12699 1230 0400     		.2byte	0x4
 12700 1232 F3       		.byte	0xf3
 12701 1233 01       		.uleb128 0x1
 12702 1234 53       		.byte	0x53
 12703 1235 9F       		.byte	0x9f
 12704 1236 00000000 		.4byte	0
 12705 123a 00000000 		.4byte	0
 12706              	.LLST102:
 12707 123e 00000000 		.4byte	.LFB52
 12708 1242 02000000 		.4byte	.LCFI47
 12709 1246 0200     		.2byte	0x2
 12710 1248 7D       		.byte	0x7d
 12711 1249 00       		.sleb128 0
 12712 124a 02000000 		.4byte	.LCFI47
 12713 124e 08000000 		.4byte	.LCFI48
 12714 1252 0200     		.2byte	0x2
 12715 1254 7D       		.byte	0x7d
 12716 1255 14       		.sleb128 20
 12717 1256 08000000 		.4byte	.LCFI48
 12718 125a 36000000 		.4byte	.LFE52
 12719 125e 0200     		.2byte	0x2
 12720 1260 7D       		.byte	0x7d
 12721 1261 28       		.sleb128 40
 12722 1262 00000000 		.4byte	0
 12723 1266 00000000 		.4byte	0
 12724              	.LLST103:
 12725 126a 00000000 		.4byte	.LVL244
 12726 126e 13000000 		.4byte	.LVL246-1
 12727 1272 0100     		.2byte	0x1
 12728 1274 50       		.byte	0x50
 12729 1275 13000000 		.4byte	.LVL246-1
 12730 1279 36000000 		.4byte	.LFE52
 12731 127d 0400     		.2byte	0x4
 12732 127f F3       		.byte	0xf3
 12733 1280 01       		.uleb128 0x1
 12734 1281 50       		.byte	0x50
 12735 1282 9F       		.byte	0x9f
 12736 1283 00000000 		.4byte	0
 12737 1287 00000000 		.4byte	0
 12738              	.LLST104:
 12739 128b 00000000 		.4byte	.LVL244
 12740 128f 06000000 		.4byte	.LVL245
 12741 1293 0100     		.2byte	0x1
 12742 1295 51       		.byte	0x51
 12743 1296 06000000 		.4byte	.LVL245
 12744 129a 36000000 		.4byte	.LFE52
 12745 129e 0400     		.2byte	0x4
 12746 12a0 F3       		.byte	0xf3
 12747 12a1 01       		.uleb128 0x1
 12748 12a2 51       		.byte	0x51
 12749 12a3 9F       		.byte	0x9f
 12750 12a4 00000000 		.4byte	0
 12751 12a8 00000000 		.4byte	0
 12752              	.LLST105:
 12753 12ac 00000000 		.4byte	.LVL244
 12754 12b0 13000000 		.4byte	.LVL246-1
ARM GAS  C:\Users\Steve\AppData\Local\Temp\ccroCuoh.s 			page 242


 12755 12b4 0100     		.2byte	0x1
 12756 12b6 53       		.byte	0x53
 12757 12b7 13000000 		.4byte	.LVL246-1
 12758 12bb 34000000 		.4byte	.LVL249
 12759 12bf 0100     		.2byte	0x1
 12760 12c1 55       		.byte	0x55
 12761 12c2 34000000 		.4byte	.LVL249
 12762 12c6 36000000 		.4byte	.LFE52
 12763 12ca 0400     		.2byte	0x4
 12764 12cc F3       		.byte	0xf3
 12765 12cd 01       		.uleb128 0x1
 12766 12ce 53       		.byte	0x53
 12767 12cf 9F       		.byte	0x9f
 12768 12d0 00000000 		.4byte	0
 12769 12d4 00000000 		.4byte	0
 12770              	.LLST106:
 12771 12d8 00000000 		.4byte	.LFB53
 12772 12dc 02000000 		.4byte	.LCFI49
 12773 12e0 0200     		.2byte	0x2
 12774 12e2 7D       		.byte	0x7d
 12775 12e3 00       		.sleb128 0
 12776 12e4 02000000 		.4byte	.LCFI49
 12777 12e8 08000000 		.4byte	.LCFI50
 12778 12ec 0200     		.2byte	0x2
 12779 12ee 7D       		.byte	0x7d
 12780 12ef 14       		.sleb128 20
 12781 12f0 08000000 		.4byte	.LCFI50
 12782 12f4 12000000 		.4byte	.LCFI51
 12783 12f8 0200     		.2byte	0x2
 12784 12fa 7D       		.byte	0x7d
 12785 12fb 1C       		.sleb128 28
 12786 12fc 12000000 		.4byte	.LCFI51
 12787 1300 A0000000 		.4byte	.LFE53
 12788 1304 0200     		.2byte	0x2
 12789 1306 7D       		.byte	0x7d
 12790 1307 30       		.sleb128 48
 12791 1308 00000000 		.4byte	0
 12792 130c 00000000 		.4byte	0
 12793              	.LLST107:
 12794 1310 00000000 		.4byte	.LVL250
 12795 1314 22000000 		.4byte	.LVL252
 12796 1318 0100     		.2byte	0x1
 12797 131a 50       		.byte	0x50
 12798 131b 22000000 		.4byte	.LVL252
 12799 131f 24000000 		.4byte	.LVL253
 12800 1323 0100     		.2byte	0x1
 12801 1325 53       		.byte	0x53
 12802 1326 24000000 		.4byte	.LVL253
 12803 132a 98000000 		.4byte	.LVL262
 12804 132e 0100     		.2byte	0x1
 12805 1330 59       		.byte	0x59
 12806 1331 98000000 		.4byte	.LVL262
 12807 1335 A0000000 		.4byte	.LFE53
 12808 1339 0400     		.2byte	0x4
 12809 133b F3       		.byte	0xf3
 12810 133c 01       		.uleb128 0x1
 12811 133d 50       		.byte	0x50
ARM GAS  C:\Users\Steve\AppData\Local\Temp\ccroCuoh.s 			page 243


 12812 133e 9F       		.byte	0x9f
 12813 133f 00000000 		.4byte	0
 12814 1343 00000000 		.4byte	0
 12815              	.LLST108:
 12816 1347 00000000 		.4byte	.LVL250
 12817 134b 2B000000 		.4byte	.LVL254-1
 12818 134f 0100     		.2byte	0x1
 12819 1351 51       		.byte	0x51
 12820 1352 2B000000 		.4byte	.LVL254-1
 12821 1356 A0000000 		.4byte	.LFE53
 12822 135a 0400     		.2byte	0x4
 12823 135c F3       		.byte	0xf3
 12824 135d 01       		.uleb128 0x1
 12825 135e 51       		.byte	0x51
 12826 135f 9F       		.byte	0x9f
 12827 1360 00000000 		.4byte	0
 12828 1364 00000000 		.4byte	0
 12829              	.LLST109:
 12830 1368 00000000 		.4byte	.LVL250
 12831 136c 0C000000 		.4byte	.LVL251
 12832 1370 0100     		.2byte	0x1
 12833 1372 53       		.byte	0x53
 12834 1373 0C000000 		.4byte	.LVL251
 12835 1377 98000000 		.4byte	.LVL261
 12836 137b 0100     		.2byte	0x1
 12837 137d 54       		.byte	0x54
 12838 137e 98000000 		.4byte	.LVL261
 12839 1382 A0000000 		.4byte	.LFE53
 12840 1386 0400     		.2byte	0x4
 12841 1388 F3       		.byte	0xf3
 12842 1389 01       		.uleb128 0x1
 12843 138a 53       		.byte	0x53
 12844 138b 9F       		.byte	0x9f
 12845 138c 00000000 		.4byte	0
 12846 1390 00000000 		.4byte	0
 12847              	.LLST110:
 12848 1394 00000000 		.4byte	.LFB54
 12849 1398 02000000 		.4byte	.LCFI52
 12850 139c 0200     		.2byte	0x2
 12851 139e 7D       		.byte	0x7d
 12852 139f 00       		.sleb128 0
 12853 13a0 02000000 		.4byte	.LCFI52
 12854 13a4 06000000 		.4byte	.LCFI53
 12855 13a8 0200     		.2byte	0x2
 12856 13aa 7D       		.byte	0x7d
 12857 13ab 14       		.sleb128 20
 12858 13ac 06000000 		.4byte	.LCFI53
 12859 13b0 0A000000 		.4byte	.LCFI54
 12860 13b4 0200     		.2byte	0x2
 12861 13b6 7D       		.byte	0x7d
 12862 13b7 18       		.sleb128 24
 12863 13b8 0A000000 		.4byte	.LCFI54
 12864 13bc 60000000 		.4byte	.LFE54
 12865 13c0 0200     		.2byte	0x2
 12866 13c2 7D       		.byte	0x7d
 12867 13c3 28       		.sleb128 40
 12868 13c4 00000000 		.4byte	0
ARM GAS  C:\Users\Steve\AppData\Local\Temp\ccroCuoh.s 			page 244


 12869 13c8 00000000 		.4byte	0
 12870              	.LLST111:
 12871 13cc 00000000 		.4byte	.LVL263
 12872 13d0 18000000 		.4byte	.LVL265
 12873 13d4 0100     		.2byte	0x1
 12874 13d6 50       		.byte	0x50
 12875 13d7 18000000 		.4byte	.LVL265
 12876 13db 3C000000 		.4byte	.LVL268
 12877 13df 0100     		.2byte	0x1
 12878 13e1 56       		.byte	0x56
 12879 13e2 3C000000 		.4byte	.LVL268
 12880 13e6 5A000000 		.4byte	.LVL272
 12881 13ea 0300     		.2byte	0x3
 12882 13ec 76       		.byte	0x76
 12883 13ed 7C       		.sleb128 -4
 12884 13ee 9F       		.byte	0x9f
 12885 13ef 5A000000 		.4byte	.LVL272
 12886 13f3 60000000 		.4byte	.LFE54
 12887 13f7 0400     		.2byte	0x4
 12888 13f9 F3       		.byte	0xf3
 12889 13fa 01       		.uleb128 0x1
 12890 13fb 50       		.byte	0x50
 12891 13fc 9F       		.byte	0x9f
 12892 13fd 00000000 		.4byte	0
 12893 1401 00000000 		.4byte	0
 12894              	.LLST112:
 12895 1405 00000000 		.4byte	.LVL263
 12896 1409 25000000 		.4byte	.LVL266-1
 12897 140d 0100     		.2byte	0x1
 12898 140f 51       		.byte	0x51
 12899 1410 25000000 		.4byte	.LVL266-1
 12900 1414 60000000 		.4byte	.LFE54
 12901 1418 0400     		.2byte	0x4
 12902 141a F3       		.byte	0xf3
 12903 141b 01       		.uleb128 0x1
 12904 141c 51       		.byte	0x51
 12905 141d 9F       		.byte	0x9f
 12906 141e 00000000 		.4byte	0
 12907 1422 00000000 		.4byte	0
 12908              	.LLST113:
 12909 1426 00000000 		.4byte	.LVL263
 12910 142a 12000000 		.4byte	.LVL264
 12911 142e 0100     		.2byte	0x1
 12912 1430 53       		.byte	0x53
 12913 1431 12000000 		.4byte	.LVL264
 12914 1435 5A000000 		.4byte	.LVL271
 12915 1439 0100     		.2byte	0x1
 12916 143b 54       		.byte	0x54
 12917 143c 5A000000 		.4byte	.LVL271
 12918 1440 60000000 		.4byte	.LFE54
 12919 1444 0400     		.2byte	0x4
 12920 1446 F3       		.byte	0xf3
 12921 1447 01       		.uleb128 0x1
 12922 1448 53       		.byte	0x53
 12923 1449 9F       		.byte	0x9f
 12924 144a 00000000 		.4byte	0
 12925 144e 00000000 		.4byte	0
ARM GAS  C:\Users\Steve\AppData\Local\Temp\ccroCuoh.s 			page 245


 12926              	.LLST114:
 12927 1452 00000000 		.4byte	.LFB55
 12928 1456 02000000 		.4byte	.LCFI55
 12929 145a 0200     		.2byte	0x2
 12930 145c 7D       		.byte	0x7d
 12931 145d 00       		.sleb128 0
 12932 145e 02000000 		.4byte	.LCFI55
 12933 1462 06000000 		.4byte	.LCFI56
 12934 1466 0200     		.2byte	0x2
 12935 1468 7D       		.byte	0x7d
 12936 1469 14       		.sleb128 20
 12937 146a 06000000 		.4byte	.LCFI56
 12938 146e 0A000000 		.4byte	.LCFI57
 12939 1472 0200     		.2byte	0x2
 12940 1474 7D       		.byte	0x7d
 12941 1475 18       		.sleb128 24
 12942 1476 0A000000 		.4byte	.LCFI57
 12943 147a 62000000 		.4byte	.LFE55
 12944 147e 0200     		.2byte	0x2
 12945 1480 7D       		.byte	0x7d
 12946 1481 28       		.sleb128 40
 12947 1482 00000000 		.4byte	0
 12948 1486 00000000 		.4byte	0
 12949              	.LLST115:
 12950 148a 00000000 		.4byte	.LVL273
 12951 148e 18000000 		.4byte	.LVL275
 12952 1492 0100     		.2byte	0x1
 12953 1494 50       		.byte	0x50
 12954 1495 18000000 		.4byte	.LVL275
 12955 1499 3E000000 		.4byte	.LVL278
 12956 149d 0100     		.2byte	0x1
 12957 149f 56       		.byte	0x56
 12958 14a0 3E000000 		.4byte	.LVL278
 12959 14a4 5C000000 		.4byte	.LVL282
 12960 14a8 0300     		.2byte	0x3
 12961 14aa 76       		.byte	0x76
 12962 14ab 7C       		.sleb128 -4
 12963 14ac 9F       		.byte	0x9f
 12964 14ad 5C000000 		.4byte	.LVL282
 12965 14b1 62000000 		.4byte	.LFE55
 12966 14b5 0400     		.2byte	0x4
 12967 14b7 F3       		.byte	0xf3
 12968 14b8 01       		.uleb128 0x1
 12969 14b9 50       		.byte	0x50
 12970 14ba 9F       		.byte	0x9f
 12971 14bb 00000000 		.4byte	0
 12972 14bf 00000000 		.4byte	0
 12973              	.LLST116:
 12974 14c3 00000000 		.4byte	.LVL273
 12975 14c7 25000000 		.4byte	.LVL276-1
 12976 14cb 0100     		.2byte	0x1
 12977 14cd 51       		.byte	0x51
 12978 14ce 25000000 		.4byte	.LVL276-1
 12979 14d2 62000000 		.4byte	.LFE55
 12980 14d6 0400     		.2byte	0x4
 12981 14d8 F3       		.byte	0xf3
 12982 14d9 01       		.uleb128 0x1
ARM GAS  C:\Users\Steve\AppData\Local\Temp\ccroCuoh.s 			page 246


 12983 14da 51       		.byte	0x51
 12984 14db 9F       		.byte	0x9f
 12985 14dc 00000000 		.4byte	0
 12986 14e0 00000000 		.4byte	0
 12987              	.LLST117:
 12988 14e4 00000000 		.4byte	.LVL273
 12989 14e8 12000000 		.4byte	.LVL274
 12990 14ec 0100     		.2byte	0x1
 12991 14ee 53       		.byte	0x53
 12992 14ef 12000000 		.4byte	.LVL274
 12993 14f3 5C000000 		.4byte	.LVL281
 12994 14f7 0100     		.2byte	0x1
 12995 14f9 54       		.byte	0x54
 12996 14fa 5C000000 		.4byte	.LVL281
 12997 14fe 62000000 		.4byte	.LFE55
 12998 1502 0400     		.2byte	0x4
 12999 1504 F3       		.byte	0xf3
 13000 1505 01       		.uleb128 0x1
 13001 1506 53       		.byte	0x53
 13002 1507 9F       		.byte	0x9f
 13003 1508 00000000 		.4byte	0
 13004 150c 00000000 		.4byte	0
 13005              	.LLST118:
 13006 1510 00000000 		.4byte	.LFB56
 13007 1514 02000000 		.4byte	.LCFI58
 13008 1518 0200     		.2byte	0x2
 13009 151a 7D       		.byte	0x7d
 13010 151b 00       		.sleb128 0
 13011 151c 02000000 		.4byte	.LCFI58
 13012 1520 0C000000 		.4byte	.LCFI59
 13013 1524 0200     		.2byte	0x2
 13014 1526 7D       		.byte	0x7d
 13015 1527 14       		.sleb128 20
 13016 1528 0C000000 		.4byte	.LCFI59
 13017 152c 10000000 		.4byte	.LCFI60
 13018 1530 0200     		.2byte	0x2
 13019 1532 7D       		.byte	0x7d
 13020 1533 24       		.sleb128 36
 13021 1534 10000000 		.4byte	.LCFI60
 13022 1538 AE000000 		.4byte	.LFE56
 13023 153c 0200     		.2byte	0x2
 13024 153e 7D       		.byte	0x7d
 13025 153f 38       		.sleb128 56
 13026 1540 00000000 		.4byte	0
 13027 1544 00000000 		.4byte	0
 13028              	.LLST119:
 13029 1548 00000000 		.4byte	.LVL283
 13030 154c 12000000 		.4byte	.LVL284
 13031 1550 0100     		.2byte	0x1
 13032 1552 50       		.byte	0x50
 13033 1553 12000000 		.4byte	.LVL284
 13034 1557 AE000000 		.4byte	.LFE56
 13035 155b 0400     		.2byte	0x4
 13036 155d F3       		.byte	0xf3
 13037 155e 01       		.uleb128 0x1
 13038 155f 50       		.byte	0x50
 13039 1560 9F       		.byte	0x9f
ARM GAS  C:\Users\Steve\AppData\Local\Temp\ccroCuoh.s 			page 247


 13040 1561 00000000 		.4byte	0
 13041 1565 00000000 		.4byte	0
 13042              	.LLST120:
 13043 1569 00000000 		.4byte	.LVL283
 13044 156d 4B000000 		.4byte	.LVL286-1
 13045 1571 0100     		.2byte	0x1
 13046 1573 51       		.byte	0x51
 13047 1574 4B000000 		.4byte	.LVL286-1
 13048 1578 A2000000 		.4byte	.LVL292
 13049 157c 0100     		.2byte	0x1
 13050 157e 58       		.byte	0x58
 13051 157f A2000000 		.4byte	.LVL292
 13052 1583 AE000000 		.4byte	.LFE56
 13053 1587 0400     		.2byte	0x4
 13054 1589 F3       		.byte	0xf3
 13055 158a 01       		.uleb128 0x1
 13056 158b 51       		.byte	0x51
 13057 158c 9F       		.byte	0x9f
 13058 158d 00000000 		.4byte	0
 13059 1591 00000000 		.4byte	0
 13060              	.LLST121:
 13061 1595 00000000 		.4byte	.LVL283
 13062 1599 22000000 		.4byte	.LVL285
 13063 159d 0100     		.2byte	0x1
 13064 159f 53       		.byte	0x53
 13065 15a0 22000000 		.4byte	.LVL285
 13066 15a4 A2000000 		.4byte	.LVL291
 13067 15a8 0100     		.2byte	0x1
 13068 15aa 54       		.byte	0x54
 13069 15ab A2000000 		.4byte	.LVL291
 13070 15af AE000000 		.4byte	.LFE56
 13071 15b3 0400     		.2byte	0x4
 13072 15b5 F3       		.byte	0xf3
 13073 15b6 01       		.uleb128 0x1
 13074 15b7 53       		.byte	0x53
 13075 15b8 9F       		.byte	0x9f
 13076 15b9 00000000 		.4byte	0
 13077 15bd 00000000 		.4byte	0
 13078              	.LLST122:
 13079 15c1 00000000 		.4byte	.LFB57
 13080 15c5 02000000 		.4byte	.LCFI61
 13081 15c9 0200     		.2byte	0x2
 13082 15cb 7D       		.byte	0x7d
 13083 15cc 00       		.sleb128 0
 13084 15cd 02000000 		.4byte	.LCFI61
 13085 15d1 08000000 		.4byte	.LCFI62
 13086 15d5 0200     		.2byte	0x2
 13087 15d7 7D       		.byte	0x7d
 13088 15d8 14       		.sleb128 20
 13089 15d9 08000000 		.4byte	.LCFI62
 13090 15dd 14000000 		.4byte	.LCFI63
 13091 15e1 0200     		.2byte	0x2
 13092 15e3 7D       		.byte	0x7d
 13093 15e4 1C       		.sleb128 28
 13094 15e5 14000000 		.4byte	.LCFI63
 13095 15e9 8E000000 		.4byte	.LFE57
 13096 15ed 0200     		.2byte	0x2
ARM GAS  C:\Users\Steve\AppData\Local\Temp\ccroCuoh.s 			page 248


 13097 15ef 7D       		.byte	0x7d
 13098 15f0 30       		.sleb128 48
 13099 15f1 00000000 		.4byte	0
 13100 15f5 00000000 		.4byte	0
 13101              	.LLST123:
 13102 15f9 00000000 		.4byte	.LVL293
 13103 15fd 28000000 		.4byte	.LVL296
 13104 1601 0100     		.2byte	0x1
 13105 1603 50       		.byte	0x50
 13106 1604 28000000 		.4byte	.LVL296
 13107 1608 86000000 		.4byte	.LVL306
 13108 160c 0100     		.2byte	0x1
 13109 160e 58       		.byte	0x58
 13110 160f 86000000 		.4byte	.LVL306
 13111 1613 8E000000 		.4byte	.LFE57
 13112 1617 0400     		.2byte	0x4
 13113 1619 F3       		.byte	0xf3
 13114 161a 01       		.uleb128 0x1
 13115 161b 50       		.byte	0x50
 13116 161c 9F       		.byte	0x9f
 13117 161d 00000000 		.4byte	0
 13118 1621 00000000 		.4byte	0
 13119              	.LLST124:
 13120 1625 00000000 		.4byte	.LVL293
 13121 1629 1E000000 		.4byte	.LVL294
 13122 162d 0100     		.2byte	0x1
 13123 162f 51       		.byte	0x51
 13124 1630 1E000000 		.4byte	.LVL294
 13125 1634 68000000 		.4byte	.LVL301
 13126 1638 0100     		.2byte	0x1
 13127 163a 55       		.byte	0x55
 13128 163b 68000000 		.4byte	.LVL301
 13129 163f 86000000 		.4byte	.LVL305
 13130 1643 0300     		.2byte	0x3
 13131 1645 75       		.byte	0x75
 13132 1646 75       		.sleb128 -11
 13133 1647 9F       		.byte	0x9f
 13134 1648 86000000 		.4byte	.LVL305
 13135 164c 8E000000 		.4byte	.LFE57
 13136 1650 0400     		.2byte	0x4
 13137 1652 F3       		.byte	0xf3
 13138 1653 01       		.uleb128 0x1
 13139 1654 51       		.byte	0x51
 13140 1655 9F       		.byte	0x9f
 13141 1656 00000000 		.4byte	0
 13142 165a 00000000 		.4byte	0
 13143              	.LLST125:
 13144 165e 00000000 		.4byte	.LVL293
 13145 1662 20000000 		.4byte	.LVL295
 13146 1666 0100     		.2byte	0x1
 13147 1668 53       		.byte	0x53
 13148 1669 20000000 		.4byte	.LVL295
 13149 166d 86000000 		.4byte	.LVL304
 13150 1671 0100     		.2byte	0x1
 13151 1673 54       		.byte	0x54
 13152 1674 86000000 		.4byte	.LVL304
 13153 1678 8E000000 		.4byte	.LFE57
ARM GAS  C:\Users\Steve\AppData\Local\Temp\ccroCuoh.s 			page 249


 13154 167c 0400     		.2byte	0x4
 13155 167e F3       		.byte	0xf3
 13156 167f 01       		.uleb128 0x1
 13157 1680 53       		.byte	0x53
 13158 1681 9F       		.byte	0x9f
 13159 1682 00000000 		.4byte	0
 13160 1686 00000000 		.4byte	0
 13161              	.LLST126:
 13162 168a 00000000 		.4byte	.LFB58
 13163 168e 02000000 		.4byte	.LCFI64
 13164 1692 0200     		.2byte	0x2
 13165 1694 7D       		.byte	0x7d
 13166 1695 00       		.sleb128 0
 13167 1696 02000000 		.4byte	.LCFI64
 13168 169a 06000000 		.4byte	.LCFI65
 13169 169e 0200     		.2byte	0x2
 13170 16a0 7D       		.byte	0x7d
 13171 16a1 14       		.sleb128 20
 13172 16a2 06000000 		.4byte	.LCFI65
 13173 16a6 0A000000 		.4byte	.LCFI66
 13174 16aa 0200     		.2byte	0x2
 13175 16ac 7D       		.byte	0x7d
 13176 16ad 18       		.sleb128 24
 13177 16ae 0A000000 		.4byte	.LCFI66
 13178 16b2 70000000 		.4byte	.LFE58
 13179 16b6 0200     		.2byte	0x2
 13180 16b8 7D       		.byte	0x7d
 13181 16b9 28       		.sleb128 40
 13182 16ba 00000000 		.4byte	0
 13183 16be 00000000 		.4byte	0
 13184              	.LLST127:
 13185 16c2 00000000 		.4byte	.LVL307
 13186 16c6 23000000 		.4byte	.LVL310-1
 13187 16ca 0100     		.2byte	0x1
 13188 16cc 50       		.byte	0x50
 13189 16cd 23000000 		.4byte	.LVL310-1
 13190 16d1 70000000 		.4byte	.LFE58
 13191 16d5 0400     		.2byte	0x4
 13192 16d7 F3       		.byte	0xf3
 13193 16d8 01       		.uleb128 0x1
 13194 16d9 50       		.byte	0x50
 13195 16da 9F       		.byte	0x9f
 13196 16db 00000000 		.4byte	0
 13197 16df 00000000 		.4byte	0
 13198              	.LLST128:
 13199 16e3 00000000 		.4byte	.LVL307
 13200 16e7 14000000 		.4byte	.LVL308
 13201 16eb 0100     		.2byte	0x1
 13202 16ed 51       		.byte	0x51
 13203 16ee 14000000 		.4byte	.LVL308
 13204 16f2 58000000 		.4byte	.LVL313
 13205 16f6 0100     		.2byte	0x1
 13206 16f8 55       		.byte	0x55
 13207 16f9 58000000 		.4byte	.LVL313
 13208 16fd 6A000000 		.4byte	.LVL317
 13209 1701 0300     		.2byte	0x3
 13210 1703 75       		.byte	0x75
ARM GAS  C:\Users\Steve\AppData\Local\Temp\ccroCuoh.s 			page 250


 13211 1704 76       		.sleb128 -10
 13212 1705 9F       		.byte	0x9f
 13213 1706 6A000000 		.4byte	.LVL317
 13214 170a 70000000 		.4byte	.LFE58
 13215 170e 0400     		.2byte	0x4
 13216 1710 F3       		.byte	0xf3
 13217 1711 01       		.uleb128 0x1
 13218 1712 51       		.byte	0x51
 13219 1713 9F       		.byte	0x9f
 13220 1714 00000000 		.4byte	0
 13221 1718 00000000 		.4byte	0
 13222              	.LLST129:
 13223 171c 00000000 		.4byte	.LVL307
 13224 1720 18000000 		.4byte	.LVL309
 13225 1724 0100     		.2byte	0x1
 13226 1726 53       		.byte	0x53
 13227 1727 18000000 		.4byte	.LVL309
 13228 172b 6A000000 		.4byte	.LVL316
 13229 172f 0100     		.2byte	0x1
 13230 1731 54       		.byte	0x54
 13231 1732 6A000000 		.4byte	.LVL316
 13232 1736 70000000 		.4byte	.LFE58
 13233 173a 0400     		.2byte	0x4
 13234 173c F3       		.byte	0xf3
 13235 173d 01       		.uleb128 0x1
 13236 173e 53       		.byte	0x53
 13237 173f 9F       		.byte	0x9f
 13238 1740 00000000 		.4byte	0
 13239 1744 00000000 		.4byte	0
 13240              	.LLST130:
 13241 1748 00000000 		.4byte	.LFB59
 13242 174c 02000000 		.4byte	.LCFI67
 13243 1750 0200     		.2byte	0x2
 13244 1752 7D       		.byte	0x7d
 13245 1753 00       		.sleb128 0
 13246 1754 02000000 		.4byte	.LCFI67
 13247 1758 06000000 		.4byte	.LCFI68
 13248 175c 0200     		.2byte	0x2
 13249 175e 7D       		.byte	0x7d
 13250 175f 14       		.sleb128 20
 13251 1760 06000000 		.4byte	.LCFI68
 13252 1764 0C000000 		.4byte	.LCFI69
 13253 1768 0200     		.2byte	0x2
 13254 176a 7D       		.byte	0x7d
 13255 176b 18       		.sleb128 24
 13256 176c 0C000000 		.4byte	.LCFI69
 13257 1770 60000000 		.4byte	.LFE59
 13258 1774 0200     		.2byte	0x2
 13259 1776 7D       		.byte	0x7d
 13260 1777 28       		.sleb128 40
 13261 1778 00000000 		.4byte	0
 13262 177c 00000000 		.4byte	0
 13263              	.LLST131:
 13264 1780 00000000 		.4byte	.LVL318
 13265 1784 1C000000 		.4byte	.LVL320
 13266 1788 0100     		.2byte	0x1
 13267 178a 50       		.byte	0x50
ARM GAS  C:\Users\Steve\AppData\Local\Temp\ccroCuoh.s 			page 251


 13268 178b 1C000000 		.4byte	.LVL320
 13269 178f 44000000 		.4byte	.LVL323
 13270 1793 0100     		.2byte	0x1
 13271 1795 56       		.byte	0x56
 13272 1796 44000000 		.4byte	.LVL323
 13273 179a 5A000000 		.4byte	.LVL327
 13274 179e 0300     		.2byte	0x3
 13275 17a0 76       		.byte	0x76
 13276 17a1 7C       		.sleb128 -4
 13277 17a2 9F       		.byte	0x9f
 13278 17a3 5A000000 		.4byte	.LVL327
 13279 17a7 60000000 		.4byte	.LFE59
 13280 17ab 0400     		.2byte	0x4
 13281 17ad F3       		.byte	0xf3
 13282 17ae 01       		.uleb128 0x1
 13283 17af 50       		.byte	0x50
 13284 17b0 9F       		.byte	0x9f
 13285 17b1 00000000 		.4byte	0
 13286 17b5 00000000 		.4byte	0
 13287              	.LLST132:
 13288 17b9 00000000 		.4byte	.LVL318
 13289 17bd 23000000 		.4byte	.LVL321-1
 13290 17c1 0100     		.2byte	0x1
 13291 17c3 51       		.byte	0x51
 13292 17c4 23000000 		.4byte	.LVL321-1
 13293 17c8 60000000 		.4byte	.LFE59
 13294 17cc 0400     		.2byte	0x4
 13295 17ce F3       		.byte	0xf3
 13296 17cf 01       		.uleb128 0x1
 13297 17d0 51       		.byte	0x51
 13298 17d1 9F       		.byte	0x9f
 13299 17d2 00000000 		.4byte	0
 13300 17d6 00000000 		.4byte	0
 13301              	.LLST133:
 13302 17da 00000000 		.4byte	.LVL318
 13303 17de 14000000 		.4byte	.LVL319
 13304 17e2 0100     		.2byte	0x1
 13305 17e4 53       		.byte	0x53
 13306 17e5 14000000 		.4byte	.LVL319
 13307 17e9 5A000000 		.4byte	.LVL326
 13308 17ed 0100     		.2byte	0x1
 13309 17ef 54       		.byte	0x54
 13310 17f0 5A000000 		.4byte	.LVL326
 13311 17f4 60000000 		.4byte	.LFE59
 13312 17f8 0400     		.2byte	0x4
 13313 17fa F3       		.byte	0xf3
 13314 17fb 01       		.uleb128 0x1
 13315 17fc 53       		.byte	0x53
 13316 17fd 9F       		.byte	0x9f
 13317 17fe 00000000 		.4byte	0
 13318 1802 00000000 		.4byte	0
 13319              	.LLST134:
 13320 1806 00000000 		.4byte	.LFB60
 13321 180a 02000000 		.4byte	.LCFI70
 13322 180e 0200     		.2byte	0x2
 13323 1810 7D       		.byte	0x7d
 13324 1811 00       		.sleb128 0
ARM GAS  C:\Users\Steve\AppData\Local\Temp\ccroCuoh.s 			page 252


 13325 1812 02000000 		.4byte	.LCFI70
 13326 1816 06000000 		.4byte	.LCFI71
 13327 181a 0200     		.2byte	0x2
 13328 181c 7D       		.byte	0x7d
 13329 181d 14       		.sleb128 20
 13330 181e 06000000 		.4byte	.LCFI71
 13331 1822 54000000 		.4byte	.LFE60
 13332 1826 0200     		.2byte	0x2
 13333 1828 7D       		.byte	0x7d
 13334 1829 28       		.sleb128 40
 13335 182a 00000000 		.4byte	0
 13336 182e 00000000 		.4byte	0
 13337              	.LLST135:
 13338 1832 00000000 		.4byte	.LVL328
 13339 1836 16000000 		.4byte	.LVL329
 13340 183a 0100     		.2byte	0x1
 13341 183c 50       		.byte	0x50
 13342 183d 16000000 		.4byte	.LVL329
 13343 1841 54000000 		.4byte	.LFE60
 13344 1845 0400     		.2byte	0x4
 13345 1847 F3       		.byte	0xf3
 13346 1848 01       		.uleb128 0x1
 13347 1849 50       		.byte	0x50
 13348 184a 9F       		.byte	0x9f
 13349 184b 00000000 		.4byte	0
 13350 184f 00000000 		.4byte	0
 13351              	.LLST136:
 13352 1853 00000000 		.4byte	.LVL328
 13353 1857 1D000000 		.4byte	.LVL331-1
 13354 185b 0100     		.2byte	0x1
 13355 185d 51       		.byte	0x51
 13356 185e 1D000000 		.4byte	.LVL331-1
 13357 1862 54000000 		.4byte	.LFE60
 13358 1866 0400     		.2byte	0x4
 13359 1868 F3       		.byte	0xf3
 13360 1869 01       		.uleb128 0x1
 13361 186a 51       		.byte	0x51
 13362 186b 9F       		.byte	0x9f
 13363 186c 00000000 		.4byte	0
 13364 1870 00000000 		.4byte	0
 13365              	.LLST137:
 13366 1874 00000000 		.4byte	.LVL328
 13367 1878 18000000 		.4byte	.LVL330
 13368 187c 0100     		.2byte	0x1
 13369 187e 53       		.byte	0x53
 13370 187f 18000000 		.4byte	.LVL330
 13371 1883 52000000 		.4byte	.LVL335
 13372 1887 0100     		.2byte	0x1
 13373 1889 54       		.byte	0x54
 13374 188a 52000000 		.4byte	.LVL335
 13375 188e 54000000 		.4byte	.LFE60
 13376 1892 0400     		.2byte	0x4
 13377 1894 F3       		.byte	0xf3
 13378 1895 01       		.uleb128 0x1
 13379 1896 53       		.byte	0x53
 13380 1897 9F       		.byte	0x9f
 13381 1898 00000000 		.4byte	0
ARM GAS  C:\Users\Steve\AppData\Local\Temp\ccroCuoh.s 			page 253


 13382 189c 00000000 		.4byte	0
 13383              	.LLST138:
 13384 18a0 00000000 		.4byte	.LFB61
 13385 18a4 02000000 		.4byte	.LCFI72
 13386 18a8 0200     		.2byte	0x2
 13387 18aa 7D       		.byte	0x7d
 13388 18ab 00       		.sleb128 0
 13389 18ac 02000000 		.4byte	.LCFI72
 13390 18b0 06000000 		.4byte	.LCFI73
 13391 18b4 0200     		.2byte	0x2
 13392 18b6 7D       		.byte	0x7d
 13393 18b7 14       		.sleb128 20
 13394 18b8 06000000 		.4byte	.LCFI73
 13395 18bc 40000000 		.4byte	.LFE61
 13396 18c0 0200     		.2byte	0x2
 13397 18c2 7D       		.byte	0x7d
 13398 18c3 28       		.sleb128 40
 13399 18c4 00000000 		.4byte	0
 13400 18c8 00000000 		.4byte	0
 13401              	.LLST139:
 13402 18cc 00000000 		.4byte	.LVL336
 13403 18d0 16000000 		.4byte	.LVL337
 13404 18d4 0100     		.2byte	0x1
 13405 18d6 50       		.byte	0x50
 13406 18d7 16000000 		.4byte	.LVL337
 13407 18db 40000000 		.4byte	.LFE61
 13408 18df 0400     		.2byte	0x4
 13409 18e1 F3       		.byte	0xf3
 13410 18e2 01       		.uleb128 0x1
 13411 18e3 50       		.byte	0x50
 13412 18e4 9F       		.byte	0x9f
 13413 18e5 00000000 		.4byte	0
 13414 18e9 00000000 		.4byte	0
 13415              	.LLST140:
 13416 18ed 00000000 		.4byte	.LVL336
 13417 18f1 1D000000 		.4byte	.LVL339-1
 13418 18f5 0100     		.2byte	0x1
 13419 18f7 51       		.byte	0x51
 13420 18f8 1D000000 		.4byte	.LVL339-1
 13421 18fc 40000000 		.4byte	.LFE61
 13422 1900 0400     		.2byte	0x4
 13423 1902 F3       		.byte	0xf3
 13424 1903 01       		.uleb128 0x1
 13425 1904 51       		.byte	0x51
 13426 1905 9F       		.byte	0x9f
 13427 1906 00000000 		.4byte	0
 13428 190a 00000000 		.4byte	0
 13429              	.LLST141:
 13430 190e 00000000 		.4byte	.LVL336
 13431 1912 18000000 		.4byte	.LVL338
 13432 1916 0100     		.2byte	0x1
 13433 1918 53       		.byte	0x53
 13434 1919 18000000 		.4byte	.LVL338
 13435 191d 3E000000 		.4byte	.LVL342
 13436 1921 0100     		.2byte	0x1
 13437 1923 54       		.byte	0x54
 13438 1924 3E000000 		.4byte	.LVL342
ARM GAS  C:\Users\Steve\AppData\Local\Temp\ccroCuoh.s 			page 254


 13439 1928 40000000 		.4byte	.LFE61
 13440 192c 0400     		.2byte	0x4
 13441 192e F3       		.byte	0xf3
 13442 192f 01       		.uleb128 0x1
 13443 1930 53       		.byte	0x53
 13444 1931 9F       		.byte	0x9f
 13445 1932 00000000 		.4byte	0
 13446 1936 00000000 		.4byte	0
 13447              	.LLST142:
 13448 193a 00000000 		.4byte	.LFB64
 13449 193e 02000000 		.4byte	.LCFI74
 13450 1942 0200     		.2byte	0x2
 13451 1944 7D       		.byte	0x7d
 13452 1945 00       		.sleb128 0
 13453 1946 02000000 		.4byte	.LCFI74
 13454 194a 04000000 		.4byte	.LCFI75
 13455 194e 0200     		.2byte	0x2
 13456 1950 7D       		.byte	0x7d
 13457 1951 04       		.sleb128 4
 13458 1952 04000000 		.4byte	.LCFI75
 13459 1956 FC000000 		.4byte	.LFE64
 13460 195a 0200     		.2byte	0x2
 13461 195c 7D       		.byte	0x7d
 13462 195d 10       		.sleb128 16
 13463 195e 00000000 		.4byte	0
 13464 1962 00000000 		.4byte	0
 13465              	.LLST143:
 13466 1966 00000000 		.4byte	.LVL343
 13467 196a 0E000000 		.4byte	.LVL344
 13468 196e 0100     		.2byte	0x1
 13469 1970 50       		.byte	0x50
 13470 1971 0E000000 		.4byte	.LVL344
 13471 1975 1E000000 		.4byte	.LVL348
 13472 1979 0400     		.2byte	0x4
 13473 197b F3       		.byte	0xf3
 13474 197c 01       		.uleb128 0x1
 13475 197d 50       		.byte	0x50
 13476 197e 9F       		.byte	0x9f
 13477 197f 1E000000 		.4byte	.LVL348
 13478 1983 20000000 		.4byte	.LVL349
 13479 1987 0100     		.2byte	0x1
 13480 1989 50       		.byte	0x50
 13481 198a 20000000 		.4byte	.LVL349
 13482 198e FC000000 		.4byte	.LFE64
 13483 1992 0400     		.2byte	0x4
 13484 1994 F3       		.byte	0xf3
 13485 1995 01       		.uleb128 0x1
 13486 1996 50       		.byte	0x50
 13487 1997 9F       		.byte	0x9f
 13488 1998 00000000 		.4byte	0
 13489 199c 00000000 		.4byte	0
 13490              	.LLST144:
 13491 19a0 00000000 		.4byte	.LVL343
 13492 19a4 14000000 		.4byte	.LVL345
 13493 19a8 0100     		.2byte	0x1
 13494 19aa 51       		.byte	0x51
 13495 19ab 14000000 		.4byte	.LVL345
ARM GAS  C:\Users\Steve\AppData\Local\Temp\ccroCuoh.s 			page 255


 13496 19af 1E000000 		.4byte	.LVL348
 13497 19b3 0400     		.2byte	0x4
 13498 19b5 F3       		.byte	0xf3
 13499 19b6 01       		.uleb128 0x1
 13500 19b7 51       		.byte	0x51
 13501 19b8 9F       		.byte	0x9f
 13502 19b9 1E000000 		.4byte	.LVL348
 13503 19bd 2C000000 		.4byte	.LVL350
 13504 19c1 0100     		.2byte	0x1
 13505 19c3 51       		.byte	0x51
 13506 19c4 2C000000 		.4byte	.LVL350
 13507 19c8 34000000 		.4byte	.LVL353
 13508 19cc 0400     		.2byte	0x4
 13509 19ce F3       		.byte	0xf3
 13510 19cf 01       		.uleb128 0x1
 13511 19d0 51       		.byte	0x51
 13512 19d1 9F       		.byte	0x9f
 13513 19d2 34000000 		.4byte	.LVL353
 13514 19d6 3A000000 		.4byte	.LVL354
 13515 19da 0100     		.2byte	0x1
 13516 19dc 51       		.byte	0x51
 13517 19dd 3A000000 		.4byte	.LVL354
 13518 19e1 42000000 		.4byte	.LVL357
 13519 19e5 0400     		.2byte	0x4
 13520 19e7 F3       		.byte	0xf3
 13521 19e8 01       		.uleb128 0x1
 13522 19e9 51       		.byte	0x51
 13523 19ea 9F       		.byte	0x9f
 13524 19eb 42000000 		.4byte	.LVL357
 13525 19ef 48000000 		.4byte	.LVL358
 13526 19f3 0100     		.2byte	0x1
 13527 19f5 51       		.byte	0x51
 13528 19f6 48000000 		.4byte	.LVL358
 13529 19fa 50000000 		.4byte	.LVL361
 13530 19fe 0400     		.2byte	0x4
 13531 1a00 F3       		.byte	0xf3
 13532 1a01 01       		.uleb128 0x1
 13533 1a02 51       		.byte	0x51
 13534 1a03 9F       		.byte	0x9f
 13535 1a04 50000000 		.4byte	.LVL361
 13536 1a08 56000000 		.4byte	.LVL362
 13537 1a0c 0100     		.2byte	0x1
 13538 1a0e 51       		.byte	0x51
 13539 1a0f 56000000 		.4byte	.LVL362
 13540 1a13 5E000000 		.4byte	.LVL365
 13541 1a17 0400     		.2byte	0x4
 13542 1a19 F3       		.byte	0xf3
 13543 1a1a 01       		.uleb128 0x1
 13544 1a1b 51       		.byte	0x51
 13545 1a1c 9F       		.byte	0x9f
 13546 1a1d 5E000000 		.4byte	.LVL365
 13547 1a21 64000000 		.4byte	.LVL366
 13548 1a25 0100     		.2byte	0x1
 13549 1a27 51       		.byte	0x51
 13550 1a28 64000000 		.4byte	.LVL366
 13551 1a2c 6C000000 		.4byte	.LVL369
 13552 1a30 0400     		.2byte	0x4
ARM GAS  C:\Users\Steve\AppData\Local\Temp\ccroCuoh.s 			page 256


 13553 1a32 F3       		.byte	0xf3
 13554 1a33 01       		.uleb128 0x1
 13555 1a34 51       		.byte	0x51
 13556 1a35 9F       		.byte	0x9f
 13557 1a36 6C000000 		.4byte	.LVL369
 13558 1a3a 72000000 		.4byte	.LVL370
 13559 1a3e 0100     		.2byte	0x1
 13560 1a40 51       		.byte	0x51
 13561 1a41 72000000 		.4byte	.LVL370
 13562 1a45 7A000000 		.4byte	.LVL373
 13563 1a49 0400     		.2byte	0x4
 13564 1a4b F3       		.byte	0xf3
 13565 1a4c 01       		.uleb128 0x1
 13566 1a4d 51       		.byte	0x51
 13567 1a4e 9F       		.byte	0x9f
 13568 1a4f 7A000000 		.4byte	.LVL373
 13569 1a53 80000000 		.4byte	.LVL374
 13570 1a57 0100     		.2byte	0x1
 13571 1a59 51       		.byte	0x51
 13572 1a5a 80000000 		.4byte	.LVL374
 13573 1a5e 88000000 		.4byte	.LVL377
 13574 1a62 0400     		.2byte	0x4
 13575 1a64 F3       		.byte	0xf3
 13576 1a65 01       		.uleb128 0x1
 13577 1a66 51       		.byte	0x51
 13578 1a67 9F       		.byte	0x9f
 13579 1a68 88000000 		.4byte	.LVL377
 13580 1a6c 8E000000 		.4byte	.LVL378
 13581 1a70 0100     		.2byte	0x1
 13582 1a72 51       		.byte	0x51
 13583 1a73 8E000000 		.4byte	.LVL378
 13584 1a77 96000000 		.4byte	.LVL381
 13585 1a7b 0400     		.2byte	0x4
 13586 1a7d F3       		.byte	0xf3
 13587 1a7e 01       		.uleb128 0x1
 13588 1a7f 51       		.byte	0x51
 13589 1a80 9F       		.byte	0x9f
 13590 1a81 96000000 		.4byte	.LVL381
 13591 1a85 9C000000 		.4byte	.LVL382
 13592 1a89 0100     		.2byte	0x1
 13593 1a8b 51       		.byte	0x51
 13594 1a8c 9C000000 		.4byte	.LVL382
 13595 1a90 A4000000 		.4byte	.LVL385
 13596 1a94 0400     		.2byte	0x4
 13597 1a96 F3       		.byte	0xf3
 13598 1a97 01       		.uleb128 0x1
 13599 1a98 51       		.byte	0x51
 13600 1a99 9F       		.byte	0x9f
 13601 1a9a A4000000 		.4byte	.LVL385
 13602 1a9e AA000000 		.4byte	.LVL386
 13603 1aa2 0100     		.2byte	0x1
 13604 1aa4 51       		.byte	0x51
 13605 1aa5 AA000000 		.4byte	.LVL386
 13606 1aa9 B2000000 		.4byte	.LVL389
 13607 1aad 0400     		.2byte	0x4
 13608 1aaf F3       		.byte	0xf3
 13609 1ab0 01       		.uleb128 0x1
ARM GAS  C:\Users\Steve\AppData\Local\Temp\ccroCuoh.s 			page 257


 13610 1ab1 51       		.byte	0x51
 13611 1ab2 9F       		.byte	0x9f
 13612 1ab3 B2000000 		.4byte	.LVL389
 13613 1ab7 B8000000 		.4byte	.LVL390
 13614 1abb 0100     		.2byte	0x1
 13615 1abd 51       		.byte	0x51
 13616 1abe B8000000 		.4byte	.LVL390
 13617 1ac2 C0000000 		.4byte	.LVL393
 13618 1ac6 0400     		.2byte	0x4
 13619 1ac8 F3       		.byte	0xf3
 13620 1ac9 01       		.uleb128 0x1
 13621 1aca 51       		.byte	0x51
 13622 1acb 9F       		.byte	0x9f
 13623 1acc C0000000 		.4byte	.LVL393
 13624 1ad0 C6000000 		.4byte	.LVL394
 13625 1ad4 0100     		.2byte	0x1
 13626 1ad6 51       		.byte	0x51
 13627 1ad7 C6000000 		.4byte	.LVL394
 13628 1adb CE000000 		.4byte	.LVL397
 13629 1adf 0400     		.2byte	0x4
 13630 1ae1 F3       		.byte	0xf3
 13631 1ae2 01       		.uleb128 0x1
 13632 1ae3 51       		.byte	0x51
 13633 1ae4 9F       		.byte	0x9f
 13634 1ae5 CE000000 		.4byte	.LVL397
 13635 1ae9 D4000000 		.4byte	.LVL398
 13636 1aed 0100     		.2byte	0x1
 13637 1aef 51       		.byte	0x51
 13638 1af0 D4000000 		.4byte	.LVL398
 13639 1af4 DC000000 		.4byte	.LVL401
 13640 1af8 0400     		.2byte	0x4
 13641 1afa F3       		.byte	0xf3
 13642 1afb 01       		.uleb128 0x1
 13643 1afc 51       		.byte	0x51
 13644 1afd 9F       		.byte	0x9f
 13645 1afe DC000000 		.4byte	.LVL401
 13646 1b02 E2000000 		.4byte	.LVL402
 13647 1b06 0100     		.2byte	0x1
 13648 1b08 51       		.byte	0x51
 13649 1b09 E2000000 		.4byte	.LVL402
 13650 1b0d EA000000 		.4byte	.LVL405
 13651 1b11 0400     		.2byte	0x4
 13652 1b13 F3       		.byte	0xf3
 13653 1b14 01       		.uleb128 0x1
 13654 1b15 51       		.byte	0x51
 13655 1b16 9F       		.byte	0x9f
 13656 1b17 EA000000 		.4byte	.LVL405
 13657 1b1b F0000000 		.4byte	.LVL406
 13658 1b1f 0100     		.2byte	0x1
 13659 1b21 51       		.byte	0x51
 13660 1b22 F0000000 		.4byte	.LVL406
 13661 1b26 FC000000 		.4byte	.LFE64
 13662 1b2a 0400     		.2byte	0x4
 13663 1b2c F3       		.byte	0xf3
 13664 1b2d 01       		.uleb128 0x1
 13665 1b2e 51       		.byte	0x51
 13666 1b2f 9F       		.byte	0x9f
ARM GAS  C:\Users\Steve\AppData\Local\Temp\ccroCuoh.s 			page 258


 13667 1b30 00000000 		.4byte	0
 13668 1b34 00000000 		.4byte	0
 13669              	.LLST145:
 13670 1b38 00000000 		.4byte	.LVL343
 13671 1b3c 16000000 		.4byte	.LVL346
 13672 1b40 0100     		.2byte	0x1
 13673 1b42 52       		.byte	0x52
 13674 1b43 16000000 		.4byte	.LVL346
 13675 1b47 1E000000 		.4byte	.LVL348
 13676 1b4b 0400     		.2byte	0x4
 13677 1b4d F3       		.byte	0xf3
 13678 1b4e 01       		.uleb128 0x1
 13679 1b4f 52       		.byte	0x52
 13680 1b50 9F       		.byte	0x9f
 13681 1b51 1E000000 		.4byte	.LVL348
 13682 1b55 2E000000 		.4byte	.LVL351
 13683 1b59 0100     		.2byte	0x1
 13684 1b5b 52       		.byte	0x52
 13685 1b5c 2E000000 		.4byte	.LVL351
 13686 1b60 34000000 		.4byte	.LVL353
 13687 1b64 0400     		.2byte	0x4
 13688 1b66 F3       		.byte	0xf3
 13689 1b67 01       		.uleb128 0x1
 13690 1b68 52       		.byte	0x52
 13691 1b69 9F       		.byte	0x9f
 13692 1b6a 34000000 		.4byte	.LVL353
 13693 1b6e 3C000000 		.4byte	.LVL355
 13694 1b72 0100     		.2byte	0x1
 13695 1b74 52       		.byte	0x52
 13696 1b75 3C000000 		.4byte	.LVL355
 13697 1b79 42000000 		.4byte	.LVL357
 13698 1b7d 0400     		.2byte	0x4
 13699 1b7f F3       		.byte	0xf3
 13700 1b80 01       		.uleb128 0x1
 13701 1b81 52       		.byte	0x52
 13702 1b82 9F       		.byte	0x9f
 13703 1b83 42000000 		.4byte	.LVL357
 13704 1b87 4A000000 		.4byte	.LVL359
 13705 1b8b 0100     		.2byte	0x1
 13706 1b8d 52       		.byte	0x52
 13707 1b8e 4A000000 		.4byte	.LVL359
 13708 1b92 50000000 		.4byte	.LVL361
 13709 1b96 0400     		.2byte	0x4
 13710 1b98 F3       		.byte	0xf3
 13711 1b99 01       		.uleb128 0x1
 13712 1b9a 52       		.byte	0x52
 13713 1b9b 9F       		.byte	0x9f
 13714 1b9c 50000000 		.4byte	.LVL361
 13715 1ba0 58000000 		.4byte	.LVL363
 13716 1ba4 0100     		.2byte	0x1
 13717 1ba6 52       		.byte	0x52
 13718 1ba7 58000000 		.4byte	.LVL363
 13719 1bab 5E000000 		.4byte	.LVL365
 13720 1baf 0400     		.2byte	0x4
 13721 1bb1 F3       		.byte	0xf3
 13722 1bb2 01       		.uleb128 0x1
 13723 1bb3 52       		.byte	0x52
ARM GAS  C:\Users\Steve\AppData\Local\Temp\ccroCuoh.s 			page 259


 13724 1bb4 9F       		.byte	0x9f
 13725 1bb5 5E000000 		.4byte	.LVL365
 13726 1bb9 66000000 		.4byte	.LVL367
 13727 1bbd 0100     		.2byte	0x1
 13728 1bbf 52       		.byte	0x52
 13729 1bc0 66000000 		.4byte	.LVL367
 13730 1bc4 6C000000 		.4byte	.LVL369
 13731 1bc8 0400     		.2byte	0x4
 13732 1bca F3       		.byte	0xf3
 13733 1bcb 01       		.uleb128 0x1
 13734 1bcc 52       		.byte	0x52
 13735 1bcd 9F       		.byte	0x9f
 13736 1bce 6C000000 		.4byte	.LVL369
 13737 1bd2 74000000 		.4byte	.LVL371
 13738 1bd6 0100     		.2byte	0x1
 13739 1bd8 52       		.byte	0x52
 13740 1bd9 74000000 		.4byte	.LVL371
 13741 1bdd 7A000000 		.4byte	.LVL373
 13742 1be1 0400     		.2byte	0x4
 13743 1be3 F3       		.byte	0xf3
 13744 1be4 01       		.uleb128 0x1
 13745 1be5 52       		.byte	0x52
 13746 1be6 9F       		.byte	0x9f
 13747 1be7 7A000000 		.4byte	.LVL373
 13748 1beb 82000000 		.4byte	.LVL375
 13749 1bef 0100     		.2byte	0x1
 13750 1bf1 52       		.byte	0x52
 13751 1bf2 82000000 		.4byte	.LVL375
 13752 1bf6 88000000 		.4byte	.LVL377
 13753 1bfa 0400     		.2byte	0x4
 13754 1bfc F3       		.byte	0xf3
 13755 1bfd 01       		.uleb128 0x1
 13756 1bfe 52       		.byte	0x52
 13757 1bff 9F       		.byte	0x9f
 13758 1c00 88000000 		.4byte	.LVL377
 13759 1c04 90000000 		.4byte	.LVL379
 13760 1c08 0100     		.2byte	0x1
 13761 1c0a 52       		.byte	0x52
 13762 1c0b 90000000 		.4byte	.LVL379
 13763 1c0f 96000000 		.4byte	.LVL381
 13764 1c13 0400     		.2byte	0x4
 13765 1c15 F3       		.byte	0xf3
 13766 1c16 01       		.uleb128 0x1
 13767 1c17 52       		.byte	0x52
 13768 1c18 9F       		.byte	0x9f
 13769 1c19 96000000 		.4byte	.LVL381
 13770 1c1d 9E000000 		.4byte	.LVL383
 13771 1c21 0100     		.2byte	0x1
 13772 1c23 52       		.byte	0x52
 13773 1c24 9E000000 		.4byte	.LVL383
 13774 1c28 A4000000 		.4byte	.LVL385
 13775 1c2c 0400     		.2byte	0x4
 13776 1c2e F3       		.byte	0xf3
 13777 1c2f 01       		.uleb128 0x1
 13778 1c30 52       		.byte	0x52
 13779 1c31 9F       		.byte	0x9f
 13780 1c32 A4000000 		.4byte	.LVL385
ARM GAS  C:\Users\Steve\AppData\Local\Temp\ccroCuoh.s 			page 260


 13781 1c36 AC000000 		.4byte	.LVL387
 13782 1c3a 0100     		.2byte	0x1
 13783 1c3c 52       		.byte	0x52
 13784 1c3d AC000000 		.4byte	.LVL387
 13785 1c41 B2000000 		.4byte	.LVL389
 13786 1c45 0400     		.2byte	0x4
 13787 1c47 F3       		.byte	0xf3
 13788 1c48 01       		.uleb128 0x1
 13789 1c49 52       		.byte	0x52
 13790 1c4a 9F       		.byte	0x9f
 13791 1c4b B2000000 		.4byte	.LVL389
 13792 1c4f BA000000 		.4byte	.LVL391
 13793 1c53 0100     		.2byte	0x1
 13794 1c55 52       		.byte	0x52
 13795 1c56 BA000000 		.4byte	.LVL391
 13796 1c5a C0000000 		.4byte	.LVL393
 13797 1c5e 0400     		.2byte	0x4
 13798 1c60 F3       		.byte	0xf3
 13799 1c61 01       		.uleb128 0x1
 13800 1c62 52       		.byte	0x52
 13801 1c63 9F       		.byte	0x9f
 13802 1c64 C0000000 		.4byte	.LVL393
 13803 1c68 C8000000 		.4byte	.LVL395
 13804 1c6c 0100     		.2byte	0x1
 13805 1c6e 52       		.byte	0x52
 13806 1c6f C8000000 		.4byte	.LVL395
 13807 1c73 CE000000 		.4byte	.LVL397
 13808 1c77 0400     		.2byte	0x4
 13809 1c79 F3       		.byte	0xf3
 13810 1c7a 01       		.uleb128 0x1
 13811 1c7b 52       		.byte	0x52
 13812 1c7c 9F       		.byte	0x9f
 13813 1c7d CE000000 		.4byte	.LVL397
 13814 1c81 D6000000 		.4byte	.LVL399
 13815 1c85 0100     		.2byte	0x1
 13816 1c87 52       		.byte	0x52
 13817 1c88 D6000000 		.4byte	.LVL399
 13818 1c8c DC000000 		.4byte	.LVL401
 13819 1c90 0400     		.2byte	0x4
 13820 1c92 F3       		.byte	0xf3
 13821 1c93 01       		.uleb128 0x1
 13822 1c94 52       		.byte	0x52
 13823 1c95 9F       		.byte	0x9f
 13824 1c96 DC000000 		.4byte	.LVL401
 13825 1c9a E4000000 		.4byte	.LVL403
 13826 1c9e 0100     		.2byte	0x1
 13827 1ca0 52       		.byte	0x52
 13828 1ca1 E4000000 		.4byte	.LVL403
 13829 1ca5 EA000000 		.4byte	.LVL405
 13830 1ca9 0400     		.2byte	0x4
 13831 1cab F3       		.byte	0xf3
 13832 1cac 01       		.uleb128 0x1
 13833 1cad 52       		.byte	0x52
 13834 1cae 9F       		.byte	0x9f
 13835 1caf EA000000 		.4byte	.LVL405
 13836 1cb3 F2000000 		.4byte	.LVL407
 13837 1cb7 0100     		.2byte	0x1
ARM GAS  C:\Users\Steve\AppData\Local\Temp\ccroCuoh.s 			page 261


 13838 1cb9 52       		.byte	0x52
 13839 1cba F2000000 		.4byte	.LVL407
 13840 1cbe FC000000 		.4byte	.LFE64
 13841 1cc2 0400     		.2byte	0x4
 13842 1cc4 F3       		.byte	0xf3
 13843 1cc5 01       		.uleb128 0x1
 13844 1cc6 52       		.byte	0x52
 13845 1cc7 9F       		.byte	0x9f
 13846 1cc8 00000000 		.4byte	0
 13847 1ccc 00000000 		.4byte	0
 13848              	.LLST146:
 13849 1cd0 00000000 		.4byte	.LFB63
 13850 1cd4 02000000 		.4byte	.LCFI76
 13851 1cd8 0200     		.2byte	0x2
 13852 1cda 7D       		.byte	0x7d
 13853 1cdb 00       		.sleb128 0
 13854 1cdc 02000000 		.4byte	.LCFI76
 13855 1ce0 04000000 		.4byte	.LCFI77
 13856 1ce4 0200     		.2byte	0x2
 13857 1ce6 7D       		.byte	0x7d
 13858 1ce7 10       		.sleb128 16
 13859 1ce8 04000000 		.4byte	.LCFI77
 13860 1cec 56000000 		.4byte	.LFE63
 13861 1cf0 0200     		.2byte	0x2
 13862 1cf2 7D       		.byte	0x7d
 13863 1cf3 20       		.sleb128 32
 13864 1cf4 00000000 		.4byte	0
 13865 1cf8 00000000 		.4byte	0
 13866              	.LLST147:
 13867 1cfc 00000000 		.4byte	.LVL409
 13868 1d00 0E000000 		.4byte	.LVL410
 13869 1d04 0100     		.2byte	0x1
 13870 1d06 50       		.byte	0x50
 13871 1d07 0E000000 		.4byte	.LVL410
 13872 1d0b 56000000 		.4byte	.LFE63
 13873 1d0f 0400     		.2byte	0x4
 13874 1d11 F3       		.byte	0xf3
 13875 1d12 01       		.uleb128 0x1
 13876 1d13 50       		.byte	0x50
 13877 1d14 9F       		.byte	0x9f
 13878 1d15 00000000 		.4byte	0
 13879 1d19 00000000 		.4byte	0
 13880              	.LLST148:
 13881 1d1d 00000000 		.4byte	.LVL409
 13882 1d21 14000000 		.4byte	.LVL411
 13883 1d25 0100     		.2byte	0x1
 13884 1d27 51       		.byte	0x51
 13885 1d28 14000000 		.4byte	.LVL411
 13886 1d2c 56000000 		.4byte	.LFE63
 13887 1d30 0400     		.2byte	0x4
 13888 1d32 F3       		.byte	0xf3
 13889 1d33 01       		.uleb128 0x1
 13890 1d34 51       		.byte	0x51
 13891 1d35 9F       		.byte	0x9f
 13892 1d36 00000000 		.4byte	0
 13893 1d3a 00000000 		.4byte	0
 13894              	.LLST149:
ARM GAS  C:\Users\Steve\AppData\Local\Temp\ccroCuoh.s 			page 262


 13895 1d3e 00000000 		.4byte	.LVL409
 13896 1d42 18000000 		.4byte	.LVL412
 13897 1d46 0100     		.2byte	0x1
 13898 1d48 53       		.byte	0x53
 13899 1d49 18000000 		.4byte	.LVL412
 13900 1d4d 54000000 		.4byte	.LVL418
 13901 1d51 0100     		.2byte	0x1
 13902 1d53 54       		.byte	0x54
 13903 1d54 54000000 		.4byte	.LVL418
 13904 1d58 56000000 		.4byte	.LFE63
 13905 1d5c 0400     		.2byte	0x4
 13906 1d5e F3       		.byte	0xf3
 13907 1d5f 01       		.uleb128 0x1
 13908 1d60 53       		.byte	0x53
 13909 1d61 9F       		.byte	0x9f
 13910 1d62 00000000 		.4byte	0
 13911 1d66 00000000 		.4byte	0
 13912              	.LLST150:
 13913 1d6a 0E000000 		.4byte	.LVL410
 13914 1d6e 1B000000 		.4byte	.LVL413-1
 13915 1d72 0100     		.2byte	0x1
 13916 1d74 50       		.byte	0x50
 13917 1d75 1B000000 		.4byte	.LVL413-1
 13918 1d79 54000000 		.4byte	.LVL419
 13919 1d7d 0500     		.2byte	0x5
 13920 1d7f 76       		.byte	0x76
 13921 1d80 00       		.sleb128 0
 13922 1d81 34       		.byte	0x34
 13923 1d82 25       		.byte	0x25
 13924 1d83 9F       		.byte	0x9f
 13925 1d84 00000000 		.4byte	0
 13926 1d88 00000000 		.4byte	0
 13927              	.LLST151:
 13928 1d8c 00000000 		.4byte	.LFB62
 13929 1d90 02000000 		.4byte	.LCFI78
 13930 1d94 0200     		.2byte	0x2
 13931 1d96 7D       		.byte	0x7d
 13932 1d97 00       		.sleb128 0
 13933 1d98 02000000 		.4byte	.LCFI78
 13934 1d9c 04000000 		.4byte	.LCFI79
 13935 1da0 0200     		.2byte	0x2
 13936 1da2 7D       		.byte	0x7d
 13937 1da3 10       		.sleb128 16
 13938 1da4 04000000 		.4byte	.LCFI79
 13939 1da8 4C000000 		.4byte	.LFE62
 13940 1dac 0200     		.2byte	0x2
 13941 1dae 7D       		.byte	0x7d
 13942 1daf 20       		.sleb128 32
 13943 1db0 00000000 		.4byte	0
 13944 1db4 00000000 		.4byte	0
 13945              	.LLST152:
 13946 1db8 00000000 		.4byte	.LVL420
 13947 1dbc 0C000000 		.4byte	.LVL421
 13948 1dc0 0100     		.2byte	0x1
 13949 1dc2 50       		.byte	0x50
 13950 1dc3 0C000000 		.4byte	.LVL421
 13951 1dc7 4C000000 		.4byte	.LFE62
ARM GAS  C:\Users\Steve\AppData\Local\Temp\ccroCuoh.s 			page 263


 13952 1dcb 0400     		.2byte	0x4
 13953 1dcd F3       		.byte	0xf3
 13954 1dce 01       		.uleb128 0x1
 13955 1dcf 50       		.byte	0x50
 13956 1dd0 9F       		.byte	0x9f
 13957 1dd1 00000000 		.4byte	0
 13958 1dd5 00000000 		.4byte	0
 13959              	.LLST153:
 13960 1dd9 00000000 		.4byte	.LVL420
 13961 1ddd 0E000000 		.4byte	.LVL422
 13962 1de1 0100     		.2byte	0x1
 13963 1de3 51       		.byte	0x51
 13964 1de4 0E000000 		.4byte	.LVL422
 13965 1de8 4C000000 		.4byte	.LFE62
 13966 1dec 0400     		.2byte	0x4
 13967 1dee F3       		.byte	0xf3
 13968 1def 01       		.uleb128 0x1
 13969 1df0 51       		.byte	0x51
 13970 1df1 9F       		.byte	0x9f
 13971 1df2 00000000 		.4byte	0
 13972 1df6 00000000 		.4byte	0
 13973              	.LLST154:
 13974 1dfa 00000000 		.4byte	.LVL420
 13975 1dfe 10000000 		.4byte	.LVL423
 13976 1e02 0100     		.2byte	0x1
 13977 1e04 52       		.byte	0x52
 13978 1e05 10000000 		.4byte	.LVL423
 13979 1e09 4C000000 		.4byte	.LFE62
 13980 1e0d 0400     		.2byte	0x4
 13981 1e0f F3       		.byte	0xf3
 13982 1e10 01       		.uleb128 0x1
 13983 1e11 52       		.byte	0x52
 13984 1e12 9F       		.byte	0x9f
 13985 1e13 00000000 		.4byte	0
 13986 1e17 00000000 		.4byte	0
 13987              	.LLST155:
 13988 1e1b 00000000 		.4byte	.LVL420
 13989 1e1f 0C000000 		.4byte	.LVL421
 13990 1e23 2000     		.2byte	0x20
 13991 1e25 70       		.byte	0x70
 13992 1e26 00       		.sleb128 0
 13993 1e27 3C       		.byte	0x3c
 13994 1e28 25       		.byte	0x25
 13995 1e29 9F       		.byte	0x9f
 13996 1e2a 93       		.byte	0x93
 13997 1e2b 01       		.uleb128 0x1
 13998 1e2c 70       		.byte	0x70
 13999 1e2d 00       		.sleb128 0
 14000 1e2e 38       		.byte	0x38
 14001 1e2f 25       		.byte	0x25
 14002 1e30 3F       		.byte	0x3f
 14003 1e31 1A       		.byte	0x1a
 14004 1e32 9F       		.byte	0x9f
 14005 1e33 93       		.byte	0x93
 14006 1e34 01       		.uleb128 0x1
 14007 1e35 70       		.byte	0x70
 14008 1e36 00       		.sleb128 0
ARM GAS  C:\Users\Steve\AppData\Local\Temp\ccroCuoh.s 			page 264


 14009 1e37 34       		.byte	0x34
 14010 1e38 25       		.byte	0x25
 14011 1e39 3F       		.byte	0x3f
 14012 1e3a 1A       		.byte	0x1a
 14013 1e3b 9F       		.byte	0x9f
 14014 1e3c 93       		.byte	0x93
 14015 1e3d 01       		.uleb128 0x1
 14016 1e3e 70       		.byte	0x70
 14017 1e3f 00       		.sleb128 0
 14018 1e40 3F       		.byte	0x3f
 14019 1e41 1A       		.byte	0x1a
 14020 1e42 9F       		.byte	0x9f
 14021 1e43 93       		.byte	0x93
 14022 1e44 01       		.uleb128 0x1
 14023 1e45 0C000000 		.4byte	.LVL421
 14024 1e49 4A000000 		.4byte	.LVL428
 14025 1e4d 2000     		.2byte	0x20
 14026 1e4f 75       		.byte	0x75
 14027 1e50 00       		.sleb128 0
 14028 1e51 3C       		.byte	0x3c
 14029 1e52 25       		.byte	0x25
 14030 1e53 9F       		.byte	0x9f
 14031 1e54 93       		.byte	0x93
 14032 1e55 01       		.uleb128 0x1
 14033 1e56 75       		.byte	0x75
 14034 1e57 00       		.sleb128 0
 14035 1e58 38       		.byte	0x38
 14036 1e59 25       		.byte	0x25
 14037 1e5a 3F       		.byte	0x3f
 14038 1e5b 1A       		.byte	0x1a
 14039 1e5c 9F       		.byte	0x9f
 14040 1e5d 93       		.byte	0x93
 14041 1e5e 01       		.uleb128 0x1
 14042 1e5f 75       		.byte	0x75
 14043 1e60 00       		.sleb128 0
 14044 1e61 34       		.byte	0x34
 14045 1e62 25       		.byte	0x25
 14046 1e63 3F       		.byte	0x3f
 14047 1e64 1A       		.byte	0x1a
 14048 1e65 9F       		.byte	0x9f
 14049 1e66 93       		.byte	0x93
 14050 1e67 01       		.uleb128 0x1
 14051 1e68 75       		.byte	0x75
 14052 1e69 00       		.sleb128 0
 14053 1e6a 3F       		.byte	0x3f
 14054 1e6b 1A       		.byte	0x1a
 14055 1e6c 9F       		.byte	0x9f
 14056 1e6d 93       		.byte	0x93
 14057 1e6e 01       		.uleb128 0x1
 14058 1e6f 00000000 		.4byte	0
 14059 1e73 00000000 		.4byte	0
 14060              	.LLST156:
 14061 1e77 00000000 		.4byte	.LFB65
 14062 1e7b 02000000 		.4byte	.LCFI80
 14063 1e7f 0200     		.2byte	0x2
 14064 1e81 7D       		.byte	0x7d
 14065 1e82 00       		.sleb128 0
ARM GAS  C:\Users\Steve\AppData\Local\Temp\ccroCuoh.s 			page 265


 14066 1e83 02000000 		.4byte	.LCFI80
 14067 1e87 08000000 		.4byte	.LCFI81
 14068 1e8b 0200     		.2byte	0x2
 14069 1e8d 7D       		.byte	0x7d
 14070 1e8e 14       		.sleb128 20
 14071 1e8f 08000000 		.4byte	.LCFI81
 14072 1e93 0C000000 		.4byte	.LCFI82
 14073 1e97 0200     		.2byte	0x2
 14074 1e99 7D       		.byte	0x7d
 14075 1e9a 1C       		.sleb128 28
 14076 1e9b 0C000000 		.4byte	.LCFI82
 14077 1e9f C4000000 		.4byte	.LFE65
 14078 1ea3 0200     		.2byte	0x2
 14079 1ea5 7D       		.byte	0x7d
 14080 1ea6 38       		.sleb128 56
 14081 1ea7 00000000 		.4byte	0
 14082 1eab 00000000 		.4byte	0
 14083              	.LLST157:
 14084 1eaf 00000000 		.4byte	.LVL429
 14085 1eb3 00000000 		.4byte	.LVL429
 14086 1eb7 0100     		.2byte	0x1
 14087 1eb9 50       		.byte	0x50
 14088 1eba 00000000 		.4byte	.LVL429
 14089 1ebe 16000000 		.4byte	.LVL431
 14090 1ec2 0500     		.2byte	0x5
 14091 1ec4 70       		.byte	0x70
 14092 1ec5 00       		.sleb128 0
 14093 1ec6 32       		.byte	0x32
 14094 1ec7 24       		.byte	0x24
 14095 1ec8 9F       		.byte	0x9f
 14096 1ec9 16000000 		.4byte	.LVL431
 14097 1ecd 36000000 		.4byte	.LVL433
 14098 1ed1 0600     		.2byte	0x6
 14099 1ed3 F3       		.byte	0xf3
 14100 1ed4 01       		.uleb128 0x1
 14101 1ed5 50       		.byte	0x50
 14102 1ed6 32       		.byte	0x32
 14103 1ed7 24       		.byte	0x24
 14104 1ed8 9F       		.byte	0x9f
 14105 1ed9 BE000000 		.4byte	.LVL443
 14106 1edd C4000000 		.4byte	.LFE65
 14107 1ee1 0600     		.2byte	0x6
 14108 1ee3 F3       		.byte	0xf3
 14109 1ee4 01       		.uleb128 0x1
 14110 1ee5 50       		.byte	0x50
 14111 1ee6 32       		.byte	0x32
 14112 1ee7 24       		.byte	0x24
 14113 1ee8 9F       		.byte	0x9f
 14114 1ee9 00000000 		.4byte	0
 14115 1eed 00000000 		.4byte	0
 14116              	.LLST158:
 14117 1ef1 00000000 		.4byte	.LVL429
 14118 1ef5 2A000000 		.4byte	.LVL432
 14119 1ef9 0100     		.2byte	0x1
 14120 1efb 51       		.byte	0x51
 14121 1efc 2A000000 		.4byte	.LVL432
 14122 1f00 BE000000 		.4byte	.LVL443
ARM GAS  C:\Users\Steve\AppData\Local\Temp\ccroCuoh.s 			page 266


 14123 1f04 0400     		.2byte	0x4
 14124 1f06 F3       		.byte	0xf3
 14125 1f07 01       		.uleb128 0x1
 14126 1f08 51       		.byte	0x51
 14127 1f09 9F       		.byte	0x9f
 14128 1f0a BE000000 		.4byte	.LVL443
 14129 1f0e C4000000 		.4byte	.LFE65
 14130 1f12 0100     		.2byte	0x1
 14131 1f14 51       		.byte	0x51
 14132 1f15 00000000 		.4byte	0
 14133 1f19 00000000 		.4byte	0
 14134              	.LLST159:
 14135 1f1d 00000000 		.4byte	.LVL429
 14136 1f21 14000000 		.4byte	.LVL430
 14137 1f25 0100     		.2byte	0x1
 14138 1f27 53       		.byte	0x53
 14139 1f28 14000000 		.4byte	.LVL430
 14140 1f2c B6000000 		.4byte	.LVL442
 14141 1f30 0100     		.2byte	0x1
 14142 1f32 54       		.byte	0x54
 14143 1f33 B6000000 		.4byte	.LVL442
 14144 1f37 BE000000 		.4byte	.LVL443
 14145 1f3b 0400     		.2byte	0x4
 14146 1f3d F3       		.byte	0xf3
 14147 1f3e 01       		.uleb128 0x1
 14148 1f3f 53       		.byte	0x53
 14149 1f40 9F       		.byte	0x9f
 14150 1f41 BE000000 		.4byte	.LVL443
 14151 1f45 C4000000 		.4byte	.LFE65
 14152 1f49 0100     		.2byte	0x1
 14153 1f4b 54       		.byte	0x54
 14154 1f4c 00000000 		.4byte	0
 14155 1f50 00000000 		.4byte	0
 14156              	.LLST160:
 14157 1f54 00000000 		.4byte	.LVL429
 14158 1f58 3E000000 		.4byte	.LVL434
 14159 1f5c 0200     		.2byte	0x2
 14160 1f5e 30       		.byte	0x30
 14161 1f5f 9F       		.byte	0x9f
 14162 1f60 3E000000 		.4byte	.LVL434
 14163 1f64 50000000 		.4byte	.LVL435
 14164 1f68 0200     		.2byte	0x2
 14165 1f6a 31       		.byte	0x31
 14166 1f6b 9F       		.byte	0x9f
 14167 1f6c 50000000 		.4byte	.LVL435
 14168 1f70 66000000 		.4byte	.LVL436
 14169 1f74 0200     		.2byte	0x2
 14170 1f76 32       		.byte	0x32
 14171 1f77 9F       		.byte	0x9f
 14172 1f78 66000000 		.4byte	.LVL436
 14173 1f7c 74000000 		.4byte	.LVL437
 14174 1f80 0200     		.2byte	0x2
 14175 1f82 33       		.byte	0x33
 14176 1f83 9F       		.byte	0x9f
 14177 1f84 74000000 		.4byte	.LVL437
 14178 1f88 8A000000 		.4byte	.LVL438
 14179 1f8c 0200     		.2byte	0x2
ARM GAS  C:\Users\Steve\AppData\Local\Temp\ccroCuoh.s 			page 267


 14180 1f8e 34       		.byte	0x34
 14181 1f8f 9F       		.byte	0x9f
 14182 1f90 8A000000 		.4byte	.LVL438
 14183 1f94 98000000 		.4byte	.LVL439
 14184 1f98 0200     		.2byte	0x2
 14185 1f9a 31       		.byte	0x31
 14186 1f9b 9F       		.byte	0x9f
 14187 1f9c 98000000 		.4byte	.LVL439
 14188 1fa0 A6000000 		.4byte	.LVL440
 14189 1fa4 0200     		.2byte	0x2
 14190 1fa6 32       		.byte	0x32
 14191 1fa7 9F       		.byte	0x9f
 14192 1fa8 A6000000 		.4byte	.LVL440
 14193 1fac B4000000 		.4byte	.LVL441
 14194 1fb0 0200     		.2byte	0x2
 14195 1fb2 33       		.byte	0x33
 14196 1fb3 9F       		.byte	0x9f
 14197 1fb4 B4000000 		.4byte	.LVL441
 14198 1fb8 BE000000 		.4byte	.LVL443
 14199 1fbc 0200     		.2byte	0x2
 14200 1fbe 34       		.byte	0x34
 14201 1fbf 9F       		.byte	0x9f
 14202 1fc0 BE000000 		.4byte	.LVL443
 14203 1fc4 C4000000 		.4byte	.LFE65
 14204 1fc8 0200     		.2byte	0x2
 14205 1fca 30       		.byte	0x30
 14206 1fcb 9F       		.byte	0x9f
 14207 1fcc 00000000 		.4byte	0
 14208 1fd0 00000000 		.4byte	0
 14209              	.LLST161:
 14210 1fd4 00000000 		.4byte	.LFB66
 14211 1fd8 02000000 		.4byte	.LCFI83
 14212 1fdc 0200     		.2byte	0x2
 14213 1fde 7D       		.byte	0x7d
 14214 1fdf 00       		.sleb128 0
 14215 1fe0 02000000 		.4byte	.LCFI83
 14216 1fe4 6A000000 		.4byte	.LFE66
 14217 1fe8 0200     		.2byte	0x2
 14218 1fea 7D       		.byte	0x7d
 14219 1feb 04       		.sleb128 4
 14220 1fec 00000000 		.4byte	0
 14221 1ff0 00000000 		.4byte	0
 14222              	.LLST162:
 14223 1ff4 00000000 		.4byte	.LVL444
 14224 1ff8 5A000000 		.4byte	.LVL453
 14225 1ffc 0100     		.2byte	0x1
 14226 1ffe 50       		.byte	0x50
 14227 1fff 5A000000 		.4byte	.LVL453
 14228 2003 66000000 		.4byte	.LVL455
 14229 2007 0400     		.2byte	0x4
 14230 2009 F3       		.byte	0xf3
 14231 200a 01       		.uleb128 0x1
 14232 200b 50       		.byte	0x50
 14233 200c 9F       		.byte	0x9f
 14234 200d 66000000 		.4byte	.LVL455
 14235 2011 68000000 		.4byte	.LVL456
 14236 2015 0100     		.2byte	0x1
ARM GAS  C:\Users\Steve\AppData\Local\Temp\ccroCuoh.s 			page 268


 14237 2017 50       		.byte	0x50
 14238 2018 68000000 		.4byte	.LVL456
 14239 201c 6A000000 		.4byte	.LFE66
 14240 2020 0400     		.2byte	0x4
 14241 2022 F3       		.byte	0xf3
 14242 2023 01       		.uleb128 0x1
 14243 2024 50       		.byte	0x50
 14244 2025 9F       		.byte	0x9f
 14245 2026 00000000 		.4byte	0
 14246 202a 00000000 		.4byte	0
 14247              	.LLST163:
 14248 202e 00000000 		.4byte	.LVL444
 14249 2032 58000000 		.4byte	.LVL452
 14250 2036 0100     		.2byte	0x1
 14251 2038 51       		.byte	0x51
 14252 2039 58000000 		.4byte	.LVL452
 14253 203d 66000000 		.4byte	.LVL455
 14254 2041 0400     		.2byte	0x4
 14255 2043 F3       		.byte	0xf3
 14256 2044 01       		.uleb128 0x1
 14257 2045 51       		.byte	0x51
 14258 2046 9F       		.byte	0x9f
 14259 2047 66000000 		.4byte	.LVL455
 14260 204b 6A000000 		.4byte	.LFE66
 14261 204f 0100     		.2byte	0x1
 14262 2051 51       		.byte	0x51
 14263 2052 00000000 		.4byte	0
 14264 2056 00000000 		.4byte	0
 14265              	.LLST164:
 14266 205a 00000000 		.4byte	.LVL444
 14267 205e 0E000000 		.4byte	.LVL445
 14268 2062 0200     		.2byte	0x2
 14269 2064 30       		.byte	0x30
 14270 2065 9F       		.byte	0x9f
 14271 2066 0E000000 		.4byte	.LVL445
 14272 206a 1A000000 		.4byte	.LVL446
 14273 206e 0200     		.2byte	0x2
 14274 2070 31       		.byte	0x31
 14275 2071 9F       		.byte	0x9f
 14276 2072 1A000000 		.4byte	.LVL446
 14277 2076 26000000 		.4byte	.LVL447
 14278 207a 0200     		.2byte	0x2
 14279 207c 32       		.byte	0x32
 14280 207d 9F       		.byte	0x9f
 14281 207e 26000000 		.4byte	.LVL447
 14282 2082 32000000 		.4byte	.LVL448
 14283 2086 0200     		.2byte	0x2
 14284 2088 33       		.byte	0x33
 14285 2089 9F       		.byte	0x9f
 14286 208a 32000000 		.4byte	.LVL448
 14287 208e 3E000000 		.4byte	.LVL449
 14288 2092 0200     		.2byte	0x2
 14289 2094 34       		.byte	0x34
 14290 2095 9F       		.byte	0x9f
 14291 2096 3E000000 		.4byte	.LVL449
 14292 209a 4A000000 		.4byte	.LVL450
 14293 209e 0200     		.2byte	0x2
ARM GAS  C:\Users\Steve\AppData\Local\Temp\ccroCuoh.s 			page 269


 14294 20a0 35       		.byte	0x35
 14295 20a1 9F       		.byte	0x9f
 14296 20a2 4A000000 		.4byte	.LVL450
 14297 20a6 56000000 		.4byte	.LVL451
 14298 20aa 0200     		.2byte	0x2
 14299 20ac 36       		.byte	0x36
 14300 20ad 9F       		.byte	0x9f
 14301 20ae 56000000 		.4byte	.LVL451
 14302 20b2 64000000 		.4byte	.LVL454
 14303 20b6 0200     		.2byte	0x2
 14304 20b8 37       		.byte	0x37
 14305 20b9 9F       		.byte	0x9f
 14306 20ba 00000000 		.4byte	0
 14307 20be 00000000 		.4byte	0
 14308              	.LLST165:
 14309 20c2 00000000 		.4byte	.LVL444
 14310 20c6 0E000000 		.4byte	.LVL445
 14311 20ca 0700     		.2byte	0x7
 14312 20cc 71       		.byte	0x71
 14313 20cd 00       		.sleb128 0
 14314 20ce 94       		.byte	0x94
 14315 20cf 02       		.byte	0x2
 14316 20d0 37       		.byte	0x37
 14317 20d1 25       		.byte	0x25
 14318 20d2 9F       		.byte	0x9f
 14319 20d3 0E000000 		.4byte	.LVL445
 14320 20d7 1A000000 		.4byte	.LVL446
 14321 20db 0700     		.2byte	0x7
 14322 20dd 71       		.byte	0x71
 14323 20de 02       		.sleb128 2
 14324 20df 94       		.byte	0x94
 14325 20e0 02       		.byte	0x2
 14326 20e1 37       		.byte	0x37
 14327 20e2 25       		.byte	0x25
 14328 20e3 9F       		.byte	0x9f
 14329 20e4 1A000000 		.4byte	.LVL446
 14330 20e8 26000000 		.4byte	.LVL447
 14331 20ec 0700     		.2byte	0x7
 14332 20ee 71       		.byte	0x71
 14333 20ef 04       		.sleb128 4
 14334 20f0 94       		.byte	0x94
 14335 20f1 02       		.byte	0x2
 14336 20f2 37       		.byte	0x37
 14337 20f3 25       		.byte	0x25
 14338 20f4 9F       		.byte	0x9f
 14339 20f5 26000000 		.4byte	.LVL447
 14340 20f9 32000000 		.4byte	.LVL448
 14341 20fd 0700     		.2byte	0x7
 14342 20ff 71       		.byte	0x71
 14343 2100 06       		.sleb128 6
 14344 2101 94       		.byte	0x94
 14345 2102 02       		.byte	0x2
 14346 2103 37       		.byte	0x37
 14347 2104 25       		.byte	0x25
 14348 2105 9F       		.byte	0x9f
 14349 2106 32000000 		.4byte	.LVL448
 14350 210a 3E000000 		.4byte	.LVL449
ARM GAS  C:\Users\Steve\AppData\Local\Temp\ccroCuoh.s 			page 270


 14351 210e 0700     		.2byte	0x7
 14352 2110 71       		.byte	0x71
 14353 2111 08       		.sleb128 8
 14354 2112 94       		.byte	0x94
 14355 2113 02       		.byte	0x2
 14356 2114 37       		.byte	0x37
 14357 2115 25       		.byte	0x25
 14358 2116 9F       		.byte	0x9f
 14359 2117 3E000000 		.4byte	.LVL449
 14360 211b 4A000000 		.4byte	.LVL450
 14361 211f 0700     		.2byte	0x7
 14362 2121 71       		.byte	0x71
 14363 2122 0A       		.sleb128 10
 14364 2123 94       		.byte	0x94
 14365 2124 02       		.byte	0x2
 14366 2125 37       		.byte	0x37
 14367 2126 25       		.byte	0x25
 14368 2127 9F       		.byte	0x9f
 14369 2128 4A000000 		.4byte	.LVL450
 14370 212c 56000000 		.4byte	.LVL451
 14371 2130 0700     		.2byte	0x7
 14372 2132 71       		.byte	0x71
 14373 2133 0C       		.sleb128 12
 14374 2134 94       		.byte	0x94
 14375 2135 02       		.byte	0x2
 14376 2136 37       		.byte	0x37
 14377 2137 25       		.byte	0x25
 14378 2138 9F       		.byte	0x9f
 14379 2139 56000000 		.4byte	.LVL451
 14380 213d 58000000 		.4byte	.LVL452
 14381 2141 0700     		.2byte	0x7
 14382 2143 71       		.byte	0x71
 14383 2144 0E       		.sleb128 14
 14384 2145 94       		.byte	0x94
 14385 2146 02       		.byte	0x2
 14386 2147 37       		.byte	0x37
 14387 2148 25       		.byte	0x25
 14388 2149 9F       		.byte	0x9f
 14389 214a 58000000 		.4byte	.LVL452
 14390 214e 64000000 		.4byte	.LVL454
 14391 2152 0A00     		.2byte	0xa
 14392 2154 F3       		.byte	0xf3
 14393 2155 01       		.uleb128 0x1
 14394 2156 51       		.byte	0x51
 14395 2157 23       		.byte	0x23
 14396 2158 0E       		.uleb128 0xe
 14397 2159 94       		.byte	0x94
 14398 215a 02       		.byte	0x2
 14399 215b 37       		.byte	0x37
 14400 215c 25       		.byte	0x25
 14401 215d 9F       		.byte	0x9f
 14402 215e 00000000 		.4byte	0
 14403 2162 00000000 		.4byte	0
 14404              	.LLST166:
 14405 2166 00000000 		.4byte	.LFB67
 14406 216a 02000000 		.4byte	.LCFI84
 14407 216e 0200     		.2byte	0x2
ARM GAS  C:\Users\Steve\AppData\Local\Temp\ccroCuoh.s 			page 271


 14408 2170 7D       		.byte	0x7d
 14409 2171 00       		.sleb128 0
 14410 2172 02000000 		.4byte	.LCFI84
 14411 2176 6A000000 		.4byte	.LFE67
 14412 217a 0200     		.2byte	0x2
 14413 217c 7D       		.byte	0x7d
 14414 217d 04       		.sleb128 4
 14415 217e 00000000 		.4byte	0
 14416 2182 00000000 		.4byte	0
 14417              	.LLST167:
 14418 2186 00000000 		.4byte	.LVL457
 14419 218a 5A000000 		.4byte	.LVL466
 14420 218e 0100     		.2byte	0x1
 14421 2190 50       		.byte	0x50
 14422 2191 5A000000 		.4byte	.LVL466
 14423 2195 66000000 		.4byte	.LVL468
 14424 2199 0400     		.2byte	0x4
 14425 219b F3       		.byte	0xf3
 14426 219c 01       		.uleb128 0x1
 14427 219d 50       		.byte	0x50
 14428 219e 9F       		.byte	0x9f
 14429 219f 66000000 		.4byte	.LVL468
 14430 21a3 68000000 		.4byte	.LVL469
 14431 21a7 0100     		.2byte	0x1
 14432 21a9 50       		.byte	0x50
 14433 21aa 68000000 		.4byte	.LVL469
 14434 21ae 6A000000 		.4byte	.LFE67
 14435 21b2 0400     		.2byte	0x4
 14436 21b4 F3       		.byte	0xf3
 14437 21b5 01       		.uleb128 0x1
 14438 21b6 50       		.byte	0x50
 14439 21b7 9F       		.byte	0x9f
 14440 21b8 00000000 		.4byte	0
 14441 21bc 00000000 		.4byte	0
 14442              	.LLST168:
 14443 21c0 00000000 		.4byte	.LVL457
 14444 21c4 58000000 		.4byte	.LVL465
 14445 21c8 0100     		.2byte	0x1
 14446 21ca 51       		.byte	0x51
 14447 21cb 58000000 		.4byte	.LVL465
 14448 21cf 66000000 		.4byte	.LVL468
 14449 21d3 0400     		.2byte	0x4
 14450 21d5 F3       		.byte	0xf3
 14451 21d6 01       		.uleb128 0x1
 14452 21d7 51       		.byte	0x51
 14453 21d8 9F       		.byte	0x9f
 14454 21d9 66000000 		.4byte	.LVL468
 14455 21dd 6A000000 		.4byte	.LFE67
 14456 21e1 0100     		.2byte	0x1
 14457 21e3 51       		.byte	0x51
 14458 21e4 00000000 		.4byte	0
 14459 21e8 00000000 		.4byte	0
 14460              	.LLST169:
 14461 21ec 00000000 		.4byte	.LVL457
 14462 21f0 0E000000 		.4byte	.LVL458
 14463 21f4 0200     		.2byte	0x2
 14464 21f6 30       		.byte	0x30
ARM GAS  C:\Users\Steve\AppData\Local\Temp\ccroCuoh.s 			page 272


 14465 21f7 9F       		.byte	0x9f
 14466 21f8 0E000000 		.4byte	.LVL458
 14467 21fc 1A000000 		.4byte	.LVL459
 14468 2200 0200     		.2byte	0x2
 14469 2202 31       		.byte	0x31
 14470 2203 9F       		.byte	0x9f
 14471 2204 1A000000 		.4byte	.LVL459
 14472 2208 26000000 		.4byte	.LVL460
 14473 220c 0200     		.2byte	0x2
 14474 220e 32       		.byte	0x32
 14475 220f 9F       		.byte	0x9f
 14476 2210 26000000 		.4byte	.LVL460
 14477 2214 32000000 		.4byte	.LVL461
 14478 2218 0200     		.2byte	0x2
 14479 221a 33       		.byte	0x33
 14480 221b 9F       		.byte	0x9f
 14481 221c 32000000 		.4byte	.LVL461
 14482 2220 3E000000 		.4byte	.LVL462
 14483 2224 0200     		.2byte	0x2
 14484 2226 34       		.byte	0x34
 14485 2227 9F       		.byte	0x9f
 14486 2228 3E000000 		.4byte	.LVL462
 14487 222c 4A000000 		.4byte	.LVL463
 14488 2230 0200     		.2byte	0x2
 14489 2232 35       		.byte	0x35
 14490 2233 9F       		.byte	0x9f
 14491 2234 4A000000 		.4byte	.LVL463
 14492 2238 56000000 		.4byte	.LVL464
 14493 223c 0200     		.2byte	0x2
 14494 223e 36       		.byte	0x36
 14495 223f 9F       		.byte	0x9f
 14496 2240 56000000 		.4byte	.LVL464
 14497 2244 64000000 		.4byte	.LVL467
 14498 2248 0200     		.2byte	0x2
 14499 224a 37       		.byte	0x37
 14500 224b 9F       		.byte	0x9f
 14501 224c 00000000 		.4byte	0
 14502 2250 00000000 		.4byte	0
 14503              	.LLST170:
 14504 2254 00000000 		.4byte	.LVL457
 14505 2258 0E000000 		.4byte	.LVL458
 14506 225c 0700     		.2byte	0x7
 14507 225e 71       		.byte	0x71
 14508 225f 00       		.sleb128 0
 14509 2260 94       		.byte	0x94
 14510 2261 02       		.byte	0x2
 14511 2262 37       		.byte	0x37
 14512 2263 25       		.byte	0x25
 14513 2264 9F       		.byte	0x9f
 14514 2265 0E000000 		.4byte	.LVL458
 14515 2269 1A000000 		.4byte	.LVL459
 14516 226d 0700     		.2byte	0x7
 14517 226f 71       		.byte	0x71
 14518 2270 02       		.sleb128 2
 14519 2271 94       		.byte	0x94
 14520 2272 02       		.byte	0x2
 14521 2273 37       		.byte	0x37
ARM GAS  C:\Users\Steve\AppData\Local\Temp\ccroCuoh.s 			page 273


 14522 2274 25       		.byte	0x25
 14523 2275 9F       		.byte	0x9f
 14524 2276 1A000000 		.4byte	.LVL459
 14525 227a 26000000 		.4byte	.LVL460
 14526 227e 0700     		.2byte	0x7
 14527 2280 71       		.byte	0x71
 14528 2281 04       		.sleb128 4
 14529 2282 94       		.byte	0x94
 14530 2283 02       		.byte	0x2
 14531 2284 37       		.byte	0x37
 14532 2285 25       		.byte	0x25
 14533 2286 9F       		.byte	0x9f
 14534 2287 26000000 		.4byte	.LVL460
 14535 228b 32000000 		.4byte	.LVL461
 14536 228f 0700     		.2byte	0x7
 14537 2291 71       		.byte	0x71
 14538 2292 06       		.sleb128 6
 14539 2293 94       		.byte	0x94
 14540 2294 02       		.byte	0x2
 14541 2295 37       		.byte	0x37
 14542 2296 25       		.byte	0x25
 14543 2297 9F       		.byte	0x9f
 14544 2298 32000000 		.4byte	.LVL461
 14545 229c 3E000000 		.4byte	.LVL462
 14546 22a0 0700     		.2byte	0x7
 14547 22a2 71       		.byte	0x71
 14548 22a3 08       		.sleb128 8
 14549 22a4 94       		.byte	0x94
 14550 22a5 02       		.byte	0x2
 14551 22a6 37       		.byte	0x37
 14552 22a7 25       		.byte	0x25
 14553 22a8 9F       		.byte	0x9f
 14554 22a9 3E000000 		.4byte	.LVL462
 14555 22ad 4A000000 		.4byte	.LVL463
 14556 22b1 0700     		.2byte	0x7
 14557 22b3 71       		.byte	0x71
 14558 22b4 0A       		.sleb128 10
 14559 22b5 94       		.byte	0x94
 14560 22b6 02       		.byte	0x2
 14561 22b7 37       		.byte	0x37
 14562 22b8 25       		.byte	0x25
 14563 22b9 9F       		.byte	0x9f
 14564 22ba 4A000000 		.4byte	.LVL463
 14565 22be 56000000 		.4byte	.LVL464
 14566 22c2 0700     		.2byte	0x7
 14567 22c4 71       		.byte	0x71
 14568 22c5 0C       		.sleb128 12
 14569 22c6 94       		.byte	0x94
 14570 22c7 02       		.byte	0x2
 14571 22c8 37       		.byte	0x37
 14572 22c9 25       		.byte	0x25
 14573 22ca 9F       		.byte	0x9f
 14574 22cb 56000000 		.4byte	.LVL464
 14575 22cf 58000000 		.4byte	.LVL465
 14576 22d3 0700     		.2byte	0x7
 14577 22d5 71       		.byte	0x71
 14578 22d6 0E       		.sleb128 14
ARM GAS  C:\Users\Steve\AppData\Local\Temp\ccroCuoh.s 			page 274


 14579 22d7 94       		.byte	0x94
 14580 22d8 02       		.byte	0x2
 14581 22d9 37       		.byte	0x37
 14582 22da 25       		.byte	0x25
 14583 22db 9F       		.byte	0x9f
 14584 22dc 58000000 		.4byte	.LVL465
 14585 22e0 64000000 		.4byte	.LVL467
 14586 22e4 0A00     		.2byte	0xa
 14587 22e6 F3       		.byte	0xf3
 14588 22e7 01       		.uleb128 0x1
 14589 22e8 51       		.byte	0x51
 14590 22e9 23       		.byte	0x23
 14591 22ea 0E       		.uleb128 0xe
 14592 22eb 94       		.byte	0x94
 14593 22ec 02       		.byte	0x2
 14594 22ed 37       		.byte	0x37
 14595 22ee 25       		.byte	0x25
 14596 22ef 9F       		.byte	0x9f
 14597 22f0 00000000 		.4byte	0
 14598 22f4 00000000 		.4byte	0
 14599              		.section	.debug_aranges,"",%progbits
 14600 0000 2C010000 		.4byte	0x12c
 14601 0004 0200     		.2byte	0x2
 14602 0006 00000000 		.4byte	.Ldebug_info0
 14603 000a 04       		.byte	0x4
 14604 000b 00       		.byte	0
 14605 000c 0000     		.2byte	0
 14606 000e 0000     		.2byte	0
 14607 0010 00000000 		.4byte	.LFB34
 14608 0014 78000000 		.4byte	.LFE34-.LFB34
 14609 0018 00000000 		.4byte	.LFB33
 14610 001c F6000000 		.4byte	.LFE33-.LFB33
 14611 0020 00000000 		.4byte	.LFB35
 14612 0024 4E000000 		.4byte	.LFE35-.LFB35
 14613 0028 00000000 		.4byte	.LFB36
 14614 002c 66010000 		.4byte	.LFE36-.LFB36
 14615 0030 00000000 		.4byte	.LFB37
 14616 0034 76010000 		.4byte	.LFE37-.LFB37
 14617 0038 00000000 		.4byte	.LFB38
 14618 003c 00020000 		.4byte	.LFE38-.LFB38
 14619 0040 00000000 		.4byte	.LFB40
 14620 0044 24000000 		.4byte	.LFE40-.LFB40
 14621 0048 00000000 		.4byte	.LFB41
 14622 004c 24000000 		.4byte	.LFE41-.LFB41
 14623 0050 00000000 		.4byte	.LFB39
 14624 0054 6E000000 		.4byte	.LFE39-.LFB39
 14625 0058 00000000 		.4byte	.LFB42
 14626 005c 92000000 		.4byte	.LFE42-.LFB42
 14627 0060 00000000 		.4byte	.LFB43
 14628 0064 20000000 		.4byte	.LFE43-.LFB43
 14629 0068 00000000 		.4byte	.LFB44
 14630 006c 7E000000 		.4byte	.LFE44-.LFB44
 14631 0070 00000000 		.4byte	.LFB45
 14632 0074 88000000 		.4byte	.LFE45-.LFB45
 14633 0078 00000000 		.4byte	.LFB46
 14634 007c 8A000000 		.4byte	.LFE46-.LFB46
 14635 0080 00000000 		.4byte	.LFB47
ARM GAS  C:\Users\Steve\AppData\Local\Temp\ccroCuoh.s 			page 275


 14636 0084 30000000 		.4byte	.LFE47-.LFB47
 14637 0088 00000000 		.4byte	.LFB48
 14638 008c 8E000000 		.4byte	.LFE48-.LFB48
 14639 0090 00000000 		.4byte	.LFB49
 14640 0094 3C000000 		.4byte	.LFE49-.LFB49
 14641 0098 00000000 		.4byte	.LFB50
 14642 009c 84000000 		.4byte	.LFE50-.LFB50
 14643 00a0 00000000 		.4byte	.LFB51
 14644 00a4 70000000 		.4byte	.LFE51-.LFB51
 14645 00a8 00000000 		.4byte	.LFB52
 14646 00ac 36000000 		.4byte	.LFE52-.LFB52
 14647 00b0 00000000 		.4byte	.LFB53
 14648 00b4 A0000000 		.4byte	.LFE53-.LFB53
 14649 00b8 00000000 		.4byte	.LFB54
 14650 00bc 60000000 		.4byte	.LFE54-.LFB54
 14651 00c0 00000000 		.4byte	.LFB55
 14652 00c4 62000000 		.4byte	.LFE55-.LFB55
 14653 00c8 00000000 		.4byte	.LFB56
 14654 00cc AE000000 		.4byte	.LFE56-.LFB56
 14655 00d0 00000000 		.4byte	.LFB57
 14656 00d4 8E000000 		.4byte	.LFE57-.LFB57
 14657 00d8 00000000 		.4byte	.LFB58
 14658 00dc 70000000 		.4byte	.LFE58-.LFB58
 14659 00e0 00000000 		.4byte	.LFB59
 14660 00e4 60000000 		.4byte	.LFE59-.LFB59
 14661 00e8 00000000 		.4byte	.LFB60
 14662 00ec 54000000 		.4byte	.LFE60-.LFB60
 14663 00f0 00000000 		.4byte	.LFB61
 14664 00f4 40000000 		.4byte	.LFE61-.LFB61
 14665 00f8 00000000 		.4byte	.LFB64
 14666 00fc FC000000 		.4byte	.LFE64-.LFB64
 14667 0100 00000000 		.4byte	.LFB63
 14668 0104 56000000 		.4byte	.LFE63-.LFB63
 14669 0108 00000000 		.4byte	.LFB62
 14670 010c 4C000000 		.4byte	.LFE62-.LFB62
 14671 0110 00000000 		.4byte	.LFB65
 14672 0114 C4000000 		.4byte	.LFE65-.LFB65
 14673 0118 00000000 		.4byte	.LFB66
 14674 011c 6A000000 		.4byte	.LFE66-.LFB66
 14675 0120 00000000 		.4byte	.LFB67
 14676 0124 6A000000 		.4byte	.LFE67-.LFB67
 14677 0128 00000000 		.4byte	0
 14678 012c 00000000 		.4byte	0
 14679              		.section	.debug_ranges,"",%progbits
 14680              	.Ldebug_ranges0:
 14681 0000 00000000 		.4byte	.LFB34
 14682 0004 78000000 		.4byte	.LFE34
 14683 0008 00000000 		.4byte	.LFB33
 14684 000c F6000000 		.4byte	.LFE33
 14685 0010 00000000 		.4byte	.LFB35
 14686 0014 4E000000 		.4byte	.LFE35
 14687 0018 00000000 		.4byte	.LFB36
 14688 001c 66010000 		.4byte	.LFE36
 14689 0020 00000000 		.4byte	.LFB37
 14690 0024 76010000 		.4byte	.LFE37
 14691 0028 00000000 		.4byte	.LFB38
 14692 002c 00020000 		.4byte	.LFE38
ARM GAS  C:\Users\Steve\AppData\Local\Temp\ccroCuoh.s 			page 276


 14693 0030 00000000 		.4byte	.LFB40
 14694 0034 24000000 		.4byte	.LFE40
 14695 0038 00000000 		.4byte	.LFB41
 14696 003c 24000000 		.4byte	.LFE41
 14697 0040 00000000 		.4byte	.LFB39
 14698 0044 6E000000 		.4byte	.LFE39
 14699 0048 00000000 		.4byte	.LFB42
 14700 004c 92000000 		.4byte	.LFE42
 14701 0050 00000000 		.4byte	.LFB43
 14702 0054 20000000 		.4byte	.LFE43
 14703 0058 00000000 		.4byte	.LFB44
 14704 005c 7E000000 		.4byte	.LFE44
 14705 0060 00000000 		.4byte	.LFB45
 14706 0064 88000000 		.4byte	.LFE45
 14707 0068 00000000 		.4byte	.LFB46
 14708 006c 8A000000 		.4byte	.LFE46
 14709 0070 00000000 		.4byte	.LFB47
 14710 0074 30000000 		.4byte	.LFE47
 14711 0078 00000000 		.4byte	.LFB48
 14712 007c 8E000000 		.4byte	.LFE48
 14713 0080 00000000 		.4byte	.LFB49
 14714 0084 3C000000 		.4byte	.LFE49
 14715 0088 00000000 		.4byte	.LFB50
 14716 008c 84000000 		.4byte	.LFE50
 14717 0090 00000000 		.4byte	.LFB51
 14718 0094 70000000 		.4byte	.LFE51
 14719 0098 00000000 		.4byte	.LFB52
 14720 009c 36000000 		.4byte	.LFE52
 14721 00a0 00000000 		.4byte	.LFB53
 14722 00a4 A0000000 		.4byte	.LFE53
 14723 00a8 00000000 		.4byte	.LFB54
 14724 00ac 60000000 		.4byte	.LFE54
 14725 00b0 00000000 		.4byte	.LFB55
 14726 00b4 62000000 		.4byte	.LFE55
 14727 00b8 00000000 		.4byte	.LFB56
 14728 00bc AE000000 		.4byte	.LFE56
 14729 00c0 00000000 		.4byte	.LFB57
 14730 00c4 8E000000 		.4byte	.LFE57
 14731 00c8 00000000 		.4byte	.LFB58
 14732 00cc 70000000 		.4byte	.LFE58
 14733 00d0 00000000 		.4byte	.LFB59
 14734 00d4 60000000 		.4byte	.LFE59
 14735 00d8 00000000 		.4byte	.LFB60
 14736 00dc 54000000 		.4byte	.LFE60
 14737 00e0 00000000 		.4byte	.LFB61
 14738 00e4 40000000 		.4byte	.LFE61
 14739 00e8 00000000 		.4byte	.LFB64
 14740 00ec FC000000 		.4byte	.LFE64
 14741 00f0 00000000 		.4byte	.LFB63
 14742 00f4 56000000 		.4byte	.LFE63
 14743 00f8 00000000 		.4byte	.LFB62
 14744 00fc 4C000000 		.4byte	.LFE62
 14745 0100 00000000 		.4byte	.LFB65
 14746 0104 C4000000 		.4byte	.LFE65
 14747 0108 00000000 		.4byte	.LFB66
 14748 010c 6A000000 		.4byte	.LFE66
 14749 0110 00000000 		.4byte	.LFB67
ARM GAS  C:\Users\Steve\AppData\Local\Temp\ccroCuoh.s 			page 277


 14750 0114 6A000000 		.4byte	.LFE67
 14751 0118 00000000 		.4byte	0
 14752 011c 00000000 		.4byte	0
 14753              		.section	.debug_line,"",%progbits
 14754              	.Ldebug_line0:
 14755 0000 4B070000 		.section	.debug_str,"MS",%progbits,1
 14755      02000301 
 14755      00000201 
 14755      FB0E0D00 
 14755      01010101 
 14756              	.LASF52:
 14757 0000 64726177 		.ascii	"drawB\000"
 14757      4200
 14758              	.LASF53:
 14759 0006 64726177 		.ascii	"drawC\000"
 14759      4300
 14760              	.LASF11:
 14761 000c 75696E74 		.ascii	"uint16\000"
 14761      313600
 14762              	.LASF55:
 14763 0013 64726177 		.ascii	"drawE\000"
 14763      4500
 14764              	.LASF49:
 14765 0019 64726177 		.ascii	"drawNine\000"
 14765      4E696E65 
 14765      00
 14766              	.LASF64:
 14767 0022 626C6F63 		.ascii	"blockLoc\000"
 14767      6B4C6F63 
 14767      00
 14768              	.LASF72:
 14769 002b 2E5C4C45 		.ascii	".\\LED_Matrix.c\000"
 14769      445F4D61 
 14769      74726978 
 14769      2E6300
 14770              	.LASF48:
 14771 003a 64726177 		.ascii	"drawEight\000"
 14771      45696768 
 14771      7400
 14772              	.LASF40:
 14773 0044 64726177 		.ascii	"drawOne\000"
 14773      4F6E6500 
 14774              	.LASF9:
 14775 004c 696E7431 		.ascii	"int16_t\000"
 14775      365F7400 
 14776              	.LASF6:
 14777 0054 6C6F6E67 		.ascii	"long long int\000"
 14777      206C6F6E 
 14777      6720696E 
 14777      7400
 14778              	.LASF0:
 14779 0062 7369676E 		.ascii	"signed char\000"
 14779      65642063 
 14779      68617200 
 14780              	.LASF7:
 14781 006e 6C6F6E67 		.ascii	"long long unsigned int\000"
 14781      206C6F6E 
ARM GAS  C:\Users\Steve\AppData\Local\Temp\ccroCuoh.s 			page 278


 14781      6720756E 
 14781      7369676E 
 14781      65642069 
 14782              	.LASF42:
 14783 0085 64726177 		.ascii	"drawColon\000"
 14783      436F6C6F 
 14783      6E00
 14784              	.LASF4:
 14785 008f 6C6F6E67 		.ascii	"long int\000"
 14785      20696E74 
 14785      00
 14786              	.LASF10:
 14787 0098 75696E74 		.ascii	"uint8\000"
 14787      3800
 14788              	.LASF47:
 14789 009e 64726177 		.ascii	"drawSeven\000"
 14789      53657665 
 14789      6E00
 14790              	.LASF43:
 14791 00a8 64726177 		.ascii	"drawThree\000"
 14791      54687265 
 14791      6500
 14792              	.LASF14:
 14793 00b2 646F7562 		.ascii	"double\000"
 14793      6C6500
 14794              	.LASF31:
 14795 00b9 64726177 		.ascii	"drawLine\000"
 14795      4C696E65 
 14795      00
 14796              	.LASF57:
 14797 00c2 64726177 		.ascii	"drawHex\000"
 14797      48657800 
 14798              	.LASF66:
 14799 00ca 6D617848 		.ascii	"maxHeight\000"
 14799      65696768 
 14799      7400
 14800              	.LASF60:
 14801 00d4 74486F75 		.ascii	"tHour\000"
 14801      7200
 14802              	.LASF18:
 14803 00da 6D617472 		.ascii	"matrix\000"
 14803      697800
 14804              	.LASF69:
 14805 00e1 74656D70 		.ascii	"temp\000"
 14805      00
 14806              	.LASF34:
 14807 00e6 64726177 		.ascii	"drawFastVLine\000"
 14807      46617374 
 14807      564C696E 
 14807      6500
 14808              	.LASF8:
 14809 00f4 756E7369 		.ascii	"unsigned int\000"
 14809      676E6564 
 14809      20696E74 
 14809      00
 14810              	.LASF5:
 14811 0101 6C6F6E67 		.ascii	"long unsigned int\000"
ARM GAS  C:\Users\Steve\AppData\Local\Temp\ccroCuoh.s 			page 279


 14811      20756E73 
 14811      69676E65 
 14811      6420696E 
 14811      7400
 14812              	.LASF29:
 14813 0113 64726177 		.ascii	"drawCircleHelper\000"
 14813      43697263 
 14813      6C654865 
 14813      6C706572 
 14813      00
 14814              	.LASF27:
 14815 0124 6464465F 		.ascii	"ddF_x\000"
 14815      7800
 14816              	.LASF28:
 14817 012a 6464465F 		.ascii	"ddF_y\000"
 14817      7900
 14818              	.LASF73:
 14819 0130 433A5C55 		.ascii	"C:\\Users\\Steve\\Documents\\Git\\GlowTime\\RGB_LED"
 14819      73657273 
 14819      5C537465 
 14819      76655C44 
 14819      6F63756D 
 14820 015d 5F4D6174 		.ascii	"_Matrix.cydsn\000"
 14820      7269782E 
 14820      63796473 
 14820      6E00
 14821              	.LASF3:
 14822 016b 73686F72 		.ascii	"short unsigned int\000"
 14822      7420756E 
 14822      7369676E 
 14822      65642069 
 14822      6E7400
 14823              	.LASF12:
 14824 017e 696E7438 		.ascii	"int8\000"
 14824      00
 14825              	.LASF58:
 14826 0183 7072696E 		.ascii	"printTime\000"
 14826      7454696D 
 14826      6500
 14827              	.LASF41:
 14828 018d 64726177 		.ascii	"drawTwo\000"
 14828      54776F00 
 14829              	.LASF25:
 14830 0195 636C6561 		.ascii	"clearScreen\000"
 14830      72536372 
 14830      65656E00 
 14831              	.LASF56:
 14832 01a1 64726177 		.ascii	"drawF\000"
 14832      4600
 14833              	.LASF16:
 14834 01a7 73697A65 		.ascii	"sizetype\000"
 14834      74797065 
 14834      00
 14835              	.LASF35:
 14836 01b0 64726177 		.ascii	"drawFastHLine\000"
 14836      46617374 
 14836      484C696E 
ARM GAS  C:\Users\Steve\AppData\Local\Temp\ccroCuoh.s 			page 280


 14836      6500
 14837              	.LASF32:
 14838 01be 73746565 		.ascii	"steep\000"
 14838      7000
 14839              	.LASF24:
 14840 01c4 64726177 		.ascii	"drawPixel\000"
 14840      50697865 
 14840      6C00
 14841              	.LASF62:
 14842 01ce 746F6B65 		.ascii	"tokens\000"
 14842      6E7300
 14843              	.LASF70:
 14844 01d5 616E7944 		.ascii	"anyDataDecrease\000"
 14844      61746144 
 14844      65637265 
 14844      61736500 
 14845              	.LASF13:
 14846 01e5 666C6F61 		.ascii	"float\000"
 14846      7400
 14847              	.LASF26:
 14848 01eb 64726177 		.ascii	"drawCircle\000"
 14848      43697263 
 14848      6C6500
 14849              	.LASF71:
 14850 01f6 474E5520 		.ascii	"GNU C 4.7.3 20130312 (release) [ARM/embedded-4_7-br"
 14850      4320342E 
 14850      372E3320 
 14850      32303133 
 14850      30333132 
 14851 0229 616E6368 		.ascii	"anch revision 196615]\000"
 14851      20726576 
 14851      6973696F 
 14851      6E203139 
 14851      36363135 
 14852              	.LASF39:
 14853 023f 64726177 		.ascii	"drawTriangle\000"
 14853      54726961 
 14853      6E676C65 
 14853      00
 14854              	.LASF1:
 14855 024c 756E7369 		.ascii	"unsigned char\000"
 14855      676E6564 
 14855      20636861 
 14855      7200
 14856              	.LASF2:
 14857 025a 73686F72 		.ascii	"short int\000"
 14857      7420696E 
 14857      7400
 14858              	.LASF59:
 14859 0264 686F7572 		.ascii	"hours\000"
 14859      7300
 14860              	.LASF33:
 14861 026a 79737465 		.ascii	"ystep\000"
 14861      7000
 14862              	.LASF38:
 14863 0270 66696C6C 		.ascii	"fillScreen\000"
 14863      53637265 
ARM GAS  C:\Users\Steve\AppData\Local\Temp\ccroCuoh.s 			page 281


 14863      656E00
 14864              	.LASF30:
 14865 027b 636F726E 		.ascii	"cornername\000"
 14865      65726E61 
 14865      6D6500
 14866              	.LASF61:
 14867 0286 7072696E 		.ascii	"printHexString\000"
 14867      74486578 
 14867      53747269 
 14867      6E6700
 14868              	.LASF51:
 14869 0295 64726177 		.ascii	"drawA\000"
 14869      4100
 14870              	.LASF44:
 14871 029b 64726177 		.ascii	"drawFour\000"
 14871      466F7572 
 14871      00
 14872              	.LASF54:
 14873 02a4 64726177 		.ascii	"drawD\000"
 14873      4400
 14874              	.LASF17:
 14875 02aa 636F6C6F 		.ascii	"color\000"
 14875      7200
 14876              	.LASF15:
 14877 02b0 63686172 		.ascii	"char\000"
 14877      00
 14878              	.LASF23:
 14879 02b5 636C6561 		.ascii	"clearPixel\000"
 14879      72506978 
 14879      656C00
 14880              	.LASF19:
 14881 02c0 696E6465 		.ascii	"index\000"
 14881      7800
 14882              	.LASF46:
 14883 02c6 64726177 		.ascii	"drawSix\000"
 14883      53697800 
 14884              	.LASF20:
 14885 02ce 73637261 		.ascii	"scratch1\000"
 14885      74636831 
 14885      00
 14886              	.LASF21:
 14887 02d7 73637261 		.ascii	"scratch2\000"
 14887      74636832 
 14887      00
 14888              	.LASF65:
 14889 02e0 626C6163 		.ascii	"black\000"
 14889      6B00
 14890              	.LASF63:
 14891 02e6 64726177 		.ascii	"drawblock\000"
 14891      626C6F63 
 14891      6B00
 14892              	.LASF22:
 14893 02f0 6269745F 		.ascii	"bit_pos\000"
 14893      706F7300 
 14894              	.LASF36:
 14895 02f8 64726177 		.ascii	"drawRect\000"
 14895      52656374 
ARM GAS  C:\Users\Steve\AppData\Local\Temp\ccroCuoh.s 			page 282


 14895      00
 14896              	.LASF74:
 14897 0301 69664461 		.ascii	"ifDataChange\000"
 14897      74614368 
 14897      616E6765 
 14897      00
 14898              	.LASF45:
 14899 030e 64726177 		.ascii	"drawFive\000"
 14899      46697665 
 14899      00
 14900              	.LASF67:
 14901 0317 6F6C6452 		.ascii	"oldResult\000"
 14901      6573756C 
 14901      7400
 14902              	.LASF50:
 14903 0321 64726177 		.ascii	"drawZero\000"
 14903      5A65726F 
 14903      00
 14904              	.LASF68:
 14905 032a 72657375 		.ascii	"result\000"
 14905      6C7400
 14906              	.LASF37:
 14907 0331 66696C6C 		.ascii	"fillRect\000"
 14907      52656374 
 14907      00
 14908              		.ident	"GCC: (GNU Tools for ARM Embedded Processors) 4.7.3 20130312 (release) [ARM/embedded-4_7-br
