ARM GAS  C:\Users\Steve\AppData\Local\Temp\ccwjFJAL.s 			page 1


   1              		.cpu cortex-m0
   2              		.fpu softvfp
   3              		.eabi_attribute 20, 1
   4              		.eabi_attribute 21, 1
   5              		.eabi_attribute 23, 3
   6              		.eabi_attribute 24, 1
   7              		.eabi_attribute 25, 1
   8              		.eabi_attribute 26, 1
   9              		.eabi_attribute 30, 2
  10              		.eabi_attribute 34, 0
  11              		.eabi_attribute 18, 4
  12              		.code	16
  13              		.file	"LED_Matrix.c"
  14              		.text
  15              	.Ltext0:
  16              		.cfi_sections	.debug_frame
  17              		.section	.text.clearPixel,"ax",%progbits
  18              		.align	2
  19              		.global	clearPixel
  20              		.code	16
  21              		.thumb_func
  22              		.type	clearPixel, %function
  23              	clearPixel:
  24              	.LFB34:
  25              		.file 1 ".\\LED_Matrix.c"
   1:.\LED_Matrix.c **** /* ========================================
   2:.\LED_Matrix.c ****  *
   3:.\LED_Matrix.c ****  * The following firmware was developed by Cypress Semiconductor
   4:.\LED_Matrix.c ****  * This work is licensed under a Creative Commons Attribution 3.0 Unported License.
   5:.\LED_Matrix.c ****  * 
   6:.\LED_Matrix.c ****  * http://creativecommons.org/licenses/by/3.0/deed.en_US
   7:.\LED_Matrix.c ****  * 
   8:.\LED_Matrix.c ****  * You are free to:
   9:.\LED_Matrix.c ****  * -To Share — to copy, distribute and transmit the work 
  10:.\LED_Matrix.c ****  * -To Remix — to adapt the work 
  11:.\LED_Matrix.c ****  * -To make commercial use of the work
  12:.\LED_Matrix.c ****  *
  13:.\LED_Matrix.c ****  * ========================================
  14:.\LED_Matrix.c ****  */
  15:.\LED_Matrix.c ****  
  16:.\LED_Matrix.c **** /*******************************************************************************
  17:.\LED_Matrix.c ****  * C File For LED Matrix Component/Project
  18:.\LED_Matrix.c ****  ********************************************************************************/
  19:.\LED_Matrix.c ****  
  20:.\LED_Matrix.c **** #include <device.h>
  21:.\LED_Matrix.c **** #include <LED_Matrix.h>
  22:.\LED_Matrix.c **** #include <stdlib.h>
  23:.\LED_Matrix.c **** 
  24:.\LED_Matrix.c **** /*******************************************************************************
  25:.\LED_Matrix.c **** * Function Name: DrawPixel
  26:.\LED_Matrix.c **** ********************************************************************************
  27:.\LED_Matrix.c **** *
  28:.\LED_Matrix.c **** * Summary:
  29:.\LED_Matrix.c **** *  This function writes to the (x,y) coordinate of the 'matrix' buffer in RAM
  30:.\LED_Matrix.c **** *
  31:.\LED_Matrix.c **** * Parameters:  
  32:.\LED_Matrix.c **** *   uint8 x: 		betn 0 and 31
ARM GAS  C:\Users\Steve\AppData\Local\Temp\ccwjFJAL.s 			page 2


  33:.\LED_Matrix.c **** *	uint8 y: 		betn 0 and 15
  34:.\LED_Matrix.c **** *	RGB c:			5-bit color to be written to the pixel 
  35:.\LED_Matrix.c **** * 	color *matrix: 	pointer to the matrix buffer
  36:.\LED_Matrix.c **** *
  37:.\LED_Matrix.c **** * Return:
  38:.\LED_Matrix.c **** *   None
  39:.\LED_Matrix.c **** *
  40:.\LED_Matrix.c **** *******************************************************************************/
  41:.\LED_Matrix.c **** void drawPixel(uint8 x, uint8 y, RGB c, color *matrix)
  42:.\LED_Matrix.c **** {
  43:.\LED_Matrix.c **** 	/* pre-calculate some values to index the matrix 
  44:.\LED_Matrix.c **** 	 * Note that the translation has been done here to
  45:.\LED_Matrix.c **** 	 * leave the ISR clean
  46:.\LED_Matrix.c **** 	 */
  47:.\LED_Matrix.c **** 	uint8 i = 0, index;
  48:.\LED_Matrix.c **** 	
  49:.\LED_Matrix.c **** 	/* index indexes the elements of 'matrix' 
  50:.\LED_Matrix.c **** 	 * 'matrix' consists of 64 'color' structs, 4 elements per row
  51:.\LED_Matrix.c **** 	 * The formula for index thus is index = y*4 + x/8
  52:.\LED_Matrix.c **** 	 */
  53:.\LED_Matrix.c **** 	uint8 scratch1 = y*4;
  54:.\LED_Matrix.c **** 	
  55:.\LED_Matrix.c **** 	/* The x-coordinate is broken up into 2 parts:
  56:.\LED_Matrix.c **** 	* 1. Which of the 4 FIFO bytes need to be written (scratch2)
  57:.\LED_Matrix.c **** 	* 2. Which bit of that byte needs to be written (bit_pos)
  58:.\LED_Matrix.c **** 	*/
  59:.\LED_Matrix.c **** 	uint8 scratch2 = (uint8)(x/8);
  60:.\LED_Matrix.c **** 	uint8 bit_pos = (uint8)x%8;
  61:.\LED_Matrix.c **** 	
  62:.\LED_Matrix.c **** 	index = scratch1 + scratch2;
  63:.\LED_Matrix.c **** 	
  64:.\LED_Matrix.c **** 	clearPixel(x, y, matrix);
  65:.\LED_Matrix.c **** 	
  66:.\LED_Matrix.c **** 	for(i = 0; i < 5 ; i++)
  67:.\LED_Matrix.c **** 	{
  68:.\LED_Matrix.c **** 		matrix[index].r[i] |= (uint8)((uint8)((c.r & (0x01 << i)) && 1)<<(bit_pos));
  69:.\LED_Matrix.c **** 		matrix[index].g[i] |= (uint8)((uint8)((c.g & (0x01 << i)) && 1)<<(bit_pos));
  70:.\LED_Matrix.c **** 		matrix[index].b[i] |= (uint8)((uint8)((c.b & (0x01 << i)) && 1)<<(bit_pos));
  71:.\LED_Matrix.c **** 	}
  72:.\LED_Matrix.c **** }
  73:.\LED_Matrix.c **** 
  74:.\LED_Matrix.c **** /*******************************************************************************
  75:.\LED_Matrix.c **** * Function Name: ClearPixel
  76:.\LED_Matrix.c **** ********************************************************************************
  77:.\LED_Matrix.c **** *
  78:.\LED_Matrix.c **** * Summary:
  79:.\LED_Matrix.c **** *  This function clears the (x,y) pixel of the matrix buffer
  80:.\LED_Matrix.c **** *
  81:.\LED_Matrix.c **** * Parameters:  
  82:.\LED_Matrix.c **** *   uint8 x: 		betn 0 and 31
  83:.\LED_Matrix.c **** *	uint8 y: 		betn 0 and 15
  84:.\LED_Matrix.c **** * 	color *matrix: 	pointer to the matrix buffer
  85:.\LED_Matrix.c **** *
  86:.\LED_Matrix.c **** * Return:
  87:.\LED_Matrix.c **** *   None
  88:.\LED_Matrix.c **** *
  89:.\LED_Matrix.c **** *******************************************************************************/
ARM GAS  C:\Users\Steve\AppData\Local\Temp\ccwjFJAL.s 			page 3


  90:.\LED_Matrix.c **** void clearPixel(uint8 x, uint8 y, color *matrix)
  91:.\LED_Matrix.c **** {
  26              		.loc 1 91 0
  27              		.cfi_startproc
  28              	.LVL0:
  29 0000 10B5     		push	{r4, lr}
  30              	.LCFI0:
  31              		.cfi_def_cfa_offset 8
  32              		.cfi_offset 4, -8
  33              		.cfi_offset 14, -4
  92:.\LED_Matrix.c **** 	uint8 i, index;
  93:.\LED_Matrix.c **** 	uint8 scratch1 = y*4;
  34              		.loc 1 93 0
  35 0002 8B00     		lsl	r3, r1, #2
  94:.\LED_Matrix.c **** 	uint8 scratch2 = (uint8)(x/8);
  36              		.loc 1 94 0
  37 0004 C408     		lsr	r4, r0, #3
  95:.\LED_Matrix.c **** 	uint8 bit_pos = (uint8)x%8;
  96:.\LED_Matrix.c **** 	
  97:.\LED_Matrix.c **** 	index = scratch1 + scratch2;
  38              		.loc 1 97 0
  39 0006 1919     		add	r1, r3, r4
  40              	.LVL1:
  41 0008 CBB2     		uxtb	r3, r1
  42 000a 1C01     		lsl	r4, r3, #4
  43 000c E11A     		sub	r1, r4, r3
  44 000e 0723     		mov	r3, #7
  45 0010 1840     		and	r0, r3
  46              	.LVL2:
  47 0012 0124     		mov	r4, #1
  48 0014 8440     		lsl	r4, r4, r0
  49 0016 5218     		add	r2, r2, r1
  50              	.LVL3:
  51 0018 E143     		mvn	r1, r4
  52 001a CCB2     		uxtb	r4, r1
  98:.\LED_Matrix.c **** 	
  99:.\LED_Matrix.c **** 	for(i = 0; i < 5 ; i++)
 100:.\LED_Matrix.c **** 	{
 101:.\LED_Matrix.c **** 		matrix[index].r[i] &= ~(uint8)(0x01<<(bit_pos));
  53              		.loc 1 101 0
  54 001c 1378     		ldrb	r3, [r2]
 102:.\LED_Matrix.c **** 		matrix[index].g[i] &= ~(uint8)(0x01<<(bit_pos));
  55              		.loc 1 102 0
  56 001e 5079     		ldrb	r0, [r2, #5]
 103:.\LED_Matrix.c **** 		matrix[index].b[i] &= ~(uint8)(0x01<<(bit_pos));
  57              		.loc 1 103 0
  58 0020 917A     		ldrb	r1, [r2, #10]
 101:.\LED_Matrix.c **** 		matrix[index].r[i] &= ~(uint8)(0x01<<(bit_pos));
  59              		.loc 1 101 0
  60 0022 2340     		and	r3, r4
 102:.\LED_Matrix.c **** 		matrix[index].g[i] &= ~(uint8)(0x01<<(bit_pos));
  61              		.loc 1 102 0
  62 0024 2040     		and	r0, r4
  63              		.loc 1 103 0
  64 0026 2140     		and	r1, r4
 101:.\LED_Matrix.c **** 		matrix[index].r[i] &= ~(uint8)(0x01<<(bit_pos));
  65              		.loc 1 101 0
ARM GAS  C:\Users\Steve\AppData\Local\Temp\ccwjFJAL.s 			page 4


  66 0028 1370     		strb	r3, [r2]
 102:.\LED_Matrix.c **** 		matrix[index].g[i] &= ~(uint8)(0x01<<(bit_pos));
  67              		.loc 1 102 0
  68 002a 5071     		strb	r0, [r2, #5]
 101:.\LED_Matrix.c **** 		matrix[index].r[i] &= ~(uint8)(0x01<<(bit_pos));
  69              		.loc 1 101 0
  70 002c 5378     		ldrb	r3, [r2, #1]
 102:.\LED_Matrix.c **** 		matrix[index].g[i] &= ~(uint8)(0x01<<(bit_pos));
  71              		.loc 1 102 0
  72 002e 9079     		ldrb	r0, [r2, #6]
  73              		.loc 1 103 0
  74 0030 9172     		strb	r1, [r2, #10]
  75              	.LVL4:
  76 0032 D17A     		ldrb	r1, [r2, #11]
 101:.\LED_Matrix.c **** 		matrix[index].r[i] &= ~(uint8)(0x01<<(bit_pos));
  77              		.loc 1 101 0
  78 0034 2340     		and	r3, r4
 102:.\LED_Matrix.c **** 		matrix[index].g[i] &= ~(uint8)(0x01<<(bit_pos));
  79              		.loc 1 102 0
  80 0036 2040     		and	r0, r4
  81              		.loc 1 103 0
  82 0038 2140     		and	r1, r4
 101:.\LED_Matrix.c **** 		matrix[index].r[i] &= ~(uint8)(0x01<<(bit_pos));
  83              		.loc 1 101 0
  84 003a 5370     		strb	r3, [r2, #1]
 102:.\LED_Matrix.c **** 		matrix[index].g[i] &= ~(uint8)(0x01<<(bit_pos));
  85              		.loc 1 102 0
  86 003c 9071     		strb	r0, [r2, #6]
 101:.\LED_Matrix.c **** 		matrix[index].r[i] &= ~(uint8)(0x01<<(bit_pos));
  87              		.loc 1 101 0
  88 003e 9378     		ldrb	r3, [r2, #2]
 102:.\LED_Matrix.c **** 		matrix[index].g[i] &= ~(uint8)(0x01<<(bit_pos));
  89              		.loc 1 102 0
  90 0040 D079     		ldrb	r0, [r2, #7]
  91              		.loc 1 103 0
  92 0042 D172     		strb	r1, [r2, #11]
  93              	.LVL5:
  94 0044 117B     		ldrb	r1, [r2, #12]
 101:.\LED_Matrix.c **** 		matrix[index].r[i] &= ~(uint8)(0x01<<(bit_pos));
  95              		.loc 1 101 0
  96 0046 2340     		and	r3, r4
 102:.\LED_Matrix.c **** 		matrix[index].g[i] &= ~(uint8)(0x01<<(bit_pos));
  97              		.loc 1 102 0
  98 0048 2040     		and	r0, r4
  99              		.loc 1 103 0
 100 004a 2140     		and	r1, r4
 101:.\LED_Matrix.c **** 		matrix[index].r[i] &= ~(uint8)(0x01<<(bit_pos));
 101              		.loc 1 101 0
 102 004c 9370     		strb	r3, [r2, #2]
 102:.\LED_Matrix.c **** 		matrix[index].g[i] &= ~(uint8)(0x01<<(bit_pos));
 103              		.loc 1 102 0
 104 004e D071     		strb	r0, [r2, #7]
 101:.\LED_Matrix.c **** 		matrix[index].r[i] &= ~(uint8)(0x01<<(bit_pos));
 105              		.loc 1 101 0
 106 0050 D378     		ldrb	r3, [r2, #3]
 102:.\LED_Matrix.c **** 		matrix[index].g[i] &= ~(uint8)(0x01<<(bit_pos));
 107              		.loc 1 102 0
ARM GAS  C:\Users\Steve\AppData\Local\Temp\ccwjFJAL.s 			page 5


 108 0052 107A     		ldrb	r0, [r2, #8]
 109              		.loc 1 103 0
 110 0054 1173     		strb	r1, [r2, #12]
 111              	.LVL6:
 112 0056 517B     		ldrb	r1, [r2, #13]
 101:.\LED_Matrix.c **** 		matrix[index].r[i] &= ~(uint8)(0x01<<(bit_pos));
 113              		.loc 1 101 0
 114 0058 2340     		and	r3, r4
 102:.\LED_Matrix.c **** 		matrix[index].g[i] &= ~(uint8)(0x01<<(bit_pos));
 115              		.loc 1 102 0
 116 005a 2040     		and	r0, r4
 117              		.loc 1 103 0
 118 005c 2140     		and	r1, r4
 101:.\LED_Matrix.c **** 		matrix[index].r[i] &= ~(uint8)(0x01<<(bit_pos));
 119              		.loc 1 101 0
 120 005e D370     		strb	r3, [r2, #3]
 102:.\LED_Matrix.c **** 		matrix[index].g[i] &= ~(uint8)(0x01<<(bit_pos));
 121              		.loc 1 102 0
 122 0060 1072     		strb	r0, [r2, #8]
 101:.\LED_Matrix.c **** 		matrix[index].r[i] &= ~(uint8)(0x01<<(bit_pos));
 123              		.loc 1 101 0
 124 0062 1379     		ldrb	r3, [r2, #4]
 102:.\LED_Matrix.c **** 		matrix[index].g[i] &= ~(uint8)(0x01<<(bit_pos));
 125              		.loc 1 102 0
 126 0064 507A     		ldrb	r0, [r2, #9]
 127              		.loc 1 103 0
 128 0066 5173     		strb	r1, [r2, #13]
 129              	.LVL7:
 130 0068 917B     		ldrb	r1, [r2, #14]
 101:.\LED_Matrix.c **** 		matrix[index].r[i] &= ~(uint8)(0x01<<(bit_pos));
 131              		.loc 1 101 0
 132 006a 2340     		and	r3, r4
 102:.\LED_Matrix.c **** 		matrix[index].g[i] &= ~(uint8)(0x01<<(bit_pos));
 133              		.loc 1 102 0
 134 006c 2040     		and	r0, r4
 135              		.loc 1 103 0
 136 006e 0C40     		and	r4, r1
 101:.\LED_Matrix.c **** 		matrix[index].r[i] &= ~(uint8)(0x01<<(bit_pos));
 137              		.loc 1 101 0
 138 0070 1371     		strb	r3, [r2, #4]
 102:.\LED_Matrix.c **** 		matrix[index].g[i] &= ~(uint8)(0x01<<(bit_pos));
 139              		.loc 1 102 0
 140 0072 5072     		strb	r0, [r2, #9]
 141              		.loc 1 103 0
 142 0074 9473     		strb	r4, [r2, #14]
 143              	.LVL8:
 104:.\LED_Matrix.c **** 	}
 105:.\LED_Matrix.c **** }
 144              		.loc 1 105 0
 145              		@ sp needed for prologue
 146 0076 10BD     		pop	{r4, pc}
 147              		.cfi_endproc
 148              	.LFE34:
 149              		.size	clearPixel, .-clearPixel
 150              		.section	.text.drawPixel,"ax",%progbits
 151              		.align	2
 152              		.global	drawPixel
ARM GAS  C:\Users\Steve\AppData\Local\Temp\ccwjFJAL.s 			page 6


 153              		.code	16
 154              		.thumb_func
 155              		.type	drawPixel, %function
 156              	drawPixel:
 157              	.LFB33:
  42:.\LED_Matrix.c **** {
 158              		.loc 1 42 0
 159              		.cfi_startproc
 160              	.LVL9:
 161 0000 F0B5     		push	{r4, r5, r6, r7, lr}
 162              	.LCFI1:
 163              		.cfi_def_cfa_offset 20
 164              		.cfi_offset 4, -20
 165              		.cfi_offset 5, -16
 166              		.cfi_offset 6, -12
 167              		.cfi_offset 7, -8
 168              		.cfi_offset 14, -4
 169 0002 1E1C     		mov	r6, r3
  53:.\LED_Matrix.c **** 	uint8 scratch1 = y*4;
 170              		.loc 1 53 0
 171 0004 8F00     		lsl	r7, r1, #2
  59:.\LED_Matrix.c **** 	uint8 scratch2 = (uint8)(x/8);
 172              		.loc 1 59 0
 173 0006 C308     		lsr	r3, r0, #3
 174              	.LVL10:
  42:.\LED_Matrix.c **** {
 175              		.loc 1 42 0
 176 0008 83B0     		sub	sp, sp, #12
 177              	.LCFI2:
 178              		.cfi_def_cfa_offset 32
  42:.\LED_Matrix.c **** {
 179              		.loc 1 42 0
 180 000a 041C     		mov	r4, r0
  62:.\LED_Matrix.c **** 	index = scratch1 + scratch2;
 181              		.loc 1 62 0
 182 000c F818     		add	r0, r7, r3
 183              	.LVL11:
 184 000e C7B2     		uxtb	r7, r0
 185              	.LVL12:
  42:.\LED_Matrix.c **** {
 186              		.loc 1 42 0
 187 0010 0192     		str	r2, [sp, #4]
  64:.\LED_Matrix.c **** 	clearPixel(x, y, matrix);
 188              		.loc 1 64 0
 189 0012 201C     		mov	r0, r4
 190              	.LVL13:
 191 0014 321C     		mov	r2, r6
 192 0016 FFF7FEFF 		bl	clearPixel
 193              	.LVL14:
 194 001a 3901     		lsl	r1, r7, #4
  42:.\LED_Matrix.c **** {
 195              		.loc 1 42 0
 196 001c 01AD     		add	r5, sp, #4
 197 001e CA1B     		sub	r2, r1, r7
 198 0020 B318     		add	r3, r6, r2
 199 0022 0720     		mov	r0, #7
 200 0024 2E78     		ldrb	r6, [r5]
ARM GAS  C:\Users\Steve\AppData\Local\Temp\ccwjFJAL.s 			page 7


 201              	.LVL15:
  68:.\LED_Matrix.c **** 		matrix[index].r[i] |= (uint8)((uint8)((c.r & (0x01 << i)) && 1)<<(bit_pos));
 202              		.loc 1 68 0
 203 0026 0122     		mov	r2, #1
 204 0028 A978     		ldrb	r1, [r5, #2]
 205 002a 2040     		and	r0, r4
 206 002c 6C78     		ldrb	r4, [r5, #1]
 207              	.LVL16:
 208 002e 151C     		mov	r5, r2
 209 0030 1F78     		ldrb	r7, [r3]
 210              	.LVL17:
 211 0032 3540     		and	r5, r6
 212 0034 8540     		lsl	r5, r5, r0
 213 0036 3D43     		orr	r5, r7
 214 0038 1D70     		strb	r5, [r3]
  69:.\LED_Matrix.c **** 		matrix[index].g[i] |= (uint8)((uint8)((c.g & (0x01 << i)) && 1)<<(bit_pos));
 215              		.loc 1 69 0
 216 003a 151C     		mov	r5, r2
 217 003c 5F79     		ldrb	r7, [r3, #5]
 218 003e 2540     		and	r5, r4
 219 0040 8540     		lsl	r5, r5, r0
 220 0042 3D43     		orr	r5, r7
 221 0044 5D71     		strb	r5, [r3, #5]
  70:.\LED_Matrix.c **** 		matrix[index].b[i] |= (uint8)((uint8)((c.b & (0x01 << i)) && 1)<<(bit_pos));
 222              		.loc 1 70 0
 223 0046 151C     		mov	r5, r2
 224 0048 9F7A     		ldrb	r7, [r3, #10]
 225 004a 0D40     		and	r5, r1
 226 004c 8540     		lsl	r5, r5, r0
 227 004e 3D43     		orr	r5, r7
 228 0050 9D72     		strb	r5, [r3, #10]
 229              	.LVL18:
  68:.\LED_Matrix.c **** 		matrix[index].r[i] |= (uint8)((uint8)((c.r & (0x01 << i)) && 1)<<(bit_pos));
 230              		.loc 1 68 0
 231 0052 7510     		asr	r5, r6, #1
 232 0054 5F78     		ldrb	r7, [r3, #1]
 233 0056 1540     		and	r5, r2
 234 0058 8540     		lsl	r5, r5, r0
 235 005a 3D43     		orr	r5, r7
 236 005c 5D70     		strb	r5, [r3, #1]
  69:.\LED_Matrix.c **** 		matrix[index].g[i] |= (uint8)((uint8)((c.g & (0x01 << i)) && 1)<<(bit_pos));
 237              		.loc 1 69 0
 238 005e 6510     		asr	r5, r4, #1
 239 0060 9F79     		ldrb	r7, [r3, #6]
 240 0062 1540     		and	r5, r2
 241 0064 8540     		lsl	r5, r5, r0
 242 0066 3D43     		orr	r5, r7
 243 0068 9D71     		strb	r5, [r3, #6]
  70:.\LED_Matrix.c **** 		matrix[index].b[i] |= (uint8)((uint8)((c.b & (0x01 << i)) && 1)<<(bit_pos));
 244              		.loc 1 70 0
 245 006a 4D10     		asr	r5, r1, #1
 246 006c DF7A     		ldrb	r7, [r3, #11]
 247 006e 1540     		and	r5, r2
 248 0070 8540     		lsl	r5, r5, r0
 249 0072 3D43     		orr	r5, r7
 250 0074 DD72     		strb	r5, [r3, #11]
 251              	.LVL19:
ARM GAS  C:\Users\Steve\AppData\Local\Temp\ccwjFJAL.s 			page 8


  68:.\LED_Matrix.c **** 		matrix[index].r[i] |= (uint8)((uint8)((c.r & (0x01 << i)) && 1)<<(bit_pos));
 252              		.loc 1 68 0
 253 0076 B510     		asr	r5, r6, #2
 254 0078 9F78     		ldrb	r7, [r3, #2]
 255 007a 1540     		and	r5, r2
 256 007c 8540     		lsl	r5, r5, r0
 257 007e 3D43     		orr	r5, r7
 258 0080 9D70     		strb	r5, [r3, #2]
  69:.\LED_Matrix.c **** 		matrix[index].g[i] |= (uint8)((uint8)((c.g & (0x01 << i)) && 1)<<(bit_pos));
 259              		.loc 1 69 0
 260 0082 A510     		asr	r5, r4, #2
 261 0084 DF79     		ldrb	r7, [r3, #7]
 262 0086 1540     		and	r5, r2
 263 0088 8540     		lsl	r5, r5, r0
 264 008a 3D43     		orr	r5, r7
 265 008c DD71     		strb	r5, [r3, #7]
  70:.\LED_Matrix.c **** 		matrix[index].b[i] |= (uint8)((uint8)((c.b & (0x01 << i)) && 1)<<(bit_pos));
 266              		.loc 1 70 0
 267 008e 8D10     		asr	r5, r1, #2
 268 0090 1F7B     		ldrb	r7, [r3, #12]
 269 0092 1540     		and	r5, r2
 270 0094 8540     		lsl	r5, r5, r0
 271 0096 3D43     		orr	r5, r7
 272 0098 1D73     		strb	r5, [r3, #12]
 273              	.LVL20:
  68:.\LED_Matrix.c **** 		matrix[index].r[i] |= (uint8)((uint8)((c.r & (0x01 << i)) && 1)<<(bit_pos));
 274              		.loc 1 68 0
 275 009a F510     		asr	r5, r6, #3
 276 009c DF78     		ldrb	r7, [r3, #3]
 277 009e 1540     		and	r5, r2
 278 00a0 8540     		lsl	r5, r5, r0
 279 00a2 3D43     		orr	r5, r7
 280 00a4 DD70     		strb	r5, [r3, #3]
  69:.\LED_Matrix.c **** 		matrix[index].g[i] |= (uint8)((uint8)((c.g & (0x01 << i)) && 1)<<(bit_pos));
 281              		.loc 1 69 0
 282 00a6 E510     		asr	r5, r4, #3
 283 00a8 1F7A     		ldrb	r7, [r3, #8]
 284 00aa 1540     		and	r5, r2
 285 00ac 8540     		lsl	r5, r5, r0
 286 00ae 3D43     		orr	r5, r7
 287 00b0 1D72     		strb	r5, [r3, #8]
  70:.\LED_Matrix.c **** 		matrix[index].b[i] |= (uint8)((uint8)((c.b & (0x01 << i)) && 1)<<(bit_pos));
 288              		.loc 1 70 0
 289 00b2 CD10     		asr	r5, r1, #3
 290 00b4 5F7B     		ldrb	r7, [r3, #13]
 291 00b6 1540     		and	r5, r2
 292 00b8 0911     		asr	r1, r1, #4
  68:.\LED_Matrix.c **** 		matrix[index].r[i] |= (uint8)((uint8)((c.r & (0x01 << i)) && 1)<<(bit_pos));
 293              		.loc 1 68 0
 294 00ba 3611     		asr	r6, r6, #4
  69:.\LED_Matrix.c **** 		matrix[index].g[i] |= (uint8)((uint8)((c.g & (0x01 << i)) && 1)<<(bit_pos));
 295              		.loc 1 69 0
 296 00bc 2411     		asr	r4, r4, #4
  70:.\LED_Matrix.c **** 		matrix[index].b[i] |= (uint8)((uint8)((c.b & (0x01 << i)) && 1)<<(bit_pos));
 297              		.loc 1 70 0
 298 00be 8540     		lsl	r5, r5, r0
  68:.\LED_Matrix.c **** 		matrix[index].r[i] |= (uint8)((uint8)((c.r & (0x01 << i)) && 1)<<(bit_pos));
ARM GAS  C:\Users\Steve\AppData\Local\Temp\ccwjFJAL.s 			page 9


 299              		.loc 1 68 0
 300 00c0 1640     		and	r6, r2
  69:.\LED_Matrix.c **** 		matrix[index].g[i] |= (uint8)((uint8)((c.g & (0x01 << i)) && 1)<<(bit_pos));
 301              		.loc 1 69 0
 302 00c2 1440     		and	r4, r2
  70:.\LED_Matrix.c **** 		matrix[index].b[i] |= (uint8)((uint8)((c.b & (0x01 << i)) && 1)<<(bit_pos));
 303              		.loc 1 70 0
 304 00c4 0A40     		and	r2, r1
 305 00c6 3D43     		orr	r5, r7
 306 00c8 8240     		lsl	r2, r2, r0
  69:.\LED_Matrix.c **** 		matrix[index].g[i] |= (uint8)((uint8)((c.g & (0x01 << i)) && 1)<<(bit_pos));
 307              		.loc 1 69 0
 308 00ca 5F7A     		ldrb	r7, [r3, #9]
  70:.\LED_Matrix.c **** 		matrix[index].b[i] |= (uint8)((uint8)((c.b & (0x01 << i)) && 1)<<(bit_pos));
 309              		.loc 1 70 0
 310 00cc 5D73     		strb	r5, [r3, #13]
 311              	.LVL21:
  68:.\LED_Matrix.c **** 		matrix[index].r[i] |= (uint8)((uint8)((c.r & (0x01 << i)) && 1)<<(bit_pos));
 312              		.loc 1 68 0
 313 00ce 8640     		lsl	r6, r6, r0
 314 00d0 1D79     		ldrb	r5, [r3, #4]
  69:.\LED_Matrix.c **** 		matrix[index].g[i] |= (uint8)((uint8)((c.g & (0x01 << i)) && 1)<<(bit_pos));
 315              		.loc 1 69 0
 316 00d2 8440     		lsl	r4, r4, r0
  70:.\LED_Matrix.c **** 		matrix[index].b[i] |= (uint8)((uint8)((c.b & (0x01 << i)) && 1)<<(bit_pos));
 317              		.loc 1 70 0
 318 00d4 101C     		mov	r0, r2
 319 00d6 9A7B     		ldrb	r2, [r3, #14]
  68:.\LED_Matrix.c **** 		matrix[index].r[i] |= (uint8)((uint8)((c.r & (0x01 << i)) && 1)<<(bit_pos));
 320              		.loc 1 68 0
 321 00d8 2E43     		orr	r6, r5
  69:.\LED_Matrix.c **** 		matrix[index].g[i] |= (uint8)((uint8)((c.g & (0x01 << i)) && 1)<<(bit_pos));
 322              		.loc 1 69 0
 323 00da 3C43     		orr	r4, r7
  70:.\LED_Matrix.c **** 		matrix[index].b[i] |= (uint8)((uint8)((c.b & (0x01 << i)) && 1)<<(bit_pos));
 324              		.loc 1 70 0
 325 00dc 1043     		orr	r0, r2
  68:.\LED_Matrix.c **** 		matrix[index].r[i] |= (uint8)((uint8)((c.r & (0x01 << i)) && 1)<<(bit_pos));
 326              		.loc 1 68 0
 327 00de 1E71     		strb	r6, [r3, #4]
  69:.\LED_Matrix.c **** 		matrix[index].g[i] |= (uint8)((uint8)((c.g & (0x01 << i)) && 1)<<(bit_pos));
 328              		.loc 1 69 0
 329 00e0 5C72     		strb	r4, [r3, #9]
  70:.\LED_Matrix.c **** 		matrix[index].b[i] |= (uint8)((uint8)((c.b & (0x01 << i)) && 1)<<(bit_pos));
 330              		.loc 1 70 0
 331 00e2 9873     		strb	r0, [r3, #14]
 332              	.LVL22:
  72:.\LED_Matrix.c **** }
 333              		.loc 1 72 0
 334 00e4 03B0     		add	sp, sp, #12
 335              		@ sp needed for prologue
 336 00e6 F0BD     		pop	{r4, r5, r6, r7, pc}
 337              		.cfi_endproc
 338              	.LFE33:
 339              		.size	drawPixel, .-drawPixel
 340              		.section	.text.clearScreen,"ax",%progbits
 341              		.align	2
ARM GAS  C:\Users\Steve\AppData\Local\Temp\ccwjFJAL.s 			page 10


 342              		.global	clearScreen
 343              		.code	16
 344              		.thumb_func
 345              		.type	clearScreen, %function
 346              	clearScreen:
 347              	.LFB35:
 106:.\LED_Matrix.c **** 
 107:.\LED_Matrix.c **** /*******************************************************************************
 108:.\LED_Matrix.c **** * Function Name: ClearScreen
 109:.\LED_Matrix.c **** ********************************************************************************
 110:.\LED_Matrix.c **** *
 111:.\LED_Matrix.c **** * Summary:
 112:.\LED_Matrix.c **** *  This function clears the 'matrix' buffer in RAM
 113:.\LED_Matrix.c **** *
 114:.\LED_Matrix.c **** * Parameters:  
 115:.\LED_Matrix.c **** * 	color *matrix: 	pointer to the matrix buffer
 116:.\LED_Matrix.c **** *
 117:.\LED_Matrix.c **** * Return:
 118:.\LED_Matrix.c **** *   None
 119:.\LED_Matrix.c **** *
 120:.\LED_Matrix.c **** *******************************************************************************/
 121:.\LED_Matrix.c **** void clearScreen(color *matrix)
 122:.\LED_Matrix.c **** {
 348              		.loc 1 122 0
 349              		.cfi_startproc
 350              	.LVL23:
 351 0000 00B5     		push	{lr}
 352              	.LCFI3:
 353              		.cfi_def_cfa_offset 4
 354              		.cfi_offset 14, -4
 121:.\LED_Matrix.c **** void clearScreen(color *matrix)
 355              		.loc 1 121 0
 356 0002 4021     		mov	r1, #64
 123:.\LED_Matrix.c **** 	uint8 x, index;
 124:.\LED_Matrix.c **** 	
 125:.\LED_Matrix.c **** 	for(index = 0; index < 64; index++)
 126:.\LED_Matrix.c **** 	{
 127:.\LED_Matrix.c **** 		for(x = 0; x < 5 ; x++)
 128:.\LED_Matrix.c **** 		{
 129:.\LED_Matrix.c **** 			matrix[index].r[x] = 0x00;
 357              		.loc 1 129 0
 358 0004 0023     		mov	r3, #0
 359              	.LVL24:
 360              	.L4:
 361 0006 0239     		sub	r1, r1, #2
 362 0008 C9B2     		uxtb	r1, r1
 363              		.loc 1 129 0 is_stmt 0 discriminator 1
 364 000a 0370     		strb	r3, [r0]
 130:.\LED_Matrix.c **** 			matrix[index].g[x] = 0x00;
 365              		.loc 1 130 0 is_stmt 1 discriminator 1
 366 000c 4371     		strb	r3, [r0, #5]
 131:.\LED_Matrix.c **** 			matrix[index].b[x] = 0x00;
 367              		.loc 1 131 0 discriminator 1
 368 000e 8372     		strb	r3, [r0, #10]
 369              	.LVL25:
 129:.\LED_Matrix.c **** 			matrix[index].r[x] = 0x00;
 370              		.loc 1 129 0 discriminator 1
ARM GAS  C:\Users\Steve\AppData\Local\Temp\ccwjFJAL.s 			page 11


 371 0010 4370     		strb	r3, [r0, #1]
 130:.\LED_Matrix.c **** 			matrix[index].g[x] = 0x00;
 372              		.loc 1 130 0 discriminator 1
 373 0012 8371     		strb	r3, [r0, #6]
 374              		.loc 1 131 0 discriminator 1
 375 0014 C372     		strb	r3, [r0, #11]
 376              	.LVL26:
 129:.\LED_Matrix.c **** 			matrix[index].r[x] = 0x00;
 377              		.loc 1 129 0 discriminator 1
 378 0016 8370     		strb	r3, [r0, #2]
 130:.\LED_Matrix.c **** 			matrix[index].g[x] = 0x00;
 379              		.loc 1 130 0 discriminator 1
 380 0018 C371     		strb	r3, [r0, #7]
 381              		.loc 1 131 0 discriminator 1
 382 001a 0373     		strb	r3, [r0, #12]
 383              	.LVL27:
 129:.\LED_Matrix.c **** 			matrix[index].r[x] = 0x00;
 384              		.loc 1 129 0 discriminator 1
 385 001c C370     		strb	r3, [r0, #3]
 130:.\LED_Matrix.c **** 			matrix[index].g[x] = 0x00;
 386              		.loc 1 130 0 discriminator 1
 387 001e 0372     		strb	r3, [r0, #8]
 388              		.loc 1 131 0 discriminator 1
 389 0020 4373     		strb	r3, [r0, #13]
 390              	.LVL28:
 129:.\LED_Matrix.c **** 			matrix[index].r[x] = 0x00;
 391              		.loc 1 129 0 discriminator 1
 392 0022 0371     		strb	r3, [r0, #4]
 130:.\LED_Matrix.c **** 			matrix[index].g[x] = 0x00;
 393              		.loc 1 130 0 discriminator 1
 394 0024 4372     		strb	r3, [r0, #9]
 395              		.loc 1 131 0 discriminator 1
 396 0026 8373     		strb	r3, [r0, #14]
 397              	.LVL29:
 129:.\LED_Matrix.c **** 			matrix[index].r[x] = 0x00;
 398              		.loc 1 129 0 discriminator 1
 399 0028 C373     		strb	r3, [r0, #15]
 130:.\LED_Matrix.c **** 			matrix[index].g[x] = 0x00;
 400              		.loc 1 130 0 discriminator 1
 401 002a 0375     		strb	r3, [r0, #20]
 402              		.loc 1 131 0 discriminator 1
 403 002c 4376     		strb	r3, [r0, #25]
 404              	.LVL30:
 129:.\LED_Matrix.c **** 			matrix[index].r[x] = 0x00;
 405              		.loc 1 129 0 discriminator 1
 406 002e 0374     		strb	r3, [r0, #16]
 130:.\LED_Matrix.c **** 			matrix[index].g[x] = 0x00;
 407              		.loc 1 130 0 discriminator 1
 408 0030 4375     		strb	r3, [r0, #21]
 409              		.loc 1 131 0 discriminator 1
 410 0032 8376     		strb	r3, [r0, #26]
 411              	.LVL31:
 129:.\LED_Matrix.c **** 			matrix[index].r[x] = 0x00;
 412              		.loc 1 129 0 discriminator 1
 413 0034 4374     		strb	r3, [r0, #17]
 130:.\LED_Matrix.c **** 			matrix[index].g[x] = 0x00;
 414              		.loc 1 130 0 discriminator 1
ARM GAS  C:\Users\Steve\AppData\Local\Temp\ccwjFJAL.s 			page 12


 415 0036 8375     		strb	r3, [r0, #22]
 416              		.loc 1 131 0 discriminator 1
 417 0038 C376     		strb	r3, [r0, #27]
 418              	.LVL32:
 129:.\LED_Matrix.c **** 			matrix[index].r[x] = 0x00;
 419              		.loc 1 129 0 discriminator 1
 420 003a 8374     		strb	r3, [r0, #18]
 130:.\LED_Matrix.c **** 			matrix[index].g[x] = 0x00;
 421              		.loc 1 130 0 discriminator 1
 422 003c C375     		strb	r3, [r0, #23]
 423              		.loc 1 131 0 discriminator 1
 424 003e 0377     		strb	r3, [r0, #28]
 425              	.LVL33:
 129:.\LED_Matrix.c **** 			matrix[index].r[x] = 0x00;
 426              		.loc 1 129 0 discriminator 1
 427 0040 C374     		strb	r3, [r0, #19]
 130:.\LED_Matrix.c **** 			matrix[index].g[x] = 0x00;
 428              		.loc 1 130 0 discriminator 1
 429 0042 0376     		strb	r3, [r0, #24]
 430              		.loc 1 131 0 discriminator 1
 431 0044 4377     		strb	r3, [r0, #29]
 432              	.LVL34:
 433 0046 1E30     		add	r0, r0, #30
 125:.\LED_Matrix.c **** 	for(index = 0; index < 64; index++)
 434              		.loc 1 125 0 discriminator 1
 435 0048 0029     		cmp	r1, #0
 436 004a DCD1     		bne	.L4
 132:.\LED_Matrix.c **** 		}
 133:.\LED_Matrix.c **** 	}
 134:.\LED_Matrix.c **** }
 437              		.loc 1 134 0
 438              		@ sp needed for prologue
 439 004c 00BD     		pop	{pc}
 440              		.cfi_endproc
 441              	.LFE35:
 442              		.size	clearScreen, .-clearScreen
 443 004e C046     		.section	.text.drawCircle,"ax",%progbits
 444              		.align	2
 445              		.global	drawCircle
 446              		.code	16
 447              		.thumb_func
 448              		.type	drawCircle, %function
 449              	drawCircle:
 450              	.LFB36:
 135:.\LED_Matrix.c **** 
 136:.\LED_Matrix.c **** void drawCircle(int8 x0, int8 y0, int8 r,RGB c, color *matrix) {
 451              		.loc 1 136 0
 452              		.cfi_startproc
 453              	.LVL35:
 454 0000 F0B5     		push	{r4, r5, r6, r7, lr}
 455              	.LCFI4:
 456              		.cfi_def_cfa_offset 20
 457              		.cfi_offset 4, -20
 458              		.cfi_offset 5, -16
 459              		.cfi_offset 6, -12
 460              		.cfi_offset 7, -8
 461              		.cfi_offset 14, -4
ARM GAS  C:\Users\Steve\AppData\Local\Temp\ccwjFJAL.s 			page 13


 462 0002 5F46     		mov	r7, fp
 463 0004 5646     		mov	r6, sl
 464 0006 4D46     		mov	r5, r9
 465 0008 4446     		mov	r4, r8
 466 000a F0B4     		push	{r4, r5, r6, r7}
 467              	.LCFI5:
 468              		.cfi_def_cfa_offset 36
 469              		.cfi_offset 8, -36
 470              		.cfi_offset 9, -32
 471              		.cfi_offset 10, -28
 472              		.cfi_offset 11, -24
 473 000c 161C     		mov	r6, r2
 474 000e 87B0     		sub	sp, sp, #28
 475              	.LCFI6:
 476              		.cfi_def_cfa_offset 64
 137:.\LED_Matrix.c ****   int8 f = 1 - r;
 477              		.loc 1 137 0
 478 0010 F5B2     		uxtb	r5, r6
 479 0012 0127     		mov	r7, #1
 136:.\LED_Matrix.c **** void drawCircle(int8 x0, int8 y0, int8 r,RGB c, color *matrix) {
 480              		.loc 1 136 0
 481 0014 1A1C     		mov	r2, r3
 482              	.LVL36:
 483 0016 0593     		str	r3, [sp, #20]
 484              		.loc 1 137 0
 485 0018 7B1B     		sub	r3, r7, r5
 486 001a DFB2     		uxtb	r7, r3
 487              	.LVL37:
 138:.\LED_Matrix.c ****   int8 ddF_x = 1;
 139:.\LED_Matrix.c ****   int8 ddF_y = -2 * r;
 488              		.loc 1 139 0
 489 001c EB01     		lsl	r3, r5, #7
 490              	.LVL38:
 491 001e 5B1B     		sub	r3, r3, r5
 492 0020 5B00     		lsl	r3, r3, #1
 136:.\LED_Matrix.c **** void drawCircle(int8 x0, int8 y0, int8 r,RGB c, color *matrix) {
 493              		.loc 1 136 0
 494 0022 109C     		ldr	r4, [sp, #64]
 140:.\LED_Matrix.c ****   int8 x = 0;
 141:.\LED_Matrix.c ****   int8 y = r;
 142:.\LED_Matrix.c **** 
 143:.\LED_Matrix.c ****   drawPixel(x0 , y0+r, c,matrix);
 495              		.loc 1 143 0
 496 0024 C9B2     		uxtb	r1, r1
 139:.\LED_Matrix.c ****   int8 ddF_y = -2 * r;
 497              		.loc 1 139 0
 498 0026 DBB2     		uxtb	r3, r3
 499 0028 0493     		str	r3, [sp, #16]
 500              	.LVL39:
 501              		.loc 1 143 0
 502 002a 6B18     		add	r3, r5, r1
 503 002c 8B46     		mov	fp, r1
 504 002e C0B2     		uxtb	r0, r0
 505 0030 D9B2     		uxtb	r1, r3
 506              	.LVL40:
 507 0032 231C     		mov	r3, r4
 508 0034 8246     		mov	sl, r0
ARM GAS  C:\Users\Steve\AppData\Local\Temp\ccwjFJAL.s 			page 14


 509 0036 FFF7FEFF 		bl	drawPixel
 510              	.LVL41:
 144:.\LED_Matrix.c ****   drawPixel(x0 , y0-r, c,matrix);
 511              		.loc 1 144 0
 512 003a 5A46     		mov	r2, fp
 513 003c 501B     		sub	r0, r2, r5
 514 003e C1B2     		uxtb	r1, r0
 515 0040 059A     		ldr	r2, [sp, #20]
 516 0042 5046     		mov	r0, sl
 517 0044 231C     		mov	r3, r4
 518 0046 FFF7FEFF 		bl	drawPixel
 519              	.LVL42:
 145:.\LED_Matrix.c ****   drawPixel(x0+r, y0 , c,matrix);
 520              		.loc 1 145 0
 521 004a 5146     		mov	r1, sl
 522 004c 6B18     		add	r3, r5, r1
 523 004e D8B2     		uxtb	r0, r3
 524 0050 5946     		mov	r1, fp
 525 0052 059A     		ldr	r2, [sp, #20]
 526 0054 231C     		mov	r3, r4
 527 0056 FFF7FEFF 		bl	drawPixel
 528              	.LVL43:
 146:.\LED_Matrix.c ****   drawPixel(x0-r, y0 , c,matrix);
 529              		.loc 1 146 0
 530 005a 5246     		mov	r2, sl
 531 005c 551B     		sub	r5, r2, r5
 532 005e E8B2     		uxtb	r0, r5
 533 0060 5946     		mov	r1, fp
 534 0062 059A     		ldr	r2, [sp, #20]
 535 0064 231C     		mov	r3, r4
 536 0066 FFF7FEFF 		bl	drawPixel
 537              	.LVL44:
 147:.\LED_Matrix.c **** 
 148:.\LED_Matrix.c ****   while (x < y) 
 538              		.loc 1 148 0
 539 006a 002E     		cmp	r6, #0
 540 006c 6FDD     		ble	.L8
 541 006e 0196     		str	r6, [sp, #4]
 542 0070 0125     		mov	r5, #1
 543              	.LVL45:
 544              	.L9:
 149:.\LED_Matrix.c ****   {
 150:.\LED_Matrix.c ****     if (f >= 0) 
 545              		.loc 1 150 0
 546 0072 7EB2     		sxtb	r6, r7
 547 0074 002E     		cmp	r6, #0
 548 0076 0ADB     		blt	.L10
 151:.\LED_Matrix.c **** 	{
 152:.\LED_Matrix.c ****       y--;
 153:.\LED_Matrix.c ****       ddF_y += 2;
 549              		.loc 1 153 0
 550 0078 049B     		ldr	r3, [sp, #16]
 152:.\LED_Matrix.c ****       y--;
 551              		.loc 1 152 0
 552 007a 0198     		ldr	r0, [sp, #4]
 553              		.loc 1 153 0
 554 007c 0233     		add	r3, r3, #2
ARM GAS  C:\Users\Steve\AppData\Local\Temp\ccwjFJAL.s 			page 15


 555 007e DEB2     		uxtb	r6, r3
 152:.\LED_Matrix.c ****       y--;
 556              		.loc 1 152 0
 557 0080 0138     		sub	r0, r0, #1
 558 0082 C1B2     		uxtb	r1, r0
 559              		.loc 1 153 0
 560 0084 F2B2     		uxtb	r2, r6
 154:.\LED_Matrix.c ****       f += ddF_y;
 561              		.loc 1 154 0
 562 0086 F719     		add	r7, r6, r7
 152:.\LED_Matrix.c ****       y--;
 563              		.loc 1 152 0
 564 0088 0191     		str	r1, [sp, #4]
 565              	.LVL46:
 153:.\LED_Matrix.c ****       ddF_y += 2;
 566              		.loc 1 153 0
 567 008a 0492     		str	r2, [sp, #16]
 568              		.loc 1 154 0
 569 008c FFB2     		uxtb	r7, r7
 570              	.LVL47:
 571              	.L10:
 136:.\LED_Matrix.c **** void drawCircle(int8 x0, int8 y0, int8 r,RGB c, color *matrix) {
 572              		.loc 1 136 0
 573 008e 6900     		lsl	r1, r5, #1
 574 0090 0131     		add	r1, r1, #1
 155:.\LED_Matrix.c ****     }
 156:.\LED_Matrix.c ****     x++;
 157:.\LED_Matrix.c ****     ddF_x += 2;
 158:.\LED_Matrix.c ****     f += ddF_x;
 575              		.loc 1 158 0
 576 0092 7B18     		add	r3, r7, r1
 136:.\LED_Matrix.c **** void drawCircle(int8 x0, int8 y0, int8 r,RGB c, color *matrix) {
 577              		.loc 1 136 0
 578 0094 5646     		mov	r6, sl
 159:.\LED_Matrix.c ****   
 160:.\LED_Matrix.c ****     drawPixel(x0 + x, y0 + y, c,matrix);
 579              		.loc 1 160 0
 580 0096 6946     		mov	r1, sp
 136:.\LED_Matrix.c **** void drawCircle(int8 x0, int8 y0, int8 r,RGB c, color *matrix) {
 581              		.loc 1 136 0
 582 0098 7219     		add	r2, r6, r5
 583              		.loc 1 160 0
 584 009a 0E79     		ldrb	r6, [r1, #4]
 156:.\LED_Matrix.c ****     x++;
 585              		.loc 1 156 0
 586 009c E8B2     		uxtb	r0, r5
 158:.\LED_Matrix.c ****     f += ddF_x;
 587              		.loc 1 158 0
 588 009e DFB2     		uxtb	r7, r3
 589              	.LVL48:
 590              		.loc 1 160 0
 591 00a0 5B46     		mov	r3, fp
 156:.\LED_Matrix.c ****     x++;
 592              		.loc 1 156 0
 593 00a2 0390     		str	r0, [sp, #12]
 594              	.LVL49:
 136:.\LED_Matrix.c **** void drawCircle(int8 x0, int8 y0, int8 r,RGB c, color *matrix) {
ARM GAS  C:\Users\Steve\AppData\Local\Temp\ccwjFJAL.s 			page 16


 595              		.loc 1 136 0
 596 00a4 D0B2     		uxtb	r0, r2
 597              		.loc 1 160 0
 598 00a6 F218     		add	r2, r6, r3
 136:.\LED_Matrix.c **** void drawCircle(int8 x0, int8 y0, int8 r,RGB c, color *matrix) {
 599              		.loc 1 136 0
 600 00a8 0290     		str	r0, [sp, #8]
 601              		.loc 1 160 0
 602 00aa D0B2     		uxtb	r0, r2
 603 00ac 8046     		mov	r8, r0
 604 00ae 4146     		mov	r1, r8
 605 00b0 0298     		ldr	r0, [sp, #8]
 606 00b2 059A     		ldr	r2, [sp, #20]
 607 00b4 231C     		mov	r3, r4
 608 00b6 FFF7FEFF 		bl	drawPixel
 609              	.LVL50:
 136:.\LED_Matrix.c **** void drawCircle(int8 x0, int8 y0, int8 r,RGB c, color *matrix) {
 610              		.loc 1 136 0
 611 00ba 5146     		mov	r1, sl
 612 00bc 4B1B     		sub	r3, r1, r5
 613 00be DAB2     		uxtb	r2, r3
 614 00c0 9146     		mov	r9, r2
 161:.\LED_Matrix.c ****     drawPixel(x0 - x, y0 + y, c,matrix);
 615              		.loc 1 161 0
 616 00c2 101C     		mov	r0, r2
 617 00c4 4146     		mov	r1, r8
 618 00c6 059A     		ldr	r2, [sp, #20]
 619 00c8 231C     		mov	r3, r4
 620 00ca FFF7FEFF 		bl	drawPixel
 621              	.LVL51:
 162:.\LED_Matrix.c ****     drawPixel(x0 + x, y0 - y, c,matrix);
 622              		.loc 1 162 0
 623 00ce 5846     		mov	r0, fp
 624 00d0 811B     		sub	r1, r0, r6
 625 00d2 CBB2     		uxtb	r3, r1
 626 00d4 9846     		mov	r8, r3
 627 00d6 191C     		mov	r1, r3
 628 00d8 0298     		ldr	r0, [sp, #8]
 629 00da 059A     		ldr	r2, [sp, #20]
 630 00dc 231C     		mov	r3, r4
 631 00de FFF7FEFF 		bl	drawPixel
 632              	.LVL52:
 163:.\LED_Matrix.c ****     drawPixel(x0 - x, y0 - y, c,matrix);
 633              		.loc 1 163 0
 634 00e2 4846     		mov	r0, r9
 635 00e4 4146     		mov	r1, r8
 636 00e6 059A     		ldr	r2, [sp, #20]
 637 00e8 231C     		mov	r3, r4
 638 00ea FFF7FEFF 		bl	drawPixel
 639              	.LVL53:
 164:.\LED_Matrix.c ****     drawPixel(x0 + y, y0 + x, c,matrix);
 640              		.loc 1 164 0
 641 00ee 5246     		mov	r2, sl
 136:.\LED_Matrix.c **** void drawCircle(int8 x0, int8 y0, int8 r,RGB c, color *matrix) {
 642              		.loc 1 136 0
 643 00f0 5B46     		mov	r3, fp
 644              		.loc 1 164 0
ARM GAS  C:\Users\Steve\AppData\Local\Temp\ccwjFJAL.s 			page 17


 645 00f2 B018     		add	r0, r6, r2
 136:.\LED_Matrix.c **** void drawCircle(int8 x0, int8 y0, int8 r,RGB c, color *matrix) {
 646              		.loc 1 136 0
 647 00f4 5A19     		add	r2, r3, r5
 648              		.loc 1 164 0
 649 00f6 C1B2     		uxtb	r1, r0
 136:.\LED_Matrix.c **** void drawCircle(int8 x0, int8 y0, int8 r,RGB c, color *matrix) {
 650              		.loc 1 136 0
 651 00f8 D0B2     		uxtb	r0, r2
 652 00fa 8146     		mov	r9, r0
 653              		.loc 1 164 0
 654 00fc 8846     		mov	r8, r1
 655 00fe 081C     		mov	r0, r1
 656 0100 059A     		ldr	r2, [sp, #20]
 657 0102 4946     		mov	r1, r9
 658 0104 231C     		mov	r3, r4
 659 0106 FFF7FEFF 		bl	drawPixel
 660              	.LVL54:
 165:.\LED_Matrix.c ****     drawPixel(x0 - y, y0 + x, c,matrix);
 661              		.loc 1 165 0
 662 010a 5146     		mov	r1, sl
 663 010c 8E1B     		sub	r6, r1, r6
 664 010e F6B2     		uxtb	r6, r6
 665 0110 301C     		mov	r0, r6
 666 0112 4946     		mov	r1, r9
 667 0114 059A     		ldr	r2, [sp, #20]
 668 0116 231C     		mov	r3, r4
 669 0118 FFF7FEFF 		bl	drawPixel
 670              	.LVL55:
 136:.\LED_Matrix.c **** void drawCircle(int8 x0, int8 y0, int8 r,RGB c, color *matrix) {
 671              		.loc 1 136 0
 672 011c 5B46     		mov	r3, fp
 673 011e 5A1B     		sub	r2, r3, r5
 674 0120 D0B2     		uxtb	r0, r2
 675 0122 8146     		mov	r9, r0
 166:.\LED_Matrix.c ****     drawPixel(x0 + y, y0 - x, c,matrix);
 676              		.loc 1 166 0
 677 0124 4946     		mov	r1, r9
 678 0126 4046     		mov	r0, r8
 679 0128 059A     		ldr	r2, [sp, #20]
 680 012a 231C     		mov	r3, r4
 681 012c FFF7FEFF 		bl	drawPixel
 682              	.LVL56:
 167:.\LED_Matrix.c ****     drawPixel(x0 - y, y0 - x, c,matrix);
 683              		.loc 1 167 0
 684 0130 301C     		mov	r0, r6
 685 0132 4946     		mov	r1, r9
 686 0134 059A     		ldr	r2, [sp, #20]
 687 0136 231C     		mov	r3, r4
 688 0138 FFF7FEFF 		bl	drawPixel
 689              	.LVL57:
 148:.\LED_Matrix.c ****   while (x < y) 
 690              		.loc 1 148 0
 691 013c 6E46     		mov	r6, sp
 692 013e 0421     		mov	r1, #4
 693 0140 0C23     		mov	r3, #12
 694 0142 7256     		ldrsb	r2, [r6, r1]
ARM GAS  C:\Users\Steve\AppData\Local\Temp\ccwjFJAL.s 			page 18


 695 0144 9857     		ldrsb	r0, [r3, r6]
 696 0146 0135     		add	r5, r5, #1
 697              	.LVL58:
 698 0148 EDB2     		uxtb	r5, r5
 699              	.LVL59:
 700 014a 8242     		cmp	r2, r0
 701 014c 91DC     		bgt	.L9
 702              	.LVL60:
 703              	.L8:
 168:.\LED_Matrix.c ****   }
 169:.\LED_Matrix.c **** 
 170:.\LED_Matrix.c **** }
 704              		.loc 1 170 0
 705 014e 07B0     		add	sp, sp, #28
 706              		@ sp needed for prologue
 707              	.LVL61:
 708              	.LVL62:
 709 0150 3CBC     		pop	{r2, r3, r4, r5}
 710 0152 9046     		mov	r8, r2
 711 0154 9946     		mov	r9, r3
 712 0156 A246     		mov	sl, r4
 713 0158 AB46     		mov	fp, r5
 714 015a F0BD     		pop	{r4, r5, r6, r7, pc}
 715              		.cfi_endproc
 716              	.LFE36:
 717              		.size	drawCircle, .-drawCircle
 718              		.section	.text.drawCircleHelper,"ax",%progbits
 719              		.align	2
 720              		.global	drawCircleHelper
 721              		.code	16
 722              		.thumb_func
 723              		.type	drawCircleHelper, %function
 724              	drawCircleHelper:
 725              	.LFB37:
 171:.\LED_Matrix.c **** 
 172:.\LED_Matrix.c **** void drawCircleHelper( int8 x0, int8 y0,int8 r, int8 cornername, RGB c, color *matrix) {
 726              		.loc 1 172 0
 727              		.cfi_startproc
 728              	.LVL63:
 729 0000 F0B5     		push	{r4, r5, r6, r7, lr}
 730              	.LCFI7:
 731              		.cfi_def_cfa_offset 20
 732              		.cfi_offset 4, -20
 733              		.cfi_offset 5, -16
 734              		.cfi_offset 6, -12
 735              		.cfi_offset 7, -8
 736              		.cfi_offset 14, -4
 737 0002 5F46     		mov	r7, fp
 738 0004 5646     		mov	r6, sl
 739 0006 4D46     		mov	r5, r9
 740 0008 4446     		mov	r4, r8
 741 000a F0B4     		push	{r4, r5, r6, r7}
 742              	.LCFI8:
 743              		.cfi_def_cfa_offset 36
 744              		.cfi_offset 8, -36
 745              		.cfi_offset 9, -32
 746              		.cfi_offset 10, -28
ARM GAS  C:\Users\Steve\AppData\Local\Temp\ccwjFJAL.s 			page 19


 747              		.cfi_offset 11, -24
 173:.\LED_Matrix.c ****   int8 f = 1 - r;
 748              		.loc 1 173 0
 749 000c D4B2     		uxtb	r4, r2
 750 000e 0125     		mov	r5, #1
 751 0010 2E1B     		sub	r6, r5, r4
 752 0012 F5B2     		uxtb	r5, r6
 753              	.LVL64:
 174:.\LED_Matrix.c ****   int8 ddF_x = 1;
 175:.\LED_Matrix.c ****   int8 ddF_y = -2 * r;
 754              		.loc 1 175 0
 755 0014 E601     		lsl	r6, r4, #7
 756              	.LVL65:
 757 0016 341B     		sub	r4, r6, r4
 758 0018 6600     		lsl	r6, r4, #1
 172:.\LED_Matrix.c **** void drawCircleHelper( int8 x0, int8 y0,int8 r, int8 cornername, RGB c, color *matrix) {
 759              		.loc 1 172 0
 760 001a 87B0     		sub	sp, sp, #28
 761              	.LCFI9:
 762              		.cfi_def_cfa_offset 64
 763              		.loc 1 175 0
 764 001c F4B2     		uxtb	r4, r6
 172:.\LED_Matrix.c **** void drawCircleHelper( int8 x0, int8 y0,int8 r, int8 cornername, RGB c, color *matrix) {
 765              		.loc 1 172 0
 766 001e 119F     		ldr	r7, [sp, #68]
 767              		.loc 1 175 0
 768 0020 0194     		str	r4, [sp, #4]
 769              	.LVL66:
 176:.\LED_Matrix.c ****   int8 x = 0;
 177:.\LED_Matrix.c ****   int8 y = r;
 178:.\LED_Matrix.c **** 
 179:.\LED_Matrix.c ****   while (x<y) {
 770              		.loc 1 179 0
 771 0022 002A     		cmp	r2, #0
 772 0024 00DC     		bgt	.LCB651
 773 0026 9FE0     		b	.L14	@long jump
 774              	.LCB651:
 775 0028 0226     		mov	r6, #2
 776 002a 0824     		mov	r4, #8
 777 002c 1E40     		and	r6, r3
 778 002e 1C40     		and	r4, r3
 779 0030 0396     		str	r6, [sp, #12]
 780 0032 0294     		str	r4, [sp, #8]
 781 0034 0126     		mov	r6, #1
 782 0036 0424     		mov	r4, #4
 783 0038 1E40     		and	r6, r3
 784 003a 1C40     		and	r4, r3
 180:.\LED_Matrix.c ****     if (f >= 0) {
 181:.\LED_Matrix.c ****       y--;
 182:.\LED_Matrix.c ****       ddF_y += 2;
 183:.\LED_Matrix.c ****       f += ddF_y;
 184:.\LED_Matrix.c ****     }
 185:.\LED_Matrix.c ****     x++;
 186:.\LED_Matrix.c ****     ddF_x += 2;
 187:.\LED_Matrix.c ****     f += ddF_x;
 188:.\LED_Matrix.c ****     if (cornername & 0x4) {
 189:.\LED_Matrix.c ****       drawPixel(x0 + x, y0 + y, c, matrix);
ARM GAS  C:\Users\Steve\AppData\Local\Temp\ccwjFJAL.s 			page 20


 785              		.loc 1 189 0
 786 003c C0B2     		uxtb	r0, r0
 787 003e C9B2     		uxtb	r1, r1
 788 0040 0596     		str	r6, [sp, #20]
 789 0042 0494     		str	r4, [sp, #16]
 179:.\LED_Matrix.c ****   while (x<y) {
 790              		.loc 1 179 0
 791 0044 161C     		mov	r6, r2
 792 0046 0124     		mov	r4, #1
 793              		.loc 1 189 0
 794 0048 8146     		mov	r9, r0
 795 004a 8846     		mov	r8, r1
 796 004c 0FE0     		b	.L21
 797              	.LVL67:
 798              	.L17:
 190:.\LED_Matrix.c ****       drawPixel(x0 + y, y0 + x, c, matrix);
 191:.\LED_Matrix.c ****     }
 192:.\LED_Matrix.c ****     if (cornername & 0x2) {
 799              		.loc 1 192 0
 800 004e 0398     		ldr	r0, [sp, #12]
 801              	.LVL68:
 802 0050 0028     		cmp	r0, #0
 803 0052 39D1     		bne	.L36
 804              	.L18:
 193:.\LED_Matrix.c ****       drawPixel(x0 + x, y0 - y, c, matrix);
 194:.\LED_Matrix.c ****       drawPixel(x0 + y, y0 - x, c, matrix);
 195:.\LED_Matrix.c ****     }
 196:.\LED_Matrix.c ****     if (cornername & 0x8) {
 805              		.loc 1 196 0
 806 0054 0298     		ldr	r0, [sp, #8]
 807 0056 0028     		cmp	r0, #0
 808 0058 4FD1     		bne	.L37
 809              	.L19:
 197:.\LED_Matrix.c ****       drawPixel(x0 - y, y0 + x, c, matrix);
 198:.\LED_Matrix.c ****       drawPixel(x0 - x, y0 + y, c, matrix);
 199:.\LED_Matrix.c ****     }
 200:.\LED_Matrix.c ****     if (cornername & 0x1) {
 810              		.loc 1 200 0
 811 005a 0598     		ldr	r0, [sp, #20]
 812 005c 0028     		cmp	r0, #0
 813 005e 65D1     		bne	.L38
 814              	.L20:
 815              	.LVL69:
 179:.\LED_Matrix.c ****   while (x<y) {
 816              		.loc 1 179 0 discriminator 1
 817 0060 5146     		mov	r1, sl
 818 0062 0134     		add	r4, r4, #1
 819              	.LVL70:
 820 0064 70B2     		sxtb	r0, r6
 821 0066 4BB2     		sxtb	r3, r1
 822 0068 E4B2     		uxtb	r4, r4
 823              	.LVL71:
 824 006a 9842     		cmp	r0, r3
 825 006c 7CDD     		ble	.L14
 826              	.LVL72:
 827              	.L21:
 180:.\LED_Matrix.c ****     if (f >= 0) {
ARM GAS  C:\Users\Steve\AppData\Local\Temp\ccwjFJAL.s 			page 21


 828              		.loc 1 180 0
 829 006e 6BB2     		sxtb	r3, r5
 830 0070 002B     		cmp	r3, #0
 831 0072 08DB     		blt	.L16
 182:.\LED_Matrix.c ****       ddF_y += 2;
 832              		.loc 1 182 0
 833 0074 019A     		ldr	r2, [sp, #4]
 181:.\LED_Matrix.c ****       y--;
 834              		.loc 1 181 0
 835 0076 013E     		sub	r6, r6, #1
 182:.\LED_Matrix.c ****       ddF_y += 2;
 836              		.loc 1 182 0
 837 0078 0232     		add	r2, r2, #2
 838 007a D0B2     		uxtb	r0, r2
 839 007c C1B2     		uxtb	r1, r0
 183:.\LED_Matrix.c ****       f += ddF_y;
 840              		.loc 1 183 0
 841 007e 4519     		add	r5, r0, r5
 181:.\LED_Matrix.c ****       y--;
 842              		.loc 1 181 0
 843 0080 F6B2     		uxtb	r6, r6
 844              	.LVL73:
 182:.\LED_Matrix.c ****       ddF_y += 2;
 845              		.loc 1 182 0
 846 0082 0191     		str	r1, [sp, #4]
 183:.\LED_Matrix.c ****       f += ddF_y;
 847              		.loc 1 183 0
 848 0084 EDB2     		uxtb	r5, r5
 849              	.LVL74:
 850              	.L16:
 172:.\LED_Matrix.c **** void drawCircleHelper( int8 x0, int8 y0,int8 r, int8 cornername, RGB c, color *matrix) {
 851              		.loc 1 172 0
 852 0086 6200     		lsl	r2, r4, #1
 853 0088 0132     		add	r2, r2, #1
 188:.\LED_Matrix.c ****     if (cornername & 0x4) {
 854              		.loc 1 188 0
 855 008a 0499     		ldr	r1, [sp, #16]
 185:.\LED_Matrix.c ****     x++;
 856              		.loc 1 185 0
 857 008c E3B2     		uxtb	r3, r4
 187:.\LED_Matrix.c ****     f += ddF_x;
 858              		.loc 1 187 0
 859 008e A818     		add	r0, r5, r2
 185:.\LED_Matrix.c ****     x++;
 860              		.loc 1 185 0
 861 0090 9A46     		mov	sl, r3
 862              	.LVL75:
 187:.\LED_Matrix.c ****     f += ddF_x;
 863              		.loc 1 187 0
 864 0092 C5B2     		uxtb	r5, r0
 865              	.LVL76:
 188:.\LED_Matrix.c ****     if (cornername & 0x4) {
 866              		.loc 1 188 0
 867 0094 0029     		cmp	r1, #0
 868 0096 DAD0     		beq	.L17
 189:.\LED_Matrix.c ****       drawPixel(x0 + x, y0 + y, c, matrix);
 869              		.loc 1 189 0
ARM GAS  C:\Users\Steve\AppData\Local\Temp\ccwjFJAL.s 			page 22


 870 0098 F1B2     		uxtb	r1, r6
 172:.\LED_Matrix.c **** void drawCircleHelper( int8 x0, int8 y0,int8 r, int8 cornername, RGB c, color *matrix) {
 871              		.loc 1 172 0
 872 009a 4B46     		mov	r3, r9
 873 009c 1A19     		add	r2, r3, r4
 189:.\LED_Matrix.c ****       drawPixel(x0 + x, y0 + y, c, matrix);
 874              		.loc 1 189 0
 875 009e 8B46     		mov	fp, r1
 876 00a0 4144     		add	r1, r1, r8
 877 00a2 D0B2     		uxtb	r0, r2
 878              	.LVL77:
 879 00a4 C9B2     		uxtb	r1, r1
 880 00a6 109A     		ldr	r2, [sp, #64]
 881 00a8 3B1C     		mov	r3, r7
 882 00aa FFF7FEFF 		bl	drawPixel
 883              	.LVL78:
 172:.\LED_Matrix.c **** void drawCircleHelper( int8 x0, int8 y0,int8 r, int8 cornername, RGB c, color *matrix) {
 884              		.loc 1 172 0
 885 00ae 4346     		mov	r3, r8
 190:.\LED_Matrix.c ****       drawPixel(x0 + y, y0 + x, c, matrix);
 886              		.loc 1 190 0
 887 00b0 5946     		mov	r1, fp
 172:.\LED_Matrix.c **** void drawCircleHelper( int8 x0, int8 y0,int8 r, int8 cornername, RGB c, color *matrix) {
 888              		.loc 1 172 0
 889 00b2 1A19     		add	r2, r3, r4
 190:.\LED_Matrix.c ****       drawPixel(x0 + y, y0 + x, c, matrix);
 890              		.loc 1 190 0
 891 00b4 4944     		add	r1, r1, r9
 892 00b6 C8B2     		uxtb	r0, r1
 893 00b8 3B1C     		mov	r3, r7
 894 00ba D1B2     		uxtb	r1, r2
 895 00bc 109A     		ldr	r2, [sp, #64]
 896 00be FFF7FEFF 		bl	drawPixel
 897              	.LVL79:
 192:.\LED_Matrix.c ****     if (cornername & 0x2) {
 898              		.loc 1 192 0
 899 00c2 0398     		ldr	r0, [sp, #12]
 900 00c4 0028     		cmp	r0, #0
 901 00c6 C5D0     		beq	.L18
 902              	.L36:
 172:.\LED_Matrix.c **** void drawCircleHelper( int8 x0, int8 y0,int8 r, int8 cornername, RGB c, color *matrix) {
 903              		.loc 1 172 0
 904 00c8 4B46     		mov	r3, r9
 905 00ca 1A19     		add	r2, r3, r4
 193:.\LED_Matrix.c ****       drawPixel(x0 + x, y0 - y, c, matrix);
 906              		.loc 1 193 0
 907 00cc F1B2     		uxtb	r1, r6
 908 00ce 4346     		mov	r3, r8
 909 00d0 8B46     		mov	fp, r1
 910 00d2 591A     		sub	r1, r3, r1
 911 00d4 D0B2     		uxtb	r0, r2
 912 00d6 C9B2     		uxtb	r1, r1
 913 00d8 109A     		ldr	r2, [sp, #64]
 914 00da 3B1C     		mov	r3, r7
 915 00dc FFF7FEFF 		bl	drawPixel
 916              	.LVL80:
 172:.\LED_Matrix.c **** void drawCircleHelper( int8 x0, int8 y0,int8 r, int8 cornername, RGB c, color *matrix) {
ARM GAS  C:\Users\Steve\AppData\Local\Temp\ccwjFJAL.s 			page 23


 917              		.loc 1 172 0
 918 00e0 4346     		mov	r3, r8
 194:.\LED_Matrix.c ****       drawPixel(x0 + y, y0 - x, c, matrix);
 919              		.loc 1 194 0
 920 00e2 5A46     		mov	r2, fp
 921 00e4 4A44     		add	r2, r2, r9
 172:.\LED_Matrix.c **** void drawCircleHelper( int8 x0, int8 y0,int8 r, int8 cornername, RGB c, color *matrix) {
 922              		.loc 1 172 0
 923 00e6 191B     		sub	r1, r3, r4
 194:.\LED_Matrix.c ****       drawPixel(x0 + y, y0 - x, c, matrix);
 924              		.loc 1 194 0
 925 00e8 D0B2     		uxtb	r0, r2
 926 00ea C9B2     		uxtb	r1, r1
 927 00ec 109A     		ldr	r2, [sp, #64]
 928 00ee 3B1C     		mov	r3, r7
 929 00f0 FFF7FEFF 		bl	drawPixel
 930              	.LVL81:
 196:.\LED_Matrix.c ****     if (cornername & 0x8) {
 931              		.loc 1 196 0
 932 00f4 0298     		ldr	r0, [sp, #8]
 933 00f6 0028     		cmp	r0, #0
 934 00f8 AFD0     		beq	.L19
 935              	.L37:
 197:.\LED_Matrix.c ****       drawPixel(x0 - y, y0 + x, c, matrix);
 936              		.loc 1 197 0
 937 00fa F3B2     		uxtb	r3, r6
 938 00fc 4A46     		mov	r2, r9
 939 00fe D11A     		sub	r1, r2, r3
 940 0100 9B46     		mov	fp, r3
 172:.\LED_Matrix.c **** void drawCircleHelper( int8 x0, int8 y0,int8 r, int8 cornername, RGB c, color *matrix) {
 941              		.loc 1 172 0
 942 0102 4346     		mov	r3, r8
 943 0104 1A19     		add	r2, r3, r4
 197:.\LED_Matrix.c ****       drawPixel(x0 - y, y0 + x, c, matrix);
 944              		.loc 1 197 0
 945 0106 C8B2     		uxtb	r0, r1
 946 0108 3B1C     		mov	r3, r7
 947 010a D1B2     		uxtb	r1, r2
 948 010c 109A     		ldr	r2, [sp, #64]
 949 010e FFF7FEFF 		bl	drawPixel
 950              	.LVL82:
 172:.\LED_Matrix.c **** void drawCircleHelper( int8 x0, int8 y0,int8 r, int8 cornername, RGB c, color *matrix) {
 951              		.loc 1 172 0
 952 0112 4846     		mov	r0, r9
 198:.\LED_Matrix.c ****       drawPixel(x0 - x, y0 + y, c, matrix);
 953              		.loc 1 198 0
 954 0114 5A46     		mov	r2, fp
 172:.\LED_Matrix.c **** void drawCircleHelper( int8 x0, int8 y0,int8 r, int8 cornername, RGB c, color *matrix) {
 955              		.loc 1 172 0
 956 0116 011B     		sub	r1, r0, r4
 198:.\LED_Matrix.c ****       drawPixel(x0 - x, y0 + y, c, matrix);
 957              		.loc 1 198 0
 958 0118 4244     		add	r2, r2, r8
 959 011a C8B2     		uxtb	r0, r1
 960 011c 3B1C     		mov	r3, r7
 961 011e D1B2     		uxtb	r1, r2
 962 0120 109A     		ldr	r2, [sp, #64]
ARM GAS  C:\Users\Steve\AppData\Local\Temp\ccwjFJAL.s 			page 24


 963 0122 FFF7FEFF 		bl	drawPixel
 964              	.LVL83:
 965              		.loc 1 200 0
 966 0126 0598     		ldr	r0, [sp, #20]
 967 0128 0028     		cmp	r0, #0
 968 012a 99D0     		beq	.L20
 969              	.L38:
 201:.\LED_Matrix.c ****       drawPixel(x0 - y, y0 - x, c, matrix);
 970              		.loc 1 201 0
 971 012c F1B2     		uxtb	r1, r6
 972 012e 4B46     		mov	r3, r9
 973 0130 5A1A     		sub	r2, r3, r1
 974 0132 8B46     		mov	fp, r1
 172:.\LED_Matrix.c **** void drawCircleHelper( int8 x0, int8 y0,int8 r, int8 cornername, RGB c, color *matrix) {
 975              		.loc 1 172 0
 976 0134 4146     		mov	r1, r8
 977 0136 0B1B     		sub	r3, r1, r4
 978              		.loc 1 201 0
 979 0138 D0B2     		uxtb	r0, r2
 980 013a D9B2     		uxtb	r1, r3
 981 013c 109A     		ldr	r2, [sp, #64]
 982 013e 3B1C     		mov	r3, r7
 983 0140 FFF7FEFF 		bl	drawPixel
 984              	.LVL84:
 172:.\LED_Matrix.c **** void drawCircleHelper( int8 x0, int8 y0,int8 r, int8 cornername, RGB c, color *matrix) {
 985              		.loc 1 172 0
 986 0144 4846     		mov	r0, r9
 987 0146 021B     		sub	r2, r0, r4
 202:.\LED_Matrix.c ****       drawPixel(x0 - x, y0 - y, c, matrix);
 988              		.loc 1 202 0
 989 0148 4146     		mov	r1, r8
 990 014a 5B46     		mov	r3, fp
 991 014c D0B2     		uxtb	r0, r2
 992 014e CA1A     		sub	r2, r1, r3
 993 0150 D1B2     		uxtb	r1, r2
 994 0152 3B1C     		mov	r3, r7
 995 0154 109A     		ldr	r2, [sp, #64]
 996 0156 FFF7FEFF 		bl	drawPixel
 997              	.LVL85:
 179:.\LED_Matrix.c ****   while (x<y) {
 998              		.loc 1 179 0
 999 015a 5146     		mov	r1, sl
 1000 015c 0134     		add	r4, r4, #1
 1001              	.LVL86:
 1002 015e 70B2     		sxtb	r0, r6
 1003 0160 4BB2     		sxtb	r3, r1
 1004 0162 E4B2     		uxtb	r4, r4
 1005              	.LVL87:
 1006 0164 9842     		cmp	r0, r3
 1007 0166 82DC     		bgt	.L21
 1008              	.LVL88:
 1009              	.L14:
 203:.\LED_Matrix.c ****     }
 204:.\LED_Matrix.c ****   }
 205:.\LED_Matrix.c **** }
 1010              		.loc 1 205 0
 1011 0168 07B0     		add	sp, sp, #28
ARM GAS  C:\Users\Steve\AppData\Local\Temp\ccwjFJAL.s 			page 25


 1012              		@ sp needed for prologue
 1013 016a 3CBC     		pop	{r2, r3, r4, r5}
 1014 016c 9046     		mov	r8, r2
 1015 016e 9946     		mov	r9, r3
 1016 0170 A246     		mov	sl, r4
 1017 0172 AB46     		mov	fp, r5
 1018 0174 F0BD     		pop	{r4, r5, r6, r7, pc}
 1019              		.cfi_endproc
 1020              	.LFE37:
 1021              		.size	drawCircleHelper, .-drawCircleHelper
 1022 0176 C046     		.section	.text.drawLine,"ax",%progbits
 1023              		.align	2
 1024              		.global	drawLine
 1025              		.code	16
 1026              		.thumb_func
 1027              		.type	drawLine, %function
 1028              	drawLine:
 1029              	.LFB38:
 206:.\LED_Matrix.c **** 
 207:.\LED_Matrix.c **** void drawLine(int8 x0, int8 y0, int8 x1, int8 y1, RGB c, color *matrix)
 208:.\LED_Matrix.c **** {
 1030              		.loc 1 208 0
 1031              		.cfi_startproc
 1032              	.LVL89:
 1033 0000 F0B5     		push	{r4, r5, r6, r7, lr}
 1034              	.LCFI10:
 1035              		.cfi_def_cfa_offset 20
 1036              		.cfi_offset 4, -20
 1037              		.cfi_offset 5, -16
 1038              		.cfi_offset 6, -12
 1039              		.cfi_offset 7, -8
 1040              		.cfi_offset 14, -4
 1041 0002 4D46     		mov	r5, r9
 1042 0004 4446     		mov	r4, r8
 1043 0006 5F46     		mov	r7, fp
 1044 0008 5646     		mov	r6, sl
 1045 000a F0B4     		push	{r4, r5, r6, r7}
 1046              	.LCFI11:
 1047              		.cfi_def_cfa_offset 36
 1048              		.cfi_offset 8, -36
 1049              		.cfi_offset 9, -32
 1050              		.cfi_offset 10, -28
 1051              		.cfi_offset 11, -24
 1052 000c 83B0     		sub	sp, sp, #12
 1053              	.LCFI12:
 1054              		.cfi_def_cfa_offset 48
 1055              		.loc 1 208 0
 1056 000e 041C     		mov	r4, r0
 1057 0010 0D1C     		mov	r5, r1
 1058 0012 0D98     		ldr	r0, [sp, #52]
 1059              	.LVL90:
 209:.\LED_Matrix.c ****   int8 steep = abs(y1 - y0) > abs(x1 - x0);
 1060              		.loc 1 209 0
 1061 0014 5E1B     		sub	r6, r3, r5
 208:.\LED_Matrix.c **** {
 1062              		.loc 1 208 0
 1063 0016 8046     		mov	r8, r0
ARM GAS  C:\Users\Steve\AppData\Local\Temp\ccwjFJAL.s 			page 26


 1064              		.loc 1 209 0
 1065 0018 F017     		asr	r0, r6, #31
 1066 001a 3618     		add	r6, r6, r0
 1067 001c 4640     		eor	r6, r0
 208:.\LED_Matrix.c **** {
 1068              		.loc 1 208 0
 1069 001e 171C     		mov	r7, r2
 1070              		.loc 1 209 0
 1071 0020 B146     		mov	r9, r6
 1072 0022 3E1B     		sub	r6, r7, r4
 1073 0024 F017     		asr	r0, r6, #31
 1074 0026 3618     		add	r6, r6, r0
 1075 0028 211C     		mov	r1, r4
 1076              	.LVL91:
 1077 002a 4640     		eor	r6, r0
 1078 002c B145     		cmp	r9, r6
 1079 002e 00DC     		bgt	.LCB956
 1080 0030 B9E0     		b	.L67	@long jump
 1081              	.LCB956:
 1082 0032 0124     		mov	r4, #1
 1083 0034 A146     		mov	r9, r4
 210:.\LED_Matrix.c ****   if (steep) {
 211:.\LED_Matrix.c ****     swap(x0, y0);
 212:.\LED_Matrix.c ****     swap(x1, y1);
 1084              		.loc 1 212 0
 1085 0036 1F1C     		mov	r7, r3
 211:.\LED_Matrix.c ****     swap(x0, y0);
 1086              		.loc 1 211 0
 1087 0038 2C1C     		mov	r4, r5
 1088              		.loc 1 212 0
 1089 003a 131C     		mov	r3, r2
 1090              	.LVL92:
 211:.\LED_Matrix.c ****     swap(x0, y0);
 1091              		.loc 1 211 0
 1092 003c 0D1C     		mov	r5, r1
 1093              	.LVL93:
 1094              	.L41:
 213:.\LED_Matrix.c ****   }
 214:.\LED_Matrix.c **** 
 215:.\LED_Matrix.c ****   if (x0 > x1) {
 1095              		.loc 1 215 0
 1096 003e BC42     		cmp	r4, r7
 1097 0040 00DD     		ble	.LCB972
 1098 0042 A9E0     		b	.L51	@long jump
 1099              	.LCB972:
 1100 0044 081C     		mov	r0, r1
 1101 0046 111C     		mov	r1, r2
 1102 0048 021C     		mov	r2, r0
 1103              	.LVL94:
 1104              	.L42:
 216:.\LED_Matrix.c ****     swap(x0, x1);
 217:.\LED_Matrix.c ****     swap(y0, y1);
 218:.\LED_Matrix.c ****   }
 219:.\LED_Matrix.c **** 
 220:.\LED_Matrix.c ****   int8 dx, dy;
 221:.\LED_Matrix.c ****   dx = x1 - x0;
 1105              		.loc 1 221 0
ARM GAS  C:\Users\Steve\AppData\Local\Temp\ccwjFJAL.s 			page 27


 1106 004a 3E1B     		sub	r6, r7, r4
 222:.\LED_Matrix.c ****   dy = abs(y1 - y0);
 1107              		.loc 1 222 0
 1108 004c 8A1A     		sub	r2, r1, r2
 221:.\LED_Matrix.c ****   dx = x1 - x0;
 1109              		.loc 1 221 0
 1110 004e F0B2     		uxtb	r0, r6
 1111              		.loc 1 222 0
 1112 0050 D117     		asr	r1, r2, #31
 1113 0052 5218     		add	r2, r2, r1
 221:.\LED_Matrix.c ****   dx = x1 - x0;
 1114              		.loc 1 221 0
 1115 0054 8346     		mov	fp, r0
 1116              	.LVL95:
 223:.\LED_Matrix.c **** 
 224:.\LED_Matrix.c ****   int8 err = dx / 2;
 1117              		.loc 1 224 0
 1118 0056 40B2     		sxtb	r0, r0
 222:.\LED_Matrix.c ****   dy = abs(y1 - y0);
 1119              		.loc 1 222 0
 1120 0058 4A40     		eor	r2, r1
 1121              	.LVL96:
 1122              		.loc 1 224 0
 1123 005a C10F     		lsr	r1, r0, #31
 1124 005c 0E18     		add	r6, r1, r0
 1125              	.LVL97:
 1126 005e 7010     		asr	r0, r6, #1
 225:.\LED_Matrix.c ****   int8 ystep;
 226:.\LED_Matrix.c **** 
 227:.\LED_Matrix.c ****   if (y0 < y1) {
 228:.\LED_Matrix.c ****     ystep = 1;
 229:.\LED_Matrix.c ****   } else {
 230:.\LED_Matrix.c ****     ystep = -1;
 1127              		.loc 1 230 0
 1128 0060 FF21     		mov	r1, #255
 224:.\LED_Matrix.c ****   int8 err = dx / 2;
 1129              		.loc 1 224 0
 1130 0062 C6B2     		uxtb	r6, r0
 1131              	.LVL98:
 1132              		.loc 1 230 0
 1133 0064 0091     		str	r1, [sp]
 227:.\LED_Matrix.c ****   if (y0 < y1) {
 1134              		.loc 1 227 0
 1135 0066 9D42     		cmp	r5, r3
 1136 0068 01DA     		bge	.L43
 228:.\LED_Matrix.c ****     ystep = 1;
 1137              		.loc 1 228 0
 1138 006a 0123     		mov	r3, #1
 1139              	.LVL99:
 1140 006c 0093     		str	r3, [sp]
 1141              	.L43:
 1142              	.LVL100:
 231:.\LED_Matrix.c ****   }
 232:.\LED_Matrix.c **** 
 233:.\LED_Matrix.c ****   for (; x0<=x1; x0++) {
 1143              		.loc 1 233 0 discriminator 1
 1144 006e BC42     		cmp	r4, r7
ARM GAS  C:\Users\Steve\AppData\Local\Temp\ccwjFJAL.s 			page 28


 1145 0070 00DD     		ble	.LCB1016
 1146 0072 8AE0     		b	.L39	@long jump
 1147              	.LCB1016:
 1148 0074 381B     		sub	r0, r7, r4
 1149 0076 0121     		mov	r1, #1
 1150 0078 D2B2     		uxtb	r2, r2
 1151              	.LVL101:
 1152 007a 0140     		and	r1, r0
 234:.\LED_Matrix.c ****     if (steep) {
 1153              		.loc 1 234 0
 1154 007c 4B46     		mov	r3, r9
 1155 007e 9246     		mov	sl, r2
 1156 0080 0191     		str	r1, [sp, #4]
 1157 0082 002B     		cmp	r3, #0
 1158 0084 00D0     		beq	.LCB1027
 1159 0086 93E0     		b	.L76	@long jump
 1160              	.LCB1027:
 235:.\LED_Matrix.c ****       drawPixel(y0, x0, c, matrix);
 236:.\LED_Matrix.c ****     } else {
 237:.\LED_Matrix.c ****       drawPixel(x0, y0, c, matrix);
 1161              		.loc 1 237 0
 1162 0088 E0B2     		uxtb	r0, r4
 1163 008a E9B2     		uxtb	r1, r5
 1164 008c 0C9A     		ldr	r2, [sp, #48]
 1165 008e 4346     		mov	r3, r8
 1166 0090 FFF7FEFF 		bl	drawPixel
 1167              	.LVL102:
 238:.\LED_Matrix.c ****     }
 239:.\LED_Matrix.c ****     err -= dy;
 1168              		.loc 1 239 0
 1169 0094 5246     		mov	r2, sl
 1170 0096 B61A     		sub	r6, r6, r2
 1171              	.LVL103:
 1172 0098 F0B2     		uxtb	r0, r6
 1173 009a C6B2     		uxtb	r6, r0
 240:.\LED_Matrix.c ****     if (err < 0) {
 1174              		.loc 1 240 0
 1175 009c 71B2     		sxtb	r1, r6
 1176 009e 0029     		cmp	r1, #0
 1177 00a0 00DA     		bge	.LCB1042
 1178 00a2 93E0     		b	.L77	@long jump
 1179              	.LCB1042:
 1180              	.LVL104:
 1181              	.L56:
 233:.\LED_Matrix.c ****   for (; x0<=x1; x0++) {
 1182              		.loc 1 233 0
 1183 00a4 0134     		add	r4, r4, #1
 1184              	.LVL105:
 1185 00a6 64B2     		sxtb	r4, r4
 1186              	.LVL106:
 1187 00a8 A742     		cmp	r7, r4
 1188 00aa 6EDB     		blt	.L39
 1189 00ac 019A     		ldr	r2, [sp, #4]
 1190 00ae 002A     		cmp	r2, #0
 1191 00b0 15D0     		beq	.L75
 234:.\LED_Matrix.c ****     if (steep) {
 1192              		.loc 1 234 0
ARM GAS  C:\Users\Steve\AppData\Local\Temp\ccwjFJAL.s 			page 29


 1193 00b2 4846     		mov	r0, r9
 1194 00b4 0028     		cmp	r0, #0
 1195 00b6 00D0     		beq	.LCB1062
 1196 00b8 8EE0     		b	.L71	@long jump
 1197              	.LCB1062:
 237:.\LED_Matrix.c ****       drawPixel(x0, y0, c, matrix);
 1198              		.loc 1 237 0
 1199 00ba E9B2     		uxtb	r1, r5
 1200 00bc 0C9A     		ldr	r2, [sp, #48]
 1201 00be 4346     		mov	r3, r8
 1202 00c0 E0B2     		uxtb	r0, r4
 1203 00c2 FFF7FEFF 		bl	drawPixel
 1204              	.LVL107:
 239:.\LED_Matrix.c ****     err -= dy;
 1205              		.loc 1 239 0
 1206 00c6 5146     		mov	r1, sl
 1207 00c8 761A     		sub	r6, r6, r1
 1208 00ca F3B2     		uxtb	r3, r6
 1209 00cc DEB2     		uxtb	r6, r3
 1210              		.loc 1 240 0
 1211 00ce 72B2     		sxtb	r2, r6
 1212 00d0 002A     		cmp	r2, #0
 1213 00d2 00DA     		bge	.LCB1075
 1214 00d4 8EE0     		b	.L78	@long jump
 1215              	.LCB1075:
 1216              	.LVL108:
 1217              	.L59:
 233:.\LED_Matrix.c ****   for (; x0<=x1; x0++) {
 1218              		.loc 1 233 0
 1219 00d6 0134     		add	r4, r4, #1
 1220 00d8 64B2     		sxtb	r4, r4
 1221 00da A742     		cmp	r7, r4
 1222 00dc 55DB     		blt	.L39
 1223              	.LVL109:
 1224              	.L75:
 1225 00de 391C     		mov	r1, r7
 1226 00e0 4F46     		mov	r7, r9
 1227              	.LVL110:
 1228 00e2 8946     		mov	r9, r1
 1229 00e4 21E0     		b	.L48
 1230              	.LVL111:
 1231              	.L81:
 235:.\LED_Matrix.c ****       drawPixel(y0, x0, c, matrix);
 1232              		.loc 1 235 0
 1233 00e6 E1B2     		uxtb	r1, r4
 1234 00e8 0C9A     		ldr	r2, [sp, #48]
 1235 00ea 4346     		mov	r3, r8
 1236 00ec E8B2     		uxtb	r0, r5
 1237 00ee FFF7FEFF 		bl	drawPixel
 1238              	.LVL112:
 239:.\LED_Matrix.c ****     err -= dy;
 1239              		.loc 1 239 0
 1240 00f2 5346     		mov	r3, sl
 1241 00f4 F61A     		sub	r6, r6, r3
 1242 00f6 F1B2     		uxtb	r1, r6
 1243 00f8 CEB2     		uxtb	r6, r1
 1244              		.loc 1 240 0
ARM GAS  C:\Users\Steve\AppData\Local\Temp\ccwjFJAL.s 			page 30


 1245 00fa 72B2     		sxtb	r2, r6
 1246 00fc 002A     		cmp	r2, #0
 1247 00fe 23DB     		blt	.L79
 1248              	.L47:
 1249              	.LVL113:
 233:.\LED_Matrix.c ****   for (; x0<=x1; x0++) {
 1250              		.loc 1 233 0
 1251 0100 0134     		add	r4, r4, #1
 1252 0102 64B2     		sxtb	r4, r4
 234:.\LED_Matrix.c ****     if (steep) {
 1253              		.loc 1 234 0
 1254 0104 002F     		cmp	r7, #0
 1255 0106 29D0     		beq	.L62
 1256              	.LVL114:
 1257              	.L82:
 235:.\LED_Matrix.c ****       drawPixel(y0, x0, c, matrix);
 1258              		.loc 1 235 0
 1259 0108 E8B2     		uxtb	r0, r5
 1260 010a E1B2     		uxtb	r1, r4
 1261 010c 0C9A     		ldr	r2, [sp, #48]
 1262 010e 4346     		mov	r3, r8
 1263 0110 FFF7FEFF 		bl	drawPixel
 1264              	.LVL115:
 239:.\LED_Matrix.c ****     err -= dy;
 1265              		.loc 1 239 0
 1266 0114 5146     		mov	r1, sl
 1267 0116 721A     		sub	r2, r6, r1
 1268 0118 D3B2     		uxtb	r3, r2
 1269 011a DEB2     		uxtb	r6, r3
 1270              		.loc 1 240 0
 1271 011c 70B2     		sxtb	r0, r6
 1272 011e 0028     		cmp	r0, #0
 1273 0120 29DB     		blt	.L80
 1274              	.L63:
 1275              	.LVL116:
 233:.\LED_Matrix.c ****   for (; x0<=x1; x0++) {
 1276              		.loc 1 233 0
 1277 0122 0134     		add	r4, r4, #1
 1278 0124 64B2     		sxtb	r4, r4
 1279 0126 A145     		cmp	r9, r4
 1280 0128 2FDB     		blt	.L39
 1281              	.LVL117:
 1282              	.L48:
 234:.\LED_Matrix.c ****     if (steep) {
 1283              		.loc 1 234 0
 1284 012a 002F     		cmp	r7, #0
 1285 012c DBD1     		bne	.L81
 237:.\LED_Matrix.c ****       drawPixel(x0, y0, c, matrix);
 1286              		.loc 1 237 0
 1287 012e E9B2     		uxtb	r1, r5
 1288 0130 0C9A     		ldr	r2, [sp, #48]
 1289 0132 4346     		mov	r3, r8
 1290 0134 E0B2     		uxtb	r0, r4
 1291 0136 FFF7FEFF 		bl	drawPixel
 1292              	.LVL118:
 239:.\LED_Matrix.c ****     err -= dy;
 1293              		.loc 1 239 0
ARM GAS  C:\Users\Steve\AppData\Local\Temp\ccwjFJAL.s 			page 31


 1294 013a 5346     		mov	r3, sl
 1295 013c F61A     		sub	r6, r6, r3
 1296 013e F1B2     		uxtb	r1, r6
 1297 0140 CEB2     		uxtb	r6, r1
 1298              		.loc 1 240 0
 1299 0142 72B2     		sxtb	r2, r6
 1300 0144 002A     		cmp	r2, #0
 1301 0146 DBDA     		bge	.L47
 1302              	.L79:
 241:.\LED_Matrix.c ****       y0 += ystep;
 1303              		.loc 1 241 0
 1304 0148 0098     		ldr	r0, [sp]
 242:.\LED_Matrix.c ****       err += dx;
 1305              		.loc 1 242 0
 1306 014a 5B46     		mov	r3, fp
 241:.\LED_Matrix.c ****       y0 += ystep;
 1307              		.loc 1 241 0
 1308 014c 2D18     		add	r5, r5, r0
 1309              		.loc 1 242 0
 1310 014e CE18     		add	r6, r1, r3
 233:.\LED_Matrix.c ****   for (; x0<=x1; x0++) {
 1311              		.loc 1 233 0
 1312 0150 0134     		add	r4, r4, #1
 241:.\LED_Matrix.c ****       y0 += ystep;
 1313              		.loc 1 241 0
 1314 0152 6DB2     		sxtb	r5, r5
 1315              	.LVL119:
 1316              		.loc 1 242 0
 1317 0154 F6B2     		uxtb	r6, r6
 233:.\LED_Matrix.c ****   for (; x0<=x1; x0++) {
 1318              		.loc 1 233 0
 1319 0156 64B2     		sxtb	r4, r4
 234:.\LED_Matrix.c ****     if (steep) {
 1320              		.loc 1 234 0
 1321 0158 002F     		cmp	r7, #0
 1322 015a D5D1     		bne	.L82
 1323              	.LVL120:
 1324              	.L62:
 237:.\LED_Matrix.c ****       drawPixel(x0, y0, c, matrix);
 1325              		.loc 1 237 0
 1326 015c E0B2     		uxtb	r0, r4
 1327 015e E9B2     		uxtb	r1, r5
 1328 0160 0C9A     		ldr	r2, [sp, #48]
 1329 0162 4346     		mov	r3, r8
 1330 0164 FFF7FEFF 		bl	drawPixel
 1331              	.LVL121:
 239:.\LED_Matrix.c ****     err -= dy;
 1332              		.loc 1 239 0
 1333 0168 5146     		mov	r1, sl
 1334 016a 721A     		sub	r2, r6, r1
 1335 016c D3B2     		uxtb	r3, r2
 1336 016e DEB2     		uxtb	r6, r3
 240:.\LED_Matrix.c ****     if (err < 0) {
 1337              		.loc 1 240 0
 1338 0170 70B2     		sxtb	r0, r6
 1339 0172 0028     		cmp	r0, #0
 1340 0174 D5DA     		bge	.L63
ARM GAS  C:\Users\Steve\AppData\Local\Temp\ccwjFJAL.s 			page 32


 1341              	.L80:
 241:.\LED_Matrix.c ****       y0 += ystep;
 1342              		.loc 1 241 0
 1343 0176 009E     		ldr	r6, [sp]
 1344              		.loc 1 242 0
 1345 0178 5946     		mov	r1, fp
 233:.\LED_Matrix.c ****   for (; x0<=x1; x0++) {
 1346              		.loc 1 233 0
 1347 017a 0134     		add	r4, r4, #1
 241:.\LED_Matrix.c ****       y0 += ystep;
 1348              		.loc 1 241 0
 1349 017c AD19     		add	r5, r5, r6
 1350              		.loc 1 242 0
 1351 017e 5A18     		add	r2, r3, r1
 233:.\LED_Matrix.c ****   for (; x0<=x1; x0++) {
 1352              		.loc 1 233 0
 1353 0180 64B2     		sxtb	r4, r4
 241:.\LED_Matrix.c ****       y0 += ystep;
 1354              		.loc 1 241 0
 1355 0182 6DB2     		sxtb	r5, r5
 1356              	.LVL122:
 1357              		.loc 1 242 0
 1358 0184 D6B2     		uxtb	r6, r2
 233:.\LED_Matrix.c ****   for (; x0<=x1; x0++) {
 1359              		.loc 1 233 0
 1360 0186 A145     		cmp	r9, r4
 1361 0188 CFDA     		bge	.L48
 1362              	.LVL123:
 1363              	.L39:
 243:.\LED_Matrix.c ****     }
 244:.\LED_Matrix.c ****   }
 245:.\LED_Matrix.c **** }
 1364              		.loc 1 245 0
 1365 018a 03B0     		add	sp, sp, #12
 1366              		@ sp needed for prologue
 1367              	.LVL124:
 1368 018c 3CBC     		pop	{r2, r3, r4, r5}
 1369 018e 9046     		mov	r8, r2
 1370 0190 9946     		mov	r9, r3
 1371 0192 A246     		mov	sl, r4
 1372 0194 AB46     		mov	fp, r5
 1373 0196 F0BD     		pop	{r4, r5, r6, r7, pc}
 1374              	.LVL125:
 1375              	.L51:
 215:.\LED_Matrix.c ****   if (x0 > x1) {
 1376              		.loc 1 215 0
 1377 0198 2E1C     		mov	r6, r5
 1378 019a 201C     		mov	r0, r4
 217:.\LED_Matrix.c ****     swap(y0, y1);
 1379              		.loc 1 217 0
 1380 019c 1D1C     		mov	r5, r3
 1381              	.LVL126:
 215:.\LED_Matrix.c ****   if (x0 > x1) {
 1382              		.loc 1 215 0
 1383 019e 3C1C     		mov	r4, r7
 1384              	.LVL127:
 217:.\LED_Matrix.c ****     swap(y0, y1);
ARM GAS  C:\Users\Steve\AppData\Local\Temp\ccwjFJAL.s 			page 33


 1385              		.loc 1 217 0
 1386 01a0 331C     		mov	r3, r6
 1387              	.LVL128:
 215:.\LED_Matrix.c ****   if (x0 > x1) {
 1388              		.loc 1 215 0
 1389 01a2 071C     		mov	r7, r0
 1390              	.LVL129:
 1391 01a4 51E7     		b	.L42
 1392              	.LVL130:
 1393              	.L67:
 1394 01a6 0021     		mov	r1, #0
 1395 01a8 8946     		mov	r9, r1
 210:.\LED_Matrix.c ****   if (steep) {
 1396              		.loc 1 210 0
 1397 01aa 1A1C     		mov	r2, r3
 1398              	.LVL131:
 1399 01ac 291C     		mov	r1, r5
 1400 01ae 46E7     		b	.L41
 1401              	.LVL132:
 1402              	.L76:
 235:.\LED_Matrix.c ****       drawPixel(y0, x0, c, matrix);
 1403              		.loc 1 235 0
 1404 01b0 E8B2     		uxtb	r0, r5
 1405 01b2 E1B2     		uxtb	r1, r4
 1406 01b4 0C9A     		ldr	r2, [sp, #48]
 1407 01b6 4346     		mov	r3, r8
 1408 01b8 FFF7FEFF 		bl	drawPixel
 1409              	.LVL133:
 239:.\LED_Matrix.c ****     err -= dy;
 1410              		.loc 1 239 0
 1411 01bc 5246     		mov	r2, sl
 1412 01be B61A     		sub	r6, r6, r2
 1413              	.LVL134:
 1414 01c0 F0B2     		uxtb	r0, r6
 1415 01c2 C6B2     		uxtb	r6, r0
 240:.\LED_Matrix.c ****     if (err < 0) {
 1416              		.loc 1 240 0
 1417 01c4 71B2     		sxtb	r1, r6
 1418 01c6 0029     		cmp	r1, #0
 1419 01c8 00DB     		blt	.LCB1279
 1420 01ca 6BE7     		b	.L56	@long jump
 1421              	.LCB1279:
 1422              	.LVL135:
 1423              	.L77:
 241:.\LED_Matrix.c ****       y0 += ystep;
 1424              		.loc 1 241 0
 1425 01cc 009B     		ldr	r3, [sp]
 242:.\LED_Matrix.c ****       err += dx;
 1426              		.loc 1 242 0
 1427 01ce 5844     		add	r0, r0, fp
 241:.\LED_Matrix.c ****       y0 += ystep;
 1428              		.loc 1 241 0
 1429 01d0 ED18     		add	r5, r5, r3
 1430              	.LVL136:
 1431 01d2 6DB2     		sxtb	r5, r5
 1432              	.LVL137:
 242:.\LED_Matrix.c ****       err += dx;
ARM GAS  C:\Users\Steve\AppData\Local\Temp\ccwjFJAL.s 			page 34


 1433              		.loc 1 242 0
 1434 01d4 C6B2     		uxtb	r6, r0
 1435 01d6 65E7     		b	.L56
 1436              	.LVL138:
 1437              	.L71:
 235:.\LED_Matrix.c ****       drawPixel(y0, x0, c, matrix);
 1438              		.loc 1 235 0
 1439 01d8 E1B2     		uxtb	r1, r4
 1440 01da 0C9A     		ldr	r2, [sp, #48]
 1441 01dc 4346     		mov	r3, r8
 1442 01de E8B2     		uxtb	r0, r5
 1443 01e0 FFF7FEFF 		bl	drawPixel
 1444              	.LVL139:
 239:.\LED_Matrix.c ****     err -= dy;
 1445              		.loc 1 239 0
 1446 01e4 5146     		mov	r1, sl
 1447 01e6 761A     		sub	r6, r6, r1
 1448 01e8 F3B2     		uxtb	r3, r6
 1449 01ea DEB2     		uxtb	r6, r3
 240:.\LED_Matrix.c ****     if (err < 0) {
 1450              		.loc 1 240 0
 1451 01ec 72B2     		sxtb	r2, r6
 1452 01ee 002A     		cmp	r2, #0
 1453 01f0 00DB     		blt	.LCB1310
 1454 01f2 70E7     		b	.L59	@long jump
 1455              	.LCB1310:
 1456              	.L78:
 241:.\LED_Matrix.c ****       y0 += ystep;
 1457              		.loc 1 241 0
 1458 01f4 0098     		ldr	r0, [sp]
 242:.\LED_Matrix.c ****       err += dx;
 1459              		.loc 1 242 0
 1460 01f6 5B44     		add	r3, r3, fp
 241:.\LED_Matrix.c ****       y0 += ystep;
 1461              		.loc 1 241 0
 1462 01f8 2D18     		add	r5, r5, r0
 1463              	.LVL140:
 1464 01fa 6DB2     		sxtb	r5, r5
 1465              	.LVL141:
 242:.\LED_Matrix.c ****       err += dx;
 1466              		.loc 1 242 0
 1467 01fc DEB2     		uxtb	r6, r3
 1468 01fe 6AE7     		b	.L59
 1469              		.cfi_endproc
 1470              	.LFE38:
 1471              		.size	drawLine, .-drawLine
 1472              		.section	.text.drawFastVLine,"ax",%progbits
 1473              		.align	2
 1474              		.global	drawFastVLine
 1475              		.code	16
 1476              		.thumb_func
 1477              		.type	drawFastVLine, %function
 1478              	drawFastVLine:
 1479              	.LFB40:
 246:.\LED_Matrix.c **** 
 247:.\LED_Matrix.c **** void drawRect(int16_t x, int16_t y,int16_t w, int16_t h,RGB c, color *matrix) {
 248:.\LED_Matrix.c ****   drawFastHLine(x, y, w, c, matrix);
ARM GAS  C:\Users\Steve\AppData\Local\Temp\ccwjFJAL.s 			page 35


 249:.\LED_Matrix.c ****   drawFastHLine(x, y+h-1, w, c, matrix);
 250:.\LED_Matrix.c ****   drawFastVLine(x, y, h, c, matrix);
 251:.\LED_Matrix.c ****   drawFastVLine(x+w-1, y, h, c, matrix);
 252:.\LED_Matrix.c **** }
 253:.\LED_Matrix.c **** 
 254:.\LED_Matrix.c **** void drawFastVLine(int8 x, int8 y, int8 h, RGB c, color *matrix) 
 255:.\LED_Matrix.c **** {
 1480              		.loc 1 255 0
 1481              		.cfi_startproc
 1482              	.LVL142:
 1483 0000 70B5     		push	{r4, r5, r6, lr}
 1484              	.LCFI13:
 1485              		.cfi_def_cfa_offset 16
 1486              		.cfi_offset 4, -16
 1487              		.cfi_offset 5, -12
 1488              		.cfi_offset 6, -8
 1489              		.cfi_offset 14, -4
 1490 0002 1D1C     		add	r5, r3, #0
 1491 0004 84B0     		sub	sp, sp, #16
 1492              	.LCFI14:
 1493              		.cfi_def_cfa_offset 32
 1494              		.loc 1 255 0
 1495 0006 1E0C     		lsr	r6, r3, #16
 256:.\LED_Matrix.c ****   // Update in subclasses if desired!
 257:.\LED_Matrix.c ****   drawLine(x, y, x, y+h-1, c, matrix);
 1496              		.loc 1 257 0
 1497 0008 4B1E     		sub	r3, r1, #1
 255:.\LED_Matrix.c **** {
 1498              		.loc 1 255 0
 1499 000a 041C     		mov	r4, r0
 1500              		.loc 1 257 0
 1501 000c 9818     		add	r0, r3, r2
 1502              	.LVL143:
 1503 000e 6A46     		mov	r2, sp
 1504              	.LVL144:
 1505 0010 9670     		strb	r6, [r2, #2]
 1506 0012 1580     		strh	r5, [r2]
 1507 0014 089D     		ldr	r5, [sp, #32]
 1508 0016 43B2     		sxtb	r3, r0
 1509 0018 0195     		str	r5, [sp, #4]
 1510 001a 201C     		mov	r0, r4
 1511 001c 221C     		mov	r2, r4
 1512 001e FFF7FEFF 		bl	drawLine
 1513              	.LVL145:
 258:.\LED_Matrix.c **** }
 1514              		.loc 1 258 0
 1515 0022 04B0     		add	sp, sp, #16
 1516              		@ sp needed for prologue
 1517 0024 70BD     		pop	{r4, r5, r6, pc}
 1518              		.cfi_endproc
 1519              	.LFE40:
 1520              		.size	drawFastVLine, .-drawFastVLine
 1521 0026 C046     		.section	.text.drawFastHLine,"ax",%progbits
 1522              		.align	2
 1523              		.global	drawFastHLine
 1524              		.code	16
 1525              		.thumb_func
ARM GAS  C:\Users\Steve\AppData\Local\Temp\ccwjFJAL.s 			page 36


 1526              		.type	drawFastHLine, %function
 1527              	drawFastHLine:
 1528              	.LFB41:
 259:.\LED_Matrix.c **** 
 260:.\LED_Matrix.c **** void drawFastHLine(int8 x, int8 y, int8 w, RGB c, color *matrix) 
 261:.\LED_Matrix.c **** {
 1529              		.loc 1 261 0
 1530              		.cfi_startproc
 1531              	.LVL146:
 1532 0000 30B5     		push	{r4, r5, lr}
 1533              	.LCFI15:
 1534              		.cfi_def_cfa_offset 12
 1535              		.cfi_offset 4, -12
 1536              		.cfi_offset 5, -8
 1537              		.cfi_offset 14, -4
 1538 0002 0C1C     		mov	r4, r1
 1539 0004 85B0     		sub	sp, sp, #20
 1540              	.LCFI16:
 1541              		.cfi_def_cfa_offset 32
 262:.\LED_Matrix.c ****   // Update in subclasses if desired!
 263:.\LED_Matrix.c ****   drawLine(x, y, x+w-1, y, c, matrix);
 1542              		.loc 1 263 0
 1543 0006 411E     		sub	r1, r0, #1
 1544              	.LVL147:
 261:.\LED_Matrix.c **** {
 1545              		.loc 1 261 0
 1546 0008 1D1C     		add	r5, r3, #0
 1547              		.loc 1 263 0
 1548 000a 8A18     		add	r2, r1, r2
 1549              	.LVL148:
 261:.\LED_Matrix.c **** {
 1550              		.loc 1 261 0
 1551 000c 1B0C     		lsr	r3, r3, #16
 1552              		.loc 1 263 0
 1553 000e 6946     		mov	r1, sp
 1554 0010 8B70     		strb	r3, [r1, #2]
 1555 0012 0D80     		strh	r5, [r1]
 1556 0014 089D     		ldr	r5, [sp, #32]
 1557 0016 52B2     		sxtb	r2, r2
 1558 0018 0195     		str	r5, [sp, #4]
 1559 001a 211C     		mov	r1, r4
 1560 001c 231C     		mov	r3, r4
 1561 001e FFF7FEFF 		bl	drawLine
 1562              	.LVL149:
 264:.\LED_Matrix.c **** }
 1563              		.loc 1 264 0
 1564 0022 05B0     		add	sp, sp, #20
 1565              		@ sp needed for prologue
 1566 0024 30BD     		pop	{r4, r5, pc}
 1567              		.cfi_endproc
 1568              	.LFE41:
 1569              		.size	drawFastHLine, .-drawFastHLine
 1570 0026 C046     		.section	.text.drawRect,"ax",%progbits
 1571              		.align	2
 1572              		.global	drawRect
 1573              		.code	16
 1574              		.thumb_func
ARM GAS  C:\Users\Steve\AppData\Local\Temp\ccwjFJAL.s 			page 37


 1575              		.type	drawRect, %function
 1576              	drawRect:
 1577              	.LFB39:
 247:.\LED_Matrix.c **** void drawRect(int16_t x, int16_t y,int16_t w, int16_t h,RGB c, color *matrix) {
 1578              		.loc 1 247 0
 1579              		.cfi_startproc
 1580              	.LVL150:
 1581 0000 F0B5     		push	{r4, r5, r6, r7, lr}
 1582              	.LCFI17:
 1583              		.cfi_def_cfa_offset 20
 1584              		.cfi_offset 4, -20
 1585              		.cfi_offset 5, -16
 1586              		.cfi_offset 6, -12
 1587              		.cfi_offset 7, -8
 1588              		.cfi_offset 14, -4
 1589 0002 5F46     		mov	r7, fp
 1590 0004 5646     		mov	r6, sl
 1591 0006 4D46     		mov	r5, r9
 1592 0008 4446     		mov	r4, r8
 1593 000a F0B4     		push	{r4, r5, r6, r7}
 1594              	.LCFI18:
 1595              		.cfi_def_cfa_offset 36
 1596              		.cfi_offset 8, -36
 1597              		.cfi_offset 9, -32
 1598              		.cfi_offset 10, -28
 1599              		.cfi_offset 11, -24
 1600 000c 83B0     		sub	sp, sp, #12
 1601              	.LCFI19:
 1602              		.cfi_def_cfa_offset 48
 247:.\LED_Matrix.c **** void drawRect(int16_t x, int16_t y,int16_t w, int16_t h,RGB c, color *matrix) {
 1603              		.loc 1 247 0
 1604 000e 0D9C     		ldr	r4, [sp, #52]
 248:.\LED_Matrix.c ****   drawFastHLine(x, y, w, c, matrix);
 1605              		.loc 1 248 0
 1606 0010 46B2     		sxtb	r6, r0
 1607 0012 4DB2     		sxtb	r5, r1
 247:.\LED_Matrix.c **** void drawRect(int16_t x, int16_t y,int16_t w, int16_t h,RGB c, color *matrix) {
 1608              		.loc 1 247 0
 1609 0014 8146     		mov	r9, r0
 1610 0016 8B46     		mov	fp, r1
 1611 0018 9046     		mov	r8, r2
 1612 001a 1F1C     		mov	r7, r3
 248:.\LED_Matrix.c ****   drawFastHLine(x, y, w, c, matrix);
 1613              		.loc 1 248 0
 1614 001c 52B2     		sxtb	r2, r2
 1615              	.LVL151:
 1616 001e 301C     		mov	r0, r6
 1617              	.LVL152:
 1618 0020 291C     		mov	r1, r5
 1619              	.LVL153:
 1620 0022 0C9B     		ldr	r3, [sp, #48]
 1621              	.LVL154:
 1622 0024 0094     		str	r4, [sp]
 1623 0026 9246     		mov	sl, r2
 1624 0028 FFF7FEFF 		bl	drawFastHLine
 1625              	.LVL155:
 249:.\LED_Matrix.c ****   drawFastHLine(x, y+h-1, w, c, matrix);
ARM GAS  C:\Users\Steve\AppData\Local\Temp\ccwjFJAL.s 			page 38


 1626              		.loc 1 249 0
 1627 002c 5B46     		mov	r3, fp
 1628 002e 013B     		sub	r3, r3, #1
 1629 0030 D819     		add	r0, r3, r7
 1630 0032 41B2     		sxtb	r1, r0
 1631 0034 5246     		mov	r2, sl
 1632 0036 301C     		mov	r0, r6
 1633 0038 0C9B     		ldr	r3, [sp, #48]
 1634 003a 0094     		str	r4, [sp]
 1635 003c FFF7FEFF 		bl	drawFastHLine
 1636              	.LVL156:
 250:.\LED_Matrix.c ****   drawFastVLine(x, y, h, c, matrix);
 1637              		.loc 1 250 0
 1638 0040 301C     		mov	r0, r6
 251:.\LED_Matrix.c ****   drawFastVLine(x+w-1, y, h, c, matrix);
 1639              		.loc 1 251 0
 1640 0042 4E46     		mov	r6, r9
 250:.\LED_Matrix.c ****   drawFastVLine(x, y, h, c, matrix);
 1641              		.loc 1 250 0
 1642 0044 7FB2     		sxtb	r7, r7
 251:.\LED_Matrix.c ****   drawFastVLine(x+w-1, y, h, c, matrix);
 1643              		.loc 1 251 0
 1644 0046 013E     		sub	r6, r6, #1
 250:.\LED_Matrix.c ****   drawFastVLine(x, y, h, c, matrix);
 1645              		.loc 1 250 0
 1646 0048 291C     		mov	r1, r5
 1647 004a 3A1C     		mov	r2, r7
 1648 004c 0C9B     		ldr	r3, [sp, #48]
 1649 004e 0094     		str	r4, [sp]
 251:.\LED_Matrix.c ****   drawFastVLine(x+w-1, y, h, c, matrix);
 1650              		.loc 1 251 0
 1651 0050 4644     		add	r6, r6, r8
 250:.\LED_Matrix.c ****   drawFastVLine(x, y, h, c, matrix);
 1652              		.loc 1 250 0
 1653 0052 FFF7FEFF 		bl	drawFastVLine
 1654              	.LVL157:
 251:.\LED_Matrix.c ****   drawFastVLine(x+w-1, y, h, c, matrix);
 1655              		.loc 1 251 0
 1656 0056 70B2     		sxtb	r0, r6
 1657 0058 0094     		str	r4, [sp]
 1658 005a 291C     		mov	r1, r5
 1659 005c 3A1C     		mov	r2, r7
 1660 005e 0C9B     		ldr	r3, [sp, #48]
 1661 0060 FFF7FEFF 		bl	drawFastVLine
 1662              	.LVL158:
 252:.\LED_Matrix.c **** }
 1663              		.loc 1 252 0
 1664 0064 03B0     		add	sp, sp, #12
 1665              		@ sp needed for prologue
 1666 0066 3CBC     		pop	{r2, r3, r4, r5}
 1667 0068 9046     		mov	r8, r2
 1668 006a 9946     		mov	r9, r3
 1669 006c A246     		mov	sl, r4
 1670 006e AB46     		mov	fp, r5
 1671 0070 F0BD     		pop	{r4, r5, r6, r7, pc}
 1672              		.cfi_endproc
 1673              	.LFE39:
ARM GAS  C:\Users\Steve\AppData\Local\Temp\ccwjFJAL.s 			page 39


 1674              		.size	drawRect, .-drawRect
 1675 0072 C046     		.section	.text.fillRect,"ax",%progbits
 1676              		.align	2
 1677              		.global	fillRect
 1678              		.code	16
 1679              		.thumb_func
 1680              		.type	fillRect, %function
 1681              	fillRect:
 1682              	.LFB42:
 265:.\LED_Matrix.c **** 
 266:.\LED_Matrix.c **** void fillRect(int8 x, int8 y, int8 w, int8 h, RGB c, color *matrix) 
 267:.\LED_Matrix.c **** {
 1683              		.loc 1 267 0
 1684              		.cfi_startproc
 1685              	.LVL159:
 1686 0000 F0B5     		push	{r4, r5, r6, r7, lr}
 1687              	.LCFI20:
 1688              		.cfi_def_cfa_offset 20
 1689              		.cfi_offset 4, -20
 1690              		.cfi_offset 5, -16
 1691              		.cfi_offset 6, -12
 1692              		.cfi_offset 7, -8
 1693              		.cfi_offset 14, -4
 1694 0002 4E46     		mov	r6, r9
 1695 0004 4546     		mov	r5, r8
 1696 0006 5746     		mov	r7, sl
 1697 0008 E0B4     		push	{r5, r6, r7}
 1698              	.LCFI21:
 1699              		.cfi_def_cfa_offset 32
 1700              		.cfi_offset 8, -32
 1701              		.cfi_offset 9, -28
 1702              		.cfi_offset 10, -24
 1703 000a 82B0     		sub	sp, sp, #8
 1704              	.LCFI22:
 1705              		.cfi_def_cfa_offset 40
 1706              		.loc 1 267 0
 1707 000c 1E1C     		mov	r6, r3
 268:.\LED_Matrix.c ****   // Update in subclasses if desired!
 269:.\LED_Matrix.c **** 	int8 i = 0;
 270:.\LED_Matrix.c ****   for(i=x; i<x+w; i++) {
 1708              		.loc 1 270 0
 1709 000e 8218     		add	r2, r0, r2
 1710              	.LVL160:
 267:.\LED_Matrix.c **** {
 1711              		.loc 1 267 0
 1712 0010 0B9B     		ldr	r3, [sp, #44]
 1713              	.LVL161:
 1714 0012 051C     		mov	r5, r0
 266:.\LED_Matrix.c **** void fillRect(int8 x, int8 y, int8 w, int8 h, RGB c, color *matrix) 
 1715              		.loc 1 266 0
 1716 0014 101A     		sub	r0, r2, r0
 1717              	.LVL162:
 267:.\LED_Matrix.c **** {
 1718              		.loc 1 267 0
 1719 0016 0F1C     		mov	r7, r1
 1720 0018 9846     		mov	r8, r3
 266:.\LED_Matrix.c **** void fillRect(int8 x, int8 y, int8 w, int8 h, RGB c, color *matrix) 
ARM GAS  C:\Users\Steve\AppData\Local\Temp\ccwjFJAL.s 			page 40


 1721              		.loc 1 266 0
 1722 001a 8146     		mov	r9, r0
 1723              		.loc 1 270 0
 1724 001c 9542     		cmp	r5, r2
 1725 001e 32DA     		bge	.L86
 1726 0020 0138     		sub	r0, r0, #1
 1727 0022 0121     		mov	r1, #1
 1728              	.LVL163:
 1729 0024 0140     		and	r1, r0
 271:.\LED_Matrix.c ****     drawFastVLine(i, y, h, c, matrix);
 1730              		.loc 1 271 0
 1731 0026 0093     		str	r3, [sp]
 1732 0028 8A46     		mov	sl, r1
 1733 002a 68B2     		sxtb	r0, r5
 1734 002c 391C     		mov	r1, r7
 1735 002e 321C     		mov	r2, r6
 1736 0030 0A9B     		ldr	r3, [sp, #40]
 1737 0032 0124     		mov	r4, #1
 1738 0034 FFF7FEFF 		bl	drawFastVLine
 1739              	.LVL164:
 270:.\LED_Matrix.c ****   for(i=x; i<x+w; i++) {
 1740              		.loc 1 270 0
 1741 0038 4C45     		cmp	r4, r9
 1742 003a 24D0     		beq	.L86
 1743 003c 5346     		mov	r3, sl
 1744 003e 002B     		cmp	r3, #0
 1745 0040 0BD0     		beq	.L90
 266:.\LED_Matrix.c **** void fillRect(int8 x, int8 y, int8 w, int8 h, RGB c, color *matrix) 
 1746              		.loc 1 266 0
 1747 0042 6A1C     		add	r2, r5, #1
 1748              		.loc 1 271 0
 1749 0044 4146     		mov	r1, r8
 1750 0046 50B2     		sxtb	r0, r2
 1751 0048 0091     		str	r1, [sp]
 1752 004a 321C     		mov	r2, r6
 1753 004c 391C     		mov	r1, r7
 1754 004e 0A9B     		ldr	r3, [sp, #40]
 1755 0050 0224     		mov	r4, #2
 1756 0052 FFF7FEFF 		bl	drawFastVLine
 1757              	.LVL165:
 270:.\LED_Matrix.c ****   for(i=x; i<x+w; i++) {
 1758              		.loc 1 270 0
 1759 0056 4C45     		cmp	r4, r9
 1760 0058 15D0     		beq	.L86
 1761              	.L90:
 266:.\LED_Matrix.c **** void fillRect(int8 x, int8 y, int8 w, int8 h, RGB c, color *matrix) 
 1762              		.loc 1 266 0 discriminator 2
 1763 005a 6019     		add	r0, r4, r5
 1764              		.loc 1 271 0 discriminator 2
 1765 005c 4346     		mov	r3, r8
 1766 005e 40B2     		sxtb	r0, r0
 1767 0060 0093     		str	r3, [sp]
 1768 0062 391C     		mov	r1, r7
 1769 0064 321C     		mov	r2, r6
 1770 0066 0A9B     		ldr	r3, [sp, #40]
 1771 0068 0134     		add	r4, r4, #1
 1772 006a FFF7FEFF 		bl	drawFastVLine
ARM GAS  C:\Users\Steve\AppData\Local\Temp\ccwjFJAL.s 			page 41


 1773              	.LVL166:
 266:.\LED_Matrix.c **** void fillRect(int8 x, int8 y, int8 w, int8 h, RGB c, color *matrix) 
 1774              		.loc 1 266 0 discriminator 2
 1775 006e 6219     		add	r2, r4, r5
 1776              		.loc 1 271 0 discriminator 2
 1777 0070 4146     		mov	r1, r8
 1778 0072 50B2     		sxtb	r0, r2
 1779 0074 0091     		str	r1, [sp]
 1780 0076 321C     		mov	r2, r6
 1781 0078 391C     		mov	r1, r7
 1782 007a 0A9B     		ldr	r3, [sp, #40]
 1783 007c 0134     		add	r4, r4, #1
 1784 007e FFF7FEFF 		bl	drawFastVLine
 1785              	.LVL167:
 270:.\LED_Matrix.c ****   for(i=x; i<x+w; i++) {
 1786              		.loc 1 270 0 discriminator 2
 1787 0082 4C45     		cmp	r4, r9
 1788 0084 E9D1     		bne	.L90
 1789              	.L86:
 272:.\LED_Matrix.c ****   }
 273:.\LED_Matrix.c **** }
 1790              		.loc 1 273 0
 1791 0086 02B0     		add	sp, sp, #8
 1792              		@ sp needed for prologue
 1793 0088 1CBC     		pop	{r2, r3, r4}
 1794 008a 9046     		mov	r8, r2
 1795 008c 9946     		mov	r9, r3
 1796 008e A246     		mov	sl, r4
 1797 0090 F0BD     		pop	{r4, r5, r6, r7, pc}
 1798              		.cfi_endproc
 1799              	.LFE42:
 1800              		.size	fillRect, .-fillRect
 1801 0092 C046     		.section	.text.fillScreen,"ax",%progbits
 1802              		.align	2
 1803              		.global	fillScreen
 1804              		.code	16
 1805              		.thumb_func
 1806              		.type	fillScreen, %function
 1807              	fillScreen:
 1808              	.LFB43:
 274:.\LED_Matrix.c **** 
 275:.\LED_Matrix.c **** void fillScreen(RGB c, color *matrix)
 276:.\LED_Matrix.c **** {
 1809              		.loc 1 276 0
 1810              		.cfi_startproc
 1811              	.LVL168:
 1812 0000 00B5     		push	{lr}
 1813              	.LCFI23:
 1814              		.cfi_def_cfa_offset 4
 1815              		.cfi_offset 14, -4
 1816 0002 85B0     		sub	sp, sp, #20
 1817              	.LCFI24:
 1818              		.cfi_def_cfa_offset 24
 277:.\LED_Matrix.c ****   fillRect(0, 0, 32, 16, c, matrix);
 1819              		.loc 1 277 0
 1820 0004 6B46     		mov	r3, sp
 276:.\LED_Matrix.c **** {
ARM GAS  C:\Users\Steve\AppData\Local\Temp\ccwjFJAL.s 			page 42


 1821              		.loc 1 276 0
 1822 0006 021C     		add	r2, r0, #0
 1823 0008 000C     		lsr	r0, r0, #16
 1824              		.loc 1 277 0
 1825 000a 1A80     		strh	r2, [r3]
 1826 000c 9870     		strb	r0, [r3, #2]
 1827 000e 2022     		mov	r2, #32
 1828 0010 0191     		str	r1, [sp, #4]
 1829 0012 0020     		mov	r0, #0
 1830 0014 0021     		mov	r1, #0
 1831              	.LVL169:
 1832 0016 1023     		mov	r3, #16
 1833 0018 FFF7FEFF 		bl	fillRect
 1834              	.LVL170:
 278:.\LED_Matrix.c **** }
 1835              		.loc 1 278 0
 1836 001c 05B0     		add	sp, sp, #20
 1837              		@ sp needed for prologue
 1838 001e 00BD     		pop	{pc}
 1839              		.cfi_endproc
 1840              	.LFE43:
 1841              		.size	fillScreen, .-fillScreen
 1842              		.section	.text.drawTriangle,"ax",%progbits
 1843              		.align	2
 1844              		.global	drawTriangle
 1845              		.code	16
 1846              		.thumb_func
 1847              		.type	drawTriangle, %function
 1848              	drawTriangle:
 1849              	.LFB44:
 279:.\LED_Matrix.c **** 
 280:.\LED_Matrix.c **** void drawTriangle(int8 x0, int8 y0,int8 x1, int8 y1,
 281:.\LED_Matrix.c **** 						int8 x2, int8 y2, RGB c, color *matrix) 
 282:.\LED_Matrix.c **** {
 1850              		.loc 1 282 0
 1851              		.cfi_startproc
 1852              	.LVL171:
 1853 0000 F0B5     		push	{r4, r5, r6, r7, lr}
 1854              	.LCFI25:
 1855              		.cfi_def_cfa_offset 20
 1856              		.cfi_offset 4, -20
 1857              		.cfi_offset 5, -16
 1858              		.cfi_offset 6, -12
 1859              		.cfi_offset 7, -8
 1860              		.cfi_offset 14, -4
 1861 0002 5F46     		mov	r7, fp
 1862 0004 5646     		mov	r6, sl
 1863 0006 4D46     		mov	r5, r9
 1864 0008 E0B4     		push	{r5, r6, r7}
 1865              	.LCFI26:
 1866              		.cfi_def_cfa_offset 32
 1867              		.cfi_offset 9, -32
 1868              		.cfi_offset 10, -28
 1869              		.cfi_offset 11, -24
 1870 000a 82B0     		sub	sp, sp, #8
 1871              	.LCFI27:
 1872              		.cfi_def_cfa_offset 40
ARM GAS  C:\Users\Steve\AppData\Local\Temp\ccwjFJAL.s 			page 43


 1873              		.loc 1 282 0
 1874 000c 9A46     		mov	sl, r3
 1875 000e 0AAB     		add	r3, sp, #40
 1876              	.LVL172:
 1877 0010 071C     		mov	r7, r0
 1878 0012 1878     		ldrb	r0, [r3]
 1879              	.LVL173:
 283:.\LED_Matrix.c ****   drawLine(x0, y0, x1, y1, c, matrix);
 1880              		.loc 1 283 0
 1881 0014 0CAC     		add	r4, sp, #48
 282:.\LED_Matrix.c **** {
 1882              		.loc 1 282 0
 1883 0016 0E1C     		mov	r6, r1
 1884 0018 41B2     		sxtb	r1, r0
 1885              	.LVL174:
 1886              		.loc 1 283 0
 1887 001a 2088     		ldrh	r0, [r4]
 282:.\LED_Matrix.c **** {
 1888              		.loc 1 282 0
 1889 001c 9346     		mov	fp, r2
 1890              		.loc 1 283 0
 1891 001e 6B46     		mov	r3, sp
 282:.\LED_Matrix.c **** {
 1892              		.loc 1 282 0
 1893 0020 0BAA     		add	r2, sp, #44
 1894              	.LVL175:
 1895 0022 0025     		mov	r5, #0
 1896 0024 5557     		ldrsb	r5, [r2, r5]
 1897              		.loc 1 283 0
 1898 0026 1880     		strh	r0, [r3]
 282:.\LED_Matrix.c **** {
 1899              		.loc 1 282 0
 1900 0028 8946     		mov	r9, r1
 1901              		.loc 1 283 0
 1902 002a A178     		ldrb	r1, [r4, #2]
 1903 002c 381C     		mov	r0, r7
 1904 002e 9970     		strb	r1, [r3, #2]
 1905 0030 0D9A     		ldr	r2, [sp, #52]
 1906 0032 311C     		mov	r1, r6
 1907 0034 0192     		str	r2, [sp, #4]
 1908 0036 5346     		mov	r3, sl
 1909 0038 5A46     		mov	r2, fp
 1910 003a FFF7FEFF 		bl	drawLine
 1911              	.LVL176:
 284:.\LED_Matrix.c ****   drawLine(x1, y1, x2, y2, c, matrix);
 1912              		.loc 1 284 0
 1913 003e 2088     		ldrh	r0, [r4]
 1914 0040 6B46     		mov	r3, sp
 1915 0042 1880     		strh	r0, [r3]
 1916 0044 A178     		ldrb	r1, [r4, #2]
 1917 0046 5846     		mov	r0, fp
 1918 0048 9970     		strb	r1, [r3, #2]
 1919 004a 0D9A     		ldr	r2, [sp, #52]
 1920 004c 5146     		mov	r1, sl
 1921 004e 0192     		str	r2, [sp, #4]
 1922 0050 2B1C     		mov	r3, r5
 1923 0052 4A46     		mov	r2, r9
ARM GAS  C:\Users\Steve\AppData\Local\Temp\ccwjFJAL.s 			page 44


 1924 0054 FFF7FEFF 		bl	drawLine
 1925              	.LVL177:
 285:.\LED_Matrix.c ****   drawLine(x2, y2, x0, y0, c, matrix);
 1926              		.loc 1 285 0
 1927 0058 2088     		ldrh	r0, [r4]
 1928 005a 6B46     		mov	r3, sp
 1929 005c 1880     		strh	r0, [r3]
 1930 005e A478     		ldrb	r4, [r4, #2]
 1931 0060 4846     		mov	r0, r9
 1932 0062 9C70     		strb	r4, [r3, #2]
 1933 0064 0D99     		ldr	r1, [sp, #52]
 1934 0066 3A1C     		mov	r2, r7
 1935 0068 0191     		str	r1, [sp, #4]
 1936 006a 331C     		mov	r3, r6
 1937 006c 291C     		mov	r1, r5
 1938 006e FFF7FEFF 		bl	drawLine
 1939              	.LVL178:
 286:.\LED_Matrix.c **** }
 1940              		.loc 1 286 0
 1941 0072 02B0     		add	sp, sp, #8
 1942              		@ sp needed for prologue
 1943 0074 1CBC     		pop	{r2, r3, r4}
 1944 0076 9146     		mov	r9, r2
 1945 0078 9A46     		mov	sl, r3
 1946 007a A346     		mov	fp, r4
 1947 007c F0BD     		pop	{r4, r5, r6, r7, pc}
 1948              		.cfi_endproc
 1949              	.LFE44:
 1950              		.size	drawTriangle, .-drawTriangle
 1951 007e C046     		.section	.text.drawOne,"ax",%progbits
 1952              		.align	2
 1953              		.global	drawOne
 1954              		.code	16
 1955              		.thumb_func
 1956              		.type	drawOne, %function
 1957              	drawOne:
 1958              	.LFB45:
 287:.\LED_Matrix.c **** 
 288:.\LED_Matrix.c **** void drawOne(int8 x0, int8 y0,RGB c, color *matrix) 
 289:.\LED_Matrix.c **** { 
 1959              		.loc 1 289 0
 1960              		.cfi_startproc
 1961              	.LVL179:
 1962 0000 F0B5     		push	{r4, r5, r6, r7, lr}
 1963              	.LCFI28:
 1964              		.cfi_def_cfa_offset 20
 1965              		.cfi_offset 4, -20
 1966              		.cfi_offset 5, -16
 1967              		.cfi_offset 6, -12
 1968              		.cfi_offset 7, -8
 1969              		.cfi_offset 14, -4
 1970 0002 5746     		mov	r7, sl
 1971 0004 4E46     		mov	r6, r9
 1972 0006 4546     		mov	r5, r8
 1973 0008 E0B4     		push	{r5, r6, r7}
 1974              	.LCFI29:
 1975              		.cfi_def_cfa_offset 32
ARM GAS  C:\Users\Steve\AppData\Local\Temp\ccwjFJAL.s 			page 45


 1976              		.cfi_offset 8, -32
 1977              		.cfi_offset 9, -28
 1978              		.cfi_offset 10, -24
 1979 000a 8946     		mov	r9, r1
 1980 000c 111C     		mov	r1, r2
 1981              	.LVL180:
 1982 000e 0D0C     		lsr	r5, r1, #16
 1983 0010 84B0     		sub	sp, sp, #16
 1984              	.LCFI30:
 1985              		.cfi_def_cfa_offset 48
 1986              		.loc 1 289 0
 1987 0012 AC46     		mov	ip, r5
 290:.\LED_Matrix.c **** 	drawLine(x0+1, y0+2, x0+3, y0, c,matrix); 
 1988              		.loc 1 290 0
 1989 0014 C5B2     		uxtb	r5, r0
 289:.\LED_Matrix.c **** { 
 1990              		.loc 1 289 0
 1991 0016 0392     		str	r2, [sp, #12]
 1992 0018 1F1C     		mov	r7, r3
 1993 001a 9246     		mov	sl, r2
 1994              		.loc 1 290 0
 1995 001c EB1C     		add	r3, r5, #3
 1996              	.LVL181:
 1997 001e 4A46     		mov	r2, r9
 1998 0020 D6B2     		uxtb	r6, r2
 1999 0022 5AB2     		sxtb	r2, r3
 2000 0024 9046     		mov	r8, r2
 2001 0026 6B46     		mov	r3, sp
 2002 0028 5246     		mov	r2, sl
 2003 002a 1A80     		strh	r2, [r3]
 2004 002c 681C     		add	r0, r5, #1
 2005              	.LVL182:
 2006 002e 6246     		mov	r2, ip
 2007 0030 B11C     		add	r1, r6, #2
 289:.\LED_Matrix.c **** { 
 2008              		.loc 1 289 0
 2009 0032 03AC     		add	r4, sp, #12
 2010              		.loc 1 290 0
 2011 0034 9A70     		strb	r2, [r3, #2]
 2012 0036 40B2     		sxtb	r0, r0
 2013 0038 4246     		mov	r2, r8
 2014 003a 4B46     		mov	r3, r9
 2015 003c 49B2     		sxtb	r1, r1
 2016 003e 0197     		str	r7, [sp, #4]
 2017 0040 FFF7FEFF 		bl	drawLine
 2018              	.LVL183:
 291:.\LED_Matrix.c **** 	drawLine(x0+3, y0, x0+3, y0+11, c,matrix); 
 2019              		.loc 1 291 0
 2020 0044 2188     		ldrh	r1, [r4]
 2021 0046 6846     		mov	r0, sp
 2022 0048 0180     		strh	r1, [r0]
 2023 004a A378     		ldrb	r3, [r4, #2]
 2024 004c 0B36     		add	r6, r6, #11
 2025 004e 76B2     		sxtb	r6, r6
 2026 0050 8370     		strb	r3, [r0, #2]
 2027 0052 4946     		mov	r1, r9
 2028 0054 4046     		mov	r0, r8
ARM GAS  C:\Users\Steve\AppData\Local\Temp\ccwjFJAL.s 			page 46


 2029 0056 4246     		mov	r2, r8
 2030 0058 331C     		mov	r3, r6
 2031 005a 0197     		str	r7, [sp, #4]
 2032 005c FFF7FEFF 		bl	drawLine
 2033              	.LVL184:
 292:.\LED_Matrix.c **** 	drawLine(x0+2, y0+11, x0+4, y0+11, c,matrix);
 2034              		.loc 1 292 0
 2035 0060 2188     		ldrh	r1, [r4]
 2036 0062 AA1C     		add	r2, r5, #2
 2037 0064 0435     		add	r5, r5, #4
 2038              	.LVL185:
 2039 0066 50B2     		sxtb	r0, r2
 2040 0068 6AB2     		sxtb	r2, r5
 2041 006a 6D46     		mov	r5, sp
 2042              	.LVL186:
 2043 006c 2980     		strh	r1, [r5]
 2044 006e A478     		ldrb	r4, [r4, #2]
 2045 0070 311C     		mov	r1, r6
 2046 0072 AC70     		strb	r4, [r5, #2]
 2047 0074 331C     		mov	r3, r6
 2048 0076 0197     		str	r7, [sp, #4]
 2049 0078 FFF7FEFF 		bl	drawLine
 2050              	.LVL187:
 293:.\LED_Matrix.c **** }
 2051              		.loc 1 293 0
 2052 007c 04B0     		add	sp, sp, #16
 2053              		@ sp needed for prologue
 2054              	.LVL188:
 2055 007e 1CBC     		pop	{r2, r3, r4}
 2056 0080 9046     		mov	r8, r2
 2057 0082 9946     		mov	r9, r3
 2058 0084 A246     		mov	sl, r4
 2059 0086 F0BD     		pop	{r4, r5, r6, r7, pc}
 2060              		.cfi_endproc
 2061              	.LFE45:
 2062              		.size	drawOne, .-drawOne
 2063              		.section	.text.drawTwo,"ax",%progbits
 2064              		.align	2
 2065              		.global	drawTwo
 2066              		.code	16
 2067              		.thumb_func
 2068              		.type	drawTwo, %function
 2069              	drawTwo:
 2070              	.LFB46:
 294:.\LED_Matrix.c **** 
 295:.\LED_Matrix.c **** void drawTwo(int8 x0, int8 y0,RGB c, color *matrix) 
 296:.\LED_Matrix.c **** { 
 2071              		.loc 1 296 0
 2072              		.cfi_startproc
 2073              	.LVL189:
 2074 0000 F0B5     		push	{r4, r5, r6, r7, lr}
 2075              	.LCFI31:
 2076              		.cfi_def_cfa_offset 20
 2077              		.cfi_offset 4, -20
 2078              		.cfi_offset 5, -16
 2079              		.cfi_offset 6, -12
 2080              		.cfi_offset 7, -8
ARM GAS  C:\Users\Steve\AppData\Local\Temp\ccwjFJAL.s 			page 47


 2081              		.cfi_offset 14, -4
 2082 0002 5746     		mov	r7, sl
 2083 0004 4E46     		mov	r6, r9
 2084 0006 4546     		mov	r5, r8
 2085 0008 E0B4     		push	{r5, r6, r7}
 2086              	.LCFI32:
 2087              		.cfi_def_cfa_offset 32
 2088              		.cfi_offset 8, -32
 2089              		.cfi_offset 9, -28
 2090              		.cfi_offset 10, -24
 297:.\LED_Matrix.c **** 	drawPixel(x0,y0+1,c,matrix);
 2091              		.loc 1 297 0
 2092 000a CDB2     		uxtb	r5, r1
 296:.\LED_Matrix.c **** { 
 2093              		.loc 1 296 0
 2094 000c 1C1C     		mov	r4, r3
 2095 000e 061C     		mov	r6, r0
 2096              		.loc 1 297 0
 2097 0010 C7B2     		uxtb	r7, r0
 2098 0012 681C     		add	r0, r5, #1
 2099              	.LVL190:
 296:.\LED_Matrix.c **** { 
 2100              		.loc 1 296 0
 2101 0014 84B0     		sub	sp, sp, #16
 2102              	.LCFI33:
 2103              		.cfi_def_cfa_offset 48
 296:.\LED_Matrix.c **** { 
 2104              		.loc 1 296 0
 2105 0016 8A46     		mov	sl, r1
 2106              		.loc 1 297 0
 2107 0018 231C     		mov	r3, r4
 2108 001a C1B2     		uxtb	r1, r0
 2109              	.LVL191:
 2110 001c 381C     		mov	r0, r7
 2111 001e 8946     		mov	r9, r1
 296:.\LED_Matrix.c **** { 
 2112              		.loc 1 296 0
 2113 0020 0392     		str	r2, [sp, #12]
 2114              		.loc 1 297 0
 2115 0022 FFF7FEFF 		bl	drawPixel
 2116              	.LVL192:
 298:.\LED_Matrix.c **** 	drawFastHLine(x0+1,y0,3,c,matrix);
 2117              		.loc 1 298 0
 2118 0026 7A1C     		add	r2, r7, #1
 2119 0028 53B2     		sxtb	r3, r2
 2120 002a 9846     		mov	r8, r3
 2121 002c 181C     		mov	r0, r3
 2122 002e 5146     		mov	r1, sl
 2123 0030 039B     		ldr	r3, [sp, #12]
 2124 0032 0094     		str	r4, [sp]
 2125 0034 0322     		mov	r2, #3
 299:.\LED_Matrix.c **** 	drawFastVLine(x0+4,y0+1,4,c,matrix);
 2126              		.loc 1 299 0
 2127 0036 0437     		add	r7, r7, #4
 2128              	.LVL193:
 298:.\LED_Matrix.c **** 	drawFastHLine(x0+1,y0,3,c,matrix);
 2129              		.loc 1 298 0
ARM GAS  C:\Users\Steve\AppData\Local\Temp\ccwjFJAL.s 			page 48


 2130 0038 FFF7FEFF 		bl	drawFastHLine
 2131              	.LVL194:
 2132              		.loc 1 299 0
 2133 003c 78B2     		sxtb	r0, r7
 2134 003e 4F46     		mov	r7, r9
 2135              	.LVL195:
 2136 0040 79B2     		sxtb	r1, r7
 2137 0042 039B     		ldr	r3, [sp, #12]
 2138 0044 0094     		str	r4, [sp]
 2139 0046 0422     		mov	r2, #4
 2140 0048 FFF7FEFF 		bl	drawFastVLine
 2141              	.LVL196:
 300:.\LED_Matrix.c **** 	drawFastHLine(x0+1,y0+5,3,c,matrix);
 2142              		.loc 1 300 0
 2143 004c 681D     		add	r0, r5, #5
 2144 004e 41B2     		sxtb	r1, r0
 2145 0050 039B     		ldr	r3, [sp, #12]
 2146 0052 4046     		mov	r0, r8
 2147 0054 0094     		str	r4, [sp]
 2148 0056 0322     		mov	r2, #3
 2149 0058 FFF7FEFF 		bl	drawFastHLine
 2150              	.LVL197:
 301:.\LED_Matrix.c **** 	drawFastVLine(x0,y0+6,6,c,matrix);
 2151              		.loc 1 301 0
 2152 005c A91D     		add	r1, r5, #6
 2153 005e 301C     		mov	r0, r6
 2154 0060 039B     		ldr	r3, [sp, #12]
 2155 0062 49B2     		sxtb	r1, r1
 2156 0064 0094     		str	r4, [sp]
 2157 0066 0622     		mov	r2, #6
 302:.\LED_Matrix.c **** 	drawFastHLine(x0,y0+11,5,c,matrix);
 2158              		.loc 1 302 0
 2159 0068 0B35     		add	r5, r5, #11
 2160              	.LVL198:
 301:.\LED_Matrix.c **** 	drawFastVLine(x0,y0+6,6,c,matrix);
 2161              		.loc 1 301 0
 2162 006a FFF7FEFF 		bl	drawFastVLine
 2163              	.LVL199:
 2164              		.loc 1 302 0
 2165 006e 69B2     		sxtb	r1, r5
 2166 0070 0094     		str	r4, [sp]
 2167 0072 301C     		mov	r0, r6
 2168 0074 0522     		mov	r2, #5
 2169 0076 039B     		ldr	r3, [sp, #12]
 2170 0078 FFF7FEFF 		bl	drawFastHLine
 2171              	.LVL200:
 303:.\LED_Matrix.c **** }
 2172              		.loc 1 303 0
 2173 007c 04B0     		add	sp, sp, #16
 2174              		@ sp needed for prologue
 2175              	.LVL201:
 2176              	.LVL202:
 2177 007e 1CBC     		pop	{r2, r3, r4}
 2178 0080 9046     		mov	r8, r2
 2179 0082 9946     		mov	r9, r3
 2180 0084 A246     		mov	sl, r4
 2181 0086 F0BD     		pop	{r4, r5, r6, r7, pc}
ARM GAS  C:\Users\Steve\AppData\Local\Temp\ccwjFJAL.s 			page 49


 2182              		.cfi_endproc
 2183              	.LFE46:
 2184              		.size	drawTwo, .-drawTwo
 2185              		.section	.text.drawColon,"ax",%progbits
 2186              		.align	2
 2187              		.global	drawColon
 2188              		.code	16
 2189              		.thumb_func
 2190              		.type	drawColon, %function
 2191              	drawColon:
 2192              	.LFB47:
 304:.\LED_Matrix.c **** 
 305:.\LED_Matrix.c **** void drawColon(int8 x0, int8 y0,RGB c, color *matrix)
 306:.\LED_Matrix.c **** {
 2193              		.loc 1 306 0
 2194              		.cfi_startproc
 2195              	.LVL203:
 2196 0000 F0B5     		push	{r4, r5, r6, r7, lr}
 2197              	.LCFI34:
 2198              		.cfi_def_cfa_offset 20
 2199              		.cfi_offset 4, -20
 2200              		.cfi_offset 5, -16
 2201              		.cfi_offset 6, -12
 2202              		.cfi_offset 7, -8
 2203              		.cfi_offset 14, -4
 307:.\LED_Matrix.c **** 	drawFastVLine(x0,y0+3,2,c,matrix);
 2204              		.loc 1 307 0
 2205 0002 CEB2     		uxtb	r6, r1
 306:.\LED_Matrix.c **** {
 2206              		.loc 1 306 0
 2207 0004 85B0     		sub	sp, sp, #20
 2208              	.LCFI35:
 2209              		.cfi_def_cfa_offset 40
 306:.\LED_Matrix.c **** {
 2210              		.loc 1 306 0
 2211 0006 171C     		mov	r7, r2
 2212              		.loc 1 307 0
 2213 0008 F11C     		add	r1, r6, #3
 2214              	.LVL204:
 306:.\LED_Matrix.c **** {
 2215              		.loc 1 306 0
 2216 000a 041C     		mov	r4, r0
 2217 000c 0392     		str	r2, [sp, #12]
 2218 000e 1D1C     		mov	r5, r3
 2219              		.loc 1 307 0
 2220 0010 0093     		str	r3, [sp]
 2221 0012 49B2     		sxtb	r1, r1
 2222 0014 3B1C     		mov	r3, r7
 2223              	.LVL205:
 2224 0016 0222     		mov	r2, #2
 308:.\LED_Matrix.c **** 	drawFastVLine(x0,y0+7,2,c,matrix);
 2225              		.loc 1 308 0
 2226 0018 0736     		add	r6, r6, #7
 2227              	.LVL206:
 307:.\LED_Matrix.c **** 	drawFastVLine(x0,y0+3,2,c,matrix);
 2228              		.loc 1 307 0
 2229 001a FFF7FEFF 		bl	drawFastVLine
ARM GAS  C:\Users\Steve\AppData\Local\Temp\ccwjFJAL.s 			page 50


 2230              	.LVL207:
 2231              		.loc 1 308 0
 2232 001e 71B2     		sxtb	r1, r6
 2233 0020 0095     		str	r5, [sp]
 2234 0022 201C     		mov	r0, r4
 2235 0024 0222     		mov	r2, #2
 2236 0026 039B     		ldr	r3, [sp, #12]
 2237 0028 FFF7FEFF 		bl	drawFastVLine
 2238              	.LVL208:
 309:.\LED_Matrix.c **** }
 2239              		.loc 1 309 0
 2240 002c 05B0     		add	sp, sp, #20
 2241              		@ sp needed for prologue
 2242              	.LVL209:
 2243              	.LVL210:
 2244 002e F0BD     		pop	{r4, r5, r6, r7, pc}
 2245              		.cfi_endproc
 2246              	.LFE47:
 2247              		.size	drawColon, .-drawColon
 2248              		.section	.text.drawThree,"ax",%progbits
 2249              		.align	2
 2250              		.global	drawThree
 2251              		.code	16
 2252              		.thumb_func
 2253              		.type	drawThree, %function
 2254              	drawThree:
 2255              	.LFB48:
 310:.\LED_Matrix.c **** 
 311:.\LED_Matrix.c **** void drawThree(int8 x0, int8 y0,RGB c, color *matrix)
 312:.\LED_Matrix.c **** {
 2256              		.loc 1 312 0
 2257              		.cfi_startproc
 2258              	.LVL211:
 2259 0000 F0B5     		push	{r4, r5, r6, r7, lr}
 2260              	.LCFI36:
 2261              		.cfi_def_cfa_offset 20
 2262              		.cfi_offset 4, -20
 2263              		.cfi_offset 5, -16
 2264              		.cfi_offset 6, -12
 2265              		.cfi_offset 7, -8
 2266              		.cfi_offset 14, -4
 2267 0002 051C     		mov	r5, r0
 2268 0004 85B0     		sub	sp, sp, #20
 2269              	.LCFI37:
 2270              		.cfi_def_cfa_offset 40
 2271              		.loc 1 312 0
 2272 0006 171C     		mov	r7, r2
 2273 0008 1C1C     		mov	r4, r3
 313:.\LED_Matrix.c **** 	drawFastHLine(x0,y0,5,c,matrix);
 314:.\LED_Matrix.c **** 	drawFastVLine(x0+4,y0,4,c,matrix);
 2274              		.loc 1 314 0
 2275 000a EDB2     		uxtb	r5, r5
 312:.\LED_Matrix.c **** {
 2276              		.loc 1 312 0
 2277 000c 0392     		str	r2, [sp, #12]
 313:.\LED_Matrix.c **** 	drawFastHLine(x0,y0,5,c,matrix);
 2278              		.loc 1 313 0
ARM GAS  C:\Users\Steve\AppData\Local\Temp\ccwjFJAL.s 			page 51


 2279 000e 0093     		str	r3, [sp]
 2280 0010 0522     		mov	r2, #5
 2281 0012 3B1C     		mov	r3, r7
 2282              	.LVL212:
 312:.\LED_Matrix.c **** {
 2283              		.loc 1 312 0
 2284 0014 0E1C     		mov	r6, r1
 313:.\LED_Matrix.c **** 	drawFastHLine(x0,y0,5,c,matrix);
 2285              		.loc 1 313 0
 2286 0016 FFF7FEFF 		bl	drawFastHLine
 2287              	.LVL213:
 2288              		.loc 1 314 0
 2289 001a 281D     		add	r0, r5, #4
 2290 001c 47B2     		sxtb	r7, r0
 2291 001e 381C     		mov	r0, r7
 2292 0020 311C     		mov	r1, r6
 2293 0022 039B     		ldr	r3, [sp, #12]
 315:.\LED_Matrix.c **** 	drawPixel(x0+3,y0+4,c,matrix);
 2294              		.loc 1 315 0
 2295 0024 F6B2     		uxtb	r6, r6
 314:.\LED_Matrix.c **** 	drawFastVLine(x0+4,y0,4,c,matrix);
 2296              		.loc 1 314 0
 2297 0026 0094     		str	r4, [sp]
 2298 0028 0422     		mov	r2, #4
 2299 002a FFF7FEFF 		bl	drawFastVLine
 2300              	.LVL214:
 2301              		.loc 1 315 0
 2302 002e E91C     		add	r1, r5, #3
 2303 0030 321D     		add	r2, r6, #4
 2304 0032 C8B2     		uxtb	r0, r1
 2305 0034 231C     		mov	r3, r4
 2306 0036 D1B2     		uxtb	r1, r2
 2307 0038 039A     		ldr	r2, [sp, #12]
 2308 003a FFF7FEFF 		bl	drawPixel
 2309              	.LVL215:
 316:.\LED_Matrix.c **** 	drawFastHLine(x0+2,y0+5,2,c,matrix);
 2310              		.loc 1 316 0
 2311 003e AB1C     		add	r3, r5, #2
 2312 0040 711D     		add	r1, r6, #5
 2313 0042 58B2     		sxtb	r0, r3
 2314 0044 49B2     		sxtb	r1, r1
 2315 0046 039B     		ldr	r3, [sp, #12]
 2316 0048 0094     		str	r4, [sp]
 2317 004a 0222     		mov	r2, #2
 2318 004c FFF7FEFF 		bl	drawFastHLine
 2319              	.LVL216:
 317:.\LED_Matrix.c **** 	drawFastVLine(x0+4,y0+6,5,c,matrix);
 2320              		.loc 1 317 0
 2321 0050 B01D     		add	r0, r6, #6
 2322 0052 41B2     		sxtb	r1, r0
 2323 0054 039B     		ldr	r3, [sp, #12]
 2324 0056 381C     		mov	r0, r7
 2325 0058 0094     		str	r4, [sp]
 2326 005a 0522     		mov	r2, #5
 2327 005c FFF7FEFF 		bl	drawFastVLine
 2328              	.LVL217:
 318:.\LED_Matrix.c **** 	drawFastHLine(x0+1,y0+11,3,c,matrix);
ARM GAS  C:\Users\Steve\AppData\Local\Temp\ccwjFJAL.s 			page 52


 2329              		.loc 1 318 0
 2330 0060 321C     		mov	r2, r6
 2331 0062 6F1C     		add	r7, r5, #1
 2332 0064 0B32     		add	r2, r2, #11
 2333 0066 78B2     		sxtb	r0, r7
 2334 0068 51B2     		sxtb	r1, r2
 2335 006a 039B     		ldr	r3, [sp, #12]
 2336 006c 0094     		str	r4, [sp]
 2337 006e 0322     		mov	r2, #3
 319:.\LED_Matrix.c **** 	drawPixel(x0,y0+10,c,matrix);
 2338              		.loc 1 319 0
 2339 0070 0A36     		add	r6, r6, #10
 318:.\LED_Matrix.c **** 	drawFastHLine(x0+1,y0+11,3,c,matrix);
 2340              		.loc 1 318 0
 2341 0072 FFF7FEFF 		bl	drawFastHLine
 2342              	.LVL218:
 2343              		.loc 1 319 0
 2344 0076 F1B2     		uxtb	r1, r6
 2345 0078 281C     		mov	r0, r5
 2346 007a 039A     		ldr	r2, [sp, #12]
 2347 007c 231C     		mov	r3, r4
 2348 007e FFF7FEFF 		bl	drawPixel
 2349              	.LVL219:
 320:.\LED_Matrix.c **** }
 2350              		.loc 1 320 0
 2351 0082 05B0     		add	sp, sp, #20
 2352              		@ sp needed for prologue
 2353              	.LVL220:
 2354 0084 F0BD     		pop	{r4, r5, r6, r7, pc}
 2355              		.cfi_endproc
 2356              	.LFE48:
 2357              		.size	drawThree, .-drawThree
 2358 0086 C046     		.section	.text.drawFour,"ax",%progbits
 2359              		.align	2
 2360              		.global	drawFour
 2361              		.code	16
 2362              		.thumb_func
 2363              		.type	drawFour, %function
 2364              	drawFour:
 2365              	.LFB49:
 321:.\LED_Matrix.c **** 
 322:.\LED_Matrix.c **** void drawFour(int8 x0, int8 y0,RGB c, color *matrix)
 323:.\LED_Matrix.c **** {
 2366              		.loc 1 323 0
 2367              		.cfi_startproc
 2368              	.LVL221:
 2369 0000 F0B5     		push	{r4, r5, r6, r7, lr}
 2370              	.LCFI38:
 2371              		.cfi_def_cfa_offset 20
 2372              		.cfi_offset 4, -20
 2373              		.cfi_offset 5, -16
 2374              		.cfi_offset 6, -12
 2375              		.cfi_offset 7, -8
 2376              		.cfi_offset 14, -4
 2377 0002 171C     		mov	r7, r2
 2378 0004 85B0     		sub	sp, sp, #20
 2379              	.LCFI39:
ARM GAS  C:\Users\Steve\AppData\Local\Temp\ccwjFJAL.s 			page 53


 2380              		.cfi_def_cfa_offset 40
 2381              		.loc 1 323 0
 2382 0006 0C1C     		mov	r4, r1
 2383 0008 1D1C     		mov	r5, r3
 2384 000a 0392     		str	r2, [sp, #12]
 324:.\LED_Matrix.c **** 	drawFastVLine(x0,y0,7,c,matrix);
 2385              		.loc 1 324 0
 2386 000c 0093     		str	r3, [sp]
 2387 000e 0722     		mov	r2, #7
 2388 0010 3B1C     		mov	r3, r7
 2389              	.LVL222:
 323:.\LED_Matrix.c **** {
 2390              		.loc 1 323 0
 2391 0012 061C     		mov	r6, r0
 2392              		.loc 1 324 0
 2393 0014 FFF7FEFF 		bl	drawFastVLine
 2394              	.LVL223:
 325:.\LED_Matrix.c **** 	drawFastHLine(x0,y0+6,5,c,matrix);
 2395              		.loc 1 325 0
 2396 0018 A11D     		add	r1, r4, #6
 2397 001a 301C     		mov	r0, r6
 2398 001c 039B     		ldr	r3, [sp, #12]
 2399 001e 49B2     		sxtb	r1, r1
 2400 0020 0095     		str	r5, [sp]
 2401 0022 0522     		mov	r2, #5
 326:.\LED_Matrix.c **** 	drawFastVLine(x0+3,y0,12,c,matrix);
 2402              		.loc 1 326 0
 2403 0024 0336     		add	r6, r6, #3
 325:.\LED_Matrix.c **** 	drawFastHLine(x0,y0+6,5,c,matrix);
 2404              		.loc 1 325 0
 2405 0026 FFF7FEFF 		bl	drawFastHLine
 2406              	.LVL224:
 2407              		.loc 1 326 0
 2408 002a 70B2     		sxtb	r0, r6
 2409 002c 0095     		str	r5, [sp]
 2410 002e 211C     		mov	r1, r4
 2411 0030 0C22     		mov	r2, #12
 2412 0032 039B     		ldr	r3, [sp, #12]
 2413 0034 FFF7FEFF 		bl	drawFastVLine
 2414              	.LVL225:
 327:.\LED_Matrix.c **** }
 2415              		.loc 1 327 0
 2416 0038 05B0     		add	sp, sp, #20
 2417              		@ sp needed for prologue
 2418              	.LVL226:
 2419 003a F0BD     		pop	{r4, r5, r6, r7, pc}
 2420              		.cfi_endproc
 2421              	.LFE49:
 2422              		.size	drawFour, .-drawFour
 2423              		.section	.text.drawFive,"ax",%progbits
 2424              		.align	2
 2425              		.global	drawFive
 2426              		.code	16
 2427              		.thumb_func
 2428              		.type	drawFive, %function
 2429              	drawFive:
 2430              	.LFB50:
ARM GAS  C:\Users\Steve\AppData\Local\Temp\ccwjFJAL.s 			page 54


 328:.\LED_Matrix.c **** 
 329:.\LED_Matrix.c **** void drawFive(int8 x0, int8 y0,RGB c, color *matrix)
 330:.\LED_Matrix.c **** {
 2431              		.loc 1 330 0
 2432              		.cfi_startproc
 2433              	.LVL227:
 2434 0000 F0B5     		push	{r4, r5, r6, r7, lr}
 2435              	.LCFI40:
 2436              		.cfi_def_cfa_offset 20
 2437              		.cfi_offset 4, -20
 2438              		.cfi_offset 5, -16
 2439              		.cfi_offset 6, -12
 2440              		.cfi_offset 7, -8
 2441              		.cfi_offset 14, -4
 2442 0002 0D1C     		mov	r5, r1
 2443 0004 85B0     		sub	sp, sp, #20
 2444              	.LCFI41:
 2445              		.cfi_def_cfa_offset 40
 2446              		.loc 1 330 0
 2447 0006 171C     		mov	r7, r2
 2448 0008 1C1C     		mov	r4, r3
 331:.\LED_Matrix.c **** 	drawFastHLine(x0,y0,5,c,matrix);
 332:.\LED_Matrix.c **** 	drawFastVLine(x0,y0+1,6,c,matrix);
 2449              		.loc 1 332 0
 2450 000a EDB2     		uxtb	r5, r5
 330:.\LED_Matrix.c **** {
 2451              		.loc 1 330 0
 2452 000c 0392     		str	r2, [sp, #12]
 331:.\LED_Matrix.c **** 	drawFastHLine(x0,y0,5,c,matrix);
 2453              		.loc 1 331 0
 2454 000e 0093     		str	r3, [sp]
 2455 0010 0522     		mov	r2, #5
 2456 0012 3B1C     		mov	r3, r7
 2457              	.LVL228:
 330:.\LED_Matrix.c **** {
 2458              		.loc 1 330 0
 2459 0014 061C     		mov	r6, r0
 331:.\LED_Matrix.c **** 	drawFastHLine(x0,y0,5,c,matrix);
 2460              		.loc 1 331 0
 2461 0016 FFF7FEFF 		bl	drawFastHLine
 2462              	.LVL229:
 2463              		.loc 1 332 0
 2464 001a 691C     		add	r1, r5, #1
 2465 001c 301C     		mov	r0, r6
 2466 001e 039B     		ldr	r3, [sp, #12]
 333:.\LED_Matrix.c **** 	drawFastHLine(x0+1,y0+5,3,c,matrix);
 2467              		.loc 1 333 0
 2468 0020 F6B2     		uxtb	r6, r6
 332:.\LED_Matrix.c **** 	drawFastVLine(x0,y0+1,6,c,matrix);
 2469              		.loc 1 332 0
 2470 0022 49B2     		sxtb	r1, r1
 2471 0024 0094     		str	r4, [sp]
 2472 0026 0622     		mov	r2, #6
 2473 0028 FFF7FEFF 		bl	drawFastVLine
 2474              	.LVL230:
 2475              		.loc 1 333 0
 2476 002c 701C     		add	r0, r6, #1
ARM GAS  C:\Users\Steve\AppData\Local\Temp\ccwjFJAL.s 			page 55


 2477 002e 47B2     		sxtb	r7, r0
 2478 0030 6A1D     		add	r2, r5, #5
 2479 0032 51B2     		sxtb	r1, r2
 2480 0034 381C     		mov	r0, r7
 2481 0036 039B     		ldr	r3, [sp, #12]
 2482 0038 0094     		str	r4, [sp]
 2483 003a 0322     		mov	r2, #3
 2484 003c FFF7FEFF 		bl	drawFastHLine
 2485              	.LVL231:
 334:.\LED_Matrix.c **** 	drawFastVLine(x0+4,y0+6,5,c,matrix);
 2486              		.loc 1 334 0
 2487 0040 331D     		add	r3, r6, #4
 2488 0042 A91D     		add	r1, r5, #6
 2489 0044 58B2     		sxtb	r0, r3
 2490 0046 49B2     		sxtb	r1, r1
 2491 0048 039B     		ldr	r3, [sp, #12]
 2492 004a 0094     		str	r4, [sp]
 2493 004c 0522     		mov	r2, #5
 2494 004e FFF7FEFF 		bl	drawFastVLine
 2495              	.LVL232:
 335:.\LED_Matrix.c **** 	drawFastHLine(x0+1,y0+11,3,c,matrix);
 2496              		.loc 1 335 0
 2497 0052 281C     		mov	r0, r5
 2498 0054 0B30     		add	r0, r0, #11
 2499 0056 41B2     		sxtb	r1, r0
 2500 0058 039B     		ldr	r3, [sp, #12]
 2501 005a 381C     		mov	r0, r7
 2502 005c 0094     		str	r4, [sp]
 2503 005e 0322     		mov	r2, #3
 336:.\LED_Matrix.c **** 	drawPixel(x0,y0+10,c,matrix);
 2504              		.loc 1 336 0
 2505 0060 0A35     		add	r5, r5, #10
 335:.\LED_Matrix.c **** 	drawFastHLine(x0+1,y0+11,3,c,matrix);
 2506              		.loc 1 335 0
 2507 0062 FFF7FEFF 		bl	drawFastHLine
 2508              	.LVL233:
 2509              		.loc 1 336 0
 2510 0066 E9B2     		uxtb	r1, r5
 2511 0068 301C     		mov	r0, r6
 2512 006a 039A     		ldr	r2, [sp, #12]
 2513 006c 231C     		mov	r3, r4
 2514 006e FFF7FEFF 		bl	drawPixel
 2515              	.LVL234:
 337:.\LED_Matrix.c **** 	
 338:.\LED_Matrix.c **** 	
 339:.\LED_Matrix.c **** }
 2516              		.loc 1 339 0
 2517 0072 05B0     		add	sp, sp, #20
 2518              		@ sp needed for prologue
 2519              	.LVL235:
 2520 0074 F0BD     		pop	{r4, r5, r6, r7, pc}
 2521              		.cfi_endproc
 2522              	.LFE50:
 2523              		.size	drawFive, .-drawFive
 2524 0076 C046     		.section	.text.drawSix,"ax",%progbits
 2525              		.align	2
 2526              		.global	drawSix
ARM GAS  C:\Users\Steve\AppData\Local\Temp\ccwjFJAL.s 			page 56


 2527              		.code	16
 2528              		.thumb_func
 2529              		.type	drawSix, %function
 2530              	drawSix:
 2531              	.LFB51:
 340:.\LED_Matrix.c **** void drawSix(int8 x0, int8 y0,RGB c, color *matrix)
 341:.\LED_Matrix.c **** {
 2532              		.loc 1 341 0
 2533              		.cfi_startproc
 2534              	.LVL236:
 2535 0000 F0B5     		push	{r4, r5, r6, r7, lr}
 2536              	.LCFI42:
 2537              		.cfi_def_cfa_offset 20
 2538              		.cfi_offset 4, -20
 2539              		.cfi_offset 5, -16
 2540              		.cfi_offset 6, -12
 2541              		.cfi_offset 7, -8
 2542              		.cfi_offset 14, -4
 2543 0002 4746     		mov	r7, r8
 2544 0004 80B4     		push	{r7}
 2545              	.LCFI43:
 2546              		.cfi_def_cfa_offset 24
 2547              		.cfi_offset 8, -24
 342:.\LED_Matrix.c **** 	drawFastHLine(x0+1,y0,4,c,matrix);
 2548              		.loc 1 342 0
 2549 0006 C7B2     		uxtb	r7, r0
 2550 0008 7E1C     		add	r6, r7, #1
 341:.\LED_Matrix.c **** {
 2551              		.loc 1 341 0
 2552 000a 84B0     		sub	sp, sp, #16
 2553              	.LCFI44:
 2554              		.cfi_def_cfa_offset 40
 341:.\LED_Matrix.c **** {
 2555              		.loc 1 341 0
 2556 000c 9446     		mov	ip, r2
 2557 000e 1C1C     		mov	r4, r3
 2558              		.loc 1 342 0
 2559 0010 76B2     		sxtb	r6, r6
 341:.\LED_Matrix.c **** {
 2560              		.loc 1 341 0
 2561 0012 0D1C     		mov	r5, r1
 2562              		.loc 1 342 0
 2563 0014 6346     		mov	r3, ip
 2564              	.LVL237:
 343:.\LED_Matrix.c **** 	drawFastVLine(x0,y0+1,10,c,matrix);
 2565              		.loc 1 343 0
 2566 0016 EDB2     		uxtb	r5, r5
 341:.\LED_Matrix.c **** {
 2567              		.loc 1 341 0
 2568 0018 8046     		mov	r8, r0
 2569 001a 0392     		str	r2, [sp, #12]
 342:.\LED_Matrix.c **** 	drawFastHLine(x0+1,y0,4,c,matrix);
 2570              		.loc 1 342 0
 2571 001c 301C     		mov	r0, r6
 2572              	.LVL238:
 2573 001e 0094     		str	r4, [sp]
 2574 0020 0422     		mov	r2, #4
ARM GAS  C:\Users\Steve\AppData\Local\Temp\ccwjFJAL.s 			page 57


 2575 0022 FFF7FEFF 		bl	drawFastHLine
 2576              	.LVL239:
 2577              		.loc 1 343 0
 2578 0026 691C     		add	r1, r5, #1
 2579 0028 4046     		mov	r0, r8
 2580 002a 039B     		ldr	r3, [sp, #12]
 2581 002c 49B2     		sxtb	r1, r1
 2582 002e 0094     		str	r4, [sp]
 2583 0030 0A22     		mov	r2, #10
 2584 0032 FFF7FEFF 		bl	drawFastVLine
 2585              	.LVL240:
 344:.\LED_Matrix.c **** 	drawFastHLine(x0+1,y0+5,3,c,matrix);
 2586              		.loc 1 344 0
 2587 0036 681D     		add	r0, r5, #5
 2588 0038 41B2     		sxtb	r1, r0
 2589 003a 039B     		ldr	r3, [sp, #12]
 2590 003c 301C     		mov	r0, r6
 2591 003e 0094     		str	r4, [sp]
 2592 0040 0322     		mov	r2, #3
 2593 0042 FFF7FEFF 		bl	drawFastHLine
 2594              	.LVL241:
 345:.\LED_Matrix.c **** 	drawFastVLine(x0+4,y0+6,5,c,matrix);
 2595              		.loc 1 345 0
 2596 0046 0437     		add	r7, r7, #4
 2597              	.LVL242:
 2598 0048 AA1D     		add	r2, r5, #6
 2599 004a 78B2     		sxtb	r0, r7
 2600 004c 51B2     		sxtb	r1, r2
 2601 004e 039B     		ldr	r3, [sp, #12]
 2602 0050 0094     		str	r4, [sp]
 2603 0052 0522     		mov	r2, #5
 346:.\LED_Matrix.c **** 	drawFastHLine(x0+1,y0+11,3,c,matrix);
 2604              		.loc 1 346 0
 2605 0054 0B35     		add	r5, r5, #11
 345:.\LED_Matrix.c **** 	drawFastVLine(x0+4,y0+6,5,c,matrix);
 2606              		.loc 1 345 0
 2607 0056 FFF7FEFF 		bl	drawFastVLine
 2608              	.LVL243:
 2609              		.loc 1 346 0
 2610 005a 69B2     		sxtb	r1, r5
 2611 005c 0094     		str	r4, [sp]
 2612 005e 301C     		mov	r0, r6
 2613 0060 0322     		mov	r2, #3
 2614 0062 039B     		ldr	r3, [sp, #12]
 2615 0064 FFF7FEFF 		bl	drawFastHLine
 2616              	.LVL244:
 347:.\LED_Matrix.c **** 	
 348:.\LED_Matrix.c **** }
 2617              		.loc 1 348 0
 2618 0068 04B0     		add	sp, sp, #16
 2619              		@ sp needed for prologue
 2620              	.LVL245:
 2621              	.LVL246:
 2622 006a 04BC     		pop	{r2}
 2623 006c 9046     		mov	r8, r2
 2624 006e F0BD     		pop	{r4, r5, r6, r7, pc}
 2625              		.cfi_endproc
ARM GAS  C:\Users\Steve\AppData\Local\Temp\ccwjFJAL.s 			page 58


 2626              	.LFE51:
 2627              		.size	drawSix, .-drawSix
 2628              		.section	.text.drawSeven,"ax",%progbits
 2629              		.align	2
 2630              		.global	drawSeven
 2631              		.code	16
 2632              		.thumb_func
 2633              		.type	drawSeven, %function
 2634              	drawSeven:
 2635              	.LFB52:
 349:.\LED_Matrix.c **** void drawSeven(int8 x0, int8 y0,RGB c, color *matrix)
 350:.\LED_Matrix.c **** {
 2636              		.loc 1 350 0
 2637              		.cfi_startproc
 2638              	.LVL247:
 2639 0000 F0B5     		push	{r4, r5, r6, r7, lr}
 2640              	.LCFI45:
 2641              		.cfi_def_cfa_offset 20
 2642              		.cfi_offset 4, -20
 2643              		.cfi_offset 5, -16
 2644              		.cfi_offset 6, -12
 2645              		.cfi_offset 7, -8
 2646              		.cfi_offset 14, -4
 2647 0002 0C1C     		mov	r4, r1
 351:.\LED_Matrix.c **** 	drawPixel(x0,y0+1,c,matrix);
 2648              		.loc 1 351 0
 2649 0004 C6B2     		uxtb	r6, r0
 2650 0006 0131     		add	r1, r1, #1
 2651              	.LVL248:
 350:.\LED_Matrix.c **** {
 2652              		.loc 1 350 0
 2653 0008 85B0     		sub	sp, sp, #20
 2654              	.LCFI46:
 2655              		.cfi_def_cfa_offset 40
 350:.\LED_Matrix.c **** {
 2656              		.loc 1 350 0
 2657 000a 1D1C     		mov	r5, r3
 2658 000c 071C     		mov	r7, r0
 2659              		.loc 1 351 0
 2660 000e C9B2     		uxtb	r1, r1
 2661 0010 301C     		mov	r0, r6
 350:.\LED_Matrix.c **** {
 2662              		.loc 1 350 0
 2663 0012 0392     		str	r2, [sp, #12]
 352:.\LED_Matrix.c **** 	drawFastHLine(x0,y0,5,c,matrix);
 353:.\LED_Matrix.c **** 	drawFastVLine(x0+4,y0,12,c,matrix);
 2664              		.loc 1 353 0
 2665 0014 0436     		add	r6, r6, #4
 351:.\LED_Matrix.c **** 	drawPixel(x0,y0+1,c,matrix);
 2666              		.loc 1 351 0
 2667 0016 FFF7FEFF 		bl	drawPixel
 2668              	.LVL249:
 352:.\LED_Matrix.c **** 	drawFastHLine(x0,y0,5,c,matrix);
 2669              		.loc 1 352 0
 2670 001a 381C     		mov	r0, r7
 2671 001c 211C     		mov	r1, r4
 2672 001e 039B     		ldr	r3, [sp, #12]
ARM GAS  C:\Users\Steve\AppData\Local\Temp\ccwjFJAL.s 			page 59


 2673 0020 0095     		str	r5, [sp]
 2674 0022 0522     		mov	r2, #5
 2675 0024 FFF7FEFF 		bl	drawFastHLine
 2676              	.LVL250:
 2677              		.loc 1 353 0
 2678 0028 70B2     		sxtb	r0, r6
 2679 002a 0095     		str	r5, [sp]
 2680 002c 211C     		mov	r1, r4
 2681 002e 0C22     		mov	r2, #12
 2682 0030 039B     		ldr	r3, [sp, #12]
 2683 0032 FFF7FEFF 		bl	drawFastVLine
 2684              	.LVL251:
 354:.\LED_Matrix.c **** }
 2685              		.loc 1 354 0
 2686 0036 05B0     		add	sp, sp, #20
 2687              		@ sp needed for prologue
 2688              	.LVL252:
 2689              	.LVL253:
 2690 0038 F0BD     		pop	{r4, r5, r6, r7, pc}
 2691              		.cfi_endproc
 2692              	.LFE52:
 2693              		.size	drawSeven, .-drawSeven
 2694 003a C046     		.section	.text.drawEight,"ax",%progbits
 2695              		.align	2
 2696              		.global	drawEight
 2697              		.code	16
 2698              		.thumb_func
 2699              		.type	drawEight, %function
 2700              	drawEight:
 2701              	.LFB53:
 355:.\LED_Matrix.c **** void drawEight(int8 x0, int8 y0,RGB c, color *matrix)
 356:.\LED_Matrix.c **** {
 2702              		.loc 1 356 0
 2703              		.cfi_startproc
 2704              	.LVL254:
 2705 0000 F0B5     		push	{r4, r5, r6, r7, lr}
 2706              	.LCFI47:
 2707              		.cfi_def_cfa_offset 20
 2708              		.cfi_offset 4, -20
 2709              		.cfi_offset 5, -16
 2710              		.cfi_offset 6, -12
 2711              		.cfi_offset 7, -8
 2712              		.cfi_offset 14, -4
 2713 0002 4F46     		mov	r7, r9
 2714 0004 4646     		mov	r6, r8
 2715 0006 C0B4     		push	{r6, r7}
 2716              	.LCFI48:
 2717              		.cfi_def_cfa_offset 28
 2718              		.cfi_offset 8, -28
 2719              		.cfi_offset 9, -24
 2720 0008 1C1C     		mov	r4, r3
 357:.\LED_Matrix.c **** 	drawFastHLine(x0+1,y0,3,c,matrix);
 2721              		.loc 1 357 0
 2722 000a C3B2     		uxtb	r3, r0
 2723              	.LVL255:
 2724 000c 1F1C     		mov	r7, r3
 2725 000e 0137     		add	r7, r7, #1
ARM GAS  C:\Users\Steve\AppData\Local\Temp\ccwjFJAL.s 			page 60


 356:.\LED_Matrix.c **** {
 2726              		.loc 1 356 0
 2727 0010 85B0     		sub	sp, sp, #20
 2728              	.LCFI49:
 2729              		.cfi_def_cfa_offset 48
 356:.\LED_Matrix.c **** {
 2730              		.loc 1 356 0
 2731 0012 9446     		mov	ip, r2
 2732              		.loc 1 357 0
 2733 0014 7FB2     		sxtb	r7, r7
 356:.\LED_Matrix.c **** {
 2734              		.loc 1 356 0
 2735 0016 0D1C     		mov	r5, r1
 2736 0018 061C     		mov	r6, r0
 358:.\LED_Matrix.c **** 	drawFastHLine(x0+1,y0+5,3,c,matrix);
 2737              		.loc 1 358 0
 2738 001a EDB2     		uxtb	r5, r5
 356:.\LED_Matrix.c **** {
 2739              		.loc 1 356 0
 2740 001c 0392     		str	r2, [sp, #12]
 357:.\LED_Matrix.c **** 	drawFastHLine(x0+1,y0,3,c,matrix);
 2741              		.loc 1 357 0
 2742 001e 9946     		mov	r9, r3
 2743 0020 381C     		mov	r0, r7
 2744              	.LVL256:
 2745 0022 6346     		mov	r3, ip
 2746              	.LVL257:
 2747 0024 0094     		str	r4, [sp]
 2748 0026 0322     		mov	r2, #3
 2749 0028 FFF7FEFF 		bl	drawFastHLine
 2750              	.LVL258:
 2751              		.loc 1 358 0
 2752 002c 691D     		add	r1, r5, #5
 2753 002e 381C     		mov	r0, r7
 2754 0030 039B     		ldr	r3, [sp, #12]
 2755 0032 49B2     		sxtb	r1, r1
 2756 0034 0094     		str	r4, [sp]
 2757 0036 0322     		mov	r2, #3
 2758 0038 FFF7FEFF 		bl	drawFastHLine
 2759              	.LVL259:
 359:.\LED_Matrix.c **** 	drawFastHLine(x0+1,y0+11,3,c,matrix);
 2760              		.loc 1 359 0
 2761 003c 281C     		mov	r0, r5
 2762 003e 0B30     		add	r0, r0, #11
 2763 0040 41B2     		sxtb	r1, r0
 2764 0042 039B     		ldr	r3, [sp, #12]
 2765 0044 381C     		mov	r0, r7
 2766 0046 0094     		str	r4, [sp]
 2767 0048 0322     		mov	r2, #3
 2768 004a FFF7FEFF 		bl	drawFastHLine
 2769              	.LVL260:
 360:.\LED_Matrix.c **** 	drawFastVLine(x0,y0+1,4,c,matrix);
 361:.\LED_Matrix.c **** 	drawFastVLine(x0+4,y0+1,4,c,matrix);
 2770              		.loc 1 361 0
 2771 004e 4F46     		mov	r7, r9
 360:.\LED_Matrix.c **** 	drawFastVLine(x0,y0+1,4,c,matrix);
 2772              		.loc 1 360 0
ARM GAS  C:\Users\Steve\AppData\Local\Temp\ccwjFJAL.s 			page 61


 2773 0050 6A1C     		add	r2, r5, #1
 2774 0052 53B2     		sxtb	r3, r2
 2775              		.loc 1 361 0
 2776 0054 0437     		add	r7, r7, #4
 360:.\LED_Matrix.c **** 	drawFastVLine(x0,y0+1,4,c,matrix);
 2777              		.loc 1 360 0
 2778 0056 9846     		mov	r8, r3
 2779 0058 301C     		mov	r0, r6
 2780 005a 191C     		mov	r1, r3
 2781              		.loc 1 361 0
 2782 005c 7FB2     		sxtb	r7, r7
 360:.\LED_Matrix.c **** 	drawFastVLine(x0,y0+1,4,c,matrix);
 2783              		.loc 1 360 0
 2784 005e 039B     		ldr	r3, [sp, #12]
 2785 0060 0094     		str	r4, [sp]
 2786 0062 0422     		mov	r2, #4
 362:.\LED_Matrix.c **** 	drawFastVLine(x0,y0+6,5,c,matrix);
 2787              		.loc 1 362 0
 2788 0064 0635     		add	r5, r5, #6
 360:.\LED_Matrix.c **** 	drawFastVLine(x0,y0+1,4,c,matrix);
 2789              		.loc 1 360 0
 2790 0066 FFF7FEFF 		bl	drawFastVLine
 2791              	.LVL261:
 2792              		.loc 1 362 0
 2793 006a 6DB2     		sxtb	r5, r5
 361:.\LED_Matrix.c **** 	drawFastVLine(x0+4,y0+1,4,c,matrix);
 2794              		.loc 1 361 0
 2795 006c 381C     		mov	r0, r7
 2796 006e 4146     		mov	r1, r8
 2797 0070 039B     		ldr	r3, [sp, #12]
 2798 0072 0094     		str	r4, [sp]
 2799 0074 0422     		mov	r2, #4
 2800 0076 FFF7FEFF 		bl	drawFastVLine
 2801              	.LVL262:
 2802              		.loc 1 362 0
 2803 007a 301C     		mov	r0, r6
 2804 007c 291C     		mov	r1, r5
 2805 007e 039B     		ldr	r3, [sp, #12]
 2806 0080 0094     		str	r4, [sp]
 2807 0082 0522     		mov	r2, #5
 2808 0084 FFF7FEFF 		bl	drawFastVLine
 2809              	.LVL263:
 363:.\LED_Matrix.c **** 	drawFastVLine(x0+4,y0+6,5,c,matrix);
 2810              		.loc 1 363 0
 2811 0088 0094     		str	r4, [sp]
 2812 008a 381C     		mov	r0, r7
 2813 008c 291C     		mov	r1, r5
 2814 008e 0522     		mov	r2, #5
 2815 0090 039B     		ldr	r3, [sp, #12]
 2816 0092 FFF7FEFF 		bl	drawFastVLine
 2817              	.LVL264:
 364:.\LED_Matrix.c **** }
 2818              		.loc 1 364 0
 2819 0096 05B0     		add	sp, sp, #20
 2820              		@ sp needed for prologue
 2821              	.LVL265:
 2822              	.LVL266:
ARM GAS  C:\Users\Steve\AppData\Local\Temp\ccwjFJAL.s 			page 62


 2823 0098 0CBC     		pop	{r2, r3}
 2824 009a 9046     		mov	r8, r2
 2825 009c 9946     		mov	r9, r3
 2826 009e F0BD     		pop	{r4, r5, r6, r7, pc}
 2827              		.cfi_endproc
 2828              	.LFE53:
 2829              		.size	drawEight, .-drawEight
 2830              		.section	.text.drawNine,"ax",%progbits
 2831              		.align	2
 2832              		.global	drawNine
 2833              		.code	16
 2834              		.thumb_func
 2835              		.type	drawNine, %function
 2836              	drawNine:
 2837              	.LFB54:
 365:.\LED_Matrix.c **** void drawNine(int8 x0, int8 y0,RGB c, color *matrix)
 366:.\LED_Matrix.c **** {
 2838              		.loc 1 366 0
 2839              		.cfi_startproc
 2840              	.LVL267:
 2841 0000 F0B5     		push	{r4, r5, r6, r7, lr}
 2842              	.LCFI50:
 2843              		.cfi_def_cfa_offset 20
 2844              		.cfi_offset 4, -20
 2845              		.cfi_offset 5, -16
 2846              		.cfi_offset 6, -12
 2847              		.cfi_offset 7, -8
 2848              		.cfi_offset 14, -4
 2849 0002 4746     		mov	r7, r8
 2850 0004 80B4     		push	{r7}
 2851              	.LCFI51:
 2852              		.cfi_def_cfa_offset 24
 2853              		.cfi_offset 8, -24
 367:.\LED_Matrix.c **** 	drawFastHLine(x0+1,y0,3,c,matrix);
 2854              		.loc 1 367 0
 2855 0006 C6B2     		uxtb	r6, r0
 366:.\LED_Matrix.c **** {
 2856              		.loc 1 366 0
 2857 0008 84B0     		sub	sp, sp, #16
 2858              	.LCFI52:
 2859              		.cfi_def_cfa_offset 40
 366:.\LED_Matrix.c **** {
 2860              		.loc 1 366 0
 2861 000a 9446     		mov	ip, r2
 2862 000c 1C1C     		mov	r4, r3
 2863 000e 0D1C     		mov	r5, r1
 2864              		.loc 1 367 0
 2865 0010 731C     		add	r3, r6, #1
 2866              	.LVL268:
 366:.\LED_Matrix.c **** {
 2867              		.loc 1 366 0
 2868 0012 071C     		mov	r7, r0
 2869 0014 0392     		str	r2, [sp, #12]
 2870              		.loc 1 367 0
 2871 0016 58B2     		sxtb	r0, r3
 2872              	.LVL269:
 2873 0018 0094     		str	r4, [sp]
ARM GAS  C:\Users\Steve\AppData\Local\Temp\ccwjFJAL.s 			page 63


 2874 001a 6346     		mov	r3, ip
 2875 001c 0322     		mov	r2, #3
 368:.\LED_Matrix.c **** 	drawFastHLine(x0+1,y0+5,3,c,matrix);
 2876              		.loc 1 368 0
 2877 001e EDB2     		uxtb	r5, r5
 367:.\LED_Matrix.c **** 	drawFastHLine(x0+1,y0,3,c,matrix);
 2878              		.loc 1 367 0
 2879 0020 8046     		mov	r8, r0
 2880 0022 FFF7FEFF 		bl	drawFastHLine
 2881              	.LVL270:
 2882              		.loc 1 368 0
 2883 0026 691D     		add	r1, r5, #5
 369:.\LED_Matrix.c **** 	drawFastVLine(x0,y0+1,4,c,matrix);
 2884              		.loc 1 369 0
 2885 0028 0135     		add	r5, r5, #1
 368:.\LED_Matrix.c **** 	drawFastHLine(x0+1,y0+5,3,c,matrix);
 2886              		.loc 1 368 0
 2887 002a 4046     		mov	r0, r8
 2888 002c 039B     		ldr	r3, [sp, #12]
 2889              		.loc 1 369 0
 2890 002e 6DB2     		sxtb	r5, r5
 368:.\LED_Matrix.c **** 	drawFastHLine(x0+1,y0+5,3,c,matrix);
 2891              		.loc 1 368 0
 2892 0030 49B2     		sxtb	r1, r1
 2893 0032 0094     		str	r4, [sp]
 2894 0034 0322     		mov	r2, #3
 2895 0036 FFF7FEFF 		bl	drawFastHLine
 2896              	.LVL271:
 370:.\LED_Matrix.c **** 	drawFastVLine(x0+4,y0+1,11,c,matrix);
 2897              		.loc 1 370 0
 2898 003a 0436     		add	r6, r6, #4
 2899              	.LVL272:
 369:.\LED_Matrix.c **** 	drawFastVLine(x0,y0+1,4,c,matrix);
 2900              		.loc 1 369 0
 2901 003c 381C     		mov	r0, r7
 2902 003e 291C     		mov	r1, r5
 2903 0040 039B     		ldr	r3, [sp, #12]
 2904 0042 0094     		str	r4, [sp]
 2905 0044 0422     		mov	r2, #4
 2906 0046 FFF7FEFF 		bl	drawFastVLine
 2907              	.LVL273:
 2908              		.loc 1 370 0
 2909 004a 70B2     		sxtb	r0, r6
 2910 004c 0094     		str	r4, [sp]
 2911 004e 291C     		mov	r1, r5
 2912 0050 0B22     		mov	r2, #11
 2913 0052 039B     		ldr	r3, [sp, #12]
 2914 0054 FFF7FEFF 		bl	drawFastVLine
 2915              	.LVL274:
 371:.\LED_Matrix.c **** }
 2916              		.loc 1 371 0
 2917 0058 04B0     		add	sp, sp, #16
 2918              		@ sp needed for prologue
 2919              	.LVL275:
 2920              	.LVL276:
 2921 005a 04BC     		pop	{r2}
 2922 005c 9046     		mov	r8, r2
ARM GAS  C:\Users\Steve\AppData\Local\Temp\ccwjFJAL.s 			page 64


 2923 005e F0BD     		pop	{r4, r5, r6, r7, pc}
 2924              		.cfi_endproc
 2925              	.LFE54:
 2926              		.size	drawNine, .-drawNine
 2927              		.section	.text.drawZero,"ax",%progbits
 2928              		.align	2
 2929              		.global	drawZero
 2930              		.code	16
 2931              		.thumb_func
 2932              		.type	drawZero, %function
 2933              	drawZero:
 2934              	.LFB55:
 372:.\LED_Matrix.c **** void drawZero(int8 x0, int8 y0,RGB c, color *matrix)
 373:.\LED_Matrix.c **** {
 2935              		.loc 1 373 0
 2936              		.cfi_startproc
 2937              	.LVL277:
 2938 0000 F0B5     		push	{r4, r5, r6, r7, lr}
 2939              	.LCFI53:
 2940              		.cfi_def_cfa_offset 20
 2941              		.cfi_offset 4, -20
 2942              		.cfi_offset 5, -16
 2943              		.cfi_offset 6, -12
 2944              		.cfi_offset 7, -8
 2945              		.cfi_offset 14, -4
 2946 0002 4746     		mov	r7, r8
 2947 0004 80B4     		push	{r7}
 2948              	.LCFI54:
 2949              		.cfi_def_cfa_offset 24
 2950              		.cfi_offset 8, -24
 374:.\LED_Matrix.c **** 	drawFastHLine(x0+1,y0,3,c,matrix);
 2951              		.loc 1 374 0
 2952 0006 C6B2     		uxtb	r6, r0
 373:.\LED_Matrix.c **** {
 2953              		.loc 1 373 0
 2954 0008 84B0     		sub	sp, sp, #16
 2955              	.LCFI55:
 2956              		.cfi_def_cfa_offset 40
 373:.\LED_Matrix.c **** {
 2957              		.loc 1 373 0
 2958 000a 9446     		mov	ip, r2
 2959 000c 1C1C     		mov	r4, r3
 2960 000e 0D1C     		mov	r5, r1
 2961              		.loc 1 374 0
 2962 0010 731C     		add	r3, r6, #1
 2963              	.LVL278:
 373:.\LED_Matrix.c **** {
 2964              		.loc 1 373 0
 2965 0012 071C     		mov	r7, r0
 2966 0014 0392     		str	r2, [sp, #12]
 2967              		.loc 1 374 0
 2968 0016 58B2     		sxtb	r0, r3
 2969              	.LVL279:
 2970 0018 0094     		str	r4, [sp]
 2971 001a 6346     		mov	r3, ip
 2972 001c 0322     		mov	r2, #3
 375:.\LED_Matrix.c **** 	drawFastHLine(x0+1,y0+11,3,c,matrix);
ARM GAS  C:\Users\Steve\AppData\Local\Temp\ccwjFJAL.s 			page 65


 2973              		.loc 1 375 0
 2974 001e EDB2     		uxtb	r5, r5
 374:.\LED_Matrix.c **** 	drawFastHLine(x0+1,y0,3,c,matrix);
 2975              		.loc 1 374 0
 2976 0020 8046     		mov	r8, r0
 2977 0022 FFF7FEFF 		bl	drawFastHLine
 2978              	.LVL280:
 2979              		.loc 1 375 0
 2980 0026 291C     		mov	r1, r5
 2981 0028 0B31     		add	r1, r1, #11
 376:.\LED_Matrix.c **** 	drawFastVLine(x0,y0+1,10,c,matrix);
 2982              		.loc 1 376 0
 2983 002a 0135     		add	r5, r5, #1
 375:.\LED_Matrix.c **** 	drawFastHLine(x0+1,y0+11,3,c,matrix);
 2984              		.loc 1 375 0
 2985 002c 4046     		mov	r0, r8
 2986 002e 039B     		ldr	r3, [sp, #12]
 2987              		.loc 1 376 0
 2988 0030 6DB2     		sxtb	r5, r5
 375:.\LED_Matrix.c **** 	drawFastHLine(x0+1,y0+11,3,c,matrix);
 2989              		.loc 1 375 0
 2990 0032 49B2     		sxtb	r1, r1
 2991 0034 0094     		str	r4, [sp]
 2992 0036 0322     		mov	r2, #3
 2993 0038 FFF7FEFF 		bl	drawFastHLine
 2994              	.LVL281:
 377:.\LED_Matrix.c **** 	drawFastVLine(x0+4,y0+1,10,c,matrix);
 2995              		.loc 1 377 0
 2996 003c 0436     		add	r6, r6, #4
 2997              	.LVL282:
 376:.\LED_Matrix.c **** 	drawFastVLine(x0,y0+1,10,c,matrix);
 2998              		.loc 1 376 0
 2999 003e 381C     		mov	r0, r7
 3000 0040 291C     		mov	r1, r5
 3001 0042 039B     		ldr	r3, [sp, #12]
 3002 0044 0094     		str	r4, [sp]
 3003 0046 0A22     		mov	r2, #10
 3004 0048 FFF7FEFF 		bl	drawFastVLine
 3005              	.LVL283:
 3006              		.loc 1 377 0
 3007 004c 70B2     		sxtb	r0, r6
 3008 004e 0094     		str	r4, [sp]
 3009 0050 291C     		mov	r1, r5
 3010 0052 0A22     		mov	r2, #10
 3011 0054 039B     		ldr	r3, [sp, #12]
 3012 0056 FFF7FEFF 		bl	drawFastVLine
 3013              	.LVL284:
 378:.\LED_Matrix.c **** }
 3014              		.loc 1 378 0
 3015 005a 04B0     		add	sp, sp, #16
 3016              		@ sp needed for prologue
 3017              	.LVL285:
 3018              	.LVL286:
 3019 005c 04BC     		pop	{r2}
 3020 005e 9046     		mov	r8, r2
 3021 0060 F0BD     		pop	{r4, r5, r6, r7, pc}
 3022              		.cfi_endproc
ARM GAS  C:\Users\Steve\AppData\Local\Temp\ccwjFJAL.s 			page 66


 3023              	.LFE55:
 3024              		.size	drawZero, .-drawZero
 3025              		.text
 3026              	.Letext0:
 3027              		.file 2 "c:\\program files (x86)\\cypress\\psoc creator\\3.0\\psoc creator\\import\\gnu_cs\\arm\\4
 3028              		.file 3 "./Generated_Source/PSoC4/cytypes.h"
 3029              		.file 4 "./LED_Matrix.h"
 3030              		.section	.debug_info,"",%progbits
 3031              	.Ldebug_info0:
 3032 0000 C4170000 		.4byte	0x17c4
 3033 0004 0200     		.2byte	0x2
 3034 0006 00000000 		.4byte	.Ldebug_abbrev0
 3035 000a 04       		.byte	0x4
 3036 000b 01       		.uleb128 0x1
 3037 000c 90010000 		.4byte	.LASF49
 3038 0010 01       		.byte	0x1
 3039 0011 09000000 		.4byte	.LASF50
 3040 0015 F1000000 		.4byte	.LASF51
 3041 0019 00000000 		.4byte	.Ldebug_ranges0+0
 3042 001d 00000000 		.4byte	0
 3043 0021 00000000 		.4byte	0
 3044 0025 00000000 		.4byte	.Ldebug_line0
 3045 0029 02       		.uleb128 0x2
 3046 002a 01       		.byte	0x1
 3047 002b 06       		.byte	0x6
 3048 002c 40000000 		.4byte	.LASF0
 3049 0030 02       		.uleb128 0x2
 3050 0031 01       		.byte	0x1
 3051 0032 08       		.byte	0x8
 3052 0033 E6010000 		.4byte	.LASF1
 3053 0037 03       		.uleb128 0x3
 3054 0038 2A000000 		.4byte	.LASF9
 3055 003c 02       		.byte	0x2
 3056 003d 35       		.byte	0x35
 3057 003e 42000000 		.4byte	0x42
 3058 0042 02       		.uleb128 0x2
 3059 0043 02       		.byte	0x2
 3060 0044 05       		.byte	0x5
 3061 0045 F4010000 		.4byte	.LASF2
 3062 0049 02       		.uleb128 0x2
 3063 004a 02       		.byte	0x2
 3064 004b 07       		.byte	0x7
 3065 004c 2C010000 		.4byte	.LASF3
 3066 0050 02       		.uleb128 0x2
 3067 0051 04       		.byte	0x4
 3068 0052 05       		.byte	0x5
 3069 0053 6D000000 		.4byte	.LASF4
 3070 0057 02       		.uleb128 0x2
 3071 0058 04       		.byte	0x4
 3072 0059 07       		.byte	0x7
 3073 005a C2000000 		.4byte	.LASF5
 3074 005e 02       		.uleb128 0x2
 3075 005f 08       		.byte	0x8
 3076 0060 05       		.byte	0x5
 3077 0061 32000000 		.4byte	.LASF6
 3078 0065 02       		.uleb128 0x2
 3079 0066 08       		.byte	0x8
ARM GAS  C:\Users\Steve\AppData\Local\Temp\ccwjFJAL.s 			page 67


 3080 0067 07       		.byte	0x7
 3081 0068 4C000000 		.4byte	.LASF7
 3082 006c 04       		.uleb128 0x4
 3083 006d 04       		.byte	0x4
 3084 006e 05       		.byte	0x5
 3085 006f 696E7400 		.ascii	"int\000"
 3086 0073 02       		.uleb128 0x2
 3087 0074 04       		.byte	0x4
 3088 0075 07       		.byte	0x7
 3089 0076 B5000000 		.4byte	.LASF8
 3090 007a 03       		.uleb128 0x3
 3091 007b 76000000 		.4byte	.LASF10
 3092 007f 03       		.byte	0x3
 3093 0080 5B       		.byte	0x5b
 3094 0081 30000000 		.4byte	0x30
 3095 0085 03       		.uleb128 0x3
 3096 0086 3F010000 		.4byte	.LASF11
 3097 008a 03       		.byte	0x3
 3098 008b 5E       		.byte	0x5e
 3099 008c 29000000 		.4byte	0x29
 3100 0090 02       		.uleb128 0x2
 3101 0091 04       		.byte	0x4
 3102 0092 04       		.byte	0x4
 3103 0093 7F010000 		.4byte	.LASF12
 3104 0097 02       		.uleb128 0x2
 3105 0098 08       		.byte	0x8
 3106 0099 04       		.byte	0x4
 3107 009a 90000000 		.4byte	.LASF13
 3108 009e 02       		.uleb128 0x2
 3109 009f 01       		.byte	0x1
 3110 00a0 08       		.byte	0x8
 3111 00a1 29020000 		.4byte	.LASF14
 3112 00a5 02       		.uleb128 0x2
 3113 00a6 04       		.byte	0x4
 3114 00a7 07       		.byte	0x7
 3115 00a8 58010000 		.4byte	.LASF15
 3116 00ac 05       		.uleb128 0x5
 3117 00ad 0F       		.byte	0xf
 3118 00ae 04       		.byte	0x4
 3119 00af 26       		.byte	0x26
 3120 00b0 D9000000 		.4byte	0xd9
 3121 00b4 06       		.uleb128 0x6
 3122 00b5 7200     		.ascii	"r\000"
 3123 00b7 04       		.byte	0x4
 3124 00b8 28       		.byte	0x28
 3125 00b9 D9000000 		.4byte	0xd9
 3126 00bd 02       		.byte	0x2
 3127 00be 23       		.byte	0x23
 3128 00bf 00       		.uleb128 0
 3129 00c0 06       		.uleb128 0x6
 3130 00c1 6700     		.ascii	"g\000"
 3131 00c3 04       		.byte	0x4
 3132 00c4 29       		.byte	0x29
 3133 00c5 D9000000 		.4byte	0xd9
 3134 00c9 02       		.byte	0x2
 3135 00ca 23       		.byte	0x23
 3136 00cb 05       		.uleb128 0x5
ARM GAS  C:\Users\Steve\AppData\Local\Temp\ccwjFJAL.s 			page 68


 3137 00cc 06       		.uleb128 0x6
 3138 00cd 6200     		.ascii	"b\000"
 3139 00cf 04       		.byte	0x4
 3140 00d0 2A       		.byte	0x2a
 3141 00d1 D9000000 		.4byte	0xd9
 3142 00d5 02       		.byte	0x2
 3143 00d6 23       		.byte	0x23
 3144 00d7 0A       		.uleb128 0xa
 3145 00d8 00       		.byte	0
 3146 00d9 07       		.uleb128 0x7
 3147 00da 7A000000 		.4byte	0x7a
 3148 00de E9000000 		.4byte	0xe9
 3149 00e2 08       		.uleb128 0x8
 3150 00e3 A5000000 		.4byte	0xa5
 3151 00e7 04       		.byte	0x4
 3152 00e8 00       		.byte	0
 3153 00e9 03       		.uleb128 0x3
 3154 00ea 23020000 		.4byte	.LASF16
 3155 00ee 04       		.byte	0x4
 3156 00ef 2B       		.byte	0x2b
 3157 00f0 AC000000 		.4byte	0xac
 3158 00f4 05       		.uleb128 0x5
 3159 00f5 03       		.byte	0x3
 3160 00f6 04       		.byte	0x4
 3161 00f7 2E       		.byte	0x2e
 3162 00f8 21010000 		.4byte	0x121
 3163 00fc 06       		.uleb128 0x6
 3164 00fd 7200     		.ascii	"r\000"
 3165 00ff 04       		.byte	0x4
 3166 0100 30       		.byte	0x30
 3167 0101 7A000000 		.4byte	0x7a
 3168 0105 02       		.byte	0x2
 3169 0106 23       		.byte	0x23
 3170 0107 00       		.uleb128 0
 3171 0108 06       		.uleb128 0x6
 3172 0109 6700     		.ascii	"g\000"
 3173 010b 04       		.byte	0x4
 3174 010c 31       		.byte	0x31
 3175 010d 7A000000 		.4byte	0x7a
 3176 0111 02       		.byte	0x2
 3177 0112 23       		.byte	0x23
 3178 0113 01       		.uleb128 0x1
 3179 0114 06       		.uleb128 0x6
 3180 0115 6200     		.ascii	"b\000"
 3181 0117 04       		.byte	0x4
 3182 0118 32       		.byte	0x32
 3183 0119 7A000000 		.4byte	0x7a
 3184 011d 02       		.byte	0x2
 3185 011e 23       		.byte	0x23
 3186 011f 02       		.uleb128 0x2
 3187 0120 00       		.byte	0
 3188 0121 09       		.uleb128 0x9
 3189 0122 52474200 		.ascii	"RGB\000"
 3190 0126 04       		.byte	0x4
 3191 0127 33       		.byte	0x33
 3192 0128 F4000000 		.4byte	0xf4
 3193 012c 0A       		.uleb128 0xa
ARM GAS  C:\Users\Steve\AppData\Local\Temp\ccwjFJAL.s 			page 69


 3194 012d 01       		.byte	0x1
 3195 012e 2E020000 		.4byte	.LASF22
 3196 0132 01       		.byte	0x1
 3197 0133 5A       		.byte	0x5a
 3198 0134 01       		.byte	0x1
 3199 0135 00000000 		.4byte	.LFB34
 3200 0139 78000000 		.4byte	.LFE34
 3201 013d 00000000 		.4byte	.LLST0
 3202 0141 01       		.byte	0x1
 3203 0142 B9010000 		.4byte	0x1b9
 3204 0146 0B       		.uleb128 0xb
 3205 0147 7800     		.ascii	"x\000"
 3206 0149 01       		.byte	0x1
 3207 014a 5A       		.byte	0x5a
 3208 014b 7A000000 		.4byte	0x7a
 3209 014f 20000000 		.4byte	.LLST1
 3210 0153 0B       		.uleb128 0xb
 3211 0154 7900     		.ascii	"y\000"
 3212 0156 01       		.byte	0x1
 3213 0157 5A       		.byte	0x5a
 3214 0158 7A000000 		.4byte	0x7a
 3215 015c 41000000 		.4byte	.LLST2
 3216 0160 0C       		.uleb128 0xc
 3217 0161 A0000000 		.4byte	.LASF17
 3218 0165 01       		.byte	0x1
 3219 0166 5A       		.byte	0x5a
 3220 0167 B9010000 		.4byte	0x1b9
 3221 016b 62000000 		.4byte	.LLST3
 3222 016f 0D       		.uleb128 0xd
 3223 0170 6900     		.ascii	"i\000"
 3224 0172 01       		.byte	0x1
 3225 0173 5C       		.byte	0x5c
 3226 0174 7A000000 		.4byte	0x7a
 3227 0178 83000000 		.4byte	.LLST4
 3228 017c 0E       		.uleb128 0xe
 3229 017d 39020000 		.4byte	.LASF18
 3230 0181 01       		.byte	0x1
 3231 0182 5C       		.byte	0x5c
 3232 0183 7A000000 		.4byte	0x7a
 3233 0187 D3000000 		.4byte	.LLST5
 3234 018b 0E       		.uleb128 0xe
 3235 018c 47020000 		.4byte	.LASF19
 3236 0190 01       		.byte	0x1
 3237 0191 5D       		.byte	0x5d
 3238 0192 7A000000 		.4byte	0x7a
 3239 0196 EF000000 		.4byte	.LLST6
 3240 019a 0E       		.uleb128 0xe
 3241 019b 50020000 		.4byte	.LASF20
 3242 019f 01       		.byte	0x1
 3243 01a0 5E       		.byte	0x5e
 3244 01a1 7A000000 		.4byte	0x7a
 3245 01a5 06010000 		.4byte	.LLST7
 3246 01a9 0E       		.uleb128 0xe
 3247 01aa 59020000 		.4byte	.LASF21
 3248 01ae 01       		.byte	0x1
 3249 01af 5F       		.byte	0x5f
 3250 01b0 7A000000 		.4byte	0x7a
ARM GAS  C:\Users\Steve\AppData\Local\Temp\ccwjFJAL.s 			page 70


 3251 01b4 1D010000 		.4byte	.LLST8
 3252 01b8 00       		.byte	0
 3253 01b9 0F       		.uleb128 0xf
 3254 01ba 04       		.byte	0x4
 3255 01bb E9000000 		.4byte	0xe9
 3256 01bf 0A       		.uleb128 0xa
 3257 01c0 01       		.byte	0x1
 3258 01c1 75010000 		.4byte	.LASF23
 3259 01c5 01       		.byte	0x1
 3260 01c6 29       		.byte	0x29
 3261 01c7 01       		.byte	0x1
 3262 01c8 00000000 		.4byte	.LFB33
 3263 01cc E8000000 		.4byte	.LFE33
 3264 01d0 34010000 		.4byte	.LLST9
 3265 01d4 01       		.byte	0x1
 3266 01d5 6E020000 		.4byte	0x26e
 3267 01d9 0B       		.uleb128 0xb
 3268 01da 7800     		.ascii	"x\000"
 3269 01dc 01       		.byte	0x1
 3270 01dd 29       		.byte	0x29
 3271 01de 7A000000 		.4byte	0x7a
 3272 01e2 60010000 		.4byte	.LLST10
 3273 01e6 0B       		.uleb128 0xb
 3274 01e7 7900     		.ascii	"y\000"
 3275 01e9 01       		.byte	0x1
 3276 01ea 29       		.byte	0x29
 3277 01eb 7A000000 		.4byte	0x7a
 3278 01ef 81010000 		.4byte	.LLST11
 3279 01f3 10       		.uleb128 0x10
 3280 01f4 6300     		.ascii	"c\000"
 3281 01f6 01       		.byte	0x1
 3282 01f7 29       		.byte	0x29
 3283 01f8 21010000 		.4byte	0x121
 3284 01fc 02       		.byte	0x2
 3285 01fd 91       		.byte	0x91
 3286 01fe 64       		.sleb128 -28
 3287 01ff 0C       		.uleb128 0xc
 3288 0200 A0000000 		.4byte	.LASF17
 3289 0204 01       		.byte	0x1
 3290 0205 29       		.byte	0x29
 3291 0206 B9010000 		.4byte	0x1b9
 3292 020a A2010000 		.4byte	.LLST12
 3293 020e 0D       		.uleb128 0xd
 3294 020f 6900     		.ascii	"i\000"
 3295 0211 01       		.byte	0x1
 3296 0212 2F       		.byte	0x2f
 3297 0213 7A000000 		.4byte	0x7a
 3298 0217 CE010000 		.4byte	.LLST13
 3299 021b 0E       		.uleb128 0xe
 3300 021c 39020000 		.4byte	.LASF18
 3301 0220 01       		.byte	0x1
 3302 0221 2F       		.byte	0x2f
 3303 0222 7A000000 		.4byte	0x7a
 3304 0226 1E020000 		.4byte	.LLST14
 3305 022a 0E       		.uleb128 0xe
 3306 022b 47020000 		.4byte	.LASF19
 3307 022f 01       		.byte	0x1
ARM GAS  C:\Users\Steve\AppData\Local\Temp\ccwjFJAL.s 			page 71


 3308 0230 35       		.byte	0x35
 3309 0231 7A000000 		.4byte	0x7a
 3310 0235 3C020000 		.4byte	.LLST15
 3311 0239 0E       		.uleb128 0xe
 3312 023a 50020000 		.4byte	.LASF20
 3313 023e 01       		.byte	0x1
 3314 023f 3B       		.byte	0x3b
 3315 0240 7A000000 		.4byte	0x7a
 3316 0244 53020000 		.4byte	.LLST16
 3317 0248 0E       		.uleb128 0xe
 3318 0249 59020000 		.4byte	.LASF21
 3319 024d 01       		.byte	0x1
 3320 024e 3C       		.byte	0x3c
 3321 024f 7A000000 		.4byte	0x7a
 3322 0253 79020000 		.4byte	.LLST17
 3323 0257 11       		.uleb128 0x11
 3324 0258 1A000000 		.4byte	.LVL14
 3325 025c 2C010000 		.4byte	0x12c
 3326 0260 12       		.uleb128 0x12
 3327 0261 01       		.byte	0x1
 3328 0262 52       		.byte	0x52
 3329 0263 02       		.byte	0x2
 3330 0264 76       		.byte	0x76
 3331 0265 00       		.sleb128 0
 3332 0266 12       		.uleb128 0x12
 3333 0267 01       		.byte	0x1
 3334 0268 50       		.byte	0x50
 3335 0269 02       		.byte	0x2
 3336 026a 74       		.byte	0x74
 3337 026b 00       		.sleb128 0
 3338 026c 00       		.byte	0
 3339 026d 00       		.byte	0
 3340 026e 0A       		.uleb128 0xa
 3341 026f 01       		.byte	0x1
 3342 0270 4C010000 		.4byte	.LASF24
 3343 0274 01       		.byte	0x1
 3344 0275 79       		.byte	0x79
 3345 0276 01       		.byte	0x1
 3346 0277 00000000 		.4byte	.LFB35
 3347 027b 4E000000 		.4byte	.LFE35
 3348 027f 9F020000 		.4byte	.LLST18
 3349 0283 01       		.byte	0x1
 3350 0284 B4020000 		.4byte	0x2b4
 3351 0288 0C       		.uleb128 0xc
 3352 0289 A0000000 		.4byte	.LASF17
 3353 028d 01       		.byte	0x1
 3354 028e 79       		.byte	0x79
 3355 028f B9010000 		.4byte	0x1b9
 3356 0293 BF020000 		.4byte	.LLST19
 3357 0297 0D       		.uleb128 0xd
 3358 0298 7800     		.ascii	"x\000"
 3359 029a 01       		.byte	0x1
 3360 029b 7B       		.byte	0x7b
 3361 029c 7A000000 		.4byte	0x7a
 3362 02a0 E0020000 		.4byte	.LLST20
 3363 02a4 0E       		.uleb128 0xe
 3364 02a5 39020000 		.4byte	.LASF18
ARM GAS  C:\Users\Steve\AppData\Local\Temp\ccwjFJAL.s 			page 72


 3365 02a9 01       		.byte	0x1
 3366 02aa 7B       		.byte	0x7b
 3367 02ab 7A000000 		.4byte	0x7a
 3368 02af 6C030000 		.4byte	.LLST21
 3369 02b3 00       		.byte	0
 3370 02b4 0A       		.uleb128 0xa
 3371 02b5 01       		.byte	0x1
 3372 02b6 85010000 		.4byte	.LASF25
 3373 02ba 01       		.byte	0x1
 3374 02bb 88       		.byte	0x88
 3375 02bc 01       		.byte	0x1
 3376 02bd 00000000 		.4byte	.LFB36
 3377 02c1 5C010000 		.4byte	.LFE36
 3378 02c5 80030000 		.4byte	.LLST22
 3379 02c9 01       		.byte	0x1
 3380 02ca DF040000 		.4byte	0x4df
 3381 02ce 0B       		.uleb128 0xb
 3382 02cf 783000   		.ascii	"x0\000"
 3383 02d2 01       		.byte	0x1
 3384 02d3 88       		.byte	0x88
 3385 02d4 85000000 		.4byte	0x85
 3386 02d8 B9030000 		.4byte	.LLST23
 3387 02dc 0B       		.uleb128 0xb
 3388 02dd 793000   		.ascii	"y0\000"
 3389 02e0 01       		.byte	0x1
 3390 02e1 88       		.byte	0x88
 3391 02e2 85000000 		.4byte	0x85
 3392 02e6 E5030000 		.4byte	.LLST24
 3393 02ea 0B       		.uleb128 0xb
 3394 02eb 7200     		.ascii	"r\000"
 3395 02ed 01       		.byte	0x1
 3396 02ee 88       		.byte	0x88
 3397 02ef 85000000 		.4byte	0x85
 3398 02f3 11040000 		.4byte	.LLST25
 3399 02f7 10       		.uleb128 0x10
 3400 02f8 6300     		.ascii	"c\000"
 3401 02fa 01       		.byte	0x1
 3402 02fb 88       		.byte	0x88
 3403 02fc 21010000 		.4byte	0x121
 3404 0300 02       		.byte	0x2
 3405 0301 91       		.byte	0x91
 3406 0302 54       		.sleb128 -44
 3407 0303 13       		.uleb128 0x13
 3408 0304 A0000000 		.4byte	.LASF17
 3409 0308 01       		.byte	0x1
 3410 0309 88       		.byte	0x88
 3411 030a B9010000 		.4byte	0x1b9
 3412 030e 02       		.byte	0x2
 3413 030f 91       		.byte	0x91
 3414 0310 00       		.sleb128 0
 3415 0311 0D       		.uleb128 0xd
 3416 0312 6600     		.ascii	"f\000"
 3417 0314 01       		.byte	0x1
 3418 0315 89       		.byte	0x89
 3419 0316 85000000 		.4byte	0x85
 3420 031a 32040000 		.4byte	.LLST26
 3421 031e 0E       		.uleb128 0xe
ARM GAS  C:\Users\Steve\AppData\Local\Temp\ccwjFJAL.s 			page 73


 3422 031f E5000000 		.4byte	.LASF26
 3423 0323 01       		.byte	0x1
 3424 0324 8A       		.byte	0x8a
 3425 0325 85000000 		.4byte	0x85
 3426 0329 66040000 		.4byte	.LLST27
 3427 032d 14       		.uleb128 0x14
 3428 032e EB000000 		.4byte	.LASF27
 3429 0332 01       		.byte	0x1
 3430 0333 8B       		.byte	0x8b
 3431 0334 85000000 		.4byte	0x85
 3432 0338 02       		.byte	0x2
 3433 0339 91       		.byte	0x91
 3434 033a 50       		.sleb128 -48
 3435 033b 0D       		.uleb128 0xd
 3436 033c 7800     		.ascii	"x\000"
 3437 033e 01       		.byte	0x1
 3438 033f 8C       		.byte	0x8c
 3439 0340 85000000 		.4byte	0x85
 3440 0344 9C040000 		.4byte	.LLST28
 3441 0348 0D       		.uleb128 0xd
 3442 0349 7900     		.ascii	"y\000"
 3443 034b 01       		.byte	0x1
 3444 034c 8D       		.byte	0x8d
 3445 034d 85000000 		.4byte	0x85
 3446 0351 BC040000 		.4byte	.LLST29
 3447 0355 15       		.uleb128 0x15
 3448 0356 3A000000 		.4byte	.LVL41
 3449 035a BF010000 		.4byte	0x1bf
 3450 035e 78030000 		.4byte	0x378
 3451 0362 12       		.uleb128 0x12
 3452 0363 01       		.byte	0x1
 3453 0364 53       		.byte	0x53
 3454 0365 02       		.byte	0x2
 3455 0366 74       		.byte	0x74
 3456 0367 00       		.sleb128 0
 3457 0368 12       		.uleb128 0x12
 3458 0369 01       		.byte	0x1
 3459 036a 51       		.byte	0x51
 3460 036b 05       		.byte	0x5
 3461 036c 75       		.byte	0x75
 3462 036d 00       		.sleb128 0
 3463 036e 7B       		.byte	0x7b
 3464 036f 00       		.sleb128 0
 3465 0370 22       		.byte	0x22
 3466 0371 12       		.uleb128 0x12
 3467 0372 01       		.byte	0x1
 3468 0373 50       		.byte	0x50
 3469 0374 02       		.byte	0x2
 3470 0375 7A       		.byte	0x7a
 3471 0376 00       		.sleb128 0
 3472 0377 00       		.byte	0
 3473 0378 15       		.uleb128 0x15
 3474 0379 4A000000 		.4byte	.LVL42
 3475 037d BF010000 		.4byte	0x1bf
 3476 0381 9B030000 		.4byte	0x39b
 3477 0385 12       		.uleb128 0x12
 3478 0386 01       		.byte	0x1
ARM GAS  C:\Users\Steve\AppData\Local\Temp\ccwjFJAL.s 			page 74


 3479 0387 53       		.byte	0x53
 3480 0388 02       		.byte	0x2
 3481 0389 74       		.byte	0x74
 3482 038a 00       		.sleb128 0
 3483 038b 12       		.uleb128 0x12
 3484 038c 01       		.byte	0x1
 3485 038d 51       		.byte	0x51
 3486 038e 05       		.byte	0x5
 3487 038f 7B       		.byte	0x7b
 3488 0390 00       		.sleb128 0
 3489 0391 75       		.byte	0x75
 3490 0392 00       		.sleb128 0
 3491 0393 1C       		.byte	0x1c
 3492 0394 12       		.uleb128 0x12
 3493 0395 01       		.byte	0x1
 3494 0396 50       		.byte	0x50
 3495 0397 02       		.byte	0x2
 3496 0398 7A       		.byte	0x7a
 3497 0399 00       		.sleb128 0
 3498 039a 00       		.byte	0
 3499 039b 15       		.uleb128 0x15
 3500 039c 5A000000 		.4byte	.LVL43
 3501 03a0 BF010000 		.4byte	0x1bf
 3502 03a4 BE030000 		.4byte	0x3be
 3503 03a8 12       		.uleb128 0x12
 3504 03a9 01       		.byte	0x1
 3505 03aa 53       		.byte	0x53
 3506 03ab 02       		.byte	0x2
 3507 03ac 74       		.byte	0x74
 3508 03ad 00       		.sleb128 0
 3509 03ae 12       		.uleb128 0x12
 3510 03af 01       		.byte	0x1
 3511 03b0 51       		.byte	0x51
 3512 03b1 02       		.byte	0x2
 3513 03b2 7B       		.byte	0x7b
 3514 03b3 00       		.sleb128 0
 3515 03b4 12       		.uleb128 0x12
 3516 03b5 01       		.byte	0x1
 3517 03b6 50       		.byte	0x50
 3518 03b7 05       		.byte	0x5
 3519 03b8 75       		.byte	0x75
 3520 03b9 00       		.sleb128 0
 3521 03ba 7A       		.byte	0x7a
 3522 03bb 00       		.sleb128 0
 3523 03bc 22       		.byte	0x22
 3524 03bd 00       		.byte	0
 3525 03be 15       		.uleb128 0x15
 3526 03bf 6A000000 		.4byte	.LVL44
 3527 03c3 BF010000 		.4byte	0x1bf
 3528 03c7 DE030000 		.4byte	0x3de
 3529 03cb 12       		.uleb128 0x12
 3530 03cc 01       		.byte	0x1
 3531 03cd 53       		.byte	0x53
 3532 03ce 02       		.byte	0x2
 3533 03cf 74       		.byte	0x74
 3534 03d0 00       		.sleb128 0
 3535 03d1 12       		.uleb128 0x12
ARM GAS  C:\Users\Steve\AppData\Local\Temp\ccwjFJAL.s 			page 75


 3536 03d2 01       		.byte	0x1
 3537 03d3 51       		.byte	0x51
 3538 03d4 02       		.byte	0x2
 3539 03d5 7B       		.byte	0x7b
 3540 03d6 00       		.sleb128 0
 3541 03d7 12       		.uleb128 0x12
 3542 03d8 01       		.byte	0x1
 3543 03d9 50       		.byte	0x50
 3544 03da 02       		.byte	0x2
 3545 03db 75       		.byte	0x75
 3546 03dc 00       		.sleb128 0
 3547 03dd 00       		.byte	0
 3548 03de 15       		.uleb128 0x15
 3549 03df BA000000 		.4byte	.LVL50
 3550 03e3 BF010000 		.4byte	0x1bf
 3551 03e7 00040000 		.4byte	0x400
 3552 03eb 12       		.uleb128 0x12
 3553 03ec 01       		.byte	0x1
 3554 03ed 53       		.byte	0x53
 3555 03ee 02       		.byte	0x2
 3556 03ef 74       		.byte	0x74
 3557 03f0 00       		.sleb128 0
 3558 03f1 12       		.uleb128 0x12
 3559 03f2 01       		.byte	0x1
 3560 03f3 51       		.byte	0x51
 3561 03f4 02       		.byte	0x2
 3562 03f5 78       		.byte	0x78
 3563 03f6 00       		.sleb128 0
 3564 03f7 12       		.uleb128 0x12
 3565 03f8 01       		.byte	0x1
 3566 03f9 50       		.byte	0x50
 3567 03fa 04       		.byte	0x4
 3568 03fb 91       		.byte	0x91
 3569 03fc 48       		.sleb128 -56
 3570 03fd 94       		.byte	0x94
 3571 03fe 01       		.byte	0x1
 3572 03ff 00       		.byte	0
 3573 0400 15       		.uleb128 0x15
 3574 0401 CE000000 		.4byte	.LVL51
 3575 0405 BF010000 		.4byte	0x1bf
 3576 0409 20040000 		.4byte	0x420
 3577 040d 12       		.uleb128 0x12
 3578 040e 01       		.byte	0x1
 3579 040f 53       		.byte	0x53
 3580 0410 02       		.byte	0x2
 3581 0411 74       		.byte	0x74
 3582 0412 00       		.sleb128 0
 3583 0413 12       		.uleb128 0x12
 3584 0414 01       		.byte	0x1
 3585 0415 51       		.byte	0x51
 3586 0416 02       		.byte	0x2
 3587 0417 78       		.byte	0x78
 3588 0418 00       		.sleb128 0
 3589 0419 12       		.uleb128 0x12
 3590 041a 01       		.byte	0x1
 3591 041b 50       		.byte	0x50
 3592 041c 02       		.byte	0x2
ARM GAS  C:\Users\Steve\AppData\Local\Temp\ccwjFJAL.s 			page 76


 3593 041d 79       		.byte	0x79
 3594 041e 00       		.sleb128 0
 3595 041f 00       		.byte	0
 3596 0420 15       		.uleb128 0x15
 3597 0421 E2000000 		.4byte	.LVL52
 3598 0425 BF010000 		.4byte	0x1bf
 3599 0429 42040000 		.4byte	0x442
 3600 042d 12       		.uleb128 0x12
 3601 042e 01       		.byte	0x1
 3602 042f 53       		.byte	0x53
 3603 0430 02       		.byte	0x2
 3604 0431 74       		.byte	0x74
 3605 0432 00       		.sleb128 0
 3606 0433 12       		.uleb128 0x12
 3607 0434 01       		.byte	0x1
 3608 0435 51       		.byte	0x51
 3609 0436 02       		.byte	0x2
 3610 0437 78       		.byte	0x78
 3611 0438 00       		.sleb128 0
 3612 0439 12       		.uleb128 0x12
 3613 043a 01       		.byte	0x1
 3614 043b 50       		.byte	0x50
 3615 043c 04       		.byte	0x4
 3616 043d 91       		.byte	0x91
 3617 043e 48       		.sleb128 -56
 3618 043f 94       		.byte	0x94
 3619 0440 01       		.byte	0x1
 3620 0441 00       		.byte	0
 3621 0442 15       		.uleb128 0x15
 3622 0443 EE000000 		.4byte	.LVL53
 3623 0447 BF010000 		.4byte	0x1bf
 3624 044b 62040000 		.4byte	0x462
 3625 044f 12       		.uleb128 0x12
 3626 0450 01       		.byte	0x1
 3627 0451 53       		.byte	0x53
 3628 0452 02       		.byte	0x2
 3629 0453 74       		.byte	0x74
 3630 0454 00       		.sleb128 0
 3631 0455 12       		.uleb128 0x12
 3632 0456 01       		.byte	0x1
 3633 0457 51       		.byte	0x51
 3634 0458 02       		.byte	0x2
 3635 0459 78       		.byte	0x78
 3636 045a 00       		.sleb128 0
 3637 045b 12       		.uleb128 0x12
 3638 045c 01       		.byte	0x1
 3639 045d 50       		.byte	0x50
 3640 045e 02       		.byte	0x2
 3641 045f 79       		.byte	0x79
 3642 0460 00       		.sleb128 0
 3643 0461 00       		.byte	0
 3644 0462 15       		.uleb128 0x15
 3645 0463 0A010000 		.4byte	.LVL54
 3646 0467 BF010000 		.4byte	0x1bf
 3647 046b 82040000 		.4byte	0x482
 3648 046f 12       		.uleb128 0x12
 3649 0470 01       		.byte	0x1
ARM GAS  C:\Users\Steve\AppData\Local\Temp\ccwjFJAL.s 			page 77


 3650 0471 53       		.byte	0x53
 3651 0472 02       		.byte	0x2
 3652 0473 74       		.byte	0x74
 3653 0474 00       		.sleb128 0
 3654 0475 12       		.uleb128 0x12
 3655 0476 01       		.byte	0x1
 3656 0477 51       		.byte	0x51
 3657 0478 02       		.byte	0x2
 3658 0479 79       		.byte	0x79
 3659 047a 00       		.sleb128 0
 3660 047b 12       		.uleb128 0x12
 3661 047c 01       		.byte	0x1
 3662 047d 50       		.byte	0x50
 3663 047e 02       		.byte	0x2
 3664 047f 78       		.byte	0x78
 3665 0480 00       		.sleb128 0
 3666 0481 00       		.byte	0
 3667 0482 15       		.uleb128 0x15
 3668 0483 1C010000 		.4byte	.LVL55
 3669 0487 BF010000 		.4byte	0x1bf
 3670 048b A2040000 		.4byte	0x4a2
 3671 048f 12       		.uleb128 0x12
 3672 0490 01       		.byte	0x1
 3673 0491 53       		.byte	0x53
 3674 0492 02       		.byte	0x2
 3675 0493 74       		.byte	0x74
 3676 0494 00       		.sleb128 0
 3677 0495 12       		.uleb128 0x12
 3678 0496 01       		.byte	0x1
 3679 0497 51       		.byte	0x51
 3680 0498 02       		.byte	0x2
 3681 0499 79       		.byte	0x79
 3682 049a 00       		.sleb128 0
 3683 049b 12       		.uleb128 0x12
 3684 049c 01       		.byte	0x1
 3685 049d 50       		.byte	0x50
 3686 049e 02       		.byte	0x2
 3687 049f 76       		.byte	0x76
 3688 04a0 00       		.sleb128 0
 3689 04a1 00       		.byte	0
 3690 04a2 15       		.uleb128 0x15
 3691 04a3 30010000 		.4byte	.LVL56
 3692 04a7 BF010000 		.4byte	0x1bf
 3693 04ab C2040000 		.4byte	0x4c2
 3694 04af 12       		.uleb128 0x12
 3695 04b0 01       		.byte	0x1
 3696 04b1 53       		.byte	0x53
 3697 04b2 02       		.byte	0x2
 3698 04b3 74       		.byte	0x74
 3699 04b4 00       		.sleb128 0
 3700 04b5 12       		.uleb128 0x12
 3701 04b6 01       		.byte	0x1
 3702 04b7 51       		.byte	0x51
 3703 04b8 02       		.byte	0x2
 3704 04b9 79       		.byte	0x79
 3705 04ba 00       		.sleb128 0
 3706 04bb 12       		.uleb128 0x12
ARM GAS  C:\Users\Steve\AppData\Local\Temp\ccwjFJAL.s 			page 78


 3707 04bc 01       		.byte	0x1
 3708 04bd 50       		.byte	0x50
 3709 04be 02       		.byte	0x2
 3710 04bf 78       		.byte	0x78
 3711 04c0 00       		.sleb128 0
 3712 04c1 00       		.byte	0
 3713 04c2 11       		.uleb128 0x11
 3714 04c3 3C010000 		.4byte	.LVL57
 3715 04c7 BF010000 		.4byte	0x1bf
 3716 04cb 12       		.uleb128 0x12
 3717 04cc 01       		.byte	0x1
 3718 04cd 53       		.byte	0x53
 3719 04ce 02       		.byte	0x2
 3720 04cf 74       		.byte	0x74
 3721 04d0 00       		.sleb128 0
 3722 04d1 12       		.uleb128 0x12
 3723 04d2 01       		.byte	0x1
 3724 04d3 51       		.byte	0x51
 3725 04d4 02       		.byte	0x2
 3726 04d5 79       		.byte	0x79
 3727 04d6 00       		.sleb128 0
 3728 04d7 12       		.uleb128 0x12
 3729 04d8 01       		.byte	0x1
 3730 04d9 50       		.byte	0x50
 3731 04da 02       		.byte	0x2
 3732 04db 76       		.byte	0x76
 3733 04dc 00       		.sleb128 0
 3734 04dd 00       		.byte	0
 3735 04de 00       		.byte	0
 3736 04df 0A       		.uleb128 0xa
 3737 04e0 01       		.byte	0x1
 3738 04e1 D4000000 		.4byte	.LASF28
 3739 04e5 01       		.byte	0x1
 3740 04e6 AC       		.byte	0xac
 3741 04e7 01       		.byte	0x1
 3742 04e8 00000000 		.4byte	.LFB37
 3743 04ec 76010000 		.4byte	.LFE37
 3744 04f0 DB040000 		.4byte	.LLST30
 3745 04f4 01       		.byte	0x1
 3746 04f5 BC060000 		.4byte	0x6bc
 3747 04f9 0B       		.uleb128 0xb
 3748 04fa 783000   		.ascii	"x0\000"
 3749 04fd 01       		.byte	0x1
 3750 04fe AC       		.byte	0xac
 3751 04ff 85000000 		.4byte	0x85
 3752 0503 14050000 		.4byte	.LLST31
 3753 0507 0B       		.uleb128 0xb
 3754 0508 793000   		.ascii	"y0\000"
 3755 050b 01       		.byte	0x1
 3756 050c AC       		.byte	0xac
 3757 050d 85000000 		.4byte	0x85
 3758 0511 40050000 		.4byte	.LLST32
 3759 0515 0B       		.uleb128 0xb
 3760 0516 7200     		.ascii	"r\000"
 3761 0518 01       		.byte	0x1
 3762 0519 AC       		.byte	0xac
 3763 051a 85000000 		.4byte	0x85
ARM GAS  C:\Users\Steve\AppData\Local\Temp\ccwjFJAL.s 			page 79


 3764 051e 6C050000 		.4byte	.LLST33
 3765 0522 0C       		.uleb128 0xc
 3766 0523 0F020000 		.4byte	.LASF29
 3767 0527 01       		.byte	0x1
 3768 0528 AC       		.byte	0xac
 3769 0529 85000000 		.4byte	0x85
 3770 052d 8D050000 		.4byte	.LLST34
 3771 0531 10       		.uleb128 0x10
 3772 0532 6300     		.ascii	"c\000"
 3773 0534 01       		.byte	0x1
 3774 0535 AC       		.byte	0xac
 3775 0536 21010000 		.4byte	0x121
 3776 053a 02       		.byte	0x2
 3777 053b 91       		.byte	0x91
 3778 053c 00       		.sleb128 0
 3779 053d 13       		.uleb128 0x13
 3780 053e A0000000 		.4byte	.LASF17
 3781 0542 01       		.byte	0x1
 3782 0543 AC       		.byte	0xac
 3783 0544 B9010000 		.4byte	0x1b9
 3784 0548 02       		.byte	0x2
 3785 0549 91       		.byte	0x91
 3786 054a 04       		.sleb128 4
 3787 054b 0D       		.uleb128 0xd
 3788 054c 6600     		.ascii	"f\000"
 3789 054e 01       		.byte	0x1
 3790 054f AD       		.byte	0xad
 3791 0550 85000000 		.4byte	0x85
 3792 0554 AE050000 		.4byte	.LLST35
 3793 0558 0E       		.uleb128 0xe
 3794 0559 E5000000 		.4byte	.LASF26
 3795 055d 01       		.byte	0x1
 3796 055e AE       		.byte	0xae
 3797 055f 85000000 		.4byte	0x85
 3798 0563 03060000 		.4byte	.LLST36
 3799 0567 14       		.uleb128 0x14
 3800 0568 EB000000 		.4byte	.LASF27
 3801 056c 01       		.byte	0x1
 3802 056d AF       		.byte	0xaf
 3803 056e 85000000 		.4byte	0x85
 3804 0572 02       		.byte	0x2
 3805 0573 91       		.byte	0x91
 3806 0574 44       		.sleb128 -60
 3807 0575 0D       		.uleb128 0xd
 3808 0576 7800     		.ascii	"x\000"
 3809 0578 01       		.byte	0x1
 3810 0579 B0       		.byte	0xb0
 3811 057a 85000000 		.4byte	0x85
 3812 057e 5B060000 		.4byte	.LLST37
 3813 0582 0D       		.uleb128 0xd
 3814 0583 7900     		.ascii	"y\000"
 3815 0585 01       		.byte	0x1
 3816 0586 B1       		.byte	0xb1
 3817 0587 85000000 		.4byte	0x85
 3818 058b 9B060000 		.4byte	.LLST38
 3819 058f 15       		.uleb128 0x15
 3820 0590 AE000000 		.4byte	.LVL78
ARM GAS  C:\Users\Steve\AppData\Local\Temp\ccwjFJAL.s 			page 80


 3821 0594 BF010000 		.4byte	0x1bf
 3822 0598 B5050000 		.4byte	0x5b5
 3823 059c 12       		.uleb128 0x12
 3824 059d 01       		.byte	0x1
 3825 059e 53       		.byte	0x53
 3826 059f 02       		.byte	0x2
 3827 05a0 77       		.byte	0x77
 3828 05a1 00       		.sleb128 0
 3829 05a2 12       		.uleb128 0x12
 3830 05a3 01       		.byte	0x1
 3831 05a4 51       		.byte	0x51
 3832 05a5 05       		.byte	0x5
 3833 05a6 7B       		.byte	0x7b
 3834 05a7 00       		.sleb128 0
 3835 05a8 78       		.byte	0x78
 3836 05a9 00       		.sleb128 0
 3837 05aa 22       		.byte	0x22
 3838 05ab 12       		.uleb128 0x12
 3839 05ac 01       		.byte	0x1
 3840 05ad 50       		.byte	0x50
 3841 05ae 05       		.byte	0x5
 3842 05af 79       		.byte	0x79
 3843 05b0 00       		.sleb128 0
 3844 05b1 74       		.byte	0x74
 3845 05b2 00       		.sleb128 0
 3846 05b3 22       		.byte	0x22
 3847 05b4 00       		.byte	0
 3848 05b5 15       		.uleb128 0x15
 3849 05b6 C2000000 		.4byte	.LVL79
 3850 05ba BF010000 		.4byte	0x1bf
 3851 05be DB050000 		.4byte	0x5db
 3852 05c2 12       		.uleb128 0x12
 3853 05c3 01       		.byte	0x1
 3854 05c4 53       		.byte	0x53
 3855 05c5 02       		.byte	0x2
 3856 05c6 77       		.byte	0x77
 3857 05c7 00       		.sleb128 0
 3858 05c8 12       		.uleb128 0x12
 3859 05c9 01       		.byte	0x1
 3860 05ca 51       		.byte	0x51
 3861 05cb 05       		.byte	0x5
 3862 05cc 78       		.byte	0x78
 3863 05cd 00       		.sleb128 0
 3864 05ce 74       		.byte	0x74
 3865 05cf 00       		.sleb128 0
 3866 05d0 22       		.byte	0x22
 3867 05d1 12       		.uleb128 0x12
 3868 05d2 01       		.byte	0x1
 3869 05d3 50       		.byte	0x50
 3870 05d4 05       		.byte	0x5
 3871 05d5 7B       		.byte	0x7b
 3872 05d6 00       		.sleb128 0
 3873 05d7 79       		.byte	0x79
 3874 05d8 00       		.sleb128 0
 3875 05d9 22       		.byte	0x22
 3876 05da 00       		.byte	0
 3877 05db 15       		.uleb128 0x15
ARM GAS  C:\Users\Steve\AppData\Local\Temp\ccwjFJAL.s 			page 81


 3878 05dc E0000000 		.4byte	.LVL80
 3879 05e0 BF010000 		.4byte	0x1bf
 3880 05e4 01060000 		.4byte	0x601
 3881 05e8 12       		.uleb128 0x12
 3882 05e9 01       		.byte	0x1
 3883 05ea 53       		.byte	0x53
 3884 05eb 02       		.byte	0x2
 3885 05ec 77       		.byte	0x77
 3886 05ed 00       		.sleb128 0
 3887 05ee 12       		.uleb128 0x12
 3888 05ef 01       		.byte	0x1
 3889 05f0 51       		.byte	0x51
 3890 05f1 05       		.byte	0x5
 3891 05f2 78       		.byte	0x78
 3892 05f3 00       		.sleb128 0
 3893 05f4 7B       		.byte	0x7b
 3894 05f5 00       		.sleb128 0
 3895 05f6 1C       		.byte	0x1c
 3896 05f7 12       		.uleb128 0x12
 3897 05f8 01       		.byte	0x1
 3898 05f9 50       		.byte	0x50
 3899 05fa 05       		.byte	0x5
 3900 05fb 79       		.byte	0x79
 3901 05fc 00       		.sleb128 0
 3902 05fd 74       		.byte	0x74
 3903 05fe 00       		.sleb128 0
 3904 05ff 22       		.byte	0x22
 3905 0600 00       		.byte	0
 3906 0601 15       		.uleb128 0x15
 3907 0602 F4000000 		.4byte	.LVL81
 3908 0606 BF010000 		.4byte	0x1bf
 3909 060a 27060000 		.4byte	0x627
 3910 060e 12       		.uleb128 0x12
 3911 060f 01       		.byte	0x1
 3912 0610 53       		.byte	0x53
 3913 0611 02       		.byte	0x2
 3914 0612 77       		.byte	0x77
 3915 0613 00       		.sleb128 0
 3916 0614 12       		.uleb128 0x12
 3917 0615 01       		.byte	0x1
 3918 0616 51       		.byte	0x51
 3919 0617 05       		.byte	0x5
 3920 0618 78       		.byte	0x78
 3921 0619 00       		.sleb128 0
 3922 061a 74       		.byte	0x74
 3923 061b 00       		.sleb128 0
 3924 061c 1C       		.byte	0x1c
 3925 061d 12       		.uleb128 0x12
 3926 061e 01       		.byte	0x1
 3927 061f 50       		.byte	0x50
 3928 0620 05       		.byte	0x5
 3929 0621 7B       		.byte	0x7b
 3930 0622 00       		.sleb128 0
 3931 0623 79       		.byte	0x79
 3932 0624 00       		.sleb128 0
 3933 0625 22       		.byte	0x22
 3934 0626 00       		.byte	0
ARM GAS  C:\Users\Steve\AppData\Local\Temp\ccwjFJAL.s 			page 82


 3935 0627 15       		.uleb128 0x15
 3936 0628 12010000 		.4byte	.LVL82
 3937 062c BF010000 		.4byte	0x1bf
 3938 0630 4D060000 		.4byte	0x64d
 3939 0634 12       		.uleb128 0x12
 3940 0635 01       		.byte	0x1
 3941 0636 53       		.byte	0x53
 3942 0637 02       		.byte	0x2
 3943 0638 77       		.byte	0x77
 3944 0639 00       		.sleb128 0
 3945 063a 12       		.uleb128 0x12
 3946 063b 01       		.byte	0x1
 3947 063c 51       		.byte	0x51
 3948 063d 05       		.byte	0x5
 3949 063e 78       		.byte	0x78
 3950 063f 00       		.sleb128 0
 3951 0640 74       		.byte	0x74
 3952 0641 00       		.sleb128 0
 3953 0642 22       		.byte	0x22
 3954 0643 12       		.uleb128 0x12
 3955 0644 01       		.byte	0x1
 3956 0645 50       		.byte	0x50
 3957 0646 05       		.byte	0x5
 3958 0647 79       		.byte	0x79
 3959 0648 00       		.sleb128 0
 3960 0649 7B       		.byte	0x7b
 3961 064a 00       		.sleb128 0
 3962 064b 1C       		.byte	0x1c
 3963 064c 00       		.byte	0
 3964 064d 15       		.uleb128 0x15
 3965 064e 26010000 		.4byte	.LVL83
 3966 0652 BF010000 		.4byte	0x1bf
 3967 0656 73060000 		.4byte	0x673
 3968 065a 12       		.uleb128 0x12
 3969 065b 01       		.byte	0x1
 3970 065c 53       		.byte	0x53
 3971 065d 02       		.byte	0x2
 3972 065e 77       		.byte	0x77
 3973 065f 00       		.sleb128 0
 3974 0660 12       		.uleb128 0x12
 3975 0661 01       		.byte	0x1
 3976 0662 51       		.byte	0x51
 3977 0663 05       		.byte	0x5
 3978 0664 7B       		.byte	0x7b
 3979 0665 00       		.sleb128 0
 3980 0666 78       		.byte	0x78
 3981 0667 00       		.sleb128 0
 3982 0668 22       		.byte	0x22
 3983 0669 12       		.uleb128 0x12
 3984 066a 01       		.byte	0x1
 3985 066b 50       		.byte	0x50
 3986 066c 05       		.byte	0x5
 3987 066d 79       		.byte	0x79
 3988 066e 00       		.sleb128 0
 3989 066f 74       		.byte	0x74
 3990 0670 00       		.sleb128 0
 3991 0671 1C       		.byte	0x1c
ARM GAS  C:\Users\Steve\AppData\Local\Temp\ccwjFJAL.s 			page 83


 3992 0672 00       		.byte	0
 3993 0673 15       		.uleb128 0x15
 3994 0674 44010000 		.4byte	.LVL84
 3995 0678 BF010000 		.4byte	0x1bf
 3996 067c 99060000 		.4byte	0x699
 3997 0680 12       		.uleb128 0x12
 3998 0681 01       		.byte	0x1
 3999 0682 53       		.byte	0x53
 4000 0683 02       		.byte	0x2
 4001 0684 77       		.byte	0x77
 4002 0685 00       		.sleb128 0
 4003 0686 12       		.uleb128 0x12
 4004 0687 01       		.byte	0x1
 4005 0688 51       		.byte	0x51
 4006 0689 05       		.byte	0x5
 4007 068a 78       		.byte	0x78
 4008 068b 00       		.sleb128 0
 4009 068c 74       		.byte	0x74
 4010 068d 00       		.sleb128 0
 4011 068e 1C       		.byte	0x1c
 4012 068f 12       		.uleb128 0x12
 4013 0690 01       		.byte	0x1
 4014 0691 50       		.byte	0x50
 4015 0692 05       		.byte	0x5
 4016 0693 79       		.byte	0x79
 4017 0694 00       		.sleb128 0
 4018 0695 7B       		.byte	0x7b
 4019 0696 00       		.sleb128 0
 4020 0697 1C       		.byte	0x1c
 4021 0698 00       		.byte	0
 4022 0699 11       		.uleb128 0x11
 4023 069a 5A010000 		.4byte	.LVL85
 4024 069e BF010000 		.4byte	0x1bf
 4025 06a2 12       		.uleb128 0x12
 4026 06a3 01       		.byte	0x1
 4027 06a4 53       		.byte	0x53
 4028 06a5 02       		.byte	0x2
 4029 06a6 77       		.byte	0x77
 4030 06a7 00       		.sleb128 0
 4031 06a8 12       		.uleb128 0x12
 4032 06a9 01       		.byte	0x1
 4033 06aa 51       		.byte	0x51
 4034 06ab 05       		.byte	0x5
 4035 06ac 78       		.byte	0x78
 4036 06ad 00       		.sleb128 0
 4037 06ae 7B       		.byte	0x7b
 4038 06af 00       		.sleb128 0
 4039 06b0 1C       		.byte	0x1c
 4040 06b1 12       		.uleb128 0x12
 4041 06b2 01       		.byte	0x1
 4042 06b3 50       		.byte	0x50
 4043 06b4 05       		.byte	0x5
 4044 06b5 79       		.byte	0x79
 4045 06b6 00       		.sleb128 0
 4046 06b7 74       		.byte	0x74
 4047 06b8 00       		.sleb128 0
 4048 06b9 1C       		.byte	0x1c
ARM GAS  C:\Users\Steve\AppData\Local\Temp\ccwjFJAL.s 			page 84


 4049 06ba 00       		.byte	0
 4050 06bb 00       		.byte	0
 4051 06bc 0A       		.uleb128 0xa
 4052 06bd 01       		.byte	0x1
 4053 06be 97000000 		.4byte	.LASF30
 4054 06c2 01       		.byte	0x1
 4055 06c3 CF       		.byte	0xcf
 4056 06c4 01       		.byte	0x1
 4057 06c5 00000000 		.4byte	.LFB38
 4058 06c9 00020000 		.4byte	.LFE38
 4059 06cd C4060000 		.4byte	.LLST39
 4060 06d1 01       		.byte	0x1
 4061 06d2 6C080000 		.4byte	0x86c
 4062 06d6 0B       		.uleb128 0xb
 4063 06d7 783000   		.ascii	"x0\000"
 4064 06da 01       		.byte	0x1
 4065 06db CF       		.byte	0xcf
 4066 06dc 85000000 		.4byte	0x85
 4067 06e0 FC060000 		.4byte	.LLST40
 4068 06e4 0B       		.uleb128 0xb
 4069 06e5 793000   		.ascii	"y0\000"
 4070 06e8 01       		.byte	0x1
 4071 06e9 CF       		.byte	0xcf
 4072 06ea 85000000 		.4byte	0x85
 4073 06ee 64070000 		.4byte	.LLST41
 4074 06f2 0B       		.uleb128 0xb
 4075 06f3 783100   		.ascii	"x1\000"
 4076 06f6 01       		.byte	0x1
 4077 06f7 CF       		.byte	0xcf
 4078 06f8 85000000 		.4byte	0x85
 4079 06fc 01080000 		.4byte	.LLST42
 4080 0700 0B       		.uleb128 0xb
 4081 0701 793100   		.ascii	"y1\000"
 4082 0704 01       		.byte	0x1
 4083 0705 CF       		.byte	0xcf
 4084 0706 85000000 		.4byte	0x85
 4085 070a 6F080000 		.4byte	.LLST43
 4086 070e 10       		.uleb128 0x10
 4087 070f 6300     		.ascii	"c\000"
 4088 0711 01       		.byte	0x1
 4089 0712 CF       		.byte	0xcf
 4090 0713 21010000 		.4byte	0x121
 4091 0717 02       		.byte	0x2
 4092 0718 91       		.byte	0x91
 4093 0719 00       		.sleb128 0
 4094 071a 13       		.uleb128 0x13
 4095 071b A0000000 		.4byte	.LASF17
 4096 071f 01       		.byte	0x1
 4097 0720 CF       		.byte	0xcf
 4098 0721 B9010000 		.4byte	0x1b9
 4099 0725 02       		.byte	0x2
 4100 0726 91       		.byte	0x91
 4101 0727 04       		.sleb128 4
 4102 0728 14       		.uleb128 0x14
 4103 0729 6F010000 		.4byte	.LASF31
 4104 072d 01       		.byte	0x1
 4105 072e D1       		.byte	0xd1
ARM GAS  C:\Users\Steve\AppData\Local\Temp\ccwjFJAL.s 			page 85


 4106 072f 85000000 		.4byte	0x85
 4107 0733 01       		.byte	0x1
 4108 0734 59       		.byte	0x59
 4109 0735 0D       		.uleb128 0xd
 4110 0736 647800   		.ascii	"dx\000"
 4111 0739 01       		.byte	0x1
 4112 073a DC       		.byte	0xdc
 4113 073b 85000000 		.4byte	0x85
 4114 073f BC080000 		.4byte	.LLST44
 4115 0743 0D       		.uleb128 0xd
 4116 0744 647900   		.ascii	"dy\000"
 4117 0747 01       		.byte	0x1
 4118 0748 DC       		.byte	0xdc
 4119 0749 85000000 		.4byte	0x85
 4120 074d E5080000 		.4byte	.LLST45
 4121 0751 0D       		.uleb128 0xd
 4122 0752 65727200 		.ascii	"err\000"
 4123 0756 01       		.byte	0x1
 4124 0757 E0       		.byte	0xe0
 4125 0758 85000000 		.4byte	0x85
 4126 075c F8080000 		.4byte	.LLST46
 4127 0760 0E       		.uleb128 0xe
 4128 0761 FE010000 		.4byte	.LASF32
 4129 0765 01       		.byte	0x1
 4130 0766 E1       		.byte	0xe1
 4131 0767 85000000 		.4byte	0x85
 4132 076b 59090000 		.4byte	.LLST47
 4133 076f 15       		.uleb128 0x15
 4134 0770 94000000 		.4byte	.LVL102
 4135 0774 BF010000 		.4byte	0x1bf
 4136 0778 8F070000 		.4byte	0x78f
 4137 077c 12       		.uleb128 0x12
 4138 077d 01       		.byte	0x1
 4139 077e 53       		.byte	0x53
 4140 077f 02       		.byte	0x2
 4141 0780 78       		.byte	0x78
 4142 0781 00       		.sleb128 0
 4143 0782 12       		.uleb128 0x12
 4144 0783 01       		.byte	0x1
 4145 0784 51       		.byte	0x51
 4146 0785 02       		.byte	0x2
 4147 0786 75       		.byte	0x75
 4148 0787 00       		.sleb128 0
 4149 0788 12       		.uleb128 0x12
 4150 0789 01       		.byte	0x1
 4151 078a 50       		.byte	0x50
 4152 078b 02       		.byte	0x2
 4153 078c 74       		.byte	0x74
 4154 078d 00       		.sleb128 0
 4155 078e 00       		.byte	0
 4156 078f 15       		.uleb128 0x15
 4157 0790 C6000000 		.4byte	.LVL107
 4158 0794 BF010000 		.4byte	0x1bf
 4159 0798 AF070000 		.4byte	0x7af
 4160 079c 12       		.uleb128 0x12
 4161 079d 01       		.byte	0x1
 4162 079e 53       		.byte	0x53
ARM GAS  C:\Users\Steve\AppData\Local\Temp\ccwjFJAL.s 			page 86


 4163 079f 02       		.byte	0x2
 4164 07a0 78       		.byte	0x78
 4165 07a1 00       		.sleb128 0
 4166 07a2 12       		.uleb128 0x12
 4167 07a3 01       		.byte	0x1
 4168 07a4 51       		.byte	0x51
 4169 07a5 02       		.byte	0x2
 4170 07a6 75       		.byte	0x75
 4171 07a7 00       		.sleb128 0
 4172 07a8 12       		.uleb128 0x12
 4173 07a9 01       		.byte	0x1
 4174 07aa 50       		.byte	0x50
 4175 07ab 02       		.byte	0x2
 4176 07ac 74       		.byte	0x74
 4177 07ad 00       		.sleb128 0
 4178 07ae 00       		.byte	0
 4179 07af 15       		.uleb128 0x15
 4180 07b0 F2000000 		.4byte	.LVL112
 4181 07b4 BF010000 		.4byte	0x1bf
 4182 07b8 CF070000 		.4byte	0x7cf
 4183 07bc 12       		.uleb128 0x12
 4184 07bd 01       		.byte	0x1
 4185 07be 53       		.byte	0x53
 4186 07bf 02       		.byte	0x2
 4187 07c0 78       		.byte	0x78
 4188 07c1 00       		.sleb128 0
 4189 07c2 12       		.uleb128 0x12
 4190 07c3 01       		.byte	0x1
 4191 07c4 51       		.byte	0x51
 4192 07c5 02       		.byte	0x2
 4193 07c6 74       		.byte	0x74
 4194 07c7 00       		.sleb128 0
 4195 07c8 12       		.uleb128 0x12
 4196 07c9 01       		.byte	0x1
 4197 07ca 50       		.byte	0x50
 4198 07cb 02       		.byte	0x2
 4199 07cc 75       		.byte	0x75
 4200 07cd 00       		.sleb128 0
 4201 07ce 00       		.byte	0
 4202 07cf 15       		.uleb128 0x15
 4203 07d0 14010000 		.4byte	.LVL115
 4204 07d4 BF010000 		.4byte	0x1bf
 4205 07d8 EF070000 		.4byte	0x7ef
 4206 07dc 12       		.uleb128 0x12
 4207 07dd 01       		.byte	0x1
 4208 07de 53       		.byte	0x53
 4209 07df 02       		.byte	0x2
 4210 07e0 78       		.byte	0x78
 4211 07e1 00       		.sleb128 0
 4212 07e2 12       		.uleb128 0x12
 4213 07e3 01       		.byte	0x1
 4214 07e4 51       		.byte	0x51
 4215 07e5 02       		.byte	0x2
 4216 07e6 74       		.byte	0x74
 4217 07e7 00       		.sleb128 0
 4218 07e8 12       		.uleb128 0x12
 4219 07e9 01       		.byte	0x1
ARM GAS  C:\Users\Steve\AppData\Local\Temp\ccwjFJAL.s 			page 87


 4220 07ea 50       		.byte	0x50
 4221 07eb 02       		.byte	0x2
 4222 07ec 75       		.byte	0x75
 4223 07ed 00       		.sleb128 0
 4224 07ee 00       		.byte	0
 4225 07ef 15       		.uleb128 0x15
 4226 07f0 3A010000 		.4byte	.LVL118
 4227 07f4 BF010000 		.4byte	0x1bf
 4228 07f8 0F080000 		.4byte	0x80f
 4229 07fc 12       		.uleb128 0x12
 4230 07fd 01       		.byte	0x1
 4231 07fe 53       		.byte	0x53
 4232 07ff 02       		.byte	0x2
 4233 0800 78       		.byte	0x78
 4234 0801 00       		.sleb128 0
 4235 0802 12       		.uleb128 0x12
 4236 0803 01       		.byte	0x1
 4237 0804 51       		.byte	0x51
 4238 0805 02       		.byte	0x2
 4239 0806 75       		.byte	0x75
 4240 0807 00       		.sleb128 0
 4241 0808 12       		.uleb128 0x12
 4242 0809 01       		.byte	0x1
 4243 080a 50       		.byte	0x50
 4244 080b 02       		.byte	0x2
 4245 080c 74       		.byte	0x74
 4246 080d 00       		.sleb128 0
 4247 080e 00       		.byte	0
 4248 080f 15       		.uleb128 0x15
 4249 0810 68010000 		.4byte	.LVL121
 4250 0814 BF010000 		.4byte	0x1bf
 4251 0818 2F080000 		.4byte	0x82f
 4252 081c 12       		.uleb128 0x12
 4253 081d 01       		.byte	0x1
 4254 081e 53       		.byte	0x53
 4255 081f 02       		.byte	0x2
 4256 0820 78       		.byte	0x78
 4257 0821 00       		.sleb128 0
 4258 0822 12       		.uleb128 0x12
 4259 0823 01       		.byte	0x1
 4260 0824 51       		.byte	0x51
 4261 0825 02       		.byte	0x2
 4262 0826 75       		.byte	0x75
 4263 0827 00       		.sleb128 0
 4264 0828 12       		.uleb128 0x12
 4265 0829 01       		.byte	0x1
 4266 082a 50       		.byte	0x50
 4267 082b 02       		.byte	0x2
 4268 082c 74       		.byte	0x74
 4269 082d 00       		.sleb128 0
 4270 082e 00       		.byte	0
 4271 082f 15       		.uleb128 0x15
 4272 0830 BC010000 		.4byte	.LVL133
 4273 0834 BF010000 		.4byte	0x1bf
 4274 0838 4F080000 		.4byte	0x84f
 4275 083c 12       		.uleb128 0x12
 4276 083d 01       		.byte	0x1
ARM GAS  C:\Users\Steve\AppData\Local\Temp\ccwjFJAL.s 			page 88


 4277 083e 53       		.byte	0x53
 4278 083f 02       		.byte	0x2
 4279 0840 78       		.byte	0x78
 4280 0841 00       		.sleb128 0
 4281 0842 12       		.uleb128 0x12
 4282 0843 01       		.byte	0x1
 4283 0844 51       		.byte	0x51
 4284 0845 02       		.byte	0x2
 4285 0846 74       		.byte	0x74
 4286 0847 00       		.sleb128 0
 4287 0848 12       		.uleb128 0x12
 4288 0849 01       		.byte	0x1
 4289 084a 50       		.byte	0x50
 4290 084b 02       		.byte	0x2
 4291 084c 75       		.byte	0x75
 4292 084d 00       		.sleb128 0
 4293 084e 00       		.byte	0
 4294 084f 11       		.uleb128 0x11
 4295 0850 E4010000 		.4byte	.LVL139
 4296 0854 BF010000 		.4byte	0x1bf
 4297 0858 12       		.uleb128 0x12
 4298 0859 01       		.byte	0x1
 4299 085a 53       		.byte	0x53
 4300 085b 02       		.byte	0x2
 4301 085c 78       		.byte	0x78
 4302 085d 00       		.sleb128 0
 4303 085e 12       		.uleb128 0x12
 4304 085f 01       		.byte	0x1
 4305 0860 51       		.byte	0x51
 4306 0861 02       		.byte	0x2
 4307 0862 74       		.byte	0x74
 4308 0863 00       		.sleb128 0
 4309 0864 12       		.uleb128 0x12
 4310 0865 01       		.byte	0x1
 4311 0866 50       		.byte	0x50
 4312 0867 02       		.byte	0x2
 4313 0868 75       		.byte	0x75
 4314 0869 00       		.sleb128 0
 4315 086a 00       		.byte	0
 4316 086b 00       		.byte	0
 4317 086c 0A       		.uleb128 0xa
 4318 086d 01       		.byte	0x1
 4319 086e A7000000 		.4byte	.LASF33
 4320 0872 01       		.byte	0x1
 4321 0873 FE       		.byte	0xfe
 4322 0874 01       		.byte	0x1
 4323 0875 00000000 		.4byte	.LFB40
 4324 0879 26000000 		.4byte	.LFE40
 4325 087d 79090000 		.4byte	.LLST48
 4326 0881 01       		.byte	0x1
 4327 0882 E5080000 		.4byte	0x8e5
 4328 0886 0B       		.uleb128 0xb
 4329 0887 7800     		.ascii	"x\000"
 4330 0889 01       		.byte	0x1
 4331 088a FE       		.byte	0xfe
 4332 088b 85000000 		.4byte	0x85
 4333 088f A5090000 		.4byte	.LLST49
ARM GAS  C:\Users\Steve\AppData\Local\Temp\ccwjFJAL.s 			page 89


 4334 0893 0B       		.uleb128 0xb
 4335 0894 7900     		.ascii	"y\000"
 4336 0896 01       		.byte	0x1
 4337 0897 FE       		.byte	0xfe
 4338 0898 85000000 		.4byte	0x85
 4339 089c C6090000 		.4byte	.LLST50
 4340 08a0 0B       		.uleb128 0xb
 4341 08a1 6800     		.ascii	"h\000"
 4342 08a3 01       		.byte	0x1
 4343 08a4 FE       		.byte	0xfe
 4344 08a5 85000000 		.4byte	0x85
 4345 08a9 E7090000 		.4byte	.LLST51
 4346 08ad 10       		.uleb128 0x10
 4347 08ae 6300     		.ascii	"c\000"
 4348 08b0 01       		.byte	0x1
 4349 08b1 FE       		.byte	0xfe
 4350 08b2 21010000 		.4byte	0x121
 4351 08b6 02       		.byte	0x2
 4352 08b7 91       		.byte	0x91
 4353 08b8 6C       		.sleb128 -20
 4354 08b9 13       		.uleb128 0x13
 4355 08ba A0000000 		.4byte	.LASF17
 4356 08be 01       		.byte	0x1
 4357 08bf FE       		.byte	0xfe
 4358 08c0 B9010000 		.4byte	0x1b9
 4359 08c4 02       		.byte	0x2
 4360 08c5 91       		.byte	0x91
 4361 08c6 00       		.sleb128 0
 4362 08c7 11       		.uleb128 0x11
 4363 08c8 22000000 		.4byte	.LVL145
 4364 08cc BC060000 		.4byte	0x6bc
 4365 08d0 12       		.uleb128 0x12
 4366 08d1 01       		.byte	0x1
 4367 08d2 52       		.byte	0x52
 4368 08d3 02       		.byte	0x2
 4369 08d4 74       		.byte	0x74
 4370 08d5 00       		.sleb128 0
 4371 08d6 12       		.uleb128 0x12
 4372 08d7 01       		.byte	0x1
 4373 08d8 50       		.byte	0x50
 4374 08d9 02       		.byte	0x2
 4375 08da 74       		.byte	0x74
 4376 08db 00       		.sleb128 0
 4377 08dc 12       		.uleb128 0x12
 4378 08dd 02       		.byte	0x2
 4379 08de 7D       		.byte	0x7d
 4380 08df 04       		.sleb128 4
 4381 08e0 02       		.byte	0x2
 4382 08e1 75       		.byte	0x75
 4383 08e2 00       		.sleb128 0
 4384 08e3 00       		.byte	0
 4385 08e4 00       		.byte	0
 4386 08e5 16       		.uleb128 0x16
 4387 08e6 01       		.byte	0x1
 4388 08e7 61010000 		.4byte	.LASF34
 4389 08eb 01       		.byte	0x1
 4390 08ec 0401     		.2byte	0x104
ARM GAS  C:\Users\Steve\AppData\Local\Temp\ccwjFJAL.s 			page 90


 4391 08ee 01       		.byte	0x1
 4392 08ef 00000000 		.4byte	.LFB41
 4393 08f3 26000000 		.4byte	.LFE41
 4394 08f7 080A0000 		.4byte	.LLST52
 4395 08fb 01       		.byte	0x1
 4396 08fc 64090000 		.4byte	0x964
 4397 0900 17       		.uleb128 0x17
 4398 0901 7800     		.ascii	"x\000"
 4399 0903 01       		.byte	0x1
 4400 0904 0401     		.2byte	0x104
 4401 0906 85000000 		.4byte	0x85
 4402 090a 340A0000 		.4byte	.LLST53
 4403 090e 17       		.uleb128 0x17
 4404 090f 7900     		.ascii	"y\000"
 4405 0911 01       		.byte	0x1
 4406 0912 0401     		.2byte	0x104
 4407 0914 85000000 		.4byte	0x85
 4408 0918 550A0000 		.4byte	.LLST54
 4409 091c 17       		.uleb128 0x17
 4410 091d 7700     		.ascii	"w\000"
 4411 091f 01       		.byte	0x1
 4412 0920 0401     		.2byte	0x104
 4413 0922 85000000 		.4byte	0x85
 4414 0926 760A0000 		.4byte	.LLST55
 4415 092a 18       		.uleb128 0x18
 4416 092b 6300     		.ascii	"c\000"
 4417 092d 01       		.byte	0x1
 4418 092e 0401     		.2byte	0x104
 4419 0930 21010000 		.4byte	0x121
 4420 0934 02       		.byte	0x2
 4421 0935 91       		.byte	0x91
 4422 0936 6C       		.sleb128 -20
 4423 0937 19       		.uleb128 0x19
 4424 0938 A0000000 		.4byte	.LASF17
 4425 093c 01       		.byte	0x1
 4426 093d 0401     		.2byte	0x104
 4427 093f B9010000 		.4byte	0x1b9
 4428 0943 02       		.byte	0x2
 4429 0944 91       		.byte	0x91
 4430 0945 00       		.sleb128 0
 4431 0946 11       		.uleb128 0x11
 4432 0947 22000000 		.4byte	.LVL149
 4433 094b BC060000 		.4byte	0x6bc
 4434 094f 12       		.uleb128 0x12
 4435 0950 01       		.byte	0x1
 4436 0951 53       		.byte	0x53
 4437 0952 02       		.byte	0x2
 4438 0953 74       		.byte	0x74
 4439 0954 00       		.sleb128 0
 4440 0955 12       		.uleb128 0x12
 4441 0956 01       		.byte	0x1
 4442 0957 51       		.byte	0x51
 4443 0958 02       		.byte	0x2
 4444 0959 74       		.byte	0x74
 4445 095a 00       		.sleb128 0
 4446 095b 12       		.uleb128 0x12
 4447 095c 02       		.byte	0x2
ARM GAS  C:\Users\Steve\AppData\Local\Temp\ccwjFJAL.s 			page 91


 4448 095d 7D       		.byte	0x7d
 4449 095e 04       		.sleb128 4
 4450 095f 02       		.byte	0x2
 4451 0960 75       		.byte	0x75
 4452 0961 00       		.sleb128 0
 4453 0962 00       		.byte	0
 4454 0963 00       		.byte	0
 4455 0964 0A       		.uleb128 0xa
 4456 0965 01       		.byte	0x1
 4457 0966 61020000 		.4byte	.LASF35
 4458 096a 01       		.byte	0x1
 4459 096b F7       		.byte	0xf7
 4460 096c 01       		.byte	0x1
 4461 096d 00000000 		.4byte	.LFB39
 4462 0971 72000000 		.4byte	.LFE39
 4463 0975 970A0000 		.4byte	.LLST56
 4464 0979 01       		.byte	0x1
 4465 097a 6B0A0000 		.4byte	0xa6b
 4466 097e 0B       		.uleb128 0xb
 4467 097f 7800     		.ascii	"x\000"
 4468 0981 01       		.byte	0x1
 4469 0982 F7       		.byte	0xf7
 4470 0983 37000000 		.4byte	0x37
 4471 0987 CF0A0000 		.4byte	.LLST57
 4472 098b 0B       		.uleb128 0xb
 4473 098c 7900     		.ascii	"y\000"
 4474 098e 01       		.byte	0x1
 4475 098f F7       		.byte	0xf7
 4476 0990 37000000 		.4byte	0x37
 4477 0994 F00A0000 		.4byte	.LLST58
 4478 0998 0B       		.uleb128 0xb
 4479 0999 7700     		.ascii	"w\000"
 4480 099b 01       		.byte	0x1
 4481 099c F7       		.byte	0xf7
 4482 099d 37000000 		.4byte	0x37
 4483 09a1 110B0000 		.4byte	.LLST59
 4484 09a5 0B       		.uleb128 0xb
 4485 09a6 6800     		.ascii	"h\000"
 4486 09a8 01       		.byte	0x1
 4487 09a9 F7       		.byte	0xf7
 4488 09aa 37000000 		.4byte	0x37
 4489 09ae 320B0000 		.4byte	.LLST60
 4490 09b2 10       		.uleb128 0x10
 4491 09b3 6300     		.ascii	"c\000"
 4492 09b5 01       		.byte	0x1
 4493 09b6 F7       		.byte	0xf7
 4494 09b7 21010000 		.4byte	0x121
 4495 09bb 02       		.byte	0x2
 4496 09bc 91       		.byte	0x91
 4497 09bd 00       		.sleb128 0
 4498 09be 13       		.uleb128 0x13
 4499 09bf A0000000 		.4byte	.LASF17
 4500 09c3 01       		.byte	0x1
 4501 09c4 F7       		.byte	0xf7
 4502 09c5 B9010000 		.4byte	0x1b9
 4503 09c9 02       		.byte	0x2
 4504 09ca 91       		.byte	0x91
ARM GAS  C:\Users\Steve\AppData\Local\Temp\ccwjFJAL.s 			page 92


 4505 09cb 04       		.sleb128 4
 4506 09cc 15       		.uleb128 0x15
 4507 09cd 2C000000 		.4byte	.LVL155
 4508 09d1 E5080000 		.4byte	0x8e5
 4509 09d5 F3090000 		.4byte	0x9f3
 4510 09d9 12       		.uleb128 0x12
 4511 09da 01       		.byte	0x1
 4512 09db 52       		.byte	0x52
 4513 09dc 02       		.byte	0x2
 4514 09dd 7A       		.byte	0x7a
 4515 09de 00       		.sleb128 0
 4516 09df 12       		.uleb128 0x12
 4517 09e0 01       		.byte	0x1
 4518 09e1 51       		.byte	0x51
 4519 09e2 02       		.byte	0x2
 4520 09e3 75       		.byte	0x75
 4521 09e4 00       		.sleb128 0
 4522 09e5 12       		.uleb128 0x12
 4523 09e6 01       		.byte	0x1
 4524 09e7 50       		.byte	0x50
 4525 09e8 02       		.byte	0x2
 4526 09e9 76       		.byte	0x76
 4527 09ea 00       		.sleb128 0
 4528 09eb 12       		.uleb128 0x12
 4529 09ec 02       		.byte	0x2
 4530 09ed 7D       		.byte	0x7d
 4531 09ee 00       		.sleb128 0
 4532 09ef 02       		.byte	0x2
 4533 09f0 74       		.byte	0x74
 4534 09f1 00       		.sleb128 0
 4535 09f2 00       		.byte	0
 4536 09f3 15       		.uleb128 0x15
 4537 09f4 40000000 		.4byte	.LVL156
 4538 09f8 E5080000 		.4byte	0x8e5
 4539 09fc 1F0A0000 		.4byte	0xa1f
 4540 0a00 12       		.uleb128 0x12
 4541 0a01 01       		.byte	0x1
 4542 0a02 52       		.byte	0x52
 4543 0a03 02       		.byte	0x2
 4544 0a04 7A       		.byte	0x7a
 4545 0a05 00       		.sleb128 0
 4546 0a06 12       		.uleb128 0x12
 4547 0a07 01       		.byte	0x1
 4548 0a08 51       		.byte	0x51
 4549 0a09 07       		.byte	0x7
 4550 0a0a 77       		.byte	0x77
 4551 0a0b 00       		.sleb128 0
 4552 0a0c 7B       		.byte	0x7b
 4553 0a0d 00       		.sleb128 0
 4554 0a0e 22       		.byte	0x22
 4555 0a0f 31       		.byte	0x31
 4556 0a10 1C       		.byte	0x1c
 4557 0a11 12       		.uleb128 0x12
 4558 0a12 01       		.byte	0x1
 4559 0a13 50       		.byte	0x50
 4560 0a14 02       		.byte	0x2
 4561 0a15 76       		.byte	0x76
ARM GAS  C:\Users\Steve\AppData\Local\Temp\ccwjFJAL.s 			page 93


 4562 0a16 00       		.sleb128 0
 4563 0a17 12       		.uleb128 0x12
 4564 0a18 02       		.byte	0x2
 4565 0a19 7D       		.byte	0x7d
 4566 0a1a 00       		.sleb128 0
 4567 0a1b 02       		.byte	0x2
 4568 0a1c 74       		.byte	0x74
 4569 0a1d 00       		.sleb128 0
 4570 0a1e 00       		.byte	0
 4571 0a1f 15       		.uleb128 0x15
 4572 0a20 56000000 		.4byte	.LVL157
 4573 0a24 6C080000 		.4byte	0x86c
 4574 0a28 470A0000 		.4byte	0xa47
 4575 0a2c 12       		.uleb128 0x12
 4576 0a2d 01       		.byte	0x1
 4577 0a2e 52       		.byte	0x52
 4578 0a2f 02       		.byte	0x2
 4579 0a30 77       		.byte	0x77
 4580 0a31 00       		.sleb128 0
 4581 0a32 12       		.uleb128 0x12
 4582 0a33 01       		.byte	0x1
 4583 0a34 51       		.byte	0x51
 4584 0a35 02       		.byte	0x2
 4585 0a36 75       		.byte	0x75
 4586 0a37 00       		.sleb128 0
 4587 0a38 12       		.uleb128 0x12
 4588 0a39 01       		.byte	0x1
 4589 0a3a 50       		.byte	0x50
 4590 0a3b 03       		.byte	0x3
 4591 0a3c F3       		.byte	0xf3
 4592 0a3d 01       		.uleb128 0x1
 4593 0a3e 50       		.byte	0x50
 4594 0a3f 12       		.uleb128 0x12
 4595 0a40 02       		.byte	0x2
 4596 0a41 7D       		.byte	0x7d
 4597 0a42 00       		.sleb128 0
 4598 0a43 02       		.byte	0x2
 4599 0a44 74       		.byte	0x74
 4600 0a45 00       		.sleb128 0
 4601 0a46 00       		.byte	0
 4602 0a47 11       		.uleb128 0x11
 4603 0a48 64000000 		.4byte	.LVL158
 4604 0a4c 6C080000 		.4byte	0x86c
 4605 0a50 12       		.uleb128 0x12
 4606 0a51 01       		.byte	0x1
 4607 0a52 52       		.byte	0x52
 4608 0a53 02       		.byte	0x2
 4609 0a54 77       		.byte	0x77
 4610 0a55 00       		.sleb128 0
 4611 0a56 12       		.uleb128 0x12
 4612 0a57 01       		.byte	0x1
 4613 0a58 51       		.byte	0x51
 4614 0a59 02       		.byte	0x2
 4615 0a5a 75       		.byte	0x75
 4616 0a5b 00       		.sleb128 0
 4617 0a5c 12       		.uleb128 0x12
 4618 0a5d 01       		.byte	0x1
ARM GAS  C:\Users\Steve\AppData\Local\Temp\ccwjFJAL.s 			page 94


 4619 0a5e 50       		.byte	0x50
 4620 0a5f 02       		.byte	0x2
 4621 0a60 76       		.byte	0x76
 4622 0a61 00       		.sleb128 0
 4623 0a62 12       		.uleb128 0x12
 4624 0a63 02       		.byte	0x2
 4625 0a64 7D       		.byte	0x7d
 4626 0a65 00       		.sleb128 0
 4627 0a66 02       		.byte	0x2
 4628 0a67 74       		.byte	0x74
 4629 0a68 00       		.sleb128 0
 4630 0a69 00       		.byte	0
 4631 0a6a 00       		.byte	0
 4632 0a6b 16       		.uleb128 0x16
 4633 0a6c 01       		.byte	0x1
 4634 0a6d 7C020000 		.4byte	.LASF36
 4635 0a71 01       		.byte	0x1
 4636 0a72 0A01     		.2byte	0x10a
 4637 0a74 01       		.byte	0x1
 4638 0a75 00000000 		.4byte	.LFB42
 4639 0a79 92000000 		.4byte	.LFE42
 4640 0a7d 530B0000 		.4byte	.LLST61
 4641 0a81 01       		.byte	0x1
 4642 0a82 8B0B0000 		.4byte	0xb8b
 4643 0a86 17       		.uleb128 0x17
 4644 0a87 7800     		.ascii	"x\000"
 4645 0a89 01       		.byte	0x1
 4646 0a8a 0A01     		.2byte	0x10a
 4647 0a8c 85000000 		.4byte	0x85
 4648 0a90 8B0B0000 		.4byte	.LLST62
 4649 0a94 17       		.uleb128 0x17
 4650 0a95 7900     		.ascii	"y\000"
 4651 0a97 01       		.byte	0x1
 4652 0a98 0A01     		.2byte	0x10a
 4653 0a9a 85000000 		.4byte	0x85
 4654 0a9e AC0B0000 		.4byte	.LLST63
 4655 0aa2 17       		.uleb128 0x17
 4656 0aa3 7700     		.ascii	"w\000"
 4657 0aa5 01       		.byte	0x1
 4658 0aa6 0A01     		.2byte	0x10a
 4659 0aa8 85000000 		.4byte	0x85
 4660 0aac CD0B0000 		.4byte	.LLST64
 4661 0ab0 17       		.uleb128 0x17
 4662 0ab1 6800     		.ascii	"h\000"
 4663 0ab3 01       		.byte	0x1
 4664 0ab4 0A01     		.2byte	0x10a
 4665 0ab6 85000000 		.4byte	0x85
 4666 0aba EE0B0000 		.4byte	.LLST65
 4667 0abe 18       		.uleb128 0x18
 4668 0abf 6300     		.ascii	"c\000"
 4669 0ac1 01       		.byte	0x1
 4670 0ac2 0A01     		.2byte	0x10a
 4671 0ac4 21010000 		.4byte	0x121
 4672 0ac8 02       		.byte	0x2
 4673 0ac9 91       		.byte	0x91
 4674 0aca 00       		.sleb128 0
 4675 0acb 19       		.uleb128 0x19
ARM GAS  C:\Users\Steve\AppData\Local\Temp\ccwjFJAL.s 			page 95


 4676 0acc A0000000 		.4byte	.LASF17
 4677 0ad0 01       		.byte	0x1
 4678 0ad1 0A01     		.2byte	0x10a
 4679 0ad3 B9010000 		.4byte	0x1b9
 4680 0ad7 02       		.byte	0x2
 4681 0ad8 91       		.byte	0x91
 4682 0ad9 04       		.sleb128 4
 4683 0ada 1A       		.uleb128 0x1a
 4684 0adb 6900     		.ascii	"i\000"
 4685 0add 01       		.byte	0x1
 4686 0ade 0D01     		.2byte	0x10d
 4687 0ae0 85000000 		.4byte	0x85
 4688 0ae4 0F0C0000 		.4byte	.LLST66
 4689 0ae8 15       		.uleb128 0x15
 4690 0ae9 38000000 		.4byte	.LVL164
 4691 0aed 6C080000 		.4byte	0x86c
 4692 0af1 0F0B0000 		.4byte	0xb0f
 4693 0af5 12       		.uleb128 0x12
 4694 0af6 01       		.byte	0x1
 4695 0af7 52       		.byte	0x52
 4696 0af8 02       		.byte	0x2
 4697 0af9 76       		.byte	0x76
 4698 0afa 00       		.sleb128 0
 4699 0afb 12       		.uleb128 0x12
 4700 0afc 01       		.byte	0x1
 4701 0afd 51       		.byte	0x51
 4702 0afe 02       		.byte	0x2
 4703 0aff 77       		.byte	0x77
 4704 0b00 00       		.sleb128 0
 4705 0b01 12       		.uleb128 0x12
 4706 0b02 01       		.byte	0x1
 4707 0b03 50       		.byte	0x50
 4708 0b04 02       		.byte	0x2
 4709 0b05 75       		.byte	0x75
 4710 0b06 00       		.sleb128 0
 4711 0b07 12       		.uleb128 0x12
 4712 0b08 02       		.byte	0x2
 4713 0b09 7D       		.byte	0x7d
 4714 0b0a 00       		.sleb128 0
 4715 0b0b 02       		.byte	0x2
 4716 0b0c 78       		.byte	0x78
 4717 0b0d 00       		.sleb128 0
 4718 0b0e 00       		.byte	0
 4719 0b0f 15       		.uleb128 0x15
 4720 0b10 56000000 		.4byte	.LVL165
 4721 0b14 6C080000 		.4byte	0x86c
 4722 0b18 360B0000 		.4byte	0xb36
 4723 0b1c 12       		.uleb128 0x12
 4724 0b1d 01       		.byte	0x1
 4725 0b1e 52       		.byte	0x52
 4726 0b1f 02       		.byte	0x2
 4727 0b20 76       		.byte	0x76
 4728 0b21 00       		.sleb128 0
 4729 0b22 12       		.uleb128 0x12
 4730 0b23 01       		.byte	0x1
 4731 0b24 51       		.byte	0x51
 4732 0b25 02       		.byte	0x2
ARM GAS  C:\Users\Steve\AppData\Local\Temp\ccwjFJAL.s 			page 96


 4733 0b26 77       		.byte	0x77
 4734 0b27 00       		.sleb128 0
 4735 0b28 12       		.uleb128 0x12
 4736 0b29 01       		.byte	0x1
 4737 0b2a 50       		.byte	0x50
 4738 0b2b 02       		.byte	0x2
 4739 0b2c 75       		.byte	0x75
 4740 0b2d 01       		.sleb128 1
 4741 0b2e 12       		.uleb128 0x12
 4742 0b2f 02       		.byte	0x2
 4743 0b30 7D       		.byte	0x7d
 4744 0b31 00       		.sleb128 0
 4745 0b32 02       		.byte	0x2
 4746 0b33 78       		.byte	0x78
 4747 0b34 00       		.sleb128 0
 4748 0b35 00       		.byte	0
 4749 0b36 15       		.uleb128 0x15
 4750 0b37 6E000000 		.4byte	.LVL166
 4751 0b3b 6C080000 		.4byte	0x86c
 4752 0b3f 620B0000 		.4byte	0xb62
 4753 0b43 12       		.uleb128 0x12
 4754 0b44 01       		.byte	0x1
 4755 0b45 52       		.byte	0x52
 4756 0b46 02       		.byte	0x2
 4757 0b47 76       		.byte	0x76
 4758 0b48 00       		.sleb128 0
 4759 0b49 12       		.uleb128 0x12
 4760 0b4a 01       		.byte	0x1
 4761 0b4b 51       		.byte	0x51
 4762 0b4c 02       		.byte	0x2
 4763 0b4d 77       		.byte	0x77
 4764 0b4e 00       		.sleb128 0
 4765 0b4f 12       		.uleb128 0x12
 4766 0b50 01       		.byte	0x1
 4767 0b51 50       		.byte	0x50
 4768 0b52 07       		.byte	0x7
 4769 0b53 74       		.byte	0x74
 4770 0b54 00       		.sleb128 0
 4771 0b55 75       		.byte	0x75
 4772 0b56 00       		.sleb128 0
 4773 0b57 22       		.byte	0x22
 4774 0b58 31       		.byte	0x31
 4775 0b59 1C       		.byte	0x1c
 4776 0b5a 12       		.uleb128 0x12
 4777 0b5b 02       		.byte	0x2
 4778 0b5c 7D       		.byte	0x7d
 4779 0b5d 00       		.sleb128 0
 4780 0b5e 02       		.byte	0x2
 4781 0b5f 78       		.byte	0x78
 4782 0b60 00       		.sleb128 0
 4783 0b61 00       		.byte	0
 4784 0b62 11       		.uleb128 0x11
 4785 0b63 82000000 		.4byte	.LVL167
 4786 0b67 6C080000 		.4byte	0x86c
 4787 0b6b 12       		.uleb128 0x12
 4788 0b6c 01       		.byte	0x1
 4789 0b6d 52       		.byte	0x52
ARM GAS  C:\Users\Steve\AppData\Local\Temp\ccwjFJAL.s 			page 97


 4790 0b6e 02       		.byte	0x2
 4791 0b6f 76       		.byte	0x76
 4792 0b70 00       		.sleb128 0
 4793 0b71 12       		.uleb128 0x12
 4794 0b72 01       		.byte	0x1
 4795 0b73 51       		.byte	0x51
 4796 0b74 02       		.byte	0x2
 4797 0b75 77       		.byte	0x77
 4798 0b76 00       		.sleb128 0
 4799 0b77 12       		.uleb128 0x12
 4800 0b78 01       		.byte	0x1
 4801 0b79 50       		.byte	0x50
 4802 0b7a 07       		.byte	0x7
 4803 0b7b 74       		.byte	0x74
 4804 0b7c 00       		.sleb128 0
 4805 0b7d 75       		.byte	0x75
 4806 0b7e 00       		.sleb128 0
 4807 0b7f 22       		.byte	0x22
 4808 0b80 31       		.byte	0x31
 4809 0b81 1C       		.byte	0x1c
 4810 0b82 12       		.uleb128 0x12
 4811 0b83 02       		.byte	0x2
 4812 0b84 7D       		.byte	0x7d
 4813 0b85 00       		.sleb128 0
 4814 0b86 02       		.byte	0x2
 4815 0b87 78       		.byte	0x78
 4816 0b88 00       		.sleb128 0
 4817 0b89 00       		.byte	0
 4818 0b8a 00       		.byte	0
 4819 0b8b 16       		.uleb128 0x16
 4820 0b8c 01       		.byte	0x1
 4821 0b8d 04020000 		.4byte	.LASF37
 4822 0b91 01       		.byte	0x1
 4823 0b92 1301     		.2byte	0x113
 4824 0b94 01       		.byte	0x1
 4825 0b95 00000000 		.4byte	.LFB43
 4826 0b99 20000000 		.4byte	.LFE43
 4827 0b9d 2D0C0000 		.4byte	.LLST67
 4828 0ba1 01       		.byte	0x1
 4829 0ba2 EB0B0000 		.4byte	0xbeb
 4830 0ba6 18       		.uleb128 0x18
 4831 0ba7 6300     		.ascii	"c\000"
 4832 0ba9 01       		.byte	0x1
 4833 0baa 1301     		.2byte	0x113
 4834 0bac 21010000 		.4byte	0x121
 4835 0bb0 02       		.byte	0x2
 4836 0bb1 91       		.byte	0x91
 4837 0bb2 74       		.sleb128 -12
 4838 0bb3 1B       		.uleb128 0x1b
 4839 0bb4 A0000000 		.4byte	.LASF17
 4840 0bb8 01       		.byte	0x1
 4841 0bb9 1301     		.2byte	0x113
 4842 0bbb B9010000 		.4byte	0x1b9
 4843 0bbf 590C0000 		.4byte	.LLST68
 4844 0bc3 11       		.uleb128 0x11
 4845 0bc4 1C000000 		.4byte	.LVL170
 4846 0bc8 6B0A0000 		.4byte	0xa6b
ARM GAS  C:\Users\Steve\AppData\Local\Temp\ccwjFJAL.s 			page 98


 4847 0bcc 12       		.uleb128 0x12
 4848 0bcd 01       		.byte	0x1
 4849 0bce 53       		.byte	0x53
 4850 0bcf 01       		.byte	0x1
 4851 0bd0 40       		.byte	0x40
 4852 0bd1 12       		.uleb128 0x12
 4853 0bd2 01       		.byte	0x1
 4854 0bd3 52       		.byte	0x52
 4855 0bd4 02       		.byte	0x2
 4856 0bd5 08       		.byte	0x8
 4857 0bd6 20       		.byte	0x20
 4858 0bd7 12       		.uleb128 0x12
 4859 0bd8 01       		.byte	0x1
 4860 0bd9 51       		.byte	0x51
 4861 0bda 01       		.byte	0x1
 4862 0bdb 30       		.byte	0x30
 4863 0bdc 12       		.uleb128 0x12
 4864 0bdd 01       		.byte	0x1
 4865 0bde 50       		.byte	0x50
 4866 0bdf 01       		.byte	0x1
 4867 0be0 30       		.byte	0x30
 4868 0be1 12       		.uleb128 0x12
 4869 0be2 02       		.byte	0x2
 4870 0be3 7D       		.byte	0x7d
 4871 0be4 04       		.sleb128 4
 4872 0be5 03       		.byte	0x3
 4873 0be6 F3       		.byte	0xf3
 4874 0be7 01       		.uleb128 0x1
 4875 0be8 51       		.byte	0x51
 4876 0be9 00       		.byte	0
 4877 0bea 00       		.byte	0
 4878 0beb 16       		.uleb128 0x16
 4879 0bec 01       		.byte	0x1
 4880 0bed D9010000 		.4byte	.LASF38
 4881 0bf1 01       		.byte	0x1
 4882 0bf2 1801     		.2byte	0x118
 4883 0bf4 01       		.byte	0x1
 4884 0bf5 00000000 		.4byte	.LFB44
 4885 0bf9 7E000000 		.4byte	.LFE44
 4886 0bfd 860C0000 		.4byte	.LLST69
 4887 0c01 01       		.byte	0x1
 4888 0c02 010D0000 		.4byte	0xd01
 4889 0c06 17       		.uleb128 0x17
 4890 0c07 783000   		.ascii	"x0\000"
 4891 0c0a 01       		.byte	0x1
 4892 0c0b 1801     		.2byte	0x118
 4893 0c0d 85000000 		.4byte	0x85
 4894 0c11 BE0C0000 		.4byte	.LLST70
 4895 0c15 17       		.uleb128 0x17
 4896 0c16 793000   		.ascii	"y0\000"
 4897 0c19 01       		.byte	0x1
 4898 0c1a 1801     		.2byte	0x118
 4899 0c1c 85000000 		.4byte	0x85
 4900 0c20 DF0C0000 		.4byte	.LLST71
 4901 0c24 17       		.uleb128 0x17
 4902 0c25 783100   		.ascii	"x1\000"
 4903 0c28 01       		.byte	0x1
ARM GAS  C:\Users\Steve\AppData\Local\Temp\ccwjFJAL.s 			page 99


 4904 0c29 1801     		.2byte	0x118
 4905 0c2b 85000000 		.4byte	0x85
 4906 0c2f 000D0000 		.4byte	.LLST72
 4907 0c33 17       		.uleb128 0x17
 4908 0c34 793100   		.ascii	"y1\000"
 4909 0c37 01       		.byte	0x1
 4910 0c38 1801     		.2byte	0x118
 4911 0c3a 85000000 		.4byte	0x85
 4912 0c3e 210D0000 		.4byte	.LLST73
 4913 0c42 18       		.uleb128 0x18
 4914 0c43 783200   		.ascii	"x2\000"
 4915 0c46 01       		.byte	0x1
 4916 0c47 1901     		.2byte	0x119
 4917 0c49 85000000 		.4byte	0x85
 4918 0c4d 02       		.byte	0x2
 4919 0c4e 91       		.byte	0x91
 4920 0c4f 00       		.sleb128 0
 4921 0c50 18       		.uleb128 0x18
 4922 0c51 793200   		.ascii	"y2\000"
 4923 0c54 01       		.byte	0x1
 4924 0c55 1901     		.2byte	0x119
 4925 0c57 85000000 		.4byte	0x85
 4926 0c5b 02       		.byte	0x2
 4927 0c5c 91       		.byte	0x91
 4928 0c5d 04       		.sleb128 4
 4929 0c5e 18       		.uleb128 0x18
 4930 0c5f 6300     		.ascii	"c\000"
 4931 0c61 01       		.byte	0x1
 4932 0c62 1901     		.2byte	0x119
 4933 0c64 21010000 		.4byte	0x121
 4934 0c68 02       		.byte	0x2
 4935 0c69 91       		.byte	0x91
 4936 0c6a 08       		.sleb128 8
 4937 0c6b 19       		.uleb128 0x19
 4938 0c6c A0000000 		.4byte	.LASF17
 4939 0c70 01       		.byte	0x1
 4940 0c71 1901     		.2byte	0x119
 4941 0c73 B9010000 		.4byte	0x1b9
 4942 0c77 02       		.byte	0x2
 4943 0c78 91       		.byte	0x91
 4944 0c79 0C       		.sleb128 12
 4945 0c7a 15       		.uleb128 0x15
 4946 0c7b 3E000000 		.4byte	.LVL176
 4947 0c7f BC060000 		.4byte	0x6bc
 4948 0c83 A80C0000 		.4byte	0xca8
 4949 0c87 12       		.uleb128 0x12
 4950 0c88 01       		.byte	0x1
 4951 0c89 53       		.byte	0x53
 4952 0c8a 02       		.byte	0x2
 4953 0c8b 7A       		.byte	0x7a
 4954 0c8c 00       		.sleb128 0
 4955 0c8d 12       		.uleb128 0x12
 4956 0c8e 01       		.byte	0x1
 4957 0c8f 52       		.byte	0x52
 4958 0c90 02       		.byte	0x2
 4959 0c91 7B       		.byte	0x7b
 4960 0c92 00       		.sleb128 0
ARM GAS  C:\Users\Steve\AppData\Local\Temp\ccwjFJAL.s 			page 100


 4961 0c93 12       		.uleb128 0x12
 4962 0c94 01       		.byte	0x1
 4963 0c95 51       		.byte	0x51
 4964 0c96 02       		.byte	0x2
 4965 0c97 76       		.byte	0x76
 4966 0c98 00       		.sleb128 0
 4967 0c99 12       		.uleb128 0x12
 4968 0c9a 01       		.byte	0x1
 4969 0c9b 50       		.byte	0x50
 4970 0c9c 02       		.byte	0x2
 4971 0c9d 77       		.byte	0x77
 4972 0c9e 00       		.sleb128 0
 4973 0c9f 12       		.uleb128 0x12
 4974 0ca0 02       		.byte	0x2
 4975 0ca1 7D       		.byte	0x7d
 4976 0ca2 04       		.sleb128 4
 4977 0ca3 03       		.byte	0x3
 4978 0ca4 91       		.byte	0x91
 4979 0ca5 0C       		.sleb128 12
 4980 0ca6 06       		.byte	0x6
 4981 0ca7 00       		.byte	0
 4982 0ca8 15       		.uleb128 0x15
 4983 0ca9 58000000 		.4byte	.LVL177
 4984 0cad BC060000 		.4byte	0x6bc
 4985 0cb1 D60C0000 		.4byte	0xcd6
 4986 0cb5 12       		.uleb128 0x12
 4987 0cb6 01       		.byte	0x1
 4988 0cb7 53       		.byte	0x53
 4989 0cb8 02       		.byte	0x2
 4990 0cb9 75       		.byte	0x75
 4991 0cba 00       		.sleb128 0
 4992 0cbb 12       		.uleb128 0x12
 4993 0cbc 01       		.byte	0x1
 4994 0cbd 52       		.byte	0x52
 4995 0cbe 02       		.byte	0x2
 4996 0cbf 79       		.byte	0x79
 4997 0cc0 00       		.sleb128 0
 4998 0cc1 12       		.uleb128 0x12
 4999 0cc2 01       		.byte	0x1
 5000 0cc3 51       		.byte	0x51
 5001 0cc4 02       		.byte	0x2
 5002 0cc5 7A       		.byte	0x7a
 5003 0cc6 00       		.sleb128 0
 5004 0cc7 12       		.uleb128 0x12
 5005 0cc8 01       		.byte	0x1
 5006 0cc9 50       		.byte	0x50
 5007 0cca 02       		.byte	0x2
 5008 0ccb 7B       		.byte	0x7b
 5009 0ccc 00       		.sleb128 0
 5010 0ccd 12       		.uleb128 0x12
 5011 0cce 02       		.byte	0x2
 5012 0ccf 7D       		.byte	0x7d
 5013 0cd0 04       		.sleb128 4
 5014 0cd1 03       		.byte	0x3
 5015 0cd2 91       		.byte	0x91
 5016 0cd3 0C       		.sleb128 12
 5017 0cd4 06       		.byte	0x6
ARM GAS  C:\Users\Steve\AppData\Local\Temp\ccwjFJAL.s 			page 101


 5018 0cd5 00       		.byte	0
 5019 0cd6 11       		.uleb128 0x11
 5020 0cd7 72000000 		.4byte	.LVL178
 5021 0cdb BC060000 		.4byte	0x6bc
 5022 0cdf 12       		.uleb128 0x12
 5023 0ce0 01       		.byte	0x1
 5024 0ce1 53       		.byte	0x53
 5025 0ce2 02       		.byte	0x2
 5026 0ce3 76       		.byte	0x76
 5027 0ce4 00       		.sleb128 0
 5028 0ce5 12       		.uleb128 0x12
 5029 0ce6 01       		.byte	0x1
 5030 0ce7 52       		.byte	0x52
 5031 0ce8 02       		.byte	0x2
 5032 0ce9 77       		.byte	0x77
 5033 0cea 00       		.sleb128 0
 5034 0ceb 12       		.uleb128 0x12
 5035 0cec 01       		.byte	0x1
 5036 0ced 51       		.byte	0x51
 5037 0cee 02       		.byte	0x2
 5038 0cef 75       		.byte	0x75
 5039 0cf0 00       		.sleb128 0
 5040 0cf1 12       		.uleb128 0x12
 5041 0cf2 01       		.byte	0x1
 5042 0cf3 50       		.byte	0x50
 5043 0cf4 02       		.byte	0x2
 5044 0cf5 79       		.byte	0x79
 5045 0cf6 00       		.sleb128 0
 5046 0cf7 12       		.uleb128 0x12
 5047 0cf8 02       		.byte	0x2
 5048 0cf9 7D       		.byte	0x7d
 5049 0cfa 04       		.sleb128 4
 5050 0cfb 03       		.byte	0x3
 5051 0cfc 91       		.byte	0x91
 5052 0cfd 0C       		.sleb128 12
 5053 0cfe 06       		.byte	0x6
 5054 0cff 00       		.byte	0
 5055 0d00 00       		.byte	0
 5056 0d01 16       		.uleb128 0x16
 5057 0d02 01       		.byte	0x1
 5058 0d03 22000000 		.4byte	.LASF39
 5059 0d07 01       		.byte	0x1
 5060 0d08 2001     		.2byte	0x120
 5061 0d0a 01       		.byte	0x1
 5062 0d0b 00000000 		.4byte	.LFB45
 5063 0d0f 88000000 		.4byte	.LFE45
 5064 0d13 420D0000 		.4byte	.LLST74
 5065 0d17 01       		.byte	0x1
 5066 0d18 E70D0000 		.4byte	0xde7
 5067 0d1c 17       		.uleb128 0x17
 5068 0d1d 783000   		.ascii	"x0\000"
 5069 0d20 01       		.byte	0x1
 5070 0d21 2001     		.2byte	0x120
 5071 0d23 85000000 		.4byte	0x85
 5072 0d27 7A0D0000 		.4byte	.LLST75
 5073 0d2b 17       		.uleb128 0x17
 5074 0d2c 793000   		.ascii	"y0\000"
ARM GAS  C:\Users\Steve\AppData\Local\Temp\ccwjFJAL.s 			page 102


 5075 0d2f 01       		.byte	0x1
 5076 0d30 2001     		.2byte	0x120
 5077 0d32 85000000 		.4byte	0x85
 5078 0d36 B30D0000 		.4byte	.LLST76
 5079 0d3a 18       		.uleb128 0x18
 5080 0d3b 6300     		.ascii	"c\000"
 5081 0d3d 01       		.byte	0x1
 5082 0d3e 2001     		.2byte	0x120
 5083 0d40 21010000 		.4byte	0x121
 5084 0d44 02       		.byte	0x2
 5085 0d45 91       		.byte	0x91
 5086 0d46 5C       		.sleb128 -36
 5087 0d47 1B       		.uleb128 0x1b
 5088 0d48 A0000000 		.4byte	.LASF17
 5089 0d4c 01       		.byte	0x1
 5090 0d4d 2001     		.2byte	0x120
 5091 0d4f B9010000 		.4byte	0x1b9
 5092 0d53 D40D0000 		.4byte	.LLST77
 5093 0d57 15       		.uleb128 0x15
 5094 0d58 44000000 		.4byte	.LVL183
 5095 0d5c BC060000 		.4byte	0x6bc
 5096 0d60 840D0000 		.4byte	0xd84
 5097 0d64 12       		.uleb128 0x12
 5098 0d65 01       		.byte	0x1
 5099 0d66 53       		.byte	0x53
 5100 0d67 02       		.byte	0x2
 5101 0d68 79       		.byte	0x79
 5102 0d69 00       		.sleb128 0
 5103 0d6a 12       		.uleb128 0x12
 5104 0d6b 01       		.byte	0x1
 5105 0d6c 52       		.byte	0x52
 5106 0d6d 02       		.byte	0x2
 5107 0d6e 78       		.byte	0x78
 5108 0d6f 00       		.sleb128 0
 5109 0d70 12       		.uleb128 0x12
 5110 0d71 01       		.byte	0x1
 5111 0d72 51       		.byte	0x51
 5112 0d73 02       		.byte	0x2
 5113 0d74 76       		.byte	0x76
 5114 0d75 02       		.sleb128 2
 5115 0d76 12       		.uleb128 0x12
 5116 0d77 01       		.byte	0x1
 5117 0d78 50       		.byte	0x50
 5118 0d79 02       		.byte	0x2
 5119 0d7a 75       		.byte	0x75
 5120 0d7b 01       		.sleb128 1
 5121 0d7c 12       		.uleb128 0x12
 5122 0d7d 02       		.byte	0x2
 5123 0d7e 7D       		.byte	0x7d
 5124 0d7f 04       		.sleb128 4
 5125 0d80 02       		.byte	0x2
 5126 0d81 77       		.byte	0x77
 5127 0d82 00       		.sleb128 0
 5128 0d83 00       		.byte	0
 5129 0d84 15       		.uleb128 0x15
 5130 0d85 60000000 		.4byte	.LVL184
 5131 0d89 BC060000 		.4byte	0x6bc
ARM GAS  C:\Users\Steve\AppData\Local\Temp\ccwjFJAL.s 			page 103


 5132 0d8d B10D0000 		.4byte	0xdb1
 5133 0d91 12       		.uleb128 0x12
 5134 0d92 01       		.byte	0x1
 5135 0d93 53       		.byte	0x53
 5136 0d94 02       		.byte	0x2
 5137 0d95 76       		.byte	0x76
 5138 0d96 00       		.sleb128 0
 5139 0d97 12       		.uleb128 0x12
 5140 0d98 01       		.byte	0x1
 5141 0d99 52       		.byte	0x52
 5142 0d9a 02       		.byte	0x2
 5143 0d9b 78       		.byte	0x78
 5144 0d9c 00       		.sleb128 0
 5145 0d9d 12       		.uleb128 0x12
 5146 0d9e 01       		.byte	0x1
 5147 0d9f 51       		.byte	0x51
 5148 0da0 02       		.byte	0x2
 5149 0da1 79       		.byte	0x79
 5150 0da2 00       		.sleb128 0
 5151 0da3 12       		.uleb128 0x12
 5152 0da4 01       		.byte	0x1
 5153 0da5 50       		.byte	0x50
 5154 0da6 02       		.byte	0x2
 5155 0da7 78       		.byte	0x78
 5156 0da8 00       		.sleb128 0
 5157 0da9 12       		.uleb128 0x12
 5158 0daa 02       		.byte	0x2
 5159 0dab 7D       		.byte	0x7d
 5160 0dac 04       		.sleb128 4
 5161 0dad 02       		.byte	0x2
 5162 0dae 77       		.byte	0x77
 5163 0daf 00       		.sleb128 0
 5164 0db0 00       		.byte	0
 5165 0db1 11       		.uleb128 0x11
 5166 0db2 7C000000 		.4byte	.LVL187
 5167 0db6 BC060000 		.4byte	0x6bc
 5168 0dba 12       		.uleb128 0x12
 5169 0dbb 01       		.byte	0x1
 5170 0dbc 53       		.byte	0x53
 5171 0dbd 02       		.byte	0x2
 5172 0dbe 76       		.byte	0x76
 5173 0dbf 00       		.sleb128 0
 5174 0dc0 12       		.uleb128 0x12
 5175 0dc1 01       		.byte	0x1
 5176 0dc2 52       		.byte	0x52
 5177 0dc3 08       		.byte	0x8
 5178 0dc4 F3       		.byte	0xf3
 5179 0dc5 01       		.uleb128 0x1
 5180 0dc6 50       		.byte	0x50
 5181 0dc7 08       		.byte	0x8
 5182 0dc8 FF       		.byte	0xff
 5183 0dc9 1A       		.byte	0x1a
 5184 0dca 23       		.byte	0x23
 5185 0dcb 04       		.uleb128 0x4
 5186 0dcc 12       		.uleb128 0x12
 5187 0dcd 01       		.byte	0x1
 5188 0dce 51       		.byte	0x51
ARM GAS  C:\Users\Steve\AppData\Local\Temp\ccwjFJAL.s 			page 104


 5189 0dcf 02       		.byte	0x2
 5190 0dd0 76       		.byte	0x76
 5191 0dd1 00       		.sleb128 0
 5192 0dd2 12       		.uleb128 0x12
 5193 0dd3 01       		.byte	0x1
 5194 0dd4 50       		.byte	0x50
 5195 0dd5 08       		.byte	0x8
 5196 0dd6 F3       		.byte	0xf3
 5197 0dd7 01       		.uleb128 0x1
 5198 0dd8 50       		.byte	0x50
 5199 0dd9 08       		.byte	0x8
 5200 0dda FF       		.byte	0xff
 5201 0ddb 1A       		.byte	0x1a
 5202 0ddc 23       		.byte	0x23
 5203 0ddd 02       		.uleb128 0x2
 5204 0dde 12       		.uleb128 0x12
 5205 0ddf 02       		.byte	0x2
 5206 0de0 7D       		.byte	0x7d
 5207 0de1 04       		.sleb128 4
 5208 0de2 02       		.byte	0x2
 5209 0de3 77       		.byte	0x77
 5210 0de4 00       		.sleb128 0
 5211 0de5 00       		.byte	0
 5212 0de6 00       		.byte	0
 5213 0de7 16       		.uleb128 0x16
 5214 0de8 01       		.byte	0x1
 5215 0de9 44010000 		.4byte	.LASF40
 5216 0ded 01       		.byte	0x1
 5217 0dee 2701     		.2byte	0x127
 5218 0df0 01       		.byte	0x1
 5219 0df1 00000000 		.4byte	.LFB46
 5220 0df5 88000000 		.4byte	.LFE46
 5221 0df9 000E0000 		.4byte	.LLST78
 5222 0dfd 01       		.byte	0x1
 5223 0dfe 1E0F0000 		.4byte	0xf1e
 5224 0e02 17       		.uleb128 0x17
 5225 0e03 783000   		.ascii	"x0\000"
 5226 0e06 01       		.byte	0x1
 5227 0e07 2701     		.2byte	0x127
 5228 0e09 85000000 		.4byte	0x85
 5229 0e0d 380E0000 		.4byte	.LLST79
 5230 0e11 17       		.uleb128 0x17
 5231 0e12 793000   		.ascii	"y0\000"
 5232 0e15 01       		.byte	0x1
 5233 0e16 2701     		.2byte	0x127
 5234 0e18 85000000 		.4byte	0x85
 5235 0e1c 710E0000 		.4byte	.LLST80
 5236 0e20 18       		.uleb128 0x18
 5237 0e21 6300     		.ascii	"c\000"
 5238 0e23 01       		.byte	0x1
 5239 0e24 2701     		.2byte	0x127
 5240 0e26 21010000 		.4byte	0x121
 5241 0e2a 02       		.byte	0x2
 5242 0e2b 91       		.byte	0x91
 5243 0e2c 5C       		.sleb128 -36
 5244 0e2d 1B       		.uleb128 0x1b
 5245 0e2e A0000000 		.4byte	.LASF17
ARM GAS  C:\Users\Steve\AppData\Local\Temp\ccwjFJAL.s 			page 105


 5246 0e32 01       		.byte	0x1
 5247 0e33 2701     		.2byte	0x127
 5248 0e35 B9010000 		.4byte	0x1b9
 5249 0e39 AA0E0000 		.4byte	.LLST81
 5250 0e3d 15       		.uleb128 0x15
 5251 0e3e 26000000 		.4byte	.LVL192
 5252 0e42 BF010000 		.4byte	0x1bf
 5253 0e46 5D0E0000 		.4byte	0xe5d
 5254 0e4a 12       		.uleb128 0x12
 5255 0e4b 01       		.byte	0x1
 5256 0e4c 53       		.byte	0x53
 5257 0e4d 02       		.byte	0x2
 5258 0e4e 74       		.byte	0x74
 5259 0e4f 00       		.sleb128 0
 5260 0e50 12       		.uleb128 0x12
 5261 0e51 01       		.byte	0x1
 5262 0e52 51       		.byte	0x51
 5263 0e53 02       		.byte	0x2
 5264 0e54 79       		.byte	0x79
 5265 0e55 00       		.sleb128 0
 5266 0e56 12       		.uleb128 0x12
 5267 0e57 01       		.byte	0x1
 5268 0e58 50       		.byte	0x50
 5269 0e59 02       		.byte	0x2
 5270 0e5a 77       		.byte	0x77
 5271 0e5b 00       		.sleb128 0
 5272 0e5c 00       		.byte	0
 5273 0e5d 15       		.uleb128 0x15
 5274 0e5e 3C000000 		.4byte	.LVL194
 5275 0e62 E5080000 		.4byte	0x8e5
 5276 0e66 830E0000 		.4byte	0xe83
 5277 0e6a 12       		.uleb128 0x12
 5278 0e6b 01       		.byte	0x1
 5279 0e6c 52       		.byte	0x52
 5280 0e6d 01       		.byte	0x1
 5281 0e6e 33       		.byte	0x33
 5282 0e6f 12       		.uleb128 0x12
 5283 0e70 01       		.byte	0x1
 5284 0e71 51       		.byte	0x51
 5285 0e72 02       		.byte	0x2
 5286 0e73 7A       		.byte	0x7a
 5287 0e74 00       		.sleb128 0
 5288 0e75 12       		.uleb128 0x12
 5289 0e76 01       		.byte	0x1
 5290 0e77 50       		.byte	0x50
 5291 0e78 02       		.byte	0x2
 5292 0e79 78       		.byte	0x78
 5293 0e7a 00       		.sleb128 0
 5294 0e7b 12       		.uleb128 0x12
 5295 0e7c 02       		.byte	0x2
 5296 0e7d 7D       		.byte	0x7d
 5297 0e7e 00       		.sleb128 0
 5298 0e7f 02       		.byte	0x2
 5299 0e80 74       		.byte	0x74
 5300 0e81 00       		.sleb128 0
 5301 0e82 00       		.byte	0
 5302 0e83 15       		.uleb128 0x15
ARM GAS  C:\Users\Steve\AppData\Local\Temp\ccwjFJAL.s 			page 106


 5303 0e84 4C000000 		.4byte	.LVL196
 5304 0e88 6C080000 		.4byte	0x86c
 5305 0e8c AF0E0000 		.4byte	0xeaf
 5306 0e90 12       		.uleb128 0x12
 5307 0e91 01       		.byte	0x1
 5308 0e92 52       		.byte	0x52
 5309 0e93 01       		.byte	0x1
 5310 0e94 34       		.byte	0x34
 5311 0e95 12       		.uleb128 0x12
 5312 0e96 01       		.byte	0x1
 5313 0e97 51       		.byte	0x51
 5314 0e98 02       		.byte	0x2
 5315 0e99 77       		.byte	0x77
 5316 0e9a 00       		.sleb128 0
 5317 0e9b 12       		.uleb128 0x12
 5318 0e9c 01       		.byte	0x1
 5319 0e9d 50       		.byte	0x50
 5320 0e9e 08       		.byte	0x8
 5321 0e9f F3       		.byte	0xf3
 5322 0ea0 01       		.uleb128 0x1
 5323 0ea1 50       		.byte	0x50
 5324 0ea2 08       		.byte	0x8
 5325 0ea3 FF       		.byte	0xff
 5326 0ea4 1A       		.byte	0x1a
 5327 0ea5 23       		.byte	0x23
 5328 0ea6 04       		.uleb128 0x4
 5329 0ea7 12       		.uleb128 0x12
 5330 0ea8 02       		.byte	0x2
 5331 0ea9 7D       		.byte	0x7d
 5332 0eaa 00       		.sleb128 0
 5333 0eab 02       		.byte	0x2
 5334 0eac 74       		.byte	0x74
 5335 0ead 00       		.sleb128 0
 5336 0eae 00       		.byte	0
 5337 0eaf 15       		.uleb128 0x15
 5338 0eb0 5C000000 		.4byte	.LVL197
 5339 0eb4 E5080000 		.4byte	0x8e5
 5340 0eb8 D50E0000 		.4byte	0xed5
 5341 0ebc 12       		.uleb128 0x12
 5342 0ebd 01       		.byte	0x1
 5343 0ebe 52       		.byte	0x52
 5344 0ebf 01       		.byte	0x1
 5345 0ec0 33       		.byte	0x33
 5346 0ec1 12       		.uleb128 0x12
 5347 0ec2 01       		.byte	0x1
 5348 0ec3 51       		.byte	0x51
 5349 0ec4 02       		.byte	0x2
 5350 0ec5 75       		.byte	0x75
 5351 0ec6 05       		.sleb128 5
 5352 0ec7 12       		.uleb128 0x12
 5353 0ec8 01       		.byte	0x1
 5354 0ec9 50       		.byte	0x50
 5355 0eca 02       		.byte	0x2
 5356 0ecb 78       		.byte	0x78
 5357 0ecc 00       		.sleb128 0
 5358 0ecd 12       		.uleb128 0x12
 5359 0ece 02       		.byte	0x2
ARM GAS  C:\Users\Steve\AppData\Local\Temp\ccwjFJAL.s 			page 107


 5360 0ecf 7D       		.byte	0x7d
 5361 0ed0 00       		.sleb128 0
 5362 0ed1 02       		.byte	0x2
 5363 0ed2 74       		.byte	0x74
 5364 0ed3 00       		.sleb128 0
 5365 0ed4 00       		.byte	0
 5366 0ed5 15       		.uleb128 0x15
 5367 0ed6 6E000000 		.4byte	.LVL199
 5368 0eda 6C080000 		.4byte	0x86c
 5369 0ede FB0E0000 		.4byte	0xefb
 5370 0ee2 12       		.uleb128 0x12
 5371 0ee3 01       		.byte	0x1
 5372 0ee4 52       		.byte	0x52
 5373 0ee5 01       		.byte	0x1
 5374 0ee6 36       		.byte	0x36
 5375 0ee7 12       		.uleb128 0x12
 5376 0ee8 01       		.byte	0x1
 5377 0ee9 51       		.byte	0x51
 5378 0eea 02       		.byte	0x2
 5379 0eeb 75       		.byte	0x75
 5380 0eec 7B       		.sleb128 -5
 5381 0eed 12       		.uleb128 0x12
 5382 0eee 01       		.byte	0x1
 5383 0eef 50       		.byte	0x50
 5384 0ef0 02       		.byte	0x2
 5385 0ef1 76       		.byte	0x76
 5386 0ef2 00       		.sleb128 0
 5387 0ef3 12       		.uleb128 0x12
 5388 0ef4 02       		.byte	0x2
 5389 0ef5 7D       		.byte	0x7d
 5390 0ef6 00       		.sleb128 0
 5391 0ef7 02       		.byte	0x2
 5392 0ef8 74       		.byte	0x74
 5393 0ef9 00       		.sleb128 0
 5394 0efa 00       		.byte	0
 5395 0efb 11       		.uleb128 0x11
 5396 0efc 7C000000 		.4byte	.LVL200
 5397 0f00 E5080000 		.4byte	0x8e5
 5398 0f04 12       		.uleb128 0x12
 5399 0f05 01       		.byte	0x1
 5400 0f06 52       		.byte	0x52
 5401 0f07 01       		.byte	0x1
 5402 0f08 35       		.byte	0x35
 5403 0f09 12       		.uleb128 0x12
 5404 0f0a 01       		.byte	0x1
 5405 0f0b 51       		.byte	0x51
 5406 0f0c 02       		.byte	0x2
 5407 0f0d 75       		.byte	0x75
 5408 0f0e 00       		.sleb128 0
 5409 0f0f 12       		.uleb128 0x12
 5410 0f10 01       		.byte	0x1
 5411 0f11 50       		.byte	0x50
 5412 0f12 02       		.byte	0x2
 5413 0f13 76       		.byte	0x76
 5414 0f14 00       		.sleb128 0
 5415 0f15 12       		.uleb128 0x12
 5416 0f16 02       		.byte	0x2
ARM GAS  C:\Users\Steve\AppData\Local\Temp\ccwjFJAL.s 			page 108


 5417 0f17 7D       		.byte	0x7d
 5418 0f18 00       		.sleb128 0
 5419 0f19 02       		.byte	0x2
 5420 0f1a 74       		.byte	0x74
 5421 0f1b 00       		.sleb128 0
 5422 0f1c 00       		.byte	0
 5423 0f1d 00       		.byte	0
 5424 0f1e 16       		.uleb128 0x16
 5425 0f1f 01       		.byte	0x1
 5426 0f20 63000000 		.4byte	.LASF41
 5427 0f24 01       		.byte	0x1
 5428 0f25 3101     		.2byte	0x131
 5429 0f27 01       		.byte	0x1
 5430 0f28 00000000 		.4byte	.LFB47
 5431 0f2c 30000000 		.4byte	.LFE47
 5432 0f30 D60E0000 		.4byte	.LLST82
 5433 0f34 01       		.byte	0x1
 5434 0f35 BD0F0000 		.4byte	0xfbd
 5435 0f39 17       		.uleb128 0x17
 5436 0f3a 783000   		.ascii	"x0\000"
 5437 0f3d 01       		.byte	0x1
 5438 0f3e 3101     		.2byte	0x131
 5439 0f40 85000000 		.4byte	0x85
 5440 0f44 020F0000 		.4byte	.LLST83
 5441 0f48 17       		.uleb128 0x17
 5442 0f49 793000   		.ascii	"y0\000"
 5443 0f4c 01       		.byte	0x1
 5444 0f4d 3101     		.2byte	0x131
 5445 0f4f 85000000 		.4byte	0x85
 5446 0f53 230F0000 		.4byte	.LLST84
 5447 0f57 18       		.uleb128 0x18
 5448 0f58 6300     		.ascii	"c\000"
 5449 0f5a 01       		.byte	0x1
 5450 0f5b 3101     		.2byte	0x131
 5451 0f5d 21010000 		.4byte	0x121
 5452 0f61 02       		.byte	0x2
 5453 0f62 91       		.byte	0x91
 5454 0f63 64       		.sleb128 -28
 5455 0f64 1B       		.uleb128 0x1b
 5456 0f65 A0000000 		.4byte	.LASF17
 5457 0f69 01       		.byte	0x1
 5458 0f6a 3101     		.2byte	0x131
 5459 0f6c B9010000 		.4byte	0x1b9
 5460 0f70 5C0F0000 		.4byte	.LLST85
 5461 0f74 15       		.uleb128 0x15
 5462 0f75 1E000000 		.4byte	.LVL207
 5463 0f79 6C080000 		.4byte	0x86c
 5464 0f7d 9A0F0000 		.4byte	0xf9a
 5465 0f81 12       		.uleb128 0x12
 5466 0f82 01       		.byte	0x1
 5467 0f83 52       		.byte	0x52
 5468 0f84 01       		.byte	0x1
 5469 0f85 32       		.byte	0x32
 5470 0f86 12       		.uleb128 0x12
 5471 0f87 01       		.byte	0x1
 5472 0f88 51       		.byte	0x51
 5473 0f89 02       		.byte	0x2
ARM GAS  C:\Users\Steve\AppData\Local\Temp\ccwjFJAL.s 			page 109


 5474 0f8a 76       		.byte	0x76
 5475 0f8b 7C       		.sleb128 -4
 5476 0f8c 12       		.uleb128 0x12
 5477 0f8d 01       		.byte	0x1
 5478 0f8e 50       		.byte	0x50
 5479 0f8f 02       		.byte	0x2
 5480 0f90 74       		.byte	0x74
 5481 0f91 00       		.sleb128 0
 5482 0f92 12       		.uleb128 0x12
 5483 0f93 02       		.byte	0x2
 5484 0f94 7D       		.byte	0x7d
 5485 0f95 00       		.sleb128 0
 5486 0f96 02       		.byte	0x2
 5487 0f97 75       		.byte	0x75
 5488 0f98 00       		.sleb128 0
 5489 0f99 00       		.byte	0
 5490 0f9a 11       		.uleb128 0x11
 5491 0f9b 2C000000 		.4byte	.LVL208
 5492 0f9f 6C080000 		.4byte	0x86c
 5493 0fa3 12       		.uleb128 0x12
 5494 0fa4 01       		.byte	0x1
 5495 0fa5 52       		.byte	0x52
 5496 0fa6 01       		.byte	0x1
 5497 0fa7 32       		.byte	0x32
 5498 0fa8 12       		.uleb128 0x12
 5499 0fa9 01       		.byte	0x1
 5500 0faa 51       		.byte	0x51
 5501 0fab 02       		.byte	0x2
 5502 0fac 76       		.byte	0x76
 5503 0fad 00       		.sleb128 0
 5504 0fae 12       		.uleb128 0x12
 5505 0faf 01       		.byte	0x1
 5506 0fb0 50       		.byte	0x50
 5507 0fb1 02       		.byte	0x2
 5508 0fb2 74       		.byte	0x74
 5509 0fb3 00       		.sleb128 0
 5510 0fb4 12       		.uleb128 0x12
 5511 0fb5 02       		.byte	0x2
 5512 0fb6 7D       		.byte	0x7d
 5513 0fb7 00       		.sleb128 0
 5514 0fb8 02       		.byte	0x2
 5515 0fb9 75       		.byte	0x75
 5516 0fba 00       		.sleb128 0
 5517 0fbb 00       		.byte	0
 5518 0fbc 00       		.byte	0
 5519 0fbd 16       		.uleb128 0x16
 5520 0fbe 01       		.byte	0x1
 5521 0fbf 86000000 		.4byte	.LASF42
 5522 0fc3 01       		.byte	0x1
 5523 0fc4 3701     		.2byte	0x137
 5524 0fc6 01       		.byte	0x1
 5525 0fc7 00000000 		.4byte	.LFB48
 5526 0fcb 86000000 		.4byte	.LFE48
 5527 0fcf 880F0000 		.4byte	.LLST86
 5528 0fd3 01       		.byte	0x1
 5529 0fd4 02110000 		.4byte	0x1102
 5530 0fd8 17       		.uleb128 0x17
ARM GAS  C:\Users\Steve\AppData\Local\Temp\ccwjFJAL.s 			page 110


 5531 0fd9 783000   		.ascii	"x0\000"
 5532 0fdc 01       		.byte	0x1
 5533 0fdd 3701     		.2byte	0x137
 5534 0fdf 85000000 		.4byte	0x85
 5535 0fe3 B40F0000 		.4byte	.LLST87
 5536 0fe7 17       		.uleb128 0x17
 5537 0fe8 793000   		.ascii	"y0\000"
 5538 0feb 01       		.byte	0x1
 5539 0fec 3701     		.2byte	0x137
 5540 0fee 85000000 		.4byte	0x85
 5541 0ff2 D50F0000 		.4byte	.LLST88
 5542 0ff6 18       		.uleb128 0x18
 5543 0ff7 6300     		.ascii	"c\000"
 5544 0ff9 01       		.byte	0x1
 5545 0ffa 3701     		.2byte	0x137
 5546 0ffc 21010000 		.4byte	0x121
 5547 1000 02       		.byte	0x2
 5548 1001 91       		.byte	0x91
 5549 1002 64       		.sleb128 -28
 5550 1003 1B       		.uleb128 0x1b
 5551 1004 A0000000 		.4byte	.LASF17
 5552 1008 01       		.byte	0x1
 5553 1009 3701     		.2byte	0x137
 5554 100b B9010000 		.4byte	0x1b9
 5555 100f F60F0000 		.4byte	.LLST89
 5556 1013 15       		.uleb128 0x15
 5557 1014 1A000000 		.4byte	.LVL213
 5558 1018 E5080000 		.4byte	0x8e5
 5559 101c 33100000 		.4byte	0x1033
 5560 1020 12       		.uleb128 0x12
 5561 1021 01       		.byte	0x1
 5562 1022 52       		.byte	0x52
 5563 1023 01       		.byte	0x1
 5564 1024 35       		.byte	0x35
 5565 1025 12       		.uleb128 0x12
 5566 1026 01       		.byte	0x1
 5567 1027 51       		.byte	0x51
 5568 1028 02       		.byte	0x2
 5569 1029 76       		.byte	0x76
 5570 102a 00       		.sleb128 0
 5571 102b 12       		.uleb128 0x12
 5572 102c 02       		.byte	0x2
 5573 102d 7D       		.byte	0x7d
 5574 102e 00       		.sleb128 0
 5575 102f 02       		.byte	0x2
 5576 1030 74       		.byte	0x74
 5577 1031 00       		.sleb128 0
 5578 1032 00       		.byte	0
 5579 1033 15       		.uleb128 0x15
 5580 1034 2E000000 		.4byte	.LVL214
 5581 1038 6C080000 		.4byte	0x86c
 5582 103c 53100000 		.4byte	0x1053
 5583 1040 12       		.uleb128 0x12
 5584 1041 01       		.byte	0x1
 5585 1042 52       		.byte	0x52
 5586 1043 01       		.byte	0x1
 5587 1044 34       		.byte	0x34
ARM GAS  C:\Users\Steve\AppData\Local\Temp\ccwjFJAL.s 			page 111


 5588 1045 12       		.uleb128 0x12
 5589 1046 01       		.byte	0x1
 5590 1047 50       		.byte	0x50
 5591 1048 02       		.byte	0x2
 5592 1049 77       		.byte	0x77
 5593 104a 00       		.sleb128 0
 5594 104b 12       		.uleb128 0x12
 5595 104c 02       		.byte	0x2
 5596 104d 7D       		.byte	0x7d
 5597 104e 00       		.sleb128 0
 5598 104f 02       		.byte	0x2
 5599 1050 74       		.byte	0x74
 5600 1051 00       		.sleb128 0
 5601 1052 00       		.byte	0
 5602 1053 15       		.uleb128 0x15
 5603 1054 3E000000 		.4byte	.LVL215
 5604 1058 BF010000 		.4byte	0x1bf
 5605 105c 73100000 		.4byte	0x1073
 5606 1060 12       		.uleb128 0x12
 5607 1061 01       		.byte	0x1
 5608 1062 53       		.byte	0x53
 5609 1063 02       		.byte	0x2
 5610 1064 74       		.byte	0x74
 5611 1065 00       		.sleb128 0
 5612 1066 12       		.uleb128 0x12
 5613 1067 01       		.byte	0x1
 5614 1068 51       		.byte	0x51
 5615 1069 02       		.byte	0x2
 5616 106a 76       		.byte	0x76
 5617 106b 04       		.sleb128 4
 5618 106c 12       		.uleb128 0x12
 5619 106d 01       		.byte	0x1
 5620 106e 50       		.byte	0x50
 5621 106f 02       		.byte	0x2
 5622 1070 75       		.byte	0x75
 5623 1071 03       		.sleb128 3
 5624 1072 00       		.byte	0
 5625 1073 15       		.uleb128 0x15
 5626 1074 50000000 		.4byte	.LVL216
 5627 1078 E5080000 		.4byte	0x8e5
 5628 107c 99100000 		.4byte	0x1099
 5629 1080 12       		.uleb128 0x12
 5630 1081 01       		.byte	0x1
 5631 1082 52       		.byte	0x52
 5632 1083 01       		.byte	0x1
 5633 1084 32       		.byte	0x32
 5634 1085 12       		.uleb128 0x12
 5635 1086 01       		.byte	0x1
 5636 1087 51       		.byte	0x51
 5637 1088 02       		.byte	0x2
 5638 1089 76       		.byte	0x76
 5639 108a 05       		.sleb128 5
 5640 108b 12       		.uleb128 0x12
 5641 108c 01       		.byte	0x1
 5642 108d 50       		.byte	0x50
 5643 108e 02       		.byte	0x2
 5644 108f 75       		.byte	0x75
ARM GAS  C:\Users\Steve\AppData\Local\Temp\ccwjFJAL.s 			page 112


 5645 1090 02       		.sleb128 2
 5646 1091 12       		.uleb128 0x12
 5647 1092 02       		.byte	0x2
 5648 1093 7D       		.byte	0x7d
 5649 1094 00       		.sleb128 0
 5650 1095 02       		.byte	0x2
 5651 1096 74       		.byte	0x74
 5652 1097 00       		.sleb128 0
 5653 1098 00       		.byte	0
 5654 1099 15       		.uleb128 0x15
 5655 109a 60000000 		.4byte	.LVL217
 5656 109e 6C080000 		.4byte	0x86c
 5657 10a2 BF100000 		.4byte	0x10bf
 5658 10a6 12       		.uleb128 0x12
 5659 10a7 01       		.byte	0x1
 5660 10a8 52       		.byte	0x52
 5661 10a9 01       		.byte	0x1
 5662 10aa 35       		.byte	0x35
 5663 10ab 12       		.uleb128 0x12
 5664 10ac 01       		.byte	0x1
 5665 10ad 51       		.byte	0x51
 5666 10ae 02       		.byte	0x2
 5667 10af 76       		.byte	0x76
 5668 10b0 06       		.sleb128 6
 5669 10b1 12       		.uleb128 0x12
 5670 10b2 01       		.byte	0x1
 5671 10b3 50       		.byte	0x50
 5672 10b4 02       		.byte	0x2
 5673 10b5 77       		.byte	0x77
 5674 10b6 00       		.sleb128 0
 5675 10b7 12       		.uleb128 0x12
 5676 10b8 02       		.byte	0x2
 5677 10b9 7D       		.byte	0x7d
 5678 10ba 00       		.sleb128 0
 5679 10bb 02       		.byte	0x2
 5680 10bc 74       		.byte	0x74
 5681 10bd 00       		.sleb128 0
 5682 10be 00       		.byte	0
 5683 10bf 15       		.uleb128 0x15
 5684 10c0 76000000 		.4byte	.LVL218
 5685 10c4 E5080000 		.4byte	0x8e5
 5686 10c8 E5100000 		.4byte	0x10e5
 5687 10cc 12       		.uleb128 0x12
 5688 10cd 01       		.byte	0x1
 5689 10ce 52       		.byte	0x52
 5690 10cf 01       		.byte	0x1
 5691 10d0 33       		.byte	0x33
 5692 10d1 12       		.uleb128 0x12
 5693 10d2 01       		.byte	0x1
 5694 10d3 51       		.byte	0x51
 5695 10d4 02       		.byte	0x2
 5696 10d5 76       		.byte	0x76
 5697 10d6 01       		.sleb128 1
 5698 10d7 12       		.uleb128 0x12
 5699 10d8 01       		.byte	0x1
 5700 10d9 50       		.byte	0x50
 5701 10da 02       		.byte	0x2
ARM GAS  C:\Users\Steve\AppData\Local\Temp\ccwjFJAL.s 			page 113


 5702 10db 77       		.byte	0x77
 5703 10dc 00       		.sleb128 0
 5704 10dd 12       		.uleb128 0x12
 5705 10de 02       		.byte	0x2
 5706 10df 7D       		.byte	0x7d
 5707 10e0 00       		.sleb128 0
 5708 10e1 02       		.byte	0x2
 5709 10e2 74       		.byte	0x74
 5710 10e3 00       		.sleb128 0
 5711 10e4 00       		.byte	0
 5712 10e5 11       		.uleb128 0x11
 5713 10e6 82000000 		.4byte	.LVL219
 5714 10ea BF010000 		.4byte	0x1bf
 5715 10ee 12       		.uleb128 0x12
 5716 10ef 01       		.byte	0x1
 5717 10f0 53       		.byte	0x53
 5718 10f1 02       		.byte	0x2
 5719 10f2 74       		.byte	0x74
 5720 10f3 00       		.sleb128 0
 5721 10f4 12       		.uleb128 0x12
 5722 10f5 01       		.byte	0x1
 5723 10f6 51       		.byte	0x51
 5724 10f7 02       		.byte	0x2
 5725 10f8 76       		.byte	0x76
 5726 10f9 00       		.sleb128 0
 5727 10fa 12       		.uleb128 0x12
 5728 10fb 01       		.byte	0x1
 5729 10fc 50       		.byte	0x50
 5730 10fd 02       		.byte	0x2
 5731 10fe 75       		.byte	0x75
 5732 10ff 00       		.sleb128 0
 5733 1100 00       		.byte	0
 5734 1101 00       		.byte	0
 5735 1102 16       		.uleb128 0x16
 5736 1103 01       		.byte	0x1
 5737 1104 1A020000 		.4byte	.LASF43
 5738 1108 01       		.byte	0x1
 5739 1109 4201     		.2byte	0x142
 5740 110b 01       		.byte	0x1
 5741 110c 00000000 		.4byte	.LFB49
 5742 1110 3C000000 		.4byte	.LFE49
 5743 1114 22100000 		.4byte	.LLST90
 5744 1118 01       		.byte	0x1
 5745 1119 C7110000 		.4byte	0x11c7
 5746 111d 17       		.uleb128 0x17
 5747 111e 783000   		.ascii	"x0\000"
 5748 1121 01       		.byte	0x1
 5749 1122 4201     		.2byte	0x142
 5750 1124 85000000 		.4byte	0x85
 5751 1128 4E100000 		.4byte	.LLST91
 5752 112c 17       		.uleb128 0x17
 5753 112d 793000   		.ascii	"y0\000"
 5754 1130 01       		.byte	0x1
 5755 1131 4201     		.2byte	0x142
 5756 1133 85000000 		.4byte	0x85
 5757 1137 6F100000 		.4byte	.LLST92
 5758 113b 18       		.uleb128 0x18
ARM GAS  C:\Users\Steve\AppData\Local\Temp\ccwjFJAL.s 			page 114


 5759 113c 6300     		.ascii	"c\000"
 5760 113e 01       		.byte	0x1
 5761 113f 4201     		.2byte	0x142
 5762 1141 21010000 		.4byte	0x121
 5763 1145 02       		.byte	0x2
 5764 1146 91       		.byte	0x91
 5765 1147 64       		.sleb128 -28
 5766 1148 1B       		.uleb128 0x1b
 5767 1149 A0000000 		.4byte	.LASF17
 5768 114d 01       		.byte	0x1
 5769 114e 4201     		.2byte	0x142
 5770 1150 B9010000 		.4byte	0x1b9
 5771 1154 90100000 		.4byte	.LLST93
 5772 1158 15       		.uleb128 0x15
 5773 1159 18000000 		.4byte	.LVL223
 5774 115d 6C080000 		.4byte	0x86c
 5775 1161 7E110000 		.4byte	0x117e
 5776 1165 12       		.uleb128 0x12
 5777 1166 01       		.byte	0x1
 5778 1167 52       		.byte	0x52
 5779 1168 01       		.byte	0x1
 5780 1169 37       		.byte	0x37
 5781 116a 12       		.uleb128 0x12
 5782 116b 01       		.byte	0x1
 5783 116c 51       		.byte	0x51
 5784 116d 02       		.byte	0x2
 5785 116e 74       		.byte	0x74
 5786 116f 00       		.sleb128 0
 5787 1170 12       		.uleb128 0x12
 5788 1171 01       		.byte	0x1
 5789 1172 50       		.byte	0x50
 5790 1173 02       		.byte	0x2
 5791 1174 76       		.byte	0x76
 5792 1175 00       		.sleb128 0
 5793 1176 12       		.uleb128 0x12
 5794 1177 02       		.byte	0x2
 5795 1178 7D       		.byte	0x7d
 5796 1179 00       		.sleb128 0
 5797 117a 02       		.byte	0x2
 5798 117b 75       		.byte	0x75
 5799 117c 00       		.sleb128 0
 5800 117d 00       		.byte	0
 5801 117e 15       		.uleb128 0x15
 5802 117f 2A000000 		.4byte	.LVL224
 5803 1183 E5080000 		.4byte	0x8e5
 5804 1187 A4110000 		.4byte	0x11a4
 5805 118b 12       		.uleb128 0x12
 5806 118c 01       		.byte	0x1
 5807 118d 52       		.byte	0x52
 5808 118e 01       		.byte	0x1
 5809 118f 35       		.byte	0x35
 5810 1190 12       		.uleb128 0x12
 5811 1191 01       		.byte	0x1
 5812 1192 51       		.byte	0x51
 5813 1193 02       		.byte	0x2
 5814 1194 74       		.byte	0x74
 5815 1195 06       		.sleb128 6
ARM GAS  C:\Users\Steve\AppData\Local\Temp\ccwjFJAL.s 			page 115


 5816 1196 12       		.uleb128 0x12
 5817 1197 01       		.byte	0x1
 5818 1198 50       		.byte	0x50
 5819 1199 02       		.byte	0x2
 5820 119a 76       		.byte	0x76
 5821 119b 7D       		.sleb128 -3
 5822 119c 12       		.uleb128 0x12
 5823 119d 02       		.byte	0x2
 5824 119e 7D       		.byte	0x7d
 5825 119f 00       		.sleb128 0
 5826 11a0 02       		.byte	0x2
 5827 11a1 75       		.byte	0x75
 5828 11a2 00       		.sleb128 0
 5829 11a3 00       		.byte	0
 5830 11a4 11       		.uleb128 0x11
 5831 11a5 38000000 		.4byte	.LVL225
 5832 11a9 6C080000 		.4byte	0x86c
 5833 11ad 12       		.uleb128 0x12
 5834 11ae 01       		.byte	0x1
 5835 11af 52       		.byte	0x52
 5836 11b0 01       		.byte	0x1
 5837 11b1 3C       		.byte	0x3c
 5838 11b2 12       		.uleb128 0x12
 5839 11b3 01       		.byte	0x1
 5840 11b4 51       		.byte	0x51
 5841 11b5 02       		.byte	0x2
 5842 11b6 74       		.byte	0x74
 5843 11b7 00       		.sleb128 0
 5844 11b8 12       		.uleb128 0x12
 5845 11b9 01       		.byte	0x1
 5846 11ba 50       		.byte	0x50
 5847 11bb 02       		.byte	0x2
 5848 11bc 76       		.byte	0x76
 5849 11bd 00       		.sleb128 0
 5850 11be 12       		.uleb128 0x12
 5851 11bf 02       		.byte	0x2
 5852 11c0 7D       		.byte	0x7d
 5853 11c1 00       		.sleb128 0
 5854 11c2 02       		.byte	0x2
 5855 11c3 75       		.byte	0x75
 5856 11c4 00       		.sleb128 0
 5857 11c5 00       		.byte	0
 5858 11c6 00       		.byte	0
 5859 11c7 16       		.uleb128 0x16
 5860 11c8 01       		.byte	0x1
 5861 11c9 6A020000 		.4byte	.LASF44
 5862 11cd 01       		.byte	0x1
 5863 11ce 4901     		.2byte	0x149
 5864 11d0 01       		.byte	0x1
 5865 11d1 00000000 		.4byte	.LFB50
 5866 11d5 76000000 		.4byte	.LFE50
 5867 11d9 BC100000 		.4byte	.LLST94
 5868 11dd 01       		.byte	0x1
 5869 11de EC120000 		.4byte	0x12ec
 5870 11e2 17       		.uleb128 0x17
 5871 11e3 783000   		.ascii	"x0\000"
 5872 11e6 01       		.byte	0x1
ARM GAS  C:\Users\Steve\AppData\Local\Temp\ccwjFJAL.s 			page 116


 5873 11e7 4901     		.2byte	0x149
 5874 11e9 85000000 		.4byte	0x85
 5875 11ed E8100000 		.4byte	.LLST95
 5876 11f1 17       		.uleb128 0x17
 5877 11f2 793000   		.ascii	"y0\000"
 5878 11f5 01       		.byte	0x1
 5879 11f6 4901     		.2byte	0x149
 5880 11f8 85000000 		.4byte	0x85
 5881 11fc 09110000 		.4byte	.LLST96
 5882 1200 18       		.uleb128 0x18
 5883 1201 6300     		.ascii	"c\000"
 5884 1203 01       		.byte	0x1
 5885 1204 4901     		.2byte	0x149
 5886 1206 21010000 		.4byte	0x121
 5887 120a 02       		.byte	0x2
 5888 120b 91       		.byte	0x91
 5889 120c 64       		.sleb128 -28
 5890 120d 1B       		.uleb128 0x1b
 5891 120e A0000000 		.4byte	.LASF17
 5892 1212 01       		.byte	0x1
 5893 1213 4901     		.2byte	0x149
 5894 1215 B9010000 		.4byte	0x1b9
 5895 1219 2A110000 		.4byte	.LLST97
 5896 121d 15       		.uleb128 0x15
 5897 121e 1A000000 		.4byte	.LVL229
 5898 1222 E5080000 		.4byte	0x8e5
 5899 1226 3D120000 		.4byte	0x123d
 5900 122a 12       		.uleb128 0x12
 5901 122b 01       		.byte	0x1
 5902 122c 52       		.byte	0x52
 5903 122d 01       		.byte	0x1
 5904 122e 35       		.byte	0x35
 5905 122f 12       		.uleb128 0x12
 5906 1230 01       		.byte	0x1
 5907 1231 50       		.byte	0x50
 5908 1232 02       		.byte	0x2
 5909 1233 76       		.byte	0x76
 5910 1234 00       		.sleb128 0
 5911 1235 12       		.uleb128 0x12
 5912 1236 02       		.byte	0x2
 5913 1237 7D       		.byte	0x7d
 5914 1238 00       		.sleb128 0
 5915 1239 02       		.byte	0x2
 5916 123a 74       		.byte	0x74
 5917 123b 00       		.sleb128 0
 5918 123c 00       		.byte	0
 5919 123d 15       		.uleb128 0x15
 5920 123e 2C000000 		.4byte	.LVL230
 5921 1242 6C080000 		.4byte	0x86c
 5922 1246 5D120000 		.4byte	0x125d
 5923 124a 12       		.uleb128 0x12
 5924 124b 01       		.byte	0x1
 5925 124c 52       		.byte	0x52
 5926 124d 01       		.byte	0x1
 5927 124e 36       		.byte	0x36
 5928 124f 12       		.uleb128 0x12
 5929 1250 01       		.byte	0x1
ARM GAS  C:\Users\Steve\AppData\Local\Temp\ccwjFJAL.s 			page 117


 5930 1251 51       		.byte	0x51
 5931 1252 02       		.byte	0x2
 5932 1253 75       		.byte	0x75
 5933 1254 01       		.sleb128 1
 5934 1255 12       		.uleb128 0x12
 5935 1256 02       		.byte	0x2
 5936 1257 7D       		.byte	0x7d
 5937 1258 00       		.sleb128 0
 5938 1259 02       		.byte	0x2
 5939 125a 74       		.byte	0x74
 5940 125b 00       		.sleb128 0
 5941 125c 00       		.byte	0
 5942 125d 15       		.uleb128 0x15
 5943 125e 40000000 		.4byte	.LVL231
 5944 1262 E5080000 		.4byte	0x8e5
 5945 1266 83120000 		.4byte	0x1283
 5946 126a 12       		.uleb128 0x12
 5947 126b 01       		.byte	0x1
 5948 126c 52       		.byte	0x52
 5949 126d 01       		.byte	0x1
 5950 126e 33       		.byte	0x33
 5951 126f 12       		.uleb128 0x12
 5952 1270 01       		.byte	0x1
 5953 1271 51       		.byte	0x51
 5954 1272 02       		.byte	0x2
 5955 1273 75       		.byte	0x75
 5956 1274 05       		.sleb128 5
 5957 1275 12       		.uleb128 0x12
 5958 1276 01       		.byte	0x1
 5959 1277 50       		.byte	0x50
 5960 1278 02       		.byte	0x2
 5961 1279 77       		.byte	0x77
 5962 127a 00       		.sleb128 0
 5963 127b 12       		.uleb128 0x12
 5964 127c 02       		.byte	0x2
 5965 127d 7D       		.byte	0x7d
 5966 127e 00       		.sleb128 0
 5967 127f 02       		.byte	0x2
 5968 1280 74       		.byte	0x74
 5969 1281 00       		.sleb128 0
 5970 1282 00       		.byte	0
 5971 1283 15       		.uleb128 0x15
 5972 1284 52000000 		.4byte	.LVL232
 5973 1288 6C080000 		.4byte	0x86c
 5974 128c A9120000 		.4byte	0x12a9
 5975 1290 12       		.uleb128 0x12
 5976 1291 01       		.byte	0x1
 5977 1292 52       		.byte	0x52
 5978 1293 01       		.byte	0x1
 5979 1294 35       		.byte	0x35
 5980 1295 12       		.uleb128 0x12
 5981 1296 01       		.byte	0x1
 5982 1297 51       		.byte	0x51
 5983 1298 02       		.byte	0x2
 5984 1299 75       		.byte	0x75
 5985 129a 06       		.sleb128 6
 5986 129b 12       		.uleb128 0x12
ARM GAS  C:\Users\Steve\AppData\Local\Temp\ccwjFJAL.s 			page 118


 5987 129c 01       		.byte	0x1
 5988 129d 50       		.byte	0x50
 5989 129e 02       		.byte	0x2
 5990 129f 76       		.byte	0x76
 5991 12a0 04       		.sleb128 4
 5992 12a1 12       		.uleb128 0x12
 5993 12a2 02       		.byte	0x2
 5994 12a3 7D       		.byte	0x7d
 5995 12a4 00       		.sleb128 0
 5996 12a5 02       		.byte	0x2
 5997 12a6 74       		.byte	0x74
 5998 12a7 00       		.sleb128 0
 5999 12a8 00       		.byte	0
 6000 12a9 15       		.uleb128 0x15
 6001 12aa 66000000 		.4byte	.LVL233
 6002 12ae E5080000 		.4byte	0x8e5
 6003 12b2 CF120000 		.4byte	0x12cf
 6004 12b6 12       		.uleb128 0x12
 6005 12b7 01       		.byte	0x1
 6006 12b8 52       		.byte	0x52
 6007 12b9 01       		.byte	0x1
 6008 12ba 33       		.byte	0x33
 6009 12bb 12       		.uleb128 0x12
 6010 12bc 01       		.byte	0x1
 6011 12bd 51       		.byte	0x51
 6012 12be 02       		.byte	0x2
 6013 12bf 75       		.byte	0x75
 6014 12c0 01       		.sleb128 1
 6015 12c1 12       		.uleb128 0x12
 6016 12c2 01       		.byte	0x1
 6017 12c3 50       		.byte	0x50
 6018 12c4 02       		.byte	0x2
 6019 12c5 77       		.byte	0x77
 6020 12c6 00       		.sleb128 0
 6021 12c7 12       		.uleb128 0x12
 6022 12c8 02       		.byte	0x2
 6023 12c9 7D       		.byte	0x7d
 6024 12ca 00       		.sleb128 0
 6025 12cb 02       		.byte	0x2
 6026 12cc 74       		.byte	0x74
 6027 12cd 00       		.sleb128 0
 6028 12ce 00       		.byte	0
 6029 12cf 11       		.uleb128 0x11
 6030 12d0 72000000 		.4byte	.LVL234
 6031 12d4 BF010000 		.4byte	0x1bf
 6032 12d8 12       		.uleb128 0x12
 6033 12d9 01       		.byte	0x1
 6034 12da 53       		.byte	0x53
 6035 12db 02       		.byte	0x2
 6036 12dc 74       		.byte	0x74
 6037 12dd 00       		.sleb128 0
 6038 12de 12       		.uleb128 0x12
 6039 12df 01       		.byte	0x1
 6040 12e0 51       		.byte	0x51
 6041 12e1 02       		.byte	0x2
 6042 12e2 75       		.byte	0x75
 6043 12e3 00       		.sleb128 0
ARM GAS  C:\Users\Steve\AppData\Local\Temp\ccwjFJAL.s 			page 119


 6044 12e4 12       		.uleb128 0x12
 6045 12e5 01       		.byte	0x1
 6046 12e6 50       		.byte	0x50
 6047 12e7 02       		.byte	0x2
 6048 12e8 76       		.byte	0x76
 6049 12e9 00       		.sleb128 0
 6050 12ea 00       		.byte	0
 6051 12eb 00       		.byte	0
 6052 12ec 16       		.uleb128 0x16
 6053 12ed 01       		.byte	0x1
 6054 12ee 3F020000 		.4byte	.LASF45
 6055 12f2 01       		.byte	0x1
 6056 12f3 5401     		.2byte	0x154
 6057 12f5 01       		.byte	0x1
 6058 12f6 00000000 		.4byte	.LFB51
 6059 12fa 70000000 		.4byte	.LFE51
 6060 12fe 56110000 		.4byte	.LLST98
 6061 1302 01       		.byte	0x1
 6062 1303 F7130000 		.4byte	0x13f7
 6063 1307 17       		.uleb128 0x17
 6064 1308 783000   		.ascii	"x0\000"
 6065 130b 01       		.byte	0x1
 6066 130c 5401     		.2byte	0x154
 6067 130e 85000000 		.4byte	0x85
 6068 1312 8E110000 		.4byte	.LLST99
 6069 1316 17       		.uleb128 0x17
 6070 1317 793000   		.ascii	"y0\000"
 6071 131a 01       		.byte	0x1
 6072 131b 5401     		.2byte	0x154
 6073 131d 85000000 		.4byte	0x85
 6074 1321 C7110000 		.4byte	.LLST100
 6075 1325 18       		.uleb128 0x18
 6076 1326 6300     		.ascii	"c\000"
 6077 1328 01       		.byte	0x1
 6078 1329 5401     		.2byte	0x154
 6079 132b 21010000 		.4byte	0x121
 6080 132f 02       		.byte	0x2
 6081 1330 91       		.byte	0x91
 6082 1331 64       		.sleb128 -28
 6083 1332 1B       		.uleb128 0x1b
 6084 1333 A0000000 		.4byte	.LASF17
 6085 1337 01       		.byte	0x1
 6086 1338 5401     		.2byte	0x154
 6087 133a B9010000 		.4byte	0x1b9
 6088 133e E8110000 		.4byte	.LLST101
 6089 1342 15       		.uleb128 0x15
 6090 1343 26000000 		.4byte	.LVL239
 6091 1347 E5080000 		.4byte	0x8e5
 6092 134b 62130000 		.4byte	0x1362
 6093 134f 12       		.uleb128 0x12
 6094 1350 01       		.byte	0x1
 6095 1351 52       		.byte	0x52
 6096 1352 01       		.byte	0x1
 6097 1353 34       		.byte	0x34
 6098 1354 12       		.uleb128 0x12
 6099 1355 01       		.byte	0x1
 6100 1356 50       		.byte	0x50
ARM GAS  C:\Users\Steve\AppData\Local\Temp\ccwjFJAL.s 			page 120


 6101 1357 02       		.byte	0x2
 6102 1358 76       		.byte	0x76
 6103 1359 00       		.sleb128 0
 6104 135a 12       		.uleb128 0x12
 6105 135b 02       		.byte	0x2
 6106 135c 7D       		.byte	0x7d
 6107 135d 00       		.sleb128 0
 6108 135e 02       		.byte	0x2
 6109 135f 74       		.byte	0x74
 6110 1360 00       		.sleb128 0
 6111 1361 00       		.byte	0
 6112 1362 15       		.uleb128 0x15
 6113 1363 36000000 		.4byte	.LVL240
 6114 1367 6C080000 		.4byte	0x86c
 6115 136b 88130000 		.4byte	0x1388
 6116 136f 12       		.uleb128 0x12
 6117 1370 01       		.byte	0x1
 6118 1371 52       		.byte	0x52
 6119 1372 01       		.byte	0x1
 6120 1373 3A       		.byte	0x3a
 6121 1374 12       		.uleb128 0x12
 6122 1375 01       		.byte	0x1
 6123 1376 51       		.byte	0x51
 6124 1377 02       		.byte	0x2
 6125 1378 75       		.byte	0x75
 6126 1379 01       		.sleb128 1
 6127 137a 12       		.uleb128 0x12
 6128 137b 01       		.byte	0x1
 6129 137c 50       		.byte	0x50
 6130 137d 02       		.byte	0x2
 6131 137e 78       		.byte	0x78
 6132 137f 00       		.sleb128 0
 6133 1380 12       		.uleb128 0x12
 6134 1381 02       		.byte	0x2
 6135 1382 7D       		.byte	0x7d
 6136 1383 00       		.sleb128 0
 6137 1384 02       		.byte	0x2
 6138 1385 74       		.byte	0x74
 6139 1386 00       		.sleb128 0
 6140 1387 00       		.byte	0
 6141 1388 15       		.uleb128 0x15
 6142 1389 46000000 		.4byte	.LVL241
 6143 138d E5080000 		.4byte	0x8e5
 6144 1391 AE130000 		.4byte	0x13ae
 6145 1395 12       		.uleb128 0x12
 6146 1396 01       		.byte	0x1
 6147 1397 52       		.byte	0x52
 6148 1398 01       		.byte	0x1
 6149 1399 33       		.byte	0x33
 6150 139a 12       		.uleb128 0x12
 6151 139b 01       		.byte	0x1
 6152 139c 51       		.byte	0x51
 6153 139d 02       		.byte	0x2
 6154 139e 75       		.byte	0x75
 6155 139f 05       		.sleb128 5
 6156 13a0 12       		.uleb128 0x12
 6157 13a1 01       		.byte	0x1
ARM GAS  C:\Users\Steve\AppData\Local\Temp\ccwjFJAL.s 			page 121


 6158 13a2 50       		.byte	0x50
 6159 13a3 02       		.byte	0x2
 6160 13a4 76       		.byte	0x76
 6161 13a5 00       		.sleb128 0
 6162 13a6 12       		.uleb128 0x12
 6163 13a7 02       		.byte	0x2
 6164 13a8 7D       		.byte	0x7d
 6165 13a9 00       		.sleb128 0
 6166 13aa 02       		.byte	0x2
 6167 13ab 74       		.byte	0x74
 6168 13ac 00       		.sleb128 0
 6169 13ad 00       		.byte	0
 6170 13ae 15       		.uleb128 0x15
 6171 13af 5A000000 		.4byte	.LVL243
 6172 13b3 6C080000 		.4byte	0x86c
 6173 13b7 D4130000 		.4byte	0x13d4
 6174 13bb 12       		.uleb128 0x12
 6175 13bc 01       		.byte	0x1
 6176 13bd 52       		.byte	0x52
 6177 13be 01       		.byte	0x1
 6178 13bf 35       		.byte	0x35
 6179 13c0 12       		.uleb128 0x12
 6180 13c1 01       		.byte	0x1
 6181 13c2 51       		.byte	0x51
 6182 13c3 02       		.byte	0x2
 6183 13c4 75       		.byte	0x75
 6184 13c5 7B       		.sleb128 -5
 6185 13c6 12       		.uleb128 0x12
 6186 13c7 01       		.byte	0x1
 6187 13c8 50       		.byte	0x50
 6188 13c9 02       		.byte	0x2
 6189 13ca 77       		.byte	0x77
 6190 13cb 00       		.sleb128 0
 6191 13cc 12       		.uleb128 0x12
 6192 13cd 02       		.byte	0x2
 6193 13ce 7D       		.byte	0x7d
 6194 13cf 00       		.sleb128 0
 6195 13d0 02       		.byte	0x2
 6196 13d1 74       		.byte	0x74
 6197 13d2 00       		.sleb128 0
 6198 13d3 00       		.byte	0
 6199 13d4 11       		.uleb128 0x11
 6200 13d5 68000000 		.4byte	.LVL244
 6201 13d9 E5080000 		.4byte	0x8e5
 6202 13dd 12       		.uleb128 0x12
 6203 13de 01       		.byte	0x1
 6204 13df 52       		.byte	0x52
 6205 13e0 01       		.byte	0x1
 6206 13e1 33       		.byte	0x33
 6207 13e2 12       		.uleb128 0x12
 6208 13e3 01       		.byte	0x1
 6209 13e4 51       		.byte	0x51
 6210 13e5 02       		.byte	0x2
 6211 13e6 75       		.byte	0x75
 6212 13e7 00       		.sleb128 0
 6213 13e8 12       		.uleb128 0x12
 6214 13e9 01       		.byte	0x1
ARM GAS  C:\Users\Steve\AppData\Local\Temp\ccwjFJAL.s 			page 122


 6215 13ea 50       		.byte	0x50
 6216 13eb 02       		.byte	0x2
 6217 13ec 76       		.byte	0x76
 6218 13ed 00       		.sleb128 0
 6219 13ee 12       		.uleb128 0x12
 6220 13ef 02       		.byte	0x2
 6221 13f0 7D       		.byte	0x7d
 6222 13f1 00       		.sleb128 0
 6223 13f2 02       		.byte	0x2
 6224 13f3 74       		.byte	0x74
 6225 13f4 00       		.sleb128 0
 6226 13f5 00       		.byte	0
 6227 13f6 00       		.byte	0
 6228 13f7 16       		.uleb128 0x16
 6229 13f8 01       		.byte	0x1
 6230 13f9 7C000000 		.4byte	.LASF46
 6231 13fd 01       		.byte	0x1
 6232 13fe 5D01     		.2byte	0x15d
 6233 1400 01       		.byte	0x1
 6234 1401 00000000 		.4byte	.LFB52
 6235 1405 3A000000 		.4byte	.LFE52
 6236 1409 14120000 		.4byte	.LLST102
 6237 140d 01       		.byte	0x1
 6238 140e B6140000 		.4byte	0x14b6
 6239 1412 17       		.uleb128 0x17
 6240 1413 783000   		.ascii	"x0\000"
 6241 1416 01       		.byte	0x1
 6242 1417 5D01     		.2byte	0x15d
 6243 1419 85000000 		.4byte	0x85
 6244 141d 40120000 		.4byte	.LLST103
 6245 1421 17       		.uleb128 0x17
 6246 1422 793000   		.ascii	"y0\000"
 6247 1425 01       		.byte	0x1
 6248 1426 5D01     		.2byte	0x15d
 6249 1428 85000000 		.4byte	0x85
 6250 142c 6E120000 		.4byte	.LLST104
 6251 1430 18       		.uleb128 0x18
 6252 1431 6300     		.ascii	"c\000"
 6253 1433 01       		.byte	0x1
 6254 1434 5D01     		.2byte	0x15d
 6255 1436 21010000 		.4byte	0x121
 6256 143a 02       		.byte	0x2
 6257 143b 91       		.byte	0x91
 6258 143c 64       		.sleb128 -28
 6259 143d 1B       		.uleb128 0x1b
 6260 143e A0000000 		.4byte	.LASF17
 6261 1442 01       		.byte	0x1
 6262 1443 5D01     		.2byte	0x15d
 6263 1445 B9010000 		.4byte	0x1b9
 6264 1449 8F120000 		.4byte	.LLST105
 6265 144d 15       		.uleb128 0x15
 6266 144e 1A000000 		.4byte	.LVL249
 6267 1452 BF010000 		.4byte	0x1bf
 6268 1456 6D140000 		.4byte	0x146d
 6269 145a 12       		.uleb128 0x12
 6270 145b 01       		.byte	0x1
 6271 145c 53       		.byte	0x53
ARM GAS  C:\Users\Steve\AppData\Local\Temp\ccwjFJAL.s 			page 123


 6272 145d 02       		.byte	0x2
 6273 145e 75       		.byte	0x75
 6274 145f 00       		.sleb128 0
 6275 1460 12       		.uleb128 0x12
 6276 1461 01       		.byte	0x1
 6277 1462 51       		.byte	0x51
 6278 1463 02       		.byte	0x2
 6279 1464 74       		.byte	0x74
 6280 1465 01       		.sleb128 1
 6281 1466 12       		.uleb128 0x12
 6282 1467 01       		.byte	0x1
 6283 1468 50       		.byte	0x50
 6284 1469 02       		.byte	0x2
 6285 146a 76       		.byte	0x76
 6286 146b 7C       		.sleb128 -4
 6287 146c 00       		.byte	0
 6288 146d 15       		.uleb128 0x15
 6289 146e 28000000 		.4byte	.LVL250
 6290 1472 E5080000 		.4byte	0x8e5
 6291 1476 93140000 		.4byte	0x1493
 6292 147a 12       		.uleb128 0x12
 6293 147b 01       		.byte	0x1
 6294 147c 52       		.byte	0x52
 6295 147d 01       		.byte	0x1
 6296 147e 35       		.byte	0x35
 6297 147f 12       		.uleb128 0x12
 6298 1480 01       		.byte	0x1
 6299 1481 51       		.byte	0x51
 6300 1482 02       		.byte	0x2
 6301 1483 74       		.byte	0x74
 6302 1484 00       		.sleb128 0
 6303 1485 12       		.uleb128 0x12
 6304 1486 01       		.byte	0x1
 6305 1487 50       		.byte	0x50
 6306 1488 02       		.byte	0x2
 6307 1489 77       		.byte	0x77
 6308 148a 00       		.sleb128 0
 6309 148b 12       		.uleb128 0x12
 6310 148c 02       		.byte	0x2
 6311 148d 7D       		.byte	0x7d
 6312 148e 00       		.sleb128 0
 6313 148f 02       		.byte	0x2
 6314 1490 75       		.byte	0x75
 6315 1491 00       		.sleb128 0
 6316 1492 00       		.byte	0
 6317 1493 11       		.uleb128 0x11
 6318 1494 36000000 		.4byte	.LVL251
 6319 1498 6C080000 		.4byte	0x86c
 6320 149c 12       		.uleb128 0x12
 6321 149d 01       		.byte	0x1
 6322 149e 52       		.byte	0x52
 6323 149f 01       		.byte	0x1
 6324 14a0 3C       		.byte	0x3c
 6325 14a1 12       		.uleb128 0x12
 6326 14a2 01       		.byte	0x1
 6327 14a3 51       		.byte	0x51
 6328 14a4 02       		.byte	0x2
ARM GAS  C:\Users\Steve\AppData\Local\Temp\ccwjFJAL.s 			page 124


 6329 14a5 74       		.byte	0x74
 6330 14a6 00       		.sleb128 0
 6331 14a7 12       		.uleb128 0x12
 6332 14a8 01       		.byte	0x1
 6333 14a9 50       		.byte	0x50
 6334 14aa 02       		.byte	0x2
 6335 14ab 76       		.byte	0x76
 6336 14ac 00       		.sleb128 0
 6337 14ad 12       		.uleb128 0x12
 6338 14ae 02       		.byte	0x2
 6339 14af 7D       		.byte	0x7d
 6340 14b0 00       		.sleb128 0
 6341 14b1 02       		.byte	0x2
 6342 14b2 75       		.byte	0x75
 6343 14b3 00       		.sleb128 0
 6344 14b4 00       		.byte	0
 6345 14b5 00       		.byte	0
 6346 14b6 16       		.uleb128 0x16
 6347 14b7 01       		.byte	0x1
 6348 14b8 18000000 		.4byte	.LASF47
 6349 14bc 01       		.byte	0x1
 6350 14bd 6301     		.2byte	0x163
 6351 14bf 01       		.byte	0x1
 6352 14c0 00000000 		.4byte	.LFB53
 6353 14c4 A0000000 		.4byte	.LFE53
 6354 14c8 BB120000 		.4byte	.LLST106
 6355 14cc 01       		.byte	0x1
 6356 14cd 0D160000 		.4byte	0x160d
 6357 14d1 17       		.uleb128 0x17
 6358 14d2 783000   		.ascii	"x0\000"
 6359 14d5 01       		.byte	0x1
 6360 14d6 6301     		.2byte	0x163
 6361 14d8 85000000 		.4byte	0x85
 6362 14dc F3120000 		.4byte	.LLST107
 6363 14e0 17       		.uleb128 0x17
 6364 14e1 793000   		.ascii	"y0\000"
 6365 14e4 01       		.byte	0x1
 6366 14e5 6301     		.2byte	0x163
 6367 14e7 85000000 		.4byte	0x85
 6368 14eb 2A130000 		.4byte	.LLST108
 6369 14ef 18       		.uleb128 0x18
 6370 14f0 6300     		.ascii	"c\000"
 6371 14f2 01       		.byte	0x1
 6372 14f3 6301     		.2byte	0x163
 6373 14f5 21010000 		.4byte	0x121
 6374 14f9 02       		.byte	0x2
 6375 14fa 91       		.byte	0x91
 6376 14fb 5C       		.sleb128 -36
 6377 14fc 1B       		.uleb128 0x1b
 6378 14fd A0000000 		.4byte	.LASF17
 6379 1501 01       		.byte	0x1
 6380 1502 6301     		.2byte	0x163
 6381 1504 B9010000 		.4byte	0x1b9
 6382 1508 4B130000 		.4byte	.LLST109
 6383 150c 15       		.uleb128 0x15
 6384 150d 2C000000 		.4byte	.LVL258
 6385 1511 E5080000 		.4byte	0x8e5
ARM GAS  C:\Users\Steve\AppData\Local\Temp\ccwjFJAL.s 			page 125


 6386 1515 2C150000 		.4byte	0x152c
 6387 1519 12       		.uleb128 0x12
 6388 151a 01       		.byte	0x1
 6389 151b 52       		.byte	0x52
 6390 151c 01       		.byte	0x1
 6391 151d 33       		.byte	0x33
 6392 151e 12       		.uleb128 0x12
 6393 151f 01       		.byte	0x1
 6394 1520 50       		.byte	0x50
 6395 1521 02       		.byte	0x2
 6396 1522 77       		.byte	0x77
 6397 1523 00       		.sleb128 0
 6398 1524 12       		.uleb128 0x12
 6399 1525 02       		.byte	0x2
 6400 1526 7D       		.byte	0x7d
 6401 1527 00       		.sleb128 0
 6402 1528 02       		.byte	0x2
 6403 1529 74       		.byte	0x74
 6404 152a 00       		.sleb128 0
 6405 152b 00       		.byte	0
 6406 152c 15       		.uleb128 0x15
 6407 152d 3C000000 		.4byte	.LVL259
 6408 1531 E5080000 		.4byte	0x8e5
 6409 1535 52150000 		.4byte	0x1552
 6410 1539 12       		.uleb128 0x12
 6411 153a 01       		.byte	0x1
 6412 153b 52       		.byte	0x52
 6413 153c 01       		.byte	0x1
 6414 153d 33       		.byte	0x33
 6415 153e 12       		.uleb128 0x12
 6416 153f 01       		.byte	0x1
 6417 1540 51       		.byte	0x51
 6418 1541 02       		.byte	0x2
 6419 1542 75       		.byte	0x75
 6420 1543 05       		.sleb128 5
 6421 1544 12       		.uleb128 0x12
 6422 1545 01       		.byte	0x1
 6423 1546 50       		.byte	0x50
 6424 1547 02       		.byte	0x2
 6425 1548 77       		.byte	0x77
 6426 1549 00       		.sleb128 0
 6427 154a 12       		.uleb128 0x12
 6428 154b 02       		.byte	0x2
 6429 154c 7D       		.byte	0x7d
 6430 154d 00       		.sleb128 0
 6431 154e 02       		.byte	0x2
 6432 154f 74       		.byte	0x74
 6433 1550 00       		.sleb128 0
 6434 1551 00       		.byte	0
 6435 1552 15       		.uleb128 0x15
 6436 1553 4E000000 		.4byte	.LVL260
 6437 1557 E5080000 		.4byte	0x8e5
 6438 155b 78150000 		.4byte	0x1578
 6439 155f 12       		.uleb128 0x12
 6440 1560 01       		.byte	0x1
 6441 1561 52       		.byte	0x52
 6442 1562 01       		.byte	0x1
ARM GAS  C:\Users\Steve\AppData\Local\Temp\ccwjFJAL.s 			page 126


 6443 1563 33       		.byte	0x33
 6444 1564 12       		.uleb128 0x12
 6445 1565 01       		.byte	0x1
 6446 1566 51       		.byte	0x51
 6447 1567 02       		.byte	0x2
 6448 1568 75       		.byte	0x75
 6449 1569 0B       		.sleb128 11
 6450 156a 12       		.uleb128 0x12
 6451 156b 01       		.byte	0x1
 6452 156c 50       		.byte	0x50
 6453 156d 02       		.byte	0x2
 6454 156e 77       		.byte	0x77
 6455 156f 00       		.sleb128 0
 6456 1570 12       		.uleb128 0x12
 6457 1571 02       		.byte	0x2
 6458 1572 7D       		.byte	0x7d
 6459 1573 00       		.sleb128 0
 6460 1574 02       		.byte	0x2
 6461 1575 74       		.byte	0x74
 6462 1576 00       		.sleb128 0
 6463 1577 00       		.byte	0
 6464 1578 15       		.uleb128 0x15
 6465 1579 6A000000 		.4byte	.LVL261
 6466 157d 6C080000 		.4byte	0x86c
 6467 1581 9E150000 		.4byte	0x159e
 6468 1585 12       		.uleb128 0x12
 6469 1586 01       		.byte	0x1
 6470 1587 52       		.byte	0x52
 6471 1588 01       		.byte	0x1
 6472 1589 34       		.byte	0x34
 6473 158a 12       		.uleb128 0x12
 6474 158b 01       		.byte	0x1
 6475 158c 51       		.byte	0x51
 6476 158d 02       		.byte	0x2
 6477 158e 78       		.byte	0x78
 6478 158f 00       		.sleb128 0
 6479 1590 12       		.uleb128 0x12
 6480 1591 01       		.byte	0x1
 6481 1592 50       		.byte	0x50
 6482 1593 02       		.byte	0x2
 6483 1594 76       		.byte	0x76
 6484 1595 00       		.sleb128 0
 6485 1596 12       		.uleb128 0x12
 6486 1597 02       		.byte	0x2
 6487 1598 7D       		.byte	0x7d
 6488 1599 00       		.sleb128 0
 6489 159a 02       		.byte	0x2
 6490 159b 74       		.byte	0x74
 6491 159c 00       		.sleb128 0
 6492 159d 00       		.byte	0
 6493 159e 15       		.uleb128 0x15
 6494 159f 7A000000 		.4byte	.LVL262
 6495 15a3 6C080000 		.4byte	0x86c
 6496 15a7 C4150000 		.4byte	0x15c4
 6497 15ab 12       		.uleb128 0x12
 6498 15ac 01       		.byte	0x1
 6499 15ad 52       		.byte	0x52
ARM GAS  C:\Users\Steve\AppData\Local\Temp\ccwjFJAL.s 			page 127


 6500 15ae 01       		.byte	0x1
 6501 15af 34       		.byte	0x34
 6502 15b0 12       		.uleb128 0x12
 6503 15b1 01       		.byte	0x1
 6504 15b2 51       		.byte	0x51
 6505 15b3 02       		.byte	0x2
 6506 15b4 78       		.byte	0x78
 6507 15b5 00       		.sleb128 0
 6508 15b6 12       		.uleb128 0x12
 6509 15b7 01       		.byte	0x1
 6510 15b8 50       		.byte	0x50
 6511 15b9 02       		.byte	0x2
 6512 15ba 77       		.byte	0x77
 6513 15bb 00       		.sleb128 0
 6514 15bc 12       		.uleb128 0x12
 6515 15bd 02       		.byte	0x2
 6516 15be 7D       		.byte	0x7d
 6517 15bf 00       		.sleb128 0
 6518 15c0 02       		.byte	0x2
 6519 15c1 74       		.byte	0x74
 6520 15c2 00       		.sleb128 0
 6521 15c3 00       		.byte	0
 6522 15c4 15       		.uleb128 0x15
 6523 15c5 88000000 		.4byte	.LVL263
 6524 15c9 6C080000 		.4byte	0x86c
 6525 15cd EA150000 		.4byte	0x15ea
 6526 15d1 12       		.uleb128 0x12
 6527 15d2 01       		.byte	0x1
 6528 15d3 52       		.byte	0x52
 6529 15d4 01       		.byte	0x1
 6530 15d5 35       		.byte	0x35
 6531 15d6 12       		.uleb128 0x12
 6532 15d7 01       		.byte	0x1
 6533 15d8 51       		.byte	0x51
 6534 15d9 02       		.byte	0x2
 6535 15da 75       		.byte	0x75
 6536 15db 00       		.sleb128 0
 6537 15dc 12       		.uleb128 0x12
 6538 15dd 01       		.byte	0x1
 6539 15de 50       		.byte	0x50
 6540 15df 02       		.byte	0x2
 6541 15e0 76       		.byte	0x76
 6542 15e1 00       		.sleb128 0
 6543 15e2 12       		.uleb128 0x12
 6544 15e3 02       		.byte	0x2
 6545 15e4 7D       		.byte	0x7d
 6546 15e5 00       		.sleb128 0
 6547 15e6 02       		.byte	0x2
 6548 15e7 74       		.byte	0x74
 6549 15e8 00       		.sleb128 0
 6550 15e9 00       		.byte	0
 6551 15ea 11       		.uleb128 0x11
 6552 15eb 96000000 		.4byte	.LVL264
 6553 15ef 6C080000 		.4byte	0x86c
 6554 15f3 12       		.uleb128 0x12
 6555 15f4 01       		.byte	0x1
 6556 15f5 52       		.byte	0x52
ARM GAS  C:\Users\Steve\AppData\Local\Temp\ccwjFJAL.s 			page 128


 6557 15f6 01       		.byte	0x1
 6558 15f7 35       		.byte	0x35
 6559 15f8 12       		.uleb128 0x12
 6560 15f9 01       		.byte	0x1
 6561 15fa 51       		.byte	0x51
 6562 15fb 02       		.byte	0x2
 6563 15fc 75       		.byte	0x75
 6564 15fd 00       		.sleb128 0
 6565 15fe 12       		.uleb128 0x12
 6566 15ff 01       		.byte	0x1
 6567 1600 50       		.byte	0x50
 6568 1601 02       		.byte	0x2
 6569 1602 77       		.byte	0x77
 6570 1603 00       		.sleb128 0
 6571 1604 12       		.uleb128 0x12
 6572 1605 02       		.byte	0x2
 6573 1606 7D       		.byte	0x7d
 6574 1607 00       		.sleb128 0
 6575 1608 02       		.byte	0x2
 6576 1609 74       		.byte	0x74
 6577 160a 00       		.sleb128 0
 6578 160b 00       		.byte	0
 6579 160c 00       		.byte	0
 6580 160d 16       		.uleb128 0x16
 6581 160e 01       		.byte	0x1
 6582 160f 00000000 		.4byte	.LASF48
 6583 1613 01       		.byte	0x1
 6584 1614 6D01     		.2byte	0x16d
 6585 1616 01       		.byte	0x1
 6586 1617 00000000 		.4byte	.LFB54
 6587 161b 60000000 		.4byte	.LFE54
 6588 161f 77130000 		.4byte	.LLST110
 6589 1623 01       		.byte	0x1
 6590 1624 EC160000 		.4byte	0x16ec
 6591 1628 17       		.uleb128 0x17
 6592 1629 783000   		.ascii	"x0\000"
 6593 162c 01       		.byte	0x1
 6594 162d 6D01     		.2byte	0x16d
 6595 162f 85000000 		.4byte	0x85
 6596 1633 AF130000 		.4byte	.LLST111
 6597 1637 17       		.uleb128 0x17
 6598 1638 793000   		.ascii	"y0\000"
 6599 163b 01       		.byte	0x1
 6600 163c 6D01     		.2byte	0x16d
 6601 163e 85000000 		.4byte	0x85
 6602 1642 E8130000 		.4byte	.LLST112
 6603 1646 18       		.uleb128 0x18
 6604 1647 6300     		.ascii	"c\000"
 6605 1649 01       		.byte	0x1
 6606 164a 6D01     		.2byte	0x16d
 6607 164c 21010000 		.4byte	0x121
 6608 1650 02       		.byte	0x2
 6609 1651 91       		.byte	0x91
 6610 1652 64       		.sleb128 -28
 6611 1653 1B       		.uleb128 0x1b
 6612 1654 A0000000 		.4byte	.LASF17
 6613 1658 01       		.byte	0x1
ARM GAS  C:\Users\Steve\AppData\Local\Temp\ccwjFJAL.s 			page 129


 6614 1659 6D01     		.2byte	0x16d
 6615 165b B9010000 		.4byte	0x1b9
 6616 165f 09140000 		.4byte	.LLST113
 6617 1663 15       		.uleb128 0x15
 6618 1664 26000000 		.4byte	.LVL270
 6619 1668 E5080000 		.4byte	0x8e5
 6620 166c 83160000 		.4byte	0x1683
 6621 1670 12       		.uleb128 0x12
 6622 1671 01       		.byte	0x1
 6623 1672 52       		.byte	0x52
 6624 1673 01       		.byte	0x1
 6625 1674 33       		.byte	0x33
 6626 1675 12       		.uleb128 0x12
 6627 1676 01       		.byte	0x1
 6628 1677 50       		.byte	0x50
 6629 1678 02       		.byte	0x2
 6630 1679 78       		.byte	0x78
 6631 167a 00       		.sleb128 0
 6632 167b 12       		.uleb128 0x12
 6633 167c 02       		.byte	0x2
 6634 167d 7D       		.byte	0x7d
 6635 167e 00       		.sleb128 0
 6636 167f 02       		.byte	0x2
 6637 1680 74       		.byte	0x74
 6638 1681 00       		.sleb128 0
 6639 1682 00       		.byte	0
 6640 1683 15       		.uleb128 0x15
 6641 1684 3A000000 		.4byte	.LVL271
 6642 1688 E5080000 		.4byte	0x8e5
 6643 168c A3160000 		.4byte	0x16a3
 6644 1690 12       		.uleb128 0x12
 6645 1691 01       		.byte	0x1
 6646 1692 52       		.byte	0x52
 6647 1693 01       		.byte	0x1
 6648 1694 33       		.byte	0x33
 6649 1695 12       		.uleb128 0x12
 6650 1696 01       		.byte	0x1
 6651 1697 50       		.byte	0x50
 6652 1698 02       		.byte	0x2
 6653 1699 78       		.byte	0x78
 6654 169a 00       		.sleb128 0
 6655 169b 12       		.uleb128 0x12
 6656 169c 02       		.byte	0x2
 6657 169d 7D       		.byte	0x7d
 6658 169e 00       		.sleb128 0
 6659 169f 02       		.byte	0x2
 6660 16a0 74       		.byte	0x74
 6661 16a1 00       		.sleb128 0
 6662 16a2 00       		.byte	0
 6663 16a3 15       		.uleb128 0x15
 6664 16a4 4A000000 		.4byte	.LVL273
 6665 16a8 6C080000 		.4byte	0x86c
 6666 16ac C9160000 		.4byte	0x16c9
 6667 16b0 12       		.uleb128 0x12
 6668 16b1 01       		.byte	0x1
 6669 16b2 52       		.byte	0x52
 6670 16b3 01       		.byte	0x1
ARM GAS  C:\Users\Steve\AppData\Local\Temp\ccwjFJAL.s 			page 130


 6671 16b4 34       		.byte	0x34
 6672 16b5 12       		.uleb128 0x12
 6673 16b6 01       		.byte	0x1
 6674 16b7 51       		.byte	0x51
 6675 16b8 02       		.byte	0x2
 6676 16b9 75       		.byte	0x75
 6677 16ba 00       		.sleb128 0
 6678 16bb 12       		.uleb128 0x12
 6679 16bc 01       		.byte	0x1
 6680 16bd 50       		.byte	0x50
 6681 16be 02       		.byte	0x2
 6682 16bf 77       		.byte	0x77
 6683 16c0 00       		.sleb128 0
 6684 16c1 12       		.uleb128 0x12
 6685 16c2 02       		.byte	0x2
 6686 16c3 7D       		.byte	0x7d
 6687 16c4 00       		.sleb128 0
 6688 16c5 02       		.byte	0x2
 6689 16c6 74       		.byte	0x74
 6690 16c7 00       		.sleb128 0
 6691 16c8 00       		.byte	0
 6692 16c9 11       		.uleb128 0x11
 6693 16ca 58000000 		.4byte	.LVL274
 6694 16ce 6C080000 		.4byte	0x86c
 6695 16d2 12       		.uleb128 0x12
 6696 16d3 01       		.byte	0x1
 6697 16d4 52       		.byte	0x52
 6698 16d5 01       		.byte	0x1
 6699 16d6 3B       		.byte	0x3b
 6700 16d7 12       		.uleb128 0x12
 6701 16d8 01       		.byte	0x1
 6702 16d9 51       		.byte	0x51
 6703 16da 02       		.byte	0x2
 6704 16db 75       		.byte	0x75
 6705 16dc 00       		.sleb128 0
 6706 16dd 12       		.uleb128 0x12
 6707 16de 01       		.byte	0x1
 6708 16df 50       		.byte	0x50
 6709 16e0 02       		.byte	0x2
 6710 16e1 76       		.byte	0x76
 6711 16e2 00       		.sleb128 0
 6712 16e3 12       		.uleb128 0x12
 6713 16e4 02       		.byte	0x2
 6714 16e5 7D       		.byte	0x7d
 6715 16e6 00       		.sleb128 0
 6716 16e7 02       		.byte	0x2
 6717 16e8 74       		.byte	0x74
 6718 16e9 00       		.sleb128 0
 6719 16ea 00       		.byte	0
 6720 16eb 00       		.byte	0
 6721 16ec 1C       		.uleb128 0x1c
 6722 16ed 01       		.byte	0x1
 6723 16ee 73020000 		.4byte	.LASF52
 6724 16f2 01       		.byte	0x1
 6725 16f3 7401     		.2byte	0x174
 6726 16f5 01       		.byte	0x1
 6727 16f6 00000000 		.4byte	.LFB55
ARM GAS  C:\Users\Steve\AppData\Local\Temp\ccwjFJAL.s 			page 131


 6728 16fa 62000000 		.4byte	.LFE55
 6729 16fe 35140000 		.4byte	.LLST114
 6730 1702 01       		.byte	0x1
 6731 1703 17       		.uleb128 0x17
 6732 1704 783000   		.ascii	"x0\000"
 6733 1707 01       		.byte	0x1
 6734 1708 7401     		.2byte	0x174
 6735 170a 85000000 		.4byte	0x85
 6736 170e 6D140000 		.4byte	.LLST115
 6737 1712 17       		.uleb128 0x17
 6738 1713 793000   		.ascii	"y0\000"
 6739 1716 01       		.byte	0x1
 6740 1717 7401     		.2byte	0x174
 6741 1719 85000000 		.4byte	0x85
 6742 171d A6140000 		.4byte	.LLST116
 6743 1721 18       		.uleb128 0x18
 6744 1722 6300     		.ascii	"c\000"
 6745 1724 01       		.byte	0x1
 6746 1725 7401     		.2byte	0x174
 6747 1727 21010000 		.4byte	0x121
 6748 172b 02       		.byte	0x2
 6749 172c 91       		.byte	0x91
 6750 172d 64       		.sleb128 -28
 6751 172e 1B       		.uleb128 0x1b
 6752 172f A0000000 		.4byte	.LASF17
 6753 1733 01       		.byte	0x1
 6754 1734 7401     		.2byte	0x174
 6755 1736 B9010000 		.4byte	0x1b9
 6756 173a C7140000 		.4byte	.LLST117
 6757 173e 15       		.uleb128 0x15
 6758 173f 26000000 		.4byte	.LVL280
 6759 1743 E5080000 		.4byte	0x8e5
 6760 1747 5E170000 		.4byte	0x175e
 6761 174b 12       		.uleb128 0x12
 6762 174c 01       		.byte	0x1
 6763 174d 52       		.byte	0x52
 6764 174e 01       		.byte	0x1
 6765 174f 33       		.byte	0x33
 6766 1750 12       		.uleb128 0x12
 6767 1751 01       		.byte	0x1
 6768 1752 50       		.byte	0x50
 6769 1753 02       		.byte	0x2
 6770 1754 78       		.byte	0x78
 6771 1755 00       		.sleb128 0
 6772 1756 12       		.uleb128 0x12
 6773 1757 02       		.byte	0x2
 6774 1758 7D       		.byte	0x7d
 6775 1759 00       		.sleb128 0
 6776 175a 02       		.byte	0x2
 6777 175b 74       		.byte	0x74
 6778 175c 00       		.sleb128 0
 6779 175d 00       		.byte	0
 6780 175e 15       		.uleb128 0x15
 6781 175f 3C000000 		.4byte	.LVL281
 6782 1763 E5080000 		.4byte	0x8e5
 6783 1767 7E170000 		.4byte	0x177e
 6784 176b 12       		.uleb128 0x12
ARM GAS  C:\Users\Steve\AppData\Local\Temp\ccwjFJAL.s 			page 132


 6785 176c 01       		.byte	0x1
 6786 176d 52       		.byte	0x52
 6787 176e 01       		.byte	0x1
 6788 176f 33       		.byte	0x33
 6789 1770 12       		.uleb128 0x12
 6790 1771 01       		.byte	0x1
 6791 1772 50       		.byte	0x50
 6792 1773 02       		.byte	0x2
 6793 1774 78       		.byte	0x78
 6794 1775 00       		.sleb128 0
 6795 1776 12       		.uleb128 0x12
 6796 1777 02       		.byte	0x2
 6797 1778 7D       		.byte	0x7d
 6798 1779 00       		.sleb128 0
 6799 177a 02       		.byte	0x2
 6800 177b 74       		.byte	0x74
 6801 177c 00       		.sleb128 0
 6802 177d 00       		.byte	0
 6803 177e 15       		.uleb128 0x15
 6804 177f 4C000000 		.4byte	.LVL283
 6805 1783 6C080000 		.4byte	0x86c
 6806 1787 A4170000 		.4byte	0x17a4
 6807 178b 12       		.uleb128 0x12
 6808 178c 01       		.byte	0x1
 6809 178d 52       		.byte	0x52
 6810 178e 01       		.byte	0x1
 6811 178f 3A       		.byte	0x3a
 6812 1790 12       		.uleb128 0x12
 6813 1791 01       		.byte	0x1
 6814 1792 51       		.byte	0x51
 6815 1793 02       		.byte	0x2
 6816 1794 75       		.byte	0x75
 6817 1795 00       		.sleb128 0
 6818 1796 12       		.uleb128 0x12
 6819 1797 01       		.byte	0x1
 6820 1798 50       		.byte	0x50
 6821 1799 02       		.byte	0x2
 6822 179a 77       		.byte	0x77
 6823 179b 00       		.sleb128 0
 6824 179c 12       		.uleb128 0x12
 6825 179d 02       		.byte	0x2
 6826 179e 7D       		.byte	0x7d
 6827 179f 00       		.sleb128 0
 6828 17a0 02       		.byte	0x2
 6829 17a1 74       		.byte	0x74
 6830 17a2 00       		.sleb128 0
 6831 17a3 00       		.byte	0
 6832 17a4 11       		.uleb128 0x11
 6833 17a5 5A000000 		.4byte	.LVL284
 6834 17a9 6C080000 		.4byte	0x86c
 6835 17ad 12       		.uleb128 0x12
 6836 17ae 01       		.byte	0x1
 6837 17af 52       		.byte	0x52
 6838 17b0 01       		.byte	0x1
 6839 17b1 3A       		.byte	0x3a
 6840 17b2 12       		.uleb128 0x12
 6841 17b3 01       		.byte	0x1
ARM GAS  C:\Users\Steve\AppData\Local\Temp\ccwjFJAL.s 			page 133


 6842 17b4 51       		.byte	0x51
 6843 17b5 02       		.byte	0x2
 6844 17b6 75       		.byte	0x75
 6845 17b7 00       		.sleb128 0
 6846 17b8 12       		.uleb128 0x12
 6847 17b9 01       		.byte	0x1
 6848 17ba 50       		.byte	0x50
 6849 17bb 02       		.byte	0x2
 6850 17bc 76       		.byte	0x76
 6851 17bd 00       		.sleb128 0
 6852 17be 12       		.uleb128 0x12
 6853 17bf 02       		.byte	0x2
 6854 17c0 7D       		.byte	0x7d
 6855 17c1 00       		.sleb128 0
 6856 17c2 02       		.byte	0x2
 6857 17c3 74       		.byte	0x74
 6858 17c4 00       		.sleb128 0
 6859 17c5 00       		.byte	0
 6860 17c6 00       		.byte	0
 6861 17c7 00       		.byte	0
 6862              		.section	.debug_abbrev,"",%progbits
 6863              	.Ldebug_abbrev0:
 6864 0000 01       		.uleb128 0x1
 6865 0001 11       		.uleb128 0x11
 6866 0002 01       		.byte	0x1
 6867 0003 25       		.uleb128 0x25
 6868 0004 0E       		.uleb128 0xe
 6869 0005 13       		.uleb128 0x13
 6870 0006 0B       		.uleb128 0xb
 6871 0007 03       		.uleb128 0x3
 6872 0008 0E       		.uleb128 0xe
 6873 0009 1B       		.uleb128 0x1b
 6874 000a 0E       		.uleb128 0xe
 6875 000b 55       		.uleb128 0x55
 6876 000c 06       		.uleb128 0x6
 6877 000d 11       		.uleb128 0x11
 6878 000e 01       		.uleb128 0x1
 6879 000f 52       		.uleb128 0x52
 6880 0010 01       		.uleb128 0x1
 6881 0011 10       		.uleb128 0x10
 6882 0012 06       		.uleb128 0x6
 6883 0013 00       		.byte	0
 6884 0014 00       		.byte	0
 6885 0015 02       		.uleb128 0x2
 6886 0016 24       		.uleb128 0x24
 6887 0017 00       		.byte	0
 6888 0018 0B       		.uleb128 0xb
 6889 0019 0B       		.uleb128 0xb
 6890 001a 3E       		.uleb128 0x3e
 6891 001b 0B       		.uleb128 0xb
 6892 001c 03       		.uleb128 0x3
 6893 001d 0E       		.uleb128 0xe
 6894 001e 00       		.byte	0
 6895 001f 00       		.byte	0
 6896 0020 03       		.uleb128 0x3
 6897 0021 16       		.uleb128 0x16
 6898 0022 00       		.byte	0
ARM GAS  C:\Users\Steve\AppData\Local\Temp\ccwjFJAL.s 			page 134


 6899 0023 03       		.uleb128 0x3
 6900 0024 0E       		.uleb128 0xe
 6901 0025 3A       		.uleb128 0x3a
 6902 0026 0B       		.uleb128 0xb
 6903 0027 3B       		.uleb128 0x3b
 6904 0028 0B       		.uleb128 0xb
 6905 0029 49       		.uleb128 0x49
 6906 002a 13       		.uleb128 0x13
 6907 002b 00       		.byte	0
 6908 002c 00       		.byte	0
 6909 002d 04       		.uleb128 0x4
 6910 002e 24       		.uleb128 0x24
 6911 002f 00       		.byte	0
 6912 0030 0B       		.uleb128 0xb
 6913 0031 0B       		.uleb128 0xb
 6914 0032 3E       		.uleb128 0x3e
 6915 0033 0B       		.uleb128 0xb
 6916 0034 03       		.uleb128 0x3
 6917 0035 08       		.uleb128 0x8
 6918 0036 00       		.byte	0
 6919 0037 00       		.byte	0
 6920 0038 05       		.uleb128 0x5
 6921 0039 13       		.uleb128 0x13
 6922 003a 01       		.byte	0x1
 6923 003b 0B       		.uleb128 0xb
 6924 003c 0B       		.uleb128 0xb
 6925 003d 3A       		.uleb128 0x3a
 6926 003e 0B       		.uleb128 0xb
 6927 003f 3B       		.uleb128 0x3b
 6928 0040 0B       		.uleb128 0xb
 6929 0041 01       		.uleb128 0x1
 6930 0042 13       		.uleb128 0x13
 6931 0043 00       		.byte	0
 6932 0044 00       		.byte	0
 6933 0045 06       		.uleb128 0x6
 6934 0046 0D       		.uleb128 0xd
 6935 0047 00       		.byte	0
 6936 0048 03       		.uleb128 0x3
 6937 0049 08       		.uleb128 0x8
 6938 004a 3A       		.uleb128 0x3a
 6939 004b 0B       		.uleb128 0xb
 6940 004c 3B       		.uleb128 0x3b
 6941 004d 0B       		.uleb128 0xb
 6942 004e 49       		.uleb128 0x49
 6943 004f 13       		.uleb128 0x13
 6944 0050 38       		.uleb128 0x38
 6945 0051 0A       		.uleb128 0xa
 6946 0052 00       		.byte	0
 6947 0053 00       		.byte	0
 6948 0054 07       		.uleb128 0x7
 6949 0055 01       		.uleb128 0x1
 6950 0056 01       		.byte	0x1
 6951 0057 49       		.uleb128 0x49
 6952 0058 13       		.uleb128 0x13
 6953 0059 01       		.uleb128 0x1
 6954 005a 13       		.uleb128 0x13
 6955 005b 00       		.byte	0
ARM GAS  C:\Users\Steve\AppData\Local\Temp\ccwjFJAL.s 			page 135


 6956 005c 00       		.byte	0
 6957 005d 08       		.uleb128 0x8
 6958 005e 21       		.uleb128 0x21
 6959 005f 00       		.byte	0
 6960 0060 49       		.uleb128 0x49
 6961 0061 13       		.uleb128 0x13
 6962 0062 2F       		.uleb128 0x2f
 6963 0063 0B       		.uleb128 0xb
 6964 0064 00       		.byte	0
 6965 0065 00       		.byte	0
 6966 0066 09       		.uleb128 0x9
 6967 0067 16       		.uleb128 0x16
 6968 0068 00       		.byte	0
 6969 0069 03       		.uleb128 0x3
 6970 006a 08       		.uleb128 0x8
 6971 006b 3A       		.uleb128 0x3a
 6972 006c 0B       		.uleb128 0xb
 6973 006d 3B       		.uleb128 0x3b
 6974 006e 0B       		.uleb128 0xb
 6975 006f 49       		.uleb128 0x49
 6976 0070 13       		.uleb128 0x13
 6977 0071 00       		.byte	0
 6978 0072 00       		.byte	0
 6979 0073 0A       		.uleb128 0xa
 6980 0074 2E       		.uleb128 0x2e
 6981 0075 01       		.byte	0x1
 6982 0076 3F       		.uleb128 0x3f
 6983 0077 0C       		.uleb128 0xc
 6984 0078 03       		.uleb128 0x3
 6985 0079 0E       		.uleb128 0xe
 6986 007a 3A       		.uleb128 0x3a
 6987 007b 0B       		.uleb128 0xb
 6988 007c 3B       		.uleb128 0x3b
 6989 007d 0B       		.uleb128 0xb
 6990 007e 27       		.uleb128 0x27
 6991 007f 0C       		.uleb128 0xc
 6992 0080 11       		.uleb128 0x11
 6993 0081 01       		.uleb128 0x1
 6994 0082 12       		.uleb128 0x12
 6995 0083 01       		.uleb128 0x1
 6996 0084 40       		.uleb128 0x40
 6997 0085 06       		.uleb128 0x6
 6998 0086 9742     		.uleb128 0x2117
 6999 0088 0C       		.uleb128 0xc
 7000 0089 01       		.uleb128 0x1
 7001 008a 13       		.uleb128 0x13
 7002 008b 00       		.byte	0
 7003 008c 00       		.byte	0
 7004 008d 0B       		.uleb128 0xb
 7005 008e 05       		.uleb128 0x5
 7006 008f 00       		.byte	0
 7007 0090 03       		.uleb128 0x3
 7008 0091 08       		.uleb128 0x8
 7009 0092 3A       		.uleb128 0x3a
 7010 0093 0B       		.uleb128 0xb
 7011 0094 3B       		.uleb128 0x3b
 7012 0095 0B       		.uleb128 0xb
ARM GAS  C:\Users\Steve\AppData\Local\Temp\ccwjFJAL.s 			page 136


 7013 0096 49       		.uleb128 0x49
 7014 0097 13       		.uleb128 0x13
 7015 0098 02       		.uleb128 0x2
 7016 0099 06       		.uleb128 0x6
 7017 009a 00       		.byte	0
 7018 009b 00       		.byte	0
 7019 009c 0C       		.uleb128 0xc
 7020 009d 05       		.uleb128 0x5
 7021 009e 00       		.byte	0
 7022 009f 03       		.uleb128 0x3
 7023 00a0 0E       		.uleb128 0xe
 7024 00a1 3A       		.uleb128 0x3a
 7025 00a2 0B       		.uleb128 0xb
 7026 00a3 3B       		.uleb128 0x3b
 7027 00a4 0B       		.uleb128 0xb
 7028 00a5 49       		.uleb128 0x49
 7029 00a6 13       		.uleb128 0x13
 7030 00a7 02       		.uleb128 0x2
 7031 00a8 06       		.uleb128 0x6
 7032 00a9 00       		.byte	0
 7033 00aa 00       		.byte	0
 7034 00ab 0D       		.uleb128 0xd
 7035 00ac 34       		.uleb128 0x34
 7036 00ad 00       		.byte	0
 7037 00ae 03       		.uleb128 0x3
 7038 00af 08       		.uleb128 0x8
 7039 00b0 3A       		.uleb128 0x3a
 7040 00b1 0B       		.uleb128 0xb
 7041 00b2 3B       		.uleb128 0x3b
 7042 00b3 0B       		.uleb128 0xb
 7043 00b4 49       		.uleb128 0x49
 7044 00b5 13       		.uleb128 0x13
 7045 00b6 02       		.uleb128 0x2
 7046 00b7 06       		.uleb128 0x6
 7047 00b8 00       		.byte	0
 7048 00b9 00       		.byte	0
 7049 00ba 0E       		.uleb128 0xe
 7050 00bb 34       		.uleb128 0x34
 7051 00bc 00       		.byte	0
 7052 00bd 03       		.uleb128 0x3
 7053 00be 0E       		.uleb128 0xe
 7054 00bf 3A       		.uleb128 0x3a
 7055 00c0 0B       		.uleb128 0xb
 7056 00c1 3B       		.uleb128 0x3b
 7057 00c2 0B       		.uleb128 0xb
 7058 00c3 49       		.uleb128 0x49
 7059 00c4 13       		.uleb128 0x13
 7060 00c5 02       		.uleb128 0x2
 7061 00c6 06       		.uleb128 0x6
 7062 00c7 00       		.byte	0
 7063 00c8 00       		.byte	0
 7064 00c9 0F       		.uleb128 0xf
 7065 00ca 0F       		.uleb128 0xf
 7066 00cb 00       		.byte	0
 7067 00cc 0B       		.uleb128 0xb
 7068 00cd 0B       		.uleb128 0xb
 7069 00ce 49       		.uleb128 0x49
ARM GAS  C:\Users\Steve\AppData\Local\Temp\ccwjFJAL.s 			page 137


 7070 00cf 13       		.uleb128 0x13
 7071 00d0 00       		.byte	0
 7072 00d1 00       		.byte	0
 7073 00d2 10       		.uleb128 0x10
 7074 00d3 05       		.uleb128 0x5
 7075 00d4 00       		.byte	0
 7076 00d5 03       		.uleb128 0x3
 7077 00d6 08       		.uleb128 0x8
 7078 00d7 3A       		.uleb128 0x3a
 7079 00d8 0B       		.uleb128 0xb
 7080 00d9 3B       		.uleb128 0x3b
 7081 00da 0B       		.uleb128 0xb
 7082 00db 49       		.uleb128 0x49
 7083 00dc 13       		.uleb128 0x13
 7084 00dd 02       		.uleb128 0x2
 7085 00de 0A       		.uleb128 0xa
 7086 00df 00       		.byte	0
 7087 00e0 00       		.byte	0
 7088 00e1 11       		.uleb128 0x11
 7089 00e2 898201   		.uleb128 0x4109
 7090 00e5 01       		.byte	0x1
 7091 00e6 11       		.uleb128 0x11
 7092 00e7 01       		.uleb128 0x1
 7093 00e8 31       		.uleb128 0x31
 7094 00e9 13       		.uleb128 0x13
 7095 00ea 00       		.byte	0
 7096 00eb 00       		.byte	0
 7097 00ec 12       		.uleb128 0x12
 7098 00ed 8A8201   		.uleb128 0x410a
 7099 00f0 00       		.byte	0
 7100 00f1 02       		.uleb128 0x2
 7101 00f2 0A       		.uleb128 0xa
 7102 00f3 9142     		.uleb128 0x2111
 7103 00f5 0A       		.uleb128 0xa
 7104 00f6 00       		.byte	0
 7105 00f7 00       		.byte	0
 7106 00f8 13       		.uleb128 0x13
 7107 00f9 05       		.uleb128 0x5
 7108 00fa 00       		.byte	0
 7109 00fb 03       		.uleb128 0x3
 7110 00fc 0E       		.uleb128 0xe
 7111 00fd 3A       		.uleb128 0x3a
 7112 00fe 0B       		.uleb128 0xb
 7113 00ff 3B       		.uleb128 0x3b
 7114 0100 0B       		.uleb128 0xb
 7115 0101 49       		.uleb128 0x49
 7116 0102 13       		.uleb128 0x13
 7117 0103 02       		.uleb128 0x2
 7118 0104 0A       		.uleb128 0xa
 7119 0105 00       		.byte	0
 7120 0106 00       		.byte	0
 7121 0107 14       		.uleb128 0x14
 7122 0108 34       		.uleb128 0x34
 7123 0109 00       		.byte	0
 7124 010a 03       		.uleb128 0x3
 7125 010b 0E       		.uleb128 0xe
 7126 010c 3A       		.uleb128 0x3a
ARM GAS  C:\Users\Steve\AppData\Local\Temp\ccwjFJAL.s 			page 138


 7127 010d 0B       		.uleb128 0xb
 7128 010e 3B       		.uleb128 0x3b
 7129 010f 0B       		.uleb128 0xb
 7130 0110 49       		.uleb128 0x49
 7131 0111 13       		.uleb128 0x13
 7132 0112 02       		.uleb128 0x2
 7133 0113 0A       		.uleb128 0xa
 7134 0114 00       		.byte	0
 7135 0115 00       		.byte	0
 7136 0116 15       		.uleb128 0x15
 7137 0117 898201   		.uleb128 0x4109
 7138 011a 01       		.byte	0x1
 7139 011b 11       		.uleb128 0x11
 7140 011c 01       		.uleb128 0x1
 7141 011d 31       		.uleb128 0x31
 7142 011e 13       		.uleb128 0x13
 7143 011f 01       		.uleb128 0x1
 7144 0120 13       		.uleb128 0x13
 7145 0121 00       		.byte	0
 7146 0122 00       		.byte	0
 7147 0123 16       		.uleb128 0x16
 7148 0124 2E       		.uleb128 0x2e
 7149 0125 01       		.byte	0x1
 7150 0126 3F       		.uleb128 0x3f
 7151 0127 0C       		.uleb128 0xc
 7152 0128 03       		.uleb128 0x3
 7153 0129 0E       		.uleb128 0xe
 7154 012a 3A       		.uleb128 0x3a
 7155 012b 0B       		.uleb128 0xb
 7156 012c 3B       		.uleb128 0x3b
 7157 012d 05       		.uleb128 0x5
 7158 012e 27       		.uleb128 0x27
 7159 012f 0C       		.uleb128 0xc
 7160 0130 11       		.uleb128 0x11
 7161 0131 01       		.uleb128 0x1
 7162 0132 12       		.uleb128 0x12
 7163 0133 01       		.uleb128 0x1
 7164 0134 40       		.uleb128 0x40
 7165 0135 06       		.uleb128 0x6
 7166 0136 9742     		.uleb128 0x2117
 7167 0138 0C       		.uleb128 0xc
 7168 0139 01       		.uleb128 0x1
 7169 013a 13       		.uleb128 0x13
 7170 013b 00       		.byte	0
 7171 013c 00       		.byte	0
 7172 013d 17       		.uleb128 0x17
 7173 013e 05       		.uleb128 0x5
 7174 013f 00       		.byte	0
 7175 0140 03       		.uleb128 0x3
 7176 0141 08       		.uleb128 0x8
 7177 0142 3A       		.uleb128 0x3a
 7178 0143 0B       		.uleb128 0xb
 7179 0144 3B       		.uleb128 0x3b
 7180 0145 05       		.uleb128 0x5
 7181 0146 49       		.uleb128 0x49
 7182 0147 13       		.uleb128 0x13
 7183 0148 02       		.uleb128 0x2
ARM GAS  C:\Users\Steve\AppData\Local\Temp\ccwjFJAL.s 			page 139


 7184 0149 06       		.uleb128 0x6
 7185 014a 00       		.byte	0
 7186 014b 00       		.byte	0
 7187 014c 18       		.uleb128 0x18
 7188 014d 05       		.uleb128 0x5
 7189 014e 00       		.byte	0
 7190 014f 03       		.uleb128 0x3
 7191 0150 08       		.uleb128 0x8
 7192 0151 3A       		.uleb128 0x3a
 7193 0152 0B       		.uleb128 0xb
 7194 0153 3B       		.uleb128 0x3b
 7195 0154 05       		.uleb128 0x5
 7196 0155 49       		.uleb128 0x49
 7197 0156 13       		.uleb128 0x13
 7198 0157 02       		.uleb128 0x2
 7199 0158 0A       		.uleb128 0xa
 7200 0159 00       		.byte	0
 7201 015a 00       		.byte	0
 7202 015b 19       		.uleb128 0x19
 7203 015c 05       		.uleb128 0x5
 7204 015d 00       		.byte	0
 7205 015e 03       		.uleb128 0x3
 7206 015f 0E       		.uleb128 0xe
 7207 0160 3A       		.uleb128 0x3a
 7208 0161 0B       		.uleb128 0xb
 7209 0162 3B       		.uleb128 0x3b
 7210 0163 05       		.uleb128 0x5
 7211 0164 49       		.uleb128 0x49
 7212 0165 13       		.uleb128 0x13
 7213 0166 02       		.uleb128 0x2
 7214 0167 0A       		.uleb128 0xa
 7215 0168 00       		.byte	0
 7216 0169 00       		.byte	0
 7217 016a 1A       		.uleb128 0x1a
 7218 016b 34       		.uleb128 0x34
 7219 016c 00       		.byte	0
 7220 016d 03       		.uleb128 0x3
 7221 016e 08       		.uleb128 0x8
 7222 016f 3A       		.uleb128 0x3a
 7223 0170 0B       		.uleb128 0xb
 7224 0171 3B       		.uleb128 0x3b
 7225 0172 05       		.uleb128 0x5
 7226 0173 49       		.uleb128 0x49
 7227 0174 13       		.uleb128 0x13
 7228 0175 02       		.uleb128 0x2
 7229 0176 06       		.uleb128 0x6
 7230 0177 00       		.byte	0
 7231 0178 00       		.byte	0
 7232 0179 1B       		.uleb128 0x1b
 7233 017a 05       		.uleb128 0x5
 7234 017b 00       		.byte	0
 7235 017c 03       		.uleb128 0x3
 7236 017d 0E       		.uleb128 0xe
 7237 017e 3A       		.uleb128 0x3a
 7238 017f 0B       		.uleb128 0xb
 7239 0180 3B       		.uleb128 0x3b
 7240 0181 05       		.uleb128 0x5
ARM GAS  C:\Users\Steve\AppData\Local\Temp\ccwjFJAL.s 			page 140


 7241 0182 49       		.uleb128 0x49
 7242 0183 13       		.uleb128 0x13
 7243 0184 02       		.uleb128 0x2
 7244 0185 06       		.uleb128 0x6
 7245 0186 00       		.byte	0
 7246 0187 00       		.byte	0
 7247 0188 1C       		.uleb128 0x1c
 7248 0189 2E       		.uleb128 0x2e
 7249 018a 01       		.byte	0x1
 7250 018b 3F       		.uleb128 0x3f
 7251 018c 0C       		.uleb128 0xc
 7252 018d 03       		.uleb128 0x3
 7253 018e 0E       		.uleb128 0xe
 7254 018f 3A       		.uleb128 0x3a
 7255 0190 0B       		.uleb128 0xb
 7256 0191 3B       		.uleb128 0x3b
 7257 0192 05       		.uleb128 0x5
 7258 0193 27       		.uleb128 0x27
 7259 0194 0C       		.uleb128 0xc
 7260 0195 11       		.uleb128 0x11
 7261 0196 01       		.uleb128 0x1
 7262 0197 12       		.uleb128 0x12
 7263 0198 01       		.uleb128 0x1
 7264 0199 40       		.uleb128 0x40
 7265 019a 06       		.uleb128 0x6
 7266 019b 9742     		.uleb128 0x2117
 7267 019d 0C       		.uleb128 0xc
 7268 019e 00       		.byte	0
 7269 019f 00       		.byte	0
 7270 01a0 00       		.byte	0
 7271              		.section	.debug_loc,"",%progbits
 7272              	.Ldebug_loc0:
 7273              	.LLST0:
 7274 0000 00000000 		.4byte	.LFB34
 7275 0004 02000000 		.4byte	.LCFI0
 7276 0008 0200     		.2byte	0x2
 7277 000a 7D       		.byte	0x7d
 7278 000b 00       		.sleb128 0
 7279 000c 02000000 		.4byte	.LCFI0
 7280 0010 78000000 		.4byte	.LFE34
 7281 0014 0200     		.2byte	0x2
 7282 0016 7D       		.byte	0x7d
 7283 0017 08       		.sleb128 8
 7284 0018 00000000 		.4byte	0
 7285 001c 00000000 		.4byte	0
 7286              	.LLST1:
 7287 0020 00000000 		.4byte	.LVL0
 7288 0024 12000000 		.4byte	.LVL2
 7289 0028 0100     		.2byte	0x1
 7290 002a 50       		.byte	0x50
 7291 002b 12000000 		.4byte	.LVL2
 7292 002f 78000000 		.4byte	.LFE34
 7293 0033 0400     		.2byte	0x4
 7294 0035 F3       		.byte	0xf3
 7295 0036 01       		.uleb128 0x1
 7296 0037 50       		.byte	0x50
 7297 0038 9F       		.byte	0x9f
ARM GAS  C:\Users\Steve\AppData\Local\Temp\ccwjFJAL.s 			page 141


 7298 0039 00000000 		.4byte	0
 7299 003d 00000000 		.4byte	0
 7300              	.LLST2:
 7301 0041 00000000 		.4byte	.LVL0
 7302 0045 08000000 		.4byte	.LVL1
 7303 0049 0100     		.2byte	0x1
 7304 004b 51       		.byte	0x51
 7305 004c 08000000 		.4byte	.LVL1
 7306 0050 78000000 		.4byte	.LFE34
 7307 0054 0400     		.2byte	0x4
 7308 0056 F3       		.byte	0xf3
 7309 0057 01       		.uleb128 0x1
 7310 0058 51       		.byte	0x51
 7311 0059 9F       		.byte	0x9f
 7312 005a 00000000 		.4byte	0
 7313 005e 00000000 		.4byte	0
 7314              	.LLST3:
 7315 0062 00000000 		.4byte	.LVL0
 7316 0066 18000000 		.4byte	.LVL3
 7317 006a 0100     		.2byte	0x1
 7318 006c 52       		.byte	0x52
 7319 006d 18000000 		.4byte	.LVL3
 7320 0071 78000000 		.4byte	.LFE34
 7321 0075 0400     		.2byte	0x4
 7322 0077 F3       		.byte	0xf3
 7323 0078 01       		.uleb128 0x1
 7324 0079 52       		.byte	0x52
 7325 007a 9F       		.byte	0x9f
 7326 007b 00000000 		.4byte	0
 7327 007f 00000000 		.4byte	0
 7328              	.LLST4:
 7329 0083 00000000 		.4byte	.LVL0
 7330 0087 32000000 		.4byte	.LVL4
 7331 008b 0200     		.2byte	0x2
 7332 008d 30       		.byte	0x30
 7333 008e 9F       		.byte	0x9f
 7334 008f 32000000 		.4byte	.LVL4
 7335 0093 44000000 		.4byte	.LVL5
 7336 0097 0200     		.2byte	0x2
 7337 0099 31       		.byte	0x31
 7338 009a 9F       		.byte	0x9f
 7339 009b 44000000 		.4byte	.LVL5
 7340 009f 56000000 		.4byte	.LVL6
 7341 00a3 0200     		.2byte	0x2
 7342 00a5 32       		.byte	0x32
 7343 00a6 9F       		.byte	0x9f
 7344 00a7 56000000 		.4byte	.LVL6
 7345 00ab 68000000 		.4byte	.LVL7
 7346 00af 0200     		.2byte	0x2
 7347 00b1 33       		.byte	0x33
 7348 00b2 9F       		.byte	0x9f
 7349 00b3 68000000 		.4byte	.LVL7
 7350 00b7 76000000 		.4byte	.LVL8
 7351 00bb 0200     		.2byte	0x2
 7352 00bd 34       		.byte	0x34
 7353 00be 9F       		.byte	0x9f
 7354 00bf 76000000 		.4byte	.LVL8
ARM GAS  C:\Users\Steve\AppData\Local\Temp\ccwjFJAL.s 			page 142


 7355 00c3 78000000 		.4byte	.LFE34
 7356 00c7 0200     		.2byte	0x2
 7357 00c9 35       		.byte	0x35
 7358 00ca 9F       		.byte	0x9f
 7359 00cb 00000000 		.4byte	0
 7360 00cf 00000000 		.4byte	0
 7361              	.LLST5:
 7362 00d3 00000000 		.4byte	.LVL0
 7363 00d7 08000000 		.4byte	.LVL1
 7364 00db 0A00     		.2byte	0xa
 7365 00dd 71       		.byte	0x71
 7366 00de 00       		.sleb128 0
 7367 00df 32       		.byte	0x32
 7368 00e0 24       		.byte	0x24
 7369 00e1 70       		.byte	0x70
 7370 00e2 00       		.sleb128 0
 7371 00e3 33       		.byte	0x33
 7372 00e4 25       		.byte	0x25
 7373 00e5 22       		.byte	0x22
 7374 00e6 9F       		.byte	0x9f
 7375 00e7 00000000 		.4byte	0
 7376 00eb 00000000 		.4byte	0
 7377              	.LLST6:
 7378 00ef 00000000 		.4byte	.LVL0
 7379 00f3 08000000 		.4byte	.LVL1
 7380 00f7 0500     		.2byte	0x5
 7381 00f9 71       		.byte	0x71
 7382 00fa 00       		.sleb128 0
 7383 00fb 32       		.byte	0x32
 7384 00fc 24       		.byte	0x24
 7385 00fd 9F       		.byte	0x9f
 7386 00fe 00000000 		.4byte	0
 7387 0102 00000000 		.4byte	0
 7388              	.LLST7:
 7389 0106 00000000 		.4byte	.LVL0
 7390 010a 12000000 		.4byte	.LVL2
 7391 010e 0500     		.2byte	0x5
 7392 0110 70       		.byte	0x70
 7393 0111 00       		.sleb128 0
 7394 0112 33       		.byte	0x33
 7395 0113 25       		.byte	0x25
 7396 0114 9F       		.byte	0x9f
 7397 0115 00000000 		.4byte	0
 7398 0119 00000000 		.4byte	0
 7399              	.LLST8:
 7400 011d 00000000 		.4byte	.LVL0
 7401 0121 12000000 		.4byte	.LVL2
 7402 0125 0500     		.2byte	0x5
 7403 0127 70       		.byte	0x70
 7404 0128 00       		.sleb128 0
 7405 0129 37       		.byte	0x37
 7406 012a 1A       		.byte	0x1a
 7407 012b 9F       		.byte	0x9f
 7408 012c 00000000 		.4byte	0
 7409 0130 00000000 		.4byte	0
 7410              	.LLST9:
 7411 0134 00000000 		.4byte	.LFB33
ARM GAS  C:\Users\Steve\AppData\Local\Temp\ccwjFJAL.s 			page 143


 7412 0138 02000000 		.4byte	.LCFI1
 7413 013c 0200     		.2byte	0x2
 7414 013e 7D       		.byte	0x7d
 7415 013f 00       		.sleb128 0
 7416 0140 02000000 		.4byte	.LCFI1
 7417 0144 0A000000 		.4byte	.LCFI2
 7418 0148 0200     		.2byte	0x2
 7419 014a 7D       		.byte	0x7d
 7420 014b 14       		.sleb128 20
 7421 014c 0A000000 		.4byte	.LCFI2
 7422 0150 E8000000 		.4byte	.LFE33
 7423 0154 0200     		.2byte	0x2
 7424 0156 7D       		.byte	0x7d
 7425 0157 20       		.sleb128 32
 7426 0158 00000000 		.4byte	0
 7427 015c 00000000 		.4byte	0
 7428              	.LLST10:
 7429 0160 00000000 		.4byte	.LVL9
 7430 0164 0E000000 		.4byte	.LVL11
 7431 0168 0100     		.2byte	0x1
 7432 016a 50       		.byte	0x50
 7433 016b 0E000000 		.4byte	.LVL11
 7434 016f E8000000 		.4byte	.LFE33
 7435 0173 0400     		.2byte	0x4
 7436 0175 F3       		.byte	0xf3
 7437 0176 01       		.uleb128 0x1
 7438 0177 50       		.byte	0x50
 7439 0178 9F       		.byte	0x9f
 7440 0179 00000000 		.4byte	0
 7441 017d 00000000 		.4byte	0
 7442              	.LLST11:
 7443 0181 00000000 		.4byte	.LVL9
 7444 0185 19000000 		.4byte	.LVL14-1
 7445 0189 0100     		.2byte	0x1
 7446 018b 51       		.byte	0x51
 7447 018c 19000000 		.4byte	.LVL14-1
 7448 0190 E8000000 		.4byte	.LFE33
 7449 0194 0400     		.2byte	0x4
 7450 0196 F3       		.byte	0xf3
 7451 0197 01       		.uleb128 0x1
 7452 0198 51       		.byte	0x51
 7453 0199 9F       		.byte	0x9f
 7454 019a 00000000 		.4byte	0
 7455 019e 00000000 		.4byte	0
 7456              	.LLST12:
 7457 01a2 00000000 		.4byte	.LVL9
 7458 01a6 08000000 		.4byte	.LVL10
 7459 01aa 0100     		.2byte	0x1
 7460 01ac 53       		.byte	0x53
 7461 01ad 08000000 		.4byte	.LVL10
 7462 01b1 26000000 		.4byte	.LVL15
 7463 01b5 0100     		.2byte	0x1
 7464 01b7 56       		.byte	0x56
 7465 01b8 26000000 		.4byte	.LVL15
 7466 01bc E8000000 		.4byte	.LFE33
 7467 01c0 0400     		.2byte	0x4
 7468 01c2 F3       		.byte	0xf3
ARM GAS  C:\Users\Steve\AppData\Local\Temp\ccwjFJAL.s 			page 144


 7469 01c3 01       		.uleb128 0x1
 7470 01c4 53       		.byte	0x53
 7471 01c5 9F       		.byte	0x9f
 7472 01c6 00000000 		.4byte	0
 7473 01ca 00000000 		.4byte	0
 7474              	.LLST13:
 7475 01ce 00000000 		.4byte	.LVL9
 7476 01d2 52000000 		.4byte	.LVL18
 7477 01d6 0200     		.2byte	0x2
 7478 01d8 30       		.byte	0x30
 7479 01d9 9F       		.byte	0x9f
 7480 01da 52000000 		.4byte	.LVL18
 7481 01de 76000000 		.4byte	.LVL19
 7482 01e2 0200     		.2byte	0x2
 7483 01e4 31       		.byte	0x31
 7484 01e5 9F       		.byte	0x9f
 7485 01e6 76000000 		.4byte	.LVL19
 7486 01ea 9A000000 		.4byte	.LVL20
 7487 01ee 0200     		.2byte	0x2
 7488 01f0 32       		.byte	0x32
 7489 01f1 9F       		.byte	0x9f
 7490 01f2 9A000000 		.4byte	.LVL20
 7491 01f6 CE000000 		.4byte	.LVL21
 7492 01fa 0200     		.2byte	0x2
 7493 01fc 33       		.byte	0x33
 7494 01fd 9F       		.byte	0x9f
 7495 01fe CE000000 		.4byte	.LVL21
 7496 0202 E4000000 		.4byte	.LVL22
 7497 0206 0200     		.2byte	0x2
 7498 0208 34       		.byte	0x34
 7499 0209 9F       		.byte	0x9f
 7500 020a E4000000 		.4byte	.LVL22
 7501 020e E8000000 		.4byte	.LFE33
 7502 0212 0200     		.2byte	0x2
 7503 0214 35       		.byte	0x35
 7504 0215 9F       		.byte	0x9f
 7505 0216 00000000 		.4byte	0
 7506 021a 00000000 		.4byte	0
 7507              	.LLST14:
 7508 021e 10000000 		.4byte	.LVL12
 7509 0222 14000000 		.4byte	.LVL13
 7510 0226 0100     		.2byte	0x1
 7511 0228 50       		.byte	0x50
 7512 0229 14000000 		.4byte	.LVL13
 7513 022d 32000000 		.4byte	.LVL17
 7514 0231 0100     		.2byte	0x1
 7515 0233 57       		.byte	0x57
 7516 0234 00000000 		.4byte	0
 7517 0238 00000000 		.4byte	0
 7518              	.LLST15:
 7519 023c 00000000 		.4byte	.LVL9
 7520 0240 19000000 		.4byte	.LVL14-1
 7521 0244 0500     		.2byte	0x5
 7522 0246 71       		.byte	0x71
 7523 0247 00       		.sleb128 0
 7524 0248 32       		.byte	0x32
 7525 0249 24       		.byte	0x24
ARM GAS  C:\Users\Steve\AppData\Local\Temp\ccwjFJAL.s 			page 145


 7526 024a 9F       		.byte	0x9f
 7527 024b 00000000 		.4byte	0
 7528 024f 00000000 		.4byte	0
 7529              	.LLST16:
 7530 0253 00000000 		.4byte	.LVL9
 7531 0257 0E000000 		.4byte	.LVL11
 7532 025b 0500     		.2byte	0x5
 7533 025d 70       		.byte	0x70
 7534 025e 00       		.sleb128 0
 7535 025f 33       		.byte	0x33
 7536 0260 25       		.byte	0x25
 7537 0261 9F       		.byte	0x9f
 7538 0262 0E000000 		.4byte	.LVL11
 7539 0266 2E000000 		.4byte	.LVL16
 7540 026a 0500     		.2byte	0x5
 7541 026c 74       		.byte	0x74
 7542 026d 00       		.sleb128 0
 7543 026e 33       		.byte	0x33
 7544 026f 25       		.byte	0x25
 7545 0270 9F       		.byte	0x9f
 7546 0271 00000000 		.4byte	0
 7547 0275 00000000 		.4byte	0
 7548              	.LLST17:
 7549 0279 00000000 		.4byte	.LVL9
 7550 027d 0E000000 		.4byte	.LVL11
 7551 0281 0500     		.2byte	0x5
 7552 0283 70       		.byte	0x70
 7553 0284 00       		.sleb128 0
 7554 0285 37       		.byte	0x37
 7555 0286 1A       		.byte	0x1a
 7556 0287 9F       		.byte	0x9f
 7557 0288 0E000000 		.4byte	.LVL11
 7558 028c 2E000000 		.4byte	.LVL16
 7559 0290 0500     		.2byte	0x5
 7560 0292 74       		.byte	0x74
 7561 0293 00       		.sleb128 0
 7562 0294 37       		.byte	0x37
 7563 0295 1A       		.byte	0x1a
 7564 0296 9F       		.byte	0x9f
 7565 0297 00000000 		.4byte	0
 7566 029b 00000000 		.4byte	0
 7567              	.LLST18:
 7568 029f 00000000 		.4byte	.LFB35
 7569 02a3 02000000 		.4byte	.LCFI3
 7570 02a7 0200     		.2byte	0x2
 7571 02a9 7D       		.byte	0x7d
 7572 02aa 00       		.sleb128 0
 7573 02ab 02000000 		.4byte	.LCFI3
 7574 02af 4E000000 		.4byte	.LFE35
 7575 02b3 0200     		.2byte	0x2
 7576 02b5 7D       		.byte	0x7d
 7577 02b6 04       		.sleb128 4
 7578 02b7 00000000 		.4byte	0
 7579 02bb 00000000 		.4byte	0
 7580              	.LLST19:
 7581 02bf 00000000 		.4byte	.LVL23
 7582 02c3 06000000 		.4byte	.LVL24
ARM GAS  C:\Users\Steve\AppData\Local\Temp\ccwjFJAL.s 			page 146


 7583 02c7 0100     		.2byte	0x1
 7584 02c9 50       		.byte	0x50
 7585 02ca 06000000 		.4byte	.LVL24
 7586 02ce 4E000000 		.4byte	.LFE35
 7587 02d2 0400     		.2byte	0x4
 7588 02d4 F3       		.byte	0xf3
 7589 02d5 01       		.uleb128 0x1
 7590 02d6 50       		.byte	0x50
 7591 02d7 9F       		.byte	0x9f
 7592 02d8 00000000 		.4byte	0
 7593 02dc 00000000 		.4byte	0
 7594              	.LLST20:
 7595 02e0 06000000 		.4byte	.LVL24
 7596 02e4 10000000 		.4byte	.LVL25
 7597 02e8 0200     		.2byte	0x2
 7598 02ea 30       		.byte	0x30
 7599 02eb 9F       		.byte	0x9f
 7600 02ec 10000000 		.4byte	.LVL25
 7601 02f0 16000000 		.4byte	.LVL26
 7602 02f4 0200     		.2byte	0x2
 7603 02f6 31       		.byte	0x31
 7604 02f7 9F       		.byte	0x9f
 7605 02f8 16000000 		.4byte	.LVL26
 7606 02fc 1C000000 		.4byte	.LVL27
 7607 0300 0200     		.2byte	0x2
 7608 0302 32       		.byte	0x32
 7609 0303 9F       		.byte	0x9f
 7610 0304 1C000000 		.4byte	.LVL27
 7611 0308 22000000 		.4byte	.LVL28
 7612 030c 0200     		.2byte	0x2
 7613 030e 33       		.byte	0x33
 7614 030f 9F       		.byte	0x9f
 7615 0310 22000000 		.4byte	.LVL28
 7616 0314 28000000 		.4byte	.LVL29
 7617 0318 0200     		.2byte	0x2
 7618 031a 34       		.byte	0x34
 7619 031b 9F       		.byte	0x9f
 7620 031c 28000000 		.4byte	.LVL29
 7621 0320 2E000000 		.4byte	.LVL30
 7622 0324 0200     		.2byte	0x2
 7623 0326 30       		.byte	0x30
 7624 0327 9F       		.byte	0x9f
 7625 0328 2E000000 		.4byte	.LVL30
 7626 032c 34000000 		.4byte	.LVL31
 7627 0330 0200     		.2byte	0x2
 7628 0332 31       		.byte	0x31
 7629 0333 9F       		.byte	0x9f
 7630 0334 34000000 		.4byte	.LVL31
 7631 0338 3A000000 		.4byte	.LVL32
 7632 033c 0200     		.2byte	0x2
 7633 033e 32       		.byte	0x32
 7634 033f 9F       		.byte	0x9f
 7635 0340 3A000000 		.4byte	.LVL32
 7636 0344 40000000 		.4byte	.LVL33
 7637 0348 0200     		.2byte	0x2
 7638 034a 33       		.byte	0x33
 7639 034b 9F       		.byte	0x9f
ARM GAS  C:\Users\Steve\AppData\Local\Temp\ccwjFJAL.s 			page 147


 7640 034c 40000000 		.4byte	.LVL33
 7641 0350 46000000 		.4byte	.LVL34
 7642 0354 0200     		.2byte	0x2
 7643 0356 34       		.byte	0x34
 7644 0357 9F       		.byte	0x9f
 7645 0358 46000000 		.4byte	.LVL34
 7646 035c 4E000000 		.4byte	.LFE35
 7647 0360 0200     		.2byte	0x2
 7648 0362 35       		.byte	0x35
 7649 0363 9F       		.byte	0x9f
 7650 0364 00000000 		.4byte	0
 7651 0368 00000000 		.4byte	0
 7652              	.LLST21:
 7653 036c 00000000 		.4byte	.LVL23
 7654 0370 06000000 		.4byte	.LVL24
 7655 0374 0200     		.2byte	0x2
 7656 0376 30       		.byte	0x30
 7657 0377 9F       		.byte	0x9f
 7658 0378 00000000 		.4byte	0
 7659 037c 00000000 		.4byte	0
 7660              	.LLST22:
 7661 0380 00000000 		.4byte	.LFB36
 7662 0384 02000000 		.4byte	.LCFI4
 7663 0388 0200     		.2byte	0x2
 7664 038a 7D       		.byte	0x7d
 7665 038b 00       		.sleb128 0
 7666 038c 02000000 		.4byte	.LCFI4
 7667 0390 0C000000 		.4byte	.LCFI5
 7668 0394 0200     		.2byte	0x2
 7669 0396 7D       		.byte	0x7d
 7670 0397 14       		.sleb128 20
 7671 0398 0C000000 		.4byte	.LCFI5
 7672 039c 10000000 		.4byte	.LCFI6
 7673 03a0 0200     		.2byte	0x2
 7674 03a2 7D       		.byte	0x7d
 7675 03a3 24       		.sleb128 36
 7676 03a4 10000000 		.4byte	.LCFI6
 7677 03a8 5C010000 		.4byte	.LFE36
 7678 03ac 0300     		.2byte	0x3
 7679 03ae 7D       		.byte	0x7d
 7680 03af C000     		.sleb128 64
 7681 03b1 00000000 		.4byte	0
 7682 03b5 00000000 		.4byte	0
 7683              	.LLST23:
 7684 03b9 00000000 		.4byte	.LVL35
 7685 03bd 39000000 		.4byte	.LVL41-1
 7686 03c1 0100     		.2byte	0x1
 7687 03c3 50       		.byte	0x50
 7688 03c4 39000000 		.4byte	.LVL41-1
 7689 03c8 50010000 		.4byte	.LVL61
 7690 03cc 0100     		.2byte	0x1
 7691 03ce 5A       		.byte	0x5a
 7692 03cf 50010000 		.4byte	.LVL61
 7693 03d3 5C010000 		.4byte	.LFE36
 7694 03d7 0400     		.2byte	0x4
 7695 03d9 F3       		.byte	0xf3
 7696 03da 01       		.uleb128 0x1
ARM GAS  C:\Users\Steve\AppData\Local\Temp\ccwjFJAL.s 			page 148


 7697 03db 50       		.byte	0x50
 7698 03dc 9F       		.byte	0x9f
 7699 03dd 00000000 		.4byte	0
 7700 03e1 00000000 		.4byte	0
 7701              	.LLST24:
 7702 03e5 00000000 		.4byte	.LVL35
 7703 03e9 32000000 		.4byte	.LVL40
 7704 03ed 0100     		.2byte	0x1
 7705 03ef 51       		.byte	0x51
 7706 03f0 32000000 		.4byte	.LVL40
 7707 03f4 50010000 		.4byte	.LVL62
 7708 03f8 0100     		.2byte	0x1
 7709 03fa 5B       		.byte	0x5b
 7710 03fb 50010000 		.4byte	.LVL62
 7711 03ff 5C010000 		.4byte	.LFE36
 7712 0403 0400     		.2byte	0x4
 7713 0405 F3       		.byte	0xf3
 7714 0406 01       		.uleb128 0x1
 7715 0407 51       		.byte	0x51
 7716 0408 9F       		.byte	0x9f
 7717 0409 00000000 		.4byte	0
 7718 040d 00000000 		.4byte	0
 7719              	.LLST25:
 7720 0411 00000000 		.4byte	.LVL35
 7721 0415 16000000 		.4byte	.LVL36
 7722 0419 0100     		.2byte	0x1
 7723 041b 52       		.byte	0x52
 7724 041c 16000000 		.4byte	.LVL36
 7725 0420 5C010000 		.4byte	.LFE36
 7726 0424 0400     		.2byte	0x4
 7727 0426 F3       		.byte	0xf3
 7728 0427 01       		.uleb128 0x1
 7729 0428 52       		.byte	0x52
 7730 0429 9F       		.byte	0x9f
 7731 042a 00000000 		.4byte	0
 7732 042e 00000000 		.4byte	0
 7733              	.LLST26:
 7734 0432 1C000000 		.4byte	.LVL37
 7735 0436 1E000000 		.4byte	.LVL38
 7736 043a 0100     		.2byte	0x1
 7737 043c 53       		.byte	0x53
 7738 043d 1E000000 		.4byte	.LVL38
 7739 0441 72000000 		.4byte	.LVL45
 7740 0445 0100     		.2byte	0x1
 7741 0447 57       		.byte	0x57
 7742 0448 8E000000 		.4byte	.LVL47
 7743 044c A0000000 		.4byte	.LVL48
 7744 0450 0100     		.2byte	0x1
 7745 0452 57       		.byte	0x57
 7746 0453 A4000000 		.4byte	.LVL49
 7747 0457 4E010000 		.4byte	.LVL60
 7748 045b 0100     		.2byte	0x1
 7749 045d 57       		.byte	0x57
 7750 045e 00000000 		.4byte	0
 7751 0462 00000000 		.4byte	0
 7752              	.LLST27:
 7753 0466 1C000000 		.4byte	.LVL37
ARM GAS  C:\Users\Steve\AppData\Local\Temp\ccwjFJAL.s 			page 149


 7754 046a 72000000 		.4byte	.LVL45
 7755 046e 0200     		.2byte	0x2
 7756 0470 31       		.byte	0x31
 7757 0471 9F       		.byte	0x9f
 7758 0472 A4000000 		.4byte	.LVL49
 7759 0476 48010000 		.4byte	.LVL58
 7760 047a 0700     		.2byte	0x7
 7761 047c 75       		.byte	0x75
 7762 047d 00       		.sleb128 0
 7763 047e 31       		.byte	0x31
 7764 047f 24       		.byte	0x24
 7765 0480 23       		.byte	0x23
 7766 0481 01       		.uleb128 0x1
 7767 0482 9F       		.byte	0x9f
 7768 0483 48010000 		.4byte	.LVL58
 7769 0487 4A010000 		.4byte	.LVL59
 7770 048b 0700     		.2byte	0x7
 7771 048d 75       		.byte	0x75
 7772 048e 7F       		.sleb128 -1
 7773 048f 31       		.byte	0x31
 7774 0490 24       		.byte	0x24
 7775 0491 23       		.byte	0x23
 7776 0492 01       		.uleb128 0x1
 7777 0493 9F       		.byte	0x9f
 7778 0494 00000000 		.4byte	0
 7779 0498 00000000 		.4byte	0
 7780              	.LLST28:
 7781 049c 2A000000 		.4byte	.LVL39
 7782 04a0 72000000 		.4byte	.LVL45
 7783 04a4 0200     		.2byte	0x2
 7784 04a6 30       		.byte	0x30
 7785 04a7 9F       		.byte	0x9f
 7786 04a8 A4000000 		.4byte	.LVL49
 7787 04ac 4E010000 		.4byte	.LVL60
 7788 04b0 0200     		.2byte	0x2
 7789 04b2 91       		.byte	0x91
 7790 04b3 4C       		.sleb128 -52
 7791 04b4 00000000 		.4byte	0
 7792 04b8 00000000 		.4byte	0
 7793              	.LLST29:
 7794 04bc 2A000000 		.4byte	.LVL39
 7795 04c0 72000000 		.4byte	.LVL45
 7796 04c4 0100     		.2byte	0x1
 7797 04c6 56       		.byte	0x56
 7798 04c7 8A000000 		.4byte	.LVL46
 7799 04cb 4E010000 		.4byte	.LVL60
 7800 04cf 0200     		.2byte	0x2
 7801 04d1 91       		.byte	0x91
 7802 04d2 44       		.sleb128 -60
 7803 04d3 00000000 		.4byte	0
 7804 04d7 00000000 		.4byte	0
 7805              	.LLST30:
 7806 04db 00000000 		.4byte	.LFB37
 7807 04df 02000000 		.4byte	.LCFI7
 7808 04e3 0200     		.2byte	0x2
 7809 04e5 7D       		.byte	0x7d
 7810 04e6 00       		.sleb128 0
ARM GAS  C:\Users\Steve\AppData\Local\Temp\ccwjFJAL.s 			page 150


 7811 04e7 02000000 		.4byte	.LCFI7
 7812 04eb 0C000000 		.4byte	.LCFI8
 7813 04ef 0200     		.2byte	0x2
 7814 04f1 7D       		.byte	0x7d
 7815 04f2 14       		.sleb128 20
 7816 04f3 0C000000 		.4byte	.LCFI8
 7817 04f7 1C000000 		.4byte	.LCFI9
 7818 04fb 0200     		.2byte	0x2
 7819 04fd 7D       		.byte	0x7d
 7820 04fe 24       		.sleb128 36
 7821 04ff 1C000000 		.4byte	.LCFI9
 7822 0503 76010000 		.4byte	.LFE37
 7823 0507 0300     		.2byte	0x3
 7824 0509 7D       		.byte	0x7d
 7825 050a C000     		.sleb128 64
 7826 050c 00000000 		.4byte	0
 7827 0510 00000000 		.4byte	0
 7828              	.LLST31:
 7829 0514 00000000 		.4byte	.LVL63
 7830 0518 4E000000 		.4byte	.LVL67
 7831 051c 0100     		.2byte	0x1
 7832 051e 50       		.byte	0x50
 7833 051f 4E000000 		.4byte	.LVL67
 7834 0523 68010000 		.4byte	.LVL88
 7835 0527 0100     		.2byte	0x1
 7836 0529 59       		.byte	0x59
 7837 052a 68010000 		.4byte	.LVL88
 7838 052e 76010000 		.4byte	.LFE37
 7839 0532 0400     		.2byte	0x4
 7840 0534 F3       		.byte	0xf3
 7841 0535 01       		.uleb128 0x1
 7842 0536 50       		.byte	0x50
 7843 0537 9F       		.byte	0x9f
 7844 0538 00000000 		.4byte	0
 7845 053c 00000000 		.4byte	0
 7846              	.LLST32:
 7847 0540 00000000 		.4byte	.LVL63
 7848 0544 4E000000 		.4byte	.LVL67
 7849 0548 0100     		.2byte	0x1
 7850 054a 51       		.byte	0x51
 7851 054b 4E000000 		.4byte	.LVL67
 7852 054f 68010000 		.4byte	.LVL88
 7853 0553 0100     		.2byte	0x1
 7854 0555 58       		.byte	0x58
 7855 0556 68010000 		.4byte	.LVL88
 7856 055a 76010000 		.4byte	.LFE37
 7857 055e 0400     		.2byte	0x4
 7858 0560 F3       		.byte	0xf3
 7859 0561 01       		.uleb128 0x1
 7860 0562 51       		.byte	0x51
 7861 0563 9F       		.byte	0x9f
 7862 0564 00000000 		.4byte	0
 7863 0568 00000000 		.4byte	0
 7864              	.LLST33:
 7865 056c 00000000 		.4byte	.LVL63
 7866 0570 4E000000 		.4byte	.LVL67
 7867 0574 0100     		.2byte	0x1
ARM GAS  C:\Users\Steve\AppData\Local\Temp\ccwjFJAL.s 			page 151


 7868 0576 52       		.byte	0x52
 7869 0577 4E000000 		.4byte	.LVL67
 7870 057b 76010000 		.4byte	.LFE37
 7871 057f 0400     		.2byte	0x4
 7872 0581 F3       		.byte	0xf3
 7873 0582 01       		.uleb128 0x1
 7874 0583 52       		.byte	0x52
 7875 0584 9F       		.byte	0x9f
 7876 0585 00000000 		.4byte	0
 7877 0589 00000000 		.4byte	0
 7878              	.LLST34:
 7879 058d 00000000 		.4byte	.LVL63
 7880 0591 4E000000 		.4byte	.LVL67
 7881 0595 0100     		.2byte	0x1
 7882 0597 53       		.byte	0x53
 7883 0598 4E000000 		.4byte	.LVL67
 7884 059c 76010000 		.4byte	.LFE37
 7885 05a0 0400     		.2byte	0x4
 7886 05a2 F3       		.byte	0xf3
 7887 05a3 01       		.uleb128 0x1
 7888 05a4 53       		.byte	0x53
 7889 05a5 9F       		.byte	0x9f
 7890 05a6 00000000 		.4byte	0
 7891 05aa 00000000 		.4byte	0
 7892              	.LLST35:
 7893 05ae 14000000 		.4byte	.LVL64
 7894 05b2 16000000 		.4byte	.LVL65
 7895 05b6 0100     		.2byte	0x1
 7896 05b8 56       		.byte	0x56
 7897 05b9 16000000 		.4byte	.LVL65
 7898 05bd 4E000000 		.4byte	.LVL67
 7899 05c1 0100     		.2byte	0x1
 7900 05c3 55       		.byte	0x55
 7901 05c4 4E000000 		.4byte	.LVL67
 7902 05c8 50000000 		.4byte	.LVL68
 7903 05cc 0100     		.2byte	0x1
 7904 05ce 50       		.byte	0x50
 7905 05cf 50000000 		.4byte	.LVL68
 7906 05d3 6E000000 		.4byte	.LVL72
 7907 05d7 0100     		.2byte	0x1
 7908 05d9 55       		.byte	0x55
 7909 05da 86000000 		.4byte	.LVL74
 7910 05de 94000000 		.4byte	.LVL76
 7911 05e2 0100     		.2byte	0x1
 7912 05e4 55       		.byte	0x55
 7913 05e5 94000000 		.4byte	.LVL76
 7914 05e9 A4000000 		.4byte	.LVL77
 7915 05ed 0100     		.2byte	0x1
 7916 05ef 50       		.byte	0x50
 7917 05f0 A4000000 		.4byte	.LVL77
 7918 05f4 68010000 		.4byte	.LVL88
 7919 05f8 0100     		.2byte	0x1
 7920 05fa 55       		.byte	0x55
 7921 05fb 00000000 		.4byte	0
 7922 05ff 00000000 		.4byte	0
 7923              	.LLST36:
 7924 0603 14000000 		.4byte	.LVL64
ARM GAS  C:\Users\Steve\AppData\Local\Temp\ccwjFJAL.s 			page 152


 7925 0607 4E000000 		.4byte	.LVL67
 7926 060b 0200     		.2byte	0x2
 7927 060d 31       		.byte	0x31
 7928 060e 9F       		.byte	0x9f
 7929 060f 4E000000 		.4byte	.LVL67
 7930 0613 64000000 		.4byte	.LVL70
 7931 0617 0700     		.2byte	0x7
 7932 0619 74       		.byte	0x74
 7933 061a 00       		.sleb128 0
 7934 061b 31       		.byte	0x31
 7935 061c 24       		.byte	0x24
 7936 061d 23       		.byte	0x23
 7937 061e 01       		.uleb128 0x1
 7938 061f 9F       		.byte	0x9f
 7939 0620 64000000 		.4byte	.LVL70
 7940 0624 6A000000 		.4byte	.LVL71
 7941 0628 0700     		.2byte	0x7
 7942 062a 74       		.byte	0x74
 7943 062b 7F       		.sleb128 -1
 7944 062c 31       		.byte	0x31
 7945 062d 24       		.byte	0x24
 7946 062e 23       		.byte	0x23
 7947 062f 01       		.uleb128 0x1
 7948 0630 9F       		.byte	0x9f
 7949 0631 92000000 		.4byte	.LVL75
 7950 0635 5E010000 		.4byte	.LVL86
 7951 0639 0700     		.2byte	0x7
 7952 063b 74       		.byte	0x74
 7953 063c 00       		.sleb128 0
 7954 063d 31       		.byte	0x31
 7955 063e 24       		.byte	0x24
 7956 063f 23       		.byte	0x23
 7957 0640 01       		.uleb128 0x1
 7958 0641 9F       		.byte	0x9f
 7959 0642 5E010000 		.4byte	.LVL86
 7960 0646 64010000 		.4byte	.LVL87
 7961 064a 0700     		.2byte	0x7
 7962 064c 74       		.byte	0x74
 7963 064d 7F       		.sleb128 -1
 7964 064e 31       		.byte	0x31
 7965 064f 24       		.byte	0x24
 7966 0650 23       		.byte	0x23
 7967 0651 01       		.uleb128 0x1
 7968 0652 9F       		.byte	0x9f
 7969 0653 00000000 		.4byte	0
 7970 0657 00000000 		.4byte	0
 7971              	.LLST37:
 7972 065b 22000000 		.4byte	.LVL66
 7973 065f 4E000000 		.4byte	.LVL67
 7974 0663 0200     		.2byte	0x2
 7975 0665 30       		.byte	0x30
 7976 0666 9F       		.byte	0x9f
 7977 0667 4E000000 		.4byte	.LVL67
 7978 066b 60000000 		.4byte	.LVL69
 7979 066f 0100     		.2byte	0x1
 7980 0671 54       		.byte	0x54
 7981 0672 60000000 		.4byte	.LVL69
ARM GAS  C:\Users\Steve\AppData\Local\Temp\ccwjFJAL.s 			page 153


 7982 0676 6E000000 		.4byte	.LVL72
 7983 067a 0100     		.2byte	0x1
 7984 067c 5A       		.byte	0x5a
 7985 067d 92000000 		.4byte	.LVL75
 7986 0681 5A010000 		.4byte	.LVL85
 7987 0685 0100     		.2byte	0x1
 7988 0687 54       		.byte	0x54
 7989 0688 5A010000 		.4byte	.LVL85
 7990 068c 68010000 		.4byte	.LVL88
 7991 0690 0100     		.2byte	0x1
 7992 0692 5A       		.byte	0x5a
 7993 0693 00000000 		.4byte	0
 7994 0697 00000000 		.4byte	0
 7995              	.LLST38:
 7996 069b 22000000 		.4byte	.LVL66
 7997 069f 4E000000 		.4byte	.LVL67
 7998 06a3 0100     		.2byte	0x1
 7999 06a5 52       		.byte	0x52
 8000 06a6 4E000000 		.4byte	.LVL67
 8001 06aa 6E000000 		.4byte	.LVL72
 8002 06ae 0100     		.2byte	0x1
 8003 06b0 56       		.byte	0x56
 8004 06b1 82000000 		.4byte	.LVL73
 8005 06b5 68010000 		.4byte	.LVL88
 8006 06b9 0100     		.2byte	0x1
 8007 06bb 56       		.byte	0x56
 8008 06bc 00000000 		.4byte	0
 8009 06c0 00000000 		.4byte	0
 8010              	.LLST39:
 8011 06c4 00000000 		.4byte	.LFB38
 8012 06c8 02000000 		.4byte	.LCFI10
 8013 06cc 0200     		.2byte	0x2
 8014 06ce 7D       		.byte	0x7d
 8015 06cf 00       		.sleb128 0
 8016 06d0 02000000 		.4byte	.LCFI10
 8017 06d4 0C000000 		.4byte	.LCFI11
 8018 06d8 0200     		.2byte	0x2
 8019 06da 7D       		.byte	0x7d
 8020 06db 14       		.sleb128 20
 8021 06dc 0C000000 		.4byte	.LCFI11
 8022 06e0 0E000000 		.4byte	.LCFI12
 8023 06e4 0200     		.2byte	0x2
 8024 06e6 7D       		.byte	0x7d
 8025 06e7 24       		.sleb128 36
 8026 06e8 0E000000 		.4byte	.LCFI12
 8027 06ec 00020000 		.4byte	.LFE38
 8028 06f0 0200     		.2byte	0x2
 8029 06f2 7D       		.byte	0x7d
 8030 06f3 30       		.sleb128 48
 8031 06f4 00000000 		.4byte	0
 8032 06f8 00000000 		.4byte	0
 8033              	.LLST40:
 8034 06fc 00000000 		.4byte	.LVL89
 8035 0700 14000000 		.4byte	.LVL90
 8036 0704 0100     		.2byte	0x1
 8037 0706 50       		.byte	0x50
 8038 0707 14000000 		.4byte	.LVL90
ARM GAS  C:\Users\Steve\AppData\Local\Temp\ccwjFJAL.s 			page 154


 8039 070b 3E000000 		.4byte	.LVL93
 8040 070f 0400     		.2byte	0x4
 8041 0711 F3       		.byte	0xf3
 8042 0712 01       		.uleb128 0x1
 8043 0713 50       		.byte	0x50
 8044 0714 9F       		.byte	0x9f
 8045 0715 3E000000 		.4byte	.LVL93
 8046 0719 A6000000 		.4byte	.LVL105
 8047 071d 0100     		.2byte	0x1
 8048 071f 54       		.byte	0x54
 8049 0720 A6000000 		.4byte	.LVL105
 8050 0724 A8000000 		.4byte	.LVL106
 8051 0728 0300     		.2byte	0x3
 8052 072a 74       		.byte	0x74
 8053 072b 7F       		.sleb128 -1
 8054 072c 9F       		.byte	0x9f
 8055 072d 98010000 		.4byte	.LVL125
 8056 0731 A0010000 		.4byte	.LVL127
 8057 0735 0100     		.2byte	0x1
 8058 0737 54       		.byte	0x54
 8059 0738 A0010000 		.4byte	.LVL127
 8060 073c A6010000 		.4byte	.LVL130
 8061 0740 0100     		.2byte	0x1
 8062 0742 50       		.byte	0x50
 8063 0743 A6010000 		.4byte	.LVL130
 8064 0747 B0010000 		.4byte	.LVL132
 8065 074b 0400     		.2byte	0x4
 8066 074d F3       		.byte	0xf3
 8067 074e 01       		.uleb128 0x1
 8068 074f 50       		.byte	0x50
 8069 0750 9F       		.byte	0x9f
 8070 0751 B0010000 		.4byte	.LVL132
 8071 0755 D8010000 		.4byte	.LVL138
 8072 0759 0100     		.2byte	0x1
 8073 075b 54       		.byte	0x54
 8074 075c 00000000 		.4byte	0
 8075 0760 00000000 		.4byte	0
 8076              	.LLST41:
 8077 0764 00000000 		.4byte	.LVL89
 8078 0768 2A000000 		.4byte	.LVL91
 8079 076c 0100     		.2byte	0x1
 8080 076e 51       		.byte	0x51
 8081 076f 2A000000 		.4byte	.LVL91
 8082 0773 3E000000 		.4byte	.LVL93
 8083 0777 0400     		.2byte	0x4
 8084 0779 F3       		.byte	0xf3
 8085 077a 01       		.uleb128 0x1
 8086 077b 51       		.byte	0x51
 8087 077c 9F       		.byte	0x9f
 8088 077d 3E000000 		.4byte	.LVL93
 8089 0781 DE000000 		.4byte	.LVL109
 8090 0785 0100     		.2byte	0x1
 8091 0787 55       		.byte	0x55
 8092 0788 00010000 		.4byte	.LVL113
 8093 078c 08010000 		.4byte	.LVL114
 8094 0790 0100     		.2byte	0x1
 8095 0792 55       		.byte	0x55
ARM GAS  C:\Users\Steve\AppData\Local\Temp\ccwjFJAL.s 			page 155


 8096 0793 22010000 		.4byte	.LVL116
 8097 0797 2A010000 		.4byte	.LVL117
 8098 079b 0100     		.2byte	0x1
 8099 079d 55       		.byte	0x55
 8100 079e 54010000 		.4byte	.LVL119
 8101 07a2 5C010000 		.4byte	.LVL120
 8102 07a6 0100     		.2byte	0x1
 8103 07a8 55       		.byte	0x55
 8104 07a9 84010000 		.4byte	.LVL122
 8105 07ad 8A010000 		.4byte	.LVL123
 8106 07b1 0100     		.2byte	0x1
 8107 07b3 55       		.byte	0x55
 8108 07b4 98010000 		.4byte	.LVL125
 8109 07b8 9E010000 		.4byte	.LVL126
 8110 07bc 0100     		.2byte	0x1
 8111 07be 55       		.byte	0x55
 8112 07bf 9E010000 		.4byte	.LVL126
 8113 07c3 A6010000 		.4byte	.LVL130
 8114 07c7 0100     		.2byte	0x1
 8115 07c9 56       		.byte	0x56
 8116 07ca A6010000 		.4byte	.LVL130
 8117 07ce B0010000 		.4byte	.LVL132
 8118 07d2 0400     		.2byte	0x4
 8119 07d4 F3       		.byte	0xf3
 8120 07d5 01       		.uleb128 0x1
 8121 07d6 51       		.byte	0x51
 8122 07d7 9F       		.byte	0x9f
 8123 07d8 B0010000 		.4byte	.LVL132
 8124 07dc D2010000 		.4byte	.LVL136
 8125 07e0 0100     		.2byte	0x1
 8126 07e2 55       		.byte	0x55
 8127 07e3 D4010000 		.4byte	.LVL137
 8128 07e7 FA010000 		.4byte	.LVL140
 8129 07eb 0100     		.2byte	0x1
 8130 07ed 55       		.byte	0x55
 8131 07ee FC010000 		.4byte	.LVL141
 8132 07f2 00020000 		.4byte	.LFE38
 8133 07f6 0100     		.2byte	0x1
 8134 07f8 55       		.byte	0x55
 8135 07f9 00000000 		.4byte	0
 8136 07fd 00000000 		.4byte	0
 8137              	.LLST42:
 8138 0801 00000000 		.4byte	.LVL89
 8139 0805 3E000000 		.4byte	.LVL93
 8140 0809 0100     		.2byte	0x1
 8141 080b 52       		.byte	0x52
 8142 080c 3E000000 		.4byte	.LVL93
 8143 0810 E2000000 		.4byte	.LVL110
 8144 0814 0100     		.2byte	0x1
 8145 0816 57       		.byte	0x57
 8146 0817 E2000000 		.4byte	.LVL110
 8147 081b E6000000 		.4byte	.LVL111
 8148 081f 0100     		.2byte	0x1
 8149 0821 51       		.byte	0x51
 8150 0822 E6000000 		.4byte	.LVL111
 8151 0826 8A010000 		.4byte	.LVL123
 8152 082a 0100     		.2byte	0x1
ARM GAS  C:\Users\Steve\AppData\Local\Temp\ccwjFJAL.s 			page 156


 8153 082c 59       		.byte	0x59
 8154 082d 98010000 		.4byte	.LVL125
 8155 0831 A4010000 		.4byte	.LVL129
 8156 0835 0100     		.2byte	0x1
 8157 0837 57       		.byte	0x57
 8158 0838 A4010000 		.4byte	.LVL129
 8159 083c A6010000 		.4byte	.LVL130
 8160 0840 0100     		.2byte	0x1
 8161 0842 54       		.byte	0x54
 8162 0843 A6010000 		.4byte	.LVL130
 8163 0847 AC010000 		.4byte	.LVL131
 8164 084b 0100     		.2byte	0x1
 8165 084d 52       		.byte	0x52
 8166 084e AC010000 		.4byte	.LVL131
 8167 0852 B0010000 		.4byte	.LVL132
 8168 0856 0400     		.2byte	0x4
 8169 0858 F3       		.byte	0xf3
 8170 0859 01       		.uleb128 0x1
 8171 085a 52       		.byte	0x52
 8172 085b 9F       		.byte	0x9f
 8173 085c B0010000 		.4byte	.LVL132
 8174 0860 00020000 		.4byte	.LFE38
 8175 0864 0100     		.2byte	0x1
 8176 0866 57       		.byte	0x57
 8177 0867 00000000 		.4byte	0
 8178 086b 00000000 		.4byte	0
 8179              	.LLST43:
 8180 086f 00000000 		.4byte	.LVL89
 8181 0873 3C000000 		.4byte	.LVL92
 8182 0877 0100     		.2byte	0x1
 8183 0879 53       		.byte	0x53
 8184 087a 3C000000 		.4byte	.LVL92
 8185 087e 3E000000 		.4byte	.LVL93
 8186 0882 0400     		.2byte	0x4
 8187 0884 F3       		.byte	0xf3
 8188 0885 01       		.uleb128 0x1
 8189 0886 53       		.byte	0x53
 8190 0887 9F       		.byte	0x9f
 8191 0888 3E000000 		.4byte	.LVL93
 8192 088c 6C000000 		.4byte	.LVL99
 8193 0890 0100     		.2byte	0x1
 8194 0892 53       		.byte	0x53
 8195 0893 98010000 		.4byte	.LVL125
 8196 0897 A2010000 		.4byte	.LVL128
 8197 089b 0100     		.2byte	0x1
 8198 089d 53       		.byte	0x53
 8199 089e A2010000 		.4byte	.LVL128
 8200 08a2 A6010000 		.4byte	.LVL130
 8201 08a6 0100     		.2byte	0x1
 8202 08a8 55       		.byte	0x55
 8203 08a9 A6010000 		.4byte	.LVL130
 8204 08ad B0010000 		.4byte	.LVL132
 8205 08b1 0100     		.2byte	0x1
 8206 08b3 53       		.byte	0x53
 8207 08b4 00000000 		.4byte	0
 8208 08b8 00000000 		.4byte	0
 8209              	.LLST44:
ARM GAS  C:\Users\Steve\AppData\Local\Temp\ccwjFJAL.s 			page 157


 8210 08bc 56000000 		.4byte	.LVL95
 8211 08c0 5E000000 		.4byte	.LVL97
 8212 08c4 0100     		.2byte	0x1
 8213 08c6 56       		.byte	0x56
 8214 08c7 5E000000 		.4byte	.LVL97
 8215 08cb 8C010000 		.4byte	.LVL124
 8216 08cf 0100     		.2byte	0x1
 8217 08d1 5B       		.byte	0x5b
 8218 08d2 B0010000 		.4byte	.LVL132
 8219 08d6 00020000 		.4byte	.LFE38
 8220 08da 0100     		.2byte	0x1
 8221 08dc 5B       		.byte	0x5b
 8222 08dd 00000000 		.4byte	0
 8223 08e1 00000000 		.4byte	0
 8224              	.LLST45:
 8225 08e5 5A000000 		.4byte	.LVL96
 8226 08e9 7A000000 		.4byte	.LVL101
 8227 08ed 0100     		.2byte	0x1
 8228 08ef 52       		.byte	0x52
 8229 08f0 00000000 		.4byte	0
 8230 08f4 00000000 		.4byte	0
 8231              	.LLST46:
 8232 08f8 64000000 		.4byte	.LVL98
 8233 08fc 6E000000 		.4byte	.LVL100
 8234 0900 0100     		.2byte	0x1
 8235 0902 50       		.byte	0x50
 8236 0903 6E000000 		.4byte	.LVL100
 8237 0907 98000000 		.4byte	.LVL103
 8238 090b 0100     		.2byte	0x1
 8239 090d 56       		.byte	0x56
 8240 090e 98000000 		.4byte	.LVL103
 8241 0912 A4000000 		.4byte	.LVL104
 8242 0916 1200     		.2byte	0x12
 8243 0918 7B       		.byte	0x7b
 8244 0919 00       		.sleb128 0
 8245 091a 48       		.byte	0x48
 8246 091b 24       		.byte	0x24
 8247 091c 48       		.byte	0x48
 8248 091d 26       		.byte	0x26
 8249 091e 4F       		.byte	0x4f
 8250 091f 25       		.byte	0x25
 8251 0920 7B       		.byte	0x7b
 8252 0921 00       		.sleb128 0
 8253 0922 48       		.byte	0x48
 8254 0923 24       		.byte	0x24
 8255 0924 48       		.byte	0x48
 8256 0925 26       		.byte	0x26
 8257 0926 22       		.byte	0x22
 8258 0927 31       		.byte	0x31
 8259 0928 26       		.byte	0x26
 8260 0929 9F       		.byte	0x9f
 8261 092a B0010000 		.4byte	.LVL132
 8262 092e C0010000 		.4byte	.LVL134
 8263 0932 0100     		.2byte	0x1
 8264 0934 56       		.byte	0x56
 8265 0935 C0010000 		.4byte	.LVL134
 8266 0939 CC010000 		.4byte	.LVL135
ARM GAS  C:\Users\Steve\AppData\Local\Temp\ccwjFJAL.s 			page 158


 8267 093d 1200     		.2byte	0x12
 8268 093f 7B       		.byte	0x7b
 8269 0940 00       		.sleb128 0
 8270 0941 48       		.byte	0x48
 8271 0942 24       		.byte	0x24
 8272 0943 48       		.byte	0x48
 8273 0944 26       		.byte	0x26
 8274 0945 4F       		.byte	0x4f
 8275 0946 25       		.byte	0x25
 8276 0947 7B       		.byte	0x7b
 8277 0948 00       		.sleb128 0
 8278 0949 48       		.byte	0x48
 8279 094a 24       		.byte	0x24
 8280 094b 48       		.byte	0x48
 8281 094c 26       		.byte	0x26
 8282 094d 22       		.byte	0x22
 8283 094e 31       		.byte	0x31
 8284 094f 26       		.byte	0x26
 8285 0950 9F       		.byte	0x9f
 8286 0951 00000000 		.4byte	0
 8287 0955 00000000 		.4byte	0
 8288              	.LLST47:
 8289 0959 6E000000 		.4byte	.LVL100
 8290 095d A8000000 		.4byte	.LVL106
 8291 0961 0200     		.2byte	0x2
 8292 0963 7D       		.byte	0x7d
 8293 0964 00       		.sleb128 0
 8294 0965 B0010000 		.4byte	.LVL132
 8295 0969 D8010000 		.4byte	.LVL138
 8296 096d 0200     		.2byte	0x2
 8297 096f 7D       		.byte	0x7d
 8298 0970 00       		.sleb128 0
 8299 0971 00000000 		.4byte	0
 8300 0975 00000000 		.4byte	0
 8301              	.LLST48:
 8302 0979 00000000 		.4byte	.LFB40
 8303 097d 02000000 		.4byte	.LCFI13
 8304 0981 0200     		.2byte	0x2
 8305 0983 7D       		.byte	0x7d
 8306 0984 00       		.sleb128 0
 8307 0985 02000000 		.4byte	.LCFI13
 8308 0989 06000000 		.4byte	.LCFI14
 8309 098d 0200     		.2byte	0x2
 8310 098f 7D       		.byte	0x7d
 8311 0990 10       		.sleb128 16
 8312 0991 06000000 		.4byte	.LCFI14
 8313 0995 26000000 		.4byte	.LFE40
 8314 0999 0200     		.2byte	0x2
 8315 099b 7D       		.byte	0x7d
 8316 099c 20       		.sleb128 32
 8317 099d 00000000 		.4byte	0
 8318 09a1 00000000 		.4byte	0
 8319              	.LLST49:
 8320 09a5 00000000 		.4byte	.LVL142
 8321 09a9 0E000000 		.4byte	.LVL143
 8322 09ad 0100     		.2byte	0x1
 8323 09af 50       		.byte	0x50
ARM GAS  C:\Users\Steve\AppData\Local\Temp\ccwjFJAL.s 			page 159


 8324 09b0 0E000000 		.4byte	.LVL143
 8325 09b4 26000000 		.4byte	.LFE40
 8326 09b8 0400     		.2byte	0x4
 8327 09ba F3       		.byte	0xf3
 8328 09bb 01       		.uleb128 0x1
 8329 09bc 50       		.byte	0x50
 8330 09bd 9F       		.byte	0x9f
 8331 09be 00000000 		.4byte	0
 8332 09c2 00000000 		.4byte	0
 8333              	.LLST50:
 8334 09c6 00000000 		.4byte	.LVL142
 8335 09ca 21000000 		.4byte	.LVL145-1
 8336 09ce 0100     		.2byte	0x1
 8337 09d0 51       		.byte	0x51
 8338 09d1 21000000 		.4byte	.LVL145-1
 8339 09d5 26000000 		.4byte	.LFE40
 8340 09d9 0400     		.2byte	0x4
 8341 09db F3       		.byte	0xf3
 8342 09dc 01       		.uleb128 0x1
 8343 09dd 51       		.byte	0x51
 8344 09de 9F       		.byte	0x9f
 8345 09df 00000000 		.4byte	0
 8346 09e3 00000000 		.4byte	0
 8347              	.LLST51:
 8348 09e7 00000000 		.4byte	.LVL142
 8349 09eb 10000000 		.4byte	.LVL144
 8350 09ef 0100     		.2byte	0x1
 8351 09f1 52       		.byte	0x52
 8352 09f2 10000000 		.4byte	.LVL144
 8353 09f6 26000000 		.4byte	.LFE40
 8354 09fa 0400     		.2byte	0x4
 8355 09fc F3       		.byte	0xf3
 8356 09fd 01       		.uleb128 0x1
 8357 09fe 52       		.byte	0x52
 8358 09ff 9F       		.byte	0x9f
 8359 0a00 00000000 		.4byte	0
 8360 0a04 00000000 		.4byte	0
 8361              	.LLST52:
 8362 0a08 00000000 		.4byte	.LFB41
 8363 0a0c 02000000 		.4byte	.LCFI15
 8364 0a10 0200     		.2byte	0x2
 8365 0a12 7D       		.byte	0x7d
 8366 0a13 00       		.sleb128 0
 8367 0a14 02000000 		.4byte	.LCFI15
 8368 0a18 06000000 		.4byte	.LCFI16
 8369 0a1c 0200     		.2byte	0x2
 8370 0a1e 7D       		.byte	0x7d
 8371 0a1f 0C       		.sleb128 12
 8372 0a20 06000000 		.4byte	.LCFI16
 8373 0a24 26000000 		.4byte	.LFE41
 8374 0a28 0200     		.2byte	0x2
 8375 0a2a 7D       		.byte	0x7d
 8376 0a2b 20       		.sleb128 32
 8377 0a2c 00000000 		.4byte	0
 8378 0a30 00000000 		.4byte	0
 8379              	.LLST53:
 8380 0a34 00000000 		.4byte	.LVL146
ARM GAS  C:\Users\Steve\AppData\Local\Temp\ccwjFJAL.s 			page 160


 8381 0a38 21000000 		.4byte	.LVL149-1
 8382 0a3c 0100     		.2byte	0x1
 8383 0a3e 50       		.byte	0x50
 8384 0a3f 21000000 		.4byte	.LVL149-1
 8385 0a43 26000000 		.4byte	.LFE41
 8386 0a47 0400     		.2byte	0x4
 8387 0a49 F3       		.byte	0xf3
 8388 0a4a 01       		.uleb128 0x1
 8389 0a4b 50       		.byte	0x50
 8390 0a4c 9F       		.byte	0x9f
 8391 0a4d 00000000 		.4byte	0
 8392 0a51 00000000 		.4byte	0
 8393              	.LLST54:
 8394 0a55 00000000 		.4byte	.LVL146
 8395 0a59 08000000 		.4byte	.LVL147
 8396 0a5d 0100     		.2byte	0x1
 8397 0a5f 51       		.byte	0x51
 8398 0a60 08000000 		.4byte	.LVL147
 8399 0a64 26000000 		.4byte	.LFE41
 8400 0a68 0400     		.2byte	0x4
 8401 0a6a F3       		.byte	0xf3
 8402 0a6b 01       		.uleb128 0x1
 8403 0a6c 51       		.byte	0x51
 8404 0a6d 9F       		.byte	0x9f
 8405 0a6e 00000000 		.4byte	0
 8406 0a72 00000000 		.4byte	0
 8407              	.LLST55:
 8408 0a76 00000000 		.4byte	.LVL146
 8409 0a7a 0C000000 		.4byte	.LVL148
 8410 0a7e 0100     		.2byte	0x1
 8411 0a80 52       		.byte	0x52
 8412 0a81 0C000000 		.4byte	.LVL148
 8413 0a85 26000000 		.4byte	.LFE41
 8414 0a89 0400     		.2byte	0x4
 8415 0a8b F3       		.byte	0xf3
 8416 0a8c 01       		.uleb128 0x1
 8417 0a8d 52       		.byte	0x52
 8418 0a8e 9F       		.byte	0x9f
 8419 0a8f 00000000 		.4byte	0
 8420 0a93 00000000 		.4byte	0
 8421              	.LLST56:
 8422 0a97 00000000 		.4byte	.LFB39
 8423 0a9b 02000000 		.4byte	.LCFI17
 8424 0a9f 0200     		.2byte	0x2
 8425 0aa1 7D       		.byte	0x7d
 8426 0aa2 00       		.sleb128 0
 8427 0aa3 02000000 		.4byte	.LCFI17
 8428 0aa7 0C000000 		.4byte	.LCFI18
 8429 0aab 0200     		.2byte	0x2
 8430 0aad 7D       		.byte	0x7d
 8431 0aae 14       		.sleb128 20
 8432 0aaf 0C000000 		.4byte	.LCFI18
 8433 0ab3 0E000000 		.4byte	.LCFI19
 8434 0ab7 0200     		.2byte	0x2
 8435 0ab9 7D       		.byte	0x7d
 8436 0aba 24       		.sleb128 36
 8437 0abb 0E000000 		.4byte	.LCFI19
ARM GAS  C:\Users\Steve\AppData\Local\Temp\ccwjFJAL.s 			page 161


 8438 0abf 72000000 		.4byte	.LFE39
 8439 0ac3 0200     		.2byte	0x2
 8440 0ac5 7D       		.byte	0x7d
 8441 0ac6 30       		.sleb128 48
 8442 0ac7 00000000 		.4byte	0
 8443 0acb 00000000 		.4byte	0
 8444              	.LLST57:
 8445 0acf 00000000 		.4byte	.LVL150
 8446 0ad3 20000000 		.4byte	.LVL152
 8447 0ad7 0100     		.2byte	0x1
 8448 0ad9 50       		.byte	0x50
 8449 0ada 20000000 		.4byte	.LVL152
 8450 0ade 72000000 		.4byte	.LFE39
 8451 0ae2 0400     		.2byte	0x4
 8452 0ae4 F3       		.byte	0xf3
 8453 0ae5 01       		.uleb128 0x1
 8454 0ae6 50       		.byte	0x50
 8455 0ae7 9F       		.byte	0x9f
 8456 0ae8 00000000 		.4byte	0
 8457 0aec 00000000 		.4byte	0
 8458              	.LLST58:
 8459 0af0 00000000 		.4byte	.LVL150
 8460 0af4 22000000 		.4byte	.LVL153
 8461 0af8 0100     		.2byte	0x1
 8462 0afa 51       		.byte	0x51
 8463 0afb 22000000 		.4byte	.LVL153
 8464 0aff 72000000 		.4byte	.LFE39
 8465 0b03 0400     		.2byte	0x4
 8466 0b05 F3       		.byte	0xf3
 8467 0b06 01       		.uleb128 0x1
 8468 0b07 51       		.byte	0x51
 8469 0b08 9F       		.byte	0x9f
 8470 0b09 00000000 		.4byte	0
 8471 0b0d 00000000 		.4byte	0
 8472              	.LLST59:
 8473 0b11 00000000 		.4byte	.LVL150
 8474 0b15 1E000000 		.4byte	.LVL151
 8475 0b19 0100     		.2byte	0x1
 8476 0b1b 52       		.byte	0x52
 8477 0b1c 1E000000 		.4byte	.LVL151
 8478 0b20 72000000 		.4byte	.LFE39
 8479 0b24 0400     		.2byte	0x4
 8480 0b26 F3       		.byte	0xf3
 8481 0b27 01       		.uleb128 0x1
 8482 0b28 52       		.byte	0x52
 8483 0b29 9F       		.byte	0x9f
 8484 0b2a 00000000 		.4byte	0
 8485 0b2e 00000000 		.4byte	0
 8486              	.LLST60:
 8487 0b32 00000000 		.4byte	.LVL150
 8488 0b36 24000000 		.4byte	.LVL154
 8489 0b3a 0100     		.2byte	0x1
 8490 0b3c 53       		.byte	0x53
 8491 0b3d 24000000 		.4byte	.LVL154
 8492 0b41 72000000 		.4byte	.LFE39
 8493 0b45 0400     		.2byte	0x4
 8494 0b47 F3       		.byte	0xf3
ARM GAS  C:\Users\Steve\AppData\Local\Temp\ccwjFJAL.s 			page 162


 8495 0b48 01       		.uleb128 0x1
 8496 0b49 53       		.byte	0x53
 8497 0b4a 9F       		.byte	0x9f
 8498 0b4b 00000000 		.4byte	0
 8499 0b4f 00000000 		.4byte	0
 8500              	.LLST61:
 8501 0b53 00000000 		.4byte	.LFB42
 8502 0b57 02000000 		.4byte	.LCFI20
 8503 0b5b 0200     		.2byte	0x2
 8504 0b5d 7D       		.byte	0x7d
 8505 0b5e 00       		.sleb128 0
 8506 0b5f 02000000 		.4byte	.LCFI20
 8507 0b63 0A000000 		.4byte	.LCFI21
 8508 0b67 0200     		.2byte	0x2
 8509 0b69 7D       		.byte	0x7d
 8510 0b6a 14       		.sleb128 20
 8511 0b6b 0A000000 		.4byte	.LCFI21
 8512 0b6f 0C000000 		.4byte	.LCFI22
 8513 0b73 0200     		.2byte	0x2
 8514 0b75 7D       		.byte	0x7d
 8515 0b76 20       		.sleb128 32
 8516 0b77 0C000000 		.4byte	.LCFI22
 8517 0b7b 92000000 		.4byte	.LFE42
 8518 0b7f 0200     		.2byte	0x2
 8519 0b81 7D       		.byte	0x7d
 8520 0b82 28       		.sleb128 40
 8521 0b83 00000000 		.4byte	0
 8522 0b87 00000000 		.4byte	0
 8523              	.LLST62:
 8524 0b8b 00000000 		.4byte	.LVL159
 8525 0b8f 16000000 		.4byte	.LVL162
 8526 0b93 0100     		.2byte	0x1
 8527 0b95 50       		.byte	0x50
 8528 0b96 16000000 		.4byte	.LVL162
 8529 0b9a 92000000 		.4byte	.LFE42
 8530 0b9e 0400     		.2byte	0x4
 8531 0ba0 F3       		.byte	0xf3
 8532 0ba1 01       		.uleb128 0x1
 8533 0ba2 50       		.byte	0x50
 8534 0ba3 9F       		.byte	0x9f
 8535 0ba4 00000000 		.4byte	0
 8536 0ba8 00000000 		.4byte	0
 8537              	.LLST63:
 8538 0bac 00000000 		.4byte	.LVL159
 8539 0bb0 24000000 		.4byte	.LVL163
 8540 0bb4 0100     		.2byte	0x1
 8541 0bb6 51       		.byte	0x51
 8542 0bb7 24000000 		.4byte	.LVL163
 8543 0bbb 92000000 		.4byte	.LFE42
 8544 0bbf 0400     		.2byte	0x4
 8545 0bc1 F3       		.byte	0xf3
 8546 0bc2 01       		.uleb128 0x1
 8547 0bc3 51       		.byte	0x51
 8548 0bc4 9F       		.byte	0x9f
 8549 0bc5 00000000 		.4byte	0
 8550 0bc9 00000000 		.4byte	0
 8551              	.LLST64:
ARM GAS  C:\Users\Steve\AppData\Local\Temp\ccwjFJAL.s 			page 163


 8552 0bcd 00000000 		.4byte	.LVL159
 8553 0bd1 10000000 		.4byte	.LVL160
 8554 0bd5 0100     		.2byte	0x1
 8555 0bd7 52       		.byte	0x52
 8556 0bd8 10000000 		.4byte	.LVL160
 8557 0bdc 92000000 		.4byte	.LFE42
 8558 0be0 0400     		.2byte	0x4
 8559 0be2 F3       		.byte	0xf3
 8560 0be3 01       		.uleb128 0x1
 8561 0be4 52       		.byte	0x52
 8562 0be5 9F       		.byte	0x9f
 8563 0be6 00000000 		.4byte	0
 8564 0bea 00000000 		.4byte	0
 8565              	.LLST65:
 8566 0bee 00000000 		.4byte	.LVL159
 8567 0bf2 12000000 		.4byte	.LVL161
 8568 0bf6 0100     		.2byte	0x1
 8569 0bf8 53       		.byte	0x53
 8570 0bf9 12000000 		.4byte	.LVL161
 8571 0bfd 92000000 		.4byte	.LFE42
 8572 0c01 0400     		.2byte	0x4
 8573 0c03 F3       		.byte	0xf3
 8574 0c04 01       		.uleb128 0x1
 8575 0c05 53       		.byte	0x53
 8576 0c06 9F       		.byte	0x9f
 8577 0c07 00000000 		.4byte	0
 8578 0c0b 00000000 		.4byte	0
 8579              	.LLST66:
 8580 0c0f 00000000 		.4byte	.LVL159
 8581 0c13 16000000 		.4byte	.LVL162
 8582 0c17 0100     		.2byte	0x1
 8583 0c19 50       		.byte	0x50
 8584 0c1a 16000000 		.4byte	.LVL162
 8585 0c1e 38000000 		.4byte	.LVL164
 8586 0c22 0100     		.2byte	0x1
 8587 0c24 55       		.byte	0x55
 8588 0c25 00000000 		.4byte	0
 8589 0c29 00000000 		.4byte	0
 8590              	.LLST67:
 8591 0c2d 00000000 		.4byte	.LFB43
 8592 0c31 02000000 		.4byte	.LCFI23
 8593 0c35 0200     		.2byte	0x2
 8594 0c37 7D       		.byte	0x7d
 8595 0c38 00       		.sleb128 0
 8596 0c39 02000000 		.4byte	.LCFI23
 8597 0c3d 04000000 		.4byte	.LCFI24
 8598 0c41 0200     		.2byte	0x2
 8599 0c43 7D       		.byte	0x7d
 8600 0c44 04       		.sleb128 4
 8601 0c45 04000000 		.4byte	.LCFI24
 8602 0c49 20000000 		.4byte	.LFE43
 8603 0c4d 0200     		.2byte	0x2
 8604 0c4f 7D       		.byte	0x7d
 8605 0c50 18       		.sleb128 24
 8606 0c51 00000000 		.4byte	0
 8607 0c55 00000000 		.4byte	0
 8608              	.LLST68:
ARM GAS  C:\Users\Steve\AppData\Local\Temp\ccwjFJAL.s 			page 164


 8609 0c59 00000000 		.4byte	.LVL168
 8610 0c5d 16000000 		.4byte	.LVL169
 8611 0c61 0100     		.2byte	0x1
 8612 0c63 51       		.byte	0x51
 8613 0c64 16000000 		.4byte	.LVL169
 8614 0c68 1B000000 		.4byte	.LVL170-1
 8615 0c6c 0200     		.2byte	0x2
 8616 0c6e 91       		.byte	0x91
 8617 0c6f 6C       		.sleb128 -20
 8618 0c70 1B000000 		.4byte	.LVL170-1
 8619 0c74 20000000 		.4byte	.LFE43
 8620 0c78 0400     		.2byte	0x4
 8621 0c7a F3       		.byte	0xf3
 8622 0c7b 01       		.uleb128 0x1
 8623 0c7c 51       		.byte	0x51
 8624 0c7d 9F       		.byte	0x9f
 8625 0c7e 00000000 		.4byte	0
 8626 0c82 00000000 		.4byte	0
 8627              	.LLST69:
 8628 0c86 00000000 		.4byte	.LFB44
 8629 0c8a 02000000 		.4byte	.LCFI25
 8630 0c8e 0200     		.2byte	0x2
 8631 0c90 7D       		.byte	0x7d
 8632 0c91 00       		.sleb128 0
 8633 0c92 02000000 		.4byte	.LCFI25
 8634 0c96 0A000000 		.4byte	.LCFI26
 8635 0c9a 0200     		.2byte	0x2
 8636 0c9c 7D       		.byte	0x7d
 8637 0c9d 14       		.sleb128 20
 8638 0c9e 0A000000 		.4byte	.LCFI26
 8639 0ca2 0C000000 		.4byte	.LCFI27
 8640 0ca6 0200     		.2byte	0x2
 8641 0ca8 7D       		.byte	0x7d
 8642 0ca9 20       		.sleb128 32
 8643 0caa 0C000000 		.4byte	.LCFI27
 8644 0cae 7E000000 		.4byte	.LFE44
 8645 0cb2 0200     		.2byte	0x2
 8646 0cb4 7D       		.byte	0x7d
 8647 0cb5 28       		.sleb128 40
 8648 0cb6 00000000 		.4byte	0
 8649 0cba 00000000 		.4byte	0
 8650              	.LLST70:
 8651 0cbe 00000000 		.4byte	.LVL171
 8652 0cc2 14000000 		.4byte	.LVL173
 8653 0cc6 0100     		.2byte	0x1
 8654 0cc8 50       		.byte	0x50
 8655 0cc9 14000000 		.4byte	.LVL173
 8656 0ccd 7E000000 		.4byte	.LFE44
 8657 0cd1 0400     		.2byte	0x4
 8658 0cd3 F3       		.byte	0xf3
 8659 0cd4 01       		.uleb128 0x1
 8660 0cd5 50       		.byte	0x50
 8661 0cd6 9F       		.byte	0x9f
 8662 0cd7 00000000 		.4byte	0
 8663 0cdb 00000000 		.4byte	0
 8664              	.LLST71:
 8665 0cdf 00000000 		.4byte	.LVL171
ARM GAS  C:\Users\Steve\AppData\Local\Temp\ccwjFJAL.s 			page 165


 8666 0ce3 1A000000 		.4byte	.LVL174
 8667 0ce7 0100     		.2byte	0x1
 8668 0ce9 51       		.byte	0x51
 8669 0cea 1A000000 		.4byte	.LVL174
 8670 0cee 7E000000 		.4byte	.LFE44
 8671 0cf2 0400     		.2byte	0x4
 8672 0cf4 F3       		.byte	0xf3
 8673 0cf5 01       		.uleb128 0x1
 8674 0cf6 51       		.byte	0x51
 8675 0cf7 9F       		.byte	0x9f
 8676 0cf8 00000000 		.4byte	0
 8677 0cfc 00000000 		.4byte	0
 8678              	.LLST72:
 8679 0d00 00000000 		.4byte	.LVL171
 8680 0d04 22000000 		.4byte	.LVL175
 8681 0d08 0100     		.2byte	0x1
 8682 0d0a 52       		.byte	0x52
 8683 0d0b 22000000 		.4byte	.LVL175
 8684 0d0f 7E000000 		.4byte	.LFE44
 8685 0d13 0400     		.2byte	0x4
 8686 0d15 F3       		.byte	0xf3
 8687 0d16 01       		.uleb128 0x1
 8688 0d17 52       		.byte	0x52
 8689 0d18 9F       		.byte	0x9f
 8690 0d19 00000000 		.4byte	0
 8691 0d1d 00000000 		.4byte	0
 8692              	.LLST73:
 8693 0d21 00000000 		.4byte	.LVL171
 8694 0d25 10000000 		.4byte	.LVL172
 8695 0d29 0100     		.2byte	0x1
 8696 0d2b 53       		.byte	0x53
 8697 0d2c 10000000 		.4byte	.LVL172
 8698 0d30 7E000000 		.4byte	.LFE44
 8699 0d34 0400     		.2byte	0x4
 8700 0d36 F3       		.byte	0xf3
 8701 0d37 01       		.uleb128 0x1
 8702 0d38 53       		.byte	0x53
 8703 0d39 9F       		.byte	0x9f
 8704 0d3a 00000000 		.4byte	0
 8705 0d3e 00000000 		.4byte	0
 8706              	.LLST74:
 8707 0d42 00000000 		.4byte	.LFB45
 8708 0d46 02000000 		.4byte	.LCFI28
 8709 0d4a 0200     		.2byte	0x2
 8710 0d4c 7D       		.byte	0x7d
 8711 0d4d 00       		.sleb128 0
 8712 0d4e 02000000 		.4byte	.LCFI28
 8713 0d52 0A000000 		.4byte	.LCFI29
 8714 0d56 0200     		.2byte	0x2
 8715 0d58 7D       		.byte	0x7d
 8716 0d59 14       		.sleb128 20
 8717 0d5a 0A000000 		.4byte	.LCFI29
 8718 0d5e 12000000 		.4byte	.LCFI30
 8719 0d62 0200     		.2byte	0x2
 8720 0d64 7D       		.byte	0x7d
 8721 0d65 20       		.sleb128 32
 8722 0d66 12000000 		.4byte	.LCFI30
ARM GAS  C:\Users\Steve\AppData\Local\Temp\ccwjFJAL.s 			page 166


 8723 0d6a 88000000 		.4byte	.LFE45
 8724 0d6e 0200     		.2byte	0x2
 8725 0d70 7D       		.byte	0x7d
 8726 0d71 30       		.sleb128 48
 8727 0d72 00000000 		.4byte	0
 8728 0d76 00000000 		.4byte	0
 8729              	.LLST75:
 8730 0d7a 00000000 		.4byte	.LVL179
 8731 0d7e 2E000000 		.4byte	.LVL182
 8732 0d82 0100     		.2byte	0x1
 8733 0d84 50       		.byte	0x50
 8734 0d85 2E000000 		.4byte	.LVL182
 8735 0d89 66000000 		.4byte	.LVL185
 8736 0d8d 0100     		.2byte	0x1
 8737 0d8f 55       		.byte	0x55
 8738 0d90 66000000 		.4byte	.LVL185
 8739 0d94 6C000000 		.4byte	.LVL186
 8740 0d98 0300     		.2byte	0x3
 8741 0d9a 75       		.byte	0x75
 8742 0d9b 7C       		.sleb128 -4
 8743 0d9c 9F       		.byte	0x9f
 8744 0d9d 6C000000 		.4byte	.LVL186
 8745 0da1 88000000 		.4byte	.LFE45
 8746 0da5 0400     		.2byte	0x4
 8747 0da7 F3       		.byte	0xf3
 8748 0da8 01       		.uleb128 0x1
 8749 0da9 50       		.byte	0x50
 8750 0daa 9F       		.byte	0x9f
 8751 0dab 00000000 		.4byte	0
 8752 0daf 00000000 		.4byte	0
 8753              	.LLST76:
 8754 0db3 00000000 		.4byte	.LVL179
 8755 0db7 0E000000 		.4byte	.LVL180
 8756 0dbb 0100     		.2byte	0x1
 8757 0dbd 51       		.byte	0x51
 8758 0dbe 0E000000 		.4byte	.LVL180
 8759 0dc2 88000000 		.4byte	.LFE45
 8760 0dc6 0400     		.2byte	0x4
 8761 0dc8 F3       		.byte	0xf3
 8762 0dc9 01       		.uleb128 0x1
 8763 0dca 51       		.byte	0x51
 8764 0dcb 9F       		.byte	0x9f
 8765 0dcc 00000000 		.4byte	0
 8766 0dd0 00000000 		.4byte	0
 8767              	.LLST77:
 8768 0dd4 00000000 		.4byte	.LVL179
 8769 0dd8 1E000000 		.4byte	.LVL181
 8770 0ddc 0100     		.2byte	0x1
 8771 0dde 53       		.byte	0x53
 8772 0ddf 1E000000 		.4byte	.LVL181
 8773 0de3 7E000000 		.4byte	.LVL188
 8774 0de7 0100     		.2byte	0x1
 8775 0de9 57       		.byte	0x57
 8776 0dea 7E000000 		.4byte	.LVL188
 8777 0dee 88000000 		.4byte	.LFE45
 8778 0df2 0400     		.2byte	0x4
 8779 0df4 F3       		.byte	0xf3
ARM GAS  C:\Users\Steve\AppData\Local\Temp\ccwjFJAL.s 			page 167


 8780 0df5 01       		.uleb128 0x1
 8781 0df6 53       		.byte	0x53
 8782 0df7 9F       		.byte	0x9f
 8783 0df8 00000000 		.4byte	0
 8784 0dfc 00000000 		.4byte	0
 8785              	.LLST78:
 8786 0e00 00000000 		.4byte	.LFB46
 8787 0e04 02000000 		.4byte	.LCFI31
 8788 0e08 0200     		.2byte	0x2
 8789 0e0a 7D       		.byte	0x7d
 8790 0e0b 00       		.sleb128 0
 8791 0e0c 02000000 		.4byte	.LCFI31
 8792 0e10 0A000000 		.4byte	.LCFI32
 8793 0e14 0200     		.2byte	0x2
 8794 0e16 7D       		.byte	0x7d
 8795 0e17 14       		.sleb128 20
 8796 0e18 0A000000 		.4byte	.LCFI32
 8797 0e1c 16000000 		.4byte	.LCFI33
 8798 0e20 0200     		.2byte	0x2
 8799 0e22 7D       		.byte	0x7d
 8800 0e23 20       		.sleb128 32
 8801 0e24 16000000 		.4byte	.LCFI33
 8802 0e28 88000000 		.4byte	.LFE46
 8803 0e2c 0200     		.2byte	0x2
 8804 0e2e 7D       		.byte	0x7d
 8805 0e2f 30       		.sleb128 48
 8806 0e30 00000000 		.4byte	0
 8807 0e34 00000000 		.4byte	0
 8808              	.LLST79:
 8809 0e38 00000000 		.4byte	.LVL189
 8810 0e3c 14000000 		.4byte	.LVL190
 8811 0e40 0100     		.2byte	0x1
 8812 0e42 50       		.byte	0x50
 8813 0e43 14000000 		.4byte	.LVL190
 8814 0e47 38000000 		.4byte	.LVL193
 8815 0e4b 0100     		.2byte	0x1
 8816 0e4d 57       		.byte	0x57
 8817 0e4e 38000000 		.4byte	.LVL193
 8818 0e52 40000000 		.4byte	.LVL195
 8819 0e56 0300     		.2byte	0x3
 8820 0e58 77       		.byte	0x77
 8821 0e59 7C       		.sleb128 -4
 8822 0e5a 9F       		.byte	0x9f
 8823 0e5b 40000000 		.4byte	.LVL195
 8824 0e5f 88000000 		.4byte	.LFE46
 8825 0e63 0400     		.2byte	0x4
 8826 0e65 F3       		.byte	0xf3
 8827 0e66 01       		.uleb128 0x1
 8828 0e67 50       		.byte	0x50
 8829 0e68 9F       		.byte	0x9f
 8830 0e69 00000000 		.4byte	0
 8831 0e6d 00000000 		.4byte	0
 8832              	.LLST80:
 8833 0e71 00000000 		.4byte	.LVL189
 8834 0e75 1C000000 		.4byte	.LVL191
 8835 0e79 0100     		.2byte	0x1
 8836 0e7b 51       		.byte	0x51
ARM GAS  C:\Users\Steve\AppData\Local\Temp\ccwjFJAL.s 			page 168


 8837 0e7c 1C000000 		.4byte	.LVL191
 8838 0e80 6A000000 		.4byte	.LVL198
 8839 0e84 0100     		.2byte	0x1
 8840 0e86 55       		.byte	0x55
 8841 0e87 6A000000 		.4byte	.LVL198
 8842 0e8b 7E000000 		.4byte	.LVL202
 8843 0e8f 0300     		.2byte	0x3
 8844 0e91 75       		.byte	0x75
 8845 0e92 75       		.sleb128 -11
 8846 0e93 9F       		.byte	0x9f
 8847 0e94 7E000000 		.4byte	.LVL202
 8848 0e98 88000000 		.4byte	.LFE46
 8849 0e9c 0400     		.2byte	0x4
 8850 0e9e F3       		.byte	0xf3
 8851 0e9f 01       		.uleb128 0x1
 8852 0ea0 51       		.byte	0x51
 8853 0ea1 9F       		.byte	0x9f
 8854 0ea2 00000000 		.4byte	0
 8855 0ea6 00000000 		.4byte	0
 8856              	.LLST81:
 8857 0eaa 00000000 		.4byte	.LVL189
 8858 0eae 25000000 		.4byte	.LVL192-1
 8859 0eb2 0100     		.2byte	0x1
 8860 0eb4 53       		.byte	0x53
 8861 0eb5 25000000 		.4byte	.LVL192-1
 8862 0eb9 7E000000 		.4byte	.LVL201
 8863 0ebd 0100     		.2byte	0x1
 8864 0ebf 54       		.byte	0x54
 8865 0ec0 7E000000 		.4byte	.LVL201
 8866 0ec4 88000000 		.4byte	.LFE46
 8867 0ec8 0400     		.2byte	0x4
 8868 0eca F3       		.byte	0xf3
 8869 0ecb 01       		.uleb128 0x1
 8870 0ecc 53       		.byte	0x53
 8871 0ecd 9F       		.byte	0x9f
 8872 0ece 00000000 		.4byte	0
 8873 0ed2 00000000 		.4byte	0
 8874              	.LLST82:
 8875 0ed6 00000000 		.4byte	.LFB47
 8876 0eda 02000000 		.4byte	.LCFI34
 8877 0ede 0200     		.2byte	0x2
 8878 0ee0 7D       		.byte	0x7d
 8879 0ee1 00       		.sleb128 0
 8880 0ee2 02000000 		.4byte	.LCFI34
 8881 0ee6 06000000 		.4byte	.LCFI35
 8882 0eea 0200     		.2byte	0x2
 8883 0eec 7D       		.byte	0x7d
 8884 0eed 14       		.sleb128 20
 8885 0eee 06000000 		.4byte	.LCFI35
 8886 0ef2 30000000 		.4byte	.LFE47
 8887 0ef6 0200     		.2byte	0x2
 8888 0ef8 7D       		.byte	0x7d
 8889 0ef9 28       		.sleb128 40
 8890 0efa 00000000 		.4byte	0
 8891 0efe 00000000 		.4byte	0
 8892              	.LLST83:
 8893 0f02 00000000 		.4byte	.LVL203
ARM GAS  C:\Users\Steve\AppData\Local\Temp\ccwjFJAL.s 			page 169


 8894 0f06 1D000000 		.4byte	.LVL207-1
 8895 0f0a 0100     		.2byte	0x1
 8896 0f0c 50       		.byte	0x50
 8897 0f0d 1D000000 		.4byte	.LVL207-1
 8898 0f11 30000000 		.4byte	.LFE47
 8899 0f15 0400     		.2byte	0x4
 8900 0f17 F3       		.byte	0xf3
 8901 0f18 01       		.uleb128 0x1
 8902 0f19 50       		.byte	0x50
 8903 0f1a 9F       		.byte	0x9f
 8904 0f1b 00000000 		.4byte	0
 8905 0f1f 00000000 		.4byte	0
 8906              	.LLST84:
 8907 0f23 00000000 		.4byte	.LVL203
 8908 0f27 0A000000 		.4byte	.LVL204
 8909 0f2b 0100     		.2byte	0x1
 8910 0f2d 51       		.byte	0x51
 8911 0f2e 0A000000 		.4byte	.LVL204
 8912 0f32 1A000000 		.4byte	.LVL206
 8913 0f36 0100     		.2byte	0x1
 8914 0f38 56       		.byte	0x56
 8915 0f39 1A000000 		.4byte	.LVL206
 8916 0f3d 2E000000 		.4byte	.LVL210
 8917 0f41 0300     		.2byte	0x3
 8918 0f43 76       		.byte	0x76
 8919 0f44 79       		.sleb128 -7
 8920 0f45 9F       		.byte	0x9f
 8921 0f46 2E000000 		.4byte	.LVL210
 8922 0f4a 30000000 		.4byte	.LFE47
 8923 0f4e 0400     		.2byte	0x4
 8924 0f50 F3       		.byte	0xf3
 8925 0f51 01       		.uleb128 0x1
 8926 0f52 51       		.byte	0x51
 8927 0f53 9F       		.byte	0x9f
 8928 0f54 00000000 		.4byte	0
 8929 0f58 00000000 		.4byte	0
 8930              	.LLST85:
 8931 0f5c 00000000 		.4byte	.LVL203
 8932 0f60 16000000 		.4byte	.LVL205
 8933 0f64 0100     		.2byte	0x1
 8934 0f66 53       		.byte	0x53
 8935 0f67 16000000 		.4byte	.LVL205
 8936 0f6b 2E000000 		.4byte	.LVL209
 8937 0f6f 0100     		.2byte	0x1
 8938 0f71 55       		.byte	0x55
 8939 0f72 2E000000 		.4byte	.LVL209
 8940 0f76 30000000 		.4byte	.LFE47
 8941 0f7a 0400     		.2byte	0x4
 8942 0f7c F3       		.byte	0xf3
 8943 0f7d 01       		.uleb128 0x1
 8944 0f7e 53       		.byte	0x53
 8945 0f7f 9F       		.byte	0x9f
 8946 0f80 00000000 		.4byte	0
 8947 0f84 00000000 		.4byte	0
 8948              	.LLST86:
 8949 0f88 00000000 		.4byte	.LFB48
 8950 0f8c 02000000 		.4byte	.LCFI36
ARM GAS  C:\Users\Steve\AppData\Local\Temp\ccwjFJAL.s 			page 170


 8951 0f90 0200     		.2byte	0x2
 8952 0f92 7D       		.byte	0x7d
 8953 0f93 00       		.sleb128 0
 8954 0f94 02000000 		.4byte	.LCFI36
 8955 0f98 06000000 		.4byte	.LCFI37
 8956 0f9c 0200     		.2byte	0x2
 8957 0f9e 7D       		.byte	0x7d
 8958 0f9f 14       		.sleb128 20
 8959 0fa0 06000000 		.4byte	.LCFI37
 8960 0fa4 86000000 		.4byte	.LFE48
 8961 0fa8 0200     		.2byte	0x2
 8962 0faa 7D       		.byte	0x7d
 8963 0fab 28       		.sleb128 40
 8964 0fac 00000000 		.4byte	0
 8965 0fb0 00000000 		.4byte	0
 8966              	.LLST87:
 8967 0fb4 00000000 		.4byte	.LVL211
 8968 0fb8 19000000 		.4byte	.LVL213-1
 8969 0fbc 0100     		.2byte	0x1
 8970 0fbe 50       		.byte	0x50
 8971 0fbf 19000000 		.4byte	.LVL213-1
 8972 0fc3 86000000 		.4byte	.LFE48
 8973 0fc7 0400     		.2byte	0x4
 8974 0fc9 F3       		.byte	0xf3
 8975 0fca 01       		.uleb128 0x1
 8976 0fcb 50       		.byte	0x50
 8977 0fcc 9F       		.byte	0x9f
 8978 0fcd 00000000 		.4byte	0
 8979 0fd1 00000000 		.4byte	0
 8980              	.LLST88:
 8981 0fd5 00000000 		.4byte	.LVL211
 8982 0fd9 19000000 		.4byte	.LVL213-1
 8983 0fdd 0100     		.2byte	0x1
 8984 0fdf 51       		.byte	0x51
 8985 0fe0 19000000 		.4byte	.LVL213-1
 8986 0fe4 86000000 		.4byte	.LFE48
 8987 0fe8 0400     		.2byte	0x4
 8988 0fea F3       		.byte	0xf3
 8989 0feb 01       		.uleb128 0x1
 8990 0fec 51       		.byte	0x51
 8991 0fed 9F       		.byte	0x9f
 8992 0fee 00000000 		.4byte	0
 8993 0ff2 00000000 		.4byte	0
 8994              	.LLST89:
 8995 0ff6 00000000 		.4byte	.LVL211
 8996 0ffa 14000000 		.4byte	.LVL212
 8997 0ffe 0100     		.2byte	0x1
 8998 1000 53       		.byte	0x53
 8999 1001 14000000 		.4byte	.LVL212
 9000 1005 84000000 		.4byte	.LVL220
 9001 1009 0100     		.2byte	0x1
 9002 100b 54       		.byte	0x54
 9003 100c 84000000 		.4byte	.LVL220
 9004 1010 86000000 		.4byte	.LFE48
 9005 1014 0400     		.2byte	0x4
 9006 1016 F3       		.byte	0xf3
 9007 1017 01       		.uleb128 0x1
ARM GAS  C:\Users\Steve\AppData\Local\Temp\ccwjFJAL.s 			page 171


 9008 1018 53       		.byte	0x53
 9009 1019 9F       		.byte	0x9f
 9010 101a 00000000 		.4byte	0
 9011 101e 00000000 		.4byte	0
 9012              	.LLST90:
 9013 1022 00000000 		.4byte	.LFB49
 9014 1026 02000000 		.4byte	.LCFI38
 9015 102a 0200     		.2byte	0x2
 9016 102c 7D       		.byte	0x7d
 9017 102d 00       		.sleb128 0
 9018 102e 02000000 		.4byte	.LCFI38
 9019 1032 06000000 		.4byte	.LCFI39
 9020 1036 0200     		.2byte	0x2
 9021 1038 7D       		.byte	0x7d
 9022 1039 14       		.sleb128 20
 9023 103a 06000000 		.4byte	.LCFI39
 9024 103e 3C000000 		.4byte	.LFE49
 9025 1042 0200     		.2byte	0x2
 9026 1044 7D       		.byte	0x7d
 9027 1045 28       		.sleb128 40
 9028 1046 00000000 		.4byte	0
 9029 104a 00000000 		.4byte	0
 9030              	.LLST91:
 9031 104e 00000000 		.4byte	.LVL221
 9032 1052 17000000 		.4byte	.LVL223-1
 9033 1056 0100     		.2byte	0x1
 9034 1058 50       		.byte	0x50
 9035 1059 17000000 		.4byte	.LVL223-1
 9036 105d 3C000000 		.4byte	.LFE49
 9037 1061 0400     		.2byte	0x4
 9038 1063 F3       		.byte	0xf3
 9039 1064 01       		.uleb128 0x1
 9040 1065 50       		.byte	0x50
 9041 1066 9F       		.byte	0x9f
 9042 1067 00000000 		.4byte	0
 9043 106b 00000000 		.4byte	0
 9044              	.LLST92:
 9045 106f 00000000 		.4byte	.LVL221
 9046 1073 17000000 		.4byte	.LVL223-1
 9047 1077 0100     		.2byte	0x1
 9048 1079 51       		.byte	0x51
 9049 107a 17000000 		.4byte	.LVL223-1
 9050 107e 3C000000 		.4byte	.LFE49
 9051 1082 0400     		.2byte	0x4
 9052 1084 F3       		.byte	0xf3
 9053 1085 01       		.uleb128 0x1
 9054 1086 51       		.byte	0x51
 9055 1087 9F       		.byte	0x9f
 9056 1088 00000000 		.4byte	0
 9057 108c 00000000 		.4byte	0
 9058              	.LLST93:
 9059 1090 00000000 		.4byte	.LVL221
 9060 1094 12000000 		.4byte	.LVL222
 9061 1098 0100     		.2byte	0x1
 9062 109a 53       		.byte	0x53
 9063 109b 12000000 		.4byte	.LVL222
 9064 109f 3A000000 		.4byte	.LVL226
ARM GAS  C:\Users\Steve\AppData\Local\Temp\ccwjFJAL.s 			page 172


 9065 10a3 0100     		.2byte	0x1
 9066 10a5 55       		.byte	0x55
 9067 10a6 3A000000 		.4byte	.LVL226
 9068 10aa 3C000000 		.4byte	.LFE49
 9069 10ae 0400     		.2byte	0x4
 9070 10b0 F3       		.byte	0xf3
 9071 10b1 01       		.uleb128 0x1
 9072 10b2 53       		.byte	0x53
 9073 10b3 9F       		.byte	0x9f
 9074 10b4 00000000 		.4byte	0
 9075 10b8 00000000 		.4byte	0
 9076              	.LLST94:
 9077 10bc 00000000 		.4byte	.LFB50
 9078 10c0 02000000 		.4byte	.LCFI40
 9079 10c4 0200     		.2byte	0x2
 9080 10c6 7D       		.byte	0x7d
 9081 10c7 00       		.sleb128 0
 9082 10c8 02000000 		.4byte	.LCFI40
 9083 10cc 06000000 		.4byte	.LCFI41
 9084 10d0 0200     		.2byte	0x2
 9085 10d2 7D       		.byte	0x7d
 9086 10d3 14       		.sleb128 20
 9087 10d4 06000000 		.4byte	.LCFI41
 9088 10d8 76000000 		.4byte	.LFE50
 9089 10dc 0200     		.2byte	0x2
 9090 10de 7D       		.byte	0x7d
 9091 10df 28       		.sleb128 40
 9092 10e0 00000000 		.4byte	0
 9093 10e4 00000000 		.4byte	0
 9094              	.LLST95:
 9095 10e8 00000000 		.4byte	.LVL227
 9096 10ec 19000000 		.4byte	.LVL229-1
 9097 10f0 0100     		.2byte	0x1
 9098 10f2 50       		.byte	0x50
 9099 10f3 19000000 		.4byte	.LVL229-1
 9100 10f7 76000000 		.4byte	.LFE50
 9101 10fb 0400     		.2byte	0x4
 9102 10fd F3       		.byte	0xf3
 9103 10fe 01       		.uleb128 0x1
 9104 10ff 50       		.byte	0x50
 9105 1100 9F       		.byte	0x9f
 9106 1101 00000000 		.4byte	0
 9107 1105 00000000 		.4byte	0
 9108              	.LLST96:
 9109 1109 00000000 		.4byte	.LVL227
 9110 110d 19000000 		.4byte	.LVL229-1
 9111 1111 0100     		.2byte	0x1
 9112 1113 51       		.byte	0x51
 9113 1114 19000000 		.4byte	.LVL229-1
 9114 1118 76000000 		.4byte	.LFE50
 9115 111c 0400     		.2byte	0x4
 9116 111e F3       		.byte	0xf3
 9117 111f 01       		.uleb128 0x1
 9118 1120 51       		.byte	0x51
 9119 1121 9F       		.byte	0x9f
 9120 1122 00000000 		.4byte	0
 9121 1126 00000000 		.4byte	0
ARM GAS  C:\Users\Steve\AppData\Local\Temp\ccwjFJAL.s 			page 173


 9122              	.LLST97:
 9123 112a 00000000 		.4byte	.LVL227
 9124 112e 14000000 		.4byte	.LVL228
 9125 1132 0100     		.2byte	0x1
 9126 1134 53       		.byte	0x53
 9127 1135 14000000 		.4byte	.LVL228
 9128 1139 74000000 		.4byte	.LVL235
 9129 113d 0100     		.2byte	0x1
 9130 113f 54       		.byte	0x54
 9131 1140 74000000 		.4byte	.LVL235
 9132 1144 76000000 		.4byte	.LFE50
 9133 1148 0400     		.2byte	0x4
 9134 114a F3       		.byte	0xf3
 9135 114b 01       		.uleb128 0x1
 9136 114c 53       		.byte	0x53
 9137 114d 9F       		.byte	0x9f
 9138 114e 00000000 		.4byte	0
 9139 1152 00000000 		.4byte	0
 9140              	.LLST98:
 9141 1156 00000000 		.4byte	.LFB51
 9142 115a 02000000 		.4byte	.LCFI42
 9143 115e 0200     		.2byte	0x2
 9144 1160 7D       		.byte	0x7d
 9145 1161 00       		.sleb128 0
 9146 1162 02000000 		.4byte	.LCFI42
 9147 1166 06000000 		.4byte	.LCFI43
 9148 116a 0200     		.2byte	0x2
 9149 116c 7D       		.byte	0x7d
 9150 116d 14       		.sleb128 20
 9151 116e 06000000 		.4byte	.LCFI43
 9152 1172 0C000000 		.4byte	.LCFI44
 9153 1176 0200     		.2byte	0x2
 9154 1178 7D       		.byte	0x7d
 9155 1179 18       		.sleb128 24
 9156 117a 0C000000 		.4byte	.LCFI44
 9157 117e 70000000 		.4byte	.LFE51
 9158 1182 0200     		.2byte	0x2
 9159 1184 7D       		.byte	0x7d
 9160 1185 28       		.sleb128 40
 9161 1186 00000000 		.4byte	0
 9162 118a 00000000 		.4byte	0
 9163              	.LLST99:
 9164 118e 00000000 		.4byte	.LVL236
 9165 1192 1E000000 		.4byte	.LVL238
 9166 1196 0100     		.2byte	0x1
 9167 1198 50       		.byte	0x50
 9168 1199 1E000000 		.4byte	.LVL238
 9169 119d 48000000 		.4byte	.LVL242
 9170 11a1 0100     		.2byte	0x1
 9171 11a3 57       		.byte	0x57
 9172 11a4 48000000 		.4byte	.LVL242
 9173 11a8 6A000000 		.4byte	.LVL246
 9174 11ac 0300     		.2byte	0x3
 9175 11ae 77       		.byte	0x77
 9176 11af 7C       		.sleb128 -4
 9177 11b0 9F       		.byte	0x9f
 9178 11b1 6A000000 		.4byte	.LVL246
ARM GAS  C:\Users\Steve\AppData\Local\Temp\ccwjFJAL.s 			page 174


 9179 11b5 70000000 		.4byte	.LFE51
 9180 11b9 0400     		.2byte	0x4
 9181 11bb F3       		.byte	0xf3
 9182 11bc 01       		.uleb128 0x1
 9183 11bd 50       		.byte	0x50
 9184 11be 9F       		.byte	0x9f
 9185 11bf 00000000 		.4byte	0
 9186 11c3 00000000 		.4byte	0
 9187              	.LLST100:
 9188 11c7 00000000 		.4byte	.LVL236
 9189 11cb 25000000 		.4byte	.LVL239-1
 9190 11cf 0100     		.2byte	0x1
 9191 11d1 51       		.byte	0x51
 9192 11d2 25000000 		.4byte	.LVL239-1
 9193 11d6 70000000 		.4byte	.LFE51
 9194 11da 0400     		.2byte	0x4
 9195 11dc F3       		.byte	0xf3
 9196 11dd 01       		.uleb128 0x1
 9197 11de 51       		.byte	0x51
 9198 11df 9F       		.byte	0x9f
 9199 11e0 00000000 		.4byte	0
 9200 11e4 00000000 		.4byte	0
 9201              	.LLST101:
 9202 11e8 00000000 		.4byte	.LVL236
 9203 11ec 16000000 		.4byte	.LVL237
 9204 11f0 0100     		.2byte	0x1
 9205 11f2 53       		.byte	0x53
 9206 11f3 16000000 		.4byte	.LVL237
 9207 11f7 6A000000 		.4byte	.LVL245
 9208 11fb 0100     		.2byte	0x1
 9209 11fd 54       		.byte	0x54
 9210 11fe 6A000000 		.4byte	.LVL245
 9211 1202 70000000 		.4byte	.LFE51
 9212 1206 0400     		.2byte	0x4
 9213 1208 F3       		.byte	0xf3
 9214 1209 01       		.uleb128 0x1
 9215 120a 53       		.byte	0x53
 9216 120b 9F       		.byte	0x9f
 9217 120c 00000000 		.4byte	0
 9218 1210 00000000 		.4byte	0
 9219              	.LLST102:
 9220 1214 00000000 		.4byte	.LFB52
 9221 1218 02000000 		.4byte	.LCFI45
 9222 121c 0200     		.2byte	0x2
 9223 121e 7D       		.byte	0x7d
 9224 121f 00       		.sleb128 0
 9225 1220 02000000 		.4byte	.LCFI45
 9226 1224 0A000000 		.4byte	.LCFI46
 9227 1228 0200     		.2byte	0x2
 9228 122a 7D       		.byte	0x7d
 9229 122b 14       		.sleb128 20
 9230 122c 0A000000 		.4byte	.LCFI46
 9231 1230 3A000000 		.4byte	.LFE52
 9232 1234 0200     		.2byte	0x2
 9233 1236 7D       		.byte	0x7d
 9234 1237 28       		.sleb128 40
 9235 1238 00000000 		.4byte	0
ARM GAS  C:\Users\Steve\AppData\Local\Temp\ccwjFJAL.s 			page 175


 9236 123c 00000000 		.4byte	0
 9237              	.LLST103:
 9238 1240 00000000 		.4byte	.LVL247
 9239 1244 19000000 		.4byte	.LVL249-1
 9240 1248 0100     		.2byte	0x1
 9241 124a 50       		.byte	0x50
 9242 124b 19000000 		.4byte	.LVL249-1
 9243 124f 38000000 		.4byte	.LVL253
 9244 1253 0300     		.2byte	0x3
 9245 1255 76       		.byte	0x76
 9246 1256 7C       		.sleb128 -4
 9247 1257 9F       		.byte	0x9f
 9248 1258 38000000 		.4byte	.LVL253
 9249 125c 3A000000 		.4byte	.LFE52
 9250 1260 0400     		.2byte	0x4
 9251 1262 F3       		.byte	0xf3
 9252 1263 01       		.uleb128 0x1
 9253 1264 50       		.byte	0x50
 9254 1265 9F       		.byte	0x9f
 9255 1266 00000000 		.4byte	0
 9256 126a 00000000 		.4byte	0
 9257              	.LLST104:
 9258 126e 00000000 		.4byte	.LVL247
 9259 1272 08000000 		.4byte	.LVL248
 9260 1276 0100     		.2byte	0x1
 9261 1278 51       		.byte	0x51
 9262 1279 08000000 		.4byte	.LVL248
 9263 127d 3A000000 		.4byte	.LFE52
 9264 1281 0400     		.2byte	0x4
 9265 1283 F3       		.byte	0xf3
 9266 1284 01       		.uleb128 0x1
 9267 1285 51       		.byte	0x51
 9268 1286 9F       		.byte	0x9f
 9269 1287 00000000 		.4byte	0
 9270 128b 00000000 		.4byte	0
 9271              	.LLST105:
 9272 128f 00000000 		.4byte	.LVL247
 9273 1293 19000000 		.4byte	.LVL249-1
 9274 1297 0100     		.2byte	0x1
 9275 1299 53       		.byte	0x53
 9276 129a 19000000 		.4byte	.LVL249-1
 9277 129e 38000000 		.4byte	.LVL252
 9278 12a2 0100     		.2byte	0x1
 9279 12a4 55       		.byte	0x55
 9280 12a5 38000000 		.4byte	.LVL252
 9281 12a9 3A000000 		.4byte	.LFE52
 9282 12ad 0400     		.2byte	0x4
 9283 12af F3       		.byte	0xf3
 9284 12b0 01       		.uleb128 0x1
 9285 12b1 53       		.byte	0x53
 9286 12b2 9F       		.byte	0x9f
 9287 12b3 00000000 		.4byte	0
 9288 12b7 00000000 		.4byte	0
 9289              	.LLST106:
 9290 12bb 00000000 		.4byte	.LFB53
 9291 12bf 02000000 		.4byte	.LCFI47
 9292 12c3 0200     		.2byte	0x2
ARM GAS  C:\Users\Steve\AppData\Local\Temp\ccwjFJAL.s 			page 176


 9293 12c5 7D       		.byte	0x7d
 9294 12c6 00       		.sleb128 0
 9295 12c7 02000000 		.4byte	.LCFI47
 9296 12cb 08000000 		.4byte	.LCFI48
 9297 12cf 0200     		.2byte	0x2
 9298 12d1 7D       		.byte	0x7d
 9299 12d2 14       		.sleb128 20
 9300 12d3 08000000 		.4byte	.LCFI48
 9301 12d7 12000000 		.4byte	.LCFI49
 9302 12db 0200     		.2byte	0x2
 9303 12dd 7D       		.byte	0x7d
 9304 12de 1C       		.sleb128 28
 9305 12df 12000000 		.4byte	.LCFI49
 9306 12e3 A0000000 		.4byte	.LFE53
 9307 12e7 0200     		.2byte	0x2
 9308 12e9 7D       		.byte	0x7d
 9309 12ea 30       		.sleb128 48
 9310 12eb 00000000 		.4byte	0
 9311 12ef 00000000 		.4byte	0
 9312              	.LLST107:
 9313 12f3 00000000 		.4byte	.LVL254
 9314 12f7 22000000 		.4byte	.LVL256
 9315 12fb 0100     		.2byte	0x1
 9316 12fd 50       		.byte	0x50
 9317 12fe 22000000 		.4byte	.LVL256
 9318 1302 24000000 		.4byte	.LVL257
 9319 1306 0100     		.2byte	0x1
 9320 1308 53       		.byte	0x53
 9321 1309 24000000 		.4byte	.LVL257
 9322 130d 98000000 		.4byte	.LVL266
 9323 1311 0100     		.2byte	0x1
 9324 1313 59       		.byte	0x59
 9325 1314 98000000 		.4byte	.LVL266
 9326 1318 A0000000 		.4byte	.LFE53
 9327 131c 0400     		.2byte	0x4
 9328 131e F3       		.byte	0xf3
 9329 131f 01       		.uleb128 0x1
 9330 1320 50       		.byte	0x50
 9331 1321 9F       		.byte	0x9f
 9332 1322 00000000 		.4byte	0
 9333 1326 00000000 		.4byte	0
 9334              	.LLST108:
 9335 132a 00000000 		.4byte	.LVL254
 9336 132e 2B000000 		.4byte	.LVL258-1
 9337 1332 0100     		.2byte	0x1
 9338 1334 51       		.byte	0x51
 9339 1335 2B000000 		.4byte	.LVL258-1
 9340 1339 A0000000 		.4byte	.LFE53
 9341 133d 0400     		.2byte	0x4
 9342 133f F3       		.byte	0xf3
 9343 1340 01       		.uleb128 0x1
 9344 1341 51       		.byte	0x51
 9345 1342 9F       		.byte	0x9f
 9346 1343 00000000 		.4byte	0
 9347 1347 00000000 		.4byte	0
 9348              	.LLST109:
 9349 134b 00000000 		.4byte	.LVL254
ARM GAS  C:\Users\Steve\AppData\Local\Temp\ccwjFJAL.s 			page 177


 9350 134f 0C000000 		.4byte	.LVL255
 9351 1353 0100     		.2byte	0x1
 9352 1355 53       		.byte	0x53
 9353 1356 0C000000 		.4byte	.LVL255
 9354 135a 98000000 		.4byte	.LVL265
 9355 135e 0100     		.2byte	0x1
 9356 1360 54       		.byte	0x54
 9357 1361 98000000 		.4byte	.LVL265
 9358 1365 A0000000 		.4byte	.LFE53
 9359 1369 0400     		.2byte	0x4
 9360 136b F3       		.byte	0xf3
 9361 136c 01       		.uleb128 0x1
 9362 136d 53       		.byte	0x53
 9363 136e 9F       		.byte	0x9f
 9364 136f 00000000 		.4byte	0
 9365 1373 00000000 		.4byte	0
 9366              	.LLST110:
 9367 1377 00000000 		.4byte	.LFB54
 9368 137b 02000000 		.4byte	.LCFI50
 9369 137f 0200     		.2byte	0x2
 9370 1381 7D       		.byte	0x7d
 9371 1382 00       		.sleb128 0
 9372 1383 02000000 		.4byte	.LCFI50
 9373 1387 06000000 		.4byte	.LCFI51
 9374 138b 0200     		.2byte	0x2
 9375 138d 7D       		.byte	0x7d
 9376 138e 14       		.sleb128 20
 9377 138f 06000000 		.4byte	.LCFI51
 9378 1393 0A000000 		.4byte	.LCFI52
 9379 1397 0200     		.2byte	0x2
 9380 1399 7D       		.byte	0x7d
 9381 139a 18       		.sleb128 24
 9382 139b 0A000000 		.4byte	.LCFI52
 9383 139f 60000000 		.4byte	.LFE54
 9384 13a3 0200     		.2byte	0x2
 9385 13a5 7D       		.byte	0x7d
 9386 13a6 28       		.sleb128 40
 9387 13a7 00000000 		.4byte	0
 9388 13ab 00000000 		.4byte	0
 9389              	.LLST111:
 9390 13af 00000000 		.4byte	.LVL267
 9391 13b3 18000000 		.4byte	.LVL269
 9392 13b7 0100     		.2byte	0x1
 9393 13b9 50       		.byte	0x50
 9394 13ba 18000000 		.4byte	.LVL269
 9395 13be 3C000000 		.4byte	.LVL272
 9396 13c2 0100     		.2byte	0x1
 9397 13c4 56       		.byte	0x56
 9398 13c5 3C000000 		.4byte	.LVL272
 9399 13c9 5A000000 		.4byte	.LVL276
 9400 13cd 0300     		.2byte	0x3
 9401 13cf 76       		.byte	0x76
 9402 13d0 7C       		.sleb128 -4
 9403 13d1 9F       		.byte	0x9f
 9404 13d2 5A000000 		.4byte	.LVL276
 9405 13d6 60000000 		.4byte	.LFE54
 9406 13da 0400     		.2byte	0x4
ARM GAS  C:\Users\Steve\AppData\Local\Temp\ccwjFJAL.s 			page 178


 9407 13dc F3       		.byte	0xf3
 9408 13dd 01       		.uleb128 0x1
 9409 13de 50       		.byte	0x50
 9410 13df 9F       		.byte	0x9f
 9411 13e0 00000000 		.4byte	0
 9412 13e4 00000000 		.4byte	0
 9413              	.LLST112:
 9414 13e8 00000000 		.4byte	.LVL267
 9415 13ec 25000000 		.4byte	.LVL270-1
 9416 13f0 0100     		.2byte	0x1
 9417 13f2 51       		.byte	0x51
 9418 13f3 25000000 		.4byte	.LVL270-1
 9419 13f7 60000000 		.4byte	.LFE54
 9420 13fb 0400     		.2byte	0x4
 9421 13fd F3       		.byte	0xf3
 9422 13fe 01       		.uleb128 0x1
 9423 13ff 51       		.byte	0x51
 9424 1400 9F       		.byte	0x9f
 9425 1401 00000000 		.4byte	0
 9426 1405 00000000 		.4byte	0
 9427              	.LLST113:
 9428 1409 00000000 		.4byte	.LVL267
 9429 140d 12000000 		.4byte	.LVL268
 9430 1411 0100     		.2byte	0x1
 9431 1413 53       		.byte	0x53
 9432 1414 12000000 		.4byte	.LVL268
 9433 1418 5A000000 		.4byte	.LVL275
 9434 141c 0100     		.2byte	0x1
 9435 141e 54       		.byte	0x54
 9436 141f 5A000000 		.4byte	.LVL275
 9437 1423 60000000 		.4byte	.LFE54
 9438 1427 0400     		.2byte	0x4
 9439 1429 F3       		.byte	0xf3
 9440 142a 01       		.uleb128 0x1
 9441 142b 53       		.byte	0x53
 9442 142c 9F       		.byte	0x9f
 9443 142d 00000000 		.4byte	0
 9444 1431 00000000 		.4byte	0
 9445              	.LLST114:
 9446 1435 00000000 		.4byte	.LFB55
 9447 1439 02000000 		.4byte	.LCFI53
 9448 143d 0200     		.2byte	0x2
 9449 143f 7D       		.byte	0x7d
 9450 1440 00       		.sleb128 0
 9451 1441 02000000 		.4byte	.LCFI53
 9452 1445 06000000 		.4byte	.LCFI54
 9453 1449 0200     		.2byte	0x2
 9454 144b 7D       		.byte	0x7d
 9455 144c 14       		.sleb128 20
 9456 144d 06000000 		.4byte	.LCFI54
 9457 1451 0A000000 		.4byte	.LCFI55
 9458 1455 0200     		.2byte	0x2
 9459 1457 7D       		.byte	0x7d
 9460 1458 18       		.sleb128 24
 9461 1459 0A000000 		.4byte	.LCFI55
 9462 145d 62000000 		.4byte	.LFE55
 9463 1461 0200     		.2byte	0x2
ARM GAS  C:\Users\Steve\AppData\Local\Temp\ccwjFJAL.s 			page 179


 9464 1463 7D       		.byte	0x7d
 9465 1464 28       		.sleb128 40
 9466 1465 00000000 		.4byte	0
 9467 1469 00000000 		.4byte	0
 9468              	.LLST115:
 9469 146d 00000000 		.4byte	.LVL277
 9470 1471 18000000 		.4byte	.LVL279
 9471 1475 0100     		.2byte	0x1
 9472 1477 50       		.byte	0x50
 9473 1478 18000000 		.4byte	.LVL279
 9474 147c 3E000000 		.4byte	.LVL282
 9475 1480 0100     		.2byte	0x1
 9476 1482 56       		.byte	0x56
 9477 1483 3E000000 		.4byte	.LVL282
 9478 1487 5C000000 		.4byte	.LVL286
 9479 148b 0300     		.2byte	0x3
 9480 148d 76       		.byte	0x76
 9481 148e 7C       		.sleb128 -4
 9482 148f 9F       		.byte	0x9f
 9483 1490 5C000000 		.4byte	.LVL286
 9484 1494 62000000 		.4byte	.LFE55
 9485 1498 0400     		.2byte	0x4
 9486 149a F3       		.byte	0xf3
 9487 149b 01       		.uleb128 0x1
 9488 149c 50       		.byte	0x50
 9489 149d 9F       		.byte	0x9f
 9490 149e 00000000 		.4byte	0
 9491 14a2 00000000 		.4byte	0
 9492              	.LLST116:
 9493 14a6 00000000 		.4byte	.LVL277
 9494 14aa 25000000 		.4byte	.LVL280-1
 9495 14ae 0100     		.2byte	0x1
 9496 14b0 51       		.byte	0x51
 9497 14b1 25000000 		.4byte	.LVL280-1
 9498 14b5 62000000 		.4byte	.LFE55
 9499 14b9 0400     		.2byte	0x4
 9500 14bb F3       		.byte	0xf3
 9501 14bc 01       		.uleb128 0x1
 9502 14bd 51       		.byte	0x51
 9503 14be 9F       		.byte	0x9f
 9504 14bf 00000000 		.4byte	0
 9505 14c3 00000000 		.4byte	0
 9506              	.LLST117:
 9507 14c7 00000000 		.4byte	.LVL277
 9508 14cb 12000000 		.4byte	.LVL278
 9509 14cf 0100     		.2byte	0x1
 9510 14d1 53       		.byte	0x53
 9511 14d2 12000000 		.4byte	.LVL278
 9512 14d6 5C000000 		.4byte	.LVL285
 9513 14da 0100     		.2byte	0x1
 9514 14dc 54       		.byte	0x54
 9515 14dd 5C000000 		.4byte	.LVL285
 9516 14e1 62000000 		.4byte	.LFE55
 9517 14e5 0400     		.2byte	0x4
 9518 14e7 F3       		.byte	0xf3
 9519 14e8 01       		.uleb128 0x1
 9520 14e9 53       		.byte	0x53
ARM GAS  C:\Users\Steve\AppData\Local\Temp\ccwjFJAL.s 			page 180


 9521 14ea 9F       		.byte	0x9f
 9522 14eb 00000000 		.4byte	0
 9523 14ef 00000000 		.4byte	0
 9524              		.section	.debug_aranges,"",%progbits
 9525 0000 CC000000 		.4byte	0xcc
 9526 0004 0200     		.2byte	0x2
 9527 0006 00000000 		.4byte	.Ldebug_info0
 9528 000a 04       		.byte	0x4
 9529 000b 00       		.byte	0
 9530 000c 0000     		.2byte	0
 9531 000e 0000     		.2byte	0
 9532 0010 00000000 		.4byte	.LFB34
 9533 0014 78000000 		.4byte	.LFE34-.LFB34
 9534 0018 00000000 		.4byte	.LFB33
 9535 001c E8000000 		.4byte	.LFE33-.LFB33
 9536 0020 00000000 		.4byte	.LFB35
 9537 0024 4E000000 		.4byte	.LFE35-.LFB35
 9538 0028 00000000 		.4byte	.LFB36
 9539 002c 5C010000 		.4byte	.LFE36-.LFB36
 9540 0030 00000000 		.4byte	.LFB37
 9541 0034 76010000 		.4byte	.LFE37-.LFB37
 9542 0038 00000000 		.4byte	.LFB38
 9543 003c 00020000 		.4byte	.LFE38-.LFB38
 9544 0040 00000000 		.4byte	.LFB40
 9545 0044 26000000 		.4byte	.LFE40-.LFB40
 9546 0048 00000000 		.4byte	.LFB41
 9547 004c 26000000 		.4byte	.LFE41-.LFB41
 9548 0050 00000000 		.4byte	.LFB39
 9549 0054 72000000 		.4byte	.LFE39-.LFB39
 9550 0058 00000000 		.4byte	.LFB42
 9551 005c 92000000 		.4byte	.LFE42-.LFB42
 9552 0060 00000000 		.4byte	.LFB43
 9553 0064 20000000 		.4byte	.LFE43-.LFB43
 9554 0068 00000000 		.4byte	.LFB44
 9555 006c 7E000000 		.4byte	.LFE44-.LFB44
 9556 0070 00000000 		.4byte	.LFB45
 9557 0074 88000000 		.4byte	.LFE45-.LFB45
 9558 0078 00000000 		.4byte	.LFB46
 9559 007c 88000000 		.4byte	.LFE46-.LFB46
 9560 0080 00000000 		.4byte	.LFB47
 9561 0084 30000000 		.4byte	.LFE47-.LFB47
 9562 0088 00000000 		.4byte	.LFB48
 9563 008c 86000000 		.4byte	.LFE48-.LFB48
 9564 0090 00000000 		.4byte	.LFB49
 9565 0094 3C000000 		.4byte	.LFE49-.LFB49
 9566 0098 00000000 		.4byte	.LFB50
 9567 009c 76000000 		.4byte	.LFE50-.LFB50
 9568 00a0 00000000 		.4byte	.LFB51
 9569 00a4 70000000 		.4byte	.LFE51-.LFB51
 9570 00a8 00000000 		.4byte	.LFB52
 9571 00ac 3A000000 		.4byte	.LFE52-.LFB52
 9572 00b0 00000000 		.4byte	.LFB53
 9573 00b4 A0000000 		.4byte	.LFE53-.LFB53
 9574 00b8 00000000 		.4byte	.LFB54
 9575 00bc 60000000 		.4byte	.LFE54-.LFB54
 9576 00c0 00000000 		.4byte	.LFB55
 9577 00c4 62000000 		.4byte	.LFE55-.LFB55
ARM GAS  C:\Users\Steve\AppData\Local\Temp\ccwjFJAL.s 			page 181


 9578 00c8 00000000 		.4byte	0
 9579 00cc 00000000 		.4byte	0
 9580              		.section	.debug_ranges,"",%progbits
 9581              	.Ldebug_ranges0:
 9582 0000 00000000 		.4byte	.LFB34
 9583 0004 78000000 		.4byte	.LFE34
 9584 0008 00000000 		.4byte	.LFB33
 9585 000c E8000000 		.4byte	.LFE33
 9586 0010 00000000 		.4byte	.LFB35
 9587 0014 4E000000 		.4byte	.LFE35
 9588 0018 00000000 		.4byte	.LFB36
 9589 001c 5C010000 		.4byte	.LFE36
 9590 0020 00000000 		.4byte	.LFB37
 9591 0024 76010000 		.4byte	.LFE37
 9592 0028 00000000 		.4byte	.LFB38
 9593 002c 00020000 		.4byte	.LFE38
 9594 0030 00000000 		.4byte	.LFB40
 9595 0034 26000000 		.4byte	.LFE40
 9596 0038 00000000 		.4byte	.LFB41
 9597 003c 26000000 		.4byte	.LFE41
 9598 0040 00000000 		.4byte	.LFB39
 9599 0044 72000000 		.4byte	.LFE39
 9600 0048 00000000 		.4byte	.LFB42
 9601 004c 92000000 		.4byte	.LFE42
 9602 0050 00000000 		.4byte	.LFB43
 9603 0054 20000000 		.4byte	.LFE43
 9604 0058 00000000 		.4byte	.LFB44
 9605 005c 7E000000 		.4byte	.LFE44
 9606 0060 00000000 		.4byte	.LFB45
 9607 0064 88000000 		.4byte	.LFE45
 9608 0068 00000000 		.4byte	.LFB46
 9609 006c 88000000 		.4byte	.LFE46
 9610 0070 00000000 		.4byte	.LFB47
 9611 0074 30000000 		.4byte	.LFE47
 9612 0078 00000000 		.4byte	.LFB48
 9613 007c 86000000 		.4byte	.LFE48
 9614 0080 00000000 		.4byte	.LFB49
 9615 0084 3C000000 		.4byte	.LFE49
 9616 0088 00000000 		.4byte	.LFB50
 9617 008c 76000000 		.4byte	.LFE50
 9618 0090 00000000 		.4byte	.LFB51
 9619 0094 70000000 		.4byte	.LFE51
 9620 0098 00000000 		.4byte	.LFB52
 9621 009c 3A000000 		.4byte	.LFE52
 9622 00a0 00000000 		.4byte	.LFB53
 9623 00a4 A0000000 		.4byte	.LFE53
 9624 00a8 00000000 		.4byte	.LFB54
 9625 00ac 60000000 		.4byte	.LFE54
 9626 00b0 00000000 		.4byte	.LFB55
 9627 00b4 62000000 		.4byte	.LFE55
 9628 00b8 00000000 		.4byte	0
 9629 00bc 00000000 		.4byte	0
 9630              		.section	.debug_line,"",%progbits
 9631              	.Ldebug_line0:
 9632 0000 C5050000 		.section	.debug_str,"MS",%progbits,1
 9632      02000301 
 9632      00000201 
ARM GAS  C:\Users\Steve\AppData\Local\Temp\ccwjFJAL.s 			page 182


 9632      FB0E0D00 
 9632      01010101 
 9633              	.LASF48:
 9634 0000 64726177 		.ascii	"drawNine\000"
 9634      4E696E65 
 9634      00
 9635              	.LASF50:
 9636 0009 2E5C4C45 		.ascii	".\\LED_Matrix.c\000"
 9636      445F4D61 
 9636      74726978 
 9636      2E6300
 9637              	.LASF47:
 9638 0018 64726177 		.ascii	"drawEight\000"
 9638      45696768 
 9638      7400
 9639              	.LASF39:
 9640 0022 64726177 		.ascii	"drawOne\000"
 9640      4F6E6500 
 9641              	.LASF9:
 9642 002a 696E7431 		.ascii	"int16_t\000"
 9642      365F7400 
 9643              	.LASF6:
 9644 0032 6C6F6E67 		.ascii	"long long int\000"
 9644      206C6F6E 
 9644      6720696E 
 9644      7400
 9645              	.LASF0:
 9646 0040 7369676E 		.ascii	"signed char\000"
 9646      65642063 
 9646      68617200 
 9647              	.LASF7:
 9648 004c 6C6F6E67 		.ascii	"long long unsigned int\000"
 9648      206C6F6E 
 9648      6720756E 
 9648      7369676E 
 9648      65642069 
 9649              	.LASF41:
 9650 0063 64726177 		.ascii	"drawColon\000"
 9650      436F6C6F 
 9650      6E00
 9651              	.LASF4:
 9652 006d 6C6F6E67 		.ascii	"long int\000"
 9652      20696E74 
 9652      00
 9653              	.LASF10:
 9654 0076 75696E74 		.ascii	"uint8\000"
 9654      3800
 9655              	.LASF46:
 9656 007c 64726177 		.ascii	"drawSeven\000"
 9656      53657665 
 9656      6E00
 9657              	.LASF42:
 9658 0086 64726177 		.ascii	"drawThree\000"
 9658      54687265 
 9658      6500
 9659              	.LASF13:
 9660 0090 646F7562 		.ascii	"double\000"
ARM GAS  C:\Users\Steve\AppData\Local\Temp\ccwjFJAL.s 			page 183


 9660      6C6500
 9661              	.LASF30:
 9662 0097 64726177 		.ascii	"drawLine\000"
 9662      4C696E65 
 9662      00
 9663              	.LASF17:
 9664 00a0 6D617472 		.ascii	"matrix\000"
 9664      697800
 9665              	.LASF33:
 9666 00a7 64726177 		.ascii	"drawFastVLine\000"
 9666      46617374 
 9666      564C696E 
 9666      6500
 9667              	.LASF8:
 9668 00b5 756E7369 		.ascii	"unsigned int\000"
 9668      676E6564 
 9668      20696E74 
 9668      00
 9669              	.LASF5:
 9670 00c2 6C6F6E67 		.ascii	"long unsigned int\000"
 9670      20756E73 
 9670      69676E65 
 9670      6420696E 
 9670      7400
 9671              	.LASF28:
 9672 00d4 64726177 		.ascii	"drawCircleHelper\000"
 9672      43697263 
 9672      6C654865 
 9672      6C706572 
 9672      00
 9673              	.LASF26:
 9674 00e5 6464465F 		.ascii	"ddF_x\000"
 9674      7800
 9675              	.LASF27:
 9676 00eb 6464465F 		.ascii	"ddF_y\000"
 9676      7900
 9677              	.LASF51:
 9678 00f1 433A5C55 		.ascii	"C:\\Users\\Steve\\Documents\\Git\\GlowTime\\RGB_LED"
 9678      73657273 
 9678      5C537465 
 9678      76655C44 
 9678      6F63756D 
 9679 011e 5F4D6174 		.ascii	"_Matrix.cydsn\000"
 9679      7269782E 
 9679      63796473 
 9679      6E00
 9680              	.LASF3:
 9681 012c 73686F72 		.ascii	"short unsigned int\000"
 9681      7420756E 
 9681      7369676E 
 9681      65642069 
 9681      6E7400
 9682              	.LASF11:
 9683 013f 696E7438 		.ascii	"int8\000"
 9683      00
 9684              	.LASF40:
 9685 0144 64726177 		.ascii	"drawTwo\000"
ARM GAS  C:\Users\Steve\AppData\Local\Temp\ccwjFJAL.s 			page 184


 9685      54776F00 
 9686              	.LASF24:
 9687 014c 636C6561 		.ascii	"clearScreen\000"
 9687      72536372 
 9687      65656E00 
 9688              	.LASF15:
 9689 0158 73697A65 		.ascii	"sizetype\000"
 9689      74797065 
 9689      00
 9690              	.LASF34:
 9691 0161 64726177 		.ascii	"drawFastHLine\000"
 9691      46617374 
 9691      484C696E 
 9691      6500
 9692              	.LASF31:
 9693 016f 73746565 		.ascii	"steep\000"
 9693      7000
 9694              	.LASF23:
 9695 0175 64726177 		.ascii	"drawPixel\000"
 9695      50697865 
 9695      6C00
 9696              	.LASF12:
 9697 017f 666C6F61 		.ascii	"float\000"
 9697      7400
 9698              	.LASF25:
 9699 0185 64726177 		.ascii	"drawCircle\000"
 9699      43697263 
 9699      6C6500
 9700              	.LASF49:
 9701 0190 474E5520 		.ascii	"GNU C 4.7.3 20130312 (release) [ARM/embedded-4_7-br"
 9701      4320342E 
 9701      372E3320 
 9701      32303133 
 9701      30333132 
 9702 01c3 616E6368 		.ascii	"anch revision 196615]\000"
 9702      20726576 
 9702      6973696F 
 9702      6E203139 
 9702      36363135 
 9703              	.LASF38:
 9704 01d9 64726177 		.ascii	"drawTriangle\000"
 9704      54726961 
 9704      6E676C65 
 9704      00
 9705              	.LASF1:
 9706 01e6 756E7369 		.ascii	"unsigned char\000"
 9706      676E6564 
 9706      20636861 
 9706      7200
 9707              	.LASF2:
 9708 01f4 73686F72 		.ascii	"short int\000"
 9708      7420696E 
 9708      7400
 9709              	.LASF32:
 9710 01fe 79737465 		.ascii	"ystep\000"
 9710      7000
 9711              	.LASF37:
ARM GAS  C:\Users\Steve\AppData\Local\Temp\ccwjFJAL.s 			page 185


 9712 0204 66696C6C 		.ascii	"fillScreen\000"
 9712      53637265 
 9712      656E00
 9713              	.LASF29:
 9714 020f 636F726E 		.ascii	"cornername\000"
 9714      65726E61 
 9714      6D6500
 9715              	.LASF43:
 9716 021a 64726177 		.ascii	"drawFour\000"
 9716      466F7572 
 9716      00
 9717              	.LASF16:
 9718 0223 636F6C6F 		.ascii	"color\000"
 9718      7200
 9719              	.LASF14:
 9720 0229 63686172 		.ascii	"char\000"
 9720      00
 9721              	.LASF22:
 9722 022e 636C6561 		.ascii	"clearPixel\000"
 9722      72506978 
 9722      656C00
 9723              	.LASF18:
 9724 0239 696E6465 		.ascii	"index\000"
 9724      7800
 9725              	.LASF45:
 9726 023f 64726177 		.ascii	"drawSix\000"
 9726      53697800 
 9727              	.LASF19:
 9728 0247 73637261 		.ascii	"scratch1\000"
 9728      74636831 
 9728      00
 9729              	.LASF20:
 9730 0250 73637261 		.ascii	"scratch2\000"
 9730      74636832 
 9730      00
 9731              	.LASF21:
 9732 0259 6269745F 		.ascii	"bit_pos\000"
 9732      706F7300 
 9733              	.LASF35:
 9734 0261 64726177 		.ascii	"drawRect\000"
 9734      52656374 
 9734      00
 9735              	.LASF44:
 9736 026a 64726177 		.ascii	"drawFive\000"
 9736      46697665 
 9736      00
 9737              	.LASF52:
 9738 0273 64726177 		.ascii	"drawZero\000"
 9738      5A65726F 
 9738      00
 9739              	.LASF36:
 9740 027c 66696C6C 		.ascii	"fillRect\000"
 9740      52656374 
 9740      00
 9741              		.ident	"GCC: (GNU Tools for ARM Embedded Processors) 4.7.3 20130312 (release) [ARM/embedded-4_7-br
