ARM GAS  C:\Users\Steve\AppData\Local\Temp\ccd4Iqkr.s 			page 1


   1              		.cpu cortex-m0
   2              		.fpu softvfp
   3              		.eabi_attribute 20, 1
   4              		.eabi_attribute 21, 1
   5              		.eabi_attribute 23, 3
   6              		.eabi_attribute 24, 1
   7              		.eabi_attribute 25, 1
   8              		.eabi_attribute 26, 1
   9              		.eabi_attribute 30, 2
  10              		.eabi_attribute 34, 0
  11              		.eabi_attribute 18, 4
  12              		.code	16
  13              		.file	"LED_Matrix.c"
  14              		.text
  15              	.Ltext0:
  16              		.cfi_sections	.debug_frame
  17              		.section	.text.clearPixel,"ax",%progbits
  18              		.align	2
  19              		.global	clearPixel
  20              		.code	16
  21              		.thumb_func
  22              		.type	clearPixel, %function
  23              	clearPixel:
  24              	.LFB34:
  25              		.file 1 ".\\LED_Matrix.c"
   1:.\LED_Matrix.c **** /* ========================================
   2:.\LED_Matrix.c ****  *
   3:.\LED_Matrix.c ****  * The following firmware was developed by Cypress Semiconductor
   4:.\LED_Matrix.c ****  * This work is licensed under a Creative Commons Attribution 3.0 Unported License.
   5:.\LED_Matrix.c ****  * 
   6:.\LED_Matrix.c ****  * http://creativecommons.org/licenses/by/3.0/deed.en_US
   7:.\LED_Matrix.c ****  * 
   8:.\LED_Matrix.c ****  * You are free to:
   9:.\LED_Matrix.c ****  * -To Share — to copy, distribute and transmit the work 
  10:.\LED_Matrix.c ****  * -To Remix — to adapt the work 
  11:.\LED_Matrix.c ****  * -To make commercial use of the work
  12:.\LED_Matrix.c ****  *
  13:.\LED_Matrix.c ****  * ========================================
  14:.\LED_Matrix.c ****  */
  15:.\LED_Matrix.c ****  
  16:.\LED_Matrix.c **** /*******************************************************************************
  17:.\LED_Matrix.c ****  * C File For LED Matrix Component/Project
  18:.\LED_Matrix.c ****  ********************************************************************************/
  19:.\LED_Matrix.c ****  
  20:.\LED_Matrix.c **** #include <device.h>
  21:.\LED_Matrix.c **** #include <LED_Matrix.h>
  22:.\LED_Matrix.c **** #include <stdlib.h>
  23:.\LED_Matrix.c **** 
  24:.\LED_Matrix.c **** /*******************************************************************************
  25:.\LED_Matrix.c **** * Function Name: DrawPixel
  26:.\LED_Matrix.c **** ********************************************************************************
  27:.\LED_Matrix.c **** *
  28:.\LED_Matrix.c **** * Summary:
  29:.\LED_Matrix.c **** *  This function writes to the (x,y) coordinate of the 'matrix' buffer in RAM
  30:.\LED_Matrix.c **** *
  31:.\LED_Matrix.c **** * Parameters:  
  32:.\LED_Matrix.c **** *   uint8 x: 		betn 0 and 31
ARM GAS  C:\Users\Steve\AppData\Local\Temp\ccd4Iqkr.s 			page 2


  33:.\LED_Matrix.c **** *	uint8 y: 		betn 0 and 15
  34:.\LED_Matrix.c **** *	RGB c:			5-bit color to be written to the pixel 
  35:.\LED_Matrix.c **** * 	color *matrix: 	pointer to the matrix buffer
  36:.\LED_Matrix.c **** *
  37:.\LED_Matrix.c **** * Return:
  38:.\LED_Matrix.c **** *   None
  39:.\LED_Matrix.c **** *
  40:.\LED_Matrix.c **** *******************************************************************************/
  41:.\LED_Matrix.c **** void drawPixel(uint8 x, uint8 y, RGB c, color *matrix)
  42:.\LED_Matrix.c **** {
  43:.\LED_Matrix.c **** 	/* pre-calculate some values to index the matrix 
  44:.\LED_Matrix.c **** 	 * Note that the translation has been done here to
  45:.\LED_Matrix.c **** 	 * leave the ISR clean
  46:.\LED_Matrix.c **** 	 */
  47:.\LED_Matrix.c **** 	uint8 i = 0, index;
  48:.\LED_Matrix.c **** 	
  49:.\LED_Matrix.c **** 	/* index indexes the elements of 'matrix' 
  50:.\LED_Matrix.c **** 	 * 'matrix' consists of 64 'color' structs, 4 elements per row
  51:.\LED_Matrix.c **** 	 * The formula for index thus is index = y*4 + x/8
  52:.\LED_Matrix.c **** 	 */
  53:.\LED_Matrix.c **** 	uint8 scratch1 = y*4;
  54:.\LED_Matrix.c **** 	
  55:.\LED_Matrix.c **** 	/* The x-coordinate is broken up into 2 parts:
  56:.\LED_Matrix.c **** 	* 1. Which of the 4 FIFO bytes need to be written (scratch2)
  57:.\LED_Matrix.c **** 	* 2. Which bit of that byte needs to be written (bit_pos)
  58:.\LED_Matrix.c **** 	*/
  59:.\LED_Matrix.c **** 	uint8 scratch2 = (uint8)(x/8);
  60:.\LED_Matrix.c **** 	uint8 bit_pos = (uint8)x%8;
  61:.\LED_Matrix.c **** 	
  62:.\LED_Matrix.c **** 	index = scratch1 + scratch2;
  63:.\LED_Matrix.c **** 	
  64:.\LED_Matrix.c **** 	clearPixel(x, y, matrix);
  65:.\LED_Matrix.c **** 	
  66:.\LED_Matrix.c **** 	for(i = 0; i < 5 ; i++)
  67:.\LED_Matrix.c **** 	{
  68:.\LED_Matrix.c **** 		matrix[index].r[i] |= (uint8)((uint8)((c.r & (0x01 << i)) && 1)<<(bit_pos));
  69:.\LED_Matrix.c **** 		matrix[index].g[i] |= (uint8)((uint8)((c.g & (0x01 << i)) && 1)<<(bit_pos));
  70:.\LED_Matrix.c **** 		matrix[index].b[i] |= (uint8)((uint8)((c.b & (0x01 << i)) && 1)<<(bit_pos));
  71:.\LED_Matrix.c **** 	}
  72:.\LED_Matrix.c **** }
  73:.\LED_Matrix.c **** 
  74:.\LED_Matrix.c **** /*******************************************************************************
  75:.\LED_Matrix.c **** * Function Name: ClearPixel
  76:.\LED_Matrix.c **** ********************************************************************************
  77:.\LED_Matrix.c **** *
  78:.\LED_Matrix.c **** * Summary:
  79:.\LED_Matrix.c **** *  This function clears the (x,y) pixel of the matrix buffer
  80:.\LED_Matrix.c **** *
  81:.\LED_Matrix.c **** * Parameters:  
  82:.\LED_Matrix.c **** *   uint8 x: 		betn 0 and 31
  83:.\LED_Matrix.c **** *	uint8 y: 		betn 0 and 15
  84:.\LED_Matrix.c **** * 	color *matrix: 	pointer to the matrix buffer
  85:.\LED_Matrix.c **** *
  86:.\LED_Matrix.c **** * Return:
  87:.\LED_Matrix.c **** *   None
  88:.\LED_Matrix.c **** *
  89:.\LED_Matrix.c **** *******************************************************************************/
ARM GAS  C:\Users\Steve\AppData\Local\Temp\ccd4Iqkr.s 			page 3


  90:.\LED_Matrix.c **** void clearPixel(uint8 x, uint8 y, color *matrix)
  91:.\LED_Matrix.c **** {
  26              		.loc 1 91 0
  27              		.cfi_startproc
  28              	.LVL0:
  29 0000 10B5     		push	{r4, lr}
  30              	.LCFI0:
  31              		.cfi_def_cfa_offset 8
  32              		.cfi_offset 4, -8
  33              		.cfi_offset 14, -4
  92:.\LED_Matrix.c **** 	uint8 i, index;
  93:.\LED_Matrix.c **** 	uint8 scratch1 = y*4;
  34              		.loc 1 93 0
  35 0002 8B00     		lsl	r3, r1, #2
  94:.\LED_Matrix.c **** 	uint8 scratch2 = (uint8)(x/8);
  36              		.loc 1 94 0
  37 0004 C408     		lsr	r4, r0, #3
  95:.\LED_Matrix.c **** 	uint8 bit_pos = (uint8)x%8;
  96:.\LED_Matrix.c **** 	
  97:.\LED_Matrix.c **** 	index = scratch1 + scratch2;
  38              		.loc 1 97 0
  39 0006 1919     		add	r1, r3, r4
  40              	.LVL1:
  41 0008 CBB2     		uxtb	r3, r1
  42 000a 1C01     		lsl	r4, r3, #4
  43 000c E11A     		sub	r1, r4, r3
  44 000e 0723     		mov	r3, #7
  45 0010 1840     		and	r0, r3
  46              	.LVL2:
  47 0012 0124     		mov	r4, #1
  48 0014 8440     		lsl	r4, r4, r0
  49 0016 5218     		add	r2, r2, r1
  50              	.LVL3:
  51 0018 E143     		mvn	r1, r4
  52 001a CCB2     		uxtb	r4, r1
  98:.\LED_Matrix.c **** 	
  99:.\LED_Matrix.c **** 	for(i = 0; i < 5 ; i++)
 100:.\LED_Matrix.c **** 	{
 101:.\LED_Matrix.c **** 		matrix[index].r[i] &= ~(uint8)(0x01<<(bit_pos));
  53              		.loc 1 101 0
  54 001c 1378     		ldrb	r3, [r2]
 102:.\LED_Matrix.c **** 		matrix[index].g[i] &= ~(uint8)(0x01<<(bit_pos));
  55              		.loc 1 102 0
  56 001e 5079     		ldrb	r0, [r2, #5]
 103:.\LED_Matrix.c **** 		matrix[index].b[i] &= ~(uint8)(0x01<<(bit_pos));
  57              		.loc 1 103 0
  58 0020 917A     		ldrb	r1, [r2, #10]
 101:.\LED_Matrix.c **** 		matrix[index].r[i] &= ~(uint8)(0x01<<(bit_pos));
  59              		.loc 1 101 0
  60 0022 2340     		and	r3, r4
 102:.\LED_Matrix.c **** 		matrix[index].g[i] &= ~(uint8)(0x01<<(bit_pos));
  61              		.loc 1 102 0
  62 0024 2040     		and	r0, r4
  63              		.loc 1 103 0
  64 0026 2140     		and	r1, r4
 101:.\LED_Matrix.c **** 		matrix[index].r[i] &= ~(uint8)(0x01<<(bit_pos));
  65              		.loc 1 101 0
ARM GAS  C:\Users\Steve\AppData\Local\Temp\ccd4Iqkr.s 			page 4


  66 0028 1370     		strb	r3, [r2]
 102:.\LED_Matrix.c **** 		matrix[index].g[i] &= ~(uint8)(0x01<<(bit_pos));
  67              		.loc 1 102 0
  68 002a 5071     		strb	r0, [r2, #5]
 101:.\LED_Matrix.c **** 		matrix[index].r[i] &= ~(uint8)(0x01<<(bit_pos));
  69              		.loc 1 101 0
  70 002c 5378     		ldrb	r3, [r2, #1]
 102:.\LED_Matrix.c **** 		matrix[index].g[i] &= ~(uint8)(0x01<<(bit_pos));
  71              		.loc 1 102 0
  72 002e 9079     		ldrb	r0, [r2, #6]
  73              		.loc 1 103 0
  74 0030 9172     		strb	r1, [r2, #10]
  75              	.LVL4:
  76 0032 D17A     		ldrb	r1, [r2, #11]
 101:.\LED_Matrix.c **** 		matrix[index].r[i] &= ~(uint8)(0x01<<(bit_pos));
  77              		.loc 1 101 0
  78 0034 2340     		and	r3, r4
 102:.\LED_Matrix.c **** 		matrix[index].g[i] &= ~(uint8)(0x01<<(bit_pos));
  79              		.loc 1 102 0
  80 0036 2040     		and	r0, r4
  81              		.loc 1 103 0
  82 0038 2140     		and	r1, r4
 101:.\LED_Matrix.c **** 		matrix[index].r[i] &= ~(uint8)(0x01<<(bit_pos));
  83              		.loc 1 101 0
  84 003a 5370     		strb	r3, [r2, #1]
 102:.\LED_Matrix.c **** 		matrix[index].g[i] &= ~(uint8)(0x01<<(bit_pos));
  85              		.loc 1 102 0
  86 003c 9071     		strb	r0, [r2, #6]
 101:.\LED_Matrix.c **** 		matrix[index].r[i] &= ~(uint8)(0x01<<(bit_pos));
  87              		.loc 1 101 0
  88 003e 9378     		ldrb	r3, [r2, #2]
 102:.\LED_Matrix.c **** 		matrix[index].g[i] &= ~(uint8)(0x01<<(bit_pos));
  89              		.loc 1 102 0
  90 0040 D079     		ldrb	r0, [r2, #7]
  91              		.loc 1 103 0
  92 0042 D172     		strb	r1, [r2, #11]
  93              	.LVL5:
  94 0044 117B     		ldrb	r1, [r2, #12]
 101:.\LED_Matrix.c **** 		matrix[index].r[i] &= ~(uint8)(0x01<<(bit_pos));
  95              		.loc 1 101 0
  96 0046 2340     		and	r3, r4
 102:.\LED_Matrix.c **** 		matrix[index].g[i] &= ~(uint8)(0x01<<(bit_pos));
  97              		.loc 1 102 0
  98 0048 2040     		and	r0, r4
  99              		.loc 1 103 0
 100 004a 2140     		and	r1, r4
 101:.\LED_Matrix.c **** 		matrix[index].r[i] &= ~(uint8)(0x01<<(bit_pos));
 101              		.loc 1 101 0
 102 004c 9370     		strb	r3, [r2, #2]
 102:.\LED_Matrix.c **** 		matrix[index].g[i] &= ~(uint8)(0x01<<(bit_pos));
 103              		.loc 1 102 0
 104 004e D071     		strb	r0, [r2, #7]
 101:.\LED_Matrix.c **** 		matrix[index].r[i] &= ~(uint8)(0x01<<(bit_pos));
 105              		.loc 1 101 0
 106 0050 D378     		ldrb	r3, [r2, #3]
 102:.\LED_Matrix.c **** 		matrix[index].g[i] &= ~(uint8)(0x01<<(bit_pos));
 107              		.loc 1 102 0
ARM GAS  C:\Users\Steve\AppData\Local\Temp\ccd4Iqkr.s 			page 5


 108 0052 107A     		ldrb	r0, [r2, #8]
 109              		.loc 1 103 0
 110 0054 1173     		strb	r1, [r2, #12]
 111              	.LVL6:
 112 0056 517B     		ldrb	r1, [r2, #13]
 101:.\LED_Matrix.c **** 		matrix[index].r[i] &= ~(uint8)(0x01<<(bit_pos));
 113              		.loc 1 101 0
 114 0058 2340     		and	r3, r4
 102:.\LED_Matrix.c **** 		matrix[index].g[i] &= ~(uint8)(0x01<<(bit_pos));
 115              		.loc 1 102 0
 116 005a 2040     		and	r0, r4
 117              		.loc 1 103 0
 118 005c 2140     		and	r1, r4
 101:.\LED_Matrix.c **** 		matrix[index].r[i] &= ~(uint8)(0x01<<(bit_pos));
 119              		.loc 1 101 0
 120 005e D370     		strb	r3, [r2, #3]
 102:.\LED_Matrix.c **** 		matrix[index].g[i] &= ~(uint8)(0x01<<(bit_pos));
 121              		.loc 1 102 0
 122 0060 1072     		strb	r0, [r2, #8]
 101:.\LED_Matrix.c **** 		matrix[index].r[i] &= ~(uint8)(0x01<<(bit_pos));
 123              		.loc 1 101 0
 124 0062 1379     		ldrb	r3, [r2, #4]
 102:.\LED_Matrix.c **** 		matrix[index].g[i] &= ~(uint8)(0x01<<(bit_pos));
 125              		.loc 1 102 0
 126 0064 507A     		ldrb	r0, [r2, #9]
 127              		.loc 1 103 0
 128 0066 5173     		strb	r1, [r2, #13]
 129              	.LVL7:
 130 0068 917B     		ldrb	r1, [r2, #14]
 101:.\LED_Matrix.c **** 		matrix[index].r[i] &= ~(uint8)(0x01<<(bit_pos));
 131              		.loc 1 101 0
 132 006a 2340     		and	r3, r4
 102:.\LED_Matrix.c **** 		matrix[index].g[i] &= ~(uint8)(0x01<<(bit_pos));
 133              		.loc 1 102 0
 134 006c 2040     		and	r0, r4
 135              		.loc 1 103 0
 136 006e 0C40     		and	r4, r1
 101:.\LED_Matrix.c **** 		matrix[index].r[i] &= ~(uint8)(0x01<<(bit_pos));
 137              		.loc 1 101 0
 138 0070 1371     		strb	r3, [r2, #4]
 102:.\LED_Matrix.c **** 		matrix[index].g[i] &= ~(uint8)(0x01<<(bit_pos));
 139              		.loc 1 102 0
 140 0072 5072     		strb	r0, [r2, #9]
 141              		.loc 1 103 0
 142 0074 9473     		strb	r4, [r2, #14]
 143              	.LVL8:
 104:.\LED_Matrix.c **** 	}
 105:.\LED_Matrix.c **** }
 144              		.loc 1 105 0
 145              		@ sp needed for prologue
 146 0076 10BD     		pop	{r4, pc}
 147              		.cfi_endproc
 148              	.LFE34:
 149              		.size	clearPixel, .-clearPixel
 150              		.section	.text.drawPixel,"ax",%progbits
 151              		.align	2
 152              		.global	drawPixel
ARM GAS  C:\Users\Steve\AppData\Local\Temp\ccd4Iqkr.s 			page 6


 153              		.code	16
 154              		.thumb_func
 155              		.type	drawPixel, %function
 156              	drawPixel:
 157              	.LFB33:
  42:.\LED_Matrix.c **** {
 158              		.loc 1 42 0
 159              		.cfi_startproc
 160              	.LVL9:
 161 0000 F0B5     		push	{r4, r5, r6, r7, lr}
 162              	.LCFI1:
 163              		.cfi_def_cfa_offset 20
 164              		.cfi_offset 4, -20
 165              		.cfi_offset 5, -16
 166              		.cfi_offset 6, -12
 167              		.cfi_offset 7, -8
 168              		.cfi_offset 14, -4
 169 0002 1E1C     		mov	r6, r3
  53:.\LED_Matrix.c **** 	uint8 scratch1 = y*4;
 170              		.loc 1 53 0
 171 0004 8F00     		lsl	r7, r1, #2
  59:.\LED_Matrix.c **** 	uint8 scratch2 = (uint8)(x/8);
 172              		.loc 1 59 0
 173 0006 C308     		lsr	r3, r0, #3
 174              	.LVL10:
  42:.\LED_Matrix.c **** {
 175              		.loc 1 42 0
 176 0008 83B0     		sub	sp, sp, #12
 177              	.LCFI2:
 178              		.cfi_def_cfa_offset 32
  42:.\LED_Matrix.c **** {
 179              		.loc 1 42 0
 180 000a 041C     		mov	r4, r0
  62:.\LED_Matrix.c **** 	index = scratch1 + scratch2;
 181              		.loc 1 62 0
 182 000c F818     		add	r0, r7, r3
 183              	.LVL11:
 184 000e C7B2     		uxtb	r7, r0
 185              	.LVL12:
  42:.\LED_Matrix.c **** {
 186              		.loc 1 42 0
 187 0010 0192     		str	r2, [sp, #4]
  64:.\LED_Matrix.c **** 	clearPixel(x, y, matrix);
 188              		.loc 1 64 0
 189 0012 201C     		mov	r0, r4
 190              	.LVL13:
 191 0014 321C     		mov	r2, r6
 192 0016 FFF7FEFF 		bl	clearPixel
 193              	.LVL14:
 194 001a 3901     		lsl	r1, r7, #4
  42:.\LED_Matrix.c **** {
 195              		.loc 1 42 0
 196 001c 01AD     		add	r5, sp, #4
 197 001e CA1B     		sub	r2, r1, r7
 198 0020 B318     		add	r3, r6, r2
 199 0022 0720     		mov	r0, #7
 200 0024 2E78     		ldrb	r6, [r5]
ARM GAS  C:\Users\Steve\AppData\Local\Temp\ccd4Iqkr.s 			page 7


 201              	.LVL15:
  68:.\LED_Matrix.c **** 		matrix[index].r[i] |= (uint8)((uint8)((c.r & (0x01 << i)) && 1)<<(bit_pos));
 202              		.loc 1 68 0
 203 0026 0122     		mov	r2, #1
 204 0028 A978     		ldrb	r1, [r5, #2]
 205 002a 2040     		and	r0, r4
 206 002c 6C78     		ldrb	r4, [r5, #1]
 207              	.LVL16:
 208 002e 151C     		mov	r5, r2
 209 0030 1F78     		ldrb	r7, [r3]
 210              	.LVL17:
 211 0032 3540     		and	r5, r6
 212 0034 8540     		lsl	r5, r5, r0
 213 0036 3D43     		orr	r5, r7
 214 0038 1D70     		strb	r5, [r3]
  69:.\LED_Matrix.c **** 		matrix[index].g[i] |= (uint8)((uint8)((c.g & (0x01 << i)) && 1)<<(bit_pos));
 215              		.loc 1 69 0
 216 003a 151C     		mov	r5, r2
 217 003c 5F79     		ldrb	r7, [r3, #5]
 218 003e 2540     		and	r5, r4
 219 0040 8540     		lsl	r5, r5, r0
 220 0042 3D43     		orr	r5, r7
 221 0044 5D71     		strb	r5, [r3, #5]
  70:.\LED_Matrix.c **** 		matrix[index].b[i] |= (uint8)((uint8)((c.b & (0x01 << i)) && 1)<<(bit_pos));
 222              		.loc 1 70 0
 223 0046 151C     		mov	r5, r2
 224 0048 9F7A     		ldrb	r7, [r3, #10]
 225 004a 0D40     		and	r5, r1
 226 004c 8540     		lsl	r5, r5, r0
 227 004e 3D43     		orr	r5, r7
 228 0050 9D72     		strb	r5, [r3, #10]
 229              	.LVL18:
  68:.\LED_Matrix.c **** 		matrix[index].r[i] |= (uint8)((uint8)((c.r & (0x01 << i)) && 1)<<(bit_pos));
 230              		.loc 1 68 0
 231 0052 7510     		asr	r5, r6, #1
 232 0054 5F78     		ldrb	r7, [r3, #1]
 233 0056 1540     		and	r5, r2
 234 0058 8540     		lsl	r5, r5, r0
 235 005a 3D43     		orr	r5, r7
 236 005c 5D70     		strb	r5, [r3, #1]
  69:.\LED_Matrix.c **** 		matrix[index].g[i] |= (uint8)((uint8)((c.g & (0x01 << i)) && 1)<<(bit_pos));
 237              		.loc 1 69 0
 238 005e 6510     		asr	r5, r4, #1
 239 0060 9F79     		ldrb	r7, [r3, #6]
 240 0062 1540     		and	r5, r2
 241 0064 8540     		lsl	r5, r5, r0
 242 0066 3D43     		orr	r5, r7
 243 0068 9D71     		strb	r5, [r3, #6]
  70:.\LED_Matrix.c **** 		matrix[index].b[i] |= (uint8)((uint8)((c.b & (0x01 << i)) && 1)<<(bit_pos));
 244              		.loc 1 70 0
 245 006a 4D10     		asr	r5, r1, #1
 246 006c DF7A     		ldrb	r7, [r3, #11]
 247 006e 1540     		and	r5, r2
 248 0070 8540     		lsl	r5, r5, r0
 249 0072 3D43     		orr	r5, r7
 250 0074 DD72     		strb	r5, [r3, #11]
 251              	.LVL19:
ARM GAS  C:\Users\Steve\AppData\Local\Temp\ccd4Iqkr.s 			page 8


  68:.\LED_Matrix.c **** 		matrix[index].r[i] |= (uint8)((uint8)((c.r & (0x01 << i)) && 1)<<(bit_pos));
 252              		.loc 1 68 0
 253 0076 B510     		asr	r5, r6, #2
 254 0078 9F78     		ldrb	r7, [r3, #2]
 255 007a 1540     		and	r5, r2
 256 007c 8540     		lsl	r5, r5, r0
 257 007e 3D43     		orr	r5, r7
 258 0080 9D70     		strb	r5, [r3, #2]
  69:.\LED_Matrix.c **** 		matrix[index].g[i] |= (uint8)((uint8)((c.g & (0x01 << i)) && 1)<<(bit_pos));
 259              		.loc 1 69 0
 260 0082 A510     		asr	r5, r4, #2
 261 0084 DF79     		ldrb	r7, [r3, #7]
 262 0086 1540     		and	r5, r2
 263 0088 8540     		lsl	r5, r5, r0
 264 008a 3D43     		orr	r5, r7
 265 008c DD71     		strb	r5, [r3, #7]
  70:.\LED_Matrix.c **** 		matrix[index].b[i] |= (uint8)((uint8)((c.b & (0x01 << i)) && 1)<<(bit_pos));
 266              		.loc 1 70 0
 267 008e 8D10     		asr	r5, r1, #2
 268 0090 1F7B     		ldrb	r7, [r3, #12]
 269 0092 1540     		and	r5, r2
 270 0094 8540     		lsl	r5, r5, r0
 271 0096 3D43     		orr	r5, r7
 272 0098 1D73     		strb	r5, [r3, #12]
 273              	.LVL20:
  68:.\LED_Matrix.c **** 		matrix[index].r[i] |= (uint8)((uint8)((c.r & (0x01 << i)) && 1)<<(bit_pos));
 274              		.loc 1 68 0
 275 009a F510     		asr	r5, r6, #3
 276 009c DF78     		ldrb	r7, [r3, #3]
 277 009e 1540     		and	r5, r2
 278 00a0 8540     		lsl	r5, r5, r0
 279 00a2 3D43     		orr	r5, r7
 280 00a4 DD70     		strb	r5, [r3, #3]
  69:.\LED_Matrix.c **** 		matrix[index].g[i] |= (uint8)((uint8)((c.g & (0x01 << i)) && 1)<<(bit_pos));
 281              		.loc 1 69 0
 282 00a6 E510     		asr	r5, r4, #3
 283 00a8 1F7A     		ldrb	r7, [r3, #8]
 284 00aa 1540     		and	r5, r2
 285 00ac 8540     		lsl	r5, r5, r0
 286 00ae 3D43     		orr	r5, r7
 287 00b0 1D72     		strb	r5, [r3, #8]
  70:.\LED_Matrix.c **** 		matrix[index].b[i] |= (uint8)((uint8)((c.b & (0x01 << i)) && 1)<<(bit_pos));
 288              		.loc 1 70 0
 289 00b2 CD10     		asr	r5, r1, #3
 290 00b4 5F7B     		ldrb	r7, [r3, #13]
 291 00b6 1540     		and	r5, r2
 292 00b8 0911     		asr	r1, r1, #4
  68:.\LED_Matrix.c **** 		matrix[index].r[i] |= (uint8)((uint8)((c.r & (0x01 << i)) && 1)<<(bit_pos));
 293              		.loc 1 68 0
 294 00ba 3611     		asr	r6, r6, #4
  69:.\LED_Matrix.c **** 		matrix[index].g[i] |= (uint8)((uint8)((c.g & (0x01 << i)) && 1)<<(bit_pos));
 295              		.loc 1 69 0
 296 00bc 2411     		asr	r4, r4, #4
  70:.\LED_Matrix.c **** 		matrix[index].b[i] |= (uint8)((uint8)((c.b & (0x01 << i)) && 1)<<(bit_pos));
 297              		.loc 1 70 0
 298 00be 8540     		lsl	r5, r5, r0
  68:.\LED_Matrix.c **** 		matrix[index].r[i] |= (uint8)((uint8)((c.r & (0x01 << i)) && 1)<<(bit_pos));
ARM GAS  C:\Users\Steve\AppData\Local\Temp\ccd4Iqkr.s 			page 9


 299              		.loc 1 68 0
 300 00c0 1640     		and	r6, r2
  69:.\LED_Matrix.c **** 		matrix[index].g[i] |= (uint8)((uint8)((c.g & (0x01 << i)) && 1)<<(bit_pos));
 301              		.loc 1 69 0
 302 00c2 1440     		and	r4, r2
  70:.\LED_Matrix.c **** 		matrix[index].b[i] |= (uint8)((uint8)((c.b & (0x01 << i)) && 1)<<(bit_pos));
 303              		.loc 1 70 0
 304 00c4 0A40     		and	r2, r1
 305 00c6 3D43     		orr	r5, r7
 306 00c8 8240     		lsl	r2, r2, r0
  69:.\LED_Matrix.c **** 		matrix[index].g[i] |= (uint8)((uint8)((c.g & (0x01 << i)) && 1)<<(bit_pos));
 307              		.loc 1 69 0
 308 00ca 5F7A     		ldrb	r7, [r3, #9]
  70:.\LED_Matrix.c **** 		matrix[index].b[i] |= (uint8)((uint8)((c.b & (0x01 << i)) && 1)<<(bit_pos));
 309              		.loc 1 70 0
 310 00cc 5D73     		strb	r5, [r3, #13]
 311              	.LVL21:
  68:.\LED_Matrix.c **** 		matrix[index].r[i] |= (uint8)((uint8)((c.r & (0x01 << i)) && 1)<<(bit_pos));
 312              		.loc 1 68 0
 313 00ce 8640     		lsl	r6, r6, r0
 314 00d0 1D79     		ldrb	r5, [r3, #4]
  69:.\LED_Matrix.c **** 		matrix[index].g[i] |= (uint8)((uint8)((c.g & (0x01 << i)) && 1)<<(bit_pos));
 315              		.loc 1 69 0
 316 00d2 8440     		lsl	r4, r4, r0
  70:.\LED_Matrix.c **** 		matrix[index].b[i] |= (uint8)((uint8)((c.b & (0x01 << i)) && 1)<<(bit_pos));
 317              		.loc 1 70 0
 318 00d4 101C     		mov	r0, r2
 319 00d6 9A7B     		ldrb	r2, [r3, #14]
  68:.\LED_Matrix.c **** 		matrix[index].r[i] |= (uint8)((uint8)((c.r & (0x01 << i)) && 1)<<(bit_pos));
 320              		.loc 1 68 0
 321 00d8 2E43     		orr	r6, r5
  69:.\LED_Matrix.c **** 		matrix[index].g[i] |= (uint8)((uint8)((c.g & (0x01 << i)) && 1)<<(bit_pos));
 322              		.loc 1 69 0
 323 00da 3C43     		orr	r4, r7
  70:.\LED_Matrix.c **** 		matrix[index].b[i] |= (uint8)((uint8)((c.b & (0x01 << i)) && 1)<<(bit_pos));
 324              		.loc 1 70 0
 325 00dc 1043     		orr	r0, r2
  68:.\LED_Matrix.c **** 		matrix[index].r[i] |= (uint8)((uint8)((c.r & (0x01 << i)) && 1)<<(bit_pos));
 326              		.loc 1 68 0
 327 00de 1E71     		strb	r6, [r3, #4]
  69:.\LED_Matrix.c **** 		matrix[index].g[i] |= (uint8)((uint8)((c.g & (0x01 << i)) && 1)<<(bit_pos));
 328              		.loc 1 69 0
 329 00e0 5C72     		strb	r4, [r3, #9]
  70:.\LED_Matrix.c **** 		matrix[index].b[i] |= (uint8)((uint8)((c.b & (0x01 << i)) && 1)<<(bit_pos));
 330              		.loc 1 70 0
 331 00e2 9873     		strb	r0, [r3, #14]
 332              	.LVL22:
  72:.\LED_Matrix.c **** }
 333              		.loc 1 72 0
 334 00e4 03B0     		add	sp, sp, #12
 335              		@ sp needed for prologue
 336 00e6 F0BD     		pop	{r4, r5, r6, r7, pc}
 337              		.cfi_endproc
 338              	.LFE33:
 339              		.size	drawPixel, .-drawPixel
 340              		.section	.text.clearScreen,"ax",%progbits
 341              		.align	2
ARM GAS  C:\Users\Steve\AppData\Local\Temp\ccd4Iqkr.s 			page 10


 342              		.global	clearScreen
 343              		.code	16
 344              		.thumb_func
 345              		.type	clearScreen, %function
 346              	clearScreen:
 347              	.LFB35:
 106:.\LED_Matrix.c **** 
 107:.\LED_Matrix.c **** /*******************************************************************************
 108:.\LED_Matrix.c **** * Function Name: ClearScreen
 109:.\LED_Matrix.c **** ********************************************************************************
 110:.\LED_Matrix.c **** *
 111:.\LED_Matrix.c **** * Summary:
 112:.\LED_Matrix.c **** *  This function clears the 'matrix' buffer in RAM
 113:.\LED_Matrix.c **** *
 114:.\LED_Matrix.c **** * Parameters:  
 115:.\LED_Matrix.c **** * 	color *matrix: 	pointer to the matrix buffer
 116:.\LED_Matrix.c **** *
 117:.\LED_Matrix.c **** * Return:
 118:.\LED_Matrix.c **** *   None
 119:.\LED_Matrix.c **** *
 120:.\LED_Matrix.c **** *******************************************************************************/
 121:.\LED_Matrix.c **** void clearScreen(color *matrix)
 122:.\LED_Matrix.c **** {
 348              		.loc 1 122 0
 349              		.cfi_startproc
 350              	.LVL23:
 351 0000 00B5     		push	{lr}
 352              	.LCFI3:
 353              		.cfi_def_cfa_offset 4
 354              		.cfi_offset 14, -4
 121:.\LED_Matrix.c **** void clearScreen(color *matrix)
 355              		.loc 1 121 0
 356 0002 4021     		mov	r1, #64
 123:.\LED_Matrix.c **** 	uint8 x, index;
 124:.\LED_Matrix.c **** 	
 125:.\LED_Matrix.c **** 	for(index = 0; index < 64; index++)
 126:.\LED_Matrix.c **** 	{
 127:.\LED_Matrix.c **** 		for(x = 0; x < 5 ; x++)
 128:.\LED_Matrix.c **** 		{
 129:.\LED_Matrix.c **** 			matrix[index].r[x] = 0x00;
 357              		.loc 1 129 0
 358 0004 0023     		mov	r3, #0
 359              	.LVL24:
 360              	.L4:
 361 0006 0239     		sub	r1, r1, #2
 362 0008 C9B2     		uxtb	r1, r1
 363              		.loc 1 129 0 is_stmt 0 discriminator 1
 364 000a 0370     		strb	r3, [r0]
 130:.\LED_Matrix.c **** 			matrix[index].g[x] = 0x00;
 365              		.loc 1 130 0 is_stmt 1 discriminator 1
 366 000c 4371     		strb	r3, [r0, #5]
 131:.\LED_Matrix.c **** 			matrix[index].b[x] = 0x00;
 367              		.loc 1 131 0 discriminator 1
 368 000e 8372     		strb	r3, [r0, #10]
 369              	.LVL25:
 129:.\LED_Matrix.c **** 			matrix[index].r[x] = 0x00;
 370              		.loc 1 129 0 discriminator 1
ARM GAS  C:\Users\Steve\AppData\Local\Temp\ccd4Iqkr.s 			page 11


 371 0010 4370     		strb	r3, [r0, #1]
 130:.\LED_Matrix.c **** 			matrix[index].g[x] = 0x00;
 372              		.loc 1 130 0 discriminator 1
 373 0012 8371     		strb	r3, [r0, #6]
 374              		.loc 1 131 0 discriminator 1
 375 0014 C372     		strb	r3, [r0, #11]
 376              	.LVL26:
 129:.\LED_Matrix.c **** 			matrix[index].r[x] = 0x00;
 377              		.loc 1 129 0 discriminator 1
 378 0016 8370     		strb	r3, [r0, #2]
 130:.\LED_Matrix.c **** 			matrix[index].g[x] = 0x00;
 379              		.loc 1 130 0 discriminator 1
 380 0018 C371     		strb	r3, [r0, #7]
 381              		.loc 1 131 0 discriminator 1
 382 001a 0373     		strb	r3, [r0, #12]
 383              	.LVL27:
 129:.\LED_Matrix.c **** 			matrix[index].r[x] = 0x00;
 384              		.loc 1 129 0 discriminator 1
 385 001c C370     		strb	r3, [r0, #3]
 130:.\LED_Matrix.c **** 			matrix[index].g[x] = 0x00;
 386              		.loc 1 130 0 discriminator 1
 387 001e 0372     		strb	r3, [r0, #8]
 388              		.loc 1 131 0 discriminator 1
 389 0020 4373     		strb	r3, [r0, #13]
 390              	.LVL28:
 129:.\LED_Matrix.c **** 			matrix[index].r[x] = 0x00;
 391              		.loc 1 129 0 discriminator 1
 392 0022 0371     		strb	r3, [r0, #4]
 130:.\LED_Matrix.c **** 			matrix[index].g[x] = 0x00;
 393              		.loc 1 130 0 discriminator 1
 394 0024 4372     		strb	r3, [r0, #9]
 395              		.loc 1 131 0 discriminator 1
 396 0026 8373     		strb	r3, [r0, #14]
 397              	.LVL29:
 129:.\LED_Matrix.c **** 			matrix[index].r[x] = 0x00;
 398              		.loc 1 129 0 discriminator 1
 399 0028 C373     		strb	r3, [r0, #15]
 130:.\LED_Matrix.c **** 			matrix[index].g[x] = 0x00;
 400              		.loc 1 130 0 discriminator 1
 401 002a 0375     		strb	r3, [r0, #20]
 402              		.loc 1 131 0 discriminator 1
 403 002c 4376     		strb	r3, [r0, #25]
 404              	.LVL30:
 129:.\LED_Matrix.c **** 			matrix[index].r[x] = 0x00;
 405              		.loc 1 129 0 discriminator 1
 406 002e 0374     		strb	r3, [r0, #16]
 130:.\LED_Matrix.c **** 			matrix[index].g[x] = 0x00;
 407              		.loc 1 130 0 discriminator 1
 408 0030 4375     		strb	r3, [r0, #21]
 409              		.loc 1 131 0 discriminator 1
 410 0032 8376     		strb	r3, [r0, #26]
 411              	.LVL31:
 129:.\LED_Matrix.c **** 			matrix[index].r[x] = 0x00;
 412              		.loc 1 129 0 discriminator 1
 413 0034 4374     		strb	r3, [r0, #17]
 130:.\LED_Matrix.c **** 			matrix[index].g[x] = 0x00;
 414              		.loc 1 130 0 discriminator 1
ARM GAS  C:\Users\Steve\AppData\Local\Temp\ccd4Iqkr.s 			page 12


 415 0036 8375     		strb	r3, [r0, #22]
 416              		.loc 1 131 0 discriminator 1
 417 0038 C376     		strb	r3, [r0, #27]
 418              	.LVL32:
 129:.\LED_Matrix.c **** 			matrix[index].r[x] = 0x00;
 419              		.loc 1 129 0 discriminator 1
 420 003a 8374     		strb	r3, [r0, #18]
 130:.\LED_Matrix.c **** 			matrix[index].g[x] = 0x00;
 421              		.loc 1 130 0 discriminator 1
 422 003c C375     		strb	r3, [r0, #23]
 423              		.loc 1 131 0 discriminator 1
 424 003e 0377     		strb	r3, [r0, #28]
 425              	.LVL33:
 129:.\LED_Matrix.c **** 			matrix[index].r[x] = 0x00;
 426              		.loc 1 129 0 discriminator 1
 427 0040 C374     		strb	r3, [r0, #19]
 130:.\LED_Matrix.c **** 			matrix[index].g[x] = 0x00;
 428              		.loc 1 130 0 discriminator 1
 429 0042 0376     		strb	r3, [r0, #24]
 430              		.loc 1 131 0 discriminator 1
 431 0044 4377     		strb	r3, [r0, #29]
 432              	.LVL34:
 433 0046 1E30     		add	r0, r0, #30
 125:.\LED_Matrix.c **** 	for(index = 0; index < 64; index++)
 434              		.loc 1 125 0 discriminator 1
 435 0048 0029     		cmp	r1, #0
 436 004a DCD1     		bne	.L4
 132:.\LED_Matrix.c **** 		}
 133:.\LED_Matrix.c **** 	}
 134:.\LED_Matrix.c **** }
 437              		.loc 1 134 0
 438              		@ sp needed for prologue
 439 004c 00BD     		pop	{pc}
 440              		.cfi_endproc
 441              	.LFE35:
 442              		.size	clearScreen, .-clearScreen
 443 004e C046     		.section	.text.drawCircle,"ax",%progbits
 444              		.align	2
 445              		.global	drawCircle
 446              		.code	16
 447              		.thumb_func
 448              		.type	drawCircle, %function
 449              	drawCircle:
 450              	.LFB36:
 135:.\LED_Matrix.c **** 
 136:.\LED_Matrix.c **** void drawCircle(int8 x0, int8 y0, int8 r,RGB c, color *matrix) {
 451              		.loc 1 136 0
 452              		.cfi_startproc
 453              	.LVL35:
 454 0000 F0B5     		push	{r4, r5, r6, r7, lr}
 455              	.LCFI4:
 456              		.cfi_def_cfa_offset 20
 457              		.cfi_offset 4, -20
 458              		.cfi_offset 5, -16
 459              		.cfi_offset 6, -12
 460              		.cfi_offset 7, -8
 461              		.cfi_offset 14, -4
ARM GAS  C:\Users\Steve\AppData\Local\Temp\ccd4Iqkr.s 			page 13


 462 0002 5F46     		mov	r7, fp
 463 0004 5646     		mov	r6, sl
 464 0006 4D46     		mov	r5, r9
 465 0008 4446     		mov	r4, r8
 466 000a F0B4     		push	{r4, r5, r6, r7}
 467              	.LCFI5:
 468              		.cfi_def_cfa_offset 36
 469              		.cfi_offset 8, -36
 470              		.cfi_offset 9, -32
 471              		.cfi_offset 10, -28
 472              		.cfi_offset 11, -24
 473 000c 161C     		mov	r6, r2
 474 000e 87B0     		sub	sp, sp, #28
 475              	.LCFI6:
 476              		.cfi_def_cfa_offset 64
 137:.\LED_Matrix.c ****   int8 f = 1 - r;
 477              		.loc 1 137 0
 478 0010 F5B2     		uxtb	r5, r6
 479 0012 0127     		mov	r7, #1
 136:.\LED_Matrix.c **** void drawCircle(int8 x0, int8 y0, int8 r,RGB c, color *matrix) {
 480              		.loc 1 136 0
 481 0014 1A1C     		mov	r2, r3
 482              	.LVL36:
 483 0016 0593     		str	r3, [sp, #20]
 484              		.loc 1 137 0
 485 0018 7B1B     		sub	r3, r7, r5
 486 001a DFB2     		uxtb	r7, r3
 487              	.LVL37:
 138:.\LED_Matrix.c ****   int8 ddF_x = 1;
 139:.\LED_Matrix.c ****   int8 ddF_y = -2 * r;
 488              		.loc 1 139 0
 489 001c EB01     		lsl	r3, r5, #7
 490              	.LVL38:
 491 001e 5B1B     		sub	r3, r3, r5
 492 0020 5B00     		lsl	r3, r3, #1
 136:.\LED_Matrix.c **** void drawCircle(int8 x0, int8 y0, int8 r,RGB c, color *matrix) {
 493              		.loc 1 136 0
 494 0022 109C     		ldr	r4, [sp, #64]
 140:.\LED_Matrix.c ****   int8 x = 0;
 141:.\LED_Matrix.c ****   int8 y = r;
 142:.\LED_Matrix.c **** 
 143:.\LED_Matrix.c ****   drawPixel(x0 , y0+r, c,matrix);
 495              		.loc 1 143 0
 496 0024 C9B2     		uxtb	r1, r1
 139:.\LED_Matrix.c ****   int8 ddF_y = -2 * r;
 497              		.loc 1 139 0
 498 0026 DBB2     		uxtb	r3, r3
 499 0028 0493     		str	r3, [sp, #16]
 500              	.LVL39:
 501              		.loc 1 143 0
 502 002a 6B18     		add	r3, r5, r1
 503 002c 8B46     		mov	fp, r1
 504 002e C0B2     		uxtb	r0, r0
 505 0030 D9B2     		uxtb	r1, r3
 506              	.LVL40:
 507 0032 231C     		mov	r3, r4
 508 0034 8246     		mov	sl, r0
ARM GAS  C:\Users\Steve\AppData\Local\Temp\ccd4Iqkr.s 			page 14


 509 0036 FFF7FEFF 		bl	drawPixel
 510              	.LVL41:
 144:.\LED_Matrix.c ****   drawPixel(x0 , y0-r, c,matrix);
 511              		.loc 1 144 0
 512 003a 5A46     		mov	r2, fp
 513 003c 501B     		sub	r0, r2, r5
 514 003e C1B2     		uxtb	r1, r0
 515 0040 059A     		ldr	r2, [sp, #20]
 516 0042 5046     		mov	r0, sl
 517 0044 231C     		mov	r3, r4
 518 0046 FFF7FEFF 		bl	drawPixel
 519              	.LVL42:
 145:.\LED_Matrix.c ****   drawPixel(x0+r, y0 , c,matrix);
 520              		.loc 1 145 0
 521 004a 5146     		mov	r1, sl
 522 004c 6B18     		add	r3, r5, r1
 523 004e D8B2     		uxtb	r0, r3
 524 0050 5946     		mov	r1, fp
 525 0052 059A     		ldr	r2, [sp, #20]
 526 0054 231C     		mov	r3, r4
 527 0056 FFF7FEFF 		bl	drawPixel
 528              	.LVL43:
 146:.\LED_Matrix.c ****   drawPixel(x0-r, y0 , c,matrix);
 529              		.loc 1 146 0
 530 005a 5246     		mov	r2, sl
 531 005c 551B     		sub	r5, r2, r5
 532 005e E8B2     		uxtb	r0, r5
 533 0060 5946     		mov	r1, fp
 534 0062 059A     		ldr	r2, [sp, #20]
 535 0064 231C     		mov	r3, r4
 536 0066 FFF7FEFF 		bl	drawPixel
 537              	.LVL44:
 147:.\LED_Matrix.c **** 
 148:.\LED_Matrix.c ****   while (x < y) 
 538              		.loc 1 148 0
 539 006a 002E     		cmp	r6, #0
 540 006c 6FDD     		ble	.L8
 541 006e 0196     		str	r6, [sp, #4]
 542 0070 0125     		mov	r5, #1
 543              	.LVL45:
 544              	.L9:
 149:.\LED_Matrix.c ****   {
 150:.\LED_Matrix.c ****     if (f >= 0) 
 545              		.loc 1 150 0
 546 0072 7EB2     		sxtb	r6, r7
 547 0074 002E     		cmp	r6, #0
 548 0076 0ADB     		blt	.L10
 151:.\LED_Matrix.c **** 	{
 152:.\LED_Matrix.c ****       y--;
 153:.\LED_Matrix.c ****       ddF_y += 2;
 549              		.loc 1 153 0
 550 0078 049B     		ldr	r3, [sp, #16]
 152:.\LED_Matrix.c ****       y--;
 551              		.loc 1 152 0
 552 007a 0198     		ldr	r0, [sp, #4]
 553              		.loc 1 153 0
 554 007c 0233     		add	r3, r3, #2
ARM GAS  C:\Users\Steve\AppData\Local\Temp\ccd4Iqkr.s 			page 15


 555 007e DEB2     		uxtb	r6, r3
 152:.\LED_Matrix.c ****       y--;
 556              		.loc 1 152 0
 557 0080 0138     		sub	r0, r0, #1
 558 0082 C1B2     		uxtb	r1, r0
 559              		.loc 1 153 0
 560 0084 F2B2     		uxtb	r2, r6
 154:.\LED_Matrix.c ****       f += ddF_y;
 561              		.loc 1 154 0
 562 0086 F719     		add	r7, r6, r7
 152:.\LED_Matrix.c ****       y--;
 563              		.loc 1 152 0
 564 0088 0191     		str	r1, [sp, #4]
 565              	.LVL46:
 153:.\LED_Matrix.c ****       ddF_y += 2;
 566              		.loc 1 153 0
 567 008a 0492     		str	r2, [sp, #16]
 568              		.loc 1 154 0
 569 008c FFB2     		uxtb	r7, r7
 570              	.LVL47:
 571              	.L10:
 136:.\LED_Matrix.c **** void drawCircle(int8 x0, int8 y0, int8 r,RGB c, color *matrix) {
 572              		.loc 1 136 0
 573 008e 6900     		lsl	r1, r5, #1
 574 0090 0131     		add	r1, r1, #1
 155:.\LED_Matrix.c ****     }
 156:.\LED_Matrix.c ****     x++;
 157:.\LED_Matrix.c ****     ddF_x += 2;
 158:.\LED_Matrix.c ****     f += ddF_x;
 575              		.loc 1 158 0
 576 0092 7B18     		add	r3, r7, r1
 136:.\LED_Matrix.c **** void drawCircle(int8 x0, int8 y0, int8 r,RGB c, color *matrix) {
 577              		.loc 1 136 0
 578 0094 5646     		mov	r6, sl
 159:.\LED_Matrix.c ****   
 160:.\LED_Matrix.c ****     drawPixel(x0 + x, y0 + y, c,matrix);
 579              		.loc 1 160 0
 580 0096 6946     		mov	r1, sp
 136:.\LED_Matrix.c **** void drawCircle(int8 x0, int8 y0, int8 r,RGB c, color *matrix) {
 581              		.loc 1 136 0
 582 0098 7219     		add	r2, r6, r5
 583              		.loc 1 160 0
 584 009a 0E79     		ldrb	r6, [r1, #4]
 156:.\LED_Matrix.c ****     x++;
 585              		.loc 1 156 0
 586 009c E8B2     		uxtb	r0, r5
 158:.\LED_Matrix.c ****     f += ddF_x;
 587              		.loc 1 158 0
 588 009e DFB2     		uxtb	r7, r3
 589              	.LVL48:
 590              		.loc 1 160 0
 591 00a0 5B46     		mov	r3, fp
 156:.\LED_Matrix.c ****     x++;
 592              		.loc 1 156 0
 593 00a2 0390     		str	r0, [sp, #12]
 594              	.LVL49:
 136:.\LED_Matrix.c **** void drawCircle(int8 x0, int8 y0, int8 r,RGB c, color *matrix) {
ARM GAS  C:\Users\Steve\AppData\Local\Temp\ccd4Iqkr.s 			page 16


 595              		.loc 1 136 0
 596 00a4 D0B2     		uxtb	r0, r2
 597              		.loc 1 160 0
 598 00a6 F218     		add	r2, r6, r3
 136:.\LED_Matrix.c **** void drawCircle(int8 x0, int8 y0, int8 r,RGB c, color *matrix) {
 599              		.loc 1 136 0
 600 00a8 0290     		str	r0, [sp, #8]
 601              		.loc 1 160 0
 602 00aa D0B2     		uxtb	r0, r2
 603 00ac 8046     		mov	r8, r0
 604 00ae 4146     		mov	r1, r8
 605 00b0 0298     		ldr	r0, [sp, #8]
 606 00b2 059A     		ldr	r2, [sp, #20]
 607 00b4 231C     		mov	r3, r4
 608 00b6 FFF7FEFF 		bl	drawPixel
 609              	.LVL50:
 136:.\LED_Matrix.c **** void drawCircle(int8 x0, int8 y0, int8 r,RGB c, color *matrix) {
 610              		.loc 1 136 0
 611 00ba 5146     		mov	r1, sl
 612 00bc 4B1B     		sub	r3, r1, r5
 613 00be DAB2     		uxtb	r2, r3
 614 00c0 9146     		mov	r9, r2
 161:.\LED_Matrix.c ****     drawPixel(x0 - x, y0 + y, c,matrix);
 615              		.loc 1 161 0
 616 00c2 101C     		mov	r0, r2
 617 00c4 4146     		mov	r1, r8
 618 00c6 059A     		ldr	r2, [sp, #20]
 619 00c8 231C     		mov	r3, r4
 620 00ca FFF7FEFF 		bl	drawPixel
 621              	.LVL51:
 162:.\LED_Matrix.c ****     drawPixel(x0 + x, y0 - y, c,matrix);
 622              		.loc 1 162 0
 623 00ce 5846     		mov	r0, fp
 624 00d0 811B     		sub	r1, r0, r6
 625 00d2 CBB2     		uxtb	r3, r1
 626 00d4 9846     		mov	r8, r3
 627 00d6 191C     		mov	r1, r3
 628 00d8 0298     		ldr	r0, [sp, #8]
 629 00da 059A     		ldr	r2, [sp, #20]
 630 00dc 231C     		mov	r3, r4
 631 00de FFF7FEFF 		bl	drawPixel
 632              	.LVL52:
 163:.\LED_Matrix.c ****     drawPixel(x0 - x, y0 - y, c,matrix);
 633              		.loc 1 163 0
 634 00e2 4846     		mov	r0, r9
 635 00e4 4146     		mov	r1, r8
 636 00e6 059A     		ldr	r2, [sp, #20]
 637 00e8 231C     		mov	r3, r4
 638 00ea FFF7FEFF 		bl	drawPixel
 639              	.LVL53:
 164:.\LED_Matrix.c ****     drawPixel(x0 + y, y0 + x, c,matrix);
 640              		.loc 1 164 0
 641 00ee 5246     		mov	r2, sl
 136:.\LED_Matrix.c **** void drawCircle(int8 x0, int8 y0, int8 r,RGB c, color *matrix) {
 642              		.loc 1 136 0
 643 00f0 5B46     		mov	r3, fp
 644              		.loc 1 164 0
ARM GAS  C:\Users\Steve\AppData\Local\Temp\ccd4Iqkr.s 			page 17


 645 00f2 B018     		add	r0, r6, r2
 136:.\LED_Matrix.c **** void drawCircle(int8 x0, int8 y0, int8 r,RGB c, color *matrix) {
 646              		.loc 1 136 0
 647 00f4 5A19     		add	r2, r3, r5
 648              		.loc 1 164 0
 649 00f6 C1B2     		uxtb	r1, r0
 136:.\LED_Matrix.c **** void drawCircle(int8 x0, int8 y0, int8 r,RGB c, color *matrix) {
 650              		.loc 1 136 0
 651 00f8 D0B2     		uxtb	r0, r2
 652 00fa 8146     		mov	r9, r0
 653              		.loc 1 164 0
 654 00fc 8846     		mov	r8, r1
 655 00fe 081C     		mov	r0, r1
 656 0100 059A     		ldr	r2, [sp, #20]
 657 0102 4946     		mov	r1, r9
 658 0104 231C     		mov	r3, r4
 659 0106 FFF7FEFF 		bl	drawPixel
 660              	.LVL54:
 165:.\LED_Matrix.c ****     drawPixel(x0 - y, y0 + x, c,matrix);
 661              		.loc 1 165 0
 662 010a 5146     		mov	r1, sl
 663 010c 8E1B     		sub	r6, r1, r6
 664 010e F6B2     		uxtb	r6, r6
 665 0110 301C     		mov	r0, r6
 666 0112 4946     		mov	r1, r9
 667 0114 059A     		ldr	r2, [sp, #20]
 668 0116 231C     		mov	r3, r4
 669 0118 FFF7FEFF 		bl	drawPixel
 670              	.LVL55:
 136:.\LED_Matrix.c **** void drawCircle(int8 x0, int8 y0, int8 r,RGB c, color *matrix) {
 671              		.loc 1 136 0
 672 011c 5B46     		mov	r3, fp
 673 011e 5A1B     		sub	r2, r3, r5
 674 0120 D0B2     		uxtb	r0, r2
 675 0122 8146     		mov	r9, r0
 166:.\LED_Matrix.c ****     drawPixel(x0 + y, y0 - x, c,matrix);
 676              		.loc 1 166 0
 677 0124 4946     		mov	r1, r9
 678 0126 4046     		mov	r0, r8
 679 0128 059A     		ldr	r2, [sp, #20]
 680 012a 231C     		mov	r3, r4
 681 012c FFF7FEFF 		bl	drawPixel
 682              	.LVL56:
 167:.\LED_Matrix.c ****     drawPixel(x0 - y, y0 - x, c,matrix);
 683              		.loc 1 167 0
 684 0130 301C     		mov	r0, r6
 685 0132 4946     		mov	r1, r9
 686 0134 059A     		ldr	r2, [sp, #20]
 687 0136 231C     		mov	r3, r4
 688 0138 FFF7FEFF 		bl	drawPixel
 689              	.LVL57:
 148:.\LED_Matrix.c ****   while (x < y) 
 690              		.loc 1 148 0
 691 013c 6E46     		mov	r6, sp
 692 013e 0421     		mov	r1, #4
 693 0140 0C23     		mov	r3, #12
 694 0142 7256     		ldrsb	r2, [r6, r1]
ARM GAS  C:\Users\Steve\AppData\Local\Temp\ccd4Iqkr.s 			page 18


 695 0144 9857     		ldrsb	r0, [r3, r6]
 696 0146 0135     		add	r5, r5, #1
 697              	.LVL58:
 698 0148 EDB2     		uxtb	r5, r5
 699              	.LVL59:
 700 014a 8242     		cmp	r2, r0
 701 014c 91DC     		bgt	.L9
 702              	.LVL60:
 703              	.L8:
 168:.\LED_Matrix.c ****   }
 169:.\LED_Matrix.c **** 
 170:.\LED_Matrix.c **** }
 704              		.loc 1 170 0
 705 014e 07B0     		add	sp, sp, #28
 706              		@ sp needed for prologue
 707              	.LVL61:
 708              	.LVL62:
 709 0150 3CBC     		pop	{r2, r3, r4, r5}
 710 0152 9046     		mov	r8, r2
 711 0154 9946     		mov	r9, r3
 712 0156 A246     		mov	sl, r4
 713 0158 AB46     		mov	fp, r5
 714 015a F0BD     		pop	{r4, r5, r6, r7, pc}
 715              		.cfi_endproc
 716              	.LFE36:
 717              		.size	drawCircle, .-drawCircle
 718              		.section	.text.drawCircleHelper,"ax",%progbits
 719              		.align	2
 720              		.global	drawCircleHelper
 721              		.code	16
 722              		.thumb_func
 723              		.type	drawCircleHelper, %function
 724              	drawCircleHelper:
 725              	.LFB37:
 171:.\LED_Matrix.c **** 
 172:.\LED_Matrix.c **** void drawCircleHelper( int8 x0, int8 y0,int8 r, int8 cornername, RGB c, color *matrix) {
 726              		.loc 1 172 0
 727              		.cfi_startproc
 728              	.LVL63:
 729 0000 F0B5     		push	{r4, r5, r6, r7, lr}
 730              	.LCFI7:
 731              		.cfi_def_cfa_offset 20
 732              		.cfi_offset 4, -20
 733              		.cfi_offset 5, -16
 734              		.cfi_offset 6, -12
 735              		.cfi_offset 7, -8
 736              		.cfi_offset 14, -4
 737 0002 5F46     		mov	r7, fp
 738 0004 5646     		mov	r6, sl
 739 0006 4D46     		mov	r5, r9
 740 0008 4446     		mov	r4, r8
 741 000a F0B4     		push	{r4, r5, r6, r7}
 742              	.LCFI8:
 743              		.cfi_def_cfa_offset 36
 744              		.cfi_offset 8, -36
 745              		.cfi_offset 9, -32
 746              		.cfi_offset 10, -28
ARM GAS  C:\Users\Steve\AppData\Local\Temp\ccd4Iqkr.s 			page 19


 747              		.cfi_offset 11, -24
 173:.\LED_Matrix.c ****   int8 f = 1 - r;
 748              		.loc 1 173 0
 749 000c D4B2     		uxtb	r4, r2
 750 000e 0125     		mov	r5, #1
 751 0010 2E1B     		sub	r6, r5, r4
 752 0012 F5B2     		uxtb	r5, r6
 753              	.LVL64:
 174:.\LED_Matrix.c ****   int8 ddF_x = 1;
 175:.\LED_Matrix.c ****   int8 ddF_y = -2 * r;
 754              		.loc 1 175 0
 755 0014 E601     		lsl	r6, r4, #7
 756              	.LVL65:
 757 0016 341B     		sub	r4, r6, r4
 758 0018 6600     		lsl	r6, r4, #1
 172:.\LED_Matrix.c **** void drawCircleHelper( int8 x0, int8 y0,int8 r, int8 cornername, RGB c, color *matrix) {
 759              		.loc 1 172 0
 760 001a 87B0     		sub	sp, sp, #28
 761              	.LCFI9:
 762              		.cfi_def_cfa_offset 64
 763              		.loc 1 175 0
 764 001c F4B2     		uxtb	r4, r6
 172:.\LED_Matrix.c **** void drawCircleHelper( int8 x0, int8 y0,int8 r, int8 cornername, RGB c, color *matrix) {
 765              		.loc 1 172 0
 766 001e 119F     		ldr	r7, [sp, #68]
 767              		.loc 1 175 0
 768 0020 0194     		str	r4, [sp, #4]
 769              	.LVL66:
 176:.\LED_Matrix.c ****   int8 x = 0;
 177:.\LED_Matrix.c ****   int8 y = r;
 178:.\LED_Matrix.c **** 
 179:.\LED_Matrix.c ****   while (x<y) {
 770              		.loc 1 179 0
 771 0022 002A     		cmp	r2, #0
 772 0024 00DC     		bgt	.LCB651
 773 0026 9FE0     		b	.L14	@long jump
 774              	.LCB651:
 775 0028 0226     		mov	r6, #2
 776 002a 0824     		mov	r4, #8
 777 002c 1E40     		and	r6, r3
 778 002e 1C40     		and	r4, r3
 779 0030 0396     		str	r6, [sp, #12]
 780 0032 0294     		str	r4, [sp, #8]
 781 0034 0126     		mov	r6, #1
 782 0036 0424     		mov	r4, #4
 783 0038 1E40     		and	r6, r3
 784 003a 1C40     		and	r4, r3
 180:.\LED_Matrix.c ****     if (f >= 0) {
 181:.\LED_Matrix.c ****       y--;
 182:.\LED_Matrix.c ****       ddF_y += 2;
 183:.\LED_Matrix.c ****       f += ddF_y;
 184:.\LED_Matrix.c ****     }
 185:.\LED_Matrix.c ****     x++;
 186:.\LED_Matrix.c ****     ddF_x += 2;
 187:.\LED_Matrix.c ****     f += ddF_x;
 188:.\LED_Matrix.c ****     if (cornername & 0x4) {
 189:.\LED_Matrix.c ****       drawPixel(x0 + x, y0 + y, c, matrix);
ARM GAS  C:\Users\Steve\AppData\Local\Temp\ccd4Iqkr.s 			page 20


 785              		.loc 1 189 0
 786 003c C0B2     		uxtb	r0, r0
 787 003e C9B2     		uxtb	r1, r1
 788 0040 0596     		str	r6, [sp, #20]
 789 0042 0494     		str	r4, [sp, #16]
 179:.\LED_Matrix.c ****   while (x<y) {
 790              		.loc 1 179 0
 791 0044 161C     		mov	r6, r2
 792 0046 0124     		mov	r4, #1
 793              		.loc 1 189 0
 794 0048 8146     		mov	r9, r0
 795 004a 8846     		mov	r8, r1
 796 004c 0FE0     		b	.L21
 797              	.LVL67:
 798              	.L17:
 190:.\LED_Matrix.c ****       drawPixel(x0 + y, y0 + x, c, matrix);
 191:.\LED_Matrix.c ****     }
 192:.\LED_Matrix.c ****     if (cornername & 0x2) {
 799              		.loc 1 192 0
 800 004e 0398     		ldr	r0, [sp, #12]
 801              	.LVL68:
 802 0050 0028     		cmp	r0, #0
 803 0052 39D1     		bne	.L36
 804              	.L18:
 193:.\LED_Matrix.c ****       drawPixel(x0 + x, y0 - y, c, matrix);
 194:.\LED_Matrix.c ****       drawPixel(x0 + y, y0 - x, c, matrix);
 195:.\LED_Matrix.c ****     }
 196:.\LED_Matrix.c ****     if (cornername & 0x8) {
 805              		.loc 1 196 0
 806 0054 0298     		ldr	r0, [sp, #8]
 807 0056 0028     		cmp	r0, #0
 808 0058 4FD1     		bne	.L37
 809              	.L19:
 197:.\LED_Matrix.c ****       drawPixel(x0 - y, y0 + x, c, matrix);
 198:.\LED_Matrix.c ****       drawPixel(x0 - x, y0 + y, c, matrix);
 199:.\LED_Matrix.c ****     }
 200:.\LED_Matrix.c ****     if (cornername & 0x1) {
 810              		.loc 1 200 0
 811 005a 0598     		ldr	r0, [sp, #20]
 812 005c 0028     		cmp	r0, #0
 813 005e 65D1     		bne	.L38
 814              	.L20:
 815              	.LVL69:
 179:.\LED_Matrix.c ****   while (x<y) {
 816              		.loc 1 179 0 discriminator 1
 817 0060 5146     		mov	r1, sl
 818 0062 0134     		add	r4, r4, #1
 819              	.LVL70:
 820 0064 70B2     		sxtb	r0, r6
 821 0066 4BB2     		sxtb	r3, r1
 822 0068 E4B2     		uxtb	r4, r4
 823              	.LVL71:
 824 006a 9842     		cmp	r0, r3
 825 006c 7CDD     		ble	.L14
 826              	.LVL72:
 827              	.L21:
 180:.\LED_Matrix.c ****     if (f >= 0) {
ARM GAS  C:\Users\Steve\AppData\Local\Temp\ccd4Iqkr.s 			page 21


 828              		.loc 1 180 0
 829 006e 6BB2     		sxtb	r3, r5
 830 0070 002B     		cmp	r3, #0
 831 0072 08DB     		blt	.L16
 182:.\LED_Matrix.c ****       ddF_y += 2;
 832              		.loc 1 182 0
 833 0074 019A     		ldr	r2, [sp, #4]
 181:.\LED_Matrix.c ****       y--;
 834              		.loc 1 181 0
 835 0076 013E     		sub	r6, r6, #1
 182:.\LED_Matrix.c ****       ddF_y += 2;
 836              		.loc 1 182 0
 837 0078 0232     		add	r2, r2, #2
 838 007a D0B2     		uxtb	r0, r2
 839 007c C1B2     		uxtb	r1, r0
 183:.\LED_Matrix.c ****       f += ddF_y;
 840              		.loc 1 183 0
 841 007e 4519     		add	r5, r0, r5
 181:.\LED_Matrix.c ****       y--;
 842              		.loc 1 181 0
 843 0080 F6B2     		uxtb	r6, r6
 844              	.LVL73:
 182:.\LED_Matrix.c ****       ddF_y += 2;
 845              		.loc 1 182 0
 846 0082 0191     		str	r1, [sp, #4]
 183:.\LED_Matrix.c ****       f += ddF_y;
 847              		.loc 1 183 0
 848 0084 EDB2     		uxtb	r5, r5
 849              	.LVL74:
 850              	.L16:
 172:.\LED_Matrix.c **** void drawCircleHelper( int8 x0, int8 y0,int8 r, int8 cornername, RGB c, color *matrix) {
 851              		.loc 1 172 0
 852 0086 6200     		lsl	r2, r4, #1
 853 0088 0132     		add	r2, r2, #1
 188:.\LED_Matrix.c ****     if (cornername & 0x4) {
 854              		.loc 1 188 0
 855 008a 0499     		ldr	r1, [sp, #16]
 185:.\LED_Matrix.c ****     x++;
 856              		.loc 1 185 0
 857 008c E3B2     		uxtb	r3, r4
 187:.\LED_Matrix.c ****     f += ddF_x;
 858              		.loc 1 187 0
 859 008e A818     		add	r0, r5, r2
 185:.\LED_Matrix.c ****     x++;
 860              		.loc 1 185 0
 861 0090 9A46     		mov	sl, r3
 862              	.LVL75:
 187:.\LED_Matrix.c ****     f += ddF_x;
 863              		.loc 1 187 0
 864 0092 C5B2     		uxtb	r5, r0
 865              	.LVL76:
 188:.\LED_Matrix.c ****     if (cornername & 0x4) {
 866              		.loc 1 188 0
 867 0094 0029     		cmp	r1, #0
 868 0096 DAD0     		beq	.L17
 189:.\LED_Matrix.c ****       drawPixel(x0 + x, y0 + y, c, matrix);
 869              		.loc 1 189 0
ARM GAS  C:\Users\Steve\AppData\Local\Temp\ccd4Iqkr.s 			page 22


 870 0098 F1B2     		uxtb	r1, r6
 172:.\LED_Matrix.c **** void drawCircleHelper( int8 x0, int8 y0,int8 r, int8 cornername, RGB c, color *matrix) {
 871              		.loc 1 172 0
 872 009a 4B46     		mov	r3, r9
 873 009c 1A19     		add	r2, r3, r4
 189:.\LED_Matrix.c ****       drawPixel(x0 + x, y0 + y, c, matrix);
 874              		.loc 1 189 0
 875 009e 8B46     		mov	fp, r1
 876 00a0 4144     		add	r1, r1, r8
 877 00a2 D0B2     		uxtb	r0, r2
 878              	.LVL77:
 879 00a4 C9B2     		uxtb	r1, r1
 880 00a6 109A     		ldr	r2, [sp, #64]
 881 00a8 3B1C     		mov	r3, r7
 882 00aa FFF7FEFF 		bl	drawPixel
 883              	.LVL78:
 172:.\LED_Matrix.c **** void drawCircleHelper( int8 x0, int8 y0,int8 r, int8 cornername, RGB c, color *matrix) {
 884              		.loc 1 172 0
 885 00ae 4346     		mov	r3, r8
 190:.\LED_Matrix.c ****       drawPixel(x0 + y, y0 + x, c, matrix);
 886              		.loc 1 190 0
 887 00b0 5946     		mov	r1, fp
 172:.\LED_Matrix.c **** void drawCircleHelper( int8 x0, int8 y0,int8 r, int8 cornername, RGB c, color *matrix) {
 888              		.loc 1 172 0
 889 00b2 1A19     		add	r2, r3, r4
 190:.\LED_Matrix.c ****       drawPixel(x0 + y, y0 + x, c, matrix);
 890              		.loc 1 190 0
 891 00b4 4944     		add	r1, r1, r9
 892 00b6 C8B2     		uxtb	r0, r1
 893 00b8 3B1C     		mov	r3, r7
 894 00ba D1B2     		uxtb	r1, r2
 895 00bc 109A     		ldr	r2, [sp, #64]
 896 00be FFF7FEFF 		bl	drawPixel
 897              	.LVL79:
 192:.\LED_Matrix.c ****     if (cornername & 0x2) {
 898              		.loc 1 192 0
 899 00c2 0398     		ldr	r0, [sp, #12]
 900 00c4 0028     		cmp	r0, #0
 901 00c6 C5D0     		beq	.L18
 902              	.L36:
 172:.\LED_Matrix.c **** void drawCircleHelper( int8 x0, int8 y0,int8 r, int8 cornername, RGB c, color *matrix) {
 903              		.loc 1 172 0
 904 00c8 4B46     		mov	r3, r9
 905 00ca 1A19     		add	r2, r3, r4
 193:.\LED_Matrix.c ****       drawPixel(x0 + x, y0 - y, c, matrix);
 906              		.loc 1 193 0
 907 00cc F1B2     		uxtb	r1, r6
 908 00ce 4346     		mov	r3, r8
 909 00d0 8B46     		mov	fp, r1
 910 00d2 591A     		sub	r1, r3, r1
 911 00d4 D0B2     		uxtb	r0, r2
 912 00d6 C9B2     		uxtb	r1, r1
 913 00d8 109A     		ldr	r2, [sp, #64]
 914 00da 3B1C     		mov	r3, r7
 915 00dc FFF7FEFF 		bl	drawPixel
 916              	.LVL80:
 172:.\LED_Matrix.c **** void drawCircleHelper( int8 x0, int8 y0,int8 r, int8 cornername, RGB c, color *matrix) {
ARM GAS  C:\Users\Steve\AppData\Local\Temp\ccd4Iqkr.s 			page 23


 917              		.loc 1 172 0
 918 00e0 4346     		mov	r3, r8
 194:.\LED_Matrix.c ****       drawPixel(x0 + y, y0 - x, c, matrix);
 919              		.loc 1 194 0
 920 00e2 5A46     		mov	r2, fp
 921 00e4 4A44     		add	r2, r2, r9
 172:.\LED_Matrix.c **** void drawCircleHelper( int8 x0, int8 y0,int8 r, int8 cornername, RGB c, color *matrix) {
 922              		.loc 1 172 0
 923 00e6 191B     		sub	r1, r3, r4
 194:.\LED_Matrix.c ****       drawPixel(x0 + y, y0 - x, c, matrix);
 924              		.loc 1 194 0
 925 00e8 D0B2     		uxtb	r0, r2
 926 00ea C9B2     		uxtb	r1, r1
 927 00ec 109A     		ldr	r2, [sp, #64]
 928 00ee 3B1C     		mov	r3, r7
 929 00f0 FFF7FEFF 		bl	drawPixel
 930              	.LVL81:
 196:.\LED_Matrix.c ****     if (cornername & 0x8) {
 931              		.loc 1 196 0
 932 00f4 0298     		ldr	r0, [sp, #8]
 933 00f6 0028     		cmp	r0, #0
 934 00f8 AFD0     		beq	.L19
 935              	.L37:
 197:.\LED_Matrix.c ****       drawPixel(x0 - y, y0 + x, c, matrix);
 936              		.loc 1 197 0
 937 00fa F3B2     		uxtb	r3, r6
 938 00fc 4A46     		mov	r2, r9
 939 00fe D11A     		sub	r1, r2, r3
 940 0100 9B46     		mov	fp, r3
 172:.\LED_Matrix.c **** void drawCircleHelper( int8 x0, int8 y0,int8 r, int8 cornername, RGB c, color *matrix) {
 941              		.loc 1 172 0
 942 0102 4346     		mov	r3, r8
 943 0104 1A19     		add	r2, r3, r4
 197:.\LED_Matrix.c ****       drawPixel(x0 - y, y0 + x, c, matrix);
 944              		.loc 1 197 0
 945 0106 C8B2     		uxtb	r0, r1
 946 0108 3B1C     		mov	r3, r7
 947 010a D1B2     		uxtb	r1, r2
 948 010c 109A     		ldr	r2, [sp, #64]
 949 010e FFF7FEFF 		bl	drawPixel
 950              	.LVL82:
 172:.\LED_Matrix.c **** void drawCircleHelper( int8 x0, int8 y0,int8 r, int8 cornername, RGB c, color *matrix) {
 951              		.loc 1 172 0
 952 0112 4846     		mov	r0, r9
 198:.\LED_Matrix.c ****       drawPixel(x0 - x, y0 + y, c, matrix);
 953              		.loc 1 198 0
 954 0114 5A46     		mov	r2, fp
 172:.\LED_Matrix.c **** void drawCircleHelper( int8 x0, int8 y0,int8 r, int8 cornername, RGB c, color *matrix) {
 955              		.loc 1 172 0
 956 0116 011B     		sub	r1, r0, r4
 198:.\LED_Matrix.c ****       drawPixel(x0 - x, y0 + y, c, matrix);
 957              		.loc 1 198 0
 958 0118 4244     		add	r2, r2, r8
 959 011a C8B2     		uxtb	r0, r1
 960 011c 3B1C     		mov	r3, r7
 961 011e D1B2     		uxtb	r1, r2
 962 0120 109A     		ldr	r2, [sp, #64]
ARM GAS  C:\Users\Steve\AppData\Local\Temp\ccd4Iqkr.s 			page 24


 963 0122 FFF7FEFF 		bl	drawPixel
 964              	.LVL83:
 965              		.loc 1 200 0
 966 0126 0598     		ldr	r0, [sp, #20]
 967 0128 0028     		cmp	r0, #0
 968 012a 99D0     		beq	.L20
 969              	.L38:
 201:.\LED_Matrix.c ****       drawPixel(x0 - y, y0 - x, c, matrix);
 970              		.loc 1 201 0
 971 012c F1B2     		uxtb	r1, r6
 972 012e 4B46     		mov	r3, r9
 973 0130 5A1A     		sub	r2, r3, r1
 974 0132 8B46     		mov	fp, r1
 172:.\LED_Matrix.c **** void drawCircleHelper( int8 x0, int8 y0,int8 r, int8 cornername, RGB c, color *matrix) {
 975              		.loc 1 172 0
 976 0134 4146     		mov	r1, r8
 977 0136 0B1B     		sub	r3, r1, r4
 978              		.loc 1 201 0
 979 0138 D0B2     		uxtb	r0, r2
 980 013a D9B2     		uxtb	r1, r3
 981 013c 109A     		ldr	r2, [sp, #64]
 982 013e 3B1C     		mov	r3, r7
 983 0140 FFF7FEFF 		bl	drawPixel
 984              	.LVL84:
 172:.\LED_Matrix.c **** void drawCircleHelper( int8 x0, int8 y0,int8 r, int8 cornername, RGB c, color *matrix) {
 985              		.loc 1 172 0
 986 0144 4846     		mov	r0, r9
 987 0146 021B     		sub	r2, r0, r4
 202:.\LED_Matrix.c ****       drawPixel(x0 - x, y0 - y, c, matrix);
 988              		.loc 1 202 0
 989 0148 4146     		mov	r1, r8
 990 014a 5B46     		mov	r3, fp
 991 014c D0B2     		uxtb	r0, r2
 992 014e CA1A     		sub	r2, r1, r3
 993 0150 D1B2     		uxtb	r1, r2
 994 0152 3B1C     		mov	r3, r7
 995 0154 109A     		ldr	r2, [sp, #64]
 996 0156 FFF7FEFF 		bl	drawPixel
 997              	.LVL85:
 179:.\LED_Matrix.c ****   while (x<y) {
 998              		.loc 1 179 0
 999 015a 5146     		mov	r1, sl
 1000 015c 0134     		add	r4, r4, #1
 1001              	.LVL86:
 1002 015e 70B2     		sxtb	r0, r6
 1003 0160 4BB2     		sxtb	r3, r1
 1004 0162 E4B2     		uxtb	r4, r4
 1005              	.LVL87:
 1006 0164 9842     		cmp	r0, r3
 1007 0166 82DC     		bgt	.L21
 1008              	.LVL88:
 1009              	.L14:
 203:.\LED_Matrix.c ****     }
 204:.\LED_Matrix.c ****   }
 205:.\LED_Matrix.c **** }
 1010              		.loc 1 205 0
 1011 0168 07B0     		add	sp, sp, #28
ARM GAS  C:\Users\Steve\AppData\Local\Temp\ccd4Iqkr.s 			page 25


 1012              		@ sp needed for prologue
 1013 016a 3CBC     		pop	{r2, r3, r4, r5}
 1014 016c 9046     		mov	r8, r2
 1015 016e 9946     		mov	r9, r3
 1016 0170 A246     		mov	sl, r4
 1017 0172 AB46     		mov	fp, r5
 1018 0174 F0BD     		pop	{r4, r5, r6, r7, pc}
 1019              		.cfi_endproc
 1020              	.LFE37:
 1021              		.size	drawCircleHelper, .-drawCircleHelper
 1022 0176 C046     		.section	.text.drawLine,"ax",%progbits
 1023              		.align	2
 1024              		.global	drawLine
 1025              		.code	16
 1026              		.thumb_func
 1027              		.type	drawLine, %function
 1028              	drawLine:
 1029              	.LFB38:
 206:.\LED_Matrix.c **** 
 207:.\LED_Matrix.c **** void drawLine(int8 x0, int8 y0, int8 x1, int8 y1, RGB c, color *matrix)
 208:.\LED_Matrix.c **** {
 1030              		.loc 1 208 0
 1031              		.cfi_startproc
 1032              	.LVL89:
 1033 0000 F0B5     		push	{r4, r5, r6, r7, lr}
 1034              	.LCFI10:
 1035              		.cfi_def_cfa_offset 20
 1036              		.cfi_offset 4, -20
 1037              		.cfi_offset 5, -16
 1038              		.cfi_offset 6, -12
 1039              		.cfi_offset 7, -8
 1040              		.cfi_offset 14, -4
 1041 0002 4D46     		mov	r5, r9
 1042 0004 4446     		mov	r4, r8
 1043 0006 5F46     		mov	r7, fp
 1044 0008 5646     		mov	r6, sl
 1045 000a F0B4     		push	{r4, r5, r6, r7}
 1046              	.LCFI11:
 1047              		.cfi_def_cfa_offset 36
 1048              		.cfi_offset 8, -36
 1049              		.cfi_offset 9, -32
 1050              		.cfi_offset 10, -28
 1051              		.cfi_offset 11, -24
 1052 000c 83B0     		sub	sp, sp, #12
 1053              	.LCFI12:
 1054              		.cfi_def_cfa_offset 48
 1055              		.loc 1 208 0
 1056 000e 041C     		mov	r4, r0
 1057 0010 0D1C     		mov	r5, r1
 1058 0012 0D98     		ldr	r0, [sp, #52]
 1059              	.LVL90:
 209:.\LED_Matrix.c ****   int8 steep = abs(y1 - y0) > abs(x1 - x0);
 1060              		.loc 1 209 0
 1061 0014 5E1B     		sub	r6, r3, r5
 208:.\LED_Matrix.c **** {
 1062              		.loc 1 208 0
 1063 0016 8046     		mov	r8, r0
ARM GAS  C:\Users\Steve\AppData\Local\Temp\ccd4Iqkr.s 			page 26


 1064              		.loc 1 209 0
 1065 0018 F017     		asr	r0, r6, #31
 1066 001a 3618     		add	r6, r6, r0
 1067 001c 4640     		eor	r6, r0
 208:.\LED_Matrix.c **** {
 1068              		.loc 1 208 0
 1069 001e 171C     		mov	r7, r2
 1070              		.loc 1 209 0
 1071 0020 B146     		mov	r9, r6
 1072 0022 3E1B     		sub	r6, r7, r4
 1073 0024 F017     		asr	r0, r6, #31
 1074 0026 3618     		add	r6, r6, r0
 1075 0028 211C     		mov	r1, r4
 1076              	.LVL91:
 1077 002a 4640     		eor	r6, r0
 1078 002c B145     		cmp	r9, r6
 1079 002e 00DC     		bgt	.LCB956
 1080 0030 B9E0     		b	.L67	@long jump
 1081              	.LCB956:
 1082 0032 0124     		mov	r4, #1
 1083 0034 A146     		mov	r9, r4
 210:.\LED_Matrix.c ****   if (steep) {
 211:.\LED_Matrix.c ****     swap(x0, y0);
 212:.\LED_Matrix.c ****     swap(x1, y1);
 1084              		.loc 1 212 0
 1085 0036 1F1C     		mov	r7, r3
 211:.\LED_Matrix.c ****     swap(x0, y0);
 1086              		.loc 1 211 0
 1087 0038 2C1C     		mov	r4, r5
 1088              		.loc 1 212 0
 1089 003a 131C     		mov	r3, r2
 1090              	.LVL92:
 211:.\LED_Matrix.c ****     swap(x0, y0);
 1091              		.loc 1 211 0
 1092 003c 0D1C     		mov	r5, r1
 1093              	.LVL93:
 1094              	.L41:
 213:.\LED_Matrix.c ****   }
 214:.\LED_Matrix.c **** 
 215:.\LED_Matrix.c ****   if (x0 > x1) {
 1095              		.loc 1 215 0
 1096 003e BC42     		cmp	r4, r7
 1097 0040 00DD     		ble	.LCB972
 1098 0042 A9E0     		b	.L51	@long jump
 1099              	.LCB972:
 1100 0044 081C     		mov	r0, r1
 1101 0046 111C     		mov	r1, r2
 1102 0048 021C     		mov	r2, r0
 1103              	.LVL94:
 1104              	.L42:
 216:.\LED_Matrix.c ****     swap(x0, x1);
 217:.\LED_Matrix.c ****     swap(y0, y1);
 218:.\LED_Matrix.c ****   }
 219:.\LED_Matrix.c **** 
 220:.\LED_Matrix.c ****   int8 dx, dy;
 221:.\LED_Matrix.c ****   dx = x1 - x0;
 1105              		.loc 1 221 0
ARM GAS  C:\Users\Steve\AppData\Local\Temp\ccd4Iqkr.s 			page 27


 1106 004a 3E1B     		sub	r6, r7, r4
 222:.\LED_Matrix.c ****   dy = abs(y1 - y0);
 1107              		.loc 1 222 0
 1108 004c 8A1A     		sub	r2, r1, r2
 221:.\LED_Matrix.c ****   dx = x1 - x0;
 1109              		.loc 1 221 0
 1110 004e F0B2     		uxtb	r0, r6
 1111              		.loc 1 222 0
 1112 0050 D117     		asr	r1, r2, #31
 1113 0052 5218     		add	r2, r2, r1
 221:.\LED_Matrix.c ****   dx = x1 - x0;
 1114              		.loc 1 221 0
 1115 0054 8346     		mov	fp, r0
 1116              	.LVL95:
 223:.\LED_Matrix.c **** 
 224:.\LED_Matrix.c ****   int8 err = dx / 2;
 1117              		.loc 1 224 0
 1118 0056 40B2     		sxtb	r0, r0
 222:.\LED_Matrix.c ****   dy = abs(y1 - y0);
 1119              		.loc 1 222 0
 1120 0058 4A40     		eor	r2, r1
 1121              	.LVL96:
 1122              		.loc 1 224 0
 1123 005a C10F     		lsr	r1, r0, #31
 1124 005c 0E18     		add	r6, r1, r0
 1125              	.LVL97:
 1126 005e 7010     		asr	r0, r6, #1
 225:.\LED_Matrix.c ****   int8 ystep;
 226:.\LED_Matrix.c **** 
 227:.\LED_Matrix.c ****   if (y0 < y1) {
 228:.\LED_Matrix.c ****     ystep = 1;
 229:.\LED_Matrix.c ****   } else {
 230:.\LED_Matrix.c ****     ystep = -1;
 1127              		.loc 1 230 0
 1128 0060 FF21     		mov	r1, #255
 224:.\LED_Matrix.c ****   int8 err = dx / 2;
 1129              		.loc 1 224 0
 1130 0062 C6B2     		uxtb	r6, r0
 1131              	.LVL98:
 1132              		.loc 1 230 0
 1133 0064 0091     		str	r1, [sp]
 227:.\LED_Matrix.c ****   if (y0 < y1) {
 1134              		.loc 1 227 0
 1135 0066 9D42     		cmp	r5, r3
 1136 0068 01DA     		bge	.L43
 228:.\LED_Matrix.c ****     ystep = 1;
 1137              		.loc 1 228 0
 1138 006a 0123     		mov	r3, #1
 1139              	.LVL99:
 1140 006c 0093     		str	r3, [sp]
 1141              	.L43:
 1142              	.LVL100:
 231:.\LED_Matrix.c ****   }
 232:.\LED_Matrix.c **** 
 233:.\LED_Matrix.c ****   for (; x0<=x1; x0++) {
 1143              		.loc 1 233 0 discriminator 1
 1144 006e BC42     		cmp	r4, r7
ARM GAS  C:\Users\Steve\AppData\Local\Temp\ccd4Iqkr.s 			page 28


 1145 0070 00DD     		ble	.LCB1016
 1146 0072 8AE0     		b	.L39	@long jump
 1147              	.LCB1016:
 1148 0074 381B     		sub	r0, r7, r4
 1149 0076 0121     		mov	r1, #1
 1150 0078 D2B2     		uxtb	r2, r2
 1151              	.LVL101:
 1152 007a 0140     		and	r1, r0
 234:.\LED_Matrix.c ****     if (steep) {
 1153              		.loc 1 234 0
 1154 007c 4B46     		mov	r3, r9
 1155 007e 9246     		mov	sl, r2
 1156 0080 0191     		str	r1, [sp, #4]
 1157 0082 002B     		cmp	r3, #0
 1158 0084 00D0     		beq	.LCB1027
 1159 0086 93E0     		b	.L76	@long jump
 1160              	.LCB1027:
 235:.\LED_Matrix.c ****       drawPixel(y0, x0, c, matrix);
 236:.\LED_Matrix.c ****     } else {
 237:.\LED_Matrix.c ****       drawPixel(x0, y0, c, matrix);
 1161              		.loc 1 237 0
 1162 0088 E0B2     		uxtb	r0, r4
 1163 008a E9B2     		uxtb	r1, r5
 1164 008c 0C9A     		ldr	r2, [sp, #48]
 1165 008e 4346     		mov	r3, r8
 1166 0090 FFF7FEFF 		bl	drawPixel
 1167              	.LVL102:
 238:.\LED_Matrix.c ****     }
 239:.\LED_Matrix.c ****     err -= dy;
 1168              		.loc 1 239 0
 1169 0094 5246     		mov	r2, sl
 1170 0096 B61A     		sub	r6, r6, r2
 1171              	.LVL103:
 1172 0098 F0B2     		uxtb	r0, r6
 1173 009a C6B2     		uxtb	r6, r0
 240:.\LED_Matrix.c ****     if (err < 0) {
 1174              		.loc 1 240 0
 1175 009c 71B2     		sxtb	r1, r6
 1176 009e 0029     		cmp	r1, #0
 1177 00a0 00DA     		bge	.LCB1042
 1178 00a2 93E0     		b	.L77	@long jump
 1179              	.LCB1042:
 1180              	.LVL104:
 1181              	.L56:
 233:.\LED_Matrix.c ****   for (; x0<=x1; x0++) {
 1182              		.loc 1 233 0
 1183 00a4 0134     		add	r4, r4, #1
 1184              	.LVL105:
 1185 00a6 64B2     		sxtb	r4, r4
 1186              	.LVL106:
 1187 00a8 A742     		cmp	r7, r4
 1188 00aa 6EDB     		blt	.L39
 1189 00ac 019A     		ldr	r2, [sp, #4]
 1190 00ae 002A     		cmp	r2, #0
 1191 00b0 15D0     		beq	.L75
 234:.\LED_Matrix.c ****     if (steep) {
 1192              		.loc 1 234 0
ARM GAS  C:\Users\Steve\AppData\Local\Temp\ccd4Iqkr.s 			page 29


 1193 00b2 4846     		mov	r0, r9
 1194 00b4 0028     		cmp	r0, #0
 1195 00b6 00D0     		beq	.LCB1062
 1196 00b8 8EE0     		b	.L71	@long jump
 1197              	.LCB1062:
 237:.\LED_Matrix.c ****       drawPixel(x0, y0, c, matrix);
 1198              		.loc 1 237 0
 1199 00ba E9B2     		uxtb	r1, r5
 1200 00bc 0C9A     		ldr	r2, [sp, #48]
 1201 00be 4346     		mov	r3, r8
 1202 00c0 E0B2     		uxtb	r0, r4
 1203 00c2 FFF7FEFF 		bl	drawPixel
 1204              	.LVL107:
 239:.\LED_Matrix.c ****     err -= dy;
 1205              		.loc 1 239 0
 1206 00c6 5146     		mov	r1, sl
 1207 00c8 761A     		sub	r6, r6, r1
 1208 00ca F3B2     		uxtb	r3, r6
 1209 00cc DEB2     		uxtb	r6, r3
 1210              		.loc 1 240 0
 1211 00ce 72B2     		sxtb	r2, r6
 1212 00d0 002A     		cmp	r2, #0
 1213 00d2 00DA     		bge	.LCB1075
 1214 00d4 8EE0     		b	.L78	@long jump
 1215              	.LCB1075:
 1216              	.LVL108:
 1217              	.L59:
 233:.\LED_Matrix.c ****   for (; x0<=x1; x0++) {
 1218              		.loc 1 233 0
 1219 00d6 0134     		add	r4, r4, #1
 1220 00d8 64B2     		sxtb	r4, r4
 1221 00da A742     		cmp	r7, r4
 1222 00dc 55DB     		blt	.L39
 1223              	.LVL109:
 1224              	.L75:
 1225 00de 391C     		mov	r1, r7
 1226 00e0 4F46     		mov	r7, r9
 1227              	.LVL110:
 1228 00e2 8946     		mov	r9, r1
 1229 00e4 21E0     		b	.L48
 1230              	.LVL111:
 1231              	.L81:
 235:.\LED_Matrix.c ****       drawPixel(y0, x0, c, matrix);
 1232              		.loc 1 235 0
 1233 00e6 E1B2     		uxtb	r1, r4
 1234 00e8 0C9A     		ldr	r2, [sp, #48]
 1235 00ea 4346     		mov	r3, r8
 1236 00ec E8B2     		uxtb	r0, r5
 1237 00ee FFF7FEFF 		bl	drawPixel
 1238              	.LVL112:
 239:.\LED_Matrix.c ****     err -= dy;
 1239              		.loc 1 239 0
 1240 00f2 5346     		mov	r3, sl
 1241 00f4 F61A     		sub	r6, r6, r3
 1242 00f6 F1B2     		uxtb	r1, r6
 1243 00f8 CEB2     		uxtb	r6, r1
 1244              		.loc 1 240 0
ARM GAS  C:\Users\Steve\AppData\Local\Temp\ccd4Iqkr.s 			page 30


 1245 00fa 72B2     		sxtb	r2, r6
 1246 00fc 002A     		cmp	r2, #0
 1247 00fe 23DB     		blt	.L79
 1248              	.L47:
 1249              	.LVL113:
 233:.\LED_Matrix.c ****   for (; x0<=x1; x0++) {
 1250              		.loc 1 233 0
 1251 0100 0134     		add	r4, r4, #1
 1252 0102 64B2     		sxtb	r4, r4
 234:.\LED_Matrix.c ****     if (steep) {
 1253              		.loc 1 234 0
 1254 0104 002F     		cmp	r7, #0
 1255 0106 29D0     		beq	.L62
 1256              	.LVL114:
 1257              	.L82:
 235:.\LED_Matrix.c ****       drawPixel(y0, x0, c, matrix);
 1258              		.loc 1 235 0
 1259 0108 E8B2     		uxtb	r0, r5
 1260 010a E1B2     		uxtb	r1, r4
 1261 010c 0C9A     		ldr	r2, [sp, #48]
 1262 010e 4346     		mov	r3, r8
 1263 0110 FFF7FEFF 		bl	drawPixel
 1264              	.LVL115:
 239:.\LED_Matrix.c ****     err -= dy;
 1265              		.loc 1 239 0
 1266 0114 5146     		mov	r1, sl
 1267 0116 721A     		sub	r2, r6, r1
 1268 0118 D3B2     		uxtb	r3, r2
 1269 011a DEB2     		uxtb	r6, r3
 1270              		.loc 1 240 0
 1271 011c 70B2     		sxtb	r0, r6
 1272 011e 0028     		cmp	r0, #0
 1273 0120 29DB     		blt	.L80
 1274              	.L63:
 1275              	.LVL116:
 233:.\LED_Matrix.c ****   for (; x0<=x1; x0++) {
 1276              		.loc 1 233 0
 1277 0122 0134     		add	r4, r4, #1
 1278 0124 64B2     		sxtb	r4, r4
 1279 0126 A145     		cmp	r9, r4
 1280 0128 2FDB     		blt	.L39
 1281              	.LVL117:
 1282              	.L48:
 234:.\LED_Matrix.c ****     if (steep) {
 1283              		.loc 1 234 0
 1284 012a 002F     		cmp	r7, #0
 1285 012c DBD1     		bne	.L81
 237:.\LED_Matrix.c ****       drawPixel(x0, y0, c, matrix);
 1286              		.loc 1 237 0
 1287 012e E9B2     		uxtb	r1, r5
 1288 0130 0C9A     		ldr	r2, [sp, #48]
 1289 0132 4346     		mov	r3, r8
 1290 0134 E0B2     		uxtb	r0, r4
 1291 0136 FFF7FEFF 		bl	drawPixel
 1292              	.LVL118:
 239:.\LED_Matrix.c ****     err -= dy;
 1293              		.loc 1 239 0
ARM GAS  C:\Users\Steve\AppData\Local\Temp\ccd4Iqkr.s 			page 31


 1294 013a 5346     		mov	r3, sl
 1295 013c F61A     		sub	r6, r6, r3
 1296 013e F1B2     		uxtb	r1, r6
 1297 0140 CEB2     		uxtb	r6, r1
 1298              		.loc 1 240 0
 1299 0142 72B2     		sxtb	r2, r6
 1300 0144 002A     		cmp	r2, #0
 1301 0146 DBDA     		bge	.L47
 1302              	.L79:
 241:.\LED_Matrix.c ****       y0 += ystep;
 1303              		.loc 1 241 0
 1304 0148 0098     		ldr	r0, [sp]
 242:.\LED_Matrix.c ****       err += dx;
 1305              		.loc 1 242 0
 1306 014a 5B46     		mov	r3, fp
 241:.\LED_Matrix.c ****       y0 += ystep;
 1307              		.loc 1 241 0
 1308 014c 2D18     		add	r5, r5, r0
 1309              		.loc 1 242 0
 1310 014e CE18     		add	r6, r1, r3
 233:.\LED_Matrix.c ****   for (; x0<=x1; x0++) {
 1311              		.loc 1 233 0
 1312 0150 0134     		add	r4, r4, #1
 241:.\LED_Matrix.c ****       y0 += ystep;
 1313              		.loc 1 241 0
 1314 0152 6DB2     		sxtb	r5, r5
 1315              	.LVL119:
 1316              		.loc 1 242 0
 1317 0154 F6B2     		uxtb	r6, r6
 233:.\LED_Matrix.c ****   for (; x0<=x1; x0++) {
 1318              		.loc 1 233 0
 1319 0156 64B2     		sxtb	r4, r4
 234:.\LED_Matrix.c ****     if (steep) {
 1320              		.loc 1 234 0
 1321 0158 002F     		cmp	r7, #0
 1322 015a D5D1     		bne	.L82
 1323              	.LVL120:
 1324              	.L62:
 237:.\LED_Matrix.c ****       drawPixel(x0, y0, c, matrix);
 1325              		.loc 1 237 0
 1326 015c E0B2     		uxtb	r0, r4
 1327 015e E9B2     		uxtb	r1, r5
 1328 0160 0C9A     		ldr	r2, [sp, #48]
 1329 0162 4346     		mov	r3, r8
 1330 0164 FFF7FEFF 		bl	drawPixel
 1331              	.LVL121:
 239:.\LED_Matrix.c ****     err -= dy;
 1332              		.loc 1 239 0
 1333 0168 5146     		mov	r1, sl
 1334 016a 721A     		sub	r2, r6, r1
 1335 016c D3B2     		uxtb	r3, r2
 1336 016e DEB2     		uxtb	r6, r3
 240:.\LED_Matrix.c ****     if (err < 0) {
 1337              		.loc 1 240 0
 1338 0170 70B2     		sxtb	r0, r6
 1339 0172 0028     		cmp	r0, #0
 1340 0174 D5DA     		bge	.L63
ARM GAS  C:\Users\Steve\AppData\Local\Temp\ccd4Iqkr.s 			page 32


 1341              	.L80:
 241:.\LED_Matrix.c ****       y0 += ystep;
 1342              		.loc 1 241 0
 1343 0176 009E     		ldr	r6, [sp]
 1344              		.loc 1 242 0
 1345 0178 5946     		mov	r1, fp
 233:.\LED_Matrix.c ****   for (; x0<=x1; x0++) {
 1346              		.loc 1 233 0
 1347 017a 0134     		add	r4, r4, #1
 241:.\LED_Matrix.c ****       y0 += ystep;
 1348              		.loc 1 241 0
 1349 017c AD19     		add	r5, r5, r6
 1350              		.loc 1 242 0
 1351 017e 5A18     		add	r2, r3, r1
 233:.\LED_Matrix.c ****   for (; x0<=x1; x0++) {
 1352              		.loc 1 233 0
 1353 0180 64B2     		sxtb	r4, r4
 241:.\LED_Matrix.c ****       y0 += ystep;
 1354              		.loc 1 241 0
 1355 0182 6DB2     		sxtb	r5, r5
 1356              	.LVL122:
 1357              		.loc 1 242 0
 1358 0184 D6B2     		uxtb	r6, r2
 233:.\LED_Matrix.c ****   for (; x0<=x1; x0++) {
 1359              		.loc 1 233 0
 1360 0186 A145     		cmp	r9, r4
 1361 0188 CFDA     		bge	.L48
 1362              	.LVL123:
 1363              	.L39:
 243:.\LED_Matrix.c ****     }
 244:.\LED_Matrix.c ****   }
 245:.\LED_Matrix.c **** }
 1364              		.loc 1 245 0
 1365 018a 03B0     		add	sp, sp, #12
 1366              		@ sp needed for prologue
 1367              	.LVL124:
 1368 018c 3CBC     		pop	{r2, r3, r4, r5}
 1369 018e 9046     		mov	r8, r2
 1370 0190 9946     		mov	r9, r3
 1371 0192 A246     		mov	sl, r4
 1372 0194 AB46     		mov	fp, r5
 1373 0196 F0BD     		pop	{r4, r5, r6, r7, pc}
 1374              	.LVL125:
 1375              	.L51:
 215:.\LED_Matrix.c ****   if (x0 > x1) {
 1376              		.loc 1 215 0
 1377 0198 2E1C     		mov	r6, r5
 1378 019a 201C     		mov	r0, r4
 217:.\LED_Matrix.c ****     swap(y0, y1);
 1379              		.loc 1 217 0
 1380 019c 1D1C     		mov	r5, r3
 1381              	.LVL126:
 215:.\LED_Matrix.c ****   if (x0 > x1) {
 1382              		.loc 1 215 0
 1383 019e 3C1C     		mov	r4, r7
 1384              	.LVL127:
 217:.\LED_Matrix.c ****     swap(y0, y1);
ARM GAS  C:\Users\Steve\AppData\Local\Temp\ccd4Iqkr.s 			page 33


 1385              		.loc 1 217 0
 1386 01a0 331C     		mov	r3, r6
 1387              	.LVL128:
 215:.\LED_Matrix.c ****   if (x0 > x1) {
 1388              		.loc 1 215 0
 1389 01a2 071C     		mov	r7, r0
 1390              	.LVL129:
 1391 01a4 51E7     		b	.L42
 1392              	.LVL130:
 1393              	.L67:
 1394 01a6 0021     		mov	r1, #0
 1395 01a8 8946     		mov	r9, r1
 210:.\LED_Matrix.c ****   if (steep) {
 1396              		.loc 1 210 0
 1397 01aa 1A1C     		mov	r2, r3
 1398              	.LVL131:
 1399 01ac 291C     		mov	r1, r5
 1400 01ae 46E7     		b	.L41
 1401              	.LVL132:
 1402              	.L76:
 235:.\LED_Matrix.c ****       drawPixel(y0, x0, c, matrix);
 1403              		.loc 1 235 0
 1404 01b0 E8B2     		uxtb	r0, r5
 1405 01b2 E1B2     		uxtb	r1, r4
 1406 01b4 0C9A     		ldr	r2, [sp, #48]
 1407 01b6 4346     		mov	r3, r8
 1408 01b8 FFF7FEFF 		bl	drawPixel
 1409              	.LVL133:
 239:.\LED_Matrix.c ****     err -= dy;
 1410              		.loc 1 239 0
 1411 01bc 5246     		mov	r2, sl
 1412 01be B61A     		sub	r6, r6, r2
 1413              	.LVL134:
 1414 01c0 F0B2     		uxtb	r0, r6
 1415 01c2 C6B2     		uxtb	r6, r0
 240:.\LED_Matrix.c ****     if (err < 0) {
 1416              		.loc 1 240 0
 1417 01c4 71B2     		sxtb	r1, r6
 1418 01c6 0029     		cmp	r1, #0
 1419 01c8 00DB     		blt	.LCB1279
 1420 01ca 6BE7     		b	.L56	@long jump
 1421              	.LCB1279:
 1422              	.LVL135:
 1423              	.L77:
 241:.\LED_Matrix.c ****       y0 += ystep;
 1424              		.loc 1 241 0
 1425 01cc 009B     		ldr	r3, [sp]
 242:.\LED_Matrix.c ****       err += dx;
 1426              		.loc 1 242 0
 1427 01ce 5844     		add	r0, r0, fp
 241:.\LED_Matrix.c ****       y0 += ystep;
 1428              		.loc 1 241 0
 1429 01d0 ED18     		add	r5, r5, r3
 1430              	.LVL136:
 1431 01d2 6DB2     		sxtb	r5, r5
 1432              	.LVL137:
 242:.\LED_Matrix.c ****       err += dx;
ARM GAS  C:\Users\Steve\AppData\Local\Temp\ccd4Iqkr.s 			page 34


 1433              		.loc 1 242 0
 1434 01d4 C6B2     		uxtb	r6, r0
 1435 01d6 65E7     		b	.L56
 1436              	.LVL138:
 1437              	.L71:
 235:.\LED_Matrix.c ****       drawPixel(y0, x0, c, matrix);
 1438              		.loc 1 235 0
 1439 01d8 E1B2     		uxtb	r1, r4
 1440 01da 0C9A     		ldr	r2, [sp, #48]
 1441 01dc 4346     		mov	r3, r8
 1442 01de E8B2     		uxtb	r0, r5
 1443 01e0 FFF7FEFF 		bl	drawPixel
 1444              	.LVL139:
 239:.\LED_Matrix.c ****     err -= dy;
 1445              		.loc 1 239 0
 1446 01e4 5146     		mov	r1, sl
 1447 01e6 761A     		sub	r6, r6, r1
 1448 01e8 F3B2     		uxtb	r3, r6
 1449 01ea DEB2     		uxtb	r6, r3
 240:.\LED_Matrix.c ****     if (err < 0) {
 1450              		.loc 1 240 0
 1451 01ec 72B2     		sxtb	r2, r6
 1452 01ee 002A     		cmp	r2, #0
 1453 01f0 00DB     		blt	.LCB1310
 1454 01f2 70E7     		b	.L59	@long jump
 1455              	.LCB1310:
 1456              	.L78:
 241:.\LED_Matrix.c ****       y0 += ystep;
 1457              		.loc 1 241 0
 1458 01f4 0098     		ldr	r0, [sp]
 242:.\LED_Matrix.c ****       err += dx;
 1459              		.loc 1 242 0
 1460 01f6 5B44     		add	r3, r3, fp
 241:.\LED_Matrix.c ****       y0 += ystep;
 1461              		.loc 1 241 0
 1462 01f8 2D18     		add	r5, r5, r0
 1463              	.LVL140:
 1464 01fa 6DB2     		sxtb	r5, r5
 1465              	.LVL141:
 242:.\LED_Matrix.c ****       err += dx;
 1466              		.loc 1 242 0
 1467 01fc DEB2     		uxtb	r6, r3
 1468 01fe 6AE7     		b	.L59
 1469              		.cfi_endproc
 1470              	.LFE38:
 1471              		.size	drawLine, .-drawLine
 1472              		.section	.text.drawFastVLine,"ax",%progbits
 1473              		.align	2
 1474              		.global	drawFastVLine
 1475              		.code	16
 1476              		.thumb_func
 1477              		.type	drawFastVLine, %function
 1478              	drawFastVLine:
 1479              	.LFB39:
 246:.\LED_Matrix.c **** 
 247:.\LED_Matrix.c **** void drawFastVLine(int8 x, int8 y, int8 h, RGB c, color *matrix) 
 248:.\LED_Matrix.c **** {
ARM GAS  C:\Users\Steve\AppData\Local\Temp\ccd4Iqkr.s 			page 35


 1480              		.loc 1 248 0
 1481              		.cfi_startproc
 1482              	.LVL142:
 1483 0000 70B5     		push	{r4, r5, r6, lr}
 1484              	.LCFI13:
 1485              		.cfi_def_cfa_offset 16
 1486              		.cfi_offset 4, -16
 1487              		.cfi_offset 5, -12
 1488              		.cfi_offset 6, -8
 1489              		.cfi_offset 14, -4
 1490 0002 1D1C     		add	r5, r3, #0
 1491 0004 84B0     		sub	sp, sp, #16
 1492              	.LCFI14:
 1493              		.cfi_def_cfa_offset 32
 1494              		.loc 1 248 0
 1495 0006 1E0C     		lsr	r6, r3, #16
 249:.\LED_Matrix.c ****   // Update in subclasses if desired!
 250:.\LED_Matrix.c ****   drawLine(x, y, x, y+h-1, c, matrix);
 1496              		.loc 1 250 0
 1497 0008 4B1E     		sub	r3, r1, #1
 248:.\LED_Matrix.c **** {
 1498              		.loc 1 248 0
 1499 000a 041C     		mov	r4, r0
 1500              		.loc 1 250 0
 1501 000c 9818     		add	r0, r3, r2
 1502              	.LVL143:
 1503 000e 6A46     		mov	r2, sp
 1504              	.LVL144:
 1505 0010 9670     		strb	r6, [r2, #2]
 1506 0012 1580     		strh	r5, [r2]
 1507 0014 089D     		ldr	r5, [sp, #32]
 1508 0016 43B2     		sxtb	r3, r0
 1509 0018 0195     		str	r5, [sp, #4]
 1510 001a 201C     		mov	r0, r4
 1511 001c 221C     		mov	r2, r4
 1512 001e FFF7FEFF 		bl	drawLine
 1513              	.LVL145:
 251:.\LED_Matrix.c **** }
 1514              		.loc 1 251 0
 1515 0022 04B0     		add	sp, sp, #16
 1516              		@ sp needed for prologue
 1517 0024 70BD     		pop	{r4, r5, r6, pc}
 1518              		.cfi_endproc
 1519              	.LFE39:
 1520              		.size	drawFastVLine, .-drawFastVLine
 1521 0026 C046     		.section	.text.drawFastHLine,"ax",%progbits
 1522              		.align	2
 1523              		.global	drawFastHLine
 1524              		.code	16
 1525              		.thumb_func
 1526              		.type	drawFastHLine, %function
 1527              	drawFastHLine:
 1528              	.LFB40:
 252:.\LED_Matrix.c **** 
 253:.\LED_Matrix.c **** void drawFastHLine(int8 x, int8 y, int8 w, RGB c, color *matrix) 
 254:.\LED_Matrix.c **** {
 1529              		.loc 1 254 0
ARM GAS  C:\Users\Steve\AppData\Local\Temp\ccd4Iqkr.s 			page 36


 1530              		.cfi_startproc
 1531              	.LVL146:
 1532 0000 30B5     		push	{r4, r5, lr}
 1533              	.LCFI15:
 1534              		.cfi_def_cfa_offset 12
 1535              		.cfi_offset 4, -12
 1536              		.cfi_offset 5, -8
 1537              		.cfi_offset 14, -4
 1538 0002 0C1C     		mov	r4, r1
 1539 0004 85B0     		sub	sp, sp, #20
 1540              	.LCFI16:
 1541              		.cfi_def_cfa_offset 32
 255:.\LED_Matrix.c ****   // Update in subclasses if desired!
 256:.\LED_Matrix.c ****   drawLine(x, y, x+w-1, y, c, matrix);
 1542              		.loc 1 256 0
 1543 0006 411E     		sub	r1, r0, #1
 1544              	.LVL147:
 254:.\LED_Matrix.c **** {
 1545              		.loc 1 254 0
 1546 0008 1D1C     		add	r5, r3, #0
 1547              		.loc 1 256 0
 1548 000a 8A18     		add	r2, r1, r2
 1549              	.LVL148:
 254:.\LED_Matrix.c **** {
 1550              		.loc 1 254 0
 1551 000c 1B0C     		lsr	r3, r3, #16
 1552              		.loc 1 256 0
 1553 000e 6946     		mov	r1, sp
 1554 0010 8B70     		strb	r3, [r1, #2]
 1555 0012 0D80     		strh	r5, [r1]
 1556 0014 089D     		ldr	r5, [sp, #32]
 1557 0016 52B2     		sxtb	r2, r2
 1558 0018 0195     		str	r5, [sp, #4]
 1559 001a 211C     		mov	r1, r4
 1560 001c 231C     		mov	r3, r4
 1561 001e FFF7FEFF 		bl	drawLine
 1562              	.LVL149:
 257:.\LED_Matrix.c **** }
 1563              		.loc 1 257 0
 1564 0022 05B0     		add	sp, sp, #20
 1565              		@ sp needed for prologue
 1566 0024 30BD     		pop	{r4, r5, pc}
 1567              		.cfi_endproc
 1568              	.LFE40:
 1569              		.size	drawFastHLine, .-drawFastHLine
 1570 0026 C046     		.text
 1571              	.Letext0:
 1572              		.file 2 "./Generated_Source/PSoC4/cytypes.h"
 1573              		.file 3 "./LED_Matrix.h"