ARM GAS  C:\Users\Computer\AppData\Local\Temp\cc1tHs0g.s 			page 1


   1              		.cpu cortex-m0
   2              		.fpu softvfp
   3              		.eabi_attribute 20, 1
   4              		.eabi_attribute 21, 1
   5              		.eabi_attribute 23, 3
   6              		.eabi_attribute 24, 1
   7              		.eabi_attribute 25, 1
   8              		.eabi_attribute 26, 1
   9              		.eabi_attribute 30, 2
  10              		.eabi_attribute 34, 0
  11              		.eabi_attribute 18, 4
  12              		.code	16
  13              		.file	"LED_Matrix.c"
  14              		.text
  15              	.Ltext0:
  16              		.cfi_sections	.debug_frame
  17              		.section	.text.clearPixel,"ax",%progbits
  18              		.align	2
  19              		.global	clearPixel
  20              		.code	16
  21              		.thumb_func
  22              		.type	clearPixel, %function
  23              	clearPixel:
  24              	.LFB34:
  25              		.file 1 ".\\LED_Matrix.c"
   1:.\LED_Matrix.c **** /* ========================================
   2:.\LED_Matrix.c ****  *
   3:.\LED_Matrix.c ****  * The following firmware was developed by Cypress Semiconductor
   4:.\LED_Matrix.c ****  * This work is licensed under a Creative Commons Attribution 3.0 Unported License.
   5:.\LED_Matrix.c ****  * 
   6:.\LED_Matrix.c ****  * http://creativecommons.org/licenses/by/3.0/deed.en_US
   7:.\LED_Matrix.c ****  * 
   8:.\LED_Matrix.c ****  * You are free to:
   9:.\LED_Matrix.c ****  * -To Share — to copy, distribute and transmit the work 
  10:.\LED_Matrix.c ****  * -To Remix — to adapt the work 
  11:.\LED_Matrix.c ****  * -To make commercial use of the work
  12:.\LED_Matrix.c ****  *
  13:.\LED_Matrix.c ****  * ========================================
  14:.\LED_Matrix.c ****  */
  15:.\LED_Matrix.c ****  
  16:.\LED_Matrix.c **** /*******************************************************************************
  17:.\LED_Matrix.c ****  * C File For LED Matrix Component/Project
  18:.\LED_Matrix.c ****  ********************************************************************************/
  19:.\LED_Matrix.c ****  
  20:.\LED_Matrix.c **** #include <device.h>
  21:.\LED_Matrix.c **** #include <LED_Matrix.h>
  22:.\LED_Matrix.c **** #include <stdlib.h>
  23:.\LED_Matrix.c **** 
  24:.\LED_Matrix.c **** 
  25:.\LED_Matrix.c **** 
  26:.\LED_Matrix.c **** 
  27:.\LED_Matrix.c **** /*******************************************************************************
  28:.\LED_Matrix.c **** * Function Name: DrawPixel
  29:.\LED_Matrix.c **** ********************************************************************************
  30:.\LED_Matrix.c **** *
  31:.\LED_Matrix.c **** * Summary:
  32:.\LED_Matrix.c **** *  This function writes to the (x,y) coordinate of the 'matrix' buffer in RAM
ARM GAS  C:\Users\Computer\AppData\Local\Temp\cc1tHs0g.s 			page 2


  33:.\LED_Matrix.c **** *
  34:.\LED_Matrix.c **** * Parameters:  
  35:.\LED_Matrix.c **** *   uint8 x: 		betn 0 and 31
  36:.\LED_Matrix.c **** *	uint8 y: 		betn 0 and 15
  37:.\LED_Matrix.c **** *	RGB c:			5-bit color to be written to the pixel 
  38:.\LED_Matrix.c **** * 	color *matrix: 	pointer to the matrix buffer
  39:.\LED_Matrix.c **** *
  40:.\LED_Matrix.c **** * Return:
  41:.\LED_Matrix.c **** *   None
  42:.\LED_Matrix.c **** *
  43:.\LED_Matrix.c **** *******************************************************************************/
  44:.\LED_Matrix.c **** void drawPixel(int8 x, int8 y, RGB c, color *matrix)
  45:.\LED_Matrix.c **** {
  46:.\LED_Matrix.c **** 	/* pre-calculate some values to index the matrix 
  47:.\LED_Matrix.c **** 	 * Note that the translation has been done here to
  48:.\LED_Matrix.c **** 	 * leave the ISR clean
  49:.\LED_Matrix.c **** 	 */
  50:.\LED_Matrix.c **** 	int8 i = 0, index;
  51:.\LED_Matrix.c **** 	
  52:.\LED_Matrix.c **** 	/* index indexes the elements of 'matrix' 
  53:.\LED_Matrix.c **** 	 * 'matrix' consists of 64 'color' structs, 4 elements per row
  54:.\LED_Matrix.c **** 	 * The formula for index thus is index = y*4 + x/8
  55:.\LED_Matrix.c **** 	 */
  56:.\LED_Matrix.c **** 	int8 scratch1 = y*4;
  57:.\LED_Matrix.c **** 	
  58:.\LED_Matrix.c **** 	/* The x-coordinate is broken up into 2 parts:
  59:.\LED_Matrix.c **** 	* 1. Which of the 4 FIFO bytes need to be written (scratch2)
  60:.\LED_Matrix.c **** 	* 2. Which bit of that byte needs to be written (bit_pos)
  61:.\LED_Matrix.c **** 	*/
  62:.\LED_Matrix.c **** 	int8 scratch2 = (int8)(x/8);
  63:.\LED_Matrix.c **** 	int8 bit_pos = (int8)x%8;
  64:.\LED_Matrix.c **** 	
  65:.\LED_Matrix.c **** 	index = scratch1 + scratch2;
  66:.\LED_Matrix.c **** 	
  67:.\LED_Matrix.c **** 	clearPixel(x, y, matrix);
  68:.\LED_Matrix.c **** 	
  69:.\LED_Matrix.c **** 	for(i = 0; i < 5 ; i++)
  70:.\LED_Matrix.c **** 	{
  71:.\LED_Matrix.c **** 		matrix[index].r[i] |= (int8)((int8)((c.r & (0x01 << i)) && 1)<<(bit_pos));
  72:.\LED_Matrix.c **** 		matrix[index].g[i] |= (int8)((int8)((c.g & (0x01 << i)) && 1)<<(bit_pos));
  73:.\LED_Matrix.c **** 		matrix[index].b[i] |= (int8)((int8)((c.b & (0x01 << i)) && 1)<<(bit_pos));
  74:.\LED_Matrix.c **** 	}
  75:.\LED_Matrix.c **** }
  76:.\LED_Matrix.c **** 
  77:.\LED_Matrix.c **** /*******************************************************************************
  78:.\LED_Matrix.c **** * Function Name: ClearPixel
  79:.\LED_Matrix.c **** ********************************************************************************
  80:.\LED_Matrix.c **** *
  81:.\LED_Matrix.c **** * Summary:
  82:.\LED_Matrix.c **** *  This function clears the (x,y) pixel of the matrix buffer
  83:.\LED_Matrix.c **** *
  84:.\LED_Matrix.c **** * Parameters:  
  85:.\LED_Matrix.c **** *   uint8 x: 		betn 0 and 31
  86:.\LED_Matrix.c **** *	uint8 y: 		betn 0 and 15
  87:.\LED_Matrix.c **** * 	color *matrix: 	pointer to the matrix buffer
  88:.\LED_Matrix.c **** *
  89:.\LED_Matrix.c **** * Return:
ARM GAS  C:\Users\Computer\AppData\Local\Temp\cc1tHs0g.s 			page 3


  90:.\LED_Matrix.c **** *   None
  91:.\LED_Matrix.c **** *
  92:.\LED_Matrix.c **** *******************************************************************************/
  93:.\LED_Matrix.c **** void clearPixel(uint8 x, uint8 y, color *matrix)
  94:.\LED_Matrix.c **** {
  26              		.loc 1 94 0
  27              		.cfi_startproc
  28              	.LVL0:
  29 0000 10B5     		push	{r4, lr}
  30              	.LCFI0:
  31              		.cfi_def_cfa_offset 8
  32              		.cfi_offset 4, -8
  33              		.cfi_offset 14, -4
  95:.\LED_Matrix.c **** 	uint8 i, index;
  96:.\LED_Matrix.c **** 	uint8 scratch1 = y*4;
  34              		.loc 1 96 0
  35 0002 8B00     		lsl	r3, r1, #2
  97:.\LED_Matrix.c **** 	uint8 scratch2 = (uint8)(x/8);
  36              		.loc 1 97 0
  37 0004 C408     		lsr	r4, r0, #3
  98:.\LED_Matrix.c **** 	uint8 bit_pos = (uint8)x%8;
  99:.\LED_Matrix.c **** 	
 100:.\LED_Matrix.c **** 	index = scratch1 + scratch2;
  38              		.loc 1 100 0
  39 0006 1919     		add	r1, r3, r4
  40              	.LVL1:
  41 0008 CBB2     		uxtb	r3, r1
  42 000a 1C01     		lsl	r4, r3, #4
  43 000c E11A     		sub	r1, r4, r3
  44 000e 0723     		mov	r3, #7
  45 0010 1840     		and	r0, r3
  46              	.LVL2:
  47 0012 0124     		mov	r4, #1
  48 0014 8440     		lsl	r4, r4, r0
  49 0016 5218     		add	r2, r2, r1
  50              	.LVL3:
  51 0018 E143     		mvn	r1, r4
  52 001a CCB2     		uxtb	r4, r1
 101:.\LED_Matrix.c **** 	
 102:.\LED_Matrix.c **** 	for(i = 0; i < 5 ; i++)
 103:.\LED_Matrix.c **** 	{
 104:.\LED_Matrix.c **** 		matrix[index].r[i] &= ~(uint8)(0x01<<(bit_pos));
  53              		.loc 1 104 0
  54 001c 1378     		ldrb	r3, [r2]
 105:.\LED_Matrix.c **** 		matrix[index].g[i] &= ~(uint8)(0x01<<(bit_pos));
  55              		.loc 1 105 0
  56 001e 5079     		ldrb	r0, [r2, #5]
 106:.\LED_Matrix.c **** 		matrix[index].b[i] &= ~(uint8)(0x01<<(bit_pos));
  57              		.loc 1 106 0
  58 0020 917A     		ldrb	r1, [r2, #10]
 104:.\LED_Matrix.c **** 		matrix[index].r[i] &= ~(uint8)(0x01<<(bit_pos));
  59              		.loc 1 104 0
  60 0022 2340     		and	r3, r4
 105:.\LED_Matrix.c **** 		matrix[index].g[i] &= ~(uint8)(0x01<<(bit_pos));
  61              		.loc 1 105 0
  62 0024 2040     		and	r0, r4
  63              		.loc 1 106 0
ARM GAS  C:\Users\Computer\AppData\Local\Temp\cc1tHs0g.s 			page 4


  64 0026 2140     		and	r1, r4
 104:.\LED_Matrix.c **** 		matrix[index].r[i] &= ~(uint8)(0x01<<(bit_pos));
  65              		.loc 1 104 0
  66 0028 1370     		strb	r3, [r2]
 105:.\LED_Matrix.c **** 		matrix[index].g[i] &= ~(uint8)(0x01<<(bit_pos));
  67              		.loc 1 105 0
  68 002a 5071     		strb	r0, [r2, #5]
 104:.\LED_Matrix.c **** 		matrix[index].r[i] &= ~(uint8)(0x01<<(bit_pos));
  69              		.loc 1 104 0
  70 002c 5378     		ldrb	r3, [r2, #1]
 105:.\LED_Matrix.c **** 		matrix[index].g[i] &= ~(uint8)(0x01<<(bit_pos));
  71              		.loc 1 105 0
  72 002e 9079     		ldrb	r0, [r2, #6]
  73              		.loc 1 106 0
  74 0030 9172     		strb	r1, [r2, #10]
  75              	.LVL4:
  76 0032 D17A     		ldrb	r1, [r2, #11]
 104:.\LED_Matrix.c **** 		matrix[index].r[i] &= ~(uint8)(0x01<<(bit_pos));
  77              		.loc 1 104 0
  78 0034 2340     		and	r3, r4
 105:.\LED_Matrix.c **** 		matrix[index].g[i] &= ~(uint8)(0x01<<(bit_pos));
  79              		.loc 1 105 0
  80 0036 2040     		and	r0, r4
  81              		.loc 1 106 0
  82 0038 2140     		and	r1, r4
 104:.\LED_Matrix.c **** 		matrix[index].r[i] &= ~(uint8)(0x01<<(bit_pos));
  83              		.loc 1 104 0
  84 003a 5370     		strb	r3, [r2, #1]
 105:.\LED_Matrix.c **** 		matrix[index].g[i] &= ~(uint8)(0x01<<(bit_pos));
  85              		.loc 1 105 0
  86 003c 9071     		strb	r0, [r2, #6]
 104:.\LED_Matrix.c **** 		matrix[index].r[i] &= ~(uint8)(0x01<<(bit_pos));
  87              		.loc 1 104 0
  88 003e 9378     		ldrb	r3, [r2, #2]
 105:.\LED_Matrix.c **** 		matrix[index].g[i] &= ~(uint8)(0x01<<(bit_pos));
  89              		.loc 1 105 0
  90 0040 D079     		ldrb	r0, [r2, #7]
  91              		.loc 1 106 0
  92 0042 D172     		strb	r1, [r2, #11]
  93              	.LVL5:
  94 0044 117B     		ldrb	r1, [r2, #12]
 104:.\LED_Matrix.c **** 		matrix[index].r[i] &= ~(uint8)(0x01<<(bit_pos));
  95              		.loc 1 104 0
  96 0046 2340     		and	r3, r4
 105:.\LED_Matrix.c **** 		matrix[index].g[i] &= ~(uint8)(0x01<<(bit_pos));
  97              		.loc 1 105 0
  98 0048 2040     		and	r0, r4
  99              		.loc 1 106 0
 100 004a 2140     		and	r1, r4
 104:.\LED_Matrix.c **** 		matrix[index].r[i] &= ~(uint8)(0x01<<(bit_pos));
 101              		.loc 1 104 0
 102 004c 9370     		strb	r3, [r2, #2]
 105:.\LED_Matrix.c **** 		matrix[index].g[i] &= ~(uint8)(0x01<<(bit_pos));
 103              		.loc 1 105 0
 104 004e D071     		strb	r0, [r2, #7]
 104:.\LED_Matrix.c **** 		matrix[index].r[i] &= ~(uint8)(0x01<<(bit_pos));
 105              		.loc 1 104 0
ARM GAS  C:\Users\Computer\AppData\Local\Temp\cc1tHs0g.s 			page 5


 106 0050 D378     		ldrb	r3, [r2, #3]
 105:.\LED_Matrix.c **** 		matrix[index].g[i] &= ~(uint8)(0x01<<(bit_pos));
 107              		.loc 1 105 0
 108 0052 107A     		ldrb	r0, [r2, #8]
 109              		.loc 1 106 0
 110 0054 1173     		strb	r1, [r2, #12]
 111              	.LVL6:
 112 0056 517B     		ldrb	r1, [r2, #13]
 104:.\LED_Matrix.c **** 		matrix[index].r[i] &= ~(uint8)(0x01<<(bit_pos));
 113              		.loc 1 104 0
 114 0058 2340     		and	r3, r4
 105:.\LED_Matrix.c **** 		matrix[index].g[i] &= ~(uint8)(0x01<<(bit_pos));
 115              		.loc 1 105 0
 116 005a 2040     		and	r0, r4
 117              		.loc 1 106 0
 118 005c 2140     		and	r1, r4
 104:.\LED_Matrix.c **** 		matrix[index].r[i] &= ~(uint8)(0x01<<(bit_pos));
 119              		.loc 1 104 0
 120 005e D370     		strb	r3, [r2, #3]
 105:.\LED_Matrix.c **** 		matrix[index].g[i] &= ~(uint8)(0x01<<(bit_pos));
 121              		.loc 1 105 0
 122 0060 1072     		strb	r0, [r2, #8]
 104:.\LED_Matrix.c **** 		matrix[index].r[i] &= ~(uint8)(0x01<<(bit_pos));
 123              		.loc 1 104 0
 124 0062 1379     		ldrb	r3, [r2, #4]
 105:.\LED_Matrix.c **** 		matrix[index].g[i] &= ~(uint8)(0x01<<(bit_pos));
 125              		.loc 1 105 0
 126 0064 507A     		ldrb	r0, [r2, #9]
 127              		.loc 1 106 0
 128 0066 5173     		strb	r1, [r2, #13]
 129              	.LVL7:
 130 0068 917B     		ldrb	r1, [r2, #14]
 104:.\LED_Matrix.c **** 		matrix[index].r[i] &= ~(uint8)(0x01<<(bit_pos));
 131              		.loc 1 104 0
 132 006a 2340     		and	r3, r4
 105:.\LED_Matrix.c **** 		matrix[index].g[i] &= ~(uint8)(0x01<<(bit_pos));
 133              		.loc 1 105 0
 134 006c 2040     		and	r0, r4
 135              		.loc 1 106 0
 136 006e 0C40     		and	r4, r1
 104:.\LED_Matrix.c **** 		matrix[index].r[i] &= ~(uint8)(0x01<<(bit_pos));
 137              		.loc 1 104 0
 138 0070 1371     		strb	r3, [r2, #4]
 105:.\LED_Matrix.c **** 		matrix[index].g[i] &= ~(uint8)(0x01<<(bit_pos));
 139              		.loc 1 105 0
 140 0072 5072     		strb	r0, [r2, #9]
 141              		.loc 1 106 0
 142 0074 9473     		strb	r4, [r2, #14]
 143              	.LVL8:
 107:.\LED_Matrix.c **** 	}
 108:.\LED_Matrix.c **** }
 144              		.loc 1 108 0
 145              		@ sp needed for prologue
 146 0076 10BD     		pop	{r4, pc}
 147              		.cfi_endproc
 148              	.LFE34:
 149              		.size	clearPixel, .-clearPixel
ARM GAS  C:\Users\Computer\AppData\Local\Temp\cc1tHs0g.s 			page 6


 150              		.section	.text.drawPixel,"ax",%progbits
 151              		.align	2
 152              		.global	drawPixel
 153              		.code	16
 154              		.thumb_func
 155              		.type	drawPixel, %function
 156              	drawPixel:
 157              	.LFB33:
  45:.\LED_Matrix.c **** {
 158              		.loc 1 45 0
 159              		.cfi_startproc
 160              	.LVL9:
 161 0000 F0B5     		push	{r4, r5, r6, r7, lr}
 162              	.LCFI1:
 163              		.cfi_def_cfa_offset 20
 164              		.cfi_offset 4, -20
 165              		.cfi_offset 5, -16
 166              		.cfi_offset 6, -12
 167              		.cfi_offset 7, -8
 168              		.cfi_offset 14, -4
  56:.\LED_Matrix.c **** 	int8 scratch1 = y*4;
 169              		.loc 1 56 0
 170 0002 CFB2     		uxtb	r7, r1
 171              	.LVL10:
  45:.\LED_Matrix.c **** {
 172              		.loc 1 45 0
 173 0004 83B0     		sub	sp, sp, #12
 174              	.LCFI2:
 175              		.cfi_def_cfa_offset 32
  45:.\LED_Matrix.c **** {
 176              		.loc 1 45 0
 177 0006 041C     		mov	r4, r0
 178 0008 0192     		str	r2, [sp, #4]
  67:.\LED_Matrix.c **** 	clearPixel(x, y, matrix);
 179              		.loc 1 67 0
 180 000a 391C     		mov	r1, r7
 181              	.LVL11:
 182 000c 1A1C     		mov	r2, r3
 183 000e C0B2     		uxtb	r0, r0
 184              	.LVL12:
  45:.\LED_Matrix.c **** {
 185              		.loc 1 45 0
 186 0010 1E1C     		mov	r6, r3
  67:.\LED_Matrix.c **** 	clearPixel(x, y, matrix);
 187              		.loc 1 67 0
 188 0012 FFF7FEFF 		bl	clearPixel
 189              	.LVL13:
  62:.\LED_Matrix.c **** 	int8 scratch2 = (int8)(x/8);
 190              		.loc 1 62 0
 191 0016 E117     		asr	r1, r4, #31
 192 0018 490F     		lsr	r1, r1, #29
 193 001a 0C19     		add	r4, r1, r4
 194              	.LVL14:
  56:.\LED_Matrix.c **** 	int8 scratch1 = y*4;
 195              		.loc 1 56 0
 196 001c B800     		lsl	r0, r7, #2
  62:.\LED_Matrix.c **** 	int8 scratch2 = (int8)(x/8);
ARM GAS  C:\Users\Computer\AppData\Local\Temp\cc1tHs0g.s 			page 7


 197              		.loc 1 62 0
 198 001e E310     		asr	r3, r4, #3
  65:.\LED_Matrix.c **** 	index = scratch1 + scratch2;
 199              		.loc 1 65 0
 200 0020 C218     		add	r2, r0, r3
 201 0022 57B2     		sxtb	r7, r2
 202              	.LVL15:
  63:.\LED_Matrix.c **** 	int8 bit_pos = (int8)x%8;
 203              		.loc 1 63 0
 204 0024 0722     		mov	r2, #7
 205 0026 3801     		lsl	r0, r7, #4
 206 0028 1440     		and	r4, r2
  45:.\LED_Matrix.c **** {
 207              		.loc 1 45 0
 208 002a 01AD     		add	r5, sp, #4
 209 002c C31B     		sub	r3, r0, r7
  63:.\LED_Matrix.c **** 	int8 bit_pos = (int8)x%8;
 210              		.loc 1 63 0
 211 002e 611A     		sub	r1, r4, r1
 212 0030 F318     		add	r3, r6, r3
 213 0032 4AB2     		sxtb	r2, r1
 214 0034 2E78     		ldrb	r6, [r5]
 215              	.LVL16:
  71:.\LED_Matrix.c **** 		matrix[index].r[i] |= (int8)((int8)((c.r & (0x01 << i)) && 1)<<(bit_pos));
 216              		.loc 1 71 0
 217 0036 0121     		mov	r1, #1
 218 0038 6C78     		ldrb	r4, [r5, #1]
 219 003a A878     		ldrb	r0, [r5, #2]
 220 003c 0D1C     		mov	r5, r1
 221 003e 1F78     		ldrb	r7, [r3]
 222 0040 3540     		and	r5, r6
 223 0042 9540     		lsl	r5, r5, r2
 224 0044 3D43     		orr	r5, r7
 225 0046 1D70     		strb	r5, [r3]
  72:.\LED_Matrix.c **** 		matrix[index].g[i] |= (int8)((int8)((c.g & (0x01 << i)) && 1)<<(bit_pos));
 226              		.loc 1 72 0
 227 0048 0D1C     		mov	r5, r1
 228 004a 5F79     		ldrb	r7, [r3, #5]
 229 004c 2540     		and	r5, r4
 230 004e 9540     		lsl	r5, r5, r2
 231 0050 3D43     		orr	r5, r7
 232 0052 5D71     		strb	r5, [r3, #5]
  73:.\LED_Matrix.c **** 		matrix[index].b[i] |= (int8)((int8)((c.b & (0x01 << i)) && 1)<<(bit_pos));
 233              		.loc 1 73 0
 234 0054 0D1C     		mov	r5, r1
 235 0056 9F7A     		ldrb	r7, [r3, #10]
 236 0058 0540     		and	r5, r0
 237 005a 9540     		lsl	r5, r5, r2
 238 005c 3D43     		orr	r5, r7
 239 005e 9D72     		strb	r5, [r3, #10]
 240              	.LVL17:
  71:.\LED_Matrix.c **** 		matrix[index].r[i] |= (int8)((int8)((c.r & (0x01 << i)) && 1)<<(bit_pos));
 241              		.loc 1 71 0
 242 0060 7510     		asr	r5, r6, #1
 243 0062 5F78     		ldrb	r7, [r3, #1]
 244 0064 0D40     		and	r5, r1
 245 0066 9540     		lsl	r5, r5, r2
ARM GAS  C:\Users\Computer\AppData\Local\Temp\cc1tHs0g.s 			page 8


 246 0068 3D43     		orr	r5, r7
 247 006a 5D70     		strb	r5, [r3, #1]
  72:.\LED_Matrix.c **** 		matrix[index].g[i] |= (int8)((int8)((c.g & (0x01 << i)) && 1)<<(bit_pos));
 248              		.loc 1 72 0
 249 006c 6510     		asr	r5, r4, #1
 250 006e 9F79     		ldrb	r7, [r3, #6]
 251 0070 0D40     		and	r5, r1
 252 0072 9540     		lsl	r5, r5, r2
 253 0074 3D43     		orr	r5, r7
 254 0076 9D71     		strb	r5, [r3, #6]
  73:.\LED_Matrix.c **** 		matrix[index].b[i] |= (int8)((int8)((c.b & (0x01 << i)) && 1)<<(bit_pos));
 255              		.loc 1 73 0
 256 0078 4510     		asr	r5, r0, #1
 257 007a DF7A     		ldrb	r7, [r3, #11]
 258 007c 0D40     		and	r5, r1
 259 007e 9540     		lsl	r5, r5, r2
 260 0080 3D43     		orr	r5, r7
 261 0082 DD72     		strb	r5, [r3, #11]
 262              	.LVL18:
  71:.\LED_Matrix.c **** 		matrix[index].r[i] |= (int8)((int8)((c.r & (0x01 << i)) && 1)<<(bit_pos));
 263              		.loc 1 71 0
 264 0084 B510     		asr	r5, r6, #2
 265 0086 9F78     		ldrb	r7, [r3, #2]
 266 0088 0D40     		and	r5, r1
 267 008a 9540     		lsl	r5, r5, r2
 268 008c 3D43     		orr	r5, r7
 269 008e 9D70     		strb	r5, [r3, #2]
  72:.\LED_Matrix.c **** 		matrix[index].g[i] |= (int8)((int8)((c.g & (0x01 << i)) && 1)<<(bit_pos));
 270              		.loc 1 72 0
 271 0090 A510     		asr	r5, r4, #2
 272 0092 DF79     		ldrb	r7, [r3, #7]
 273 0094 0D40     		and	r5, r1
 274 0096 9540     		lsl	r5, r5, r2
 275 0098 3D43     		orr	r5, r7
 276 009a DD71     		strb	r5, [r3, #7]
  73:.\LED_Matrix.c **** 		matrix[index].b[i] |= (int8)((int8)((c.b & (0x01 << i)) && 1)<<(bit_pos));
 277              		.loc 1 73 0
 278 009c 8510     		asr	r5, r0, #2
 279 009e 1F7B     		ldrb	r7, [r3, #12]
 280 00a0 0D40     		and	r5, r1
 281 00a2 9540     		lsl	r5, r5, r2
 282 00a4 3D43     		orr	r5, r7
 283 00a6 1D73     		strb	r5, [r3, #12]
 284              	.LVL19:
  71:.\LED_Matrix.c **** 		matrix[index].r[i] |= (int8)((int8)((c.r & (0x01 << i)) && 1)<<(bit_pos));
 285              		.loc 1 71 0
 286 00a8 F510     		asr	r5, r6, #3
 287 00aa DF78     		ldrb	r7, [r3, #3]
 288 00ac 0D40     		and	r5, r1
 289 00ae 9540     		lsl	r5, r5, r2
 290 00b0 3D43     		orr	r5, r7
 291 00b2 DD70     		strb	r5, [r3, #3]
  72:.\LED_Matrix.c **** 		matrix[index].g[i] |= (int8)((int8)((c.g & (0x01 << i)) && 1)<<(bit_pos));
 292              		.loc 1 72 0
 293 00b4 E510     		asr	r5, r4, #3
 294 00b6 1F7A     		ldrb	r7, [r3, #8]
 295 00b8 0D40     		and	r5, r1
ARM GAS  C:\Users\Computer\AppData\Local\Temp\cc1tHs0g.s 			page 9


 296 00ba 9540     		lsl	r5, r5, r2
 297 00bc 3D43     		orr	r5, r7
 298 00be 1D72     		strb	r5, [r3, #8]
  73:.\LED_Matrix.c **** 		matrix[index].b[i] |= (int8)((int8)((c.b & (0x01 << i)) && 1)<<(bit_pos));
 299              		.loc 1 73 0
 300 00c0 C510     		asr	r5, r0, #3
 301 00c2 5F7B     		ldrb	r7, [r3, #13]
 302 00c4 0D40     		and	r5, r1
 303 00c6 0011     		asr	r0, r0, #4
  71:.\LED_Matrix.c **** 		matrix[index].r[i] |= (int8)((int8)((c.r & (0x01 << i)) && 1)<<(bit_pos));
 304              		.loc 1 71 0
 305 00c8 3611     		asr	r6, r6, #4
  72:.\LED_Matrix.c **** 		matrix[index].g[i] |= (int8)((int8)((c.g & (0x01 << i)) && 1)<<(bit_pos));
 306              		.loc 1 72 0
 307 00ca 2411     		asr	r4, r4, #4
  73:.\LED_Matrix.c **** 		matrix[index].b[i] |= (int8)((int8)((c.b & (0x01 << i)) && 1)<<(bit_pos));
 308              		.loc 1 73 0
 309 00cc 9540     		lsl	r5, r5, r2
  71:.\LED_Matrix.c **** 		matrix[index].r[i] |= (int8)((int8)((c.r & (0x01 << i)) && 1)<<(bit_pos));
 310              		.loc 1 71 0
 311 00ce 0E40     		and	r6, r1
  72:.\LED_Matrix.c **** 		matrix[index].g[i] |= (int8)((int8)((c.g & (0x01 << i)) && 1)<<(bit_pos));
 312              		.loc 1 72 0
 313 00d0 0C40     		and	r4, r1
  73:.\LED_Matrix.c **** 		matrix[index].b[i] |= (int8)((int8)((c.b & (0x01 << i)) && 1)<<(bit_pos));
 314              		.loc 1 73 0
 315 00d2 0140     		and	r1, r0
 316 00d4 3D43     		orr	r5, r7
 317 00d6 9140     		lsl	r1, r1, r2
  72:.\LED_Matrix.c **** 		matrix[index].g[i] |= (int8)((int8)((c.g & (0x01 << i)) && 1)<<(bit_pos));
 318              		.loc 1 72 0
 319 00d8 5F7A     		ldrb	r7, [r3, #9]
  73:.\LED_Matrix.c **** 		matrix[index].b[i] |= (int8)((int8)((c.b & (0x01 << i)) && 1)<<(bit_pos));
 320              		.loc 1 73 0
 321 00da 5D73     		strb	r5, [r3, #13]
 322              	.LVL20:
  71:.\LED_Matrix.c **** 		matrix[index].r[i] |= (int8)((int8)((c.r & (0x01 << i)) && 1)<<(bit_pos));
 323              		.loc 1 71 0
 324 00dc 9640     		lsl	r6, r6, r2
 325 00de 1D79     		ldrb	r5, [r3, #4]
  72:.\LED_Matrix.c **** 		matrix[index].g[i] |= (int8)((int8)((c.g & (0x01 << i)) && 1)<<(bit_pos));
 326              		.loc 1 72 0
 327 00e0 9440     		lsl	r4, r4, r2
  73:.\LED_Matrix.c **** 		matrix[index].b[i] |= (int8)((int8)((c.b & (0x01 << i)) && 1)<<(bit_pos));
 328              		.loc 1 73 0
 329 00e2 0A1C     		mov	r2, r1
 330 00e4 997B     		ldrb	r1, [r3, #14]
  71:.\LED_Matrix.c **** 		matrix[index].r[i] |= (int8)((int8)((c.r & (0x01 << i)) && 1)<<(bit_pos));
 331              		.loc 1 71 0
 332 00e6 2E43     		orr	r6, r5
  72:.\LED_Matrix.c **** 		matrix[index].g[i] |= (int8)((int8)((c.g & (0x01 << i)) && 1)<<(bit_pos));
 333              		.loc 1 72 0
 334 00e8 3C43     		orr	r4, r7
  73:.\LED_Matrix.c **** 		matrix[index].b[i] |= (int8)((int8)((c.b & (0x01 << i)) && 1)<<(bit_pos));
 335              		.loc 1 73 0
 336 00ea 0A43     		orr	r2, r1
  71:.\LED_Matrix.c **** 		matrix[index].r[i] |= (int8)((int8)((c.r & (0x01 << i)) && 1)<<(bit_pos));
ARM GAS  C:\Users\Computer\AppData\Local\Temp\cc1tHs0g.s 			page 10


 337              		.loc 1 71 0
 338 00ec 1E71     		strb	r6, [r3, #4]
  72:.\LED_Matrix.c **** 		matrix[index].g[i] |= (int8)((int8)((c.g & (0x01 << i)) && 1)<<(bit_pos));
 339              		.loc 1 72 0
 340 00ee 5C72     		strb	r4, [r3, #9]
  73:.\LED_Matrix.c **** 		matrix[index].b[i] |= (int8)((int8)((c.b & (0x01 << i)) && 1)<<(bit_pos));
 341              		.loc 1 73 0
 342 00f0 9A73     		strb	r2, [r3, #14]
 343              	.LVL21:
  75:.\LED_Matrix.c **** }
 344              		.loc 1 75 0
 345 00f2 03B0     		add	sp, sp, #12
 346              		@ sp needed for prologue
 347 00f4 F0BD     		pop	{r4, r5, r6, r7, pc}
 348              		.cfi_endproc
 349              	.LFE33:
 350              		.size	drawPixel, .-drawPixel
 351 00f6 C046     		.section	.text.clearScreen,"ax",%progbits
 352              		.align	2
 353              		.global	clearScreen
 354              		.code	16
 355              		.thumb_func
 356              		.type	clearScreen, %function
 357              	clearScreen:
 358              	.LFB35:
 109:.\LED_Matrix.c **** 
 110:.\LED_Matrix.c **** /*******************************************************************************
 111:.\LED_Matrix.c **** * Function Name: ClearScreen
 112:.\LED_Matrix.c **** ********************************************************************************
 113:.\LED_Matrix.c **** *
 114:.\LED_Matrix.c **** * Summary:
 115:.\LED_Matrix.c **** *  This function clears the 'matrix' buffer in RAM
 116:.\LED_Matrix.c **** *
 117:.\LED_Matrix.c **** * Parameters:  
 118:.\LED_Matrix.c **** * 	color *matrix: 	pointer to the matrix buffer
 119:.\LED_Matrix.c **** *
 120:.\LED_Matrix.c **** * Return:
 121:.\LED_Matrix.c **** *   None
 122:.\LED_Matrix.c **** *
 123:.\LED_Matrix.c **** *******************************************************************************/
 124:.\LED_Matrix.c **** void clearScreen(color *matrix)
 125:.\LED_Matrix.c **** {
 359              		.loc 1 125 0
 360              		.cfi_startproc
 361              	.LVL22:
 362 0000 00B5     		push	{lr}
 363              	.LCFI3:
 364              		.cfi_def_cfa_offset 4
 365              		.cfi_offset 14, -4
 124:.\LED_Matrix.c **** void clearScreen(color *matrix)
 366              		.loc 1 124 0
 367 0002 4021     		mov	r1, #64
 126:.\LED_Matrix.c **** 	uint8 x, index;
 127:.\LED_Matrix.c **** 	
 128:.\LED_Matrix.c **** 	for(index = 0; index < 64; index++)
 129:.\LED_Matrix.c **** 	{
 130:.\LED_Matrix.c **** 		for(x = 0; x < 5 ; x++)
ARM GAS  C:\Users\Computer\AppData\Local\Temp\cc1tHs0g.s 			page 11


 131:.\LED_Matrix.c **** 		{
 132:.\LED_Matrix.c **** 			matrix[index].r[x] = 0x00;
 368              		.loc 1 132 0
 369 0004 0023     		mov	r3, #0
 370              	.LVL23:
 371              	.L4:
 372 0006 0239     		sub	r1, r1, #2
 373 0008 C9B2     		uxtb	r1, r1
 374              		.loc 1 132 0 is_stmt 0 discriminator 1
 375 000a 0370     		strb	r3, [r0]
 133:.\LED_Matrix.c **** 			matrix[index].g[x] = 0x00;
 376              		.loc 1 133 0 is_stmt 1 discriminator 1
 377 000c 4371     		strb	r3, [r0, #5]
 134:.\LED_Matrix.c **** 			matrix[index].b[x] = 0x00;
 378              		.loc 1 134 0 discriminator 1
 379 000e 8372     		strb	r3, [r0, #10]
 380              	.LVL24:
 132:.\LED_Matrix.c **** 			matrix[index].r[x] = 0x00;
 381              		.loc 1 132 0 discriminator 1
 382 0010 4370     		strb	r3, [r0, #1]
 133:.\LED_Matrix.c **** 			matrix[index].g[x] = 0x00;
 383              		.loc 1 133 0 discriminator 1
 384 0012 8371     		strb	r3, [r0, #6]
 385              		.loc 1 134 0 discriminator 1
 386 0014 C372     		strb	r3, [r0, #11]
 387              	.LVL25:
 132:.\LED_Matrix.c **** 			matrix[index].r[x] = 0x00;
 388              		.loc 1 132 0 discriminator 1
 389 0016 8370     		strb	r3, [r0, #2]
 133:.\LED_Matrix.c **** 			matrix[index].g[x] = 0x00;
 390              		.loc 1 133 0 discriminator 1
 391 0018 C371     		strb	r3, [r0, #7]
 392              		.loc 1 134 0 discriminator 1
 393 001a 0373     		strb	r3, [r0, #12]
 394              	.LVL26:
 132:.\LED_Matrix.c **** 			matrix[index].r[x] = 0x00;
 395              		.loc 1 132 0 discriminator 1
 396 001c C370     		strb	r3, [r0, #3]
 133:.\LED_Matrix.c **** 			matrix[index].g[x] = 0x00;
 397              		.loc 1 133 0 discriminator 1
 398 001e 0372     		strb	r3, [r0, #8]
 399              		.loc 1 134 0 discriminator 1
 400 0020 4373     		strb	r3, [r0, #13]
 401              	.LVL27:
 132:.\LED_Matrix.c **** 			matrix[index].r[x] = 0x00;
 402              		.loc 1 132 0 discriminator 1
 403 0022 0371     		strb	r3, [r0, #4]
 133:.\LED_Matrix.c **** 			matrix[index].g[x] = 0x00;
 404              		.loc 1 133 0 discriminator 1
 405 0024 4372     		strb	r3, [r0, #9]
 406              		.loc 1 134 0 discriminator 1
 407 0026 8373     		strb	r3, [r0, #14]
 408              	.LVL28:
 132:.\LED_Matrix.c **** 			matrix[index].r[x] = 0x00;
 409              		.loc 1 132 0 discriminator 1
 410 0028 C373     		strb	r3, [r0, #15]
 133:.\LED_Matrix.c **** 			matrix[index].g[x] = 0x00;
ARM GAS  C:\Users\Computer\AppData\Local\Temp\cc1tHs0g.s 			page 12


 411              		.loc 1 133 0 discriminator 1
 412 002a 0375     		strb	r3, [r0, #20]
 413              		.loc 1 134 0 discriminator 1
 414 002c 4376     		strb	r3, [r0, #25]
 415              	.LVL29:
 132:.\LED_Matrix.c **** 			matrix[index].r[x] = 0x00;
 416              		.loc 1 132 0 discriminator 1
 417 002e 0374     		strb	r3, [r0, #16]
 133:.\LED_Matrix.c **** 			matrix[index].g[x] = 0x00;
 418              		.loc 1 133 0 discriminator 1
 419 0030 4375     		strb	r3, [r0, #21]
 420              		.loc 1 134 0 discriminator 1
 421 0032 8376     		strb	r3, [r0, #26]
 422              	.LVL30:
 132:.\LED_Matrix.c **** 			matrix[index].r[x] = 0x00;
 423              		.loc 1 132 0 discriminator 1
 424 0034 4374     		strb	r3, [r0, #17]
 133:.\LED_Matrix.c **** 			matrix[index].g[x] = 0x00;
 425              		.loc 1 133 0 discriminator 1
 426 0036 8375     		strb	r3, [r0, #22]
 427              		.loc 1 134 0 discriminator 1
 428 0038 C376     		strb	r3, [r0, #27]
 429              	.LVL31:
 132:.\LED_Matrix.c **** 			matrix[index].r[x] = 0x00;
 430              		.loc 1 132 0 discriminator 1
 431 003a 8374     		strb	r3, [r0, #18]
 133:.\LED_Matrix.c **** 			matrix[index].g[x] = 0x00;
 432              		.loc 1 133 0 discriminator 1
 433 003c C375     		strb	r3, [r0, #23]
 434              		.loc 1 134 0 discriminator 1
 435 003e 0377     		strb	r3, [r0, #28]
 436              	.LVL32:
 132:.\LED_Matrix.c **** 			matrix[index].r[x] = 0x00;
 437              		.loc 1 132 0 discriminator 1
 438 0040 C374     		strb	r3, [r0, #19]
 133:.\LED_Matrix.c **** 			matrix[index].g[x] = 0x00;
 439              		.loc 1 133 0 discriminator 1
 440 0042 0376     		strb	r3, [r0, #24]
 441              		.loc 1 134 0 discriminator 1
 442 0044 4377     		strb	r3, [r0, #29]
 443              	.LVL33:
 444 0046 1E30     		add	r0, r0, #30
 128:.\LED_Matrix.c **** 	for(index = 0; index < 64; index++)
 445              		.loc 1 128 0 discriminator 1
 446 0048 0029     		cmp	r1, #0
 447 004a DCD1     		bne	.L4
 135:.\LED_Matrix.c **** 		}
 136:.\LED_Matrix.c **** 	}
 137:.\LED_Matrix.c **** }
 448              		.loc 1 137 0
 449              		@ sp needed for prologue
 450 004c 00BD     		pop	{pc}
 451              		.cfi_endproc
 452              	.LFE35:
 453              		.size	clearScreen, .-clearScreen
 454 004e C046     		.section	.text.drawCircle,"ax",%progbits
 455              		.align	2
ARM GAS  C:\Users\Computer\AppData\Local\Temp\cc1tHs0g.s 			page 13


 456              		.global	drawCircle
 457              		.code	16
 458              		.thumb_func
 459              		.type	drawCircle, %function
 460              	drawCircle:
 461              	.LFB36:
 138:.\LED_Matrix.c **** 
 139:.\LED_Matrix.c **** void drawCircle(int8 x0, int8 y0, int8 r,RGB c, color *matrix) {
 462              		.loc 1 139 0
 463              		.cfi_startproc
 464              	.LVL34:
 465 0000 F0B5     		push	{r4, r5, r6, r7, lr}
 466              	.LCFI4:
 467              		.cfi_def_cfa_offset 20
 468              		.cfi_offset 4, -20
 469              		.cfi_offset 5, -16
 470              		.cfi_offset 6, -12
 471              		.cfi_offset 7, -8
 472              		.cfi_offset 14, -4
 473 0002 5F46     		mov	r7, fp
 474 0004 5646     		mov	r6, sl
 475 0006 4D46     		mov	r5, r9
 476 0008 4446     		mov	r4, r8
 477 000a F0B4     		push	{r4, r5, r6, r7}
 478              	.LCFI5:
 479              		.cfi_def_cfa_offset 36
 480              		.cfi_offset 8, -36
 481              		.cfi_offset 9, -32
 482              		.cfi_offset 10, -28
 483              		.cfi_offset 11, -24
 484 000c 9046     		mov	r8, r2
 485 000e 0E1C     		mov	r6, r1
 140:.\LED_Matrix.c ****   int8 f = 1 - r;
 486              		.loc 1 140 0
 487 0010 4146     		mov	r1, r8
 488              	.LVL35:
 139:.\LED_Matrix.c **** void drawCircle(int8 x0, int8 y0, int8 r,RGB c, color *matrix) {
 489              		.loc 1 139 0
 490 0012 87B0     		sub	sp, sp, #28
 491              	.LCFI6:
 492              		.cfi_def_cfa_offset 64
 493              		.loc 1 140 0
 494 0014 CDB2     		uxtb	r5, r1
 139:.\LED_Matrix.c **** void drawCircle(int8 x0, int8 y0, int8 r,RGB c, color *matrix) {
 495              		.loc 1 139 0
 496 0016 1A1C     		mov	r2, r3
 497              	.LVL36:
 498 0018 0593     		str	r3, [sp, #20]
 499              		.loc 1 140 0
 500 001a 0127     		mov	r7, #1
 141:.\LED_Matrix.c ****   int8 ddF_x = 1;
 142:.\LED_Matrix.c ****   int8 ddF_y = -2 * r;
 501              		.loc 1 142 0
 502 001c EB01     		lsl	r3, r5, #7
 139:.\LED_Matrix.c **** void drawCircle(int8 x0, int8 y0, int8 r,RGB c, color *matrix) {
 503              		.loc 1 139 0
 504 001e 8146     		mov	r9, r0
ARM GAS  C:\Users\Computer\AppData\Local\Temp\cc1tHs0g.s 			page 14


 505              		.loc 1 142 0
 506 0020 591B     		sub	r1, r3, r5
 140:.\LED_Matrix.c ****   int8 f = 1 - r;
 507              		.loc 1 140 0
 508 0022 781B     		sub	r0, r7, r5
 509              	.LVL37:
 139:.\LED_Matrix.c **** void drawCircle(int8 x0, int8 y0, int8 r,RGB c, color *matrix) {
 510              		.loc 1 139 0
 511 0024 109C     		ldr	r4, [sp, #64]
 140:.\LED_Matrix.c ****   int8 f = 1 - r;
 512              		.loc 1 140 0
 513 0026 C7B2     		uxtb	r7, r0
 514              	.LVL38:
 515              		.loc 1 142 0
 516 0028 4800     		lsl	r0, r1, #1
 517              	.LVL39:
 143:.\LED_Matrix.c ****   int8 x = 0;
 144:.\LED_Matrix.c ****   int8 y = r;
 145:.\LED_Matrix.c **** 
 146:.\LED_Matrix.c ****   drawPixel(x0 , y0+r, c,matrix);
 518              		.loc 1 146 0
 519 002a F1B2     		uxtb	r1, r6
 142:.\LED_Matrix.c ****   int8 ddF_y = -2 * r;
 520              		.loc 1 142 0
 521 002c C3B2     		uxtb	r3, r0
 522              		.loc 1 146 0
 523 002e 6818     		add	r0, r5, r1
 142:.\LED_Matrix.c ****   int8 ddF_y = -2 * r;
 524              		.loc 1 142 0
 525 0030 0493     		str	r3, [sp, #16]
 526              	.LVL40:
 527              		.loc 1 146 0
 528 0032 8A46     		mov	sl, r1
 529 0034 231C     		mov	r3, r4
 530 0036 41B2     		sxtb	r1, r0
 531 0038 4846     		mov	r0, r9
 532 003a FFF7FEFF 		bl	drawPixel
 533              	.LVL41:
 147:.\LED_Matrix.c ****   drawPixel(x0 , y0-r, c,matrix);
 534              		.loc 1 147 0
 535 003e 5246     		mov	r2, sl
 536 0040 531B     		sub	r3, r2, r5
 537 0042 59B2     		sxtb	r1, r3
 538 0044 4846     		mov	r0, r9
 539 0046 059A     		ldr	r2, [sp, #20]
 540 0048 231C     		mov	r3, r4
 541 004a FFF7FEFF 		bl	drawPixel
 542              	.LVL42:
 148:.\LED_Matrix.c ****   drawPixel(x0+r, y0 , c,matrix);
 543              		.loc 1 148 0
 544 004e 4946     		mov	r1, r9
 545 0050 C8B2     		uxtb	r0, r1
 546 0052 2A18     		add	r2, r5, r0
 547 0054 311C     		mov	r1, r6
 548 0056 8346     		mov	fp, r0
 549 0058 231C     		mov	r3, r4
 550 005a 50B2     		sxtb	r0, r2
ARM GAS  C:\Users\Computer\AppData\Local\Temp\cc1tHs0g.s 			page 15


 551 005c 059A     		ldr	r2, [sp, #20]
 552 005e FFF7FEFF 		bl	drawPixel
 553              	.LVL43:
 149:.\LED_Matrix.c ****   drawPixel(x0-r, y0 , c,matrix);
 554              		.loc 1 149 0
 555 0062 5B46     		mov	r3, fp
 556 0064 5D1B     		sub	r5, r3, r5
 557 0066 311C     		mov	r1, r6
 558 0068 68B2     		sxtb	r0, r5
 559 006a 059A     		ldr	r2, [sp, #20]
 560 006c 231C     		mov	r3, r4
 150:.\LED_Matrix.c **** 
 151:.\LED_Matrix.c ****   while (x < y) 
 561              		.loc 1 151 0
 562 006e 4646     		mov	r6, r8
 149:.\LED_Matrix.c ****   drawPixel(x0-r, y0 , c,matrix);
 563              		.loc 1 149 0
 564 0070 FFF7FEFF 		bl	drawPixel
 565              	.LVL44:
 566              		.loc 1 151 0
 567 0074 002E     		cmp	r6, #0
 568 0076 6FDD     		ble	.L8
 569 0078 0196     		str	r6, [sp, #4]
 570 007a 0125     		mov	r5, #1
 571              	.LVL45:
 572              	.L9:
 152:.\LED_Matrix.c ****   {
 153:.\LED_Matrix.c ****     if (f >= 0) 
 573              		.loc 1 153 0
 574 007c 7AB2     		sxtb	r2, r7
 575 007e 002A     		cmp	r2, #0
 576 0080 0ADB     		blt	.L10
 154:.\LED_Matrix.c **** 	{
 155:.\LED_Matrix.c ****       y--;
 156:.\LED_Matrix.c ****       ddF_y += 2;
 577              		.loc 1 156 0
 578 0082 0499     		ldr	r1, [sp, #16]
 155:.\LED_Matrix.c ****       y--;
 579              		.loc 1 155 0
 580 0084 019B     		ldr	r3, [sp, #4]
 581              		.loc 1 156 0
 582 0086 0231     		add	r1, r1, #2
 583 0088 C8B2     		uxtb	r0, r1
 155:.\LED_Matrix.c ****       y--;
 584              		.loc 1 155 0
 585 008a 013B     		sub	r3, r3, #1
 586 008c DEB2     		uxtb	r6, r3
 587              		.loc 1 156 0
 588 008e C2B2     		uxtb	r2, r0
 157:.\LED_Matrix.c ****       f += ddF_y;
 589              		.loc 1 157 0
 590 0090 C719     		add	r7, r0, r7
 155:.\LED_Matrix.c ****       y--;
 591              		.loc 1 155 0
 592 0092 0196     		str	r6, [sp, #4]
 593              	.LVL46:
 156:.\LED_Matrix.c ****       ddF_y += 2;
ARM GAS  C:\Users\Computer\AppData\Local\Temp\cc1tHs0g.s 			page 16


 594              		.loc 1 156 0
 595 0094 0492     		str	r2, [sp, #16]
 596              		.loc 1 157 0
 597 0096 FFB2     		uxtb	r7, r7
 598              	.LVL47:
 599              	.L10:
 158:.\LED_Matrix.c ****     }
 159:.\LED_Matrix.c ****     x++;
 600              		.loc 1 159 0
 601 0098 EBB2     		uxtb	r3, r5
 139:.\LED_Matrix.c **** void drawCircle(int8 x0, int8 y0, int8 r,RGB c, color *matrix) {
 602              		.loc 1 139 0
 603 009a 6E00     		lsl	r6, r5, #1
 604              		.loc 1 159 0
 605 009c 0393     		str	r3, [sp, #12]
 606              	.LVL48:
 139:.\LED_Matrix.c **** void drawCircle(int8 x0, int8 y0, int8 r,RGB c, color *matrix) {
 607              		.loc 1 139 0
 608 009e 0136     		add	r6, r6, #1
 160:.\LED_Matrix.c ****     ddF_x += 2;
 161:.\LED_Matrix.c ****     f += ddF_x;
 162:.\LED_Matrix.c ****   
 163:.\LED_Matrix.c ****     drawPixel(x0 + x, y0 + y, c,matrix);
 609              		.loc 1 163 0
 610 00a0 6B46     		mov	r3, sp
 161:.\LED_Matrix.c ****     f += ddF_x;
 611              		.loc 1 161 0
 612 00a2 B919     		add	r1, r7, r6
 613              		.loc 1 163 0
 614 00a4 1E79     		ldrb	r6, [r3, #4]
 139:.\LED_Matrix.c **** void drawCircle(int8 x0, int8 y0, int8 r,RGB c, color *matrix) {
 615              		.loc 1 139 0
 616 00a6 5846     		mov	r0, fp
 161:.\LED_Matrix.c ****     f += ddF_x;
 617              		.loc 1 161 0
 618 00a8 CFB2     		uxtb	r7, r1
 619              	.LVL49:
 620              		.loc 1 163 0
 621 00aa 5146     		mov	r1, sl
 622              	.LVL50:
 139:.\LED_Matrix.c **** void drawCircle(int8 x0, int8 y0, int8 r,RGB c, color *matrix) {
 623              		.loc 1 139 0
 624 00ac 4219     		add	r2, r0, r5
 625              		.loc 1 163 0
 626 00ae 7018     		add	r0, r6, r1
 627 00b0 43B2     		sxtb	r3, r0
 628 00b2 52B2     		sxtb	r2, r2
 629 00b4 9846     		mov	r8, r3
 630 00b6 101C     		mov	r0, r2
 631 00b8 191C     		mov	r1, r3
 632 00ba 0292     		str	r2, [sp, #8]
 633 00bc 231C     		mov	r3, r4
 634 00be 059A     		ldr	r2, [sp, #20]
 635 00c0 FFF7FEFF 		bl	drawPixel
 636              	.LVL51:
 139:.\LED_Matrix.c **** void drawCircle(int8 x0, int8 y0, int8 r,RGB c, color *matrix) {
 637              		.loc 1 139 0
ARM GAS  C:\Users\Computer\AppData\Local\Temp\cc1tHs0g.s 			page 17


 638 00c4 5946     		mov	r1, fp
 639 00c6 481B     		sub	r0, r1, r5
 164:.\LED_Matrix.c ****     drawPixel(x0 - x, y0 + y, c,matrix);
 640              		.loc 1 164 0
 641 00c8 42B2     		sxtb	r2, r0
 642 00ca 9146     		mov	r9, r2
 643 00cc 101C     		mov	r0, r2
 644 00ce 4146     		mov	r1, r8
 645 00d0 059A     		ldr	r2, [sp, #20]
 646 00d2 231C     		mov	r3, r4
 647 00d4 FFF7FEFF 		bl	drawPixel
 648              	.LVL52:
 165:.\LED_Matrix.c ****     drawPixel(x0 + x, y0 - y, c,matrix);
 649              		.loc 1 165 0
 650 00d8 5346     		mov	r3, sl
 651 00da 991B     		sub	r1, r3, r6
 652 00dc 48B2     		sxtb	r0, r1
 653 00de 8046     		mov	r8, r0
 654 00e0 4146     		mov	r1, r8
 655 00e2 0298     		ldr	r0, [sp, #8]
 656 00e4 059A     		ldr	r2, [sp, #20]
 657 00e6 231C     		mov	r3, r4
 658 00e8 FFF7FEFF 		bl	drawPixel
 659              	.LVL53:
 166:.\LED_Matrix.c ****     drawPixel(x0 - x, y0 - y, c,matrix);
 660              		.loc 1 166 0
 661 00ec 4846     		mov	r0, r9
 662 00ee 4146     		mov	r1, r8
 663 00f0 059A     		ldr	r2, [sp, #20]
 664 00f2 231C     		mov	r3, r4
 665 00f4 FFF7FEFF 		bl	drawPixel
 666              	.LVL54:
 167:.\LED_Matrix.c ****     drawPixel(x0 + y, y0 + x, c,matrix);
 667              		.loc 1 167 0
 668 00f8 5A46     		mov	r2, fp
 139:.\LED_Matrix.c **** void drawCircle(int8 x0, int8 y0, int8 r,RGB c, color *matrix) {
 669              		.loc 1 139 0
 670 00fa 5346     		mov	r3, sl
 671 00fc 5919     		add	r1, r3, r5
 672              		.loc 1 167 0
 673 00fe B018     		add	r0, r6, r2
 674 0100 42B2     		sxtb	r2, r0
 675 0102 48B2     		sxtb	r0, r1
 676 0104 8146     		mov	r9, r0
 677 0106 4946     		mov	r1, r9
 678 0108 101C     		mov	r0, r2
 679 010a 9046     		mov	r8, r2
 680 010c 231C     		mov	r3, r4
 681 010e 059A     		ldr	r2, [sp, #20]
 682 0110 FFF7FEFF 		bl	drawPixel
 683              	.LVL55:
 168:.\LED_Matrix.c ****     drawPixel(x0 - y, y0 + x, c,matrix);
 684              		.loc 1 168 0
 685 0114 5B46     		mov	r3, fp
 686 0116 9E1B     		sub	r6, r3, r6
 687 0118 76B2     		sxtb	r6, r6
 688 011a 301C     		mov	r0, r6
ARM GAS  C:\Users\Computer\AppData\Local\Temp\cc1tHs0g.s 			page 18


 689 011c 4946     		mov	r1, r9
 690 011e 059A     		ldr	r2, [sp, #20]
 691 0120 231C     		mov	r3, r4
 692 0122 FFF7FEFF 		bl	drawPixel
 693              	.LVL56:
 139:.\LED_Matrix.c **** void drawCircle(int8 x0, int8 y0, int8 r,RGB c, color *matrix) {
 694              		.loc 1 139 0
 695 0126 5146     		mov	r1, sl
 696 0128 4A1B     		sub	r2, r1, r5
 169:.\LED_Matrix.c ****     drawPixel(x0 + y, y0 - x, c,matrix);
 697              		.loc 1 169 0
 698 012a 50B2     		sxtb	r0, r2
 699 012c 8146     		mov	r9, r0
 700 012e 4946     		mov	r1, r9
 701 0130 4046     		mov	r0, r8
 702 0132 059A     		ldr	r2, [sp, #20]
 703 0134 231C     		mov	r3, r4
 704 0136 FFF7FEFF 		bl	drawPixel
 705              	.LVL57:
 170:.\LED_Matrix.c ****     drawPixel(x0 - y, y0 - x, c,matrix);
 706              		.loc 1 170 0
 707 013a 301C     		mov	r0, r6
 708 013c 4946     		mov	r1, r9
 709 013e 059A     		ldr	r2, [sp, #20]
 710 0140 231C     		mov	r3, r4
 711 0142 FFF7FEFF 		bl	drawPixel
 712              	.LVL58:
 151:.\LED_Matrix.c ****   while (x < y) 
 713              		.loc 1 151 0
 714 0146 0426     		mov	r6, #4
 715 0148 6B46     		mov	r3, sp
 716 014a 0C21     		mov	r1, #12
 717 014c 9A57     		ldrsb	r2, [r3, r6]
 718 014e C856     		ldrsb	r0, [r1, r3]
 719 0150 0135     		add	r5, r5, #1
 720              	.LVL59:
 721 0152 EDB2     		uxtb	r5, r5
 722              	.LVL60:
 723 0154 8242     		cmp	r2, r0
 724 0156 91DC     		bgt	.L9
 725              	.LVL61:
 726              	.L8:
 171:.\LED_Matrix.c ****   }
 172:.\LED_Matrix.c **** 
 173:.\LED_Matrix.c **** }
 727              		.loc 1 173 0
 728 0158 07B0     		add	sp, sp, #28
 729              		@ sp needed for prologue
 730 015a 3CBC     		pop	{r2, r3, r4, r5}
 731 015c 9046     		mov	r8, r2
 732 015e 9946     		mov	r9, r3
 733 0160 A246     		mov	sl, r4
 734 0162 AB46     		mov	fp, r5
 735 0164 F0BD     		pop	{r4, r5, r6, r7, pc}
 736              		.cfi_endproc
 737              	.LFE36:
 738              		.size	drawCircle, .-drawCircle
ARM GAS  C:\Users\Computer\AppData\Local\Temp\cc1tHs0g.s 			page 19


 739 0166 C046     		.section	.text.drawCircleHelper,"ax",%progbits
 740              		.align	2
 741              		.global	drawCircleHelper
 742              		.code	16
 743              		.thumb_func
 744              		.type	drawCircleHelper, %function
 745              	drawCircleHelper:
 746              	.LFB37:
 174:.\LED_Matrix.c **** 
 175:.\LED_Matrix.c **** void drawCircleHelper( int8 x0, int8 y0,int8 r, int8 cornername, RGB c, color *matrix) {
 747              		.loc 1 175 0
 748              		.cfi_startproc
 749              	.LVL62:
 750 0000 F0B5     		push	{r4, r5, r6, r7, lr}
 751              	.LCFI7:
 752              		.cfi_def_cfa_offset 20
 753              		.cfi_offset 4, -20
 754              		.cfi_offset 5, -16
 755              		.cfi_offset 6, -12
 756              		.cfi_offset 7, -8
 757              		.cfi_offset 14, -4
 758 0002 5F46     		mov	r7, fp
 759 0004 5646     		mov	r6, sl
 760 0006 4D46     		mov	r5, r9
 761 0008 4446     		mov	r4, r8
 762 000a F0B4     		push	{r4, r5, r6, r7}
 763              	.LCFI8:
 764              		.cfi_def_cfa_offset 36
 765              		.cfi_offset 8, -36
 766              		.cfi_offset 9, -32
 767              		.cfi_offset 10, -28
 768              		.cfi_offset 11, -24
 176:.\LED_Matrix.c ****   int8 f = 1 - r;
 769              		.loc 1 176 0
 770 000c D4B2     		uxtb	r4, r2
 771 000e 0125     		mov	r5, #1
 772 0010 2E1B     		sub	r6, r5, r4
 773 0012 F5B2     		uxtb	r5, r6
 774              	.LVL63:
 177:.\LED_Matrix.c ****   int8 ddF_x = 1;
 178:.\LED_Matrix.c ****   int8 ddF_y = -2 * r;
 775              		.loc 1 178 0
 776 0014 E601     		lsl	r6, r4, #7
 777              	.LVL64:
 778 0016 341B     		sub	r4, r6, r4
 779 0018 6600     		lsl	r6, r4, #1
 175:.\LED_Matrix.c **** void drawCircleHelper( int8 x0, int8 y0,int8 r, int8 cornername, RGB c, color *matrix) {
 780              		.loc 1 175 0
 781 001a 87B0     		sub	sp, sp, #28
 782              	.LCFI9:
 783              		.cfi_def_cfa_offset 64
 784              		.loc 1 178 0
 785 001c F4B2     		uxtb	r4, r6
 175:.\LED_Matrix.c **** void drawCircleHelper( int8 x0, int8 y0,int8 r, int8 cornername, RGB c, color *matrix) {
 786              		.loc 1 175 0
 787 001e 119F     		ldr	r7, [sp, #68]
 788              		.loc 1 178 0
ARM GAS  C:\Users\Computer\AppData\Local\Temp\cc1tHs0g.s 			page 20


 789 0020 0194     		str	r4, [sp, #4]
 790              	.LVL65:
 179:.\LED_Matrix.c ****   int8 x = 0;
 180:.\LED_Matrix.c ****   int8 y = r;
 181:.\LED_Matrix.c **** 
 182:.\LED_Matrix.c ****   while (x<y) {
 791              		.loc 1 182 0
 792 0022 002A     		cmp	r2, #0
 793 0024 00DC     		bgt	.LCB668
 794 0026 9FE0     		b	.L14	@long jump
 795              	.LCB668:
 796 0028 0226     		mov	r6, #2
 797 002a 0824     		mov	r4, #8
 798 002c 1E40     		and	r6, r3
 799 002e 1C40     		and	r4, r3
 800 0030 0396     		str	r6, [sp, #12]
 801 0032 0294     		str	r4, [sp, #8]
 802 0034 0126     		mov	r6, #1
 803 0036 0424     		mov	r4, #4
 804 0038 1E40     		and	r6, r3
 805 003a 1C40     		and	r4, r3
 183:.\LED_Matrix.c ****     if (f >= 0) {
 184:.\LED_Matrix.c ****       y--;
 185:.\LED_Matrix.c ****       ddF_y += 2;
 186:.\LED_Matrix.c ****       f += ddF_y;
 187:.\LED_Matrix.c ****     }
 188:.\LED_Matrix.c ****     x++;
 189:.\LED_Matrix.c ****     ddF_x += 2;
 190:.\LED_Matrix.c ****     f += ddF_x;
 191:.\LED_Matrix.c ****     if (cornername & 0x4) {
 192:.\LED_Matrix.c ****       drawPixel(x0 + x, y0 + y, c, matrix);
 806              		.loc 1 192 0
 807 003c C0B2     		uxtb	r0, r0
 808 003e C9B2     		uxtb	r1, r1
 809 0040 0596     		str	r6, [sp, #20]
 810 0042 0494     		str	r4, [sp, #16]
 182:.\LED_Matrix.c ****   while (x<y) {
 811              		.loc 1 182 0
 812 0044 161C     		mov	r6, r2
 813 0046 0124     		mov	r4, #1
 814              		.loc 1 192 0
 815 0048 8146     		mov	r9, r0
 816 004a 8846     		mov	r8, r1
 817 004c 0FE0     		b	.L21
 818              	.LVL66:
 819              	.L17:
 193:.\LED_Matrix.c ****       drawPixel(x0 + y, y0 + x, c, matrix);
 194:.\LED_Matrix.c ****     }
 195:.\LED_Matrix.c ****     if (cornername & 0x2) {
 820              		.loc 1 195 0
 821 004e 0398     		ldr	r0, [sp, #12]
 822              	.LVL67:
 823 0050 0028     		cmp	r0, #0
 824 0052 39D1     		bne	.L36
 825              	.L18:
 196:.\LED_Matrix.c ****       drawPixel(x0 + x, y0 - y, c, matrix);
 197:.\LED_Matrix.c ****       drawPixel(x0 + y, y0 - x, c, matrix);
ARM GAS  C:\Users\Computer\AppData\Local\Temp\cc1tHs0g.s 			page 21


 198:.\LED_Matrix.c ****     }
 199:.\LED_Matrix.c ****     if (cornername & 0x8) {
 826              		.loc 1 199 0
 827 0054 0298     		ldr	r0, [sp, #8]
 828 0056 0028     		cmp	r0, #0
 829 0058 4FD1     		bne	.L37
 830              	.L19:
 200:.\LED_Matrix.c ****       drawPixel(x0 - y, y0 + x, c, matrix);
 201:.\LED_Matrix.c ****       drawPixel(x0 - x, y0 + y, c, matrix);
 202:.\LED_Matrix.c ****     }
 203:.\LED_Matrix.c ****     if (cornername & 0x1) {
 831              		.loc 1 203 0
 832 005a 0598     		ldr	r0, [sp, #20]
 833 005c 0028     		cmp	r0, #0
 834 005e 65D1     		bne	.L38
 835              	.L20:
 836              	.LVL68:
 182:.\LED_Matrix.c ****   while (x<y) {
 837              		.loc 1 182 0 discriminator 1
 838 0060 5146     		mov	r1, sl
 839 0062 0134     		add	r4, r4, #1
 840              	.LVL69:
 841 0064 70B2     		sxtb	r0, r6
 842 0066 4BB2     		sxtb	r3, r1
 843 0068 E4B2     		uxtb	r4, r4
 844              	.LVL70:
 845 006a 9842     		cmp	r0, r3
 846 006c 7CDD     		ble	.L14
 847              	.LVL71:
 848              	.L21:
 183:.\LED_Matrix.c ****     if (f >= 0) {
 849              		.loc 1 183 0
 850 006e 6BB2     		sxtb	r3, r5
 851 0070 002B     		cmp	r3, #0
 852 0072 08DB     		blt	.L16
 185:.\LED_Matrix.c ****       ddF_y += 2;
 853              		.loc 1 185 0
 854 0074 019A     		ldr	r2, [sp, #4]
 184:.\LED_Matrix.c ****       y--;
 855              		.loc 1 184 0
 856 0076 013E     		sub	r6, r6, #1
 185:.\LED_Matrix.c ****       ddF_y += 2;
 857              		.loc 1 185 0
 858 0078 0232     		add	r2, r2, #2
 859 007a D0B2     		uxtb	r0, r2
 860 007c C1B2     		uxtb	r1, r0
 186:.\LED_Matrix.c ****       f += ddF_y;
 861              		.loc 1 186 0
 862 007e 4519     		add	r5, r0, r5
 184:.\LED_Matrix.c ****       y--;
 863              		.loc 1 184 0
 864 0080 F6B2     		uxtb	r6, r6
 865              	.LVL72:
 185:.\LED_Matrix.c ****       ddF_y += 2;
 866              		.loc 1 185 0
 867 0082 0191     		str	r1, [sp, #4]
 186:.\LED_Matrix.c ****       f += ddF_y;
ARM GAS  C:\Users\Computer\AppData\Local\Temp\cc1tHs0g.s 			page 22


 868              		.loc 1 186 0
 869 0084 EDB2     		uxtb	r5, r5
 870              	.LVL73:
 871              	.L16:
 175:.\LED_Matrix.c **** void drawCircleHelper( int8 x0, int8 y0,int8 r, int8 cornername, RGB c, color *matrix) {
 872              		.loc 1 175 0
 873 0086 6200     		lsl	r2, r4, #1
 874 0088 0132     		add	r2, r2, #1
 191:.\LED_Matrix.c ****     if (cornername & 0x4) {
 875              		.loc 1 191 0
 876 008a 0499     		ldr	r1, [sp, #16]
 188:.\LED_Matrix.c ****     x++;
 877              		.loc 1 188 0
 878 008c E3B2     		uxtb	r3, r4
 190:.\LED_Matrix.c ****     f += ddF_x;
 879              		.loc 1 190 0
 880 008e A818     		add	r0, r5, r2
 188:.\LED_Matrix.c ****     x++;
 881              		.loc 1 188 0
 882 0090 9A46     		mov	sl, r3
 883              	.LVL74:
 190:.\LED_Matrix.c ****     f += ddF_x;
 884              		.loc 1 190 0
 885 0092 C5B2     		uxtb	r5, r0
 886              	.LVL75:
 191:.\LED_Matrix.c ****     if (cornername & 0x4) {
 887              		.loc 1 191 0
 888 0094 0029     		cmp	r1, #0
 889 0096 DAD0     		beq	.L17
 192:.\LED_Matrix.c ****       drawPixel(x0 + x, y0 + y, c, matrix);
 890              		.loc 1 192 0
 891 0098 F1B2     		uxtb	r1, r6
 175:.\LED_Matrix.c **** void drawCircleHelper( int8 x0, int8 y0,int8 r, int8 cornername, RGB c, color *matrix) {
 892              		.loc 1 175 0
 893 009a 4B46     		mov	r3, r9
 894 009c 1A19     		add	r2, r3, r4
 192:.\LED_Matrix.c ****       drawPixel(x0 + x, y0 + y, c, matrix);
 895              		.loc 1 192 0
 896 009e 8B46     		mov	fp, r1
 897 00a0 4144     		add	r1, r1, r8
 898 00a2 50B2     		sxtb	r0, r2
 899              	.LVL76:
 900 00a4 49B2     		sxtb	r1, r1
 901 00a6 109A     		ldr	r2, [sp, #64]
 902 00a8 3B1C     		mov	r3, r7
 903 00aa FFF7FEFF 		bl	drawPixel
 904              	.LVL77:
 175:.\LED_Matrix.c **** void drawCircleHelper( int8 x0, int8 y0,int8 r, int8 cornername, RGB c, color *matrix) {
 905              		.loc 1 175 0
 906 00ae 4346     		mov	r3, r8
 193:.\LED_Matrix.c ****       drawPixel(x0 + y, y0 + x, c, matrix);
 907              		.loc 1 193 0
 908 00b0 5946     		mov	r1, fp
 175:.\LED_Matrix.c **** void drawCircleHelper( int8 x0, int8 y0,int8 r, int8 cornername, RGB c, color *matrix) {
 909              		.loc 1 175 0
 910 00b2 1A19     		add	r2, r3, r4
 193:.\LED_Matrix.c ****       drawPixel(x0 + y, y0 + x, c, matrix);
ARM GAS  C:\Users\Computer\AppData\Local\Temp\cc1tHs0g.s 			page 23


 911              		.loc 1 193 0
 912 00b4 4944     		add	r1, r1, r9
 913 00b6 48B2     		sxtb	r0, r1
 914 00b8 3B1C     		mov	r3, r7
 915 00ba 51B2     		sxtb	r1, r2
 916 00bc 109A     		ldr	r2, [sp, #64]
 917 00be FFF7FEFF 		bl	drawPixel
 918              	.LVL78:
 195:.\LED_Matrix.c ****     if (cornername & 0x2) {
 919              		.loc 1 195 0
 920 00c2 0398     		ldr	r0, [sp, #12]
 921 00c4 0028     		cmp	r0, #0
 922 00c6 C5D0     		beq	.L18
 923              	.L36:
 175:.\LED_Matrix.c **** void drawCircleHelper( int8 x0, int8 y0,int8 r, int8 cornername, RGB c, color *matrix) {
 924              		.loc 1 175 0
 925 00c8 4B46     		mov	r3, r9
 926 00ca 1A19     		add	r2, r3, r4
 196:.\LED_Matrix.c ****       drawPixel(x0 + x, y0 - y, c, matrix);
 927              		.loc 1 196 0
 928 00cc F1B2     		uxtb	r1, r6
 929 00ce 4346     		mov	r3, r8
 930 00d0 8B46     		mov	fp, r1
 931 00d2 591A     		sub	r1, r3, r1
 932 00d4 50B2     		sxtb	r0, r2
 933 00d6 49B2     		sxtb	r1, r1
 934 00d8 109A     		ldr	r2, [sp, #64]
 935 00da 3B1C     		mov	r3, r7
 936 00dc FFF7FEFF 		bl	drawPixel
 937              	.LVL79:
 175:.\LED_Matrix.c **** void drawCircleHelper( int8 x0, int8 y0,int8 r, int8 cornername, RGB c, color *matrix) {
 938              		.loc 1 175 0
 939 00e0 4346     		mov	r3, r8
 197:.\LED_Matrix.c ****       drawPixel(x0 + y, y0 - x, c, matrix);
 940              		.loc 1 197 0
 941 00e2 5A46     		mov	r2, fp
 942 00e4 4A44     		add	r2, r2, r9
 175:.\LED_Matrix.c **** void drawCircleHelper( int8 x0, int8 y0,int8 r, int8 cornername, RGB c, color *matrix) {
 943              		.loc 1 175 0
 944 00e6 191B     		sub	r1, r3, r4
 197:.\LED_Matrix.c ****       drawPixel(x0 + y, y0 - x, c, matrix);
 945              		.loc 1 197 0
 946 00e8 50B2     		sxtb	r0, r2
 947 00ea 49B2     		sxtb	r1, r1
 948 00ec 109A     		ldr	r2, [sp, #64]
 949 00ee 3B1C     		mov	r3, r7
 950 00f0 FFF7FEFF 		bl	drawPixel
 951              	.LVL80:
 199:.\LED_Matrix.c ****     if (cornername & 0x8) {
 952              		.loc 1 199 0
 953 00f4 0298     		ldr	r0, [sp, #8]
 954 00f6 0028     		cmp	r0, #0
 955 00f8 AFD0     		beq	.L19
 956              	.L37:
 200:.\LED_Matrix.c ****       drawPixel(x0 - y, y0 + x, c, matrix);
 957              		.loc 1 200 0
 958 00fa F3B2     		uxtb	r3, r6
ARM GAS  C:\Users\Computer\AppData\Local\Temp\cc1tHs0g.s 			page 24


 959 00fc 4A46     		mov	r2, r9
 960 00fe D11A     		sub	r1, r2, r3
 961 0100 9B46     		mov	fp, r3
 175:.\LED_Matrix.c **** void drawCircleHelper( int8 x0, int8 y0,int8 r, int8 cornername, RGB c, color *matrix) {
 962              		.loc 1 175 0
 963 0102 4346     		mov	r3, r8
 964 0104 1A19     		add	r2, r3, r4
 200:.\LED_Matrix.c ****       drawPixel(x0 - y, y0 + x, c, matrix);
 965              		.loc 1 200 0
 966 0106 48B2     		sxtb	r0, r1
 967 0108 3B1C     		mov	r3, r7
 968 010a 51B2     		sxtb	r1, r2
 969 010c 109A     		ldr	r2, [sp, #64]
 970 010e FFF7FEFF 		bl	drawPixel
 971              	.LVL81:
 175:.\LED_Matrix.c **** void drawCircleHelper( int8 x0, int8 y0,int8 r, int8 cornername, RGB c, color *matrix) {
 972              		.loc 1 175 0
 973 0112 4846     		mov	r0, r9
 201:.\LED_Matrix.c ****       drawPixel(x0 - x, y0 + y, c, matrix);
 974              		.loc 1 201 0
 975 0114 5A46     		mov	r2, fp
 175:.\LED_Matrix.c **** void drawCircleHelper( int8 x0, int8 y0,int8 r, int8 cornername, RGB c, color *matrix) {
 976              		.loc 1 175 0
 977 0116 011B     		sub	r1, r0, r4
 201:.\LED_Matrix.c ****       drawPixel(x0 - x, y0 + y, c, matrix);
 978              		.loc 1 201 0
 979 0118 4244     		add	r2, r2, r8
 980 011a 48B2     		sxtb	r0, r1
 981 011c 3B1C     		mov	r3, r7
 982 011e 51B2     		sxtb	r1, r2
 983 0120 109A     		ldr	r2, [sp, #64]
 984 0122 FFF7FEFF 		bl	drawPixel
 985              	.LVL82:
 986              		.loc 1 203 0
 987 0126 0598     		ldr	r0, [sp, #20]
 988 0128 0028     		cmp	r0, #0
 989 012a 99D0     		beq	.L20
 990              	.L38:
 204:.\LED_Matrix.c ****       drawPixel(x0 - y, y0 - x, c, matrix);
 991              		.loc 1 204 0
 992 012c F1B2     		uxtb	r1, r6
 993 012e 4B46     		mov	r3, r9
 994 0130 5A1A     		sub	r2, r3, r1
 995 0132 8B46     		mov	fp, r1
 175:.\LED_Matrix.c **** void drawCircleHelper( int8 x0, int8 y0,int8 r, int8 cornername, RGB c, color *matrix) {
 996              		.loc 1 175 0
 997 0134 4146     		mov	r1, r8
 998 0136 0B1B     		sub	r3, r1, r4
 999              		.loc 1 204 0
 1000 0138 50B2     		sxtb	r0, r2
 1001 013a 59B2     		sxtb	r1, r3
 1002 013c 109A     		ldr	r2, [sp, #64]
 1003 013e 3B1C     		mov	r3, r7
 1004 0140 FFF7FEFF 		bl	drawPixel
 1005              	.LVL83:
 175:.\LED_Matrix.c **** void drawCircleHelper( int8 x0, int8 y0,int8 r, int8 cornername, RGB c, color *matrix) {
 1006              		.loc 1 175 0
ARM GAS  C:\Users\Computer\AppData\Local\Temp\cc1tHs0g.s 			page 25


 1007 0144 4846     		mov	r0, r9
 1008 0146 021B     		sub	r2, r0, r4
 205:.\LED_Matrix.c ****       drawPixel(x0 - x, y0 - y, c, matrix);
 1009              		.loc 1 205 0
 1010 0148 4146     		mov	r1, r8
 1011 014a 5B46     		mov	r3, fp
 1012 014c 50B2     		sxtb	r0, r2
 1013 014e CA1A     		sub	r2, r1, r3
 1014 0150 51B2     		sxtb	r1, r2
 1015 0152 3B1C     		mov	r3, r7
 1016 0154 109A     		ldr	r2, [sp, #64]
 1017 0156 FFF7FEFF 		bl	drawPixel
 1018              	.LVL84:
 182:.\LED_Matrix.c ****   while (x<y) {
 1019              		.loc 1 182 0
 1020 015a 5146     		mov	r1, sl
 1021 015c 0134     		add	r4, r4, #1
 1022              	.LVL85:
 1023 015e 70B2     		sxtb	r0, r6
 1024 0160 4BB2     		sxtb	r3, r1
 1025 0162 E4B2     		uxtb	r4, r4
 1026              	.LVL86:
 1027 0164 9842     		cmp	r0, r3
 1028 0166 82DC     		bgt	.L21
 1029              	.LVL87:
 1030              	.L14:
 206:.\LED_Matrix.c ****     }
 207:.\LED_Matrix.c ****   }
 208:.\LED_Matrix.c **** }
 1031              		.loc 1 208 0
 1032 0168 07B0     		add	sp, sp, #28
 1033              		@ sp needed for prologue
 1034 016a 3CBC     		pop	{r2, r3, r4, r5}
 1035 016c 9046     		mov	r8, r2
 1036 016e 9946     		mov	r9, r3
 1037 0170 A246     		mov	sl, r4
 1038 0172 AB46     		mov	fp, r5
 1039 0174 F0BD     		pop	{r4, r5, r6, r7, pc}
 1040              		.cfi_endproc
 1041              	.LFE37:
 1042              		.size	drawCircleHelper, .-drawCircleHelper
 1043 0176 C046     		.section	.text.drawLine,"ax",%progbits
 1044              		.align	2
 1045              		.global	drawLine
 1046              		.code	16
 1047              		.thumb_func
 1048              		.type	drawLine, %function
 1049              	drawLine:
 1050              	.LFB38:
 209:.\LED_Matrix.c **** 
 210:.\LED_Matrix.c **** void drawLine(int8 x0, int8 y0, int8 x1, int8 y1, RGB c, color *matrix)
 211:.\LED_Matrix.c **** {
 1051              		.loc 1 211 0
 1052              		.cfi_startproc
 1053              	.LVL88:
 1054 0000 F0B5     		push	{r4, r5, r6, r7, lr}
 1055              	.LCFI10:
ARM GAS  C:\Users\Computer\AppData\Local\Temp\cc1tHs0g.s 			page 26


 1056              		.cfi_def_cfa_offset 20
 1057              		.cfi_offset 4, -20
 1058              		.cfi_offset 5, -16
 1059              		.cfi_offset 6, -12
 1060              		.cfi_offset 7, -8
 1061              		.cfi_offset 14, -4
 1062 0002 4D46     		mov	r5, r9
 1063 0004 4446     		mov	r4, r8
 1064 0006 5F46     		mov	r7, fp
 1065 0008 5646     		mov	r6, sl
 1066 000a F0B4     		push	{r4, r5, r6, r7}
 1067              	.LCFI11:
 1068              		.cfi_def_cfa_offset 36
 1069              		.cfi_offset 8, -36
 1070              		.cfi_offset 9, -32
 1071              		.cfi_offset 10, -28
 1072              		.cfi_offset 11, -24
 1073 000c 83B0     		sub	sp, sp, #12
 1074              	.LCFI12:
 1075              		.cfi_def_cfa_offset 48
 1076              		.loc 1 211 0
 1077 000e 041C     		mov	r4, r0
 1078 0010 0D1C     		mov	r5, r1
 1079 0012 0D98     		ldr	r0, [sp, #52]
 1080              	.LVL89:
 212:.\LED_Matrix.c ****   int8 steep = abs(y1 - y0) > abs(x1 - x0);
 1081              		.loc 1 212 0
 1082 0014 5E1B     		sub	r6, r3, r5
 211:.\LED_Matrix.c **** {
 1083              		.loc 1 211 0
 1084 0016 8046     		mov	r8, r0
 1085              		.loc 1 212 0
 1086 0018 F017     		asr	r0, r6, #31
 1087 001a 3618     		add	r6, r6, r0
 1088 001c 4640     		eor	r6, r0
 211:.\LED_Matrix.c **** {
 1089              		.loc 1 211 0
 1090 001e 171C     		mov	r7, r2
 1091              		.loc 1 212 0
 1092 0020 B146     		mov	r9, r6
 1093 0022 3E1B     		sub	r6, r7, r4
 1094 0024 F017     		asr	r0, r6, #31
 1095 0026 3618     		add	r6, r6, r0
 1096 0028 211C     		mov	r1, r4
 1097              	.LVL90:
 1098 002a 4640     		eor	r6, r0
 1099 002c B145     		cmp	r9, r6
 1100 002e 00DC     		bgt	.LCB973
 1101 0030 B9E0     		b	.L67	@long jump
 1102              	.LCB973:
 1103 0032 0124     		mov	r4, #1
 1104 0034 A146     		mov	r9, r4
 213:.\LED_Matrix.c ****   if (steep) {
 214:.\LED_Matrix.c ****     swap(x0, y0);
 215:.\LED_Matrix.c ****     swap(x1, y1);
 1105              		.loc 1 215 0
 1106 0036 1F1C     		mov	r7, r3
ARM GAS  C:\Users\Computer\AppData\Local\Temp\cc1tHs0g.s 			page 27


 214:.\LED_Matrix.c ****     swap(x0, y0);
 1107              		.loc 1 214 0
 1108 0038 2C1C     		mov	r4, r5
 1109              		.loc 1 215 0
 1110 003a 131C     		mov	r3, r2
 1111              	.LVL91:
 214:.\LED_Matrix.c ****     swap(x0, y0);
 1112              		.loc 1 214 0
 1113 003c 0D1C     		mov	r5, r1
 1114              	.LVL92:
 1115              	.L41:
 216:.\LED_Matrix.c ****   }
 217:.\LED_Matrix.c **** 
 218:.\LED_Matrix.c ****   if (x0 > x1) {
 1116              		.loc 1 218 0
 1117 003e BC42     		cmp	r4, r7
 1118 0040 00DD     		ble	.LCB989
 1119 0042 A9E0     		b	.L51	@long jump
 1120              	.LCB989:
 1121 0044 081C     		mov	r0, r1
 1122 0046 111C     		mov	r1, r2
 1123 0048 021C     		mov	r2, r0
 1124              	.LVL93:
 1125              	.L42:
 219:.\LED_Matrix.c ****     swap(x0, x1);
 220:.\LED_Matrix.c ****     swap(y0, y1);
 221:.\LED_Matrix.c ****   }
 222:.\LED_Matrix.c **** 
 223:.\LED_Matrix.c ****   int8 dx, dy;
 224:.\LED_Matrix.c ****   dx = x1 - x0;
 1126              		.loc 1 224 0
 1127 004a 3E1B     		sub	r6, r7, r4
 225:.\LED_Matrix.c ****   dy = abs(y1 - y0);
 1128              		.loc 1 225 0
 1129 004c 8A1A     		sub	r2, r1, r2
 224:.\LED_Matrix.c ****   dx = x1 - x0;
 1130              		.loc 1 224 0
 1131 004e F0B2     		uxtb	r0, r6
 1132              		.loc 1 225 0
 1133 0050 D117     		asr	r1, r2, #31
 1134 0052 5218     		add	r2, r2, r1
 224:.\LED_Matrix.c ****   dx = x1 - x0;
 1135              		.loc 1 224 0
 1136 0054 8346     		mov	fp, r0
 1137              	.LVL94:
 226:.\LED_Matrix.c **** 
 227:.\LED_Matrix.c ****   int8 err = dx / 2;
 1138              		.loc 1 227 0
 1139 0056 40B2     		sxtb	r0, r0
 225:.\LED_Matrix.c ****   dy = abs(y1 - y0);
 1140              		.loc 1 225 0
 1141 0058 4A40     		eor	r2, r1
 1142              	.LVL95:
 1143              		.loc 1 227 0
 1144 005a C10F     		lsr	r1, r0, #31
 1145 005c 0E18     		add	r6, r1, r0
 1146              	.LVL96:
ARM GAS  C:\Users\Computer\AppData\Local\Temp\cc1tHs0g.s 			page 28


 1147 005e 7010     		asr	r0, r6, #1
 228:.\LED_Matrix.c ****   int8 ystep;
 229:.\LED_Matrix.c **** 
 230:.\LED_Matrix.c ****   if (y0 < y1) {
 231:.\LED_Matrix.c ****     ystep = 1;
 232:.\LED_Matrix.c ****   } else {
 233:.\LED_Matrix.c ****     ystep = -1;
 1148              		.loc 1 233 0
 1149 0060 FF21     		mov	r1, #255
 227:.\LED_Matrix.c ****   int8 err = dx / 2;
 1150              		.loc 1 227 0
 1151 0062 C6B2     		uxtb	r6, r0
 1152              	.LVL97:
 1153              		.loc 1 233 0
 1154 0064 0091     		str	r1, [sp]
 230:.\LED_Matrix.c ****   if (y0 < y1) {
 1155              		.loc 1 230 0
 1156 0066 9D42     		cmp	r5, r3
 1157 0068 01DA     		bge	.L43
 231:.\LED_Matrix.c ****     ystep = 1;
 1158              		.loc 1 231 0
 1159 006a 0123     		mov	r3, #1
 1160              	.LVL98:
 1161 006c 0093     		str	r3, [sp]
 1162              	.L43:
 1163              	.LVL99:
 234:.\LED_Matrix.c ****   }
 235:.\LED_Matrix.c **** 
 236:.\LED_Matrix.c ****   for (; x0<=x1; x0++) {
 1164              		.loc 1 236 0 discriminator 1
 1165 006e BC42     		cmp	r4, r7
 1166 0070 00DD     		ble	.LCB1033
 1167 0072 8AE0     		b	.L39	@long jump
 1168              	.LCB1033:
 1169 0074 381B     		sub	r0, r7, r4
 1170 0076 0121     		mov	r1, #1
 1171 0078 D2B2     		uxtb	r2, r2
 1172              	.LVL100:
 1173 007a 0140     		and	r1, r0
 237:.\LED_Matrix.c ****     if (steep) {
 1174              		.loc 1 237 0
 1175 007c 4B46     		mov	r3, r9
 1176 007e 9246     		mov	sl, r2
 1177 0080 0191     		str	r1, [sp, #4]
 1178 0082 002B     		cmp	r3, #0
 1179 0084 00D0     		beq	.LCB1044
 1180 0086 93E0     		b	.L76	@long jump
 1181              	.LCB1044:
 238:.\LED_Matrix.c ****       drawPixel(y0, x0, c, matrix);
 239:.\LED_Matrix.c ****     } else {
 240:.\LED_Matrix.c ****       drawPixel(x0, y0, c, matrix);
 1182              		.loc 1 240 0
 1183 0088 201C     		mov	r0, r4
 1184 008a 291C     		mov	r1, r5
 1185 008c 0C9A     		ldr	r2, [sp, #48]
 1186 008e 4346     		mov	r3, r8
 1187 0090 FFF7FEFF 		bl	drawPixel
ARM GAS  C:\Users\Computer\AppData\Local\Temp\cc1tHs0g.s 			page 29


 1188              	.LVL101:
 241:.\LED_Matrix.c ****     }
 242:.\LED_Matrix.c ****     err -= dy;
 1189              		.loc 1 242 0
 1190 0094 5246     		mov	r2, sl
 1191 0096 B61A     		sub	r6, r6, r2
 1192              	.LVL102:
 1193 0098 F0B2     		uxtb	r0, r6
 1194 009a C6B2     		uxtb	r6, r0
 243:.\LED_Matrix.c ****     if (err < 0) {
 1195              		.loc 1 243 0
 1196 009c 71B2     		sxtb	r1, r6
 1197 009e 0029     		cmp	r1, #0
 1198 00a0 00DA     		bge	.LCB1059
 1199 00a2 93E0     		b	.L77	@long jump
 1200              	.LCB1059:
 1201              	.LVL103:
 1202              	.L56:
 236:.\LED_Matrix.c ****   for (; x0<=x1; x0++) {
 1203              		.loc 1 236 0
 1204 00a4 0134     		add	r4, r4, #1
 1205              	.LVL104:
 1206 00a6 64B2     		sxtb	r4, r4
 1207              	.LVL105:
 1208 00a8 A742     		cmp	r7, r4
 1209 00aa 6EDB     		blt	.L39
 1210 00ac 019A     		ldr	r2, [sp, #4]
 1211 00ae 002A     		cmp	r2, #0
 1212 00b0 15D0     		beq	.L75
 237:.\LED_Matrix.c ****     if (steep) {
 1213              		.loc 1 237 0
 1214 00b2 4846     		mov	r0, r9
 1215 00b4 0028     		cmp	r0, #0
 1216 00b6 00D0     		beq	.LCB1079
 1217 00b8 8EE0     		b	.L71	@long jump
 1218              	.LCB1079:
 240:.\LED_Matrix.c ****       drawPixel(x0, y0, c, matrix);
 1219              		.loc 1 240 0
 1220 00ba 291C     		mov	r1, r5
 1221 00bc 0C9A     		ldr	r2, [sp, #48]
 1222 00be 4346     		mov	r3, r8
 1223 00c0 201C     		mov	r0, r4
 1224 00c2 FFF7FEFF 		bl	drawPixel
 1225              	.LVL106:
 242:.\LED_Matrix.c ****     err -= dy;
 1226              		.loc 1 242 0
 1227 00c6 5146     		mov	r1, sl
 1228 00c8 761A     		sub	r6, r6, r1
 1229 00ca F3B2     		uxtb	r3, r6
 1230 00cc DEB2     		uxtb	r6, r3
 1231              		.loc 1 243 0
 1232 00ce 72B2     		sxtb	r2, r6
 1233 00d0 002A     		cmp	r2, #0
 1234 00d2 00DA     		bge	.LCB1092
 1235 00d4 8EE0     		b	.L78	@long jump
 1236              	.LCB1092:
 1237              	.LVL107:
ARM GAS  C:\Users\Computer\AppData\Local\Temp\cc1tHs0g.s 			page 30


 1238              	.L59:
 236:.\LED_Matrix.c ****   for (; x0<=x1; x0++) {
 1239              		.loc 1 236 0
 1240 00d6 0134     		add	r4, r4, #1
 1241 00d8 64B2     		sxtb	r4, r4
 1242 00da A742     		cmp	r7, r4
 1243 00dc 55DB     		blt	.L39
 1244              	.LVL108:
 1245              	.L75:
 1246 00de 391C     		mov	r1, r7
 1247 00e0 4F46     		mov	r7, r9
 1248              	.LVL109:
 1249 00e2 8946     		mov	r9, r1
 1250 00e4 21E0     		b	.L48
 1251              	.LVL110:
 1252              	.L81:
 238:.\LED_Matrix.c ****       drawPixel(y0, x0, c, matrix);
 1253              		.loc 1 238 0
 1254 00e6 211C     		mov	r1, r4
 1255 00e8 0C9A     		ldr	r2, [sp, #48]
 1256 00ea 4346     		mov	r3, r8
 1257 00ec 281C     		mov	r0, r5
 1258 00ee FFF7FEFF 		bl	drawPixel
 1259              	.LVL111:
 242:.\LED_Matrix.c ****     err -= dy;
 1260              		.loc 1 242 0
 1261 00f2 5346     		mov	r3, sl
 1262 00f4 F61A     		sub	r6, r6, r3
 1263 00f6 F1B2     		uxtb	r1, r6
 1264 00f8 CEB2     		uxtb	r6, r1
 1265              		.loc 1 243 0
 1266 00fa 72B2     		sxtb	r2, r6
 1267 00fc 002A     		cmp	r2, #0
 1268 00fe 23DB     		blt	.L79
 1269              	.L47:
 1270              	.LVL112:
 236:.\LED_Matrix.c ****   for (; x0<=x1; x0++) {
 1271              		.loc 1 236 0
 1272 0100 0134     		add	r4, r4, #1
 1273 0102 64B2     		sxtb	r4, r4
 237:.\LED_Matrix.c ****     if (steep) {
 1274              		.loc 1 237 0
 1275 0104 002F     		cmp	r7, #0
 1276 0106 29D0     		beq	.L62
 1277              	.LVL113:
 1278              	.L82:
 238:.\LED_Matrix.c ****       drawPixel(y0, x0, c, matrix);
 1279              		.loc 1 238 0
 1280 0108 281C     		mov	r0, r5
 1281 010a 211C     		mov	r1, r4
 1282 010c 0C9A     		ldr	r2, [sp, #48]
 1283 010e 4346     		mov	r3, r8
 1284 0110 FFF7FEFF 		bl	drawPixel
 1285              	.LVL114:
 242:.\LED_Matrix.c ****     err -= dy;
 1286              		.loc 1 242 0
 1287 0114 5146     		mov	r1, sl
ARM GAS  C:\Users\Computer\AppData\Local\Temp\cc1tHs0g.s 			page 31


 1288 0116 721A     		sub	r2, r6, r1
 1289 0118 D3B2     		uxtb	r3, r2
 1290 011a DEB2     		uxtb	r6, r3
 1291              		.loc 1 243 0
 1292 011c 70B2     		sxtb	r0, r6
 1293 011e 0028     		cmp	r0, #0
 1294 0120 29DB     		blt	.L80
 1295              	.L63:
 1296              	.LVL115:
 236:.\LED_Matrix.c ****   for (; x0<=x1; x0++) {
 1297              		.loc 1 236 0
 1298 0122 0134     		add	r4, r4, #1
 1299 0124 64B2     		sxtb	r4, r4
 1300 0126 A145     		cmp	r9, r4
 1301 0128 2FDB     		blt	.L39
 1302              	.LVL116:
 1303              	.L48:
 237:.\LED_Matrix.c ****     if (steep) {
 1304              		.loc 1 237 0
 1305 012a 002F     		cmp	r7, #0
 1306 012c DBD1     		bne	.L81
 240:.\LED_Matrix.c ****       drawPixel(x0, y0, c, matrix);
 1307              		.loc 1 240 0
 1308 012e 291C     		mov	r1, r5
 1309 0130 0C9A     		ldr	r2, [sp, #48]
 1310 0132 4346     		mov	r3, r8
 1311 0134 201C     		mov	r0, r4
 1312 0136 FFF7FEFF 		bl	drawPixel
 1313              	.LVL117:
 242:.\LED_Matrix.c ****     err -= dy;
 1314              		.loc 1 242 0
 1315 013a 5346     		mov	r3, sl
 1316 013c F61A     		sub	r6, r6, r3
 1317 013e F1B2     		uxtb	r1, r6
 1318 0140 CEB2     		uxtb	r6, r1
 1319              		.loc 1 243 0
 1320 0142 72B2     		sxtb	r2, r6
 1321 0144 002A     		cmp	r2, #0
 1322 0146 DBDA     		bge	.L47
 1323              	.L79:
 244:.\LED_Matrix.c ****       y0 += ystep;
 1324              		.loc 1 244 0
 1325 0148 0098     		ldr	r0, [sp]
 245:.\LED_Matrix.c ****       err += dx;
 1326              		.loc 1 245 0
 1327 014a 5B46     		mov	r3, fp
 244:.\LED_Matrix.c ****       y0 += ystep;
 1328              		.loc 1 244 0
 1329 014c 2D18     		add	r5, r5, r0
 1330              		.loc 1 245 0
 1331 014e CE18     		add	r6, r1, r3
 236:.\LED_Matrix.c ****   for (; x0<=x1; x0++) {
 1332              		.loc 1 236 0
 1333 0150 0134     		add	r4, r4, #1
 244:.\LED_Matrix.c ****       y0 += ystep;
 1334              		.loc 1 244 0
 1335 0152 6DB2     		sxtb	r5, r5
ARM GAS  C:\Users\Computer\AppData\Local\Temp\cc1tHs0g.s 			page 32


 1336              	.LVL118:
 1337              		.loc 1 245 0
 1338 0154 F6B2     		uxtb	r6, r6
 236:.\LED_Matrix.c ****   for (; x0<=x1; x0++) {
 1339              		.loc 1 236 0
 1340 0156 64B2     		sxtb	r4, r4
 237:.\LED_Matrix.c ****     if (steep) {
 1341              		.loc 1 237 0
 1342 0158 002F     		cmp	r7, #0
 1343 015a D5D1     		bne	.L82
 1344              	.LVL119:
 1345              	.L62:
 240:.\LED_Matrix.c ****       drawPixel(x0, y0, c, matrix);
 1346              		.loc 1 240 0
 1347 015c 201C     		mov	r0, r4
 1348 015e 291C     		mov	r1, r5
 1349 0160 0C9A     		ldr	r2, [sp, #48]
 1350 0162 4346     		mov	r3, r8
 1351 0164 FFF7FEFF 		bl	drawPixel
 1352              	.LVL120:
 242:.\LED_Matrix.c ****     err -= dy;
 1353              		.loc 1 242 0
 1354 0168 5146     		mov	r1, sl
 1355 016a 721A     		sub	r2, r6, r1
 1356 016c D3B2     		uxtb	r3, r2
 1357 016e DEB2     		uxtb	r6, r3
 243:.\LED_Matrix.c ****     if (err < 0) {
 1358              		.loc 1 243 0
 1359 0170 70B2     		sxtb	r0, r6
 1360 0172 0028     		cmp	r0, #0
 1361 0174 D5DA     		bge	.L63
 1362              	.L80:
 244:.\LED_Matrix.c ****       y0 += ystep;
 1363              		.loc 1 244 0
 1364 0176 009E     		ldr	r6, [sp]
 1365              		.loc 1 245 0
 1366 0178 5946     		mov	r1, fp
 236:.\LED_Matrix.c ****   for (; x0<=x1; x0++) {
 1367              		.loc 1 236 0
 1368 017a 0134     		add	r4, r4, #1
 244:.\LED_Matrix.c ****       y0 += ystep;
 1369              		.loc 1 244 0
 1370 017c AD19     		add	r5, r5, r6
 1371              		.loc 1 245 0
 1372 017e 5A18     		add	r2, r3, r1
 236:.\LED_Matrix.c ****   for (; x0<=x1; x0++) {
 1373              		.loc 1 236 0
 1374 0180 64B2     		sxtb	r4, r4
 244:.\LED_Matrix.c ****       y0 += ystep;
 1375              		.loc 1 244 0
 1376 0182 6DB2     		sxtb	r5, r5
 1377              	.LVL121:
 1378              		.loc 1 245 0
 1379 0184 D6B2     		uxtb	r6, r2
 236:.\LED_Matrix.c ****   for (; x0<=x1; x0++) {
 1380              		.loc 1 236 0
 1381 0186 A145     		cmp	r9, r4
ARM GAS  C:\Users\Computer\AppData\Local\Temp\cc1tHs0g.s 			page 33


 1382 0188 CFDA     		bge	.L48
 1383              	.LVL122:
 1384              	.L39:
 246:.\LED_Matrix.c ****     }
 247:.\LED_Matrix.c ****   }
 248:.\LED_Matrix.c **** }
 1385              		.loc 1 248 0
 1386 018a 03B0     		add	sp, sp, #12
 1387              		@ sp needed for prologue
 1388              	.LVL123:
 1389 018c 3CBC     		pop	{r2, r3, r4, r5}
 1390 018e 9046     		mov	r8, r2
 1391 0190 9946     		mov	r9, r3
 1392 0192 A246     		mov	sl, r4
 1393 0194 AB46     		mov	fp, r5
 1394 0196 F0BD     		pop	{r4, r5, r6, r7, pc}
 1395              	.LVL124:
 1396              	.L51:
 218:.\LED_Matrix.c ****   if (x0 > x1) {
 1397              		.loc 1 218 0
 1398 0198 2E1C     		mov	r6, r5
 1399 019a 201C     		mov	r0, r4
 220:.\LED_Matrix.c ****     swap(y0, y1);
 1400              		.loc 1 220 0
 1401 019c 1D1C     		mov	r5, r3
 1402              	.LVL125:
 218:.\LED_Matrix.c ****   if (x0 > x1) {
 1403              		.loc 1 218 0
 1404 019e 3C1C     		mov	r4, r7
 1405              	.LVL126:
 220:.\LED_Matrix.c ****     swap(y0, y1);
 1406              		.loc 1 220 0
 1407 01a0 331C     		mov	r3, r6
 1408              	.LVL127:
 218:.\LED_Matrix.c ****   if (x0 > x1) {
 1409              		.loc 1 218 0
 1410 01a2 071C     		mov	r7, r0
 1411              	.LVL128:
 1412 01a4 51E7     		b	.L42
 1413              	.LVL129:
 1414              	.L67:
 1415 01a6 0021     		mov	r1, #0
 1416 01a8 8946     		mov	r9, r1
 213:.\LED_Matrix.c ****   if (steep) {
 1417              		.loc 1 213 0
 1418 01aa 1A1C     		mov	r2, r3
 1419              	.LVL130:
 1420 01ac 291C     		mov	r1, r5
 1421 01ae 46E7     		b	.L41
 1422              	.LVL131:
 1423              	.L76:
 238:.\LED_Matrix.c ****       drawPixel(y0, x0, c, matrix);
 1424              		.loc 1 238 0
 1425 01b0 281C     		mov	r0, r5
 1426 01b2 211C     		mov	r1, r4
 1427 01b4 0C9A     		ldr	r2, [sp, #48]
 1428 01b6 4346     		mov	r3, r8
ARM GAS  C:\Users\Computer\AppData\Local\Temp\cc1tHs0g.s 			page 34


 1429 01b8 FFF7FEFF 		bl	drawPixel
 1430              	.LVL132:
 242:.\LED_Matrix.c ****     err -= dy;
 1431              		.loc 1 242 0
 1432 01bc 5246     		mov	r2, sl
 1433 01be B61A     		sub	r6, r6, r2
 1434              	.LVL133:
 1435 01c0 F0B2     		uxtb	r0, r6
 1436 01c2 C6B2     		uxtb	r6, r0
 243:.\LED_Matrix.c ****     if (err < 0) {
 1437              		.loc 1 243 0
 1438 01c4 71B2     		sxtb	r1, r6
 1439 01c6 0029     		cmp	r1, #0
 1440 01c8 00DB     		blt	.LCB1296
 1441 01ca 6BE7     		b	.L56	@long jump
 1442              	.LCB1296:
 1443              	.LVL134:
 1444              	.L77:
 244:.\LED_Matrix.c ****       y0 += ystep;
 1445              		.loc 1 244 0
 1446 01cc 009B     		ldr	r3, [sp]
 245:.\LED_Matrix.c ****       err += dx;
 1447              		.loc 1 245 0
 1448 01ce 5844     		add	r0, r0, fp
 244:.\LED_Matrix.c ****       y0 += ystep;
 1449              		.loc 1 244 0
 1450 01d0 ED18     		add	r5, r5, r3
 1451              	.LVL135:
 1452 01d2 6DB2     		sxtb	r5, r5
 1453              	.LVL136:
 245:.\LED_Matrix.c ****       err += dx;
 1454              		.loc 1 245 0
 1455 01d4 C6B2     		uxtb	r6, r0
 1456 01d6 65E7     		b	.L56
 1457              	.LVL137:
 1458              	.L71:
 238:.\LED_Matrix.c ****       drawPixel(y0, x0, c, matrix);
 1459              		.loc 1 238 0
 1460 01d8 211C     		mov	r1, r4
 1461 01da 0C9A     		ldr	r2, [sp, #48]
 1462 01dc 4346     		mov	r3, r8
 1463 01de 281C     		mov	r0, r5
 1464 01e0 FFF7FEFF 		bl	drawPixel
 1465              	.LVL138:
 242:.\LED_Matrix.c ****     err -= dy;
 1466              		.loc 1 242 0
 1467 01e4 5146     		mov	r1, sl
 1468 01e6 761A     		sub	r6, r6, r1
 1469 01e8 F3B2     		uxtb	r3, r6
 1470 01ea DEB2     		uxtb	r6, r3
 243:.\LED_Matrix.c ****     if (err < 0) {
 1471              		.loc 1 243 0
 1472 01ec 72B2     		sxtb	r2, r6
 1473 01ee 002A     		cmp	r2, #0
 1474 01f0 00DB     		blt	.LCB1329
 1475 01f2 70E7     		b	.L59	@long jump
 1476              	.LCB1329:
ARM GAS  C:\Users\Computer\AppData\Local\Temp\cc1tHs0g.s 			page 35


 1477              	.L78:
 244:.\LED_Matrix.c ****       y0 += ystep;
 1478              		.loc 1 244 0
 1479 01f4 0098     		ldr	r0, [sp]
 245:.\LED_Matrix.c ****       err += dx;
 1480              		.loc 1 245 0
 1481 01f6 5B44     		add	r3, r3, fp
 244:.\LED_Matrix.c ****       y0 += ystep;
 1482              		.loc 1 244 0
 1483 01f8 2D18     		add	r5, r5, r0
 1484              	.LVL139:
 1485 01fa 6DB2     		sxtb	r5, r5
 1486              	.LVL140:
 245:.\LED_Matrix.c ****       err += dx;
 1487              		.loc 1 245 0
 1488 01fc DEB2     		uxtb	r6, r3
 1489 01fe 6AE7     		b	.L59
 1490              		.cfi_endproc
 1491              	.LFE38:
 1492              		.size	drawLine, .-drawLine
 1493              		.section	.text.drawFastVLine,"ax",%progbits
 1494              		.align	2
 1495              		.global	drawFastVLine
 1496              		.code	16
 1497              		.thumb_func
 1498              		.type	drawFastVLine, %function
 1499              	drawFastVLine:
 1500              	.LFB40:
 249:.\LED_Matrix.c **** 
 250:.\LED_Matrix.c **** void drawRect(int16_t x, int16_t y,int16_t w, int16_t h,RGB c, color *matrix) {
 251:.\LED_Matrix.c ****   drawFastHLine(x, y, w, c, matrix);
 252:.\LED_Matrix.c ****   drawFastHLine(x, y+h, w, c, matrix);
 253:.\LED_Matrix.c ****   drawFastVLine(x, y, h, c, matrix);
 254:.\LED_Matrix.c ****   drawFastVLine(x+w, y, h, c, matrix);
 255:.\LED_Matrix.c **** }
 256:.\LED_Matrix.c **** 
 257:.\LED_Matrix.c **** void drawFastVLine(int8 x, int8 y, int8 h, RGB c, color *matrix) 
 258:.\LED_Matrix.c **** {
 1501              		.loc 1 258 0
 1502              		.cfi_startproc
 1503              	.LVL141:
 1504 0000 70B5     		push	{r4, r5, r6, lr}
 1505              	.LCFI13:
 1506              		.cfi_def_cfa_offset 16
 1507              		.cfi_offset 4, -16
 1508              		.cfi_offset 5, -12
 1509              		.cfi_offset 6, -8
 1510              		.cfi_offset 14, -4
 1511 0002 84B0     		sub	sp, sp, #16
 1512              	.LCFI14:
 1513              		.cfi_def_cfa_offset 32
 1514              		.loc 1 258 0
 1515 0004 041C     		mov	r4, r0
 1516 0006 1D1C     		add	r5, r3, #0
 259:.\LED_Matrix.c ****   // Update in subclasses if desired!
 260:.\LED_Matrix.c ****   drawLine(x, y, x, y+h, c, matrix);
 1517              		.loc 1 260 0
ARM GAS  C:\Users\Computer\AppData\Local\Temp\cc1tHs0g.s 			page 36


 1518 0008 6846     		mov	r0, sp
 1519              	.LVL142:
 258:.\LED_Matrix.c **** {
 1520              		.loc 1 258 0
 1521 000a 1E0C     		lsr	r6, r3, #16
 1522              		.loc 1 260 0
 1523 000c 0580     		strh	r5, [r0]
 1524 000e 8670     		strb	r6, [r0, #2]
 1525 0010 5318     		add	r3, r2, r1
 1526 0012 089A     		ldr	r2, [sp, #32]
 1527              	.LVL143:
 1528 0014 5BB2     		sxtb	r3, r3
 1529 0016 0192     		str	r2, [sp, #4]
 1530 0018 201C     		mov	r0, r4
 1531 001a 221C     		mov	r2, r4
 1532 001c FFF7FEFF 		bl	drawLine
 1533              	.LVL144:
 261:.\LED_Matrix.c **** }
 1534              		.loc 1 261 0
 1535 0020 04B0     		add	sp, sp, #16
 1536              		@ sp needed for prologue
 1537 0022 70BD     		pop	{r4, r5, r6, pc}
 1538              		.cfi_endproc
 1539              	.LFE40:
 1540              		.size	drawFastVLine, .-drawFastVLine
 1541              		.section	.text.drawFastHLine,"ax",%progbits
 1542              		.align	2
 1543              		.global	drawFastHLine
 1544              		.code	16
 1545              		.thumb_func
 1546              		.type	drawFastHLine, %function
 1547              	drawFastHLine:
 1548              	.LFB41:
 262:.\LED_Matrix.c **** 
 263:.\LED_Matrix.c **** void drawFastHLine(int8 x, int8 y, int8 w, RGB c, color *matrix) 
 264:.\LED_Matrix.c **** {
 1549              		.loc 1 264 0
 1550              		.cfi_startproc
 1551              	.LVL145:
 1552 0000 30B5     		push	{r4, r5, lr}
 1553              	.LCFI15:
 1554              		.cfi_def_cfa_offset 12
 1555              		.cfi_offset 4, -12
 1556              		.cfi_offset 5, -8
 1557              		.cfi_offset 14, -4
 1558 0002 85B0     		sub	sp, sp, #20
 1559              	.LCFI16:
 1560              		.cfi_def_cfa_offset 32
 1561              		.loc 1 264 0
 1562 0004 0C1C     		mov	r4, r1
 1563 0006 1D1C     		add	r5, r3, #0
 265:.\LED_Matrix.c ****   // Update in subclasses if desired!
 266:.\LED_Matrix.c ****   drawLine(x, y, x+w, y, c, matrix);
 1564              		.loc 1 266 0
 1565 0008 6946     		mov	r1, sp
 1566              	.LVL146:
 264:.\LED_Matrix.c **** {
ARM GAS  C:\Users\Computer\AppData\Local\Temp\cc1tHs0g.s 			page 37


 1567              		.loc 1 264 0
 1568 000a 1B0C     		lsr	r3, r3, #16
 1569              		.loc 1 266 0
 1570 000c 8B70     		strb	r3, [r1, #2]
 1571 000e 0D80     		strh	r5, [r1]
 1572 0010 089D     		ldr	r5, [sp, #32]
 1573 0012 1218     		add	r2, r2, r0
 1574              	.LVL147:
 1575 0014 52B2     		sxtb	r2, r2
 1576 0016 0195     		str	r5, [sp, #4]
 1577 0018 211C     		mov	r1, r4
 1578 001a 231C     		mov	r3, r4
 1579 001c FFF7FEFF 		bl	drawLine
 1580              	.LVL148:
 267:.\LED_Matrix.c **** }
 1581              		.loc 1 267 0
 1582 0020 05B0     		add	sp, sp, #20
 1583              		@ sp needed for prologue
 1584 0022 30BD     		pop	{r4, r5, pc}
 1585              		.cfi_endproc
 1586              	.LFE41:
 1587              		.size	drawFastHLine, .-drawFastHLine
 1588              		.section	.text.drawRect,"ax",%progbits
 1589              		.align	2
 1590              		.global	drawRect
 1591              		.code	16
 1592              		.thumb_func
 1593              		.type	drawRect, %function
 1594              	drawRect:
 1595              	.LFB39:
 250:.\LED_Matrix.c **** void drawRect(int16_t x, int16_t y,int16_t w, int16_t h,RGB c, color *matrix) {
 1596              		.loc 1 250 0
 1597              		.cfi_startproc
 1598              	.LVL149:
 1599 0000 F0B5     		push	{r4, r5, r6, r7, lr}
 1600              	.LCFI17:
 1601              		.cfi_def_cfa_offset 20
 1602              		.cfi_offset 4, -20
 1603              		.cfi_offset 5, -16
 1604              		.cfi_offset 6, -12
 1605              		.cfi_offset 7, -8
 1606              		.cfi_offset 14, -4
 1607 0002 5F46     		mov	r7, fp
 1608 0004 5646     		mov	r6, sl
 1609 0006 4D46     		mov	r5, r9
 1610 0008 4446     		mov	r4, r8
 1611 000a F0B4     		push	{r4, r5, r6, r7}
 1612              	.LCFI18:
 1613              		.cfi_def_cfa_offset 36
 1614              		.cfi_offset 8, -36
 1615              		.cfi_offset 9, -32
 1616              		.cfi_offset 10, -28
 1617              		.cfi_offset 11, -24
 1618 000c 83B0     		sub	sp, sp, #12
 1619              	.LCFI19:
 1620              		.cfi_def_cfa_offset 48
 250:.\LED_Matrix.c **** void drawRect(int16_t x, int16_t y,int16_t w, int16_t h,RGB c, color *matrix) {
ARM GAS  C:\Users\Computer\AppData\Local\Temp\cc1tHs0g.s 			page 38


 1621              		.loc 1 250 0
 1622 000e 0D9C     		ldr	r4, [sp, #52]
 251:.\LED_Matrix.c ****   drawFastHLine(x, y, w, c, matrix);
 1623              		.loc 1 251 0
 1624 0010 46B2     		sxtb	r6, r0
 1625 0012 4DB2     		sxtb	r5, r1
 250:.\LED_Matrix.c **** void drawRect(int16_t x, int16_t y,int16_t w, int16_t h,RGB c, color *matrix) {
 1626              		.loc 1 250 0
 1627 0014 8046     		mov	r8, r0
 1628 0016 8B46     		mov	fp, r1
 1629 0018 9146     		mov	r9, r2
 1630 001a 1F1C     		mov	r7, r3
 251:.\LED_Matrix.c ****   drawFastHLine(x, y, w, c, matrix);
 1631              		.loc 1 251 0
 1632 001c 52B2     		sxtb	r2, r2
 1633              	.LVL150:
 1634 001e 301C     		mov	r0, r6
 1635              	.LVL151:
 1636 0020 291C     		mov	r1, r5
 1637              	.LVL152:
 1638 0022 0C9B     		ldr	r3, [sp, #48]
 1639              	.LVL153:
 1640 0024 0094     		str	r4, [sp]
 1641 0026 9246     		mov	sl, r2
 1642 0028 FFF7FEFF 		bl	drawFastHLine
 1643              	.LVL154:
 252:.\LED_Matrix.c ****   drawFastHLine(x, y+h, w, c, matrix);
 1644              		.loc 1 252 0
 1645 002c 5B46     		mov	r3, fp
 1646 002e F818     		add	r0, r7, r3
 1647 0030 41B2     		sxtb	r1, r0
 1648 0032 5246     		mov	r2, sl
 1649 0034 301C     		mov	r0, r6
 1650 0036 0C9B     		ldr	r3, [sp, #48]
 253:.\LED_Matrix.c ****   drawFastVLine(x, y, h, c, matrix);
 1651              		.loc 1 253 0
 1652 0038 7FB2     		sxtb	r7, r7
 252:.\LED_Matrix.c ****   drawFastHLine(x, y+h, w, c, matrix);
 1653              		.loc 1 252 0
 1654 003a 0094     		str	r4, [sp]
 1655 003c FFF7FEFF 		bl	drawFastHLine
 1656              	.LVL155:
 253:.\LED_Matrix.c ****   drawFastVLine(x, y, h, c, matrix);
 1657              		.loc 1 253 0
 1658 0040 301C     		mov	r0, r6
 1659 0042 291C     		mov	r1, r5
 1660 0044 3A1C     		mov	r2, r7
 1661 0046 0C9B     		ldr	r3, [sp, #48]
 1662 0048 0094     		str	r4, [sp]
 1663 004a FFF7FEFF 		bl	drawFastVLine
 1664              	.LVL156:
 254:.\LED_Matrix.c ****   drawFastVLine(x+w, y, h, c, matrix);
 1665              		.loc 1 254 0
 1666 004e 4946     		mov	r1, r9
 1667 0050 4144     		add	r1, r1, r8
 1668 0052 48B2     		sxtb	r0, r1
 1669 0054 0094     		str	r4, [sp]
ARM GAS  C:\Users\Computer\AppData\Local\Temp\cc1tHs0g.s 			page 39


 1670 0056 291C     		mov	r1, r5
 1671 0058 3A1C     		mov	r2, r7
 1672 005a 0C9B     		ldr	r3, [sp, #48]
 1673 005c FFF7FEFF 		bl	drawFastVLine
 1674              	.LVL157:
 255:.\LED_Matrix.c **** }
 1675              		.loc 1 255 0
 1676 0060 03B0     		add	sp, sp, #12
 1677              		@ sp needed for prologue
 1678 0062 3CBC     		pop	{r2, r3, r4, r5}
 1679 0064 9046     		mov	r8, r2
 1680 0066 9946     		mov	r9, r3
 1681 0068 A246     		mov	sl, r4
 1682 006a AB46     		mov	fp, r5
 1683 006c F0BD     		pop	{r4, r5, r6, r7, pc}
 1684              		.cfi_endproc
 1685              	.LFE39:
 1686              		.size	drawRect, .-drawRect
 1687 006e C046     		.section	.text.fillRect,"ax",%progbits
 1688              		.align	2
 1689              		.global	fillRect
 1690              		.code	16
 1691              		.thumb_func
 1692              		.type	fillRect, %function
 1693              	fillRect:
 1694              	.LFB42:
 268:.\LED_Matrix.c **** 
 269:.\LED_Matrix.c **** void fillRect(int8 x, int8 y, int8 w, int8 h, RGB c, color *matrix) 
 270:.\LED_Matrix.c **** {
 1695              		.loc 1 270 0
 1696              		.cfi_startproc
 1697              	.LVL158:
 1698 0000 F0B5     		push	{r4, r5, r6, r7, lr}
 1699              	.LCFI20:
 1700              		.cfi_def_cfa_offset 20
 1701              		.cfi_offset 4, -20
 1702              		.cfi_offset 5, -16
 1703              		.cfi_offset 6, -12
 1704              		.cfi_offset 7, -8
 1705              		.cfi_offset 14, -4
 1706 0002 4E46     		mov	r6, r9
 1707 0004 4546     		mov	r5, r8
 1708 0006 5746     		mov	r7, sl
 1709 0008 E0B4     		push	{r5, r6, r7}
 1710              	.LCFI21:
 1711              		.cfi_def_cfa_offset 32
 1712              		.cfi_offset 8, -32
 1713              		.cfi_offset 9, -28
 1714              		.cfi_offset 10, -24
 1715 000a 82B0     		sub	sp, sp, #8
 1716              	.LCFI22:
 1717              		.cfi_def_cfa_offset 40
 1718              		.loc 1 270 0
 1719 000c 1E1C     		mov	r6, r3
 271:.\LED_Matrix.c ****   // Update in subclasses if desired!
 272:.\LED_Matrix.c **** 	int8 i = 0;
 273:.\LED_Matrix.c ****   for(i=x; i<x+w; i++) {
ARM GAS  C:\Users\Computer\AppData\Local\Temp\cc1tHs0g.s 			page 40


 1720              		.loc 1 273 0
 1721 000e 8218     		add	r2, r0, r2
 1722              	.LVL159:
 270:.\LED_Matrix.c **** {
 1723              		.loc 1 270 0
 1724 0010 0B9B     		ldr	r3, [sp, #44]
 1725              	.LVL160:
 1726 0012 051C     		mov	r5, r0
 269:.\LED_Matrix.c **** void fillRect(int8 x, int8 y, int8 w, int8 h, RGB c, color *matrix) 
 1727              		.loc 1 269 0
 1728 0014 101A     		sub	r0, r2, r0
 1729              	.LVL161:
 270:.\LED_Matrix.c **** {
 1730              		.loc 1 270 0
 1731 0016 0F1C     		mov	r7, r1
 1732 0018 9846     		mov	r8, r3
 269:.\LED_Matrix.c **** void fillRect(int8 x, int8 y, int8 w, int8 h, RGB c, color *matrix) 
 1733              		.loc 1 269 0
 1734 001a 8146     		mov	r9, r0
 1735              		.loc 1 273 0
 1736 001c 9542     		cmp	r5, r2
 1737 001e 32DA     		bge	.L86
 1738 0020 0138     		sub	r0, r0, #1
 1739 0022 0121     		mov	r1, #1
 1740              	.LVL162:
 1741 0024 0140     		and	r1, r0
 274:.\LED_Matrix.c ****     drawFastVLine(i, y, h, c, matrix);
 1742              		.loc 1 274 0
 1743 0026 0093     		str	r3, [sp]
 1744 0028 8A46     		mov	sl, r1
 1745 002a 68B2     		sxtb	r0, r5
 1746 002c 391C     		mov	r1, r7
 1747 002e 321C     		mov	r2, r6
 1748 0030 0A9B     		ldr	r3, [sp, #40]
 1749 0032 0124     		mov	r4, #1
 1750 0034 FFF7FEFF 		bl	drawFastVLine
 1751              	.LVL163:
 273:.\LED_Matrix.c ****   for(i=x; i<x+w; i++) {
 1752              		.loc 1 273 0
 1753 0038 4C45     		cmp	r4, r9
 1754 003a 24D0     		beq	.L86
 1755 003c 5346     		mov	r3, sl
 1756 003e 002B     		cmp	r3, #0
 1757 0040 0BD0     		beq	.L90
 269:.\LED_Matrix.c **** void fillRect(int8 x, int8 y, int8 w, int8 h, RGB c, color *matrix) 
 1758              		.loc 1 269 0
 1759 0042 6A1C     		add	r2, r5, #1
 1760              		.loc 1 274 0
 1761 0044 4146     		mov	r1, r8
 1762 0046 50B2     		sxtb	r0, r2
 1763 0048 0091     		str	r1, [sp]
 1764 004a 321C     		mov	r2, r6
 1765 004c 391C     		mov	r1, r7
 1766 004e 0A9B     		ldr	r3, [sp, #40]
 1767 0050 0224     		mov	r4, #2
 1768 0052 FFF7FEFF 		bl	drawFastVLine
 1769              	.LVL164:
ARM GAS  C:\Users\Computer\AppData\Local\Temp\cc1tHs0g.s 			page 41


 273:.\LED_Matrix.c ****   for(i=x; i<x+w; i++) {
 1770              		.loc 1 273 0
 1771 0056 4C45     		cmp	r4, r9
 1772 0058 15D0     		beq	.L86
 1773              	.L90:
 269:.\LED_Matrix.c **** void fillRect(int8 x, int8 y, int8 w, int8 h, RGB c, color *matrix) 
 1774              		.loc 1 269 0 discriminator 2
 1775 005a 6019     		add	r0, r4, r5
 1776              		.loc 1 274 0 discriminator 2
 1777 005c 4346     		mov	r3, r8
 1778 005e 40B2     		sxtb	r0, r0
 1779 0060 0093     		str	r3, [sp]
 1780 0062 391C     		mov	r1, r7
 1781 0064 321C     		mov	r2, r6
 1782 0066 0A9B     		ldr	r3, [sp, #40]
 1783 0068 0134     		add	r4, r4, #1
 1784 006a FFF7FEFF 		bl	drawFastVLine
 1785              	.LVL165:
 269:.\LED_Matrix.c **** void fillRect(int8 x, int8 y, int8 w, int8 h, RGB c, color *matrix) 
 1786              		.loc 1 269 0 discriminator 2
 1787 006e 6219     		add	r2, r4, r5
 1788              		.loc 1 274 0 discriminator 2
 1789 0070 4146     		mov	r1, r8
 1790 0072 50B2     		sxtb	r0, r2
 1791 0074 0091     		str	r1, [sp]
 1792 0076 321C     		mov	r2, r6
 1793 0078 391C     		mov	r1, r7
 1794 007a 0A9B     		ldr	r3, [sp, #40]
 1795 007c 0134     		add	r4, r4, #1
 1796 007e FFF7FEFF 		bl	drawFastVLine
 1797              	.LVL166:
 273:.\LED_Matrix.c ****   for(i=x; i<x+w; i++) {
 1798              		.loc 1 273 0 discriminator 2
 1799 0082 4C45     		cmp	r4, r9
 1800 0084 E9D1     		bne	.L90
 1801              	.L86:
 275:.\LED_Matrix.c ****   }
 276:.\LED_Matrix.c **** }
 1802              		.loc 1 276 0
 1803 0086 02B0     		add	sp, sp, #8
 1804              		@ sp needed for prologue
 1805 0088 1CBC     		pop	{r2, r3, r4}
 1806 008a 9046     		mov	r8, r2
 1807 008c 9946     		mov	r9, r3
 1808 008e A246     		mov	sl, r4
 1809 0090 F0BD     		pop	{r4, r5, r6, r7, pc}
 1810              		.cfi_endproc
 1811              	.LFE42:
 1812              		.size	fillRect, .-fillRect
 1813 0092 C046     		.section	.text.fillScreen,"ax",%progbits
 1814              		.align	2
 1815              		.global	fillScreen
 1816              		.code	16
 1817              		.thumb_func
 1818              		.type	fillScreen, %function
 1819              	fillScreen:
 1820              	.LFB43:
ARM GAS  C:\Users\Computer\AppData\Local\Temp\cc1tHs0g.s 			page 42


 277:.\LED_Matrix.c **** 
 278:.\LED_Matrix.c **** void fillScreen(RGB c, color *matrix)
 279:.\LED_Matrix.c **** {
 1821              		.loc 1 279 0
 1822              		.cfi_startproc
 1823              	.LVL167:
 1824 0000 00B5     		push	{lr}
 1825              	.LCFI23:
 1826              		.cfi_def_cfa_offset 4
 1827              		.cfi_offset 14, -4
 1828 0002 85B0     		sub	sp, sp, #20
 1829              	.LCFI24:
 1830              		.cfi_def_cfa_offset 24
 280:.\LED_Matrix.c ****   fillRect(0, 0, 32, 16, c, matrix);
 1831              		.loc 1 280 0
 1832 0004 6B46     		mov	r3, sp
 279:.\LED_Matrix.c **** {
 1833              		.loc 1 279 0
 1834 0006 021C     		add	r2, r0, #0
 1835 0008 000C     		lsr	r0, r0, #16
 1836              		.loc 1 280 0
 1837 000a 1A80     		strh	r2, [r3]
 1838 000c 9870     		strb	r0, [r3, #2]
 1839 000e 2022     		mov	r2, #32
 1840 0010 0191     		str	r1, [sp, #4]
 1841 0012 0020     		mov	r0, #0
 1842 0014 0021     		mov	r1, #0
 1843              	.LVL168:
 1844 0016 1023     		mov	r3, #16
 1845 0018 FFF7FEFF 		bl	fillRect
 1846              	.LVL169:
 281:.\LED_Matrix.c **** }
 1847              		.loc 1 281 0
 1848 001c 05B0     		add	sp, sp, #20
 1849              		@ sp needed for prologue
 1850 001e 00BD     		pop	{pc}
 1851              		.cfi_endproc
 1852              	.LFE43:
 1853              		.size	fillScreen, .-fillScreen
 1854              		.section	.text.drawTriangle,"ax",%progbits
 1855              		.align	2
 1856              		.global	drawTriangle
 1857              		.code	16
 1858              		.thumb_func
 1859              		.type	drawTriangle, %function
 1860              	drawTriangle:
 1861              	.LFB44:
 282:.\LED_Matrix.c **** 
 283:.\LED_Matrix.c **** void drawTriangle(int8 x0, int8 y0,int8 x1, int8 y1,
 284:.\LED_Matrix.c **** 						int8 x2, int8 y2, RGB c, color *matrix) 
 285:.\LED_Matrix.c **** {
 1862              		.loc 1 285 0
 1863              		.cfi_startproc
 1864              	.LVL170:
 1865 0000 F0B5     		push	{r4, r5, r6, r7, lr}
 1866              	.LCFI25:
 1867              		.cfi_def_cfa_offset 20
ARM GAS  C:\Users\Computer\AppData\Local\Temp\cc1tHs0g.s 			page 43


 1868              		.cfi_offset 4, -20
 1869              		.cfi_offset 5, -16
 1870              		.cfi_offset 6, -12
 1871              		.cfi_offset 7, -8
 1872              		.cfi_offset 14, -4
 1873 0002 5F46     		mov	r7, fp
 1874 0004 5646     		mov	r6, sl
 1875 0006 4D46     		mov	r5, r9
 1876 0008 E0B4     		push	{r5, r6, r7}
 1877              	.LCFI26:
 1878              		.cfi_def_cfa_offset 32
 1879              		.cfi_offset 9, -32
 1880              		.cfi_offset 10, -28
 1881              		.cfi_offset 11, -24
 1882 000a 82B0     		sub	sp, sp, #8
 1883              	.LCFI27:
 1884              		.cfi_def_cfa_offset 40
 1885              		.loc 1 285 0
 1886 000c 9A46     		mov	sl, r3
 1887 000e 0AAB     		add	r3, sp, #40
 1888              	.LVL171:
 1889 0010 071C     		mov	r7, r0
 1890 0012 1878     		ldrb	r0, [r3]
 1891              	.LVL172:
 286:.\LED_Matrix.c ****   drawLine(x0, y0, x1, y1, c, matrix);
 1892              		.loc 1 286 0
 1893 0014 0CAC     		add	r4, sp, #48
 285:.\LED_Matrix.c **** {
 1894              		.loc 1 285 0
 1895 0016 0E1C     		mov	r6, r1
 1896 0018 41B2     		sxtb	r1, r0
 1897              	.LVL173:
 1898              		.loc 1 286 0
 1899 001a 2088     		ldrh	r0, [r4]
 285:.\LED_Matrix.c **** {
 1900              		.loc 1 285 0
 1901 001c 9346     		mov	fp, r2
 1902              		.loc 1 286 0
 1903 001e 6B46     		mov	r3, sp
 285:.\LED_Matrix.c **** {
 1904              		.loc 1 285 0
 1905 0020 0BAA     		add	r2, sp, #44
 1906              	.LVL174:
 1907 0022 0025     		mov	r5, #0
 1908 0024 5557     		ldrsb	r5, [r2, r5]
 1909              		.loc 1 286 0
 1910 0026 1880     		strh	r0, [r3]
 285:.\LED_Matrix.c **** {
 1911              		.loc 1 285 0
 1912 0028 8946     		mov	r9, r1
 1913              		.loc 1 286 0
 1914 002a A178     		ldrb	r1, [r4, #2]
 1915 002c 381C     		mov	r0, r7
 1916 002e 9970     		strb	r1, [r3, #2]
 1917 0030 0D9A     		ldr	r2, [sp, #52]
 1918 0032 311C     		mov	r1, r6
 1919 0034 0192     		str	r2, [sp, #4]
ARM GAS  C:\Users\Computer\AppData\Local\Temp\cc1tHs0g.s 			page 44


 1920 0036 5346     		mov	r3, sl
 1921 0038 5A46     		mov	r2, fp
 1922 003a FFF7FEFF 		bl	drawLine
 1923              	.LVL175:
 287:.\LED_Matrix.c ****   drawLine(x1, y1, x2, y2, c, matrix);
 1924              		.loc 1 287 0
 1925 003e 2088     		ldrh	r0, [r4]
 1926 0040 6B46     		mov	r3, sp
 1927 0042 1880     		strh	r0, [r3]
 1928 0044 A178     		ldrb	r1, [r4, #2]
 1929 0046 5846     		mov	r0, fp
 1930 0048 9970     		strb	r1, [r3, #2]
 1931 004a 0D9A     		ldr	r2, [sp, #52]
 1932 004c 5146     		mov	r1, sl
 1933 004e 0192     		str	r2, [sp, #4]
 1934 0050 2B1C     		mov	r3, r5
 1935 0052 4A46     		mov	r2, r9
 1936 0054 FFF7FEFF 		bl	drawLine
 1937              	.LVL176:
 288:.\LED_Matrix.c ****   drawLine(x2, y2, x0, y0, c, matrix);
 1938              		.loc 1 288 0
 1939 0058 2088     		ldrh	r0, [r4]
 1940 005a 6B46     		mov	r3, sp
 1941 005c 1880     		strh	r0, [r3]
 1942 005e A478     		ldrb	r4, [r4, #2]
 1943 0060 4846     		mov	r0, r9
 1944 0062 9C70     		strb	r4, [r3, #2]
 1945 0064 0D99     		ldr	r1, [sp, #52]
 1946 0066 3A1C     		mov	r2, r7
 1947 0068 0191     		str	r1, [sp, #4]
 1948 006a 331C     		mov	r3, r6
 1949 006c 291C     		mov	r1, r5
 1950 006e FFF7FEFF 		bl	drawLine
 1951              	.LVL177:
 289:.\LED_Matrix.c **** }
 1952              		.loc 1 289 0
 1953 0072 02B0     		add	sp, sp, #8
 1954              		@ sp needed for prologue
 1955 0074 1CBC     		pop	{r2, r3, r4}
 1956 0076 9146     		mov	r9, r2
 1957 0078 9A46     		mov	sl, r3
 1958 007a A346     		mov	fp, r4
 1959 007c F0BD     		pop	{r4, r5, r6, r7, pc}
 1960              		.cfi_endproc
 1961              	.LFE44:
 1962              		.size	drawTriangle, .-drawTriangle
 1963 007e C046     		.section	.text.drawOne,"ax",%progbits
 1964              		.align	2
 1965              		.global	drawOne
 1966              		.code	16
 1967              		.thumb_func
 1968              		.type	drawOne, %function
 1969              	drawOne:
 1970              	.LFB45:
 290:.\LED_Matrix.c **** 
 291:.\LED_Matrix.c **** void drawOne(int8 x0, int8 y0,RGB c, color *matrix) 
 292:.\LED_Matrix.c **** { 
ARM GAS  C:\Users\Computer\AppData\Local\Temp\cc1tHs0g.s 			page 45


 1971              		.loc 1 292 0
 1972              		.cfi_startproc
 1973              	.LVL178:
 1974 0000 F0B5     		push	{r4, r5, r6, r7, lr}
 1975              	.LCFI28:
 1976              		.cfi_def_cfa_offset 20
 1977              		.cfi_offset 4, -20
 1978              		.cfi_offset 5, -16
 1979              		.cfi_offset 6, -12
 1980              		.cfi_offset 7, -8
 1981              		.cfi_offset 14, -4
 1982 0002 5F46     		mov	r7, fp
 1983 0004 5646     		mov	r6, sl
 1984 0006 4D46     		mov	r5, r9
 1985 0008 4446     		mov	r4, r8
 1986 000a F0B4     		push	{r4, r5, r6, r7}
 1987              	.LCFI29:
 1988              		.cfi_def_cfa_offset 36
 1989              		.cfi_offset 8, -36
 1990              		.cfi_offset 9, -32
 1991              		.cfi_offset 10, -28
 1992              		.cfi_offset 11, -24
 1993 000c 0D1C     		mov	r5, r1
 1994 000e 85B0     		sub	sp, sp, #20
 1995              	.LCFI30:
 1996              		.cfi_def_cfa_offset 56
 1997              		.loc 1 292 0
 1998 0010 1F1C     		mov	r7, r3
 1999 0012 061C     		mov	r6, r0
 293:.\LED_Matrix.c **** 	drawLine(x0+3, y0+11, x0+5, y0+9, c,matrix); 
 2000              		.loc 1 293 0
 2001 0014 EBB2     		uxtb	r3, r5
 2002              	.LVL179:
 292:.\LED_Matrix.c **** { 
 2003              		.loc 1 292 0
 2004 0016 9446     		mov	ip, r2
 2005 0018 0392     		str	r2, [sp, #12]
 2006              		.loc 1 293 0
 2007 001a F6B2     		uxtb	r6, r6
 292:.\LED_Matrix.c **** { 
 2008              		.loc 1 292 0
 2009 001c 101C     		mov	r0, r2
 2010              	.LVL180:
 2011              		.loc 1 293 0
 2012 001e 1A1C     		mov	r2, r3
 292:.\LED_Matrix.c **** { 
 2013              		.loc 1 292 0
 2014 0020 010C     		lsr	r1, r0, #16
 2015              	.LVL181:
 2016              		.loc 1 293 0
 2017 0022 0B32     		add	r2, r2, #11
 2018 0024 F01C     		add	r0, r6, #3
 292:.\LED_Matrix.c **** { 
 2019              		.loc 1 292 0
 2020 0026 8B46     		mov	fp, r1
 2021              		.loc 1 293 0
 2022 0028 41B2     		sxtb	r1, r0
ARM GAS  C:\Users\Computer\AppData\Local\Temp\cc1tHs0g.s 			page 46


 2023 002a 50B2     		sxtb	r0, r2
 2024 002c 8846     		mov	r8, r1
 2025 002e 8146     		mov	r9, r0
 2026 0030 6146     		mov	r1, ip
 2027 0032 6846     		mov	r0, sp
 2028 0034 0180     		strh	r1, [r0]
 2029 0036 721D     		add	r2, r6, #5
 2030 0038 5946     		mov	r1, fp
 2031 003a 0933     		add	r3, r3, #9
 292:.\LED_Matrix.c **** { 
 2032              		.loc 1 292 0
 2033 003c 03AC     		add	r4, sp, #12
 2034              		.loc 1 293 0
 2035 003e 8170     		strb	r1, [r0, #2]
 2036 0040 52B2     		sxtb	r2, r2
 2037 0042 4046     		mov	r0, r8
 2038 0044 4946     		mov	r1, r9
 2039 0046 5BB2     		sxtb	r3, r3
 2040 0048 0197     		str	r7, [sp, #4]
 2041 004a FFF7FEFF 		bl	drawLine
 2042              	.LVL182:
 294:.\LED_Matrix.c **** 	drawLine(x0+3, y0, x0+3, y0+11, c,matrix); 
 2043              		.loc 1 294 0
 2044 004e 2288     		ldrh	r2, [r4]
 2045 0050 6B46     		mov	r3, sp
 2046 0052 1A80     		strh	r2, [r3]
 2047 0054 A078     		ldrb	r0, [r4, #2]
 2048 0056 291C     		mov	r1, r5
 2049 0058 9870     		strb	r0, [r3, #2]
 2050 005a 4246     		mov	r2, r8
 2051 005c 4046     		mov	r0, r8
 2052 005e 4B46     		mov	r3, r9
 2053 0060 0197     		str	r7, [sp, #4]
 2054 0062 FFF7FEFF 		bl	drawLine
 2055              	.LVL183:
 295:.\LED_Matrix.c **** 	drawLine(x0+2, y0, x0+4, y0, c,matrix);
 2056              		.loc 1 295 0
 2057 0066 2388     		ldrh	r3, [r4]
 2058 0068 B11C     		add	r1, r6, #2
 2059 006a 0436     		add	r6, r6, #4
 2060 006c 72B2     		sxtb	r2, r6
 2061 006e 6E46     		mov	r6, sp
 2062 0070 3380     		strh	r3, [r6]
 2063 0072 A478     		ldrb	r4, [r4, #2]
 2064 0074 48B2     		sxtb	r0, r1
 2065 0076 B470     		strb	r4, [r6, #2]
 2066 0078 291C     		mov	r1, r5
 2067 007a 0197     		str	r7, [sp, #4]
 2068 007c 2B1C     		mov	r3, r5
 2069 007e FFF7FEFF 		bl	drawLine
 2070              	.LVL184:
 296:.\LED_Matrix.c **** }
 2071              		.loc 1 296 0
 2072 0082 05B0     		add	sp, sp, #20
 2073              		@ sp needed for prologue
 2074              	.LVL185:
 2075 0084 3CBC     		pop	{r2, r3, r4, r5}
ARM GAS  C:\Users\Computer\AppData\Local\Temp\cc1tHs0g.s 			page 47


 2076 0086 9046     		mov	r8, r2
 2077 0088 9946     		mov	r9, r3
 2078 008a A246     		mov	sl, r4
 2079 008c AB46     		mov	fp, r5
 2080 008e F0BD     		pop	{r4, r5, r6, r7, pc}
 2081              		.cfi_endproc
 2082              	.LFE45:
 2083              		.size	drawOne, .-drawOne
 2084              		.section	.text.drawTwo,"ax",%progbits
 2085              		.align	2
 2086              		.global	drawTwo
 2087              		.code	16
 2088              		.thumb_func
 2089              		.type	drawTwo, %function
 2090              	drawTwo:
 2091              	.LFB46:
 297:.\LED_Matrix.c **** 
 298:.\LED_Matrix.c **** void drawTwo(int8 x0, int8 y0,RGB c, color *matrix) 
 299:.\LED_Matrix.c **** { 
 2092              		.loc 1 299 0
 2093              		.cfi_startproc
 2094              	.LVL186:
 2095 0000 F0B5     		push	{r4, r5, r6, r7, lr}
 2096              	.LCFI31:
 2097              		.cfi_def_cfa_offset 20
 2098              		.cfi_offset 4, -20
 2099              		.cfi_offset 5, -16
 2100              		.cfi_offset 6, -12
 2101              		.cfi_offset 7, -8
 2102              		.cfi_offset 14, -4
 2103 0002 4F46     		mov	r7, r9
 2104 0004 4646     		mov	r6, r8
 2105 0006 C0B4     		push	{r6, r7}
 2106              	.LCFI32:
 2107              		.cfi_def_cfa_offset 28
 2108              		.cfi_offset 8, -28
 2109              		.cfi_offset 9, -24
 300:.\LED_Matrix.c **** 	drawPixel(x0+5,y0+10,c,matrix);
 2110              		.loc 1 300 0
 2111 0008 CDB2     		uxtb	r5, r1
 2112 000a C6B2     		uxtb	r6, r0
 299:.\LED_Matrix.c **** { 
 2113              		.loc 1 299 0
 2114 000c 0F1C     		mov	r7, r1
 2115              		.loc 1 300 0
 2116 000e 291C     		mov	r1, r5
 299:.\LED_Matrix.c **** { 
 2117              		.loc 1 299 0
 2118 0010 1C1C     		mov	r4, r3
 2119              		.loc 1 300 0
 2120 0012 0A31     		add	r1, r1, #10
 2121              	.LVL187:
 2122 0014 731D     		add	r3, r6, #5
 2123              	.LVL188:
 299:.\LED_Matrix.c **** { 
 2124              		.loc 1 299 0
 2125 0016 85B0     		sub	sp, sp, #20
ARM GAS  C:\Users\Computer\AppData\Local\Temp\cc1tHs0g.s 			page 48


 2126              	.LCFI33:
 2127              		.cfi_def_cfa_offset 48
 2128              		.loc 1 300 0
 2129 0018 58B2     		sxtb	r0, r3
 2130              	.LVL189:
 2131 001a 49B2     		sxtb	r1, r1
 2132 001c 231C     		mov	r3, r4
 2133 001e 8046     		mov	r8, r0
 299:.\LED_Matrix.c **** { 
 2134              		.loc 1 299 0
 2135 0020 0392     		str	r2, [sp, #12]
 2136              		.loc 1 300 0
 2137 0022 FFF7FEFF 		bl	drawPixel
 2138              	.LVL190:
 301:.\LED_Matrix.c **** 	drawFastHLine(x0+2,y0+11,2,c,matrix);
 2139              		.loc 1 301 0
 2140 0026 B21C     		add	r2, r6, #2
 2141 0028 281C     		mov	r0, r5
 2142 002a 53B2     		sxtb	r3, r2
 2143 002c 0B30     		add	r0, r0, #11
 2144 002e 9946     		mov	r9, r3
 2145 0030 41B2     		sxtb	r1, r0
 2146 0032 0094     		str	r4, [sp]
 2147 0034 181C     		mov	r0, r3
 2148 0036 0222     		mov	r2, #2
 2149 0038 039B     		ldr	r3, [sp, #12]
 302:.\LED_Matrix.c **** 	drawFastVLine(x0+1,y0+7,3,c,matrix);
 2150              		.loc 1 302 0
 2151 003a 0136     		add	r6, r6, #1
 2152              	.LVL191:
 301:.\LED_Matrix.c **** 	drawFastHLine(x0+2,y0+11,2,c,matrix);
 2153              		.loc 1 301 0
 2154 003c FFF7FEFF 		bl	drawFastHLine
 2155              	.LVL192:
 2156              		.loc 1 302 0
 2157 0040 76B2     		sxtb	r6, r6
 2158              	.LVL193:
 2159 0042 E91D     		add	r1, r5, #7
 2160 0044 301C     		mov	r0, r6
 2161 0046 039B     		ldr	r3, [sp, #12]
 2162 0048 49B2     		sxtb	r1, r1
 2163 004a 0094     		str	r4, [sp]
 2164 004c 0322     		mov	r2, #3
 2165 004e FFF7FEFF 		bl	drawFastVLine
 2166              	.LVL194:
 303:.\LED_Matrix.c **** 	drawFastHLine(x0+2,y0+6,2,c,matrix);
 2167              		.loc 1 303 0
 2168 0052 AA1D     		add	r2, r5, #6
 2169 0054 51B2     		sxtb	r1, r2
 2170 0056 4846     		mov	r0, r9
 2171 0058 039B     		ldr	r3, [sp, #12]
 2172 005a 0094     		str	r4, [sp]
 2173 005c 0222     		mov	r2, #2
 304:.\LED_Matrix.c **** 	drawFastVLine(x0+5,y0+1,4,c,matrix);
 2174              		.loc 1 304 0
 2175 005e 0135     		add	r5, r5, #1
 2176              	.LVL195:
ARM GAS  C:\Users\Computer\AppData\Local\Temp\cc1tHs0g.s 			page 49


 303:.\LED_Matrix.c **** 	drawFastHLine(x0+2,y0+6,2,c,matrix);
 2177              		.loc 1 303 0
 2178 0060 FFF7FEFF 		bl	drawFastHLine
 2179              	.LVL196:
 2180              		.loc 1 304 0
 2181 0064 69B2     		sxtb	r1, r5
 2182 0066 4046     		mov	r0, r8
 2183 0068 039B     		ldr	r3, [sp, #12]
 2184 006a 0094     		str	r4, [sp]
 2185 006c 0422     		mov	r2, #4
 2186 006e FFF7FEFF 		bl	drawFastVLine
 2187              	.LVL197:
 305:.\LED_Matrix.c **** 	drawFastHLine(x0+1,y0,4,c,matrix);
 2188              		.loc 1 305 0
 2189 0072 0094     		str	r4, [sp]
 2190 0074 301C     		mov	r0, r6
 2191 0076 391C     		mov	r1, r7
 2192 0078 0422     		mov	r2, #4
 2193 007a 039B     		ldr	r3, [sp, #12]
 2194 007c FFF7FEFF 		bl	drawFastHLine
 2195              	.LVL198:
 306:.\LED_Matrix.c **** }
 2196              		.loc 1 306 0
 2197 0080 05B0     		add	sp, sp, #20
 2198              		@ sp needed for prologue
 2199              	.LVL199:
 2200              	.LVL200:
 2201 0082 0CBC     		pop	{r2, r3}
 2202 0084 9046     		mov	r8, r2
 2203 0086 9946     		mov	r9, r3
 2204 0088 F0BD     		pop	{r4, r5, r6, r7, pc}
 2205              		.cfi_endproc
 2206              	.LFE46:
 2207              		.size	drawTwo, .-drawTwo
 2208 008a C046     		.section	.text.drawColon,"ax",%progbits
 2209              		.align	2
 2210              		.global	drawColon
 2211              		.code	16
 2212              		.thumb_func
 2213              		.type	drawColon, %function
 2214              	drawColon:
 2215              	.LFB47:
 307:.\LED_Matrix.c **** 
 308:.\LED_Matrix.c **** void drawColon(int8 x0, int8 y0,RGB c, color *matrix)
 309:.\LED_Matrix.c **** {
 2216              		.loc 1 309 0
 2217              		.cfi_startproc
 2218              	.LVL201:
 2219 0000 F0B5     		push	{r4, r5, r6, r7, lr}
 2220              	.LCFI34:
 2221              		.cfi_def_cfa_offset 20
 2222              		.cfi_offset 4, -20
 2223              		.cfi_offset 5, -16
 2224              		.cfi_offset 6, -12
 2225              		.cfi_offset 7, -8
 2226              		.cfi_offset 14, -4
 310:.\LED_Matrix.c **** 	drawFastVLine(x0,y0+3,2,c,matrix);
ARM GAS  C:\Users\Computer\AppData\Local\Temp\cc1tHs0g.s 			page 50


 2227              		.loc 1 310 0
 2228 0002 CEB2     		uxtb	r6, r1
 309:.\LED_Matrix.c **** {
 2229              		.loc 1 309 0
 2230 0004 85B0     		sub	sp, sp, #20
 2231              	.LCFI35:
 2232              		.cfi_def_cfa_offset 40
 309:.\LED_Matrix.c **** {
 2233              		.loc 1 309 0
 2234 0006 171C     		mov	r7, r2
 2235              		.loc 1 310 0
 2236 0008 F11C     		add	r1, r6, #3
 2237              	.LVL202:
 309:.\LED_Matrix.c **** {
 2238              		.loc 1 309 0
 2239 000a 041C     		mov	r4, r0
 2240 000c 0392     		str	r2, [sp, #12]
 2241 000e 1D1C     		mov	r5, r3
 2242              		.loc 1 310 0
 2243 0010 0093     		str	r3, [sp]
 2244 0012 49B2     		sxtb	r1, r1
 2245 0014 3B1C     		mov	r3, r7
 2246              	.LVL203:
 2247 0016 0222     		mov	r2, #2
 311:.\LED_Matrix.c **** 	drawFastVLine(x0,y0+7,2,c,matrix);
 2248              		.loc 1 311 0
 2249 0018 0736     		add	r6, r6, #7
 2250              	.LVL204:
 310:.\LED_Matrix.c **** 	drawFastVLine(x0,y0+3,2,c,matrix);
 2251              		.loc 1 310 0
 2252 001a FFF7FEFF 		bl	drawFastVLine
 2253              	.LVL205:
 2254              		.loc 1 311 0
 2255 001e 71B2     		sxtb	r1, r6
 2256 0020 0095     		str	r5, [sp]
 2257 0022 201C     		mov	r0, r4
 2258 0024 0222     		mov	r2, #2
 2259 0026 039B     		ldr	r3, [sp, #12]
 2260 0028 FFF7FEFF 		bl	drawFastVLine
 2261              	.LVL206:
 312:.\LED_Matrix.c **** }
 2262              		.loc 1 312 0
 2263 002c 05B0     		add	sp, sp, #20
 2264              		@ sp needed for prologue
 2265              	.LVL207:
 2266              	.LVL208:
 2267 002e F0BD     		pop	{r4, r5, r6, r7, pc}
 2268              		.cfi_endproc
 2269              	.LFE47:
 2270              		.size	drawColon, .-drawColon
 2271              		.section	.text.drawThree,"ax",%progbits
 2272              		.align	2
 2273              		.global	drawThree
 2274              		.code	16
 2275              		.thumb_func
 2276              		.type	drawThree, %function
 2277              	drawThree:
ARM GAS  C:\Users\Computer\AppData\Local\Temp\cc1tHs0g.s 			page 51


 2278              	.LFB48:
 313:.\LED_Matrix.c **** 
 314:.\LED_Matrix.c **** void drawThree(int8 x0, int8 y0,RGB c, color *matrix)
 315:.\LED_Matrix.c **** {
 2279              		.loc 1 315 0
 2280              		.cfi_startproc
 2281              	.LVL209:
 2282 0000 F0B5     		push	{r4, r5, r6, r7, lr}
 2283              	.LCFI36:
 2284              		.cfi_def_cfa_offset 20
 2285              		.cfi_offset 4, -20
 2286              		.cfi_offset 5, -16
 2287              		.cfi_offset 6, -12
 2288              		.cfi_offset 7, -8
 2289              		.cfi_offset 14, -4
 2290 0002 4F46     		mov	r7, r9
 2291 0004 4646     		mov	r6, r8
 2292 0006 C0B4     		push	{r6, r7}
 2293              	.LCFI37:
 2294              		.cfi_def_cfa_offset 28
 2295              		.cfi_offset 8, -28
 2296              		.cfi_offset 9, -24
 316:.\LED_Matrix.c **** 	drawFastHLine(x0+1,y0+11,4,c,matrix);
 2297              		.loc 1 316 0
 2298 0008 CDB2     		uxtb	r5, r1
 2299 000a C6B2     		uxtb	r6, r0
 315:.\LED_Matrix.c **** {
 2300              		.loc 1 315 0
 2301 000c 8846     		mov	r8, r1
 2302              		.loc 1 316 0
 2303 000e 771C     		add	r7, r6, #1
 2304 0010 291C     		mov	r1, r5
 315:.\LED_Matrix.c **** {
 2305              		.loc 1 315 0
 2306 0012 85B0     		sub	sp, sp, #20
 2307              	.LCFI38:
 2308              		.cfi_def_cfa_offset 48
 315:.\LED_Matrix.c **** {
 2309              		.loc 1 315 0
 2310 0014 9446     		mov	ip, r2
 2311 0016 1C1C     		mov	r4, r3
 2312              		.loc 1 316 0
 2313 0018 7FB2     		sxtb	r7, r7
 2314 001a 0B31     		add	r1, r1, #11
 2315              	.LVL210:
 2316 001c 6346     		mov	r3, ip
 2317              	.LVL211:
 315:.\LED_Matrix.c **** {
 2318              		.loc 1 315 0
 2319 001e 0392     		str	r2, [sp, #12]
 2320              		.loc 1 316 0
 2321 0020 381C     		mov	r0, r7
 2322              	.LVL212:
 2323 0022 49B2     		sxtb	r1, r1
 2324 0024 0094     		str	r4, [sp]
 2325 0026 0422     		mov	r2, #4
 2326 0028 FFF7FEFF 		bl	drawFastHLine
ARM GAS  C:\Users\Computer\AppData\Local\Temp\cc1tHs0g.s 			page 52


 2327              	.LVL213:
 317:.\LED_Matrix.c **** 	drawFastVLine(x0+1,y0+7,3,c,matrix);
 2328              		.loc 1 317 0
 2329 002c E81D     		add	r0, r5, #7
 2330 002e 41B2     		sxtb	r1, r0
 2331 0030 039B     		ldr	r3, [sp, #12]
 2332 0032 381C     		mov	r0, r7
 2333 0034 0094     		str	r4, [sp]
 2334 0036 0322     		mov	r2, #3
 2335 0038 FFF7FEFF 		bl	drawFastVLine
 2336              	.LVL214:
 318:.\LED_Matrix.c **** 	//drawPixel(x0+2,y0+7,c,matrix);
 319:.\LED_Matrix.c **** 	drawFastHLine(x0+2,y0+6,1,c,matrix);
 2337              		.loc 1 319 0
 2338 003c B21C     		add	r2, r6, #2
 2339 003e 53B2     		sxtb	r3, r2
 2340 0040 A91D     		add	r1, r5, #6
 320:.\LED_Matrix.c **** 	drawFastVLine(x0+1,y0+1,4,c,matrix);
 2341              		.loc 1 320 0
 2342 0042 0135     		add	r5, r5, #1
 2343              	.LVL215:
 319:.\LED_Matrix.c **** 	drawFastHLine(x0+2,y0+6,1,c,matrix);
 2344              		.loc 1 319 0
 2345 0044 9946     		mov	r9, r3
 2346 0046 181C     		mov	r0, r3
 2347              		.loc 1 320 0
 2348 0048 6DB2     		sxtb	r5, r5
 2349              	.LVL216:
 319:.\LED_Matrix.c **** 	drawFastHLine(x0+2,y0+6,1,c,matrix);
 2350              		.loc 1 319 0
 2351 004a 039B     		ldr	r3, [sp, #12]
 2352 004c 49B2     		sxtb	r1, r1
 2353              	.LVL217:
 2354 004e 0094     		str	r4, [sp]
 2355 0050 0122     		mov	r2, #1
 2356 0052 FFF7FEFF 		bl	drawFastHLine
 2357              	.LVL218:
 2358              		.loc 1 320 0
 2359 0056 381C     		mov	r0, r7
 2360 0058 291C     		mov	r1, r5
 2361 005a 039B     		ldr	r3, [sp, #12]
 2362 005c 0094     		str	r4, [sp]
 2363 005e 0422     		mov	r2, #4
 2364 0060 FFF7FEFF 		bl	drawFastVLine
 2365              	.LVL219:
 321:.\LED_Matrix.c **** 	drawFastHLine(x0+2,y0,2,c,matrix);
 322:.\LED_Matrix.c **** 	drawPixel(x0+5,y0+1,c,matrix);
 2366              		.loc 1 322 0
 2367 0064 0536     		add	r6, r6, #5
 2368              	.LVL220:
 321:.\LED_Matrix.c **** 	drawFastHLine(x0+2,y0,2,c,matrix);
 2369              		.loc 1 321 0
 2370 0066 4846     		mov	r0, r9
 2371 0068 4146     		mov	r1, r8
 2372 006a 039B     		ldr	r3, [sp, #12]
 2373 006c 0094     		str	r4, [sp]
 2374 006e 0222     		mov	r2, #2
ARM GAS  C:\Users\Computer\AppData\Local\Temp\cc1tHs0g.s 			page 53


 2375 0070 FFF7FEFF 		bl	drawFastHLine
 2376              	.LVL221:
 2377              		.loc 1 322 0
 2378 0074 70B2     		sxtb	r0, r6
 2379 0076 291C     		mov	r1, r5
 2380 0078 039A     		ldr	r2, [sp, #12]
 2381 007a 231C     		mov	r3, r4
 2382 007c FFF7FEFF 		bl	drawPixel
 2383              	.LVL222:
 323:.\LED_Matrix.c **** }
 2384              		.loc 1 323 0
 2385 0080 05B0     		add	sp, sp, #20
 2386              		@ sp needed for prologue
 2387              	.LVL223:
 2388              	.LVL224:
 2389 0082 0CBC     		pop	{r2, r3}
 2390 0084 9046     		mov	r8, r2
 2391 0086 9946     		mov	r9, r3
 2392 0088 F0BD     		pop	{r4, r5, r6, r7, pc}
 2393              		.cfi_endproc
 2394              	.LFE48:
 2395              		.size	drawThree, .-drawThree
 2396 008a C046     		.section	.text.drawFour,"ax",%progbits
 2397              		.align	2
 2398              		.global	drawFour
 2399              		.code	16
 2400              		.thumb_func
 2401              		.type	drawFour, %function
 2402              	drawFour:
 2403              	.LFB49:
 324:.\LED_Matrix.c **** 
 325:.\LED_Matrix.c **** void drawFour(int8 x0, int8 y0,RGB c, color *matrix)
 326:.\LED_Matrix.c **** {
 2404              		.loc 1 326 0
 2405              		.cfi_startproc
 2406              	.LVL225:
 2407 0000 F0B5     		push	{r4, r5, r6, r7, lr}
 2408              	.LCFI39:
 2409              		.cfi_def_cfa_offset 20
 2410              		.cfi_offset 4, -20
 2411              		.cfi_offset 5, -16
 2412              		.cfi_offset 6, -12
 2413              		.cfi_offset 7, -8
 2414              		.cfi_offset 14, -4
 327:.\LED_Matrix.c **** 	drawFastVLine(x0+5,y0+6,5,c,matrix);
 2415              		.loc 1 327 0
 2416 0002 C5B2     		uxtb	r5, r0
 2417 0004 CFB2     		uxtb	r7, r1
 326:.\LED_Matrix.c **** {
 2418              		.loc 1 326 0
 2419 0006 85B0     		sub	sp, sp, #20
 2420              	.LCFI40:
 2421              		.cfi_def_cfa_offset 40
 326:.\LED_Matrix.c **** {
 2422              		.loc 1 326 0
 2423 0008 9446     		mov	ip, r2
 2424 000a 0E1C     		mov	r6, r1
ARM GAS  C:\Users\Computer\AppData\Local\Temp\cc1tHs0g.s 			page 54


 2425              		.loc 1 327 0
 2426 000c 681D     		add	r0, r5, #5
 2427              	.LVL226:
 2428 000e B91D     		add	r1, r7, #6
 2429              	.LVL227:
 326:.\LED_Matrix.c **** {
 2430              		.loc 1 326 0
 2431 0010 1C1C     		mov	r4, r3
 2432 0012 0392     		str	r2, [sp, #12]
 2433              		.loc 1 327 0
 2434 0014 0093     		str	r3, [sp]
 2435 0016 40B2     		sxtb	r0, r0
 2436 0018 6346     		mov	r3, ip
 2437              	.LVL228:
 2438 001a 49B2     		sxtb	r1, r1
 2439 001c 0522     		mov	r2, #5
 2440 001e FFF7FEFF 		bl	drawFastVLine
 2441              	.LVL229:
 328:.\LED_Matrix.c **** 	drawFastHLine(x0+1,y0+5,4,c,matrix);
 2442              		.loc 1 328 0
 2443 0022 0537     		add	r7, r7, #5
 2444              	.LVL230:
 2445 0024 6A1C     		add	r2, r5, #1
 2446 0026 50B2     		sxtb	r0, r2
 2447 0028 79B2     		sxtb	r1, r7
 2448 002a 039B     		ldr	r3, [sp, #12]
 2449 002c 0094     		str	r4, [sp]
 2450 002e 0422     		mov	r2, #4
 329:.\LED_Matrix.c **** 	drawFastVLine(x0+2,y0,11,c,matrix);
 2451              		.loc 1 329 0
 2452 0030 0235     		add	r5, r5, #2
 2453              	.LVL231:
 328:.\LED_Matrix.c **** 	drawFastHLine(x0+1,y0+5,4,c,matrix);
 2454              		.loc 1 328 0
 2455 0032 FFF7FEFF 		bl	drawFastHLine
 2456              	.LVL232:
 2457              		.loc 1 329 0
 2458 0036 68B2     		sxtb	r0, r5
 2459 0038 0094     		str	r4, [sp]
 2460 003a 311C     		mov	r1, r6
 2461 003c 0B22     		mov	r2, #11
 2462 003e 039B     		ldr	r3, [sp, #12]
 2463 0040 FFF7FEFF 		bl	drawFastVLine
 2464              	.LVL233:
 330:.\LED_Matrix.c **** }
 2465              		.loc 1 330 0
 2466 0044 05B0     		add	sp, sp, #20
 2467              		@ sp needed for prologue
 2468              	.LVL234:
 2469              	.LVL235:
 2470              	.LVL236:
 2471 0046 F0BD     		pop	{r4, r5, r6, r7, pc}
 2472              		.cfi_endproc
 2473              	.LFE49:
 2474              		.size	drawFour, .-drawFour
 2475              		.section	.text.drawFive,"ax",%progbits
 2476              		.align	2
ARM GAS  C:\Users\Computer\AppData\Local\Temp\cc1tHs0g.s 			page 55


 2477              		.global	drawFive
 2478              		.code	16
 2479              		.thumb_func
 2480              		.type	drawFive, %function
 2481              	drawFive:
 2482              	.LFB50:
 331:.\LED_Matrix.c **** 
 332:.\LED_Matrix.c **** void drawFive(int8 x0, int8 y0,RGB c, color *matrix)
 333:.\LED_Matrix.c **** {
 2483              		.loc 1 333 0
 2484              		.cfi_startproc
 2485              	.LVL237:
 2486 0000 F0B5     		push	{r4, r5, r6, r7, lr}
 2487              	.LCFI41:
 2488              		.cfi_def_cfa_offset 20
 2489              		.cfi_offset 4, -20
 2490              		.cfi_offset 5, -16
 2491              		.cfi_offset 6, -12
 2492              		.cfi_offset 7, -8
 2493              		.cfi_offset 14, -4
 2494 0002 4F46     		mov	r7, r9
 2495 0004 4646     		mov	r6, r8
 2496 0006 C0B4     		push	{r6, r7}
 2497              	.LCFI42:
 2498              		.cfi_def_cfa_offset 28
 2499              		.cfi_offset 8, -28
 2500              		.cfi_offset 9, -24
 334:.\LED_Matrix.c **** 	drawFastHLine(x0+1,y0+11,4,c,matrix);
 2501              		.loc 1 334 0
 2502 0008 CDB2     		uxtb	r5, r1
 2503 000a C6B2     		uxtb	r6, r0
 333:.\LED_Matrix.c **** {
 2504              		.loc 1 333 0
 2505 000c 8846     		mov	r8, r1
 2506              		.loc 1 334 0
 2507 000e 291C     		mov	r1, r5
 333:.\LED_Matrix.c **** {
 2508              		.loc 1 333 0
 2509 0010 85B0     		sub	sp, sp, #20
 2510              	.LCFI43:
 2511              		.cfi_def_cfa_offset 48
 333:.\LED_Matrix.c **** {
 2512              		.loc 1 333 0
 2513 0012 1C1C     		mov	r4, r3
 2514 0014 171C     		mov	r7, r2
 2515              		.loc 1 334 0
 2516 0016 731C     		add	r3, r6, #1
 2517              	.LVL238:
 2518 0018 0B31     		add	r1, r1, #11
 2519              	.LVL239:
 2520 001a 58B2     		sxtb	r0, r3
 2521              	.LVL240:
 333:.\LED_Matrix.c **** {
 2522              		.loc 1 333 0
 2523 001c 0392     		str	r2, [sp, #12]
 2524              		.loc 1 334 0
 2525 001e 3B1C     		mov	r3, r7
ARM GAS  C:\Users\Computer\AppData\Local\Temp\cc1tHs0g.s 			page 56


 2526 0020 49B2     		sxtb	r1, r1
 2527 0022 0094     		str	r4, [sp]
 2528 0024 0422     		mov	r2, #4
 335:.\LED_Matrix.c **** 	drawFastVLine(x0+5,y0+6,4,c,matrix);
 2529              		.loc 1 335 0
 2530 0026 771D     		add	r7, r6, #5
 334:.\LED_Matrix.c **** 	drawFastHLine(x0+1,y0+11,4,c,matrix);
 2531              		.loc 1 334 0
 2532 0028 8146     		mov	r9, r0
 2533              		.loc 1 335 0
 2534 002a 7FB2     		sxtb	r7, r7
 334:.\LED_Matrix.c **** 	drawFastHLine(x0+1,y0+11,4,c,matrix);
 2535              		.loc 1 334 0
 2536 002c FFF7FEFF 		bl	drawFastHLine
 2537              	.LVL241:
 2538              		.loc 1 335 0
 2539 0030 AB1D     		add	r3, r5, #6
 2540 0032 59B2     		sxtb	r1, r3
 2541 0034 381C     		mov	r0, r7
 2542 0036 039B     		ldr	r3, [sp, #12]
 2543 0038 0094     		str	r4, [sp]
 2544 003a 0422     		mov	r2, #4
 336:.\LED_Matrix.c ****     drawFastHLine(x0+2,y0+5,2,c,matrix);
 2545              		.loc 1 336 0
 2546 003c 0236     		add	r6, r6, #2
 2547              	.LVL242:
 335:.\LED_Matrix.c **** 	drawFastVLine(x0+5,y0+6,4,c,matrix);
 2548              		.loc 1 335 0
 2549 003e FFF7FEFF 		bl	drawFastVLine
 2550              	.LVL243:
 2551              		.loc 1 336 0
 2552 0042 76B2     		sxtb	r6, r6
 2553              	.LVL244:
 2554 0044 6A1D     		add	r2, r5, #5
 337:.\LED_Matrix.c **** 	drawFastVLine(x0+1,y0+1,3,c,matrix);
 2555              		.loc 1 337 0
 2556 0046 0135     		add	r5, r5, #1
 2557              	.LVL245:
 336:.\LED_Matrix.c ****     drawFastHLine(x0+2,y0+5,2,c,matrix);
 2558              		.loc 1 336 0
 2559 0048 51B2     		sxtb	r1, r2
 2560 004a 301C     		mov	r0, r6
 2561 004c 039B     		ldr	r3, [sp, #12]
 2562              		.loc 1 337 0
 2563 004e 6DB2     		sxtb	r5, r5
 2564              	.LVL246:
 336:.\LED_Matrix.c ****     drawFastHLine(x0+2,y0+5,2,c,matrix);
 2565              		.loc 1 336 0
 2566 0050 0094     		str	r4, [sp]
 2567 0052 0222     		mov	r2, #2
 2568              	.LVL247:
 2569 0054 FFF7FEFF 		bl	drawFastHLine
 2570              	.LVL248:
 2571              		.loc 1 337 0
 2572 0058 4846     		mov	r0, r9
 2573 005a 291C     		mov	r1, r5
 2574 005c 039B     		ldr	r3, [sp, #12]
ARM GAS  C:\Users\Computer\AppData\Local\Temp\cc1tHs0g.s 			page 57


 2575 005e 0094     		str	r4, [sp]
 2576 0060 0322     		mov	r2, #3
 2577 0062 FFF7FEFF 		bl	drawFastVLine
 2578              	.LVL249:
 338:.\LED_Matrix.c ****     drawFastHLine(x0+2,y0,2,c,matrix);
 2579              		.loc 1 338 0
 2580 0066 301C     		mov	r0, r6
 2581 0068 4146     		mov	r1, r8
 2582 006a 039B     		ldr	r3, [sp, #12]
 2583 006c 0094     		str	r4, [sp]
 2584 006e 0222     		mov	r2, #2
 2585 0070 FFF7FEFF 		bl	drawFastHLine
 2586              	.LVL250:
 339:.\LED_Matrix.c **** 	drawPixel(x0+5,y0+1,c,matrix);
 2587              		.loc 1 339 0
 2588 0074 381C     		mov	r0, r7
 2589 0076 291C     		mov	r1, r5
 2590 0078 039A     		ldr	r2, [sp, #12]
 2591 007a 231C     		mov	r3, r4
 2592 007c FFF7FEFF 		bl	drawPixel
 2593              	.LVL251:
 340:.\LED_Matrix.c **** }
 2594              		.loc 1 340 0
 2595 0080 05B0     		add	sp, sp, #20
 2596              		@ sp needed for prologue
 2597              	.LVL252:
 2598 0082 0CBC     		pop	{r2, r3}
 2599 0084 9046     		mov	r8, r2
 2600 0086 9946     		mov	r9, r3
 2601 0088 F0BD     		pop	{r4, r5, r6, r7, pc}
 2602              		.cfi_endproc
 2603              	.LFE50:
 2604              		.size	drawFive, .-drawFive
 2605 008a C046     		.section	.text.drawSix,"ax",%progbits
 2606              		.align	2
 2607              		.global	drawSix
 2608              		.code	16
 2609              		.thumb_func
 2610              		.type	drawSix, %function
 2611              	drawSix:
 2612              	.LFB51:
 341:.\LED_Matrix.c **** void drawSix(int8 x0, int8 y0,RGB c, color *matrix)
 342:.\LED_Matrix.c **** {
 2613              		.loc 1 342 0
 2614              		.cfi_startproc
 2615              	.LVL253:
 2616 0000 F0B5     		push	{r4, r5, r6, r7, lr}
 2617              	.LCFI44:
 2618              		.cfi_def_cfa_offset 20
 2619              		.cfi_offset 4, -20
 2620              		.cfi_offset 5, -16
 2621              		.cfi_offset 6, -12
 2622              		.cfi_offset 7, -8
 2623              		.cfi_offset 14, -4
 2624 0002 4F46     		mov	r7, r9
 2625 0004 4646     		mov	r6, r8
 2626 0006 C0B4     		push	{r6, r7}
ARM GAS  C:\Users\Computer\AppData\Local\Temp\cc1tHs0g.s 			page 58


 2627              	.LCFI45:
 2628              		.cfi_def_cfa_offset 28
 2629              		.cfi_offset 8, -28
 2630              		.cfi_offset 9, -24
 343:.\LED_Matrix.c **** 	drawFastHLine(x0+1,y0+11,3,c,matrix);
 2631              		.loc 1 343 0
 2632 0008 CEB2     		uxtb	r6, r1
 2633 000a C5B2     		uxtb	r5, r0
 342:.\LED_Matrix.c **** {
 2634              		.loc 1 342 0
 2635 000c 0F1C     		mov	r7, r1
 2636              		.loc 1 343 0
 2637 000e 311C     		mov	r1, r6
 342:.\LED_Matrix.c **** {
 2638              		.loc 1 342 0
 2639 0010 85B0     		sub	sp, sp, #20
 2640              	.LCFI46:
 2641              		.cfi_def_cfa_offset 48
 342:.\LED_Matrix.c **** {
 2642              		.loc 1 342 0
 2643 0012 9446     		mov	ip, r2
 2644 0014 1C1C     		mov	r4, r3
 2645              		.loc 1 343 0
 2646 0016 0B31     		add	r1, r1, #11
 2647              	.LVL254:
 2648 0018 6B1C     		add	r3, r5, #1
 2649              	.LVL255:
 2650 001a 58B2     		sxtb	r0, r3
 2651              	.LVL256:
 342:.\LED_Matrix.c **** {
 2652              		.loc 1 342 0
 2653 001c 0392     		str	r2, [sp, #12]
 2654              		.loc 1 343 0
 2655 001e 6346     		mov	r3, ip
 2656 0020 49B2     		sxtb	r1, r1
 2657 0022 0094     		str	r4, [sp]
 2658 0024 0322     		mov	r2, #3
 2659 0026 8046     		mov	r8, r0
 2660 0028 FFF7FEFF 		bl	drawFastHLine
 2661              	.LVL257:
 344:.\LED_Matrix.c **** 	drawFastVLine(x0+1,y0+1,4,c,matrix);
 2662              		.loc 1 344 0
 2663 002c 721C     		add	r2, r6, #1
 2664 002e 53B2     		sxtb	r3, r2
 2665 0030 9946     		mov	r9, r3
 2666 0032 4046     		mov	r0, r8
 2667 0034 191C     		mov	r1, r3
 2668 0036 0094     		str	r4, [sp]
 2669 0038 039B     		ldr	r3, [sp, #12]
 2670 003a 0422     		mov	r2, #4
 2671 003c FFF7FEFF 		bl	drawFastVLine
 2672              	.LVL258:
 345:.\LED_Matrix.c **** 	drawFastHLine(x0+2,y0+6,2,c,matrix);
 2673              		.loc 1 345 0
 2674 0040 A81C     		add	r0, r5, #2
 2675 0042 41B2     		sxtb	r1, r0
 2676 0044 8846     		mov	r8, r1
ARM GAS  C:\Users\Computer\AppData\Local\Temp\cc1tHs0g.s 			page 59


 2677 0046 0636     		add	r6, r6, #6
 2678              	.LVL259:
 2679 0048 71B2     		sxtb	r1, r6
 2680 004a 4046     		mov	r0, r8
 2681 004c 039B     		ldr	r3, [sp, #12]
 2682 004e 0094     		str	r4, [sp]
 2683 0050 0222     		mov	r2, #2
 346:.\LED_Matrix.c **** 	drawFastVLine(x0+5,y0+1,9,c,matrix);
 2684              		.loc 1 346 0
 2685 0052 0535     		add	r5, r5, #5
 2686              	.LVL260:
 345:.\LED_Matrix.c **** 	drawFastHLine(x0+2,y0+6,2,c,matrix);
 2687              		.loc 1 345 0
 2688 0054 FFF7FEFF 		bl	drawFastHLine
 2689              	.LVL261:
 2690              		.loc 1 346 0
 2691 0058 68B2     		sxtb	r0, r5
 2692 005a 4946     		mov	r1, r9
 2693 005c 039B     		ldr	r3, [sp, #12]
 2694 005e 0094     		str	r4, [sp]
 2695 0060 0922     		mov	r2, #9
 2696 0062 FFF7FEFF 		bl	drawFastVLine
 2697              	.LVL262:
 347:.\LED_Matrix.c **** 	drawFastHLine(x0+2,y0,2,c,matrix);
 2698              		.loc 1 347 0
 2699 0066 0094     		str	r4, [sp]
 2700 0068 4046     		mov	r0, r8
 2701 006a 391C     		mov	r1, r7
 2702 006c 0222     		mov	r2, #2
 2703 006e 039B     		ldr	r3, [sp, #12]
 2704 0070 FFF7FEFF 		bl	drawFastHLine
 2705              	.LVL263:
 348:.\LED_Matrix.c **** }
 2706              		.loc 1 348 0
 2707 0074 05B0     		add	sp, sp, #20
 2708              		@ sp needed for prologue
 2709              	.LVL264:
 2710              	.LVL265:
 2711              	.LVL266:
 2712 0076 0CBC     		pop	{r2, r3}
 2713 0078 9046     		mov	r8, r2
 2714 007a 9946     		mov	r9, r3
 2715 007c F0BD     		pop	{r4, r5, r6, r7, pc}
 2716              		.cfi_endproc
 2717              	.LFE51:
 2718              		.size	drawSix, .-drawSix
 2719 007e C046     		.section	.text.drawSeven,"ax",%progbits
 2720              		.align	2
 2721              		.global	drawSeven
 2722              		.code	16
 2723              		.thumb_func
 2724              		.type	drawSeven, %function
 2725              	drawSeven:
 2726              	.LFB52:
 349:.\LED_Matrix.c **** 
 350:.\LED_Matrix.c **** void drawSeven(int8 x0, int8 y0,RGB c, color *matrix)
 351:.\LED_Matrix.c **** {
ARM GAS  C:\Users\Computer\AppData\Local\Temp\cc1tHs0g.s 			page 60


 2727              		.loc 1 351 0
 2728              		.cfi_startproc
 2729              	.LVL267:
 2730 0000 F0B5     		push	{r4, r5, r6, r7, lr}
 2731              	.LCFI47:
 2732              		.cfi_def_cfa_offset 20
 2733              		.cfi_offset 4, -20
 2734              		.cfi_offset 5, -16
 2735              		.cfi_offset 6, -12
 2736              		.cfi_offset 7, -8
 2737              		.cfi_offset 14, -4
 352:.\LED_Matrix.c **** 	drawPixel(x0+5,y0+10,c,matrix);
 2738              		.loc 1 352 0
 2739 0002 CFB2     		uxtb	r7, r1
 351:.\LED_Matrix.c **** {
 2740              		.loc 1 351 0
 2741 0004 0D1C     		mov	r5, r1
 2742              		.loc 1 352 0
 2743 0006 C6B2     		uxtb	r6, r0
 2744 0008 391C     		mov	r1, r7
 2745 000a 701D     		add	r0, r6, #5
 2746              	.LVL268:
 2747 000c 0A31     		add	r1, r1, #10
 2748              	.LVL269:
 353:.\LED_Matrix.c **** 	drawFastHLine(x0+1,y0+11,4,c,matrix);
 2749              		.loc 1 353 0
 2750 000e 0136     		add	r6, r6, #1
 2751              	.LVL270:
 351:.\LED_Matrix.c **** {
 2752              		.loc 1 351 0
 2753 0010 85B0     		sub	sp, sp, #20
 2754              	.LCFI48:
 2755              		.cfi_def_cfa_offset 40
 351:.\LED_Matrix.c **** {
 2756              		.loc 1 351 0
 2757 0012 1C1C     		mov	r4, r3
 2758              		.loc 1 353 0
 2759 0014 76B2     		sxtb	r6, r6
 2760              	.LVL271:
 352:.\LED_Matrix.c **** 	drawPixel(x0+5,y0+10,c,matrix);
 2761              		.loc 1 352 0
 2762 0016 40B2     		sxtb	r0, r0
 2763              	.LVL272:
 2764 0018 49B2     		sxtb	r1, r1
 2765              		.loc 1 353 0
 2766 001a 0B37     		add	r7, r7, #11
 2767              	.LVL273:
 351:.\LED_Matrix.c **** {
 2768              		.loc 1 351 0
 2769 001c 0392     		str	r2, [sp, #12]
 352:.\LED_Matrix.c **** 	drawPixel(x0+5,y0+10,c,matrix);
 2770              		.loc 1 352 0
 2771 001e FFF7FEFF 		bl	drawPixel
 2772              	.LVL274:
 2773              		.loc 1 353 0
 2774 0022 79B2     		sxtb	r1, r7
 2775 0024 301C     		mov	r0, r6
ARM GAS  C:\Users\Computer\AppData\Local\Temp\cc1tHs0g.s 			page 61


 2776 0026 039B     		ldr	r3, [sp, #12]
 2777 0028 0094     		str	r4, [sp]
 2778 002a 0422     		mov	r2, #4
 2779 002c FFF7FEFF 		bl	drawFastHLine
 2780              	.LVL275:
 354:.\LED_Matrix.c **** 	drawFastVLine(x0+1,y0,11,c,matrix);
 2781              		.loc 1 354 0
 2782 0030 0094     		str	r4, [sp]
 2783 0032 301C     		mov	r0, r6
 2784 0034 291C     		mov	r1, r5
 2785 0036 0B22     		mov	r2, #11
 2786 0038 039B     		ldr	r3, [sp, #12]
 2787 003a FFF7FEFF 		bl	drawFastVLine
 2788              	.LVL276:
 355:.\LED_Matrix.c **** }
 2789              		.loc 1 355 0
 2790 003e 05B0     		add	sp, sp, #20
 2791              		@ sp needed for prologue
 2792              	.LVL277:
 2793              	.LVL278:
 2794 0040 F0BD     		pop	{r4, r5, r6, r7, pc}
 2795              		.cfi_endproc
 2796              	.LFE52:
 2797              		.size	drawSeven, .-drawSeven
 2798 0042 C046     		.section	.text.drawEight,"ax",%progbits
 2799              		.align	2
 2800              		.global	drawEight
 2801              		.code	16
 2802              		.thumb_func
 2803              		.type	drawEight, %function
 2804              	drawEight:
 2805              	.LFB53:
 356:.\LED_Matrix.c **** 
 357:.\LED_Matrix.c **** void drawEight(int8 x0, int8 y0,RGB c, color *matrix)
 358:.\LED_Matrix.c **** {
 2806              		.loc 1 358 0
 2807              		.cfi_startproc
 2808              	.LVL279:
 2809 0000 F0B5     		push	{r4, r5, r6, r7, lr}
 2810              	.LCFI49:
 2811              		.cfi_def_cfa_offset 20
 2812              		.cfi_offset 4, -20
 2813              		.cfi_offset 5, -16
 2814              		.cfi_offset 6, -12
 2815              		.cfi_offset 7, -8
 2816              		.cfi_offset 14, -4
 2817 0002 4746     		mov	r7, r8
 2818 0004 80B4     		push	{r7}
 2819              	.LCFI50:
 2820              		.cfi_def_cfa_offset 24
 2821              		.cfi_offset 8, -24
 359:.\LED_Matrix.c **** 	drawFastHLine(x0+2,y0,2,c,matrix);
 2822              		.loc 1 359 0
 2823 0006 C6B2     		uxtb	r6, r0
 2824 0008 B71C     		add	r7, r6, #2
 358:.\LED_Matrix.c **** {
 2825              		.loc 1 358 0
ARM GAS  C:\Users\Computer\AppData\Local\Temp\cc1tHs0g.s 			page 62


 2826 000a 84B0     		sub	sp, sp, #16
 2827              	.LCFI51:
 2828              		.cfi_def_cfa_offset 40
 358:.\LED_Matrix.c **** {
 2829              		.loc 1 358 0
 2830 000c 9446     		mov	ip, r2
 2831              		.loc 1 359 0
 2832 000e 7FB2     		sxtb	r7, r7
 358:.\LED_Matrix.c **** {
 2833              		.loc 1 358 0
 2834 0010 0D1C     		mov	r5, r1
 2835 0012 1C1C     		mov	r4, r3
 360:.\LED_Matrix.c **** 	drawFastHLine(x0+2,y0+6,2,c,matrix);
 2836              		.loc 1 360 0
 2837 0014 EDB2     		uxtb	r5, r5
 358:.\LED_Matrix.c **** {
 2838              		.loc 1 358 0
 2839 0016 0392     		str	r2, [sp, #12]
 359:.\LED_Matrix.c **** 	drawFastHLine(x0+2,y0,2,c,matrix);
 2840              		.loc 1 359 0
 2841 0018 0093     		str	r3, [sp]
 2842 001a 381C     		mov	r0, r7
 2843              	.LVL280:
 2844 001c 6346     		mov	r3, ip
 2845              	.LVL281:
 2846 001e 0222     		mov	r2, #2
 2847 0020 FFF7FEFF 		bl	drawFastHLine
 2848              	.LVL282:
 2849              		.loc 1 360 0
 2850 0024 A91D     		add	r1, r5, #6
 2851 0026 381C     		mov	r0, r7
 2852 0028 039B     		ldr	r3, [sp, #12]
 2853 002a 49B2     		sxtb	r1, r1
 2854 002c 0094     		str	r4, [sp]
 2855 002e 0222     		mov	r2, #2
 2856 0030 FFF7FEFF 		bl	drawFastHLine
 2857              	.LVL283:
 361:.\LED_Matrix.c **** 	drawFastHLine(x0+2,y0+11,2,c,matrix);
 2858              		.loc 1 361 0
 2859 0034 281C     		mov	r0, r5
 2860 0036 0B30     		add	r0, r0, #11
 2861 0038 41B2     		sxtb	r1, r0
 2862 003a 039B     		ldr	r3, [sp, #12]
 2863 003c 381C     		mov	r0, r7
 2864 003e 0094     		str	r4, [sp]
 2865 0040 0222     		mov	r2, #2
 2866 0042 FFF7FEFF 		bl	drawFastHLine
 2867              	.LVL284:
 362:.\LED_Matrix.c **** 	drawFastVLine(x0+1,y0+1,4,c,matrix);
 2868              		.loc 1 362 0
 2869 0046 721C     		add	r2, r6, #1
 2870 0048 6B1C     		add	r3, r5, #1
 2871 004a 57B2     		sxtb	r7, r2
 2872 004c 59B2     		sxtb	r1, r3
 363:.\LED_Matrix.c **** 	drawFastVLine(x0+5,y0+1,4,c,matrix);
 2873              		.loc 1 363 0
 2874 004e 0536     		add	r6, r6, #5
ARM GAS  C:\Users\Computer\AppData\Local\Temp\cc1tHs0g.s 			page 63


 2875              	.LVL285:
 362:.\LED_Matrix.c **** 	drawFastVLine(x0+1,y0+1,4,c,matrix);
 2876              		.loc 1 362 0
 2877 0050 8846     		mov	r8, r1
 2878 0052 381C     		mov	r0, r7
 2879 0054 039B     		ldr	r3, [sp, #12]
 2880              		.loc 1 363 0
 2881 0056 76B2     		sxtb	r6, r6
 2882              	.LVL286:
 362:.\LED_Matrix.c **** 	drawFastVLine(x0+1,y0+1,4,c,matrix);
 2883              		.loc 1 362 0
 2884 0058 0094     		str	r4, [sp]
 2885 005a 0422     		mov	r2, #4
 2886              	.LVL287:
 364:.\LED_Matrix.c **** 	drawFastVLine(x0+1,y0+7,3,c,matrix);
 2887              		.loc 1 364 0
 2888 005c 0735     		add	r5, r5, #7
 362:.\LED_Matrix.c **** 	drawFastVLine(x0+1,y0+1,4,c,matrix);
 2889              		.loc 1 362 0
 2890 005e FFF7FEFF 		bl	drawFastVLine
 2891              	.LVL288:
 2892              		.loc 1 364 0
 2893 0062 6DB2     		sxtb	r5, r5
 363:.\LED_Matrix.c **** 	drawFastVLine(x0+5,y0+1,4,c,matrix);
 2894              		.loc 1 363 0
 2895 0064 301C     		mov	r0, r6
 2896 0066 4146     		mov	r1, r8
 2897 0068 039B     		ldr	r3, [sp, #12]
 2898 006a 0094     		str	r4, [sp]
 2899 006c 0422     		mov	r2, #4
 2900 006e FFF7FEFF 		bl	drawFastVLine
 2901              	.LVL289:
 2902              		.loc 1 364 0
 2903 0072 381C     		mov	r0, r7
 2904 0074 291C     		mov	r1, r5
 2905 0076 039B     		ldr	r3, [sp, #12]
 2906 0078 0094     		str	r4, [sp]
 2907 007a 0322     		mov	r2, #3
 2908 007c FFF7FEFF 		bl	drawFastVLine
 2909              	.LVL290:
 365:.\LED_Matrix.c **** 	drawFastVLine(x0+5,y0+7,3,c,matrix);
 2910              		.loc 1 365 0
 2911 0080 0094     		str	r4, [sp]
 2912 0082 301C     		mov	r0, r6
 2913 0084 291C     		mov	r1, r5
 2914 0086 0322     		mov	r2, #3
 2915 0088 039B     		ldr	r3, [sp, #12]
 2916 008a FFF7FEFF 		bl	drawFastVLine
 2917              	.LVL291:
 366:.\LED_Matrix.c **** }
 2918              		.loc 1 366 0
 2919 008e 04B0     		add	sp, sp, #16
 2920              		@ sp needed for prologue
 2921              	.LVL292:
 2922 0090 04BC     		pop	{r2}
 2923 0092 9046     		mov	r8, r2
 2924 0094 F0BD     		pop	{r4, r5, r6, r7, pc}
ARM GAS  C:\Users\Computer\AppData\Local\Temp\cc1tHs0g.s 			page 64


 2925              		.cfi_endproc
 2926              	.LFE53:
 2927              		.size	drawEight, .-drawEight
 2928 0096 C046     		.section	.text.drawNine,"ax",%progbits
 2929              		.align	2
 2930              		.global	drawNine
 2931              		.code	16
 2932              		.thumb_func
 2933              		.type	drawNine, %function
 2934              	drawNine:
 2935              	.LFB54:
 367:.\LED_Matrix.c **** 
 368:.\LED_Matrix.c **** void drawNine(int8 x0, int8 y0,RGB c, color *matrix)
 369:.\LED_Matrix.c **** {
 2936              		.loc 1 369 0
 2937              		.cfi_startproc
 2938              	.LVL293:
 2939 0000 F0B5     		push	{r4, r5, r6, r7, lr}
 2940              	.LCFI52:
 2941              		.cfi_def_cfa_offset 20
 2942              		.cfi_offset 4, -20
 2943              		.cfi_offset 5, -16
 2944              		.cfi_offset 6, -12
 2945              		.cfi_offset 7, -8
 2946              		.cfi_offset 14, -4
 2947 0002 4746     		mov	r7, r8
 2948 0004 80B4     		push	{r7}
 2949              	.LCFI53:
 2950              		.cfi_def_cfa_offset 24
 2951              		.cfi_offset 8, -24
 370:.\LED_Matrix.c **** 	drawFastHLine(x0+2,y0+11,2,c,matrix);
 2952              		.loc 1 370 0
 2953 0006 CEB2     		uxtb	r6, r1
 2954 0008 C5B2     		uxtb	r5, r0
 369:.\LED_Matrix.c **** {
 2955              		.loc 1 369 0
 2956 000a 0F1C     		mov	r7, r1
 2957              		.loc 1 370 0
 2958 000c 311C     		mov	r1, r6
 369:.\LED_Matrix.c **** {
 2959              		.loc 1 369 0
 2960 000e 84B0     		sub	sp, sp, #16
 2961              	.LCFI54:
 2962              		.cfi_def_cfa_offset 40
 369:.\LED_Matrix.c **** {
 2963              		.loc 1 369 0
 2964 0010 9446     		mov	ip, r2
 2965 0012 1C1C     		mov	r4, r3
 2966              		.loc 1 370 0
 2967 0014 0B31     		add	r1, r1, #11
 2968              	.LVL294:
 2969 0016 AB1C     		add	r3, r5, #2
 2970              	.LVL295:
 2971 0018 58B2     		sxtb	r0, r3
 2972              	.LVL296:
 369:.\LED_Matrix.c **** {
 2973              		.loc 1 369 0
ARM GAS  C:\Users\Computer\AppData\Local\Temp\cc1tHs0g.s 			page 65


 2974 001a 0392     		str	r2, [sp, #12]
 2975              		.loc 1 370 0
 2976 001c 6346     		mov	r3, ip
 2977 001e 49B2     		sxtb	r1, r1
 2978 0020 0094     		str	r4, [sp]
 2979 0022 0222     		mov	r2, #2
 2980 0024 8046     		mov	r8, r0
 2981 0026 FFF7FEFF 		bl	drawFastHLine
 2982              	.LVL297:
 371:.\LED_Matrix.c **** 	drawFastHLine(x0+2,y0+6,2,c,matrix);
 2983              		.loc 1 371 0
 2984 002a B21D     		add	r2, r6, #6
 2985 002c 51B2     		sxtb	r1, r2
 2986 002e 4046     		mov	r0, r8
 2987 0030 039B     		ldr	r3, [sp, #12]
 2988 0032 0094     		str	r4, [sp]
 2989 0034 0222     		mov	r2, #2
 2990 0036 FFF7FEFF 		bl	drawFastHLine
 2991              	.LVL298:
 372:.\LED_Matrix.c **** 	drawFastVLine(x0+5,y0+7,3,c,matrix);
 2992              		.loc 1 372 0
 2993 003a 0736     		add	r6, r6, #7
 2994              	.LVL299:
 2995 003c 6B1D     		add	r3, r5, #5
 2996 003e 58B2     		sxtb	r0, r3
 2997 0040 71B2     		sxtb	r1, r6
 2998 0042 039B     		ldr	r3, [sp, #12]
 2999 0044 0094     		str	r4, [sp]
 3000 0046 0322     		mov	r2, #3
 373:.\LED_Matrix.c **** 	drawFastVLine(x0+1,y0,10,c,matrix);
 3001              		.loc 1 373 0
 3002 0048 0135     		add	r5, r5, #1
 3003              	.LVL300:
 372:.\LED_Matrix.c **** 	drawFastVLine(x0+5,y0+7,3,c,matrix);
 3004              		.loc 1 372 0
 3005 004a FFF7FEFF 		bl	drawFastVLine
 3006              	.LVL301:
 3007              		.loc 1 373 0
 3008 004e 68B2     		sxtb	r0, r5
 3009 0050 0094     		str	r4, [sp]
 3010 0052 391C     		mov	r1, r7
 3011 0054 0A22     		mov	r2, #10
 3012 0056 039B     		ldr	r3, [sp, #12]
 3013 0058 FFF7FEFF 		bl	drawFastVLine
 3014              	.LVL302:
 374:.\LED_Matrix.c **** }
 3015              		.loc 1 374 0
 3016 005c 04B0     		add	sp, sp, #16
 3017              		@ sp needed for prologue
 3018              	.LVL303:
 3019              	.LVL304:
 3020              	.LVL305:
 3021 005e 04BC     		pop	{r2}
 3022 0060 9046     		mov	r8, r2
 3023 0062 F0BD     		pop	{r4, r5, r6, r7, pc}
 3024              		.cfi_endproc
 3025              	.LFE54:
ARM GAS  C:\Users\Computer\AppData\Local\Temp\cc1tHs0g.s 			page 66


 3026              		.size	drawNine, .-drawNine
 3027              		.section	.text.drawZero,"ax",%progbits
 3028              		.align	2
 3029              		.global	drawZero
 3030              		.code	16
 3031              		.thumb_func
 3032              		.type	drawZero, %function
 3033              	drawZero:
 3034              	.LFB55:
 375:.\LED_Matrix.c **** 
 376:.\LED_Matrix.c **** void drawZero(int8 x0, int8 y0,RGB c, color *matrix)
 377:.\LED_Matrix.c **** {
 3035              		.loc 1 377 0
 3036              		.cfi_startproc
 3037              	.LVL306:
 3038 0000 F0B5     		push	{r4, r5, r6, r7, lr}
 3039              	.LCFI55:
 3040              		.cfi_def_cfa_offset 20
 3041              		.cfi_offset 4, -20
 3042              		.cfi_offset 5, -16
 3043              		.cfi_offset 6, -12
 3044              		.cfi_offset 7, -8
 3045              		.cfi_offset 14, -4
 3046 0002 4746     		mov	r7, r8
 3047 0004 80B4     		push	{r7}
 3048              	.LCFI56:
 3049              		.cfi_def_cfa_offset 24
 3050              		.cfi_offset 8, -24
 378:.\LED_Matrix.c **** 	drawFastHLine(x0+1,y0,2,c,matrix);
 3051              		.loc 1 378 0
 3052 0006 C6B2     		uxtb	r6, r0
 377:.\LED_Matrix.c **** {
 3053              		.loc 1 377 0
 3054 0008 84B0     		sub	sp, sp, #16
 3055              	.LCFI57:
 3056              		.cfi_def_cfa_offset 40
 377:.\LED_Matrix.c **** {
 3057              		.loc 1 377 0
 3058 000a 9446     		mov	ip, r2
 3059 000c 1C1C     		mov	r4, r3
 3060 000e 0D1C     		mov	r5, r1
 3061              		.loc 1 378 0
 3062 0010 731C     		add	r3, r6, #1
 3063              	.LVL307:
 377:.\LED_Matrix.c **** {
 3064              		.loc 1 377 0
 3065 0012 071C     		mov	r7, r0
 3066 0014 0392     		str	r2, [sp, #12]
 3067              		.loc 1 378 0
 3068 0016 58B2     		sxtb	r0, r3
 3069              	.LVL308:
 3070 0018 0094     		str	r4, [sp]
 3071 001a 6346     		mov	r3, ip
 3072 001c 0222     		mov	r2, #2
 379:.\LED_Matrix.c **** 	drawFastHLine(x0+1,y0+11,2,c,matrix);
 3073              		.loc 1 379 0
 3074 001e EDB2     		uxtb	r5, r5
ARM GAS  C:\Users\Computer\AppData\Local\Temp\cc1tHs0g.s 			page 67


 378:.\LED_Matrix.c **** 	drawFastHLine(x0+1,y0,2,c,matrix);
 3075              		.loc 1 378 0
 3076 0020 8046     		mov	r8, r0
 3077 0022 FFF7FEFF 		bl	drawFastHLine
 3078              	.LVL309:
 3079              		.loc 1 379 0
 3080 0026 291C     		mov	r1, r5
 3081 0028 0B31     		add	r1, r1, #11
 380:.\LED_Matrix.c **** 	drawFastVLine(x0,y0+1,9,c,matrix);
 3082              		.loc 1 380 0
 3083 002a 0135     		add	r5, r5, #1
 379:.\LED_Matrix.c **** 	drawFastHLine(x0+1,y0+11,2,c,matrix);
 3084              		.loc 1 379 0
 3085 002c 4046     		mov	r0, r8
 3086 002e 039B     		ldr	r3, [sp, #12]
 3087              		.loc 1 380 0
 3088 0030 6DB2     		sxtb	r5, r5
 379:.\LED_Matrix.c **** 	drawFastHLine(x0+1,y0+11,2,c,matrix);
 3089              		.loc 1 379 0
 3090 0032 49B2     		sxtb	r1, r1
 3091 0034 0094     		str	r4, [sp]
 3092 0036 0222     		mov	r2, #2
 3093 0038 FFF7FEFF 		bl	drawFastHLine
 3094              	.LVL310:
 381:.\LED_Matrix.c **** 	drawFastVLine(x0+4,y0+1,9,c,matrix);
 3095              		.loc 1 381 0
 3096 003c 0436     		add	r6, r6, #4
 3097              	.LVL311:
 380:.\LED_Matrix.c **** 	drawFastVLine(x0,y0+1,9,c,matrix);
 3098              		.loc 1 380 0
 3099 003e 381C     		mov	r0, r7
 3100 0040 291C     		mov	r1, r5
 3101 0042 039B     		ldr	r3, [sp, #12]
 3102 0044 0094     		str	r4, [sp]
 3103 0046 0922     		mov	r2, #9
 3104 0048 FFF7FEFF 		bl	drawFastVLine
 3105              	.LVL312:
 3106              		.loc 1 381 0
 3107 004c 70B2     		sxtb	r0, r6
 3108 004e 0094     		str	r4, [sp]
 3109 0050 291C     		mov	r1, r5
 3110 0052 0922     		mov	r2, #9
 3111 0054 039B     		ldr	r3, [sp, #12]
 3112 0056 FFF7FEFF 		bl	drawFastVLine
 3113              	.LVL313:
 382:.\LED_Matrix.c **** }
 3114              		.loc 1 382 0
 3115 005a 04B0     		add	sp, sp, #16
 3116              		@ sp needed for prologue
 3117              	.LVL314:
 3118              	.LVL315:
 3119 005c 04BC     		pop	{r2}
 3120 005e 9046     		mov	r8, r2
 3121 0060 F0BD     		pop	{r4, r5, r6, r7, pc}
 3122              		.cfi_endproc
 3123              	.LFE55:
 3124              		.size	drawZero, .-drawZero
ARM GAS  C:\Users\Computer\AppData\Local\Temp\cc1tHs0g.s 			page 68


 3125              		.section	.text.drawA,"ax",%progbits
 3126              		.align	2
 3127              		.global	drawA
 3128              		.code	16
 3129              		.thumb_func
 3130              		.type	drawA, %function
 3131              	drawA:
 3132              	.LFB56:
 383:.\LED_Matrix.c **** 
 384:.\LED_Matrix.c **** void drawA(int8 x0, int8 y0,RGB c, color *matrix)
 385:.\LED_Matrix.c **** {
 3133              		.loc 1 385 0
 3134              		.cfi_startproc
 3135              	.LVL316:
 3136 0000 F0B5     		push	{r4, r5, r6, r7, lr}
 3137              	.LCFI58:
 3138              		.cfi_def_cfa_offset 20
 3139              		.cfi_offset 4, -20
 3140              		.cfi_offset 5, -16
 3141              		.cfi_offset 6, -12
 3142              		.cfi_offset 7, -8
 3143              		.cfi_offset 14, -4
 3144 0002 5F46     		mov	r7, fp
 3145 0004 5646     		mov	r6, sl
 3146 0006 4D46     		mov	r5, r9
 3147 0008 4446     		mov	r4, r8
 3148 000a F0B4     		push	{r4, r5, r6, r7}
 3149              	.LCFI59:
 3150              		.cfi_def_cfa_offset 36
 3151              		.cfi_offset 8, -36
 3152              		.cfi_offset 9, -32
 3153              		.cfi_offset 10, -28
 3154              		.cfi_offset 11, -24
 3155 000c 061C     		mov	r6, r0
 3156 000e 85B0     		sub	sp, sp, #20
 3157              	.LCFI60:
 3158              		.cfi_def_cfa_offset 56
 3159              		.loc 1 385 0
 3160 0010 101C     		mov	r0, r2
 3161              	.LVL317:
 3162 0012 0392     		str	r2, [sp, #12]
 3163 0014 9346     		mov	fp, r2
 3164 0016 040C     		lsr	r4, r0, #16
 386:.\LED_Matrix.c **** 	drawLine(x0+2, y0, x0+4, y0+2, c, matrix);
 3165              		.loc 1 386 0
 3166 0018 F2B2     		uxtb	r2, r6
 385:.\LED_Matrix.c **** {
 3167              		.loc 1 385 0
 3168 001a A446     		mov	ip, r4
 3169              		.loc 1 386 0
 3170 001c CDB2     		uxtb	r5, r1
 385:.\LED_Matrix.c **** {
 3171              		.loc 1 385 0
 3172 001e 1C1C     		mov	r4, r3
 3173              		.loc 1 386 0
 3174 0020 131C     		mov	r3, r2
 3175              	.LVL318:
ARM GAS  C:\Users\Computer\AppData\Local\Temp\cc1tHs0g.s 			page 69


 3176 0022 9146     		mov	r9, r2
 3177 0024 0433     		add	r3, r3, #4
 3178 0026 2A1C     		mov	r2, r5
 3179 0028 0232     		add	r2, r2, #2
 3180 002a 5BB2     		sxtb	r3, r3
 3181 002c A846     		mov	r8, r5
 3182 002e 9A46     		mov	sl, r3
 3183 0030 55B2     		sxtb	r5, r2
 3184 0032 6B46     		mov	r3, sp
 3185 0034 5A46     		mov	r2, fp
 3186 0036 4846     		mov	r0, r9
 3187 0038 1A80     		strh	r2, [r3]
 3188 003a 0230     		add	r0, r0, #2
 3189 003c 6246     		mov	r2, ip
 3190 003e 9A70     		strb	r2, [r3, #2]
 3191 0040 40B2     		sxtb	r0, r0
 3192 0042 5246     		mov	r2, sl
 3193 0044 2B1C     		mov	r3, r5
 3194 0046 0194     		str	r4, [sp, #4]
 3195 0048 FFF7FEFF 		bl	drawLine
 3196              	.LVL319:
 387:.\LED_Matrix.c **** 	drawLine(x0, y0+2, x0+1, y0+1, c, matrix);
 3197              		.loc 1 387 0
 3198 004c 4946     		mov	r1, r9
 385:.\LED_Matrix.c **** {
 3199              		.loc 1 385 0
 3200 004e 03AF     		add	r7, sp, #12
 3201              		.loc 1 387 0
 3202 0050 0131     		add	r1, r1, #1
 3203 0052 48B2     		sxtb	r0, r1
 3204 0054 3988     		ldrh	r1, [r7]
 3205 0056 6A46     		mov	r2, sp
 3206 0058 1180     		strh	r1, [r2]
 3207 005a BF78     		ldrb	r7, [r7, #2]
 3208 005c 4346     		mov	r3, r8
 3209 005e 8346     		mov	fp, r0
 3210 0060 0133     		add	r3, r3, #1
 3211 0062 9770     		strb	r7, [r2, #2]
 3212 0064 301C     		mov	r0, r6
 3213 0066 291C     		mov	r1, r5
 3214 0068 5A46     		mov	r2, fp
 3215 006a 5BB2     		sxtb	r3, r3
 3216 006c 0194     		str	r4, [sp, #4]
 3217 006e FFF7FEFF 		bl	drawLine
 3218              	.LVL320:
 388:.\LED_Matrix.c **** 	drawFastHLine(x0+1,y0+7,2,c,matrix);
 3219              		.loc 1 388 0
 3220 0072 4046     		mov	r0, r8
 3221 0074 0730     		add	r0, r0, #7
 3222 0076 41B2     		sxtb	r1, r0
 3223 0078 039B     		ldr	r3, [sp, #12]
 3224 007a 5846     		mov	r0, fp
 3225 007c 0094     		str	r4, [sp]
 3226 007e 0222     		mov	r2, #2
 3227 0080 FFF7FEFF 		bl	drawFastHLine
 3228              	.LVL321:
 389:.\LED_Matrix.c **** 	drawFastVLine(x0+4,y0+2,9,c,matrix);
ARM GAS  C:\Users\Computer\AppData\Local\Temp\cc1tHs0g.s 			page 70


 3229              		.loc 1 389 0
 3230 0084 5046     		mov	r0, sl
 3231 0086 291C     		mov	r1, r5
 3232 0088 039B     		ldr	r3, [sp, #12]
 3233 008a 0094     		str	r4, [sp]
 3234 008c 0922     		mov	r2, #9
 3235 008e FFF7FEFF 		bl	drawFastVLine
 3236              	.LVL322:
 390:.\LED_Matrix.c **** 	drawFastVLine(x0,y0+2,9,c,matrix);
 3237              		.loc 1 390 0
 3238 0092 0094     		str	r4, [sp]
 3239 0094 301C     		mov	r0, r6
 3240 0096 291C     		mov	r1, r5
 3241 0098 0922     		mov	r2, #9
 3242 009a 039B     		ldr	r3, [sp, #12]
 3243 009c FFF7FEFF 		bl	drawFastVLine
 3244              	.LVL323:
 391:.\LED_Matrix.c **** }
 3245              		.loc 1 391 0
 3246 00a0 05B0     		add	sp, sp, #20
 3247              		@ sp needed for prologue
 3248              	.LVL324:
 3249              	.LVL325:
 3250 00a2 3CBC     		pop	{r2, r3, r4, r5}
 3251 00a4 9046     		mov	r8, r2
 3252 00a6 9946     		mov	r9, r3
 3253 00a8 A246     		mov	sl, r4
 3254 00aa AB46     		mov	fp, r5
 3255 00ac F0BD     		pop	{r4, r5, r6, r7, pc}
 3256              		.cfi_endproc
 3257              	.LFE56:
 3258              		.size	drawA, .-drawA
 3259 00ae C046     		.section	.text.drawB,"ax",%progbits
 3260              		.align	2
 3261              		.global	drawB
 3262              		.code	16
 3263              		.thumb_func
 3264              		.type	drawB, %function
 3265              	drawB:
 3266              	.LFB57:
 392:.\LED_Matrix.c **** 
 393:.\LED_Matrix.c **** void drawB(int8 x0, int8 y0,RGB c, color *matrix)
 394:.\LED_Matrix.c **** {
 3267              		.loc 1 394 0
 3268              		.cfi_startproc
 3269              	.LVL326:
 3270 0000 F0B5     		push	{r4, r5, r6, r7, lr}
 3271              	.LCFI61:
 3272              		.cfi_def_cfa_offset 20
 3273              		.cfi_offset 4, -20
 3274              		.cfi_offset 5, -16
 3275              		.cfi_offset 6, -12
 3276              		.cfi_offset 7, -8
 3277              		.cfi_offset 14, -4
 3278 0002 4F46     		mov	r7, r9
 3279 0004 4646     		mov	r6, r8
 3280 0006 C0B4     		push	{r6, r7}
ARM GAS  C:\Users\Computer\AppData\Local\Temp\cc1tHs0g.s 			page 71


 3281              	.LCFI62:
 3282              		.cfi_def_cfa_offset 28
 3283              		.cfi_offset 8, -28
 3284              		.cfi_offset 9, -24
 3285 0008 8146     		mov	r9, r0
 395:.\LED_Matrix.c **** 	drawFastHLine(x0+1,y0+5,3,c,matrix);
 3286              		.loc 1 395 0
 3287 000a C0B2     		uxtb	r0, r0
 3288 000c 061C     		mov	r6, r0
 3289 000e CDB2     		uxtb	r5, r1
 3290 0010 0136     		add	r6, r6, #1
 394:.\LED_Matrix.c **** {
 3291              		.loc 1 394 0
 3292 0012 85B0     		sub	sp, sp, #20
 3293              	.LCFI63:
 3294              		.cfi_def_cfa_offset 48
 394:.\LED_Matrix.c **** {
 3295              		.loc 1 394 0
 3296 0014 9446     		mov	ip, r2
 3297 0016 1C1C     		mov	r4, r3
 3298 0018 0F1C     		mov	r7, r1
 3299              		.loc 1 395 0
 3300 001a 76B2     		sxtb	r6, r6
 3301 001c 691D     		add	r1, r5, #5
 3302              	.LVL327:
 3303 001e 6346     		mov	r3, ip
 3304              	.LVL328:
 394:.\LED_Matrix.c **** {
 3305              		.loc 1 394 0
 3306 0020 0392     		str	r2, [sp, #12]
 3307              		.loc 1 395 0
 3308 0022 8046     		mov	r8, r0
 3309 0024 49B2     		sxtb	r1, r1
 3310 0026 301C     		mov	r0, r6
 3311              	.LVL329:
 3312 0028 0094     		str	r4, [sp]
 3313 002a 0322     		mov	r2, #3
 3314 002c FFF7FEFF 		bl	drawFastHLine
 3315              	.LVL330:
 396:.\LED_Matrix.c **** 	drawFastVLine(x0,y0,12,c,matrix);
 3316              		.loc 1 396 0
 3317 0030 4846     		mov	r0, r9
 3318 0032 391C     		mov	r1, r7
 3319 0034 039B     		ldr	r3, [sp, #12]
 3320 0036 0094     		str	r4, [sp]
 3321 0038 0C22     		mov	r2, #12
 3322 003a FFF7FEFF 		bl	drawFastVLine
 3323              	.LVL331:
 397:.\LED_Matrix.c **** 	drawFastVLine(x0+4,y0+1,4,c,matrix);
 3324              		.loc 1 397 0
 3325 003e 4246     		mov	r2, r8
 3326 0040 0432     		add	r2, r2, #4
 3327 0042 53B2     		sxtb	r3, r2
 3328 0044 681C     		add	r0, r5, #1
 3329 0046 9946     		mov	r9, r3
 3330 0048 41B2     		sxtb	r1, r0
 3331 004a 0094     		str	r4, [sp]
ARM GAS  C:\Users\Computer\AppData\Local\Temp\cc1tHs0g.s 			page 72


 3332 004c 181C     		mov	r0, r3
 3333 004e 0422     		mov	r2, #4
 3334 0050 039B     		ldr	r3, [sp, #12]
 3335 0052 FFF7FEFF 		bl	drawFastVLine
 3336              	.LVL332:
 398:.\LED_Matrix.c **** 	drawFastVLine(x0+4,y0+6,5,c,matrix);
 3337              		.loc 1 398 0
 3338 0056 A91D     		add	r1, r5, #6
 3339 0058 4846     		mov	r0, r9
 3340 005a 039B     		ldr	r3, [sp, #12]
 3341 005c 49B2     		sxtb	r1, r1
 3342 005e 0094     		str	r4, [sp]
 3343 0060 0522     		mov	r2, #5
 3344 0062 FFF7FEFF 		bl	drawFastVLine
 3345              	.LVL333:
 399:.\LED_Matrix.c **** 	drawFastHLine(x0+1,y0,3,c,matrix);
 400:.\LED_Matrix.c **** 	drawFastHLine(x0+1,y0+11,3,c,matrix);
 3346              		.loc 1 400 0
 3347 0066 0B35     		add	r5, r5, #11
 3348              	.LVL334:
 399:.\LED_Matrix.c **** 	drawFastHLine(x0+1,y0,3,c,matrix);
 3349              		.loc 1 399 0
 3350 0068 301C     		mov	r0, r6
 3351 006a 391C     		mov	r1, r7
 3352 006c 039B     		ldr	r3, [sp, #12]
 3353 006e 0094     		str	r4, [sp]
 3354 0070 0322     		mov	r2, #3
 3355 0072 FFF7FEFF 		bl	drawFastHLine
 3356              	.LVL335:
 3357              		.loc 1 400 0
 3358 0076 69B2     		sxtb	r1, r5
 3359 0078 0094     		str	r4, [sp]
 3360 007a 301C     		mov	r0, r6
 3361 007c 0322     		mov	r2, #3
 3362 007e 039B     		ldr	r3, [sp, #12]
 3363 0080 FFF7FEFF 		bl	drawFastHLine
 3364              	.LVL336:
 401:.\LED_Matrix.c **** }
 3365              		.loc 1 401 0
 3366 0084 05B0     		add	sp, sp, #20
 3367              		@ sp needed for prologue
 3368              	.LVL337:
 3369              	.LVL338:
 3370              	.LVL339:
 3371 0086 0CBC     		pop	{r2, r3}
 3372 0088 9046     		mov	r8, r2
 3373 008a 9946     		mov	r9, r3
 3374 008c F0BD     		pop	{r4, r5, r6, r7, pc}
 3375              		.cfi_endproc
 3376              	.LFE57:
 3377              		.size	drawB, .-drawB
 3378 008e C046     		.section	.text.drawC,"ax",%progbits
 3379              		.align	2
 3380              		.global	drawC
 3381              		.code	16
 3382              		.thumb_func
 3383              		.type	drawC, %function
ARM GAS  C:\Users\Computer\AppData\Local\Temp\cc1tHs0g.s 			page 73


 3384              	drawC:
 3385              	.LFB58:
 402:.\LED_Matrix.c **** 
 403:.\LED_Matrix.c **** void drawC(int8 x0, int8 y0,RGB c, color *matrix)
 404:.\LED_Matrix.c **** {
 3386              		.loc 1 404 0
 3387              		.cfi_startproc
 3388              	.LVL340:
 3389 0000 F0B5     		push	{r4, r5, r6, r7, lr}
 3390              	.LCFI64:
 3391              		.cfi_def_cfa_offset 20
 3392              		.cfi_offset 4, -20
 3393              		.cfi_offset 5, -16
 3394              		.cfi_offset 6, -12
 3395              		.cfi_offset 7, -8
 3396              		.cfi_offset 14, -4
 3397 0002 4746     		mov	r7, r8
 3398 0004 80B4     		push	{r7}
 3399              	.LCFI65:
 3400              		.cfi_def_cfa_offset 24
 3401              		.cfi_offset 8, -24
 405:.\LED_Matrix.c **** 	drawFastVLine(x0,y0+2,8,c,matrix);
 3402              		.loc 1 405 0
 3403 0006 CDB2     		uxtb	r5, r1
 404:.\LED_Matrix.c **** {
 3404              		.loc 1 404 0
 3405 0008 84B0     		sub	sp, sp, #16
 3406              	.LCFI66:
 3407              		.cfi_def_cfa_offset 40
 404:.\LED_Matrix.c **** {
 3408              		.loc 1 404 0
 3409 000a 1C1C     		mov	r4, r3
 3410 000c 061C     		mov	r6, r0
 3411 000e 8846     		mov	r8, r1
 3412 0010 171C     		mov	r7, r2
 3413              		.loc 1 405 0
 3414 0012 A91C     		add	r1, r5, #2
 3415              	.LVL341:
 404:.\LED_Matrix.c **** {
 3416              		.loc 1 404 0
 3417 0014 0392     		str	r2, [sp, #12]
 3418              		.loc 1 405 0
 3419 0016 3B1C     		mov	r3, r7
 3420              	.LVL342:
 3421 0018 49B2     		sxtb	r1, r1
 3422 001a 0094     		str	r4, [sp]
 3423 001c 0822     		mov	r2, #8
 406:.\LED_Matrix.c **** 	drawFastHLine(x0+2,y0,3,c,matrix);
 3424              		.loc 1 406 0
 3425 001e F6B2     		uxtb	r6, r6
 405:.\LED_Matrix.c **** 	drawFastVLine(x0,y0+2,8,c,matrix);
 3426              		.loc 1 405 0
 3427 0020 FFF7FEFF 		bl	drawFastVLine
 3428              	.LVL343:
 3429              		.loc 1 406 0
 3430 0024 B01C     		add	r0, r6, #2
 3431 0026 47B2     		sxtb	r7, r0
ARM GAS  C:\Users\Computer\AppData\Local\Temp\cc1tHs0g.s 			page 74


 3432 0028 381C     		mov	r0, r7
 3433 002a 4146     		mov	r1, r8
 3434 002c 039B     		ldr	r3, [sp, #12]
 3435 002e 0094     		str	r4, [sp]
 3436 0030 0322     		mov	r2, #3
 3437 0032 FFF7FEFF 		bl	drawFastHLine
 3438              	.LVL344:
 407:.\LED_Matrix.c **** 	drawFastHLine(x0+2,y0+11,3,c,matrix);
 3439              		.loc 1 407 0
 3440 0036 2A1C     		mov	r2, r5
 3441 0038 0B32     		add	r2, r2, #11
 3442 003a 51B2     		sxtb	r1, r2
 3443 003c 381C     		mov	r0, r7
 3444 003e 039B     		ldr	r3, [sp, #12]
 3445 0040 0094     		str	r4, [sp]
 3446 0042 0322     		mov	r2, #3
 408:.\LED_Matrix.c **** 	//drawPixel(x0+4,y0+1,c,matrix);
 409:.\LED_Matrix.c **** 	//drawPixel(x0+4,y0+10,c,matrix);
 410:.\LED_Matrix.c **** 	drawPixel(x0+1,y0+1,c,matrix);
 3447              		.loc 1 410 0
 3448 0044 0136     		add	r6, r6, #1
 407:.\LED_Matrix.c **** 	drawFastHLine(x0+2,y0+11,3,c,matrix);
 3449              		.loc 1 407 0
 3450 0046 FFF7FEFF 		bl	drawFastHLine
 3451              	.LVL345:
 3452              		.loc 1 410 0
 3453 004a 76B2     		sxtb	r6, r6
 3454 004c 6B1C     		add	r3, r5, #1
 3455 004e 59B2     		sxtb	r1, r3
 3456 0050 301C     		mov	r0, r6
 3457 0052 039A     		ldr	r2, [sp, #12]
 3458 0054 231C     		mov	r3, r4
 411:.\LED_Matrix.c **** 	drawPixel(x0+1,y0+10,c,matrix);
 3459              		.loc 1 411 0
 3460 0056 0A35     		add	r5, r5, #10
 3461              	.LVL346:
 410:.\LED_Matrix.c **** 	drawPixel(x0+1,y0+1,c,matrix);
 3462              		.loc 1 410 0
 3463 0058 FFF7FEFF 		bl	drawPixel
 3464              	.LVL347:
 3465              		.loc 1 411 0
 3466 005c 69B2     		sxtb	r1, r5
 3467 005e 301C     		mov	r0, r6
 3468 0060 039A     		ldr	r2, [sp, #12]
 3469 0062 231C     		mov	r3, r4
 3470 0064 FFF7FEFF 		bl	drawPixel
 3471              	.LVL348:
 412:.\LED_Matrix.c **** }
 3472              		.loc 1 412 0
 3473 0068 04B0     		add	sp, sp, #16
 3474              		@ sp needed for prologue
 3475              	.LVL349:
 3476              	.LVL350:
 3477 006a 04BC     		pop	{r2}
 3478 006c 9046     		mov	r8, r2
 3479 006e F0BD     		pop	{r4, r5, r6, r7, pc}
 3480              		.cfi_endproc
ARM GAS  C:\Users\Computer\AppData\Local\Temp\cc1tHs0g.s 			page 75


 3481              	.LFE58:
 3482              		.size	drawC, .-drawC
 3483              		.section	.text.drawD,"ax",%progbits
 3484              		.align	2
 3485              		.global	drawD
 3486              		.code	16
 3487              		.thumb_func
 3488              		.type	drawD, %function
 3489              	drawD:
 3490              	.LFB59:
 413:.\LED_Matrix.c **** 
 414:.\LED_Matrix.c **** void drawD(int8 x0, int8 y0,RGB c, color *matrix)
 415:.\LED_Matrix.c **** {
 3491              		.loc 1 415 0
 3492              		.cfi_startproc
 3493              	.LVL351:
 3494 0000 F0B5     		push	{r4, r5, r6, r7, lr}
 3495              	.LCFI67:
 3496              		.cfi_def_cfa_offset 20
 3497              		.cfi_offset 4, -20
 3498              		.cfi_offset 5, -16
 3499              		.cfi_offset 6, -12
 3500              		.cfi_offset 7, -8
 3501              		.cfi_offset 14, -4
 3502 0002 4746     		mov	r7, r8
 3503 0004 80B4     		push	{r7}
 3504              	.LCFI68:
 3505              		.cfi_def_cfa_offset 24
 3506              		.cfi_offset 8, -24
 416:.\LED_Matrix.c **** 	drawFastHLine(x0+1,y0,3,c,matrix);
 3507              		.loc 1 416 0
 3508 0006 C6B2     		uxtb	r6, r0
 3509 0008 771C     		add	r7, r6, #1
 415:.\LED_Matrix.c **** {
 3510              		.loc 1 415 0
 3511 000a 84B0     		sub	sp, sp, #16
 3512              	.LCFI69:
 3513              		.cfi_def_cfa_offset 40
 415:.\LED_Matrix.c **** {
 3514              		.loc 1 415 0
 3515 000c 9446     		mov	ip, r2
 3516 000e 1C1C     		mov	r4, r3
 3517              		.loc 1 416 0
 3518 0010 7FB2     		sxtb	r7, r7
 3519 0012 6346     		mov	r3, ip
 3520              	.LVL352:
 415:.\LED_Matrix.c **** {
 3521              		.loc 1 415 0
 3522 0014 8046     		mov	r8, r0
 3523 0016 0D1C     		mov	r5, r1
 3524 0018 0392     		str	r2, [sp, #12]
 3525              		.loc 1 416 0
 3526 001a 381C     		mov	r0, r7
 3527              	.LVL353:
 3528 001c 0094     		str	r4, [sp]
 3529 001e 0322     		mov	r2, #3
 3530 0020 FFF7FEFF 		bl	drawFastHLine
ARM GAS  C:\Users\Computer\AppData\Local\Temp\cc1tHs0g.s 			page 76


 3531              	.LVL354:
 417:.\LED_Matrix.c **** 	drawFastVLine(x0,y0,12,c,matrix);
 3532              		.loc 1 417 0
 3533 0024 4046     		mov	r0, r8
 3534 0026 291C     		mov	r1, r5
 3535 0028 039B     		ldr	r3, [sp, #12]
 3536 002a 0094     		str	r4, [sp]
 3537 002c 0C22     		mov	r2, #12
 418:.\LED_Matrix.c **** 	drawFastHLine(x0+1,y0+11,3,c,matrix);
 3538              		.loc 1 418 0
 3539 002e EDB2     		uxtb	r5, r5
 417:.\LED_Matrix.c **** 	drawFastVLine(x0,y0,12,c,matrix);
 3540              		.loc 1 417 0
 3541 0030 FFF7FEFF 		bl	drawFastVLine
 3542              	.LVL355:
 3543              		.loc 1 418 0
 3544 0034 291C     		mov	r1, r5
 3545 0036 0B31     		add	r1, r1, #11
 3546 0038 381C     		mov	r0, r7
 3547 003a 039B     		ldr	r3, [sp, #12]
 3548 003c 49B2     		sxtb	r1, r1
 3549 003e 0094     		str	r4, [sp]
 3550 0040 0322     		mov	r2, #3
 419:.\LED_Matrix.c **** 	drawFastVLine(x0+4,y0+1,10,c,matrix);
 3551              		.loc 1 419 0
 3552 0042 0436     		add	r6, r6, #4
 3553              	.LVL356:
 3554 0044 0135     		add	r5, r5, #1
 418:.\LED_Matrix.c **** 	drawFastHLine(x0+1,y0+11,3,c,matrix);
 3555              		.loc 1 418 0
 3556 0046 FFF7FEFF 		bl	drawFastHLine
 3557              	.LVL357:
 3558              		.loc 1 419 0
 3559 004a 70B2     		sxtb	r0, r6
 3560 004c 69B2     		sxtb	r1, r5
 3561 004e 0094     		str	r4, [sp]
 3562 0050 0A22     		mov	r2, #10
 3563 0052 039B     		ldr	r3, [sp, #12]
 3564 0054 FFF7FEFF 		bl	drawFastVLine
 3565              	.LVL358:
 420:.\LED_Matrix.c **** 	
 421:.\LED_Matrix.c **** }
 3566              		.loc 1 421 0
 3567 0058 04B0     		add	sp, sp, #16
 3568              		@ sp needed for prologue
 3569              	.LVL359:
 3570              	.LVL360:
 3571 005a 04BC     		pop	{r2}
 3572 005c 9046     		mov	r8, r2
 3573 005e F0BD     		pop	{r4, r5, r6, r7, pc}
 3574              		.cfi_endproc
 3575              	.LFE59:
 3576              		.size	drawD, .-drawD
 3577              		.section	.text.drawE,"ax",%progbits
 3578              		.align	2
 3579              		.global	drawE
 3580              		.code	16
ARM GAS  C:\Users\Computer\AppData\Local\Temp\cc1tHs0g.s 			page 77


 3581              		.thumb_func
 3582              		.type	drawE, %function
 3583              	drawE:
 3584              	.LFB60:
 422:.\LED_Matrix.c **** 
 423:.\LED_Matrix.c **** void drawE(int8 x0, int8 y0,RGB c, color *matrix)
 424:.\LED_Matrix.c **** {
 3585              		.loc 1 424 0
 3586              		.cfi_startproc
 3587              	.LVL361:
 3588 0000 F0B5     		push	{r4, r5, r6, r7, lr}
 3589              	.LCFI70:
 3590              		.cfi_def_cfa_offset 20
 3591              		.cfi_offset 4, -20
 3592              		.cfi_offset 5, -16
 3593              		.cfi_offset 6, -12
 3594              		.cfi_offset 7, -8
 3595              		.cfi_offset 14, -4
 425:.\LED_Matrix.c **** 	drawFastHLine(x0+1,y0,4,c,matrix);
 3596              		.loc 1 425 0
 3597 0002 451C     		add	r5, r0, #1
 424:.\LED_Matrix.c **** {
 3598              		.loc 1 424 0
 3599 0004 85B0     		sub	sp, sp, #20
 3600              	.LCFI71:
 3601              		.cfi_def_cfa_offset 40
 424:.\LED_Matrix.c **** {
 3602              		.loc 1 424 0
 3603 0006 9446     		mov	ip, r2
 3604              		.loc 1 425 0
 3605 0008 6DB2     		sxtb	r5, r5
 424:.\LED_Matrix.c **** {
 3606              		.loc 1 424 0
 3607 000a 1C1C     		mov	r4, r3
 3608 000c 0E1C     		mov	r6, r1
 3609 000e 071C     		mov	r7, r0
 3610 0010 0392     		str	r2, [sp, #12]
 3611              		.loc 1 425 0
 3612 0012 0093     		str	r3, [sp]
 3613 0014 281C     		mov	r0, r5
 3614              	.LVL362:
 3615 0016 6346     		mov	r3, ip
 3616              	.LVL363:
 3617 0018 0422     		mov	r2, #4
 3618 001a FFF7FEFF 		bl	drawFastHLine
 3619              	.LVL364:
 426:.\LED_Matrix.c **** 	drawFastVLine(x0,y0,12,c,matrix);
 3620              		.loc 1 426 0
 3621 001e 381C     		mov	r0, r7
 3622 0020 311C     		mov	r1, r6
 3623 0022 039B     		ldr	r3, [sp, #12]
 427:.\LED_Matrix.c **** 	drawFastHLine(x0+1,y0+11,4,c,matrix);
 3624              		.loc 1 427 0
 3625 0024 F7B2     		uxtb	r7, r6
 426:.\LED_Matrix.c **** 	drawFastVLine(x0,y0,12,c,matrix);
 3626              		.loc 1 426 0
 3627 0026 0094     		str	r4, [sp]
ARM GAS  C:\Users\Computer\AppData\Local\Temp\cc1tHs0g.s 			page 78


 3628 0028 0C22     		mov	r2, #12
 3629 002a FFF7FEFF 		bl	drawFastVLine
 3630              	.LVL365:
 3631              		.loc 1 427 0
 3632 002e 391C     		mov	r1, r7
 3633 0030 0B31     		add	r1, r1, #11
 3634 0032 281C     		mov	r0, r5
 3635 0034 039B     		ldr	r3, [sp, #12]
 3636 0036 49B2     		sxtb	r1, r1
 3637 0038 0094     		str	r4, [sp]
 3638 003a 0422     		mov	r2, #4
 428:.\LED_Matrix.c **** 	drawFastHLine(x0+1,y0+5,4,c,matrix);
 3639              		.loc 1 428 0
 3640 003c 0537     		add	r7, r7, #5
 427:.\LED_Matrix.c **** 	drawFastHLine(x0+1,y0+11,4,c,matrix);
 3641              		.loc 1 427 0
 3642 003e FFF7FEFF 		bl	drawFastHLine
 3643              	.LVL366:
 3644              		.loc 1 428 0
 3645 0042 79B2     		sxtb	r1, r7
 3646 0044 0094     		str	r4, [sp]
 3647 0046 281C     		mov	r0, r5
 3648 0048 0422     		mov	r2, #4
 3649 004a 039B     		ldr	r3, [sp, #12]
 3650 004c FFF7FEFF 		bl	drawFastHLine
 3651              	.LVL367:
 429:.\LED_Matrix.c **** }
 3652              		.loc 1 429 0
 3653 0050 05B0     		add	sp, sp, #20
 3654              		@ sp needed for prologue
 3655              	.LVL368:
 3656 0052 F0BD     		pop	{r4, r5, r6, r7, pc}
 3657              		.cfi_endproc
 3658              	.LFE60:
 3659              		.size	drawE, .-drawE
 3660              		.section	.text.drawF,"ax",%progbits
 3661              		.align	2
 3662              		.global	drawF
 3663              		.code	16
 3664              		.thumb_func
 3665              		.type	drawF, %function
 3666              	drawF:
 3667              	.LFB61:
 430:.\LED_Matrix.c **** 
 431:.\LED_Matrix.c **** void drawF(int8 x0, int8 y0,RGB c, color *matrix)
 432:.\LED_Matrix.c **** {
 3668              		.loc 1 432 0
 3669              		.cfi_startproc
 3670              	.LVL369:
 3671 0000 F0B5     		push	{r4, r5, r6, r7, lr}
 3672              	.LCFI72:
 3673              		.cfi_def_cfa_offset 20
 3674              		.cfi_offset 4, -20
 3675              		.cfi_offset 5, -16
 3676              		.cfi_offset 6, -12
 3677              		.cfi_offset 7, -8
 3678              		.cfi_offset 14, -4
ARM GAS  C:\Users\Computer\AppData\Local\Temp\cc1tHs0g.s 			page 79


 433:.\LED_Matrix.c **** 	drawFastHLine(x0+1,y0,4,c,matrix);
 3679              		.loc 1 433 0
 3680 0002 461C     		add	r6, r0, #1
 432:.\LED_Matrix.c **** {
 3681              		.loc 1 432 0
 3682 0004 85B0     		sub	sp, sp, #20
 3683              	.LCFI73:
 3684              		.cfi_def_cfa_offset 40
 432:.\LED_Matrix.c **** {
 3685              		.loc 1 432 0
 3686 0006 9446     		mov	ip, r2
 3687              		.loc 1 433 0
 3688 0008 76B2     		sxtb	r6, r6
 432:.\LED_Matrix.c **** {
 3689              		.loc 1 432 0
 3690 000a 1C1C     		mov	r4, r3
 3691 000c 071C     		mov	r7, r0
 3692 000e 0D1C     		mov	r5, r1
 3693 0010 0392     		str	r2, [sp, #12]
 3694              		.loc 1 433 0
 3695 0012 0093     		str	r3, [sp]
 3696 0014 301C     		mov	r0, r6
 3697              	.LVL370:
 3698 0016 6346     		mov	r3, ip
 3699              	.LVL371:
 3700 0018 0422     		mov	r2, #4
 3701 001a FFF7FEFF 		bl	drawFastHLine
 3702              	.LVL372:
 434:.\LED_Matrix.c **** 	drawFastVLine(x0,y0,12,c,matrix);
 3703              		.loc 1 434 0
 3704 001e 381C     		mov	r0, r7
 3705 0020 291C     		mov	r1, r5
 3706 0022 039B     		ldr	r3, [sp, #12]
 3707 0024 0094     		str	r4, [sp]
 3708 0026 0C22     		mov	r2, #12
 435:.\LED_Matrix.c **** 	drawFastHLine(x0+1,y0+5,4,c,matrix);
 3709              		.loc 1 435 0
 3710 0028 0535     		add	r5, r5, #5
 434:.\LED_Matrix.c **** 	drawFastVLine(x0,y0,12,c,matrix);
 3711              		.loc 1 434 0
 3712 002a FFF7FEFF 		bl	drawFastVLine
 3713              	.LVL373:
 3714              		.loc 1 435 0
 3715 002e 69B2     		sxtb	r1, r5
 3716 0030 0094     		str	r4, [sp]
 3717 0032 301C     		mov	r0, r6
 3718 0034 0422     		mov	r2, #4
 3719 0036 039B     		ldr	r3, [sp, #12]
 3720 0038 FFF7FEFF 		bl	drawFastHLine
 3721              	.LVL374:
 436:.\LED_Matrix.c **** }
 3722              		.loc 1 436 0
 3723 003c 05B0     		add	sp, sp, #20
 3724              		@ sp needed for prologue
 3725              	.LVL375:
 3726 003e F0BD     		pop	{r4, r5, r6, r7, pc}
 3727              		.cfi_endproc
ARM GAS  C:\Users\Computer\AppData\Local\Temp\cc1tHs0g.s 			page 80


 3728              	.LFE61:
 3729              		.size	drawF, .-drawF
 3730              		.section	.text.drawHex,"ax",%progbits
 3731              		.align	2
 3732              		.global	drawHex
 3733              		.code	16
 3734              		.thumb_func
 3735              		.type	drawHex, %function
 3736              	drawHex:
 3737              	.LFB64:
 437:.\LED_Matrix.c **** 
 438:.\LED_Matrix.c **** void printHexString(uint16 num,int8 x0, int8 y0,RGB c, color *matrix)
 439:.\LED_Matrix.c **** {
 440:.\LED_Matrix.c **** 	uint8 tokens[4]={0,0,0,0};	
 441:.\LED_Matrix.c **** 	tokens[3] = 0x000F & num;
 442:.\LED_Matrix.c **** 	tokens[2] = 0x000F & num>>4;
 443:.\LED_Matrix.c **** 	tokens[1] = 0x000F & num>>8;
 444:.\LED_Matrix.c **** 	tokens[0] = 0x000F & num>>12;
 445:.\LED_Matrix.c **** 	
 446:.\LED_Matrix.c **** 	drawHex(tokens[0],3, 2,c, matrix);
 447:.\LED_Matrix.c **** 	drawHex(tokens[1],9, 2,c, matrix);
 448:.\LED_Matrix.c **** 	drawHex(tokens[2],15, 2,c, matrix);
 449:.\LED_Matrix.c **** 	drawHex(tokens[3],21, 2,c, matrix);
 450:.\LED_Matrix.c **** }
 451:.\LED_Matrix.c **** 
 452:.\LED_Matrix.c **** void printTime(uint8 hours,uint8 min,RGB c, color *matrix)
 453:.\LED_Matrix.c **** {
 454:.\LED_Matrix.c **** 	uint8 tHour = hours >>4;
 455:.\LED_Matrix.c **** 	if(tHour > 0)
 456:.\LED_Matrix.c **** 	{
 457:.\LED_Matrix.c **** 		drawHex(hours>>4,23, 2,c, matrix);
 458:.\LED_Matrix.c **** 	}
 459:.\LED_Matrix.c **** 	drawHex(hours,17, 2,c, matrix);
 460:.\LED_Matrix.c **** 	drawColon(16, 2,c, matrix);
 461:.\LED_Matrix.c **** 	drawHex(min>>4,9, 2,c, matrix);
 462:.\LED_Matrix.c **** 	drawHex(min,3, 2,c, matrix);
 463:.\LED_Matrix.c **** }
 464:.\LED_Matrix.c **** 
 465:.\LED_Matrix.c **** void drawHex(uint8 num,int8 x0, int8 y0,RGB c, color *matrix)
 466:.\LED_Matrix.c **** {
 3738              		.loc 1 466 0
 3739              		.cfi_startproc
 3740              	.LVL376:
 3741 0000 00B5     		push	{lr}
 3742              	.LCFI74:
 3743              		.cfi_def_cfa_offset 4
 3744              		.cfi_offset 14, -4
 3745 0002 83B0     		sub	sp, sp, #12
 3746              	.LCFI75:
 3747              		.cfi_def_cfa_offset 16
 3748              		.loc 1 466 0
 3749 0004 0193     		str	r3, [sp, #4]
 467:.\LED_Matrix.c **** 	switch (num & 0x0F) 
 3750              		.loc 1 467 0
 3751 0006 0F23     		mov	r3, #15
 3752 0008 0340     		and	r3, r0
 3753 000a 0F2B     		cmp	r3, #15
ARM GAS  C:\Users\Computer\AppData\Local\Temp\cc1tHs0g.s 			page 81


 3754 000c 07D9     		bls	.L137
 3755              	.LVL377:
 3756              	.L119:
 468:.\LED_Matrix.c **** 	{
 469:.\LED_Matrix.c **** 		case 0x1:
 470:.\LED_Matrix.c **** 		  drawOne(x0,y0,c,matrix);
 471:.\LED_Matrix.c **** 		  break;
 472:.\LED_Matrix.c **** 		case 0x2:
 473:.\LED_Matrix.c **** 		  drawTwo(x0,y0,c,matrix);
 474:.\LED_Matrix.c **** 		  break;
 475:.\LED_Matrix.c **** 		case 0x3:
 476:.\LED_Matrix.c **** 		  drawThree(x0,y0,c,matrix);
 477:.\LED_Matrix.c **** 		  break;
 478:.\LED_Matrix.c **** 		case 0x4:
 479:.\LED_Matrix.c **** 		  drawFour(x0,y0,c,matrix);
 480:.\LED_Matrix.c **** 		  break;
 481:.\LED_Matrix.c **** 		case 0x5:
 482:.\LED_Matrix.c **** 		  drawFive(x0,y0,c,matrix);
 483:.\LED_Matrix.c **** 		  break;
 484:.\LED_Matrix.c **** 		case 0x6:
 485:.\LED_Matrix.c **** 		  drawSix(x0,y0,c,matrix);
 486:.\LED_Matrix.c **** 		  break;
 487:.\LED_Matrix.c **** 		case 0x7:
 488:.\LED_Matrix.c **** 		  drawSeven(x0,y0,c,matrix);
 489:.\LED_Matrix.c **** 		  break;
 490:.\LED_Matrix.c **** 		case 0x8:
 491:.\LED_Matrix.c **** 		  drawEight(x0,y0,c,matrix);
 492:.\LED_Matrix.c **** 		  break;
 493:.\LED_Matrix.c **** 		case 0x9:
 494:.\LED_Matrix.c **** 		  drawNine(x0,y0,c,matrix);
 495:.\LED_Matrix.c **** 		  break;
 496:.\LED_Matrix.c **** 		case 0xA:
 497:.\LED_Matrix.c **** 		  drawA(x0,y0,c,matrix);
 498:.\LED_Matrix.c **** 		  break;
 499:.\LED_Matrix.c **** 		case 0xB:
 500:.\LED_Matrix.c **** 		  drawB(x0,y0,c,matrix);
 501:.\LED_Matrix.c **** 		  break;
 502:.\LED_Matrix.c **** 		case 0xC:
 503:.\LED_Matrix.c **** 		  drawC(x0,y0,c,matrix);
 504:.\LED_Matrix.c **** 		  break;
 505:.\LED_Matrix.c **** 		case 0xD:
 506:.\LED_Matrix.c **** 		  drawD(x0,y0,c,matrix);
 507:.\LED_Matrix.c **** 		  break;
 508:.\LED_Matrix.c **** 		case 0xE:
 509:.\LED_Matrix.c **** 		  drawE(x0,y0,c,matrix);
 510:.\LED_Matrix.c **** 		  break;
 511:.\LED_Matrix.c **** 		case 0xF:
 512:.\LED_Matrix.c **** 		  drawF(x0,y0,c,matrix);
 513:.\LED_Matrix.c **** 		  break;
 514:.\LED_Matrix.c **** 		default:
 515:.\LED_Matrix.c **** 		  drawZero(x0,y0,c,matrix);
 3757              		.loc 1 515 0
 3758 000e 081C     		mov	r0, r1
 3759 0010 049B     		ldr	r3, [sp, #16]
 3760 0012 111C     		mov	r1, r2
 3761              	.LVL378:
 3762 0014 019A     		ldr	r2, [sp, #4]
ARM GAS  C:\Users\Computer\AppData\Local\Temp\cc1tHs0g.s 			page 82


 3763              	.LVL379:
 3764 0016 FFF7FEFF 		bl	drawZero
 3765              	.LVL380:
 3766              	.L118:
 516:.\LED_Matrix.c **** 		  break;
 517:.\LED_Matrix.c **** 	}	
 518:.\LED_Matrix.c **** }
 3767              		.loc 1 518 0
 3768 001a 03B0     		add	sp, sp, #12
 3769              		@ sp needed for prologue
 3770 001c 00BD     		pop	{pc}
 3771              	.LVL381:
 3772              	.L137:
 467:.\LED_Matrix.c **** 	switch (num & 0x0F) 
 3773              		.loc 1 467 0
 3774 001e 3648     		ldr	r0, .L138
 3775              	.LVL382:
 3776 0020 9B00     		lsl	r3, r3, #2
 3777 0022 C358     		ldr	r3, [r0, r3]
 3778 0024 9F46     		mov	pc, r3
 3779              		.section	.rodata
 3780              		.align	2
 3781              	.L135:
 3782 0000 0E000000 		.word	.L119
 3783 0004 34000000 		.word	.L120
 3784 0008 42000000 		.word	.L121
 3785 000c 50000000 		.word	.L122
 3786 0010 5E000000 		.word	.L123
 3787 0014 6C000000 		.word	.L124
 3788 0018 7A000000 		.word	.L125
 3789 001c 88000000 		.word	.L126
 3790 0020 96000000 		.word	.L127
 3791 0024 A4000000 		.word	.L128
 3792 0028 B2000000 		.word	.L129
 3793 002c C0000000 		.word	.L130
 3794 0030 CE000000 		.word	.L131
 3795 0034 DC000000 		.word	.L132
 3796 0038 EA000000 		.word	.L133
 3797 003c 26000000 		.word	.L134
 3798              		.section	.text.drawHex
 3799              	.L134:
 512:.\LED_Matrix.c **** 		  drawF(x0,y0,c,matrix);
 3800              		.loc 1 512 0
 3801 0026 081C     		mov	r0, r1
 3802 0028 049B     		ldr	r3, [sp, #16]
 3803 002a 111C     		mov	r1, r2
 3804              	.LVL383:
 3805 002c 019A     		ldr	r2, [sp, #4]
 3806              	.LVL384:
 3807 002e FFF7FEFF 		bl	drawF
 3808              	.LVL385:
 513:.\LED_Matrix.c **** 		  break;
 3809              		.loc 1 513 0
 3810 0032 F2E7     		b	.L118
 3811              	.LVL386:
 3812              	.L120:
 470:.\LED_Matrix.c **** 		  drawOne(x0,y0,c,matrix);
ARM GAS  C:\Users\Computer\AppData\Local\Temp\cc1tHs0g.s 			page 83


 3813              		.loc 1 470 0
 3814 0034 081C     		mov	r0, r1
 3815 0036 049B     		ldr	r3, [sp, #16]
 3816 0038 111C     		mov	r1, r2
 3817              	.LVL387:
 3818 003a 019A     		ldr	r2, [sp, #4]
 3819              	.LVL388:
 3820 003c FFF7FEFF 		bl	drawOne
 3821              	.LVL389:
 471:.\LED_Matrix.c **** 		  break;
 3822              		.loc 1 471 0
 3823 0040 EBE7     		b	.L118
 3824              	.LVL390:
 3825              	.L121:
 473:.\LED_Matrix.c **** 		  drawTwo(x0,y0,c,matrix);
 3826              		.loc 1 473 0
 3827 0042 081C     		mov	r0, r1
 3828 0044 049B     		ldr	r3, [sp, #16]
 3829 0046 111C     		mov	r1, r2
 3830              	.LVL391:
 3831 0048 019A     		ldr	r2, [sp, #4]
 3832              	.LVL392:
 3833 004a FFF7FEFF 		bl	drawTwo
 3834              	.LVL393:
 474:.\LED_Matrix.c **** 		  break;
 3835              		.loc 1 474 0
 3836 004e E4E7     		b	.L118
 3837              	.LVL394:
 3838              	.L122:
 476:.\LED_Matrix.c **** 		  drawThree(x0,y0,c,matrix);
 3839              		.loc 1 476 0
 3840 0050 081C     		mov	r0, r1
 3841 0052 049B     		ldr	r3, [sp, #16]
 3842 0054 111C     		mov	r1, r2
 3843              	.LVL395:
 3844 0056 019A     		ldr	r2, [sp, #4]
 3845              	.LVL396:
 3846 0058 FFF7FEFF 		bl	drawThree
 3847              	.LVL397:
 477:.\LED_Matrix.c **** 		  break;
 3848              		.loc 1 477 0
 3849 005c DDE7     		b	.L118
 3850              	.LVL398:
 3851              	.L123:
 479:.\LED_Matrix.c **** 		  drawFour(x0,y0,c,matrix);
 3852              		.loc 1 479 0
 3853 005e 081C     		mov	r0, r1
 3854 0060 049B     		ldr	r3, [sp, #16]
 3855 0062 111C     		mov	r1, r2
 3856              	.LVL399:
 3857 0064 019A     		ldr	r2, [sp, #4]
 3858              	.LVL400:
 3859 0066 FFF7FEFF 		bl	drawFour
 3860              	.LVL401:
 480:.\LED_Matrix.c **** 		  break;
 3861              		.loc 1 480 0
 3862 006a D6E7     		b	.L118
ARM GAS  C:\Users\Computer\AppData\Local\Temp\cc1tHs0g.s 			page 84


 3863              	.LVL402:
 3864              	.L124:
 482:.\LED_Matrix.c **** 		  drawFive(x0,y0,c,matrix);
 3865              		.loc 1 482 0
 3866 006c 081C     		mov	r0, r1
 3867 006e 049B     		ldr	r3, [sp, #16]
 3868 0070 111C     		mov	r1, r2
 3869              	.LVL403:
 3870 0072 019A     		ldr	r2, [sp, #4]
 3871              	.LVL404:
 3872 0074 FFF7FEFF 		bl	drawFive
 3873              	.LVL405:
 483:.\LED_Matrix.c **** 		  break;
 3874              		.loc 1 483 0
 3875 0078 CFE7     		b	.L118
 3876              	.LVL406:
 3877              	.L125:
 485:.\LED_Matrix.c **** 		  drawSix(x0,y0,c,matrix);
 3878              		.loc 1 485 0
 3879 007a 081C     		mov	r0, r1
 3880 007c 049B     		ldr	r3, [sp, #16]
 3881 007e 111C     		mov	r1, r2
 3882              	.LVL407:
 3883 0080 019A     		ldr	r2, [sp, #4]
 3884              	.LVL408:
 3885 0082 FFF7FEFF 		bl	drawSix
 3886              	.LVL409:
 486:.\LED_Matrix.c **** 		  break;
 3887              		.loc 1 486 0
 3888 0086 C8E7     		b	.L118
 3889              	.LVL410:
 3890              	.L126:
 488:.\LED_Matrix.c **** 		  drawSeven(x0,y0,c,matrix);
 3891              		.loc 1 488 0
 3892 0088 081C     		mov	r0, r1
 3893 008a 049B     		ldr	r3, [sp, #16]
 3894 008c 111C     		mov	r1, r2
 3895              	.LVL411:
 3896 008e 019A     		ldr	r2, [sp, #4]
 3897              	.LVL412:
 3898 0090 FFF7FEFF 		bl	drawSeven
 3899              	.LVL413:
 489:.\LED_Matrix.c **** 		  break;
 3900              		.loc 1 489 0
 3901 0094 C1E7     		b	.L118
 3902              	.LVL414:
 3903              	.L127:
 491:.\LED_Matrix.c **** 		  drawEight(x0,y0,c,matrix);
 3904              		.loc 1 491 0
 3905 0096 081C     		mov	r0, r1
 3906 0098 049B     		ldr	r3, [sp, #16]
 3907 009a 111C     		mov	r1, r2
 3908              	.LVL415:
 3909 009c 019A     		ldr	r2, [sp, #4]
 3910              	.LVL416:
 3911 009e FFF7FEFF 		bl	drawEight
 3912              	.LVL417:
ARM GAS  C:\Users\Computer\AppData\Local\Temp\cc1tHs0g.s 			page 85


 492:.\LED_Matrix.c **** 		  break;
 3913              		.loc 1 492 0
 3914 00a2 BAE7     		b	.L118
 3915              	.LVL418:
 3916              	.L128:
 494:.\LED_Matrix.c **** 		  drawNine(x0,y0,c,matrix);
 3917              		.loc 1 494 0
 3918 00a4 081C     		mov	r0, r1
 3919 00a6 049B     		ldr	r3, [sp, #16]
 3920 00a8 111C     		mov	r1, r2
 3921              	.LVL419:
 3922 00aa 019A     		ldr	r2, [sp, #4]
 3923              	.LVL420:
 3924 00ac FFF7FEFF 		bl	drawNine
 3925              	.LVL421:
 495:.\LED_Matrix.c **** 		  break;
 3926              		.loc 1 495 0
 3927 00b0 B3E7     		b	.L118
 3928              	.LVL422:
 3929              	.L129:
 497:.\LED_Matrix.c **** 		  drawA(x0,y0,c,matrix);
 3930              		.loc 1 497 0
 3931 00b2 081C     		mov	r0, r1
 3932 00b4 049B     		ldr	r3, [sp, #16]
 3933 00b6 111C     		mov	r1, r2
 3934              	.LVL423:
 3935 00b8 019A     		ldr	r2, [sp, #4]
 3936              	.LVL424:
 3937 00ba FFF7FEFF 		bl	drawA
 3938              	.LVL425:
 498:.\LED_Matrix.c **** 		  break;
 3939              		.loc 1 498 0
 3940 00be ACE7     		b	.L118
 3941              	.LVL426:
 3942              	.L130:
 500:.\LED_Matrix.c **** 		  drawB(x0,y0,c,matrix);
 3943              		.loc 1 500 0
 3944 00c0 081C     		mov	r0, r1
 3945 00c2 049B     		ldr	r3, [sp, #16]
 3946 00c4 111C     		mov	r1, r2
 3947              	.LVL427:
 3948 00c6 019A     		ldr	r2, [sp, #4]
 3949              	.LVL428:
 3950 00c8 FFF7FEFF 		bl	drawB
 3951              	.LVL429:
 501:.\LED_Matrix.c **** 		  break;
 3952              		.loc 1 501 0
 3953 00cc A5E7     		b	.L118
 3954              	.LVL430:
 3955              	.L131:
 503:.\LED_Matrix.c **** 		  drawC(x0,y0,c,matrix);
 3956              		.loc 1 503 0
 3957 00ce 081C     		mov	r0, r1
 3958 00d0 049B     		ldr	r3, [sp, #16]
 3959 00d2 111C     		mov	r1, r2
 3960              	.LVL431:
 3961 00d4 019A     		ldr	r2, [sp, #4]
ARM GAS  C:\Users\Computer\AppData\Local\Temp\cc1tHs0g.s 			page 86


 3962              	.LVL432:
 3963 00d6 FFF7FEFF 		bl	drawC
 3964              	.LVL433:
 504:.\LED_Matrix.c **** 		  break;
 3965              		.loc 1 504 0
 3966 00da 9EE7     		b	.L118
 3967              	.LVL434:
 3968              	.L132:
 506:.\LED_Matrix.c **** 		  drawD(x0,y0,c,matrix);
 3969              		.loc 1 506 0
 3970 00dc 081C     		mov	r0, r1
 3971 00de 049B     		ldr	r3, [sp, #16]
 3972 00e0 111C     		mov	r1, r2
 3973              	.LVL435:
 3974 00e2 019A     		ldr	r2, [sp, #4]
 3975              	.LVL436:
 3976 00e4 FFF7FEFF 		bl	drawD
 3977              	.LVL437:
 507:.\LED_Matrix.c **** 		  break;
 3978              		.loc 1 507 0
 3979 00e8 97E7     		b	.L118
 3980              	.LVL438:
 3981              	.L133:
 509:.\LED_Matrix.c **** 		  drawE(x0,y0,c,matrix);
 3982              		.loc 1 509 0
 3983 00ea 081C     		mov	r0, r1
 3984 00ec 049B     		ldr	r3, [sp, #16]
 3985 00ee 111C     		mov	r1, r2
 3986              	.LVL439:
 3987 00f0 019A     		ldr	r2, [sp, #4]
 3988              	.LVL440:
 3989 00f2 FFF7FEFF 		bl	drawE
 3990              	.LVL441:
 510:.\LED_Matrix.c **** 		  break;
 3991              		.loc 1 510 0
 3992 00f6 90E7     		b	.L118
 3993              	.L139:
 3994              		.align	2
 3995              	.L138:
 3996 00f8 00000000 		.word	.L135
 3997              		.cfi_endproc
 3998              	.LFE64:
 3999              		.size	drawHex, .-drawHex
 4000              		.section	.text.printTime,"ax",%progbits
 4001              		.align	2
 4002              		.global	printTime
 4003              		.code	16
 4004              		.thumb_func
 4005              		.type	printTime, %function
 4006              	printTime:
 4007              	.LFB63:
 453:.\LED_Matrix.c **** {
 4008              		.loc 1 453 0
 4009              		.cfi_startproc
 4010              	.LVL442:
 4011 0000 70B5     		push	{r4, r5, r6, lr}
 4012              	.LCFI76:
ARM GAS  C:\Users\Computer\AppData\Local\Temp\cc1tHs0g.s 			page 87


 4013              		.cfi_def_cfa_offset 16
 4014              		.cfi_offset 4, -16
 4015              		.cfi_offset 5, -12
 4016              		.cfi_offset 6, -8
 4017              		.cfi_offset 14, -4
 4018 0002 84B0     		sub	sp, sp, #16
 4019              	.LCFI77:
 4020              		.cfi_def_cfa_offset 32
 453:.\LED_Matrix.c **** {
 4021              		.loc 1 453 0
 4022 0004 061C     		mov	r6, r0
 4023 0006 0D1C     		mov	r5, r1
 4024 0008 0392     		str	r2, [sp, #12]
 4025 000a 1C1C     		mov	r4, r3
 454:.\LED_Matrix.c **** 	uint8 tHour = hours >>4;
 4026              		.loc 1 454 0
 4027 000c 0009     		lsr	r0, r0, #4
 4028              	.LVL443:
 455:.\LED_Matrix.c **** 	if(tHour > 0)
 4029              		.loc 1 455 0
 4030 000e 05D0     		beq	.L141
 457:.\LED_Matrix.c **** 		drawHex(hours>>4,23, 2,c, matrix);
 4031              		.loc 1 457 0
 4032 0010 0093     		str	r3, [sp]
 4033 0012 1721     		mov	r1, #23
 4034              	.LVL444:
 4035 0014 0222     		mov	r2, #2
 4036 0016 039B     		ldr	r3, [sp, #12]
 4037              	.LVL445:
 4038 0018 FFF7FEFF 		bl	drawHex
 4039              	.LVL446:
 4040              	.L141:
 459:.\LED_Matrix.c **** 	drawHex(hours,17, 2,c, matrix);
 4041              		.loc 1 459 0
 4042 001c 301C     		mov	r0, r6
 4043 001e 039B     		ldr	r3, [sp, #12]
 4044 0020 0094     		str	r4, [sp]
 4045 0022 1121     		mov	r1, #17
 4046 0024 0222     		mov	r2, #2
 4047 0026 FFF7FEFF 		bl	drawHex
 4048              	.LVL447:
 460:.\LED_Matrix.c **** 	drawColon(16, 2,c, matrix);
 4049              		.loc 1 460 0
 4050 002a 039A     		ldr	r2, [sp, #12]
 4051 002c 231C     		mov	r3, r4
 4052 002e 1020     		mov	r0, #16
 4053 0030 0221     		mov	r1, #2
 4054 0032 FFF7FEFF 		bl	drawColon
 4055              	.LVL448:
 461:.\LED_Matrix.c **** 	drawHex(min>>4,9, 2,c, matrix);
 4056              		.loc 1 461 0
 4057 0036 2809     		lsr	r0, r5, #4
 4058 0038 039B     		ldr	r3, [sp, #12]
 4059 003a 0094     		str	r4, [sp]
 4060 003c 0921     		mov	r1, #9
 4061 003e 0222     		mov	r2, #2
 4062 0040 FFF7FEFF 		bl	drawHex
ARM GAS  C:\Users\Computer\AppData\Local\Temp\cc1tHs0g.s 			page 88


 4063              	.LVL449:
 462:.\LED_Matrix.c **** 	drawHex(min,3, 2,c, matrix);
 4064              		.loc 1 462 0
 4065 0044 0094     		str	r4, [sp]
 4066 0046 281C     		mov	r0, r5
 4067 0048 0321     		mov	r1, #3
 4068 004a 0222     		mov	r2, #2
 4069 004c 039B     		ldr	r3, [sp, #12]
 4070 004e FFF7FEFF 		bl	drawHex
 4071              	.LVL450:
 463:.\LED_Matrix.c **** }
 4072              		.loc 1 463 0
 4073 0052 04B0     		add	sp, sp, #16
 4074              		@ sp needed for prologue
 4075              	.LVL451:
 4076              	.LVL452:
 4077 0054 70BD     		pop	{r4, r5, r6, pc}
 4078              		.cfi_endproc
 4079              	.LFE63:
 4080              		.size	printTime, .-printTime
 4081 0056 C046     		.section	.text.printHexString,"ax",%progbits
 4082              		.align	2
 4083              		.global	printHexString
 4084              		.code	16
 4085              		.thumb_func
 4086              		.type	printHexString, %function
 4087              	printHexString:
 4088              	.LFB62:
 439:.\LED_Matrix.c **** {
 4089              		.loc 1 439 0
 4090              		.cfi_startproc
 4091              	.LVL453:
 4092 0000 70B5     		push	{r4, r5, r6, lr}
 4093              	.LCFI78:
 4094              		.cfi_def_cfa_offset 16
 4095              		.cfi_offset 4, -16
 4096              		.cfi_offset 5, -12
 4097              		.cfi_offset 6, -8
 4098              		.cfi_offset 14, -4
 4099 0002 84B0     		sub	sp, sp, #16
 4100              	.LCFI79:
 4101              		.cfi_def_cfa_offset 32
 439:.\LED_Matrix.c **** {
 4102              		.loc 1 439 0
 4103 0004 089C     		ldr	r4, [sp, #32]
 4104 0006 051C     		mov	r5, r0
 446:.\LED_Matrix.c **** 	drawHex(tokens[0],3, 2,c, matrix);
 4105              		.loc 1 446 0
 4106 0008 0094     		str	r4, [sp]
 4107 000a 000B     		lsr	r0, r0, #12
 4108              	.LVL454:
 4109 000c 0321     		mov	r1, #3
 4110              	.LVL455:
 4111 000e 0222     		mov	r2, #2
 4112              	.LVL456:
 443:.\LED_Matrix.c **** 	tokens[1] = 0x000F & num>>8;
 4113              		.loc 1 443 0
ARM GAS  C:\Users\Computer\AppData\Local\Temp\cc1tHs0g.s 			page 89


 4114 0010 0F26     		mov	r6, #15
 439:.\LED_Matrix.c **** {
 4115              		.loc 1 439 0
 4116 0012 0393     		str	r3, [sp, #12]
 446:.\LED_Matrix.c **** 	drawHex(tokens[0],3, 2,c, matrix);
 4117              		.loc 1 446 0
 4118 0014 FFF7FEFF 		bl	drawHex
 4119              	.LVL457:
 443:.\LED_Matrix.c **** 	tokens[1] = 0x000F & num>>8;
 4120              		.loc 1 443 0
 4121 0018 280A     		lsr	r0, r5, #8
 447:.\LED_Matrix.c **** 	drawHex(tokens[1],9, 2,c, matrix);
 4122              		.loc 1 447 0
 4123 001a 3040     		and	r0, r6
 4124 001c 039B     		ldr	r3, [sp, #12]
 4125 001e 0094     		str	r4, [sp]
 4126 0020 0921     		mov	r1, #9
 4127 0022 0222     		mov	r2, #2
 4128 0024 FFF7FEFF 		bl	drawHex
 4129              	.LVL458:
 442:.\LED_Matrix.c **** 	tokens[2] = 0x000F & num>>4;
 4130              		.loc 1 442 0
 4131 0028 2809     		lsr	r0, r5, #4
 448:.\LED_Matrix.c **** 	drawHex(tokens[2],15, 2,c, matrix);
 4132              		.loc 1 448 0
 4133 002a 3040     		and	r0, r6
 4134 002c 039B     		ldr	r3, [sp, #12]
 4135 002e 0094     		str	r4, [sp]
 4136 0030 0F21     		mov	r1, #15
 4137 0032 0222     		mov	r2, #2
 4138 0034 FFF7FEFF 		bl	drawHex
 4139              	.LVL459:
 449:.\LED_Matrix.c **** 	drawHex(tokens[3],21, 2,c, matrix);
 4140              		.loc 1 449 0
 4141 0038 301C     		mov	r0, r6
 4142 003a 2840     		and	r0, r5
 4143 003c 0094     		str	r4, [sp]
 4144 003e 1521     		mov	r1, #21
 4145 0040 0222     		mov	r2, #2
 4146 0042 039B     		ldr	r3, [sp, #12]
 4147 0044 FFF7FEFF 		bl	drawHex
 4148              	.LVL460:
 450:.\LED_Matrix.c **** }
 4149              		.loc 1 450 0
 4150 0048 04B0     		add	sp, sp, #16
 4151              		@ sp needed for prologue
 4152              	.LVL461:
 4153 004a 70BD     		pop	{r4, r5, r6, pc}
 4154              		.cfi_endproc
 4155              	.LFE62:
 4156              		.size	printHexString, .-printHexString
 4157              		.section	.text.drawblock,"ax",%progbits
 4158              		.align	2
 4159              		.global	drawblock
 4160              		.code	16
 4161              		.thumb_func
 4162              		.type	drawblock, %function
ARM GAS  C:\Users\Computer\AppData\Local\Temp\cc1tHs0g.s 			page 90


 4163              	drawblock:
 4164              	.LFB65:
 519:.\LED_Matrix.c **** 
 520:.\LED_Matrix.c **** void drawblock(int8 blockLoc, int8 h, RGB c, color *matrix)
 521:.\LED_Matrix.c **** {
 4165              		.loc 1 521 0
 4166              		.cfi_startproc
 4167              	.LVL462:
 4168 0000 F0B5     		push	{r4, r5, r6, r7, lr}
 4169              	.LCFI80:
 4170              		.cfi_def_cfa_offset 20
 4171              		.cfi_offset 4, -20
 4172              		.cfi_offset 5, -16
 4173              		.cfi_offset 6, -12
 4174              		.cfi_offset 7, -8
 4175              		.cfi_offset 14, -4
 4176 0002 4646     		mov	r6, r8
 4177 0004 4F46     		mov	r7, r9
 4178 0006 C0B4     		push	{r6, r7}
 4179              	.LCFI81:
 4180              		.cfi_def_cfa_offset 28
 4181              		.cfi_offset 8, -28
 4182              		.cfi_offset 9, -24
 4183 0008 8600     		lsl	r6, r0, #2
 4184 000a 87B0     		sub	sp, sp, #28
 4185              	.LCFI82:
 4186              		.cfi_def_cfa_offset 56
 4187              		.loc 1 521 0
 4188 000c 0392     		str	r2, [sp, #12]
 4189 000e 1C1C     		mov	r4, r3
 522:.\LED_Matrix.c **** 	int i = 0;
 523:.\LED_Matrix.c **** 	RGB black;
 524:.\LED_Matrix.c **** 	black.r = 0;
 4190              		.loc 1 524 0
 4191 0010 0022     		mov	r2, #0
 4192 0012 05AB     		add	r3, sp, #20
 4193              	.LVL463:
 4194 0014 70B2     		sxtb	r0, r6
 4195              	.LVL464:
 521:.\LED_Matrix.c **** {
 4196              		.loc 1 521 0
 4197 0016 0D1C     		mov	r5, r1
 4198              		.loc 1 524 0
 4199 0018 1A70     		strb	r2, [r3]
 525:.\LED_Matrix.c **** 	black.g = 0;
 4200              		.loc 1 525 0
 4201 001a 5A70     		strb	r2, [r3, #1]
 526:.\LED_Matrix.c **** 	black.b = 0;
 4202              		.loc 1 526 0
 4203 001c 9A70     		strb	r2, [r3, #2]
 4204 001e 0028     		cmp	r0, #0
 4205 0020 4DDB     		blt	.L153
 4206              	.L147:
 4207 0022 1C28     		cmp	r0, #28
 4208 0024 00DD     		ble	.L148
 4209 0026 1C26     		mov	r6, #28
 4210              	.L148:
ARM GAS  C:\Users\Computer\AppData\Local\Temp\cc1tHs0g.s 			page 91


 4211 0028 71B2     		sxtb	r1, r6
 4212              	.LVL465:
 4213 002a F6B2     		uxtb	r6, r6
 527:.\LED_Matrix.c **** 	blockLoc = blockLoc*4;
 528:.\LED_Matrix.c **** 	int8 maxHeight = 15;
 529:.\LED_Matrix.c **** 	if(blockLoc>28)
 530:.\LED_Matrix.c **** 	{
 531:.\LED_Matrix.c **** 		blockLoc=28;
 532:.\LED_Matrix.c **** 	}
 533:.\LED_Matrix.c **** 	else if(blockLoc<0)
 534:.\LED_Matrix.c **** 	{
 535:.\LED_Matrix.c **** 		blockLoc=0;
 536:.\LED_Matrix.c **** 	}
 537:.\LED_Matrix.c **** 	for(i=0;i<4;i++)
 538:.\LED_Matrix.c **** 	{
 539:.\LED_Matrix.c **** 		drawFastVLine(blockLoc+i, 0,h, c, matrix);
 4214              		.loc 1 539 0
 4215 002c 081C     		mov	r0, r1
 4216 002e 771C     		add	r7, r6, #1
 4217 0030 2A1C     		mov	r2, r5
 4218 0032 039B     		ldr	r3, [sp, #12]
 4219 0034 8846     		mov	r8, r1
 4220              	.LVL466:
 4221 0036 0094     		str	r4, [sp]
 4222 0038 0021     		mov	r1, #0
 4223 003a FFF7FEFF 		bl	drawFastVLine
 4224              	.LVL467:
 4225 003e 7BB2     		sxtb	r3, r7
 4226 0040 181C     		mov	r0, r3
 4227 0042 0021     		mov	r1, #0
 4228 0044 2A1C     		mov	r2, r5
 4229 0046 9946     		mov	r9, r3
 4230 0048 0094     		str	r4, [sp]
 4231 004a 039B     		ldr	r3, [sp, #12]
 4232 004c FFF7FEFF 		bl	drawFastVLine
 4233              	.LVL468:
 4234 0050 B21C     		add	r2, r6, #2
 4235 0052 57B2     		sxtb	r7, r2
 4236 0054 0336     		add	r6, r6, #3
 4237 0056 381C     		mov	r0, r7
 4238 0058 0021     		mov	r1, #0
 4239 005a 2A1C     		mov	r2, r5
 4240 005c 039B     		ldr	r3, [sp, #12]
 4241 005e 0094     		str	r4, [sp]
 4242 0060 76B2     		sxtb	r6, r6
 4243 0062 FFF7FEFF 		bl	drawFastVLine
 4244              	.LVL469:
 4245 0066 0094     		str	r4, [sp]
 4246 0068 301C     		mov	r0, r6
 4247 006a 0021     		mov	r1, #0
 4248 006c 2A1C     		mov	r2, r5
 4249 006e 039B     		ldr	r3, [sp, #12]
 4250 0070 FFF7FEFF 		bl	drawFastVLine
 4251              	.LVL470:
 540:.\LED_Matrix.c **** 	}
 541:.\LED_Matrix.c **** 	
 542:.\LED_Matrix.c **** 	for(i=0;i<4;i++)
ARM GAS  C:\Users\Computer\AppData\Local\Temp\cc1tHs0g.s 			page 92


 543:.\LED_Matrix.c **** 	{
 544:.\LED_Matrix.c **** 		if(h != maxHeight)
 4252              		.loc 1 544 0
 4253 0074 0F2D     		cmp	r5, #15
 4254 0076 1DD0     		beq	.L146
 545:.\LED_Matrix.c **** 		{
 546:.\LED_Matrix.c **** 			drawFastVLine(blockLoc+i, h+1,maxHeight, black, matrix);
 4255              		.loc 1 546 0
 4256 0078 0135     		add	r5, r5, #1
 4257 007a 6DB2     		sxtb	r5, r5
 4258 007c 4046     		mov	r0, r8
 4259 007e 291C     		mov	r1, r5
 4260 0080 0F22     		mov	r2, #15
 4261 0082 059B     		ldr	r3, [sp, #20]
 4262 0084 0094     		str	r4, [sp]
 4263 0086 FFF7FEFF 		bl	drawFastVLine
 4264              	.LVL471:
 4265 008a 4846     		mov	r0, r9
 4266 008c 291C     		mov	r1, r5
 4267 008e 0F22     		mov	r2, #15
 4268 0090 059B     		ldr	r3, [sp, #20]
 4269 0092 0094     		str	r4, [sp]
 4270 0094 FFF7FEFF 		bl	drawFastVLine
 4271              	.LVL472:
 4272 0098 381C     		mov	r0, r7
 4273 009a 291C     		mov	r1, r5
 4274 009c 0F22     		mov	r2, #15
 4275 009e 059B     		ldr	r3, [sp, #20]
 4276 00a0 0094     		str	r4, [sp]
 4277 00a2 FFF7FEFF 		bl	drawFastVLine
 4278              	.LVL473:
 4279 00a6 0094     		str	r4, [sp]
 4280 00a8 301C     		mov	r0, r6
 4281 00aa 291C     		mov	r1, r5
 4282 00ac 0F22     		mov	r2, #15
 4283 00ae 059B     		ldr	r3, [sp, #20]
 4284 00b0 FFF7FEFF 		bl	drawFastVLine
 4285              	.LVL474:
 4286              	.L146:
 547:.\LED_Matrix.c **** 		}
 548:.\LED_Matrix.c **** 	}
 549:.\LED_Matrix.c **** 	
 550:.\LED_Matrix.c **** }
 4287              		.loc 1 550 0
 4288 00b4 07B0     		add	sp, sp, #28
 4289              		@ sp needed for prologue
 4290              	.LVL475:
 4291 00b6 0CBC     		pop	{r2, r3}
 4292 00b8 9046     		mov	r8, r2
 4293 00ba 9946     		mov	r9, r3
 4294 00bc F0BD     		pop	{r4, r5, r6, r7, pc}
 4295              	.LVL476:
 4296              	.L153:
 4297 00be 0026     		mov	r6, #0
 4298 00c0 0020     		mov	r0, #0
 4299 00c2 AEE7     		b	.L147
 4300              		.cfi_endproc
ARM GAS  C:\Users\Computer\AppData\Local\Temp\cc1tHs0g.s 			page 93


 4301              	.LFE65:
 4302              		.size	drawblock, .-drawblock
 4303              		.section	.text.ifDataChange,"ax",%progbits
 4304              		.align	2
 4305              		.global	ifDataChange
 4306              		.code	16
 4307              		.thumb_func
 4308              		.type	ifDataChange, %function
 4309              	ifDataChange:
 4310              	.LFB66:
 551:.\LED_Matrix.c **** 
 552:.\LED_Matrix.c **** int ifDataChange(uint8 *oldResult,uint16 *result)
 553:.\LED_Matrix.c **** {
 4311              		.loc 1 553 0
 4312              		.cfi_startproc
 4313              	.LVL477:
 4314 0000 00B5     		push	{lr}
 4315              	.LCFI83:
 4316              		.cfi_def_cfa_offset 4
 4317              		.cfi_offset 14, -4
 554:.\LED_Matrix.c **** 	int i;
 555:.\LED_Matrix.c **** 	uint8 temp = 0;
 556:.\LED_Matrix.c **** 	for(i=0;i<8;i++)
 557:.\LED_Matrix.c **** 	{
 558:.\LED_Matrix.c **** 		temp = ((uint8)(result[i]>>7));
 4318              		.loc 1 558 0
 4319 0002 0B88     		ldrh	r3, [r1]
 559:.\LED_Matrix.c **** 		if(oldResult[i] != temp)
 4320              		.loc 1 559 0
 4321 0004 0278     		ldrb	r2, [r0]
 558:.\LED_Matrix.c **** 		temp = ((uint8)(result[i]>>7));
 4322              		.loc 1 558 0
 4323 0006 DB09     		lsr	r3, r3, #7
 4324              		.loc 1 559 0
 4325 0008 DBB2     		uxtb	r3, r3
 4326 000a 9A42     		cmp	r2, r3
 4327 000c 2BD1     		bne	.L162
 4328              	.LVL478:
 558:.\LED_Matrix.c **** 		temp = ((uint8)(result[i]>>7));
 4329              		.loc 1 558 0
 4330 000e 4A88     		ldrh	r2, [r1, #2]
 4331 0010 D309     		lsr	r3, r2, #7
 4332              		.loc 1 559 0
 4333 0012 4278     		ldrb	r2, [r0, #1]
 4334 0014 DBB2     		uxtb	r3, r3
 4335 0016 9A42     		cmp	r2, r3
 4336 0018 25D1     		bne	.L162
 4337              	.LVL479:
 558:.\LED_Matrix.c **** 		temp = ((uint8)(result[i]>>7));
 4338              		.loc 1 558 0
 4339 001a 8A88     		ldrh	r2, [r1, #4]
 4340 001c D309     		lsr	r3, r2, #7
 4341              		.loc 1 559 0
 4342 001e 8278     		ldrb	r2, [r0, #2]
 4343 0020 DBB2     		uxtb	r3, r3
 4344 0022 9A42     		cmp	r2, r3
 4345 0024 1FD1     		bne	.L162
ARM GAS  C:\Users\Computer\AppData\Local\Temp\cc1tHs0g.s 			page 94


 4346              	.LVL480:
 558:.\LED_Matrix.c **** 		temp = ((uint8)(result[i]>>7));
 4347              		.loc 1 558 0
 4348 0026 CA88     		ldrh	r2, [r1, #6]
 4349 0028 D309     		lsr	r3, r2, #7
 4350              		.loc 1 559 0
 4351 002a C278     		ldrb	r2, [r0, #3]
 4352 002c DBB2     		uxtb	r3, r3
 4353 002e 9A42     		cmp	r2, r3
 4354 0030 19D1     		bne	.L162
 4355              	.LVL481:
 558:.\LED_Matrix.c **** 		temp = ((uint8)(result[i]>>7));
 4356              		.loc 1 558 0
 4357 0032 0A89     		ldrh	r2, [r1, #8]
 4358 0034 D309     		lsr	r3, r2, #7
 4359              		.loc 1 559 0
 4360 0036 0279     		ldrb	r2, [r0, #4]
 4361 0038 DBB2     		uxtb	r3, r3
 4362 003a 9A42     		cmp	r2, r3
 4363 003c 13D1     		bne	.L162
 4364              	.LVL482:
 558:.\LED_Matrix.c **** 		temp = ((uint8)(result[i]>>7));
 4365              		.loc 1 558 0
 4366 003e 4A89     		ldrh	r2, [r1, #10]
 4367 0040 D309     		lsr	r3, r2, #7
 4368              		.loc 1 559 0
 4369 0042 4279     		ldrb	r2, [r0, #5]
 4370 0044 DBB2     		uxtb	r3, r3
 4371 0046 9A42     		cmp	r2, r3
 4372 0048 0DD1     		bne	.L162
 4373              	.LVL483:
 558:.\LED_Matrix.c **** 		temp = ((uint8)(result[i]>>7));
 4374              		.loc 1 558 0
 4375 004a 8A89     		ldrh	r2, [r1, #12]
 4376 004c D309     		lsr	r3, r2, #7
 4377              		.loc 1 559 0
 4378 004e 8279     		ldrb	r2, [r0, #6]
 4379 0050 DBB2     		uxtb	r3, r3
 4380 0052 9A42     		cmp	r2, r3
 4381 0054 07D1     		bne	.L162
 4382              	.LVL484:
 558:.\LED_Matrix.c **** 		temp = ((uint8)(result[i]>>7));
 4383              		.loc 1 558 0
 4384 0056 C989     		ldrh	r1, [r1, #14]
 4385              	.LVL485:
 4386              		.loc 1 559 0
 4387 0058 C079     		ldrb	r0, [r0, #7]
 4388              	.LVL486:
 558:.\LED_Matrix.c **** 		temp = ((uint8)(result[i]>>7));
 4389              		.loc 1 558 0
 4390 005a CA09     		lsr	r2, r1, #7
 4391              		.loc 1 559 0
 4392 005c D1B2     		uxtb	r1, r2
 4393 005e 081A     		sub	r0, r1, r0
 560:.\LED_Matrix.c **** 		{
 561:.\LED_Matrix.c **** 			return 1;
 4394              		.loc 1 561 0
ARM GAS  C:\Users\Computer\AppData\Local\Temp\cc1tHs0g.s 			page 95


 4395 0060 431E     		sub	r3, r0, #1
 4396 0062 9841     		sbc	r0, r0, r3
 4397              	.LVL487:
 4398              	.L155:
 562:.\LED_Matrix.c **** 		}
 563:.\LED_Matrix.c **** 	}
 564:.\LED_Matrix.c **** 	return 0;
 565:.\LED_Matrix.c **** }
 4399              		.loc 1 565 0
 4400              		@ sp needed for prologue
 4401 0064 00BD     		pop	{pc}
 4402              	.LVL488:
 4403              	.L162:
 561:.\LED_Matrix.c **** 			return 1;
 4404              		.loc 1 561 0
 4405 0066 0120     		mov	r0, #1
 4406              	.LVL489:
 4407 0068 FCE7     		b	.L155
 4408              		.cfi_endproc
 4409              	.LFE66:
 4410              		.size	ifDataChange, .-ifDataChange
 4411 006a C046     		.section	.text.anyDataDecrease,"ax",%progbits
 4412              		.align	2
 4413              		.global	anyDataDecrease
 4414              		.code	16
 4415              		.thumb_func
 4416              		.type	anyDataDecrease, %function
 4417              	anyDataDecrease:
 4418              	.LFB67:
 566:.\LED_Matrix.c **** 
 567:.\LED_Matrix.c **** int anyDataDecrease(uint8 *oldResult,uint16 *result)
 568:.\LED_Matrix.c **** {
 4419              		.loc 1 568 0
 4420              		.cfi_startproc
 4421              	.LVL490:
 4422 0000 00B5     		push	{lr}
 4423              	.LCFI84:
 4424              		.cfi_def_cfa_offset 4
 4425              		.cfi_offset 14, -4
 569:.\LED_Matrix.c **** 	int i;
 570:.\LED_Matrix.c **** 	uint8 temp = 0;
 571:.\LED_Matrix.c **** 	for(i=0;i<8;i++)
 572:.\LED_Matrix.c **** 	{
 573:.\LED_Matrix.c **** 		temp = ((uint8)(result[i]>>7));
 4426              		.loc 1 573 0
 4427 0002 0A88     		ldrh	r2, [r1]
 4428 0004 D309     		lsr	r3, r2, #7
 574:.\LED_Matrix.c **** 		if(oldResult[i] > temp)
 4429              		.loc 1 574 0
 4430 0006 DAB2     		uxtb	r2, r3
 4431 0008 0378     		ldrb	r3, [r0]
 4432 000a 9A42     		cmp	r2, r3
 4433 000c 2BD3     		bcc	.L171
 4434              	.LVL491:
 573:.\LED_Matrix.c **** 		temp = ((uint8)(result[i]>>7));
 4435              		.loc 1 573 0
 4436 000e 4A88     		ldrh	r2, [r1, #2]
ARM GAS  C:\Users\Computer\AppData\Local\Temp\cc1tHs0g.s 			page 96


 4437 0010 D309     		lsr	r3, r2, #7
 4438              		.loc 1 574 0
 4439 0012 DAB2     		uxtb	r2, r3
 4440 0014 4378     		ldrb	r3, [r0, #1]
 4441 0016 9A42     		cmp	r2, r3
 4442 0018 25D3     		bcc	.L171
 4443              	.LVL492:
 573:.\LED_Matrix.c **** 		temp = ((uint8)(result[i]>>7));
 4444              		.loc 1 573 0
 4445 001a 8A88     		ldrh	r2, [r1, #4]
 4446 001c D309     		lsr	r3, r2, #7
 4447              		.loc 1 574 0
 4448 001e DAB2     		uxtb	r2, r3
 4449 0020 8378     		ldrb	r3, [r0, #2]
 4450 0022 9A42     		cmp	r2, r3
 4451 0024 1FD3     		bcc	.L171
 4452              	.LVL493:
 573:.\LED_Matrix.c **** 		temp = ((uint8)(result[i]>>7));
 4453              		.loc 1 573 0
 4454 0026 CA88     		ldrh	r2, [r1, #6]
 4455 0028 D309     		lsr	r3, r2, #7
 4456              		.loc 1 574 0
 4457 002a DAB2     		uxtb	r2, r3
 4458 002c C378     		ldrb	r3, [r0, #3]
 4459 002e 9A42     		cmp	r2, r3
 4460 0030 19D3     		bcc	.L171
 4461              	.LVL494:
 573:.\LED_Matrix.c **** 		temp = ((uint8)(result[i]>>7));
 4462              		.loc 1 573 0
 4463 0032 0A89     		ldrh	r2, [r1, #8]
 4464 0034 D309     		lsr	r3, r2, #7
 4465              		.loc 1 574 0
 4466 0036 DAB2     		uxtb	r2, r3
 4467 0038 0379     		ldrb	r3, [r0, #4]
 4468 003a 9A42     		cmp	r2, r3
 4469 003c 13D3     		bcc	.L171
 4470              	.LVL495:
 573:.\LED_Matrix.c **** 		temp = ((uint8)(result[i]>>7));
 4471              		.loc 1 573 0
 4472 003e 4A89     		ldrh	r2, [r1, #10]
 4473 0040 D309     		lsr	r3, r2, #7
 4474              		.loc 1 574 0
 4475 0042 DAB2     		uxtb	r2, r3
 4476 0044 4379     		ldrb	r3, [r0, #5]
 4477 0046 9A42     		cmp	r2, r3
 4478 0048 0DD3     		bcc	.L171
 4479              	.LVL496:
 573:.\LED_Matrix.c **** 		temp = ((uint8)(result[i]>>7));
 4480              		.loc 1 573 0
 4481 004a 8A89     		ldrh	r2, [r1, #12]
 4482 004c D309     		lsr	r3, r2, #7
 4483              		.loc 1 574 0
 4484 004e DAB2     		uxtb	r2, r3
 4485 0050 8379     		ldrb	r3, [r0, #6]
 4486 0052 9A42     		cmp	r2, r3
 4487 0054 07D3     		bcc	.L171
 4488              	.LVL497:
ARM GAS  C:\Users\Computer\AppData\Local\Temp\cc1tHs0g.s 			page 97


 573:.\LED_Matrix.c **** 		temp = ((uint8)(result[i]>>7));
 4489              		.loc 1 573 0
 4490 0056 C989     		ldrh	r1, [r1, #14]
 4491              	.LVL498:
 4492              		.loc 1 574 0
 4493 0058 C079     		ldrb	r0, [r0, #7]
 4494              	.LVL499:
 573:.\LED_Matrix.c **** 		temp = ((uint8)(result[i]>>7));
 4495              		.loc 1 573 0
 4496 005a CA09     		lsr	r2, r1, #7
 4497              		.loc 1 574 0
 4498 005c D1B2     		uxtb	r1, r2
 4499 005e 8142     		cmp	r1, r0
 4500 0060 9B41     		sbc	r3, r3, r3
 4501 0062 5842     		neg	r0, r3
 4502              	.LVL500:
 4503              	.L164:
 575:.\LED_Matrix.c **** 		{
 576:.\LED_Matrix.c **** 			return 1;
 577:.\LED_Matrix.c **** 		}
 578:.\LED_Matrix.c **** 	}
 579:.\LED_Matrix.c **** 	return 0;
 580:.\LED_Matrix.c **** }
 4504              		.loc 1 580 0
 4505              		@ sp needed for prologue
 4506 0064 00BD     		pop	{pc}
 4507              	.LVL501:
 4508              	.L171:
 576:.\LED_Matrix.c **** 			return 1;
 4509              		.loc 1 576 0
 4510 0066 0120     		mov	r0, #1
 4511              	.LVL502:
 4512 0068 FCE7     		b	.L164
 4513              		.cfi_endproc
 4514              	.LFE67:
 4515              		.size	anyDataDecrease, .-anyDataDecrease
 4516 006a C046     		.text
 4517              	.Letext0:
 4518              		.file 2 "c:\\program files (x86)\\cypress\\psoc creator\\3.0\\psoc creator\\import\\gnu_cs\\arm\\4
 4519              		.file 3 "./Generated_Source/PSoC4/cytypes.h"
 4520              		.file 4 "./LED_Matrix.h"
 4521              		.section	.debug_info,"",%progbits
 4522              	.Ldebug_info0:
 4523 0000 17240000 		.4byte	0x2417
 4524 0004 0200     		.2byte	0x2
 4525 0006 00000000 		.4byte	.Ldebug_abbrev0
 4526 000a 04       		.byte	0x4
 4527 000b 01       		.uleb128 0x1
 4528 000c 08020000 		.4byte	.LASF71
 4529 0010 01       		.byte	0x1
 4530 0011 2B000000 		.4byte	.LASF72
 4531 0015 8F000000 		.4byte	.LASF73
 4532 0019 00000000 		.4byte	.Ldebug_ranges0+0
 4533 001d 00000000 		.4byte	0
 4534 0021 00000000 		.4byte	0
 4535 0025 00000000 		.4byte	.Ldebug_line0
 4536 0029 02       		.uleb128 0x2
ARM GAS  C:\Users\Computer\AppData\Local\Temp\cc1tHs0g.s 			page 98


 4537 002a 01       		.byte	0x1
 4538 002b 06       		.byte	0x6
 4539 002c 62000000 		.4byte	.LASF0
 4540 0030 02       		.uleb128 0x2
 4541 0031 01       		.byte	0x1
 4542 0032 08       		.byte	0x8
 4543 0033 5E020000 		.4byte	.LASF1
 4544 0037 03       		.uleb128 0x3
 4545 0038 4C000000 		.4byte	.LASF9
 4546 003c 02       		.byte	0x2
 4547 003d 35       		.byte	0x35
 4548 003e 42000000 		.4byte	0x42
 4549 0042 02       		.uleb128 0x2
 4550 0043 02       		.byte	0x2
 4551 0044 05       		.byte	0x5
 4552 0045 6C020000 		.4byte	.LASF2
 4553 0049 02       		.uleb128 0x2
 4554 004a 02       		.byte	0x2
 4555 004b 07       		.byte	0x7
 4556 004c 7D010000 		.4byte	.LASF3
 4557 0050 02       		.uleb128 0x2
 4558 0051 04       		.byte	0x4
 4559 0052 05       		.byte	0x5
 4560 0053 CD000000 		.4byte	.LASF4
 4561 0057 02       		.uleb128 0x2
 4562 0058 04       		.byte	0x4
 4563 0059 07       		.byte	0x7
 4564 005a 3F010000 		.4byte	.LASF5
 4565 005e 02       		.uleb128 0x2
 4566 005f 08       		.byte	0x8
 4567 0060 05       		.byte	0x5
 4568 0061 54000000 		.4byte	.LASF6
 4569 0065 02       		.uleb128 0x2
 4570 0066 08       		.byte	0x8
 4571 0067 07       		.byte	0x7
 4572 0068 6E000000 		.4byte	.LASF7
 4573 006c 04       		.uleb128 0x4
 4574 006d 04       		.byte	0x4
 4575 006e 05       		.byte	0x5
 4576 006f 696E7400 		.ascii	"int\000"
 4577 0073 02       		.uleb128 0x2
 4578 0074 04       		.byte	0x4
 4579 0075 07       		.byte	0x7
 4580 0076 32010000 		.4byte	.LASF8
 4581 007a 03       		.uleb128 0x3
 4582 007b D6000000 		.4byte	.LASF10
 4583 007f 03       		.byte	0x3
 4584 0080 5B       		.byte	0x5b
 4585 0081 30000000 		.4byte	0x30
 4586 0085 03       		.uleb128 0x3
 4587 0086 0C000000 		.4byte	.LASF11
 4588 008a 03       		.byte	0x3
 4589 008b 5C       		.byte	0x5c
 4590 008c 49000000 		.4byte	0x49
 4591 0090 03       		.uleb128 0x3
 4592 0091 90010000 		.4byte	.LASF12
 4593 0095 03       		.byte	0x3
ARM GAS  C:\Users\Computer\AppData\Local\Temp\cc1tHs0g.s 			page 99


 4594 0096 5E       		.byte	0x5e
 4595 0097 29000000 		.4byte	0x29
 4596 009b 02       		.uleb128 0x2
 4597 009c 04       		.byte	0x4
 4598 009d 04       		.byte	0x4
 4599 009e F7010000 		.4byte	.LASF13
 4600 00a2 02       		.uleb128 0x2
 4601 00a3 08       		.byte	0x8
 4602 00a4 04       		.byte	0x4
 4603 00a5 F0000000 		.4byte	.LASF14
 4604 00a9 02       		.uleb128 0x2
 4605 00aa 01       		.byte	0x1
 4606 00ab 08       		.byte	0x8
 4607 00ac B3020000 		.4byte	.LASF15
 4608 00b0 02       		.uleb128 0x2
 4609 00b1 04       		.byte	0x4
 4610 00b2 07       		.byte	0x7
 4611 00b3 B9010000 		.4byte	.LASF16
 4612 00b7 05       		.uleb128 0x5
 4613 00b8 0F       		.byte	0xf
 4614 00b9 04       		.byte	0x4
 4615 00ba 26       		.byte	0x26
 4616 00bb E4000000 		.4byte	0xe4
 4617 00bf 06       		.uleb128 0x6
 4618 00c0 7200     		.ascii	"r\000"
 4619 00c2 04       		.byte	0x4
 4620 00c3 28       		.byte	0x28
 4621 00c4 E4000000 		.4byte	0xe4
 4622 00c8 02       		.byte	0x2
 4623 00c9 23       		.byte	0x23
 4624 00ca 00       		.uleb128 0
 4625 00cb 06       		.uleb128 0x6
 4626 00cc 6700     		.ascii	"g\000"
 4627 00ce 04       		.byte	0x4
 4628 00cf 29       		.byte	0x29
 4629 00d0 E4000000 		.4byte	0xe4
 4630 00d4 02       		.byte	0x2
 4631 00d5 23       		.byte	0x23
 4632 00d6 05       		.uleb128 0x5
 4633 00d7 06       		.uleb128 0x6
 4634 00d8 6200     		.ascii	"b\000"
 4635 00da 04       		.byte	0x4
 4636 00db 2A       		.byte	0x2a
 4637 00dc E4000000 		.4byte	0xe4
 4638 00e0 02       		.byte	0x2
 4639 00e1 23       		.byte	0x23
 4640 00e2 0A       		.uleb128 0xa
 4641 00e3 00       		.byte	0
 4642 00e4 07       		.uleb128 0x7
 4643 00e5 7A000000 		.4byte	0x7a
 4644 00e9 F4000000 		.4byte	0xf4
 4645 00ed 08       		.uleb128 0x8
 4646 00ee B0000000 		.4byte	0xb0
 4647 00f2 04       		.byte	0x4
 4648 00f3 00       		.byte	0
 4649 00f4 03       		.uleb128 0x3
 4650 00f5 AD020000 		.4byte	.LASF17
ARM GAS  C:\Users\Computer\AppData\Local\Temp\cc1tHs0g.s 			page 100


 4651 00f9 04       		.byte	0x4
 4652 00fa 2B       		.byte	0x2b
 4653 00fb B7000000 		.4byte	0xb7
 4654 00ff 05       		.uleb128 0x5
 4655 0100 03       		.byte	0x3
 4656 0101 04       		.byte	0x4
 4657 0102 2E       		.byte	0x2e
 4658 0103 2C010000 		.4byte	0x12c
 4659 0107 06       		.uleb128 0x6
 4660 0108 7200     		.ascii	"r\000"
 4661 010a 04       		.byte	0x4
 4662 010b 30       		.byte	0x30
 4663 010c 7A000000 		.4byte	0x7a
 4664 0110 02       		.byte	0x2
 4665 0111 23       		.byte	0x23
 4666 0112 00       		.uleb128 0
 4667 0113 06       		.uleb128 0x6
 4668 0114 6700     		.ascii	"g\000"
 4669 0116 04       		.byte	0x4
 4670 0117 31       		.byte	0x31
 4671 0118 7A000000 		.4byte	0x7a
 4672 011c 02       		.byte	0x2
 4673 011d 23       		.byte	0x23
 4674 011e 01       		.uleb128 0x1
 4675 011f 06       		.uleb128 0x6
 4676 0120 6200     		.ascii	"b\000"
 4677 0122 04       		.byte	0x4
 4678 0123 32       		.byte	0x32
 4679 0124 7A000000 		.4byte	0x7a
 4680 0128 02       		.byte	0x2
 4681 0129 23       		.byte	0x23
 4682 012a 02       		.uleb128 0x2
 4683 012b 00       		.byte	0
 4684 012c 09       		.uleb128 0x9
 4685 012d 52474200 		.ascii	"RGB\000"
 4686 0131 04       		.byte	0x4
 4687 0132 33       		.byte	0x33
 4688 0133 FF000000 		.4byte	0xff
 4689 0137 0A       		.uleb128 0xa
 4690 0138 01       		.byte	0x1
 4691 0139 B8020000 		.4byte	.LASF23
 4692 013d 01       		.byte	0x1
 4693 013e 5D       		.byte	0x5d
 4694 013f 01       		.byte	0x1
 4695 0140 00000000 		.4byte	.LFB34
 4696 0144 78000000 		.4byte	.LFE34
 4697 0148 00000000 		.4byte	.LLST0
 4698 014c 01       		.byte	0x1
 4699 014d C4010000 		.4byte	0x1c4
 4700 0151 0B       		.uleb128 0xb
 4701 0152 7800     		.ascii	"x\000"
 4702 0154 01       		.byte	0x1
 4703 0155 5D       		.byte	0x5d
 4704 0156 7A000000 		.4byte	0x7a
 4705 015a 20000000 		.4byte	.LLST1
 4706 015e 0B       		.uleb128 0xb
 4707 015f 7900     		.ascii	"y\000"
ARM GAS  C:\Users\Computer\AppData\Local\Temp\cc1tHs0g.s 			page 101


 4708 0161 01       		.byte	0x1
 4709 0162 5D       		.byte	0x5d
 4710 0163 7A000000 		.4byte	0x7a
 4711 0167 41000000 		.4byte	.LLST2
 4712 016b 0C       		.uleb128 0xc
 4713 016c 18010000 		.4byte	.LASF18
 4714 0170 01       		.byte	0x1
 4715 0171 5D       		.byte	0x5d
 4716 0172 C4010000 		.4byte	0x1c4
 4717 0176 62000000 		.4byte	.LLST3
 4718 017a 0D       		.uleb128 0xd
 4719 017b 6900     		.ascii	"i\000"
 4720 017d 01       		.byte	0x1
 4721 017e 5F       		.byte	0x5f
 4722 017f 7A000000 		.4byte	0x7a
 4723 0183 83000000 		.4byte	.LLST4
 4724 0187 0E       		.uleb128 0xe
 4725 0188 C3020000 		.4byte	.LASF19
 4726 018c 01       		.byte	0x1
 4727 018d 5F       		.byte	0x5f
 4728 018e 7A000000 		.4byte	0x7a
 4729 0192 D3000000 		.4byte	.LLST5
 4730 0196 0E       		.uleb128 0xe
 4731 0197 D1020000 		.4byte	.LASF20
 4732 019b 01       		.byte	0x1
 4733 019c 60       		.byte	0x60
 4734 019d 7A000000 		.4byte	0x7a
 4735 01a1 EF000000 		.4byte	.LLST6
 4736 01a5 0E       		.uleb128 0xe
 4737 01a6 DA020000 		.4byte	.LASF21
 4738 01aa 01       		.byte	0x1
 4739 01ab 61       		.byte	0x61
 4740 01ac 7A000000 		.4byte	0x7a
 4741 01b0 06010000 		.4byte	.LLST7
 4742 01b4 0E       		.uleb128 0xe
 4743 01b5 F3020000 		.4byte	.LASF22
 4744 01b9 01       		.byte	0x1
 4745 01ba 62       		.byte	0x62
 4746 01bb 7A000000 		.4byte	0x7a
 4747 01bf 1D010000 		.4byte	.LLST8
 4748 01c3 00       		.byte	0
 4749 01c4 0F       		.uleb128 0xf
 4750 01c5 04       		.byte	0x4
 4751 01c6 F4000000 		.4byte	0xf4
 4752 01ca 0A       		.uleb128 0xa
 4753 01cb 01       		.byte	0x1
 4754 01cc D6010000 		.4byte	.LASF24
 4755 01d0 01       		.byte	0x1
 4756 01d1 2C       		.byte	0x2c
 4757 01d2 01       		.byte	0x1
 4758 01d3 00000000 		.4byte	.LFB33
 4759 01d7 F6000000 		.4byte	.LFE33
 4760 01db 34010000 		.4byte	.LLST9
 4761 01df 01       		.byte	0x1
 4762 01e0 80020000 		.4byte	0x280
 4763 01e4 0B       		.uleb128 0xb
 4764 01e5 7800     		.ascii	"x\000"
ARM GAS  C:\Users\Computer\AppData\Local\Temp\cc1tHs0g.s 			page 102


 4765 01e7 01       		.byte	0x1
 4766 01e8 2C       		.byte	0x2c
 4767 01e9 90000000 		.4byte	0x90
 4768 01ed 60010000 		.4byte	.LLST10
 4769 01f1 0B       		.uleb128 0xb
 4770 01f2 7900     		.ascii	"y\000"
 4771 01f4 01       		.byte	0x1
 4772 01f5 2C       		.byte	0x2c
 4773 01f6 90000000 		.4byte	0x90
 4774 01fa 81010000 		.4byte	.LLST11
 4775 01fe 10       		.uleb128 0x10
 4776 01ff 6300     		.ascii	"c\000"
 4777 0201 01       		.byte	0x1
 4778 0202 2C       		.byte	0x2c
 4779 0203 2C010000 		.4byte	0x12c
 4780 0207 02       		.byte	0x2
 4781 0208 91       		.byte	0x91
 4782 0209 64       		.sleb128 -28
 4783 020a 0C       		.uleb128 0xc
 4784 020b 18010000 		.4byte	.LASF18
 4785 020f 01       		.byte	0x1
 4786 0210 2C       		.byte	0x2c
 4787 0211 C4010000 		.4byte	0x1c4
 4788 0215 AD010000 		.4byte	.LLST12
 4789 0219 0D       		.uleb128 0xd
 4790 021a 6900     		.ascii	"i\000"
 4791 021c 01       		.byte	0x1
 4792 021d 32       		.byte	0x32
 4793 021e 90000000 		.4byte	0x90
 4794 0222 D9010000 		.4byte	.LLST13
 4795 0226 0E       		.uleb128 0xe
 4796 0227 C3020000 		.4byte	.LASF19
 4797 022b 01       		.byte	0x1
 4798 022c 32       		.byte	0x32
 4799 022d 90000000 		.4byte	0x90
 4800 0231 29020000 		.4byte	.LLST14
 4801 0235 0E       		.uleb128 0xe
 4802 0236 D1020000 		.4byte	.LASF20
 4803 023a 01       		.byte	0x1
 4804 023b 38       		.byte	0x38
 4805 023c 90000000 		.4byte	0x90
 4806 0240 59020000 		.4byte	.LLST15
 4807 0244 0E       		.uleb128 0xe
 4808 0245 DA020000 		.4byte	.LASF21
 4809 0249 01       		.byte	0x1
 4810 024a 3E       		.byte	0x3e
 4811 024b 90000000 		.4byte	0x90
 4812 024f 80020000 		.4byte	.LLST16
 4813 0253 0E       		.uleb128 0xe
 4814 0254 F3020000 		.4byte	.LASF22
 4815 0258 01       		.byte	0x1
 4816 0259 3F       		.byte	0x3f
 4817 025a 90000000 		.4byte	0x90
 4818 025e A6020000 		.4byte	.LLST17
 4819 0262 11       		.uleb128 0x11
 4820 0263 16000000 		.4byte	.LVL13
 4821 0267 37010000 		.4byte	0x137
ARM GAS  C:\Users\Computer\AppData\Local\Temp\cc1tHs0g.s 			page 103


 4822 026b 12       		.uleb128 0x12
 4823 026c 01       		.byte	0x1
 4824 026d 52       		.byte	0x52
 4825 026e 02       		.byte	0x2
 4826 026f 76       		.byte	0x76
 4827 0270 00       		.sleb128 0
 4828 0271 12       		.uleb128 0x12
 4829 0272 01       		.byte	0x1
 4830 0273 51       		.byte	0x51
 4831 0274 02       		.byte	0x2
 4832 0275 77       		.byte	0x77
 4833 0276 00       		.sleb128 0
 4834 0277 12       		.uleb128 0x12
 4835 0278 01       		.byte	0x1
 4836 0279 50       		.byte	0x50
 4837 027a 03       		.byte	0x3
 4838 027b F3       		.byte	0xf3
 4839 027c 01       		.uleb128 0x1
 4840 027d 50       		.byte	0x50
 4841 027e 00       		.byte	0
 4842 027f 00       		.byte	0
 4843 0280 0A       		.uleb128 0xa
 4844 0281 01       		.byte	0x1
 4845 0282 A7010000 		.4byte	.LASF25
 4846 0286 01       		.byte	0x1
 4847 0287 7C       		.byte	0x7c
 4848 0288 01       		.byte	0x1
 4849 0289 00000000 		.4byte	.LFB35
 4850 028d 4E000000 		.4byte	.LFE35
 4851 0291 D4020000 		.4byte	.LLST18
 4852 0295 01       		.byte	0x1
 4853 0296 C6020000 		.4byte	0x2c6
 4854 029a 0C       		.uleb128 0xc
 4855 029b 18010000 		.4byte	.LASF18
 4856 029f 01       		.byte	0x1
 4857 02a0 7C       		.byte	0x7c
 4858 02a1 C4010000 		.4byte	0x1c4
 4859 02a5 F4020000 		.4byte	.LLST19
 4860 02a9 0D       		.uleb128 0xd
 4861 02aa 7800     		.ascii	"x\000"
 4862 02ac 01       		.byte	0x1
 4863 02ad 7E       		.byte	0x7e
 4864 02ae 7A000000 		.4byte	0x7a
 4865 02b2 15030000 		.4byte	.LLST20
 4866 02b6 0E       		.uleb128 0xe
 4867 02b7 C3020000 		.4byte	.LASF19
 4868 02bb 01       		.byte	0x1
 4869 02bc 7E       		.byte	0x7e
 4870 02bd 7A000000 		.4byte	0x7a
 4871 02c1 A1030000 		.4byte	.LLST21
 4872 02c5 00       		.byte	0
 4873 02c6 0A       		.uleb128 0xa
 4874 02c7 01       		.byte	0x1
 4875 02c8 FD010000 		.4byte	.LASF26
 4876 02cc 01       		.byte	0x1
 4877 02cd 8B       		.byte	0x8b
 4878 02ce 01       		.byte	0x1
ARM GAS  C:\Users\Computer\AppData\Local\Temp\cc1tHs0g.s 			page 104


 4879 02cf 00000000 		.4byte	.LFB36
 4880 02d3 66010000 		.4byte	.LFE36
 4881 02d7 B5030000 		.4byte	.LLST22
 4882 02db 01       		.byte	0x1
 4883 02dc EB040000 		.4byte	0x4eb
 4884 02e0 0B       		.uleb128 0xb
 4885 02e1 783000   		.ascii	"x0\000"
 4886 02e4 01       		.byte	0x1
 4887 02e5 8B       		.byte	0x8b
 4888 02e6 90000000 		.4byte	0x90
 4889 02ea EE030000 		.4byte	.LLST23
 4890 02ee 0B       		.uleb128 0xb
 4891 02ef 793000   		.ascii	"y0\000"
 4892 02f2 01       		.byte	0x1
 4893 02f3 8B       		.byte	0x8b
 4894 02f4 90000000 		.4byte	0x90
 4895 02f8 0F040000 		.4byte	.LLST24
 4896 02fc 0B       		.uleb128 0xb
 4897 02fd 7200     		.ascii	"r\000"
 4898 02ff 01       		.byte	0x1
 4899 0300 8B       		.byte	0x8b
 4900 0301 90000000 		.4byte	0x90
 4901 0305 30040000 		.4byte	.LLST25
 4902 0309 10       		.uleb128 0x10
 4903 030a 6300     		.ascii	"c\000"
 4904 030c 01       		.byte	0x1
 4905 030d 8B       		.byte	0x8b
 4906 030e 2C010000 		.4byte	0x12c
 4907 0312 02       		.byte	0x2
 4908 0313 91       		.byte	0x91
 4909 0314 54       		.sleb128 -44
 4910 0315 13       		.uleb128 0x13
 4911 0316 18010000 		.4byte	.LASF18
 4912 031a 01       		.byte	0x1
 4913 031b 8B       		.byte	0x8b
 4914 031c C4010000 		.4byte	0x1c4
 4915 0320 02       		.byte	0x2
 4916 0321 91       		.byte	0x91
 4917 0322 00       		.sleb128 0
 4918 0323 0D       		.uleb128 0xd
 4919 0324 6600     		.ascii	"f\000"
 4920 0326 01       		.byte	0x1
 4921 0327 8C       		.byte	0x8c
 4922 0328 90000000 		.4byte	0x90
 4923 032c 51040000 		.4byte	.LLST26
 4924 0330 0E       		.uleb128 0xe
 4925 0331 62010000 		.4byte	.LASF27
 4926 0335 01       		.byte	0x1
 4927 0336 8D       		.byte	0x8d
 4928 0337 90000000 		.4byte	0x90
 4929 033b 90040000 		.4byte	.LLST27
 4930 033f 14       		.uleb128 0x14
 4931 0340 68010000 		.4byte	.LASF28
 4932 0344 01       		.byte	0x1
 4933 0345 8E       		.byte	0x8e
 4934 0346 90000000 		.4byte	0x90
 4935 034a 02       		.byte	0x2
ARM GAS  C:\Users\Computer\AppData\Local\Temp\cc1tHs0g.s 			page 105


 4936 034b 91       		.byte	0x91
 4937 034c 50       		.sleb128 -48
 4938 034d 0D       		.uleb128 0xd
 4939 034e 7800     		.ascii	"x\000"
 4940 0350 01       		.byte	0x1
 4941 0351 8F       		.byte	0x8f
 4942 0352 90000000 		.4byte	0x90
 4943 0356 C6040000 		.4byte	.LLST28
 4944 035a 0D       		.uleb128 0xd
 4945 035b 7900     		.ascii	"y\000"
 4946 035d 01       		.byte	0x1
 4947 035e 90       		.byte	0x90
 4948 035f 90000000 		.4byte	0x90
 4949 0363 E6040000 		.4byte	.LLST29
 4950 0367 15       		.uleb128 0x15
 4951 0368 3E000000 		.4byte	.LVL41
 4952 036c CA010000 		.4byte	0x1ca
 4953 0370 8A030000 		.4byte	0x38a
 4954 0374 12       		.uleb128 0x12
 4955 0375 01       		.byte	0x1
 4956 0376 53       		.byte	0x53
 4957 0377 02       		.byte	0x2
 4958 0378 74       		.byte	0x74
 4959 0379 00       		.sleb128 0
 4960 037a 12       		.uleb128 0x12
 4961 037b 01       		.byte	0x1
 4962 037c 51       		.byte	0x51
 4963 037d 05       		.byte	0x5
 4964 037e 75       		.byte	0x75
 4965 037f 00       		.sleb128 0
 4966 0380 7A       		.byte	0x7a
 4967 0381 00       		.sleb128 0
 4968 0382 22       		.byte	0x22
 4969 0383 12       		.uleb128 0x12
 4970 0384 01       		.byte	0x1
 4971 0385 50       		.byte	0x50
 4972 0386 02       		.byte	0x2
 4973 0387 79       		.byte	0x79
 4974 0388 00       		.sleb128 0
 4975 0389 00       		.byte	0
 4976 038a 15       		.uleb128 0x15
 4977 038b 4E000000 		.4byte	.LVL42
 4978 038f CA010000 		.4byte	0x1ca
 4979 0393 AD030000 		.4byte	0x3ad
 4980 0397 12       		.uleb128 0x12
 4981 0398 01       		.byte	0x1
 4982 0399 53       		.byte	0x53
 4983 039a 02       		.byte	0x2
 4984 039b 74       		.byte	0x74
 4985 039c 00       		.sleb128 0
 4986 039d 12       		.uleb128 0x12
 4987 039e 01       		.byte	0x1
 4988 039f 51       		.byte	0x51
 4989 03a0 05       		.byte	0x5
 4990 03a1 7A       		.byte	0x7a
 4991 03a2 00       		.sleb128 0
 4992 03a3 75       		.byte	0x75
ARM GAS  C:\Users\Computer\AppData\Local\Temp\cc1tHs0g.s 			page 106


 4993 03a4 00       		.sleb128 0
 4994 03a5 1C       		.byte	0x1c
 4995 03a6 12       		.uleb128 0x12
 4996 03a7 01       		.byte	0x1
 4997 03a8 50       		.byte	0x50
 4998 03a9 02       		.byte	0x2
 4999 03aa 79       		.byte	0x79
 5000 03ab 00       		.sleb128 0
 5001 03ac 00       		.byte	0
 5002 03ad 15       		.uleb128 0x15
 5003 03ae 62000000 		.4byte	.LVL43
 5004 03b2 CA010000 		.4byte	0x1ca
 5005 03b6 D0030000 		.4byte	0x3d0
 5006 03ba 12       		.uleb128 0x12
 5007 03bb 01       		.byte	0x1
 5008 03bc 53       		.byte	0x53
 5009 03bd 02       		.byte	0x2
 5010 03be 74       		.byte	0x74
 5011 03bf 00       		.sleb128 0
 5012 03c0 12       		.uleb128 0x12
 5013 03c1 01       		.byte	0x1
 5014 03c2 51       		.byte	0x51
 5015 03c3 02       		.byte	0x2
 5016 03c4 76       		.byte	0x76
 5017 03c5 00       		.sleb128 0
 5018 03c6 12       		.uleb128 0x12
 5019 03c7 01       		.byte	0x1
 5020 03c8 50       		.byte	0x50
 5021 03c9 05       		.byte	0x5
 5022 03ca 75       		.byte	0x75
 5023 03cb 00       		.sleb128 0
 5024 03cc 7B       		.byte	0x7b
 5025 03cd 00       		.sleb128 0
 5026 03ce 22       		.byte	0x22
 5027 03cf 00       		.byte	0
 5028 03d0 15       		.uleb128 0x15
 5029 03d1 74000000 		.4byte	.LVL44
 5030 03d5 CA010000 		.4byte	0x1ca
 5031 03d9 EA030000 		.4byte	0x3ea
 5032 03dd 12       		.uleb128 0x12
 5033 03de 01       		.byte	0x1
 5034 03df 53       		.byte	0x53
 5035 03e0 02       		.byte	0x2
 5036 03e1 74       		.byte	0x74
 5037 03e2 00       		.sleb128 0
 5038 03e3 12       		.uleb128 0x12
 5039 03e4 01       		.byte	0x1
 5040 03e5 50       		.byte	0x50
 5041 03e6 02       		.byte	0x2
 5042 03e7 75       		.byte	0x75
 5043 03e8 00       		.sleb128 0
 5044 03e9 00       		.byte	0
 5045 03ea 15       		.uleb128 0x15
 5046 03eb C4000000 		.4byte	.LVL51
 5047 03ef CA010000 		.4byte	0x1ca
 5048 03f3 0C040000 		.4byte	0x40c
 5049 03f7 12       		.uleb128 0x12
ARM GAS  C:\Users\Computer\AppData\Local\Temp\cc1tHs0g.s 			page 107


 5050 03f8 01       		.byte	0x1
 5051 03f9 53       		.byte	0x53
 5052 03fa 02       		.byte	0x2
 5053 03fb 74       		.byte	0x74
 5054 03fc 00       		.sleb128 0
 5055 03fd 12       		.uleb128 0x12
 5056 03fe 01       		.byte	0x1
 5057 03ff 51       		.byte	0x51
 5058 0400 02       		.byte	0x2
 5059 0401 78       		.byte	0x78
 5060 0402 00       		.sleb128 0
 5061 0403 12       		.uleb128 0x12
 5062 0404 01       		.byte	0x1
 5063 0405 50       		.byte	0x50
 5064 0406 04       		.byte	0x4
 5065 0407 91       		.byte	0x91
 5066 0408 48       		.sleb128 -56
 5067 0409 94       		.byte	0x94
 5068 040a 01       		.byte	0x1
 5069 040b 00       		.byte	0
 5070 040c 15       		.uleb128 0x15
 5071 040d D8000000 		.4byte	.LVL52
 5072 0411 CA010000 		.4byte	0x1ca
 5073 0415 2C040000 		.4byte	0x42c
 5074 0419 12       		.uleb128 0x12
 5075 041a 01       		.byte	0x1
 5076 041b 53       		.byte	0x53
 5077 041c 02       		.byte	0x2
 5078 041d 74       		.byte	0x74
 5079 041e 00       		.sleb128 0
 5080 041f 12       		.uleb128 0x12
 5081 0420 01       		.byte	0x1
 5082 0421 51       		.byte	0x51
 5083 0422 02       		.byte	0x2
 5084 0423 78       		.byte	0x78
 5085 0424 00       		.sleb128 0
 5086 0425 12       		.uleb128 0x12
 5087 0426 01       		.byte	0x1
 5088 0427 50       		.byte	0x50
 5089 0428 02       		.byte	0x2
 5090 0429 79       		.byte	0x79
 5091 042a 00       		.sleb128 0
 5092 042b 00       		.byte	0
 5093 042c 15       		.uleb128 0x15
 5094 042d EC000000 		.4byte	.LVL53
 5095 0431 CA010000 		.4byte	0x1ca
 5096 0435 4E040000 		.4byte	0x44e
 5097 0439 12       		.uleb128 0x12
 5098 043a 01       		.byte	0x1
 5099 043b 53       		.byte	0x53
 5100 043c 02       		.byte	0x2
 5101 043d 74       		.byte	0x74
 5102 043e 00       		.sleb128 0
 5103 043f 12       		.uleb128 0x12
 5104 0440 01       		.byte	0x1
 5105 0441 51       		.byte	0x51
 5106 0442 02       		.byte	0x2
ARM GAS  C:\Users\Computer\AppData\Local\Temp\cc1tHs0g.s 			page 108


 5107 0443 78       		.byte	0x78
 5108 0444 00       		.sleb128 0
 5109 0445 12       		.uleb128 0x12
 5110 0446 01       		.byte	0x1
 5111 0447 50       		.byte	0x50
 5112 0448 04       		.byte	0x4
 5113 0449 91       		.byte	0x91
 5114 044a 48       		.sleb128 -56
 5115 044b 94       		.byte	0x94
 5116 044c 01       		.byte	0x1
 5117 044d 00       		.byte	0
 5118 044e 15       		.uleb128 0x15
 5119 044f F8000000 		.4byte	.LVL54
 5120 0453 CA010000 		.4byte	0x1ca
 5121 0457 6E040000 		.4byte	0x46e
 5122 045b 12       		.uleb128 0x12
 5123 045c 01       		.byte	0x1
 5124 045d 53       		.byte	0x53
 5125 045e 02       		.byte	0x2
 5126 045f 74       		.byte	0x74
 5127 0460 00       		.sleb128 0
 5128 0461 12       		.uleb128 0x12
 5129 0462 01       		.byte	0x1
 5130 0463 51       		.byte	0x51
 5131 0464 02       		.byte	0x2
 5132 0465 78       		.byte	0x78
 5133 0466 00       		.sleb128 0
 5134 0467 12       		.uleb128 0x12
 5135 0468 01       		.byte	0x1
 5136 0469 50       		.byte	0x50
 5137 046a 02       		.byte	0x2
 5138 046b 79       		.byte	0x79
 5139 046c 00       		.sleb128 0
 5140 046d 00       		.byte	0
 5141 046e 15       		.uleb128 0x15
 5142 046f 14010000 		.4byte	.LVL55
 5143 0473 CA010000 		.4byte	0x1ca
 5144 0477 8E040000 		.4byte	0x48e
 5145 047b 12       		.uleb128 0x12
 5146 047c 01       		.byte	0x1
 5147 047d 53       		.byte	0x53
 5148 047e 02       		.byte	0x2
 5149 047f 74       		.byte	0x74
 5150 0480 00       		.sleb128 0
 5151 0481 12       		.uleb128 0x12
 5152 0482 01       		.byte	0x1
 5153 0483 51       		.byte	0x51
 5154 0484 02       		.byte	0x2
 5155 0485 79       		.byte	0x79
 5156 0486 00       		.sleb128 0
 5157 0487 12       		.uleb128 0x12
 5158 0488 01       		.byte	0x1
 5159 0489 50       		.byte	0x50
 5160 048a 02       		.byte	0x2
 5161 048b 78       		.byte	0x78
 5162 048c 00       		.sleb128 0
 5163 048d 00       		.byte	0
ARM GAS  C:\Users\Computer\AppData\Local\Temp\cc1tHs0g.s 			page 109


 5164 048e 15       		.uleb128 0x15
 5165 048f 26010000 		.4byte	.LVL56
 5166 0493 CA010000 		.4byte	0x1ca
 5167 0497 AE040000 		.4byte	0x4ae
 5168 049b 12       		.uleb128 0x12
 5169 049c 01       		.byte	0x1
 5170 049d 53       		.byte	0x53
 5171 049e 02       		.byte	0x2
 5172 049f 74       		.byte	0x74
 5173 04a0 00       		.sleb128 0
 5174 04a1 12       		.uleb128 0x12
 5175 04a2 01       		.byte	0x1
 5176 04a3 51       		.byte	0x51
 5177 04a4 02       		.byte	0x2
 5178 04a5 79       		.byte	0x79
 5179 04a6 00       		.sleb128 0
 5180 04a7 12       		.uleb128 0x12
 5181 04a8 01       		.byte	0x1
 5182 04a9 50       		.byte	0x50
 5183 04aa 02       		.byte	0x2
 5184 04ab 76       		.byte	0x76
 5185 04ac 00       		.sleb128 0
 5186 04ad 00       		.byte	0
 5187 04ae 15       		.uleb128 0x15
 5188 04af 3A010000 		.4byte	.LVL57
 5189 04b3 CA010000 		.4byte	0x1ca
 5190 04b7 CE040000 		.4byte	0x4ce
 5191 04bb 12       		.uleb128 0x12
 5192 04bc 01       		.byte	0x1
 5193 04bd 53       		.byte	0x53
 5194 04be 02       		.byte	0x2
 5195 04bf 74       		.byte	0x74
 5196 04c0 00       		.sleb128 0
 5197 04c1 12       		.uleb128 0x12
 5198 04c2 01       		.byte	0x1
 5199 04c3 51       		.byte	0x51
 5200 04c4 02       		.byte	0x2
 5201 04c5 79       		.byte	0x79
 5202 04c6 00       		.sleb128 0
 5203 04c7 12       		.uleb128 0x12
 5204 04c8 01       		.byte	0x1
 5205 04c9 50       		.byte	0x50
 5206 04ca 02       		.byte	0x2
 5207 04cb 78       		.byte	0x78
 5208 04cc 00       		.sleb128 0
 5209 04cd 00       		.byte	0
 5210 04ce 11       		.uleb128 0x11
 5211 04cf 46010000 		.4byte	.LVL58
 5212 04d3 CA010000 		.4byte	0x1ca
 5213 04d7 12       		.uleb128 0x12
 5214 04d8 01       		.byte	0x1
 5215 04d9 53       		.byte	0x53
 5216 04da 02       		.byte	0x2
 5217 04db 74       		.byte	0x74
 5218 04dc 00       		.sleb128 0
 5219 04dd 12       		.uleb128 0x12
 5220 04de 01       		.byte	0x1
ARM GAS  C:\Users\Computer\AppData\Local\Temp\cc1tHs0g.s 			page 110


 5221 04df 51       		.byte	0x51
 5222 04e0 02       		.byte	0x2
 5223 04e1 79       		.byte	0x79
 5224 04e2 00       		.sleb128 0
 5225 04e3 12       		.uleb128 0x12
 5226 04e4 01       		.byte	0x1
 5227 04e5 50       		.byte	0x50
 5228 04e6 02       		.byte	0x2
 5229 04e7 76       		.byte	0x76
 5230 04e8 00       		.sleb128 0
 5231 04e9 00       		.byte	0
 5232 04ea 00       		.byte	0
 5233 04eb 0A       		.uleb128 0xa
 5234 04ec 01       		.byte	0x1
 5235 04ed 51010000 		.4byte	.LASF29
 5236 04f1 01       		.byte	0x1
 5237 04f2 AF       		.byte	0xaf
 5238 04f3 01       		.byte	0x1
 5239 04f4 00000000 		.4byte	.LFB37
 5240 04f8 76010000 		.4byte	.LFE37
 5241 04fc 05050000 		.4byte	.LLST30
 5242 0500 01       		.byte	0x1
 5243 0501 C8060000 		.4byte	0x6c8
 5244 0505 0B       		.uleb128 0xb
 5245 0506 783000   		.ascii	"x0\000"
 5246 0509 01       		.byte	0x1
 5247 050a AF       		.byte	0xaf
 5248 050b 90000000 		.4byte	0x90
 5249 050f 3E050000 		.4byte	.LLST31
 5250 0513 0B       		.uleb128 0xb
 5251 0514 793000   		.ascii	"y0\000"
 5252 0517 01       		.byte	0x1
 5253 0518 AF       		.byte	0xaf
 5254 0519 90000000 		.4byte	0x90
 5255 051d 6A050000 		.4byte	.LLST32
 5256 0521 0B       		.uleb128 0xb
 5257 0522 7200     		.ascii	"r\000"
 5258 0524 01       		.byte	0x1
 5259 0525 AF       		.byte	0xaf
 5260 0526 90000000 		.4byte	0x90
 5261 052a 96050000 		.4byte	.LLST33
 5262 052e 0C       		.uleb128 0xc
 5263 052f 8D020000 		.4byte	.LASF30
 5264 0533 01       		.byte	0x1
 5265 0534 AF       		.byte	0xaf
 5266 0535 90000000 		.4byte	0x90
 5267 0539 B7050000 		.4byte	.LLST34
 5268 053d 10       		.uleb128 0x10
 5269 053e 6300     		.ascii	"c\000"
 5270 0540 01       		.byte	0x1
 5271 0541 AF       		.byte	0xaf
 5272 0542 2C010000 		.4byte	0x12c
 5273 0546 02       		.byte	0x2
 5274 0547 91       		.byte	0x91
 5275 0548 00       		.sleb128 0
 5276 0549 13       		.uleb128 0x13
 5277 054a 18010000 		.4byte	.LASF18
ARM GAS  C:\Users\Computer\AppData\Local\Temp\cc1tHs0g.s 			page 111


 5278 054e 01       		.byte	0x1
 5279 054f AF       		.byte	0xaf
 5280 0550 C4010000 		.4byte	0x1c4
 5281 0554 02       		.byte	0x2
 5282 0555 91       		.byte	0x91
 5283 0556 04       		.sleb128 4
 5284 0557 0D       		.uleb128 0xd
 5285 0558 6600     		.ascii	"f\000"
 5286 055a 01       		.byte	0x1
 5287 055b B0       		.byte	0xb0
 5288 055c 90000000 		.4byte	0x90
 5289 0560 D8050000 		.4byte	.LLST35
 5290 0564 0E       		.uleb128 0xe
 5291 0565 62010000 		.4byte	.LASF27
 5292 0569 01       		.byte	0x1
 5293 056a B1       		.byte	0xb1
 5294 056b 90000000 		.4byte	0x90
 5295 056f 2D060000 		.4byte	.LLST36
 5296 0573 14       		.uleb128 0x14
 5297 0574 68010000 		.4byte	.LASF28
 5298 0578 01       		.byte	0x1
 5299 0579 B2       		.byte	0xb2
 5300 057a 90000000 		.4byte	0x90
 5301 057e 02       		.byte	0x2
 5302 057f 91       		.byte	0x91
 5303 0580 44       		.sleb128 -60
 5304 0581 0D       		.uleb128 0xd
 5305 0582 7800     		.ascii	"x\000"
 5306 0584 01       		.byte	0x1
 5307 0585 B3       		.byte	0xb3
 5308 0586 90000000 		.4byte	0x90
 5309 058a 85060000 		.4byte	.LLST37
 5310 058e 0D       		.uleb128 0xd
 5311 058f 7900     		.ascii	"y\000"
 5312 0591 01       		.byte	0x1
 5313 0592 B4       		.byte	0xb4
 5314 0593 90000000 		.4byte	0x90
 5315 0597 C5060000 		.4byte	.LLST38
 5316 059b 15       		.uleb128 0x15
 5317 059c AE000000 		.4byte	.LVL77
 5318 05a0 CA010000 		.4byte	0x1ca
 5319 05a4 C1050000 		.4byte	0x5c1
 5320 05a8 12       		.uleb128 0x12
 5321 05a9 01       		.byte	0x1
 5322 05aa 53       		.byte	0x53
 5323 05ab 02       		.byte	0x2
 5324 05ac 77       		.byte	0x77
 5325 05ad 00       		.sleb128 0
 5326 05ae 12       		.uleb128 0x12
 5327 05af 01       		.byte	0x1
 5328 05b0 51       		.byte	0x51
 5329 05b1 05       		.byte	0x5
 5330 05b2 7B       		.byte	0x7b
 5331 05b3 00       		.sleb128 0
 5332 05b4 78       		.byte	0x78
 5333 05b5 00       		.sleb128 0
 5334 05b6 22       		.byte	0x22
ARM GAS  C:\Users\Computer\AppData\Local\Temp\cc1tHs0g.s 			page 112


 5335 05b7 12       		.uleb128 0x12
 5336 05b8 01       		.byte	0x1
 5337 05b9 50       		.byte	0x50
 5338 05ba 05       		.byte	0x5
 5339 05bb 79       		.byte	0x79
 5340 05bc 00       		.sleb128 0
 5341 05bd 74       		.byte	0x74
 5342 05be 00       		.sleb128 0
 5343 05bf 22       		.byte	0x22
 5344 05c0 00       		.byte	0
 5345 05c1 15       		.uleb128 0x15
 5346 05c2 C2000000 		.4byte	.LVL78
 5347 05c6 CA010000 		.4byte	0x1ca
 5348 05ca E7050000 		.4byte	0x5e7
 5349 05ce 12       		.uleb128 0x12
 5350 05cf 01       		.byte	0x1
 5351 05d0 53       		.byte	0x53
 5352 05d1 02       		.byte	0x2
 5353 05d2 77       		.byte	0x77
 5354 05d3 00       		.sleb128 0
 5355 05d4 12       		.uleb128 0x12
 5356 05d5 01       		.byte	0x1
 5357 05d6 51       		.byte	0x51
 5358 05d7 05       		.byte	0x5
 5359 05d8 78       		.byte	0x78
 5360 05d9 00       		.sleb128 0
 5361 05da 74       		.byte	0x74
 5362 05db 00       		.sleb128 0
 5363 05dc 22       		.byte	0x22
 5364 05dd 12       		.uleb128 0x12
 5365 05de 01       		.byte	0x1
 5366 05df 50       		.byte	0x50
 5367 05e0 05       		.byte	0x5
 5368 05e1 7B       		.byte	0x7b
 5369 05e2 00       		.sleb128 0
 5370 05e3 79       		.byte	0x79
 5371 05e4 00       		.sleb128 0
 5372 05e5 22       		.byte	0x22
 5373 05e6 00       		.byte	0
 5374 05e7 15       		.uleb128 0x15
 5375 05e8 E0000000 		.4byte	.LVL79
 5376 05ec CA010000 		.4byte	0x1ca
 5377 05f0 0D060000 		.4byte	0x60d
 5378 05f4 12       		.uleb128 0x12
 5379 05f5 01       		.byte	0x1
 5380 05f6 53       		.byte	0x53
 5381 05f7 02       		.byte	0x2
 5382 05f8 77       		.byte	0x77
 5383 05f9 00       		.sleb128 0
 5384 05fa 12       		.uleb128 0x12
 5385 05fb 01       		.byte	0x1
 5386 05fc 51       		.byte	0x51
 5387 05fd 05       		.byte	0x5
 5388 05fe 78       		.byte	0x78
 5389 05ff 00       		.sleb128 0
 5390 0600 7B       		.byte	0x7b
 5391 0601 00       		.sleb128 0
ARM GAS  C:\Users\Computer\AppData\Local\Temp\cc1tHs0g.s 			page 113


 5392 0602 1C       		.byte	0x1c
 5393 0603 12       		.uleb128 0x12
 5394 0604 01       		.byte	0x1
 5395 0605 50       		.byte	0x50
 5396 0606 05       		.byte	0x5
 5397 0607 79       		.byte	0x79
 5398 0608 00       		.sleb128 0
 5399 0609 74       		.byte	0x74
 5400 060a 00       		.sleb128 0
 5401 060b 22       		.byte	0x22
 5402 060c 00       		.byte	0
 5403 060d 15       		.uleb128 0x15
 5404 060e F4000000 		.4byte	.LVL80
 5405 0612 CA010000 		.4byte	0x1ca
 5406 0616 33060000 		.4byte	0x633
 5407 061a 12       		.uleb128 0x12
 5408 061b 01       		.byte	0x1
 5409 061c 53       		.byte	0x53
 5410 061d 02       		.byte	0x2
 5411 061e 77       		.byte	0x77
 5412 061f 00       		.sleb128 0
 5413 0620 12       		.uleb128 0x12
 5414 0621 01       		.byte	0x1
 5415 0622 51       		.byte	0x51
 5416 0623 05       		.byte	0x5
 5417 0624 78       		.byte	0x78
 5418 0625 00       		.sleb128 0
 5419 0626 74       		.byte	0x74
 5420 0627 00       		.sleb128 0
 5421 0628 1C       		.byte	0x1c
 5422 0629 12       		.uleb128 0x12
 5423 062a 01       		.byte	0x1
 5424 062b 50       		.byte	0x50
 5425 062c 05       		.byte	0x5
 5426 062d 7B       		.byte	0x7b
 5427 062e 00       		.sleb128 0
 5428 062f 79       		.byte	0x79
 5429 0630 00       		.sleb128 0
 5430 0631 22       		.byte	0x22
 5431 0632 00       		.byte	0
 5432 0633 15       		.uleb128 0x15
 5433 0634 12010000 		.4byte	.LVL81
 5434 0638 CA010000 		.4byte	0x1ca
 5435 063c 59060000 		.4byte	0x659
 5436 0640 12       		.uleb128 0x12
 5437 0641 01       		.byte	0x1
 5438 0642 53       		.byte	0x53
 5439 0643 02       		.byte	0x2
 5440 0644 77       		.byte	0x77
 5441 0645 00       		.sleb128 0
 5442 0646 12       		.uleb128 0x12
 5443 0647 01       		.byte	0x1
 5444 0648 51       		.byte	0x51
 5445 0649 05       		.byte	0x5
 5446 064a 78       		.byte	0x78
 5447 064b 00       		.sleb128 0
 5448 064c 74       		.byte	0x74
ARM GAS  C:\Users\Computer\AppData\Local\Temp\cc1tHs0g.s 			page 114


 5449 064d 00       		.sleb128 0
 5450 064e 22       		.byte	0x22
 5451 064f 12       		.uleb128 0x12
 5452 0650 01       		.byte	0x1
 5453 0651 50       		.byte	0x50
 5454 0652 05       		.byte	0x5
 5455 0653 79       		.byte	0x79
 5456 0654 00       		.sleb128 0
 5457 0655 7B       		.byte	0x7b
 5458 0656 00       		.sleb128 0
 5459 0657 1C       		.byte	0x1c
 5460 0658 00       		.byte	0
 5461 0659 15       		.uleb128 0x15
 5462 065a 26010000 		.4byte	.LVL82
 5463 065e CA010000 		.4byte	0x1ca
 5464 0662 7F060000 		.4byte	0x67f
 5465 0666 12       		.uleb128 0x12
 5466 0667 01       		.byte	0x1
 5467 0668 53       		.byte	0x53
 5468 0669 02       		.byte	0x2
 5469 066a 77       		.byte	0x77
 5470 066b 00       		.sleb128 0
 5471 066c 12       		.uleb128 0x12
 5472 066d 01       		.byte	0x1
 5473 066e 51       		.byte	0x51
 5474 066f 05       		.byte	0x5
 5475 0670 7B       		.byte	0x7b
 5476 0671 00       		.sleb128 0
 5477 0672 78       		.byte	0x78
 5478 0673 00       		.sleb128 0
 5479 0674 22       		.byte	0x22
 5480 0675 12       		.uleb128 0x12
 5481 0676 01       		.byte	0x1
 5482 0677 50       		.byte	0x50
 5483 0678 05       		.byte	0x5
 5484 0679 79       		.byte	0x79
 5485 067a 00       		.sleb128 0
 5486 067b 74       		.byte	0x74
 5487 067c 00       		.sleb128 0
 5488 067d 1C       		.byte	0x1c
 5489 067e 00       		.byte	0
 5490 067f 15       		.uleb128 0x15
 5491 0680 44010000 		.4byte	.LVL83
 5492 0684 CA010000 		.4byte	0x1ca
 5493 0688 A5060000 		.4byte	0x6a5
 5494 068c 12       		.uleb128 0x12
 5495 068d 01       		.byte	0x1
 5496 068e 53       		.byte	0x53
 5497 068f 02       		.byte	0x2
 5498 0690 77       		.byte	0x77
 5499 0691 00       		.sleb128 0
 5500 0692 12       		.uleb128 0x12
 5501 0693 01       		.byte	0x1
 5502 0694 51       		.byte	0x51
 5503 0695 05       		.byte	0x5
 5504 0696 78       		.byte	0x78
 5505 0697 00       		.sleb128 0
ARM GAS  C:\Users\Computer\AppData\Local\Temp\cc1tHs0g.s 			page 115


 5506 0698 74       		.byte	0x74
 5507 0699 00       		.sleb128 0
 5508 069a 1C       		.byte	0x1c
 5509 069b 12       		.uleb128 0x12
 5510 069c 01       		.byte	0x1
 5511 069d 50       		.byte	0x50
 5512 069e 05       		.byte	0x5
 5513 069f 79       		.byte	0x79
 5514 06a0 00       		.sleb128 0
 5515 06a1 7B       		.byte	0x7b
 5516 06a2 00       		.sleb128 0
 5517 06a3 1C       		.byte	0x1c
 5518 06a4 00       		.byte	0
 5519 06a5 11       		.uleb128 0x11
 5520 06a6 5A010000 		.4byte	.LVL84
 5521 06aa CA010000 		.4byte	0x1ca
 5522 06ae 12       		.uleb128 0x12
 5523 06af 01       		.byte	0x1
 5524 06b0 53       		.byte	0x53
 5525 06b1 02       		.byte	0x2
 5526 06b2 77       		.byte	0x77
 5527 06b3 00       		.sleb128 0
 5528 06b4 12       		.uleb128 0x12
 5529 06b5 01       		.byte	0x1
 5530 06b6 51       		.byte	0x51
 5531 06b7 05       		.byte	0x5
 5532 06b8 78       		.byte	0x78
 5533 06b9 00       		.sleb128 0
 5534 06ba 7B       		.byte	0x7b
 5535 06bb 00       		.sleb128 0
 5536 06bc 1C       		.byte	0x1c
 5537 06bd 12       		.uleb128 0x12
 5538 06be 01       		.byte	0x1
 5539 06bf 50       		.byte	0x50
 5540 06c0 05       		.byte	0x5
 5541 06c1 79       		.byte	0x79
 5542 06c2 00       		.sleb128 0
 5543 06c3 74       		.byte	0x74
 5544 06c4 00       		.sleb128 0
 5545 06c5 1C       		.byte	0x1c
 5546 06c6 00       		.byte	0
 5547 06c7 00       		.byte	0
 5548 06c8 0A       		.uleb128 0xa
 5549 06c9 01       		.byte	0x1
 5550 06ca F7000000 		.4byte	.LASF31
 5551 06ce 01       		.byte	0x1
 5552 06cf D2       		.byte	0xd2
 5553 06d0 01       		.byte	0x1
 5554 06d1 00000000 		.4byte	.LFB38
 5555 06d5 00020000 		.4byte	.LFE38
 5556 06d9 EE060000 		.4byte	.LLST39
 5557 06dd 01       		.byte	0x1
 5558 06de 78080000 		.4byte	0x878
 5559 06e2 0B       		.uleb128 0xb
 5560 06e3 783000   		.ascii	"x0\000"
 5561 06e6 01       		.byte	0x1
 5562 06e7 D2       		.byte	0xd2
ARM GAS  C:\Users\Computer\AppData\Local\Temp\cc1tHs0g.s 			page 116


 5563 06e8 90000000 		.4byte	0x90
 5564 06ec 26070000 		.4byte	.LLST40
 5565 06f0 0B       		.uleb128 0xb
 5566 06f1 793000   		.ascii	"y0\000"
 5567 06f4 01       		.byte	0x1
 5568 06f5 D2       		.byte	0xd2
 5569 06f6 90000000 		.4byte	0x90
 5570 06fa 8E070000 		.4byte	.LLST41
 5571 06fe 0B       		.uleb128 0xb
 5572 06ff 783100   		.ascii	"x1\000"
 5573 0702 01       		.byte	0x1
 5574 0703 D2       		.byte	0xd2
 5575 0704 90000000 		.4byte	0x90
 5576 0708 2B080000 		.4byte	.LLST42
 5577 070c 0B       		.uleb128 0xb
 5578 070d 793100   		.ascii	"y1\000"
 5579 0710 01       		.byte	0x1
 5580 0711 D2       		.byte	0xd2
 5581 0712 90000000 		.4byte	0x90
 5582 0716 99080000 		.4byte	.LLST43
 5583 071a 10       		.uleb128 0x10
 5584 071b 6300     		.ascii	"c\000"
 5585 071d 01       		.byte	0x1
 5586 071e D2       		.byte	0xd2
 5587 071f 2C010000 		.4byte	0x12c
 5588 0723 02       		.byte	0x2
 5589 0724 91       		.byte	0x91
 5590 0725 00       		.sleb128 0
 5591 0726 13       		.uleb128 0x13
 5592 0727 18010000 		.4byte	.LASF18
 5593 072b 01       		.byte	0x1
 5594 072c D2       		.byte	0xd2
 5595 072d C4010000 		.4byte	0x1c4
 5596 0731 02       		.byte	0x2
 5597 0732 91       		.byte	0x91
 5598 0733 04       		.sleb128 4
 5599 0734 14       		.uleb128 0x14
 5600 0735 D0010000 		.4byte	.LASF32
 5601 0739 01       		.byte	0x1
 5602 073a D4       		.byte	0xd4
 5603 073b 90000000 		.4byte	0x90
 5604 073f 01       		.byte	0x1
 5605 0740 59       		.byte	0x59
 5606 0741 0D       		.uleb128 0xd
 5607 0742 647800   		.ascii	"dx\000"
 5608 0745 01       		.byte	0x1
 5609 0746 DF       		.byte	0xdf
 5610 0747 90000000 		.4byte	0x90
 5611 074b E6080000 		.4byte	.LLST44
 5612 074f 0D       		.uleb128 0xd
 5613 0750 647900   		.ascii	"dy\000"
 5614 0753 01       		.byte	0x1
 5615 0754 DF       		.byte	0xdf
 5616 0755 90000000 		.4byte	0x90
 5617 0759 0F090000 		.4byte	.LLST45
 5618 075d 0D       		.uleb128 0xd
 5619 075e 65727200 		.ascii	"err\000"
ARM GAS  C:\Users\Computer\AppData\Local\Temp\cc1tHs0g.s 			page 117


 5620 0762 01       		.byte	0x1
 5621 0763 E3       		.byte	0xe3
 5622 0764 90000000 		.4byte	0x90
 5623 0768 22090000 		.4byte	.LLST46
 5624 076c 0E       		.uleb128 0xe
 5625 076d 7C020000 		.4byte	.LASF33
 5626 0771 01       		.byte	0x1
 5627 0772 E4       		.byte	0xe4
 5628 0773 90000000 		.4byte	0x90
 5629 0777 83090000 		.4byte	.LLST47
 5630 077b 15       		.uleb128 0x15
 5631 077c 94000000 		.4byte	.LVL101
 5632 0780 CA010000 		.4byte	0x1ca
 5633 0784 9B070000 		.4byte	0x79b
 5634 0788 12       		.uleb128 0x12
 5635 0789 01       		.byte	0x1
 5636 078a 53       		.byte	0x53
 5637 078b 02       		.byte	0x2
 5638 078c 78       		.byte	0x78
 5639 078d 00       		.sleb128 0
 5640 078e 12       		.uleb128 0x12
 5641 078f 01       		.byte	0x1
 5642 0790 51       		.byte	0x51
 5643 0791 02       		.byte	0x2
 5644 0792 75       		.byte	0x75
 5645 0793 00       		.sleb128 0
 5646 0794 12       		.uleb128 0x12
 5647 0795 01       		.byte	0x1
 5648 0796 50       		.byte	0x50
 5649 0797 02       		.byte	0x2
 5650 0798 74       		.byte	0x74
 5651 0799 00       		.sleb128 0
 5652 079a 00       		.byte	0
 5653 079b 15       		.uleb128 0x15
 5654 079c C6000000 		.4byte	.LVL106
 5655 07a0 CA010000 		.4byte	0x1ca
 5656 07a4 BB070000 		.4byte	0x7bb
 5657 07a8 12       		.uleb128 0x12
 5658 07a9 01       		.byte	0x1
 5659 07aa 53       		.byte	0x53
 5660 07ab 02       		.byte	0x2
 5661 07ac 78       		.byte	0x78
 5662 07ad 00       		.sleb128 0
 5663 07ae 12       		.uleb128 0x12
 5664 07af 01       		.byte	0x1
 5665 07b0 51       		.byte	0x51
 5666 07b1 02       		.byte	0x2
 5667 07b2 75       		.byte	0x75
 5668 07b3 00       		.sleb128 0
 5669 07b4 12       		.uleb128 0x12
 5670 07b5 01       		.byte	0x1
 5671 07b6 50       		.byte	0x50
 5672 07b7 02       		.byte	0x2
 5673 07b8 74       		.byte	0x74
 5674 07b9 00       		.sleb128 0
 5675 07ba 00       		.byte	0
 5676 07bb 15       		.uleb128 0x15
ARM GAS  C:\Users\Computer\AppData\Local\Temp\cc1tHs0g.s 			page 118


 5677 07bc F2000000 		.4byte	.LVL111
 5678 07c0 CA010000 		.4byte	0x1ca
 5679 07c4 DB070000 		.4byte	0x7db
 5680 07c8 12       		.uleb128 0x12
 5681 07c9 01       		.byte	0x1
 5682 07ca 53       		.byte	0x53
 5683 07cb 02       		.byte	0x2
 5684 07cc 78       		.byte	0x78
 5685 07cd 00       		.sleb128 0
 5686 07ce 12       		.uleb128 0x12
 5687 07cf 01       		.byte	0x1
 5688 07d0 51       		.byte	0x51
 5689 07d1 02       		.byte	0x2
 5690 07d2 74       		.byte	0x74
 5691 07d3 00       		.sleb128 0
 5692 07d4 12       		.uleb128 0x12
 5693 07d5 01       		.byte	0x1
 5694 07d6 50       		.byte	0x50
 5695 07d7 02       		.byte	0x2
 5696 07d8 75       		.byte	0x75
 5697 07d9 00       		.sleb128 0
 5698 07da 00       		.byte	0
 5699 07db 15       		.uleb128 0x15
 5700 07dc 14010000 		.4byte	.LVL114
 5701 07e0 CA010000 		.4byte	0x1ca
 5702 07e4 FB070000 		.4byte	0x7fb
 5703 07e8 12       		.uleb128 0x12
 5704 07e9 01       		.byte	0x1
 5705 07ea 53       		.byte	0x53
 5706 07eb 02       		.byte	0x2
 5707 07ec 78       		.byte	0x78
 5708 07ed 00       		.sleb128 0
 5709 07ee 12       		.uleb128 0x12
 5710 07ef 01       		.byte	0x1
 5711 07f0 51       		.byte	0x51
 5712 07f1 02       		.byte	0x2
 5713 07f2 74       		.byte	0x74
 5714 07f3 00       		.sleb128 0
 5715 07f4 12       		.uleb128 0x12
 5716 07f5 01       		.byte	0x1
 5717 07f6 50       		.byte	0x50
 5718 07f7 02       		.byte	0x2
 5719 07f8 75       		.byte	0x75
 5720 07f9 00       		.sleb128 0
 5721 07fa 00       		.byte	0
 5722 07fb 15       		.uleb128 0x15
 5723 07fc 3A010000 		.4byte	.LVL117
 5724 0800 CA010000 		.4byte	0x1ca
 5725 0804 1B080000 		.4byte	0x81b
 5726 0808 12       		.uleb128 0x12
 5727 0809 01       		.byte	0x1
 5728 080a 53       		.byte	0x53
 5729 080b 02       		.byte	0x2
 5730 080c 78       		.byte	0x78
 5731 080d 00       		.sleb128 0
 5732 080e 12       		.uleb128 0x12
 5733 080f 01       		.byte	0x1
ARM GAS  C:\Users\Computer\AppData\Local\Temp\cc1tHs0g.s 			page 119


 5734 0810 51       		.byte	0x51
 5735 0811 02       		.byte	0x2
 5736 0812 75       		.byte	0x75
 5737 0813 00       		.sleb128 0
 5738 0814 12       		.uleb128 0x12
 5739 0815 01       		.byte	0x1
 5740 0816 50       		.byte	0x50
 5741 0817 02       		.byte	0x2
 5742 0818 74       		.byte	0x74
 5743 0819 00       		.sleb128 0
 5744 081a 00       		.byte	0
 5745 081b 15       		.uleb128 0x15
 5746 081c 68010000 		.4byte	.LVL120
 5747 0820 CA010000 		.4byte	0x1ca
 5748 0824 3B080000 		.4byte	0x83b
 5749 0828 12       		.uleb128 0x12
 5750 0829 01       		.byte	0x1
 5751 082a 53       		.byte	0x53
 5752 082b 02       		.byte	0x2
 5753 082c 78       		.byte	0x78
 5754 082d 00       		.sleb128 0
 5755 082e 12       		.uleb128 0x12
 5756 082f 01       		.byte	0x1
 5757 0830 51       		.byte	0x51
 5758 0831 02       		.byte	0x2
 5759 0832 75       		.byte	0x75
 5760 0833 00       		.sleb128 0
 5761 0834 12       		.uleb128 0x12
 5762 0835 01       		.byte	0x1
 5763 0836 50       		.byte	0x50
 5764 0837 02       		.byte	0x2
 5765 0838 74       		.byte	0x74
 5766 0839 00       		.sleb128 0
 5767 083a 00       		.byte	0
 5768 083b 15       		.uleb128 0x15
 5769 083c BC010000 		.4byte	.LVL132
 5770 0840 CA010000 		.4byte	0x1ca
 5771 0844 5B080000 		.4byte	0x85b
 5772 0848 12       		.uleb128 0x12
 5773 0849 01       		.byte	0x1
 5774 084a 53       		.byte	0x53
 5775 084b 02       		.byte	0x2
 5776 084c 78       		.byte	0x78
 5777 084d 00       		.sleb128 0
 5778 084e 12       		.uleb128 0x12
 5779 084f 01       		.byte	0x1
 5780 0850 51       		.byte	0x51
 5781 0851 02       		.byte	0x2
 5782 0852 74       		.byte	0x74
 5783 0853 00       		.sleb128 0
 5784 0854 12       		.uleb128 0x12
 5785 0855 01       		.byte	0x1
 5786 0856 50       		.byte	0x50
 5787 0857 02       		.byte	0x2
 5788 0858 75       		.byte	0x75
 5789 0859 00       		.sleb128 0
 5790 085a 00       		.byte	0
ARM GAS  C:\Users\Computer\AppData\Local\Temp\cc1tHs0g.s 			page 120


 5791 085b 11       		.uleb128 0x11
 5792 085c E4010000 		.4byte	.LVL138
 5793 0860 CA010000 		.4byte	0x1ca
 5794 0864 12       		.uleb128 0x12
 5795 0865 01       		.byte	0x1
 5796 0866 53       		.byte	0x53
 5797 0867 02       		.byte	0x2
 5798 0868 78       		.byte	0x78
 5799 0869 00       		.sleb128 0
 5800 086a 12       		.uleb128 0x12
 5801 086b 01       		.byte	0x1
 5802 086c 51       		.byte	0x51
 5803 086d 02       		.byte	0x2
 5804 086e 74       		.byte	0x74
 5805 086f 00       		.sleb128 0
 5806 0870 12       		.uleb128 0x12
 5807 0871 01       		.byte	0x1
 5808 0872 50       		.byte	0x50
 5809 0873 02       		.byte	0x2
 5810 0874 75       		.byte	0x75
 5811 0875 00       		.sleb128 0
 5812 0876 00       		.byte	0
 5813 0877 00       		.byte	0
 5814 0878 16       		.uleb128 0x16
 5815 0879 01       		.byte	0x1
 5816 087a 24010000 		.4byte	.LASF34
 5817 087e 01       		.byte	0x1
 5818 087f 0101     		.2byte	0x101
 5819 0881 01       		.byte	0x1
 5820 0882 00000000 		.4byte	.LFB40
 5821 0886 24000000 		.4byte	.LFE40
 5822 088a A3090000 		.4byte	.LLST48
 5823 088e 01       		.byte	0x1
 5824 088f F8080000 		.4byte	0x8f8
 5825 0893 17       		.uleb128 0x17
 5826 0894 7800     		.ascii	"x\000"
 5827 0896 01       		.byte	0x1
 5828 0897 0101     		.2byte	0x101
 5829 0899 90000000 		.4byte	0x90
 5830 089d CF090000 		.4byte	.LLST49
 5831 08a1 17       		.uleb128 0x17
 5832 08a2 7900     		.ascii	"y\000"
 5833 08a4 01       		.byte	0x1
 5834 08a5 0101     		.2byte	0x101
 5835 08a7 90000000 		.4byte	0x90
 5836 08ab F0090000 		.4byte	.LLST50
 5837 08af 17       		.uleb128 0x17
 5838 08b0 6800     		.ascii	"h\000"
 5839 08b2 01       		.byte	0x1
 5840 08b3 0101     		.2byte	0x101
 5841 08b5 90000000 		.4byte	0x90
 5842 08b9 110A0000 		.4byte	.LLST51
 5843 08bd 18       		.uleb128 0x18
 5844 08be 6300     		.ascii	"c\000"
 5845 08c0 01       		.byte	0x1
 5846 08c1 0101     		.2byte	0x101
 5847 08c3 2C010000 		.4byte	0x12c
ARM GAS  C:\Users\Computer\AppData\Local\Temp\cc1tHs0g.s 			page 121


 5848 08c7 02       		.byte	0x2
 5849 08c8 91       		.byte	0x91
 5850 08c9 6C       		.sleb128 -20
 5851 08ca 19       		.uleb128 0x19
 5852 08cb 18010000 		.4byte	.LASF18
 5853 08cf 01       		.byte	0x1
 5854 08d0 0101     		.2byte	0x101
 5855 08d2 C4010000 		.4byte	0x1c4
 5856 08d6 02       		.byte	0x2
 5857 08d7 91       		.byte	0x91
 5858 08d8 00       		.sleb128 0
 5859 08d9 11       		.uleb128 0x11
 5860 08da 20000000 		.4byte	.LVL144
 5861 08de C8060000 		.4byte	0x6c8
 5862 08e2 12       		.uleb128 0x12
 5863 08e3 01       		.byte	0x1
 5864 08e4 52       		.byte	0x52
 5865 08e5 02       		.byte	0x2
 5866 08e6 74       		.byte	0x74
 5867 08e7 00       		.sleb128 0
 5868 08e8 12       		.uleb128 0x12
 5869 08e9 01       		.byte	0x1
 5870 08ea 50       		.byte	0x50
 5871 08eb 02       		.byte	0x2
 5872 08ec 74       		.byte	0x74
 5873 08ed 00       		.sleb128 0
 5874 08ee 12       		.uleb128 0x12
 5875 08ef 02       		.byte	0x2
 5876 08f0 7D       		.byte	0x7d
 5877 08f1 04       		.sleb128 4
 5878 08f2 03       		.byte	0x3
 5879 08f3 91       		.byte	0x91
 5880 08f4 00       		.sleb128 0
 5881 08f5 06       		.byte	0x6
 5882 08f6 00       		.byte	0
 5883 08f7 00       		.byte	0
 5884 08f8 16       		.uleb128 0x16
 5885 08f9 01       		.byte	0x1
 5886 08fa C2010000 		.4byte	.LASF35
 5887 08fe 01       		.byte	0x1
 5888 08ff 0701     		.2byte	0x107
 5889 0901 01       		.byte	0x1
 5890 0902 00000000 		.4byte	.LFB41
 5891 0906 24000000 		.4byte	.LFE41
 5892 090a 320A0000 		.4byte	.LLST52
 5893 090e 01       		.byte	0x1
 5894 090f 77090000 		.4byte	0x977
 5895 0913 17       		.uleb128 0x17
 5896 0914 7800     		.ascii	"x\000"
 5897 0916 01       		.byte	0x1
 5898 0917 0701     		.2byte	0x107
 5899 0919 90000000 		.4byte	0x90
 5900 091d 5E0A0000 		.4byte	.LLST53
 5901 0921 17       		.uleb128 0x17
 5902 0922 7900     		.ascii	"y\000"
 5903 0924 01       		.byte	0x1
 5904 0925 0701     		.2byte	0x107
ARM GAS  C:\Users\Computer\AppData\Local\Temp\cc1tHs0g.s 			page 122


 5905 0927 90000000 		.4byte	0x90
 5906 092b 7F0A0000 		.4byte	.LLST54
 5907 092f 17       		.uleb128 0x17
 5908 0930 7700     		.ascii	"w\000"
 5909 0932 01       		.byte	0x1
 5910 0933 0701     		.2byte	0x107
 5911 0935 90000000 		.4byte	0x90
 5912 0939 A00A0000 		.4byte	.LLST55
 5913 093d 18       		.uleb128 0x18
 5914 093e 6300     		.ascii	"c\000"
 5915 0940 01       		.byte	0x1
 5916 0941 0701     		.2byte	0x107
 5917 0943 2C010000 		.4byte	0x12c
 5918 0947 02       		.byte	0x2
 5919 0948 91       		.byte	0x91
 5920 0949 6C       		.sleb128 -20
 5921 094a 19       		.uleb128 0x19
 5922 094b 18010000 		.4byte	.LASF18
 5923 094f 01       		.byte	0x1
 5924 0950 0701     		.2byte	0x107
 5925 0952 C4010000 		.4byte	0x1c4
 5926 0956 02       		.byte	0x2
 5927 0957 91       		.byte	0x91
 5928 0958 00       		.sleb128 0
 5929 0959 11       		.uleb128 0x11
 5930 095a 20000000 		.4byte	.LVL148
 5931 095e C8060000 		.4byte	0x6c8
 5932 0962 12       		.uleb128 0x12
 5933 0963 01       		.byte	0x1
 5934 0964 53       		.byte	0x53
 5935 0965 02       		.byte	0x2
 5936 0966 74       		.byte	0x74
 5937 0967 00       		.sleb128 0
 5938 0968 12       		.uleb128 0x12
 5939 0969 01       		.byte	0x1
 5940 096a 51       		.byte	0x51
 5941 096b 02       		.byte	0x2
 5942 096c 74       		.byte	0x74
 5943 096d 00       		.sleb128 0
 5944 096e 12       		.uleb128 0x12
 5945 096f 02       		.byte	0x2
 5946 0970 7D       		.byte	0x7d
 5947 0971 04       		.sleb128 4
 5948 0972 02       		.byte	0x2
 5949 0973 75       		.byte	0x75
 5950 0974 00       		.sleb128 0
 5951 0975 00       		.byte	0
 5952 0976 00       		.byte	0
 5953 0977 0A       		.uleb128 0xa
 5954 0978 01       		.byte	0x1
 5955 0979 FB020000 		.4byte	.LASF36
 5956 097d 01       		.byte	0x1
 5957 097e FA       		.byte	0xfa
 5958 097f 01       		.byte	0x1
 5959 0980 00000000 		.4byte	.LFB39
 5960 0984 6E000000 		.4byte	.LFE39
 5961 0988 C10A0000 		.4byte	.LLST56
ARM GAS  C:\Users\Computer\AppData\Local\Temp\cc1tHs0g.s 			page 123


 5962 098c 01       		.byte	0x1
 5963 098d 750A0000 		.4byte	0xa75
 5964 0991 0B       		.uleb128 0xb
 5965 0992 7800     		.ascii	"x\000"
 5966 0994 01       		.byte	0x1
 5967 0995 FA       		.byte	0xfa
 5968 0996 37000000 		.4byte	0x37
 5969 099a F90A0000 		.4byte	.LLST57
 5970 099e 0B       		.uleb128 0xb
 5971 099f 7900     		.ascii	"y\000"
 5972 09a1 01       		.byte	0x1
 5973 09a2 FA       		.byte	0xfa
 5974 09a3 37000000 		.4byte	0x37
 5975 09a7 1A0B0000 		.4byte	.LLST58
 5976 09ab 0B       		.uleb128 0xb
 5977 09ac 7700     		.ascii	"w\000"
 5978 09ae 01       		.byte	0x1
 5979 09af FA       		.byte	0xfa
 5980 09b0 37000000 		.4byte	0x37
 5981 09b4 3B0B0000 		.4byte	.LLST59
 5982 09b8 0B       		.uleb128 0xb
 5983 09b9 6800     		.ascii	"h\000"
 5984 09bb 01       		.byte	0x1
 5985 09bc FA       		.byte	0xfa
 5986 09bd 37000000 		.4byte	0x37
 5987 09c1 5C0B0000 		.4byte	.LLST60
 5988 09c5 10       		.uleb128 0x10
 5989 09c6 6300     		.ascii	"c\000"
 5990 09c8 01       		.byte	0x1
 5991 09c9 FA       		.byte	0xfa
 5992 09ca 2C010000 		.4byte	0x12c
 5993 09ce 02       		.byte	0x2
 5994 09cf 91       		.byte	0x91
 5995 09d0 00       		.sleb128 0
 5996 09d1 13       		.uleb128 0x13
 5997 09d2 18010000 		.4byte	.LASF18
 5998 09d6 01       		.byte	0x1
 5999 09d7 FA       		.byte	0xfa
 6000 09d8 C4010000 		.4byte	0x1c4
 6001 09dc 02       		.byte	0x2
 6002 09dd 91       		.byte	0x91
 6003 09de 04       		.sleb128 4
 6004 09df 15       		.uleb128 0x15
 6005 09e0 2C000000 		.4byte	.LVL154
 6006 09e4 F8080000 		.4byte	0x8f8
 6007 09e8 060A0000 		.4byte	0xa06
 6008 09ec 12       		.uleb128 0x12
 6009 09ed 01       		.byte	0x1
 6010 09ee 52       		.byte	0x52
 6011 09ef 02       		.byte	0x2
 6012 09f0 7A       		.byte	0x7a
 6013 09f1 00       		.sleb128 0
 6014 09f2 12       		.uleb128 0x12
 6015 09f3 01       		.byte	0x1
 6016 09f4 51       		.byte	0x51
 6017 09f5 02       		.byte	0x2
 6018 09f6 75       		.byte	0x75
ARM GAS  C:\Users\Computer\AppData\Local\Temp\cc1tHs0g.s 			page 124


 6019 09f7 00       		.sleb128 0
 6020 09f8 12       		.uleb128 0x12
 6021 09f9 01       		.byte	0x1
 6022 09fa 50       		.byte	0x50
 6023 09fb 02       		.byte	0x2
 6024 09fc 76       		.byte	0x76
 6025 09fd 00       		.sleb128 0
 6026 09fe 12       		.uleb128 0x12
 6027 09ff 02       		.byte	0x2
 6028 0a00 7D       		.byte	0x7d
 6029 0a01 00       		.sleb128 0
 6030 0a02 02       		.byte	0x2
 6031 0a03 74       		.byte	0x74
 6032 0a04 00       		.sleb128 0
 6033 0a05 00       		.byte	0
 6034 0a06 15       		.uleb128 0x15
 6035 0a07 40000000 		.4byte	.LVL155
 6036 0a0b F8080000 		.4byte	0x8f8
 6037 0a0f 270A0000 		.4byte	0xa27
 6038 0a13 12       		.uleb128 0x12
 6039 0a14 01       		.byte	0x1
 6040 0a15 52       		.byte	0x52
 6041 0a16 02       		.byte	0x2
 6042 0a17 7A       		.byte	0x7a
 6043 0a18 00       		.sleb128 0
 6044 0a19 12       		.uleb128 0x12
 6045 0a1a 01       		.byte	0x1
 6046 0a1b 50       		.byte	0x50
 6047 0a1c 02       		.byte	0x2
 6048 0a1d 76       		.byte	0x76
 6049 0a1e 00       		.sleb128 0
 6050 0a1f 12       		.uleb128 0x12
 6051 0a20 02       		.byte	0x2
 6052 0a21 7D       		.byte	0x7d
 6053 0a22 00       		.sleb128 0
 6054 0a23 02       		.byte	0x2
 6055 0a24 74       		.byte	0x74
 6056 0a25 00       		.sleb128 0
 6057 0a26 00       		.byte	0
 6058 0a27 15       		.uleb128 0x15
 6059 0a28 4E000000 		.4byte	.LVL156
 6060 0a2c 78080000 		.4byte	0x878
 6061 0a30 4E0A0000 		.4byte	0xa4e
 6062 0a34 12       		.uleb128 0x12
 6063 0a35 01       		.byte	0x1
 6064 0a36 52       		.byte	0x52
 6065 0a37 02       		.byte	0x2
 6066 0a38 77       		.byte	0x77
 6067 0a39 00       		.sleb128 0
 6068 0a3a 12       		.uleb128 0x12
 6069 0a3b 01       		.byte	0x1
 6070 0a3c 51       		.byte	0x51
 6071 0a3d 02       		.byte	0x2
 6072 0a3e 75       		.byte	0x75
 6073 0a3f 00       		.sleb128 0
 6074 0a40 12       		.uleb128 0x12
 6075 0a41 01       		.byte	0x1
ARM GAS  C:\Users\Computer\AppData\Local\Temp\cc1tHs0g.s 			page 125


 6076 0a42 50       		.byte	0x50
 6077 0a43 02       		.byte	0x2
 6078 0a44 76       		.byte	0x76
 6079 0a45 00       		.sleb128 0
 6080 0a46 12       		.uleb128 0x12
 6081 0a47 02       		.byte	0x2
 6082 0a48 7D       		.byte	0x7d
 6083 0a49 00       		.sleb128 0
 6084 0a4a 02       		.byte	0x2
 6085 0a4b 74       		.byte	0x74
 6086 0a4c 00       		.sleb128 0
 6087 0a4d 00       		.byte	0
 6088 0a4e 11       		.uleb128 0x11
 6089 0a4f 60000000 		.4byte	.LVL157
 6090 0a53 78080000 		.4byte	0x878
 6091 0a57 12       		.uleb128 0x12
 6092 0a58 01       		.byte	0x1
 6093 0a59 52       		.byte	0x52
 6094 0a5a 02       		.byte	0x2
 6095 0a5b 77       		.byte	0x77
 6096 0a5c 00       		.sleb128 0
 6097 0a5d 12       		.uleb128 0x12
 6098 0a5e 01       		.byte	0x1
 6099 0a5f 51       		.byte	0x51
 6100 0a60 02       		.byte	0x2
 6101 0a61 75       		.byte	0x75
 6102 0a62 00       		.sleb128 0
 6103 0a63 12       		.uleb128 0x12
 6104 0a64 01       		.byte	0x1
 6105 0a65 50       		.byte	0x50
 6106 0a66 05       		.byte	0x5
 6107 0a67 79       		.byte	0x79
 6108 0a68 00       		.sleb128 0
 6109 0a69 78       		.byte	0x78
 6110 0a6a 00       		.sleb128 0
 6111 0a6b 22       		.byte	0x22
 6112 0a6c 12       		.uleb128 0x12
 6113 0a6d 02       		.byte	0x2
 6114 0a6e 7D       		.byte	0x7d
 6115 0a6f 00       		.sleb128 0
 6116 0a70 02       		.byte	0x2
 6117 0a71 74       		.byte	0x74
 6118 0a72 00       		.sleb128 0
 6119 0a73 00       		.byte	0
 6120 0a74 00       		.byte	0
 6121 0a75 16       		.uleb128 0x16
 6122 0a76 01       		.byte	0x1
 6123 0a77 34030000 		.4byte	.LASF37
 6124 0a7b 01       		.byte	0x1
 6125 0a7c 0D01     		.2byte	0x10d
 6126 0a7e 01       		.byte	0x1
 6127 0a7f 00000000 		.4byte	.LFB42
 6128 0a83 92000000 		.4byte	.LFE42
 6129 0a87 7D0B0000 		.4byte	.LLST61
 6130 0a8b 01       		.byte	0x1
 6131 0a8c 950B0000 		.4byte	0xb95
 6132 0a90 17       		.uleb128 0x17
ARM GAS  C:\Users\Computer\AppData\Local\Temp\cc1tHs0g.s 			page 126


 6133 0a91 7800     		.ascii	"x\000"
 6134 0a93 01       		.byte	0x1
 6135 0a94 0D01     		.2byte	0x10d
 6136 0a96 90000000 		.4byte	0x90
 6137 0a9a B50B0000 		.4byte	.LLST62
 6138 0a9e 17       		.uleb128 0x17
 6139 0a9f 7900     		.ascii	"y\000"
 6140 0aa1 01       		.byte	0x1
 6141 0aa2 0D01     		.2byte	0x10d
 6142 0aa4 90000000 		.4byte	0x90
 6143 0aa8 D60B0000 		.4byte	.LLST63
 6144 0aac 17       		.uleb128 0x17
 6145 0aad 7700     		.ascii	"w\000"
 6146 0aaf 01       		.byte	0x1
 6147 0ab0 0D01     		.2byte	0x10d
 6148 0ab2 90000000 		.4byte	0x90
 6149 0ab6 F70B0000 		.4byte	.LLST64
 6150 0aba 17       		.uleb128 0x17
 6151 0abb 6800     		.ascii	"h\000"
 6152 0abd 01       		.byte	0x1
 6153 0abe 0D01     		.2byte	0x10d
 6154 0ac0 90000000 		.4byte	0x90
 6155 0ac4 180C0000 		.4byte	.LLST65
 6156 0ac8 18       		.uleb128 0x18
 6157 0ac9 6300     		.ascii	"c\000"
 6158 0acb 01       		.byte	0x1
 6159 0acc 0D01     		.2byte	0x10d
 6160 0ace 2C010000 		.4byte	0x12c
 6161 0ad2 02       		.byte	0x2
 6162 0ad3 91       		.byte	0x91
 6163 0ad4 00       		.sleb128 0
 6164 0ad5 19       		.uleb128 0x19
 6165 0ad6 18010000 		.4byte	.LASF18
 6166 0ada 01       		.byte	0x1
 6167 0adb 0D01     		.2byte	0x10d
 6168 0add C4010000 		.4byte	0x1c4
 6169 0ae1 02       		.byte	0x2
 6170 0ae2 91       		.byte	0x91
 6171 0ae3 04       		.sleb128 4
 6172 0ae4 1A       		.uleb128 0x1a
 6173 0ae5 6900     		.ascii	"i\000"
 6174 0ae7 01       		.byte	0x1
 6175 0ae8 1001     		.2byte	0x110
 6176 0aea 90000000 		.4byte	0x90
 6177 0aee 390C0000 		.4byte	.LLST66
 6178 0af2 15       		.uleb128 0x15
 6179 0af3 38000000 		.4byte	.LVL163
 6180 0af7 78080000 		.4byte	0x878
 6181 0afb 190B0000 		.4byte	0xb19
 6182 0aff 12       		.uleb128 0x12
 6183 0b00 01       		.byte	0x1
 6184 0b01 52       		.byte	0x52
 6185 0b02 02       		.byte	0x2
 6186 0b03 76       		.byte	0x76
 6187 0b04 00       		.sleb128 0
 6188 0b05 12       		.uleb128 0x12
 6189 0b06 01       		.byte	0x1
ARM GAS  C:\Users\Computer\AppData\Local\Temp\cc1tHs0g.s 			page 127


 6190 0b07 51       		.byte	0x51
 6191 0b08 02       		.byte	0x2
 6192 0b09 77       		.byte	0x77
 6193 0b0a 00       		.sleb128 0
 6194 0b0b 12       		.uleb128 0x12
 6195 0b0c 01       		.byte	0x1
 6196 0b0d 50       		.byte	0x50
 6197 0b0e 02       		.byte	0x2
 6198 0b0f 75       		.byte	0x75
 6199 0b10 00       		.sleb128 0
 6200 0b11 12       		.uleb128 0x12
 6201 0b12 02       		.byte	0x2
 6202 0b13 7D       		.byte	0x7d
 6203 0b14 00       		.sleb128 0
 6204 0b15 02       		.byte	0x2
 6205 0b16 78       		.byte	0x78
 6206 0b17 00       		.sleb128 0
 6207 0b18 00       		.byte	0
 6208 0b19 15       		.uleb128 0x15
 6209 0b1a 56000000 		.4byte	.LVL164
 6210 0b1e 78080000 		.4byte	0x878
 6211 0b22 400B0000 		.4byte	0xb40
 6212 0b26 12       		.uleb128 0x12
 6213 0b27 01       		.byte	0x1
 6214 0b28 52       		.byte	0x52
 6215 0b29 02       		.byte	0x2
 6216 0b2a 76       		.byte	0x76
 6217 0b2b 00       		.sleb128 0
 6218 0b2c 12       		.uleb128 0x12
 6219 0b2d 01       		.byte	0x1
 6220 0b2e 51       		.byte	0x51
 6221 0b2f 02       		.byte	0x2
 6222 0b30 77       		.byte	0x77
 6223 0b31 00       		.sleb128 0
 6224 0b32 12       		.uleb128 0x12
 6225 0b33 01       		.byte	0x1
 6226 0b34 50       		.byte	0x50
 6227 0b35 02       		.byte	0x2
 6228 0b36 75       		.byte	0x75
 6229 0b37 01       		.sleb128 1
 6230 0b38 12       		.uleb128 0x12
 6231 0b39 02       		.byte	0x2
 6232 0b3a 7D       		.byte	0x7d
 6233 0b3b 00       		.sleb128 0
 6234 0b3c 02       		.byte	0x2
 6235 0b3d 78       		.byte	0x78
 6236 0b3e 00       		.sleb128 0
 6237 0b3f 00       		.byte	0
 6238 0b40 15       		.uleb128 0x15
 6239 0b41 6E000000 		.4byte	.LVL165
 6240 0b45 78080000 		.4byte	0x878
 6241 0b49 6C0B0000 		.4byte	0xb6c
 6242 0b4d 12       		.uleb128 0x12
 6243 0b4e 01       		.byte	0x1
 6244 0b4f 52       		.byte	0x52
 6245 0b50 02       		.byte	0x2
 6246 0b51 76       		.byte	0x76
ARM GAS  C:\Users\Computer\AppData\Local\Temp\cc1tHs0g.s 			page 128


 6247 0b52 00       		.sleb128 0
 6248 0b53 12       		.uleb128 0x12
 6249 0b54 01       		.byte	0x1
 6250 0b55 51       		.byte	0x51
 6251 0b56 02       		.byte	0x2
 6252 0b57 77       		.byte	0x77
 6253 0b58 00       		.sleb128 0
 6254 0b59 12       		.uleb128 0x12
 6255 0b5a 01       		.byte	0x1
 6256 0b5b 50       		.byte	0x50
 6257 0b5c 07       		.byte	0x7
 6258 0b5d 74       		.byte	0x74
 6259 0b5e 00       		.sleb128 0
 6260 0b5f 75       		.byte	0x75
 6261 0b60 00       		.sleb128 0
 6262 0b61 22       		.byte	0x22
 6263 0b62 31       		.byte	0x31
 6264 0b63 1C       		.byte	0x1c
 6265 0b64 12       		.uleb128 0x12
 6266 0b65 02       		.byte	0x2
 6267 0b66 7D       		.byte	0x7d
 6268 0b67 00       		.sleb128 0
 6269 0b68 02       		.byte	0x2
 6270 0b69 78       		.byte	0x78
 6271 0b6a 00       		.sleb128 0
 6272 0b6b 00       		.byte	0
 6273 0b6c 11       		.uleb128 0x11
 6274 0b6d 82000000 		.4byte	.LVL166
 6275 0b71 78080000 		.4byte	0x878
 6276 0b75 12       		.uleb128 0x12
 6277 0b76 01       		.byte	0x1
 6278 0b77 52       		.byte	0x52
 6279 0b78 02       		.byte	0x2
 6280 0b79 76       		.byte	0x76
 6281 0b7a 00       		.sleb128 0
 6282 0b7b 12       		.uleb128 0x12
 6283 0b7c 01       		.byte	0x1
 6284 0b7d 51       		.byte	0x51
 6285 0b7e 02       		.byte	0x2
 6286 0b7f 77       		.byte	0x77
 6287 0b80 00       		.sleb128 0
 6288 0b81 12       		.uleb128 0x12
 6289 0b82 01       		.byte	0x1
 6290 0b83 50       		.byte	0x50
 6291 0b84 07       		.byte	0x7
 6292 0b85 74       		.byte	0x74
 6293 0b86 00       		.sleb128 0
 6294 0b87 75       		.byte	0x75
 6295 0b88 00       		.sleb128 0
 6296 0b89 22       		.byte	0x22
 6297 0b8a 31       		.byte	0x31
 6298 0b8b 1C       		.byte	0x1c
 6299 0b8c 12       		.uleb128 0x12
 6300 0b8d 02       		.byte	0x2
 6301 0b8e 7D       		.byte	0x7d
 6302 0b8f 00       		.sleb128 0
 6303 0b90 02       		.byte	0x2
ARM GAS  C:\Users\Computer\AppData\Local\Temp\cc1tHs0g.s 			page 129


 6304 0b91 78       		.byte	0x78
 6305 0b92 00       		.sleb128 0
 6306 0b93 00       		.byte	0
 6307 0b94 00       		.byte	0
 6308 0b95 16       		.uleb128 0x16
 6309 0b96 01       		.byte	0x1
 6310 0b97 82020000 		.4byte	.LASF38
 6311 0b9b 01       		.byte	0x1
 6312 0b9c 1601     		.2byte	0x116
 6313 0b9e 01       		.byte	0x1
 6314 0b9f 00000000 		.4byte	.LFB43
 6315 0ba3 20000000 		.4byte	.LFE43
 6316 0ba7 570C0000 		.4byte	.LLST67
 6317 0bab 01       		.byte	0x1
 6318 0bac F50B0000 		.4byte	0xbf5
 6319 0bb0 18       		.uleb128 0x18
 6320 0bb1 6300     		.ascii	"c\000"
 6321 0bb3 01       		.byte	0x1
 6322 0bb4 1601     		.2byte	0x116
 6323 0bb6 2C010000 		.4byte	0x12c
 6324 0bba 02       		.byte	0x2
 6325 0bbb 91       		.byte	0x91
 6326 0bbc 74       		.sleb128 -12
 6327 0bbd 1B       		.uleb128 0x1b
 6328 0bbe 18010000 		.4byte	.LASF18
 6329 0bc2 01       		.byte	0x1
 6330 0bc3 1601     		.2byte	0x116
 6331 0bc5 C4010000 		.4byte	0x1c4
 6332 0bc9 830C0000 		.4byte	.LLST68
 6333 0bcd 11       		.uleb128 0x11
 6334 0bce 1C000000 		.4byte	.LVL169
 6335 0bd2 750A0000 		.4byte	0xa75
 6336 0bd6 12       		.uleb128 0x12
 6337 0bd7 01       		.byte	0x1
 6338 0bd8 53       		.byte	0x53
 6339 0bd9 01       		.byte	0x1
 6340 0bda 40       		.byte	0x40
 6341 0bdb 12       		.uleb128 0x12
 6342 0bdc 01       		.byte	0x1
 6343 0bdd 52       		.byte	0x52
 6344 0bde 02       		.byte	0x2
 6345 0bdf 08       		.byte	0x8
 6346 0be0 20       		.byte	0x20
 6347 0be1 12       		.uleb128 0x12
 6348 0be2 01       		.byte	0x1
 6349 0be3 51       		.byte	0x51
 6350 0be4 01       		.byte	0x1
 6351 0be5 30       		.byte	0x30
 6352 0be6 12       		.uleb128 0x12
 6353 0be7 01       		.byte	0x1
 6354 0be8 50       		.byte	0x50
 6355 0be9 01       		.byte	0x1
 6356 0bea 30       		.byte	0x30
 6357 0beb 12       		.uleb128 0x12
 6358 0bec 02       		.byte	0x2
 6359 0bed 7D       		.byte	0x7d
 6360 0bee 04       		.sleb128 4
ARM GAS  C:\Users\Computer\AppData\Local\Temp\cc1tHs0g.s 			page 130


 6361 0bef 03       		.byte	0x3
 6362 0bf0 F3       		.byte	0xf3
 6363 0bf1 01       		.uleb128 0x1
 6364 0bf2 51       		.byte	0x51
 6365 0bf3 00       		.byte	0
 6366 0bf4 00       		.byte	0
 6367 0bf5 16       		.uleb128 0x16
 6368 0bf6 01       		.byte	0x1
 6369 0bf7 51020000 		.4byte	.LASF39
 6370 0bfb 01       		.byte	0x1
 6371 0bfc 1B01     		.2byte	0x11b
 6372 0bfe 01       		.byte	0x1
 6373 0bff 00000000 		.4byte	.LFB44
 6374 0c03 7E000000 		.4byte	.LFE44
 6375 0c07 B00C0000 		.4byte	.LLST69
 6376 0c0b 01       		.byte	0x1
 6377 0c0c 0B0D0000 		.4byte	0xd0b
 6378 0c10 17       		.uleb128 0x17
 6379 0c11 783000   		.ascii	"x0\000"
 6380 0c14 01       		.byte	0x1
 6381 0c15 1B01     		.2byte	0x11b
 6382 0c17 90000000 		.4byte	0x90
 6383 0c1b E80C0000 		.4byte	.LLST70
 6384 0c1f 17       		.uleb128 0x17
 6385 0c20 793000   		.ascii	"y0\000"
 6386 0c23 01       		.byte	0x1
 6387 0c24 1B01     		.2byte	0x11b
 6388 0c26 90000000 		.4byte	0x90
 6389 0c2a 090D0000 		.4byte	.LLST71
 6390 0c2e 17       		.uleb128 0x17
 6391 0c2f 783100   		.ascii	"x1\000"
 6392 0c32 01       		.byte	0x1
 6393 0c33 1B01     		.2byte	0x11b
 6394 0c35 90000000 		.4byte	0x90
 6395 0c39 2A0D0000 		.4byte	.LLST72
 6396 0c3d 17       		.uleb128 0x17
 6397 0c3e 793100   		.ascii	"y1\000"
 6398 0c41 01       		.byte	0x1
 6399 0c42 1B01     		.2byte	0x11b
 6400 0c44 90000000 		.4byte	0x90
 6401 0c48 4B0D0000 		.4byte	.LLST73
 6402 0c4c 18       		.uleb128 0x18
 6403 0c4d 783200   		.ascii	"x2\000"
 6404 0c50 01       		.byte	0x1
 6405 0c51 1C01     		.2byte	0x11c
 6406 0c53 90000000 		.4byte	0x90
 6407 0c57 02       		.byte	0x2
 6408 0c58 91       		.byte	0x91
 6409 0c59 00       		.sleb128 0
 6410 0c5a 18       		.uleb128 0x18
 6411 0c5b 793200   		.ascii	"y2\000"
 6412 0c5e 01       		.byte	0x1
 6413 0c5f 1C01     		.2byte	0x11c
 6414 0c61 90000000 		.4byte	0x90
 6415 0c65 02       		.byte	0x2
 6416 0c66 91       		.byte	0x91
 6417 0c67 04       		.sleb128 4
ARM GAS  C:\Users\Computer\AppData\Local\Temp\cc1tHs0g.s 			page 131


 6418 0c68 18       		.uleb128 0x18
 6419 0c69 6300     		.ascii	"c\000"
 6420 0c6b 01       		.byte	0x1
 6421 0c6c 1C01     		.2byte	0x11c
 6422 0c6e 2C010000 		.4byte	0x12c
 6423 0c72 02       		.byte	0x2
 6424 0c73 91       		.byte	0x91
 6425 0c74 08       		.sleb128 8
 6426 0c75 19       		.uleb128 0x19
 6427 0c76 18010000 		.4byte	.LASF18
 6428 0c7a 01       		.byte	0x1
 6429 0c7b 1C01     		.2byte	0x11c
 6430 0c7d C4010000 		.4byte	0x1c4
 6431 0c81 02       		.byte	0x2
 6432 0c82 91       		.byte	0x91
 6433 0c83 0C       		.sleb128 12
 6434 0c84 15       		.uleb128 0x15
 6435 0c85 3E000000 		.4byte	.LVL175
 6436 0c89 C8060000 		.4byte	0x6c8
 6437 0c8d B20C0000 		.4byte	0xcb2
 6438 0c91 12       		.uleb128 0x12
 6439 0c92 01       		.byte	0x1
 6440 0c93 53       		.byte	0x53
 6441 0c94 02       		.byte	0x2
 6442 0c95 7A       		.byte	0x7a
 6443 0c96 00       		.sleb128 0
 6444 0c97 12       		.uleb128 0x12
 6445 0c98 01       		.byte	0x1
 6446 0c99 52       		.byte	0x52
 6447 0c9a 02       		.byte	0x2
 6448 0c9b 7B       		.byte	0x7b
 6449 0c9c 00       		.sleb128 0
 6450 0c9d 12       		.uleb128 0x12
 6451 0c9e 01       		.byte	0x1
 6452 0c9f 51       		.byte	0x51
 6453 0ca0 02       		.byte	0x2
 6454 0ca1 76       		.byte	0x76
 6455 0ca2 00       		.sleb128 0
 6456 0ca3 12       		.uleb128 0x12
 6457 0ca4 01       		.byte	0x1
 6458 0ca5 50       		.byte	0x50
 6459 0ca6 02       		.byte	0x2
 6460 0ca7 77       		.byte	0x77
 6461 0ca8 00       		.sleb128 0
 6462 0ca9 12       		.uleb128 0x12
 6463 0caa 02       		.byte	0x2
 6464 0cab 7D       		.byte	0x7d
 6465 0cac 04       		.sleb128 4
 6466 0cad 03       		.byte	0x3
 6467 0cae 91       		.byte	0x91
 6468 0caf 0C       		.sleb128 12
 6469 0cb0 06       		.byte	0x6
 6470 0cb1 00       		.byte	0
 6471 0cb2 15       		.uleb128 0x15
 6472 0cb3 58000000 		.4byte	.LVL176
 6473 0cb7 C8060000 		.4byte	0x6c8
 6474 0cbb E00C0000 		.4byte	0xce0
ARM GAS  C:\Users\Computer\AppData\Local\Temp\cc1tHs0g.s 			page 132


 6475 0cbf 12       		.uleb128 0x12
 6476 0cc0 01       		.byte	0x1
 6477 0cc1 53       		.byte	0x53
 6478 0cc2 02       		.byte	0x2
 6479 0cc3 75       		.byte	0x75
 6480 0cc4 00       		.sleb128 0
 6481 0cc5 12       		.uleb128 0x12
 6482 0cc6 01       		.byte	0x1
 6483 0cc7 52       		.byte	0x52
 6484 0cc8 02       		.byte	0x2
 6485 0cc9 79       		.byte	0x79
 6486 0cca 00       		.sleb128 0
 6487 0ccb 12       		.uleb128 0x12
 6488 0ccc 01       		.byte	0x1
 6489 0ccd 51       		.byte	0x51
 6490 0cce 02       		.byte	0x2
 6491 0ccf 7A       		.byte	0x7a
 6492 0cd0 00       		.sleb128 0
 6493 0cd1 12       		.uleb128 0x12
 6494 0cd2 01       		.byte	0x1
 6495 0cd3 50       		.byte	0x50
 6496 0cd4 02       		.byte	0x2
 6497 0cd5 7B       		.byte	0x7b
 6498 0cd6 00       		.sleb128 0
 6499 0cd7 12       		.uleb128 0x12
 6500 0cd8 02       		.byte	0x2
 6501 0cd9 7D       		.byte	0x7d
 6502 0cda 04       		.sleb128 4
 6503 0cdb 03       		.byte	0x3
 6504 0cdc 91       		.byte	0x91
 6505 0cdd 0C       		.sleb128 12
 6506 0cde 06       		.byte	0x6
 6507 0cdf 00       		.byte	0
 6508 0ce0 11       		.uleb128 0x11
 6509 0ce1 72000000 		.4byte	.LVL177
 6510 0ce5 C8060000 		.4byte	0x6c8
 6511 0ce9 12       		.uleb128 0x12
 6512 0cea 01       		.byte	0x1
 6513 0ceb 53       		.byte	0x53
 6514 0cec 02       		.byte	0x2
 6515 0ced 76       		.byte	0x76
 6516 0cee 00       		.sleb128 0
 6517 0cef 12       		.uleb128 0x12
 6518 0cf0 01       		.byte	0x1
 6519 0cf1 52       		.byte	0x52
 6520 0cf2 02       		.byte	0x2
 6521 0cf3 77       		.byte	0x77
 6522 0cf4 00       		.sleb128 0
 6523 0cf5 12       		.uleb128 0x12
 6524 0cf6 01       		.byte	0x1
 6525 0cf7 51       		.byte	0x51
 6526 0cf8 02       		.byte	0x2
 6527 0cf9 75       		.byte	0x75
 6528 0cfa 00       		.sleb128 0
 6529 0cfb 12       		.uleb128 0x12
 6530 0cfc 01       		.byte	0x1
 6531 0cfd 50       		.byte	0x50
ARM GAS  C:\Users\Computer\AppData\Local\Temp\cc1tHs0g.s 			page 133


 6532 0cfe 02       		.byte	0x2
 6533 0cff 79       		.byte	0x79
 6534 0d00 00       		.sleb128 0
 6535 0d01 12       		.uleb128 0x12
 6536 0d02 02       		.byte	0x2
 6537 0d03 7D       		.byte	0x7d
 6538 0d04 04       		.sleb128 4
 6539 0d05 03       		.byte	0x3
 6540 0d06 91       		.byte	0x91
 6541 0d07 0C       		.sleb128 12
 6542 0d08 06       		.byte	0x6
 6543 0d09 00       		.byte	0
 6544 0d0a 00       		.byte	0
 6545 0d0b 16       		.uleb128 0x16
 6546 0d0c 01       		.byte	0x1
 6547 0d0d 44000000 		.4byte	.LASF40
 6548 0d11 01       		.byte	0x1
 6549 0d12 2301     		.2byte	0x123
 6550 0d14 01       		.byte	0x1
 6551 0d15 00000000 		.4byte	.LFB45
 6552 0d19 90000000 		.4byte	.LFE45
 6553 0d1d 6C0D0000 		.4byte	.LLST74
 6554 0d21 01       		.byte	0x1
 6555 0d22 DE0D0000 		.4byte	0xdde
 6556 0d26 17       		.uleb128 0x17
 6557 0d27 783000   		.ascii	"x0\000"
 6558 0d2a 01       		.byte	0x1
 6559 0d2b 2301     		.2byte	0x123
 6560 0d2d 90000000 		.4byte	0x90
 6561 0d31 A40D0000 		.4byte	.LLST75
 6562 0d35 17       		.uleb128 0x17
 6563 0d36 793000   		.ascii	"y0\000"
 6564 0d39 01       		.byte	0x1
 6565 0d3a 2301     		.2byte	0x123
 6566 0d3c 90000000 		.4byte	0x90
 6567 0d40 C50D0000 		.4byte	.LLST76
 6568 0d44 18       		.uleb128 0x18
 6569 0d45 6300     		.ascii	"c\000"
 6570 0d47 01       		.byte	0x1
 6571 0d48 2301     		.2byte	0x123
 6572 0d4a 2C010000 		.4byte	0x12c
 6573 0d4e 02       		.byte	0x2
 6574 0d4f 91       		.byte	0x91
 6575 0d50 54       		.sleb128 -44
 6576 0d51 1B       		.uleb128 0x1b
 6577 0d52 18010000 		.4byte	.LASF18
 6578 0d56 01       		.byte	0x1
 6579 0d57 2301     		.2byte	0x123
 6580 0d59 C4010000 		.4byte	0x1c4
 6581 0d5d E60D0000 		.4byte	.LLST77
 6582 0d61 15       		.uleb128 0x15
 6583 0d62 4E000000 		.4byte	.LVL182
 6584 0d66 C8060000 		.4byte	0x6c8
 6585 0d6a 930D0000 		.4byte	0xd93
 6586 0d6e 12       		.uleb128 0x12
 6587 0d6f 01       		.byte	0x1
 6588 0d70 53       		.byte	0x53
ARM GAS  C:\Users\Computer\AppData\Local\Temp\cc1tHs0g.s 			page 134


 6589 0d71 07       		.byte	0x7
 6590 0d72 75       		.byte	0x75
 6591 0d73 00       		.sleb128 0
 6592 0d74 08       		.byte	0x8
 6593 0d75 FF       		.byte	0xff
 6594 0d76 1A       		.byte	0x1a
 6595 0d77 23       		.byte	0x23
 6596 0d78 09       		.uleb128 0x9
 6597 0d79 12       		.uleb128 0x12
 6598 0d7a 01       		.byte	0x1
 6599 0d7b 52       		.byte	0x52
 6600 0d7c 02       		.byte	0x2
 6601 0d7d 76       		.byte	0x76
 6602 0d7e 05       		.sleb128 5
 6603 0d7f 12       		.uleb128 0x12
 6604 0d80 01       		.byte	0x1
 6605 0d81 51       		.byte	0x51
 6606 0d82 02       		.byte	0x2
 6607 0d83 79       		.byte	0x79
 6608 0d84 00       		.sleb128 0
 6609 0d85 12       		.uleb128 0x12
 6610 0d86 01       		.byte	0x1
 6611 0d87 50       		.byte	0x50
 6612 0d88 02       		.byte	0x2
 6613 0d89 78       		.byte	0x78
 6614 0d8a 00       		.sleb128 0
 6615 0d8b 12       		.uleb128 0x12
 6616 0d8c 02       		.byte	0x2
 6617 0d8d 7D       		.byte	0x7d
 6618 0d8e 04       		.sleb128 4
 6619 0d8f 02       		.byte	0x2
 6620 0d90 77       		.byte	0x77
 6621 0d91 00       		.sleb128 0
 6622 0d92 00       		.byte	0
 6623 0d93 15       		.uleb128 0x15
 6624 0d94 66000000 		.4byte	.LVL183
 6625 0d98 C8060000 		.4byte	0x6c8
 6626 0d9c C00D0000 		.4byte	0xdc0
 6627 0da0 12       		.uleb128 0x12
 6628 0da1 01       		.byte	0x1
 6629 0da2 53       		.byte	0x53
 6630 0da3 02       		.byte	0x2
 6631 0da4 79       		.byte	0x79
 6632 0da5 00       		.sleb128 0
 6633 0da6 12       		.uleb128 0x12
 6634 0da7 01       		.byte	0x1
 6635 0da8 52       		.byte	0x52
 6636 0da9 02       		.byte	0x2
 6637 0daa 78       		.byte	0x78
 6638 0dab 00       		.sleb128 0
 6639 0dac 12       		.uleb128 0x12
 6640 0dad 01       		.byte	0x1
 6641 0dae 51       		.byte	0x51
 6642 0daf 02       		.byte	0x2
 6643 0db0 75       		.byte	0x75
 6644 0db1 00       		.sleb128 0
 6645 0db2 12       		.uleb128 0x12
ARM GAS  C:\Users\Computer\AppData\Local\Temp\cc1tHs0g.s 			page 135


 6646 0db3 01       		.byte	0x1
 6647 0db4 50       		.byte	0x50
 6648 0db5 02       		.byte	0x2
 6649 0db6 78       		.byte	0x78
 6650 0db7 00       		.sleb128 0
 6651 0db8 12       		.uleb128 0x12
 6652 0db9 02       		.byte	0x2
 6653 0dba 7D       		.byte	0x7d
 6654 0dbb 04       		.sleb128 4
 6655 0dbc 02       		.byte	0x2
 6656 0dbd 77       		.byte	0x77
 6657 0dbe 00       		.sleb128 0
 6658 0dbf 00       		.byte	0
 6659 0dc0 11       		.uleb128 0x11
 6660 0dc1 82000000 		.4byte	.LVL184
 6661 0dc5 C8060000 		.4byte	0x6c8
 6662 0dc9 12       		.uleb128 0x12
 6663 0dca 01       		.byte	0x1
 6664 0dcb 53       		.byte	0x53
 6665 0dcc 02       		.byte	0x2
 6666 0dcd 75       		.byte	0x75
 6667 0dce 00       		.sleb128 0
 6668 0dcf 12       		.uleb128 0x12
 6669 0dd0 01       		.byte	0x1
 6670 0dd1 51       		.byte	0x51
 6671 0dd2 02       		.byte	0x2
 6672 0dd3 75       		.byte	0x75
 6673 0dd4 00       		.sleb128 0
 6674 0dd5 12       		.uleb128 0x12
 6675 0dd6 02       		.byte	0x2
 6676 0dd7 7D       		.byte	0x7d
 6677 0dd8 04       		.sleb128 4
 6678 0dd9 02       		.byte	0x2
 6679 0dda 77       		.byte	0x77
 6680 0ddb 00       		.sleb128 0
 6681 0ddc 00       		.byte	0
 6682 0ddd 00       		.byte	0
 6683 0dde 16       		.uleb128 0x16
 6684 0ddf 01       		.byte	0x1
 6685 0de0 9F010000 		.4byte	.LASF41
 6686 0de4 01       		.byte	0x1
 6687 0de5 2A01     		.2byte	0x12a
 6688 0de7 01       		.byte	0x1
 6689 0de8 00000000 		.4byte	.LFB46
 6690 0dec 8A000000 		.4byte	.LFE46
 6691 0df0 120E0000 		.4byte	.LLST78
 6692 0df4 01       		.byte	0x1
 6693 0df5 0F0F0000 		.4byte	0xf0f
 6694 0df9 17       		.uleb128 0x17
 6695 0dfa 783000   		.ascii	"x0\000"
 6696 0dfd 01       		.byte	0x1
 6697 0dfe 2A01     		.2byte	0x12a
 6698 0e00 90000000 		.4byte	0x90
 6699 0e04 4A0E0000 		.4byte	.LLST79
 6700 0e08 17       		.uleb128 0x17
 6701 0e09 793000   		.ascii	"y0\000"
 6702 0e0c 01       		.byte	0x1
ARM GAS  C:\Users\Computer\AppData\Local\Temp\cc1tHs0g.s 			page 136


 6703 0e0d 2A01     		.2byte	0x12a
 6704 0e0f 90000000 		.4byte	0x90
 6705 0e13 830E0000 		.4byte	.LLST80
 6706 0e17 18       		.uleb128 0x18
 6707 0e18 6300     		.ascii	"c\000"
 6708 0e1a 01       		.byte	0x1
 6709 0e1b 2A01     		.2byte	0x12a
 6710 0e1d 2C010000 		.4byte	0x12c
 6711 0e21 02       		.byte	0x2
 6712 0e22 91       		.byte	0x91
 6713 0e23 5C       		.sleb128 -36
 6714 0e24 1B       		.uleb128 0x1b
 6715 0e25 18010000 		.4byte	.LASF18
 6716 0e29 01       		.byte	0x1
 6717 0e2a 2A01     		.2byte	0x12a
 6718 0e2c C4010000 		.4byte	0x1c4
 6719 0e30 BC0E0000 		.4byte	.LLST81
 6720 0e34 15       		.uleb128 0x15
 6721 0e35 26000000 		.4byte	.LVL190
 6722 0e39 CA010000 		.4byte	0x1ca
 6723 0e3d 540E0000 		.4byte	0xe54
 6724 0e41 12       		.uleb128 0x12
 6725 0e42 01       		.byte	0x1
 6726 0e43 53       		.byte	0x53
 6727 0e44 02       		.byte	0x2
 6728 0e45 74       		.byte	0x74
 6729 0e46 00       		.sleb128 0
 6730 0e47 12       		.uleb128 0x12
 6731 0e48 01       		.byte	0x1
 6732 0e49 51       		.byte	0x51
 6733 0e4a 02       		.byte	0x2
 6734 0e4b 75       		.byte	0x75
 6735 0e4c 0A       		.sleb128 10
 6736 0e4d 12       		.uleb128 0x12
 6737 0e4e 01       		.byte	0x1
 6738 0e4f 50       		.byte	0x50
 6739 0e50 02       		.byte	0x2
 6740 0e51 78       		.byte	0x78
 6741 0e52 00       		.sleb128 0
 6742 0e53 00       		.byte	0
 6743 0e54 15       		.uleb128 0x15
 6744 0e55 40000000 		.4byte	.LVL192
 6745 0e59 F8080000 		.4byte	0x8f8
 6746 0e5d 7A0E0000 		.4byte	0xe7a
 6747 0e61 12       		.uleb128 0x12
 6748 0e62 01       		.byte	0x1
 6749 0e63 52       		.byte	0x52
 6750 0e64 01       		.byte	0x1
 6751 0e65 32       		.byte	0x32
 6752 0e66 12       		.uleb128 0x12
 6753 0e67 01       		.byte	0x1
 6754 0e68 51       		.byte	0x51
 6755 0e69 02       		.byte	0x2
 6756 0e6a 75       		.byte	0x75
 6757 0e6b 0B       		.sleb128 11
 6758 0e6c 12       		.uleb128 0x12
 6759 0e6d 01       		.byte	0x1
ARM GAS  C:\Users\Computer\AppData\Local\Temp\cc1tHs0g.s 			page 137


 6760 0e6e 50       		.byte	0x50
 6761 0e6f 02       		.byte	0x2
 6762 0e70 79       		.byte	0x79
 6763 0e71 00       		.sleb128 0
 6764 0e72 12       		.uleb128 0x12
 6765 0e73 02       		.byte	0x2
 6766 0e74 7D       		.byte	0x7d
 6767 0e75 00       		.sleb128 0
 6768 0e76 02       		.byte	0x2
 6769 0e77 74       		.byte	0x74
 6770 0e78 00       		.sleb128 0
 6771 0e79 00       		.byte	0
 6772 0e7a 15       		.uleb128 0x15
 6773 0e7b 52000000 		.4byte	.LVL194
 6774 0e7f 78080000 		.4byte	0x878
 6775 0e83 A00E0000 		.4byte	0xea0
 6776 0e87 12       		.uleb128 0x12
 6777 0e88 01       		.byte	0x1
 6778 0e89 52       		.byte	0x52
 6779 0e8a 01       		.byte	0x1
 6780 0e8b 33       		.byte	0x33
 6781 0e8c 12       		.uleb128 0x12
 6782 0e8d 01       		.byte	0x1
 6783 0e8e 51       		.byte	0x51
 6784 0e8f 02       		.byte	0x2
 6785 0e90 75       		.byte	0x75
 6786 0e91 07       		.sleb128 7
 6787 0e92 12       		.uleb128 0x12
 6788 0e93 01       		.byte	0x1
 6789 0e94 50       		.byte	0x50
 6790 0e95 02       		.byte	0x2
 6791 0e96 76       		.byte	0x76
 6792 0e97 00       		.sleb128 0
 6793 0e98 12       		.uleb128 0x12
 6794 0e99 02       		.byte	0x2
 6795 0e9a 7D       		.byte	0x7d
 6796 0e9b 00       		.sleb128 0
 6797 0e9c 02       		.byte	0x2
 6798 0e9d 74       		.byte	0x74
 6799 0e9e 00       		.sleb128 0
 6800 0e9f 00       		.byte	0
 6801 0ea0 15       		.uleb128 0x15
 6802 0ea1 64000000 		.4byte	.LVL196
 6803 0ea5 F8080000 		.4byte	0x8f8
 6804 0ea9 C60E0000 		.4byte	0xec6
 6805 0ead 12       		.uleb128 0x12
 6806 0eae 01       		.byte	0x1
 6807 0eaf 52       		.byte	0x52
 6808 0eb0 01       		.byte	0x1
 6809 0eb1 32       		.byte	0x32
 6810 0eb2 12       		.uleb128 0x12
 6811 0eb3 01       		.byte	0x1
 6812 0eb4 51       		.byte	0x51
 6813 0eb5 02       		.byte	0x2
 6814 0eb6 75       		.byte	0x75
 6815 0eb7 05       		.sleb128 5
 6816 0eb8 12       		.uleb128 0x12
ARM GAS  C:\Users\Computer\AppData\Local\Temp\cc1tHs0g.s 			page 138


 6817 0eb9 01       		.byte	0x1
 6818 0eba 50       		.byte	0x50
 6819 0ebb 02       		.byte	0x2
 6820 0ebc 79       		.byte	0x79
 6821 0ebd 00       		.sleb128 0
 6822 0ebe 12       		.uleb128 0x12
 6823 0ebf 02       		.byte	0x2
 6824 0ec0 7D       		.byte	0x7d
 6825 0ec1 00       		.sleb128 0
 6826 0ec2 02       		.byte	0x2
 6827 0ec3 74       		.byte	0x74
 6828 0ec4 00       		.sleb128 0
 6829 0ec5 00       		.byte	0
 6830 0ec6 15       		.uleb128 0x15
 6831 0ec7 72000000 		.4byte	.LVL197
 6832 0ecb 78080000 		.4byte	0x878
 6833 0ecf EC0E0000 		.4byte	0xeec
 6834 0ed3 12       		.uleb128 0x12
 6835 0ed4 01       		.byte	0x1
 6836 0ed5 52       		.byte	0x52
 6837 0ed6 01       		.byte	0x1
 6838 0ed7 34       		.byte	0x34
 6839 0ed8 12       		.uleb128 0x12
 6840 0ed9 01       		.byte	0x1
 6841 0eda 51       		.byte	0x51
 6842 0edb 02       		.byte	0x2
 6843 0edc 75       		.byte	0x75
 6844 0edd 00       		.sleb128 0
 6845 0ede 12       		.uleb128 0x12
 6846 0edf 01       		.byte	0x1
 6847 0ee0 50       		.byte	0x50
 6848 0ee1 02       		.byte	0x2
 6849 0ee2 78       		.byte	0x78
 6850 0ee3 00       		.sleb128 0
 6851 0ee4 12       		.uleb128 0x12
 6852 0ee5 02       		.byte	0x2
 6853 0ee6 7D       		.byte	0x7d
 6854 0ee7 00       		.sleb128 0
 6855 0ee8 02       		.byte	0x2
 6856 0ee9 74       		.byte	0x74
 6857 0eea 00       		.sleb128 0
 6858 0eeb 00       		.byte	0
 6859 0eec 11       		.uleb128 0x11
 6860 0eed 80000000 		.4byte	.LVL198
 6861 0ef1 F8080000 		.4byte	0x8f8
 6862 0ef5 12       		.uleb128 0x12
 6863 0ef6 01       		.byte	0x1
 6864 0ef7 52       		.byte	0x52
 6865 0ef8 01       		.byte	0x1
 6866 0ef9 34       		.byte	0x34
 6867 0efa 12       		.uleb128 0x12
 6868 0efb 01       		.byte	0x1
 6869 0efc 51       		.byte	0x51
 6870 0efd 02       		.byte	0x2
 6871 0efe 77       		.byte	0x77
 6872 0eff 00       		.sleb128 0
 6873 0f00 12       		.uleb128 0x12
ARM GAS  C:\Users\Computer\AppData\Local\Temp\cc1tHs0g.s 			page 139


 6874 0f01 01       		.byte	0x1
 6875 0f02 50       		.byte	0x50
 6876 0f03 02       		.byte	0x2
 6877 0f04 76       		.byte	0x76
 6878 0f05 00       		.sleb128 0
 6879 0f06 12       		.uleb128 0x12
 6880 0f07 02       		.byte	0x2
 6881 0f08 7D       		.byte	0x7d
 6882 0f09 00       		.sleb128 0
 6883 0f0a 02       		.byte	0x2
 6884 0f0b 74       		.byte	0x74
 6885 0f0c 00       		.sleb128 0
 6886 0f0d 00       		.byte	0
 6887 0f0e 00       		.byte	0
 6888 0f0f 16       		.uleb128 0x16
 6889 0f10 01       		.byte	0x1
 6890 0f11 85000000 		.4byte	.LASF42
 6891 0f15 01       		.byte	0x1
 6892 0f16 3401     		.2byte	0x134
 6893 0f18 01       		.byte	0x1
 6894 0f19 00000000 		.4byte	.LFB47
 6895 0f1d 30000000 		.4byte	.LFE47
 6896 0f21 E80E0000 		.4byte	.LLST82
 6897 0f25 01       		.byte	0x1
 6898 0f26 AE0F0000 		.4byte	0xfae
 6899 0f2a 17       		.uleb128 0x17
 6900 0f2b 783000   		.ascii	"x0\000"
 6901 0f2e 01       		.byte	0x1
 6902 0f2f 3401     		.2byte	0x134
 6903 0f31 90000000 		.4byte	0x90
 6904 0f35 140F0000 		.4byte	.LLST83
 6905 0f39 17       		.uleb128 0x17
 6906 0f3a 793000   		.ascii	"y0\000"
 6907 0f3d 01       		.byte	0x1
 6908 0f3e 3401     		.2byte	0x134
 6909 0f40 90000000 		.4byte	0x90
 6910 0f44 350F0000 		.4byte	.LLST84
 6911 0f48 18       		.uleb128 0x18
 6912 0f49 6300     		.ascii	"c\000"
 6913 0f4b 01       		.byte	0x1
 6914 0f4c 3401     		.2byte	0x134
 6915 0f4e 2C010000 		.4byte	0x12c
 6916 0f52 02       		.byte	0x2
 6917 0f53 91       		.byte	0x91
 6918 0f54 64       		.sleb128 -28
 6919 0f55 1B       		.uleb128 0x1b
 6920 0f56 18010000 		.4byte	.LASF18
 6921 0f5a 01       		.byte	0x1
 6922 0f5b 3401     		.2byte	0x134
 6923 0f5d C4010000 		.4byte	0x1c4
 6924 0f61 6E0F0000 		.4byte	.LLST85
 6925 0f65 15       		.uleb128 0x15
 6926 0f66 1E000000 		.4byte	.LVL205
 6927 0f6a 78080000 		.4byte	0x878
 6928 0f6e 8B0F0000 		.4byte	0xf8b
 6929 0f72 12       		.uleb128 0x12
 6930 0f73 01       		.byte	0x1
ARM GAS  C:\Users\Computer\AppData\Local\Temp\cc1tHs0g.s 			page 140


 6931 0f74 52       		.byte	0x52
 6932 0f75 01       		.byte	0x1
 6933 0f76 32       		.byte	0x32
 6934 0f77 12       		.uleb128 0x12
 6935 0f78 01       		.byte	0x1
 6936 0f79 51       		.byte	0x51
 6937 0f7a 02       		.byte	0x2
 6938 0f7b 76       		.byte	0x76
 6939 0f7c 7C       		.sleb128 -4
 6940 0f7d 12       		.uleb128 0x12
 6941 0f7e 01       		.byte	0x1
 6942 0f7f 50       		.byte	0x50
 6943 0f80 02       		.byte	0x2
 6944 0f81 74       		.byte	0x74
 6945 0f82 00       		.sleb128 0
 6946 0f83 12       		.uleb128 0x12
 6947 0f84 02       		.byte	0x2
 6948 0f85 7D       		.byte	0x7d
 6949 0f86 00       		.sleb128 0
 6950 0f87 02       		.byte	0x2
 6951 0f88 75       		.byte	0x75
 6952 0f89 00       		.sleb128 0
 6953 0f8a 00       		.byte	0
 6954 0f8b 11       		.uleb128 0x11
 6955 0f8c 2C000000 		.4byte	.LVL206
 6956 0f90 78080000 		.4byte	0x878
 6957 0f94 12       		.uleb128 0x12
 6958 0f95 01       		.byte	0x1
 6959 0f96 52       		.byte	0x52
 6960 0f97 01       		.byte	0x1
 6961 0f98 32       		.byte	0x32
 6962 0f99 12       		.uleb128 0x12
 6963 0f9a 01       		.byte	0x1
 6964 0f9b 51       		.byte	0x51
 6965 0f9c 02       		.byte	0x2
 6966 0f9d 76       		.byte	0x76
 6967 0f9e 00       		.sleb128 0
 6968 0f9f 12       		.uleb128 0x12
 6969 0fa0 01       		.byte	0x1
 6970 0fa1 50       		.byte	0x50
 6971 0fa2 02       		.byte	0x2
 6972 0fa3 74       		.byte	0x74
 6973 0fa4 00       		.sleb128 0
 6974 0fa5 12       		.uleb128 0x12
 6975 0fa6 02       		.byte	0x2
 6976 0fa7 7D       		.byte	0x7d
 6977 0fa8 00       		.sleb128 0
 6978 0fa9 02       		.byte	0x2
 6979 0faa 75       		.byte	0x75
 6980 0fab 00       		.sleb128 0
 6981 0fac 00       		.byte	0
 6982 0fad 00       		.byte	0
 6983 0fae 16       		.uleb128 0x16
 6984 0faf 01       		.byte	0x1
 6985 0fb0 E6000000 		.4byte	.LASF43
 6986 0fb4 01       		.byte	0x1
 6987 0fb5 3A01     		.2byte	0x13a
ARM GAS  C:\Users\Computer\AppData\Local\Temp\cc1tHs0g.s 			page 141


 6988 0fb7 01       		.byte	0x1
 6989 0fb8 00000000 		.4byte	.LFB48
 6990 0fbc 8A000000 		.4byte	.LFE48
 6991 0fc0 9A0F0000 		.4byte	.LLST86
 6992 0fc4 01       		.byte	0x1
 6993 0fc5 E5100000 		.4byte	0x10e5
 6994 0fc9 17       		.uleb128 0x17
 6995 0fca 783000   		.ascii	"x0\000"
 6996 0fcd 01       		.byte	0x1
 6997 0fce 3A01     		.2byte	0x13a
 6998 0fd0 90000000 		.4byte	0x90
 6999 0fd4 D20F0000 		.4byte	.LLST87
 7000 0fd8 17       		.uleb128 0x17
 7001 0fd9 793000   		.ascii	"y0\000"
 7002 0fdc 01       		.byte	0x1
 7003 0fdd 3A01     		.2byte	0x13a
 7004 0fdf 90000000 		.4byte	0x90
 7005 0fe3 0B100000 		.4byte	.LLST88
 7006 0fe7 18       		.uleb128 0x18
 7007 0fe8 6300     		.ascii	"c\000"
 7008 0fea 01       		.byte	0x1
 7009 0feb 3A01     		.2byte	0x13a
 7010 0fed 2C010000 		.4byte	0x12c
 7011 0ff1 02       		.byte	0x2
 7012 0ff2 91       		.byte	0x91
 7013 0ff3 5C       		.sleb128 -36
 7014 0ff4 1B       		.uleb128 0x1b
 7015 0ff5 18010000 		.4byte	.LASF18
 7016 0ff9 01       		.byte	0x1
 7017 0ffa 3A01     		.2byte	0x13a
 7018 0ffc C4010000 		.4byte	0x1c4
 7019 1000 51100000 		.4byte	.LLST89
 7020 1004 15       		.uleb128 0x15
 7021 1005 2C000000 		.4byte	.LVL213
 7022 1009 F8080000 		.4byte	0x8f8
 7023 100d 2A100000 		.4byte	0x102a
 7024 1011 12       		.uleb128 0x12
 7025 1012 01       		.byte	0x1
 7026 1013 52       		.byte	0x52
 7027 1014 01       		.byte	0x1
 7028 1015 34       		.byte	0x34
 7029 1016 12       		.uleb128 0x12
 7030 1017 01       		.byte	0x1
 7031 1018 51       		.byte	0x51
 7032 1019 02       		.byte	0x2
 7033 101a 75       		.byte	0x75
 7034 101b 0B       		.sleb128 11
 7035 101c 12       		.uleb128 0x12
 7036 101d 01       		.byte	0x1
 7037 101e 50       		.byte	0x50
 7038 101f 02       		.byte	0x2
 7039 1020 77       		.byte	0x77
 7040 1021 00       		.sleb128 0
 7041 1022 12       		.uleb128 0x12
 7042 1023 02       		.byte	0x2
 7043 1024 7D       		.byte	0x7d
 7044 1025 00       		.sleb128 0
ARM GAS  C:\Users\Computer\AppData\Local\Temp\cc1tHs0g.s 			page 142


 7045 1026 02       		.byte	0x2
 7046 1027 74       		.byte	0x74
 7047 1028 00       		.sleb128 0
 7048 1029 00       		.byte	0
 7049 102a 15       		.uleb128 0x15
 7050 102b 3C000000 		.4byte	.LVL214
 7051 102f 78080000 		.4byte	0x878
 7052 1033 50100000 		.4byte	0x1050
 7053 1037 12       		.uleb128 0x12
 7054 1038 01       		.byte	0x1
 7055 1039 52       		.byte	0x52
 7056 103a 01       		.byte	0x1
 7057 103b 33       		.byte	0x33
 7058 103c 12       		.uleb128 0x12
 7059 103d 01       		.byte	0x1
 7060 103e 51       		.byte	0x51
 7061 103f 02       		.byte	0x2
 7062 1040 75       		.byte	0x75
 7063 1041 07       		.sleb128 7
 7064 1042 12       		.uleb128 0x12
 7065 1043 01       		.byte	0x1
 7066 1044 50       		.byte	0x50
 7067 1045 02       		.byte	0x2
 7068 1046 77       		.byte	0x77
 7069 1047 00       		.sleb128 0
 7070 1048 12       		.uleb128 0x12
 7071 1049 02       		.byte	0x2
 7072 104a 7D       		.byte	0x7d
 7073 104b 00       		.sleb128 0
 7074 104c 02       		.byte	0x2
 7075 104d 74       		.byte	0x74
 7076 104e 00       		.sleb128 0
 7077 104f 00       		.byte	0
 7078 1050 15       		.uleb128 0x15
 7079 1051 56000000 		.4byte	.LVL218
 7080 1055 F8080000 		.4byte	0x8f8
 7081 1059 7C100000 		.4byte	0x107c
 7082 105d 12       		.uleb128 0x12
 7083 105e 01       		.byte	0x1
 7084 105f 52       		.byte	0x52
 7085 1060 01       		.byte	0x1
 7086 1061 31       		.byte	0x31
 7087 1062 12       		.uleb128 0x12
 7088 1063 01       		.byte	0x1
 7089 1064 51       		.byte	0x51
 7090 1065 08       		.byte	0x8
 7091 1066 F3       		.byte	0xf3
 7092 1067 01       		.uleb128 0x1
 7093 1068 51       		.byte	0x51
 7094 1069 08       		.byte	0x8
 7095 106a FF       		.byte	0xff
 7096 106b 1A       		.byte	0x1a
 7097 106c 23       		.byte	0x23
 7098 106d 06       		.uleb128 0x6
 7099 106e 12       		.uleb128 0x12
 7100 106f 01       		.byte	0x1
 7101 1070 50       		.byte	0x50
ARM GAS  C:\Users\Computer\AppData\Local\Temp\cc1tHs0g.s 			page 143


 7102 1071 02       		.byte	0x2
 7103 1072 79       		.byte	0x79
 7104 1073 00       		.sleb128 0
 7105 1074 12       		.uleb128 0x12
 7106 1075 02       		.byte	0x2
 7107 1076 7D       		.byte	0x7d
 7108 1077 00       		.sleb128 0
 7109 1078 02       		.byte	0x2
 7110 1079 74       		.byte	0x74
 7111 107a 00       		.sleb128 0
 7112 107b 00       		.byte	0
 7113 107c 15       		.uleb128 0x15
 7114 107d 64000000 		.4byte	.LVL219
 7115 1081 78080000 		.4byte	0x878
 7116 1085 A2100000 		.4byte	0x10a2
 7117 1089 12       		.uleb128 0x12
 7118 108a 01       		.byte	0x1
 7119 108b 52       		.byte	0x52
 7120 108c 01       		.byte	0x1
 7121 108d 34       		.byte	0x34
 7122 108e 12       		.uleb128 0x12
 7123 108f 01       		.byte	0x1
 7124 1090 51       		.byte	0x51
 7125 1091 02       		.byte	0x2
 7126 1092 75       		.byte	0x75
 7127 1093 00       		.sleb128 0
 7128 1094 12       		.uleb128 0x12
 7129 1095 01       		.byte	0x1
 7130 1096 50       		.byte	0x50
 7131 1097 02       		.byte	0x2
 7132 1098 77       		.byte	0x77
 7133 1099 00       		.sleb128 0
 7134 109a 12       		.uleb128 0x12
 7135 109b 02       		.byte	0x2
 7136 109c 7D       		.byte	0x7d
 7137 109d 00       		.sleb128 0
 7138 109e 02       		.byte	0x2
 7139 109f 74       		.byte	0x74
 7140 10a0 00       		.sleb128 0
 7141 10a1 00       		.byte	0
 7142 10a2 15       		.uleb128 0x15
 7143 10a3 74000000 		.4byte	.LVL221
 7144 10a7 F8080000 		.4byte	0x8f8
 7145 10ab C8100000 		.4byte	0x10c8
 7146 10af 12       		.uleb128 0x12
 7147 10b0 01       		.byte	0x1
 7148 10b1 52       		.byte	0x52
 7149 10b2 01       		.byte	0x1
 7150 10b3 32       		.byte	0x32
 7151 10b4 12       		.uleb128 0x12
 7152 10b5 01       		.byte	0x1
 7153 10b6 51       		.byte	0x51
 7154 10b7 02       		.byte	0x2
 7155 10b8 78       		.byte	0x78
 7156 10b9 00       		.sleb128 0
 7157 10ba 12       		.uleb128 0x12
 7158 10bb 01       		.byte	0x1
ARM GAS  C:\Users\Computer\AppData\Local\Temp\cc1tHs0g.s 			page 144


 7159 10bc 50       		.byte	0x50
 7160 10bd 02       		.byte	0x2
 7161 10be 79       		.byte	0x79
 7162 10bf 00       		.sleb128 0
 7163 10c0 12       		.uleb128 0x12
 7164 10c1 02       		.byte	0x2
 7165 10c2 7D       		.byte	0x7d
 7166 10c3 00       		.sleb128 0
 7167 10c4 02       		.byte	0x2
 7168 10c5 74       		.byte	0x74
 7169 10c6 00       		.sleb128 0
 7170 10c7 00       		.byte	0
 7171 10c8 11       		.uleb128 0x11
 7172 10c9 80000000 		.4byte	.LVL222
 7173 10cd CA010000 		.4byte	0x1ca
 7174 10d1 12       		.uleb128 0x12
 7175 10d2 01       		.byte	0x1
 7176 10d3 53       		.byte	0x53
 7177 10d4 02       		.byte	0x2
 7178 10d5 74       		.byte	0x74
 7179 10d6 00       		.sleb128 0
 7180 10d7 12       		.uleb128 0x12
 7181 10d8 01       		.byte	0x1
 7182 10d9 51       		.byte	0x51
 7183 10da 02       		.byte	0x2
 7184 10db 75       		.byte	0x75
 7185 10dc 00       		.sleb128 0
 7186 10dd 12       		.uleb128 0x12
 7187 10de 01       		.byte	0x1
 7188 10df 50       		.byte	0x50
 7189 10e0 02       		.byte	0x2
 7190 10e1 76       		.byte	0x76
 7191 10e2 00       		.sleb128 0
 7192 10e3 00       		.byte	0
 7193 10e4 00       		.byte	0
 7194 10e5 16       		.uleb128 0x16
 7195 10e6 01       		.byte	0x1
 7196 10e7 9E020000 		.4byte	.LASF44
 7197 10eb 01       		.byte	0x1
 7198 10ec 4501     		.2byte	0x145
 7199 10ee 01       		.byte	0x1
 7200 10ef 00000000 		.4byte	.LFB49
 7201 10f3 48000000 		.4byte	.LFE49
 7202 10f7 7D100000 		.4byte	.LLST90
 7203 10fb 01       		.byte	0x1
 7204 10fc AA110000 		.4byte	0x11aa
 7205 1100 17       		.uleb128 0x17
 7206 1101 783000   		.ascii	"x0\000"
 7207 1104 01       		.byte	0x1
 7208 1105 4501     		.2byte	0x145
 7209 1107 90000000 		.4byte	0x90
 7210 110b A9100000 		.4byte	.LLST91
 7211 110f 17       		.uleb128 0x17
 7212 1110 793000   		.ascii	"y0\000"
 7213 1113 01       		.byte	0x1
 7214 1114 4501     		.2byte	0x145
 7215 1116 90000000 		.4byte	0x90
ARM GAS  C:\Users\Computer\AppData\Local\Temp\cc1tHs0g.s 			page 145


 7216 111a E2100000 		.4byte	.LLST92
 7217 111e 18       		.uleb128 0x18
 7218 111f 6300     		.ascii	"c\000"
 7219 1121 01       		.byte	0x1
 7220 1122 4501     		.2byte	0x145
 7221 1124 2C010000 		.4byte	0x12c
 7222 1128 02       		.byte	0x2
 7223 1129 91       		.byte	0x91
 7224 112a 64       		.sleb128 -28
 7225 112b 1B       		.uleb128 0x1b
 7226 112c 18010000 		.4byte	.LASF18
 7227 1130 01       		.byte	0x1
 7228 1131 4501     		.2byte	0x145
 7229 1133 C4010000 		.4byte	0x1c4
 7230 1137 1B110000 		.4byte	.LLST93
 7231 113b 15       		.uleb128 0x15
 7232 113c 22000000 		.4byte	.LVL229
 7233 1140 78080000 		.4byte	0x878
 7234 1144 61110000 		.4byte	0x1161
 7235 1148 12       		.uleb128 0x12
 7236 1149 01       		.byte	0x1
 7237 114a 52       		.byte	0x52
 7238 114b 01       		.byte	0x1
 7239 114c 35       		.byte	0x35
 7240 114d 12       		.uleb128 0x12
 7241 114e 01       		.byte	0x1
 7242 114f 51       		.byte	0x51
 7243 1150 02       		.byte	0x2
 7244 1151 77       		.byte	0x77
 7245 1152 06       		.sleb128 6
 7246 1153 12       		.uleb128 0x12
 7247 1154 01       		.byte	0x1
 7248 1155 50       		.byte	0x50
 7249 1156 02       		.byte	0x2
 7250 1157 75       		.byte	0x75
 7251 1158 05       		.sleb128 5
 7252 1159 12       		.uleb128 0x12
 7253 115a 02       		.byte	0x2
 7254 115b 7D       		.byte	0x7d
 7255 115c 00       		.sleb128 0
 7256 115d 02       		.byte	0x2
 7257 115e 74       		.byte	0x74
 7258 115f 00       		.sleb128 0
 7259 1160 00       		.byte	0
 7260 1161 15       		.uleb128 0x15
 7261 1162 36000000 		.4byte	.LVL232
 7262 1166 F8080000 		.4byte	0x8f8
 7263 116a 87110000 		.4byte	0x1187
 7264 116e 12       		.uleb128 0x12
 7265 116f 01       		.byte	0x1
 7266 1170 52       		.byte	0x52
 7267 1171 01       		.byte	0x1
 7268 1172 34       		.byte	0x34
 7269 1173 12       		.uleb128 0x12
 7270 1174 01       		.byte	0x1
 7271 1175 51       		.byte	0x51
 7272 1176 02       		.byte	0x2
ARM GAS  C:\Users\Computer\AppData\Local\Temp\cc1tHs0g.s 			page 146


 7273 1177 77       		.byte	0x77
 7274 1178 00       		.sleb128 0
 7275 1179 12       		.uleb128 0x12
 7276 117a 01       		.byte	0x1
 7277 117b 50       		.byte	0x50
 7278 117c 02       		.byte	0x2
 7279 117d 75       		.byte	0x75
 7280 117e 7F       		.sleb128 -1
 7281 117f 12       		.uleb128 0x12
 7282 1180 02       		.byte	0x2
 7283 1181 7D       		.byte	0x7d
 7284 1182 00       		.sleb128 0
 7285 1183 02       		.byte	0x2
 7286 1184 74       		.byte	0x74
 7287 1185 00       		.sleb128 0
 7288 1186 00       		.byte	0
 7289 1187 11       		.uleb128 0x11
 7290 1188 44000000 		.4byte	.LVL233
 7291 118c 78080000 		.4byte	0x878
 7292 1190 12       		.uleb128 0x12
 7293 1191 01       		.byte	0x1
 7294 1192 52       		.byte	0x52
 7295 1193 01       		.byte	0x1
 7296 1194 3B       		.byte	0x3b
 7297 1195 12       		.uleb128 0x12
 7298 1196 01       		.byte	0x1
 7299 1197 51       		.byte	0x51
 7300 1198 02       		.byte	0x2
 7301 1199 76       		.byte	0x76
 7302 119a 00       		.sleb128 0
 7303 119b 12       		.uleb128 0x12
 7304 119c 01       		.byte	0x1
 7305 119d 50       		.byte	0x50
 7306 119e 02       		.byte	0x2
 7307 119f 75       		.byte	0x75
 7308 11a0 00       		.sleb128 0
 7309 11a1 12       		.uleb128 0x12
 7310 11a2 02       		.byte	0x2
 7311 11a3 7D       		.byte	0x7d
 7312 11a4 00       		.sleb128 0
 7313 11a5 02       		.byte	0x2
 7314 11a6 74       		.byte	0x74
 7315 11a7 00       		.sleb128 0
 7316 11a8 00       		.byte	0
 7317 11a9 00       		.byte	0
 7318 11aa 16       		.uleb128 0x16
 7319 11ab 01       		.byte	0x1
 7320 11ac 11030000 		.4byte	.LASF45
 7321 11b0 01       		.byte	0x1
 7322 11b1 4C01     		.2byte	0x14c
 7323 11b3 01       		.byte	0x1
 7324 11b4 00000000 		.4byte	.LFB50
 7325 11b8 8A000000 		.4byte	.LFE50
 7326 11bc 47110000 		.4byte	.LLST94
 7327 11c0 01       		.byte	0x1
 7328 11c1 E1120000 		.4byte	0x12e1
 7329 11c5 17       		.uleb128 0x17
ARM GAS  C:\Users\Computer\AppData\Local\Temp\cc1tHs0g.s 			page 147


 7330 11c6 783000   		.ascii	"x0\000"
 7331 11c9 01       		.byte	0x1
 7332 11ca 4C01     		.2byte	0x14c
 7333 11cc 90000000 		.4byte	0x90
 7334 11d0 7F110000 		.4byte	.LLST95
 7335 11d4 17       		.uleb128 0x17
 7336 11d5 793000   		.ascii	"y0\000"
 7337 11d8 01       		.byte	0x1
 7338 11d9 4C01     		.2byte	0x14c
 7339 11db 90000000 		.4byte	0x90
 7340 11df B8110000 		.4byte	.LLST96
 7341 11e3 18       		.uleb128 0x18
 7342 11e4 6300     		.ascii	"c\000"
 7343 11e6 01       		.byte	0x1
 7344 11e7 4C01     		.2byte	0x14c
 7345 11e9 2C010000 		.4byte	0x12c
 7346 11ed 02       		.byte	0x2
 7347 11ee 91       		.byte	0x91
 7348 11ef 5C       		.sleb128 -36
 7349 11f0 1B       		.uleb128 0x1b
 7350 11f1 18010000 		.4byte	.LASF18
 7351 11f5 01       		.byte	0x1
 7352 11f6 4C01     		.2byte	0x14c
 7353 11f8 C4010000 		.4byte	0x1c4
 7354 11fc FE110000 		.4byte	.LLST97
 7355 1200 15       		.uleb128 0x15
 7356 1201 30000000 		.4byte	.LVL241
 7357 1205 F8080000 		.4byte	0x8f8
 7358 1209 26120000 		.4byte	0x1226
 7359 120d 12       		.uleb128 0x12
 7360 120e 01       		.byte	0x1
 7361 120f 52       		.byte	0x52
 7362 1210 01       		.byte	0x1
 7363 1211 34       		.byte	0x34
 7364 1212 12       		.uleb128 0x12
 7365 1213 01       		.byte	0x1
 7366 1214 51       		.byte	0x51
 7367 1215 02       		.byte	0x2
 7368 1216 75       		.byte	0x75
 7369 1217 0B       		.sleb128 11
 7370 1218 12       		.uleb128 0x12
 7371 1219 01       		.byte	0x1
 7372 121a 50       		.byte	0x50
 7373 121b 02       		.byte	0x2
 7374 121c 79       		.byte	0x79
 7375 121d 00       		.sleb128 0
 7376 121e 12       		.uleb128 0x12
 7377 121f 02       		.byte	0x2
 7378 1220 7D       		.byte	0x7d
 7379 1221 00       		.sleb128 0
 7380 1222 02       		.byte	0x2
 7381 1223 74       		.byte	0x74
 7382 1224 00       		.sleb128 0
 7383 1225 00       		.byte	0
 7384 1226 15       		.uleb128 0x15
 7385 1227 42000000 		.4byte	.LVL243
 7386 122b 78080000 		.4byte	0x878
ARM GAS  C:\Users\Computer\AppData\Local\Temp\cc1tHs0g.s 			page 148


 7387 122f 4C120000 		.4byte	0x124c
 7388 1233 12       		.uleb128 0x12
 7389 1234 01       		.byte	0x1
 7390 1235 52       		.byte	0x52
 7391 1236 01       		.byte	0x1
 7392 1237 34       		.byte	0x34
 7393 1238 12       		.uleb128 0x12
 7394 1239 01       		.byte	0x1
 7395 123a 51       		.byte	0x51
 7396 123b 02       		.byte	0x2
 7397 123c 75       		.byte	0x75
 7398 123d 06       		.sleb128 6
 7399 123e 12       		.uleb128 0x12
 7400 123f 01       		.byte	0x1
 7401 1240 50       		.byte	0x50
 7402 1241 02       		.byte	0x2
 7403 1242 77       		.byte	0x77
 7404 1243 00       		.sleb128 0
 7405 1244 12       		.uleb128 0x12
 7406 1245 02       		.byte	0x2
 7407 1246 7D       		.byte	0x7d
 7408 1247 00       		.sleb128 0
 7409 1248 02       		.byte	0x2
 7410 1249 74       		.byte	0x74
 7411 124a 00       		.sleb128 0
 7412 124b 00       		.byte	0
 7413 124c 15       		.uleb128 0x15
 7414 124d 58000000 		.4byte	.LVL248
 7415 1251 F8080000 		.4byte	0x8f8
 7416 1255 78120000 		.4byte	0x1278
 7417 1259 12       		.uleb128 0x12
 7418 125a 01       		.byte	0x1
 7419 125b 52       		.byte	0x52
 7420 125c 01       		.byte	0x1
 7421 125d 32       		.byte	0x32
 7422 125e 12       		.uleb128 0x12
 7423 125f 01       		.byte	0x1
 7424 1260 51       		.byte	0x51
 7425 1261 08       		.byte	0x8
 7426 1262 F3       		.byte	0xf3
 7427 1263 01       		.uleb128 0x1
 7428 1264 51       		.byte	0x51
 7429 1265 08       		.byte	0x8
 7430 1266 FF       		.byte	0xff
 7431 1267 1A       		.byte	0x1a
 7432 1268 23       		.byte	0x23
 7433 1269 05       		.uleb128 0x5
 7434 126a 12       		.uleb128 0x12
 7435 126b 01       		.byte	0x1
 7436 126c 50       		.byte	0x50
 7437 126d 02       		.byte	0x2
 7438 126e 76       		.byte	0x76
 7439 126f 00       		.sleb128 0
 7440 1270 12       		.uleb128 0x12
 7441 1271 02       		.byte	0x2
 7442 1272 7D       		.byte	0x7d
 7443 1273 00       		.sleb128 0
ARM GAS  C:\Users\Computer\AppData\Local\Temp\cc1tHs0g.s 			page 149


 7444 1274 02       		.byte	0x2
 7445 1275 74       		.byte	0x74
 7446 1276 00       		.sleb128 0
 7447 1277 00       		.byte	0
 7448 1278 15       		.uleb128 0x15
 7449 1279 66000000 		.4byte	.LVL249
 7450 127d 78080000 		.4byte	0x878
 7451 1281 9E120000 		.4byte	0x129e
 7452 1285 12       		.uleb128 0x12
 7453 1286 01       		.byte	0x1
 7454 1287 52       		.byte	0x52
 7455 1288 01       		.byte	0x1
 7456 1289 33       		.byte	0x33
 7457 128a 12       		.uleb128 0x12
 7458 128b 01       		.byte	0x1
 7459 128c 51       		.byte	0x51
 7460 128d 02       		.byte	0x2
 7461 128e 75       		.byte	0x75
 7462 128f 00       		.sleb128 0
 7463 1290 12       		.uleb128 0x12
 7464 1291 01       		.byte	0x1
 7465 1292 50       		.byte	0x50
 7466 1293 02       		.byte	0x2
 7467 1294 79       		.byte	0x79
 7468 1295 00       		.sleb128 0
 7469 1296 12       		.uleb128 0x12
 7470 1297 02       		.byte	0x2
 7471 1298 7D       		.byte	0x7d
 7472 1299 00       		.sleb128 0
 7473 129a 02       		.byte	0x2
 7474 129b 74       		.byte	0x74
 7475 129c 00       		.sleb128 0
 7476 129d 00       		.byte	0
 7477 129e 15       		.uleb128 0x15
 7478 129f 74000000 		.4byte	.LVL250
 7479 12a3 F8080000 		.4byte	0x8f8
 7480 12a7 C4120000 		.4byte	0x12c4
 7481 12ab 12       		.uleb128 0x12
 7482 12ac 01       		.byte	0x1
 7483 12ad 52       		.byte	0x52
 7484 12ae 01       		.byte	0x1
 7485 12af 32       		.byte	0x32
 7486 12b0 12       		.uleb128 0x12
 7487 12b1 01       		.byte	0x1
 7488 12b2 51       		.byte	0x51
 7489 12b3 02       		.byte	0x2
 7490 12b4 78       		.byte	0x78
 7491 12b5 00       		.sleb128 0
 7492 12b6 12       		.uleb128 0x12
 7493 12b7 01       		.byte	0x1
 7494 12b8 50       		.byte	0x50
 7495 12b9 02       		.byte	0x2
 7496 12ba 76       		.byte	0x76
 7497 12bb 00       		.sleb128 0
 7498 12bc 12       		.uleb128 0x12
 7499 12bd 02       		.byte	0x2
 7500 12be 7D       		.byte	0x7d
ARM GAS  C:\Users\Computer\AppData\Local\Temp\cc1tHs0g.s 			page 150


 7501 12bf 00       		.sleb128 0
 7502 12c0 02       		.byte	0x2
 7503 12c1 74       		.byte	0x74
 7504 12c2 00       		.sleb128 0
 7505 12c3 00       		.byte	0
 7506 12c4 11       		.uleb128 0x11
 7507 12c5 80000000 		.4byte	.LVL251
 7508 12c9 CA010000 		.4byte	0x1ca
 7509 12cd 12       		.uleb128 0x12
 7510 12ce 01       		.byte	0x1
 7511 12cf 53       		.byte	0x53
 7512 12d0 02       		.byte	0x2
 7513 12d1 74       		.byte	0x74
 7514 12d2 00       		.sleb128 0
 7515 12d3 12       		.uleb128 0x12
 7516 12d4 01       		.byte	0x1
 7517 12d5 51       		.byte	0x51
 7518 12d6 02       		.byte	0x2
 7519 12d7 75       		.byte	0x75
 7520 12d8 00       		.sleb128 0
 7521 12d9 12       		.uleb128 0x12
 7522 12da 01       		.byte	0x1
 7523 12db 50       		.byte	0x50
 7524 12dc 02       		.byte	0x2
 7525 12dd 77       		.byte	0x77
 7526 12de 00       		.sleb128 0
 7527 12df 00       		.byte	0
 7528 12e0 00       		.byte	0
 7529 12e1 16       		.uleb128 0x16
 7530 12e2 01       		.byte	0x1
 7531 12e3 C9020000 		.4byte	.LASF46
 7532 12e7 01       		.byte	0x1
 7533 12e8 5501     		.2byte	0x155
 7534 12ea 01       		.byte	0x1
 7535 12eb 00000000 		.4byte	.LFB51
 7536 12ef 7E000000 		.4byte	.LFE51
 7537 12f3 2A120000 		.4byte	.LLST98
 7538 12f7 01       		.byte	0x1
 7539 12f8 F2130000 		.4byte	0x13f2
 7540 12fc 17       		.uleb128 0x17
 7541 12fd 783000   		.ascii	"x0\000"
 7542 1300 01       		.byte	0x1
 7543 1301 5501     		.2byte	0x155
 7544 1303 90000000 		.4byte	0x90
 7545 1307 62120000 		.4byte	.LLST99
 7546 130b 17       		.uleb128 0x17
 7547 130c 793000   		.ascii	"y0\000"
 7548 130f 01       		.byte	0x1
 7549 1310 5501     		.2byte	0x155
 7550 1312 90000000 		.4byte	0x90
 7551 1316 9B120000 		.4byte	.LLST100
 7552 131a 18       		.uleb128 0x18
 7553 131b 6300     		.ascii	"c\000"
 7554 131d 01       		.byte	0x1
 7555 131e 5501     		.2byte	0x155
 7556 1320 2C010000 		.4byte	0x12c
 7557 1324 02       		.byte	0x2
ARM GAS  C:\Users\Computer\AppData\Local\Temp\cc1tHs0g.s 			page 151


 7558 1325 91       		.byte	0x91
 7559 1326 5C       		.sleb128 -36
 7560 1327 1B       		.uleb128 0x1b
 7561 1328 18010000 		.4byte	.LASF18
 7562 132c 01       		.byte	0x1
 7563 132d 5501     		.2byte	0x155
 7564 132f C4010000 		.4byte	0x1c4
 7565 1333 D4120000 		.4byte	.LLST101
 7566 1337 15       		.uleb128 0x15
 7567 1338 2C000000 		.4byte	.LVL257
 7568 133c F8080000 		.4byte	0x8f8
 7569 1340 5D130000 		.4byte	0x135d
 7570 1344 12       		.uleb128 0x12
 7571 1345 01       		.byte	0x1
 7572 1346 52       		.byte	0x52
 7573 1347 01       		.byte	0x1
 7574 1348 33       		.byte	0x33
 7575 1349 12       		.uleb128 0x12
 7576 134a 01       		.byte	0x1
 7577 134b 51       		.byte	0x51
 7578 134c 02       		.byte	0x2
 7579 134d 76       		.byte	0x76
 7580 134e 0B       		.sleb128 11
 7581 134f 12       		.uleb128 0x12
 7582 1350 01       		.byte	0x1
 7583 1351 50       		.byte	0x50
 7584 1352 02       		.byte	0x2
 7585 1353 78       		.byte	0x78
 7586 1354 00       		.sleb128 0
 7587 1355 12       		.uleb128 0x12
 7588 1356 02       		.byte	0x2
 7589 1357 7D       		.byte	0x7d
 7590 1358 00       		.sleb128 0
 7591 1359 02       		.byte	0x2
 7592 135a 74       		.byte	0x74
 7593 135b 00       		.sleb128 0
 7594 135c 00       		.byte	0
 7595 135d 15       		.uleb128 0x15
 7596 135e 40000000 		.4byte	.LVL258
 7597 1362 78080000 		.4byte	0x878
 7598 1366 83130000 		.4byte	0x1383
 7599 136a 12       		.uleb128 0x12
 7600 136b 01       		.byte	0x1
 7601 136c 52       		.byte	0x52
 7602 136d 01       		.byte	0x1
 7603 136e 34       		.byte	0x34
 7604 136f 12       		.uleb128 0x12
 7605 1370 01       		.byte	0x1
 7606 1371 51       		.byte	0x51
 7607 1372 02       		.byte	0x2
 7608 1373 79       		.byte	0x79
 7609 1374 00       		.sleb128 0
 7610 1375 12       		.uleb128 0x12
 7611 1376 01       		.byte	0x1
 7612 1377 50       		.byte	0x50
 7613 1378 02       		.byte	0x2
 7614 1379 78       		.byte	0x78
ARM GAS  C:\Users\Computer\AppData\Local\Temp\cc1tHs0g.s 			page 152


 7615 137a 00       		.sleb128 0
 7616 137b 12       		.uleb128 0x12
 7617 137c 02       		.byte	0x2
 7618 137d 7D       		.byte	0x7d
 7619 137e 00       		.sleb128 0
 7620 137f 02       		.byte	0x2
 7621 1380 74       		.byte	0x74
 7622 1381 00       		.sleb128 0
 7623 1382 00       		.byte	0
 7624 1383 15       		.uleb128 0x15
 7625 1384 58000000 		.4byte	.LVL261
 7626 1388 F8080000 		.4byte	0x8f8
 7627 138c A9130000 		.4byte	0x13a9
 7628 1390 12       		.uleb128 0x12
 7629 1391 01       		.byte	0x1
 7630 1392 52       		.byte	0x52
 7631 1393 01       		.byte	0x1
 7632 1394 32       		.byte	0x32
 7633 1395 12       		.uleb128 0x12
 7634 1396 01       		.byte	0x1
 7635 1397 51       		.byte	0x51
 7636 1398 02       		.byte	0x2
 7637 1399 76       		.byte	0x76
 7638 139a 00       		.sleb128 0
 7639 139b 12       		.uleb128 0x12
 7640 139c 01       		.byte	0x1
 7641 139d 50       		.byte	0x50
 7642 139e 02       		.byte	0x2
 7643 139f 78       		.byte	0x78
 7644 13a0 00       		.sleb128 0
 7645 13a1 12       		.uleb128 0x12
 7646 13a2 02       		.byte	0x2
 7647 13a3 7D       		.byte	0x7d
 7648 13a4 00       		.sleb128 0
 7649 13a5 02       		.byte	0x2
 7650 13a6 74       		.byte	0x74
 7651 13a7 00       		.sleb128 0
 7652 13a8 00       		.byte	0
 7653 13a9 15       		.uleb128 0x15
 7654 13aa 66000000 		.4byte	.LVL262
 7655 13ae 78080000 		.4byte	0x878
 7656 13b2 CF130000 		.4byte	0x13cf
 7657 13b6 12       		.uleb128 0x12
 7658 13b7 01       		.byte	0x1
 7659 13b8 52       		.byte	0x52
 7660 13b9 01       		.byte	0x1
 7661 13ba 39       		.byte	0x39
 7662 13bb 12       		.uleb128 0x12
 7663 13bc 01       		.byte	0x1
 7664 13bd 51       		.byte	0x51
 7665 13be 02       		.byte	0x2
 7666 13bf 79       		.byte	0x79
 7667 13c0 00       		.sleb128 0
 7668 13c1 12       		.uleb128 0x12
 7669 13c2 01       		.byte	0x1
 7670 13c3 50       		.byte	0x50
 7671 13c4 02       		.byte	0x2
ARM GAS  C:\Users\Computer\AppData\Local\Temp\cc1tHs0g.s 			page 153


 7672 13c5 75       		.byte	0x75
 7673 13c6 00       		.sleb128 0
 7674 13c7 12       		.uleb128 0x12
 7675 13c8 02       		.byte	0x2
 7676 13c9 7D       		.byte	0x7d
 7677 13ca 00       		.sleb128 0
 7678 13cb 02       		.byte	0x2
 7679 13cc 74       		.byte	0x74
 7680 13cd 00       		.sleb128 0
 7681 13ce 00       		.byte	0
 7682 13cf 11       		.uleb128 0x11
 7683 13d0 74000000 		.4byte	.LVL263
 7684 13d4 F8080000 		.4byte	0x8f8
 7685 13d8 12       		.uleb128 0x12
 7686 13d9 01       		.byte	0x1
 7687 13da 52       		.byte	0x52
 7688 13db 01       		.byte	0x1
 7689 13dc 32       		.byte	0x32
 7690 13dd 12       		.uleb128 0x12
 7691 13de 01       		.byte	0x1
 7692 13df 51       		.byte	0x51
 7693 13e0 02       		.byte	0x2
 7694 13e1 77       		.byte	0x77
 7695 13e2 00       		.sleb128 0
 7696 13e3 12       		.uleb128 0x12
 7697 13e4 01       		.byte	0x1
 7698 13e5 50       		.byte	0x50
 7699 13e6 02       		.byte	0x2
 7700 13e7 78       		.byte	0x78
 7701 13e8 00       		.sleb128 0
 7702 13e9 12       		.uleb128 0x12
 7703 13ea 02       		.byte	0x2
 7704 13eb 7D       		.byte	0x7d
 7705 13ec 00       		.sleb128 0
 7706 13ed 02       		.byte	0x2
 7707 13ee 74       		.byte	0x74
 7708 13ef 00       		.sleb128 0
 7709 13f0 00       		.byte	0
 7710 13f1 00       		.byte	0
 7711 13f2 16       		.uleb128 0x16
 7712 13f3 01       		.byte	0x1
 7713 13f4 DC000000 		.4byte	.LASF47
 7714 13f8 01       		.byte	0x1
 7715 13f9 5E01     		.2byte	0x15e
 7716 13fb 01       		.byte	0x1
 7717 13fc 00000000 		.4byte	.LFB52
 7718 1400 42000000 		.4byte	.LFE52
 7719 1404 00130000 		.4byte	.LLST102
 7720 1408 01       		.byte	0x1
 7721 1409 B7140000 		.4byte	0x14b7
 7722 140d 17       		.uleb128 0x17
 7723 140e 783000   		.ascii	"x0\000"
 7724 1411 01       		.byte	0x1
 7725 1412 5E01     		.2byte	0x15e
 7726 1414 90000000 		.4byte	0x90
 7727 1418 2C130000 		.4byte	.LLST103
 7728 141c 17       		.uleb128 0x17
ARM GAS  C:\Users\Computer\AppData\Local\Temp\cc1tHs0g.s 			page 154


 7729 141d 793000   		.ascii	"y0\000"
 7730 1420 01       		.byte	0x1
 7731 1421 5E01     		.2byte	0x15e
 7732 1423 90000000 		.4byte	0x90
 7733 1427 72130000 		.4byte	.LLST104
 7734 142b 18       		.uleb128 0x18
 7735 142c 6300     		.ascii	"c\000"
 7736 142e 01       		.byte	0x1
 7737 142f 5E01     		.2byte	0x15e
 7738 1431 2C010000 		.4byte	0x12c
 7739 1435 02       		.byte	0x2
 7740 1436 91       		.byte	0x91
 7741 1437 64       		.sleb128 -28
 7742 1438 1B       		.uleb128 0x1b
 7743 1439 18010000 		.4byte	.LASF18
 7744 143d 01       		.byte	0x1
 7745 143e 5E01     		.2byte	0x15e
 7746 1440 C4010000 		.4byte	0x1c4
 7747 1444 AB130000 		.4byte	.LLST105
 7748 1448 15       		.uleb128 0x15
 7749 1449 22000000 		.4byte	.LVL274
 7750 144d CA010000 		.4byte	0x1ca
 7751 1451 6E140000 		.4byte	0x146e
 7752 1455 12       		.uleb128 0x12
 7753 1456 01       		.byte	0x1
 7754 1457 53       		.byte	0x53
 7755 1458 02       		.byte	0x2
 7756 1459 74       		.byte	0x74
 7757 145a 00       		.sleb128 0
 7758 145b 12       		.uleb128 0x12
 7759 145c 01       		.byte	0x1
 7760 145d 51       		.byte	0x51
 7761 145e 02       		.byte	0x2
 7762 145f 77       		.byte	0x77
 7763 1460 7F       		.sleb128 -1
 7764 1461 12       		.uleb128 0x12
 7765 1462 01       		.byte	0x1
 7766 1463 50       		.byte	0x50
 7767 1464 08       		.byte	0x8
 7768 1465 F3       		.byte	0xf3
 7769 1466 01       		.uleb128 0x1
 7770 1467 50       		.byte	0x50
 7771 1468 08       		.byte	0x8
 7772 1469 FF       		.byte	0xff
 7773 146a 1A       		.byte	0x1a
 7774 146b 23       		.byte	0x23
 7775 146c 05       		.uleb128 0x5
 7776 146d 00       		.byte	0
 7777 146e 15       		.uleb128 0x15
 7778 146f 30000000 		.4byte	.LVL275
 7779 1473 F8080000 		.4byte	0x8f8
 7780 1477 94140000 		.4byte	0x1494
 7781 147b 12       		.uleb128 0x12
 7782 147c 01       		.byte	0x1
 7783 147d 52       		.byte	0x52
 7784 147e 01       		.byte	0x1
 7785 147f 34       		.byte	0x34
ARM GAS  C:\Users\Computer\AppData\Local\Temp\cc1tHs0g.s 			page 155


 7786 1480 12       		.uleb128 0x12
 7787 1481 01       		.byte	0x1
 7788 1482 51       		.byte	0x51
 7789 1483 02       		.byte	0x2
 7790 1484 77       		.byte	0x77
 7791 1485 00       		.sleb128 0
 7792 1486 12       		.uleb128 0x12
 7793 1487 01       		.byte	0x1
 7794 1488 50       		.byte	0x50
 7795 1489 02       		.byte	0x2
 7796 148a 76       		.byte	0x76
 7797 148b 00       		.sleb128 0
 7798 148c 12       		.uleb128 0x12
 7799 148d 02       		.byte	0x2
 7800 148e 7D       		.byte	0x7d
 7801 148f 00       		.sleb128 0
 7802 1490 02       		.byte	0x2
 7803 1491 74       		.byte	0x74
 7804 1492 00       		.sleb128 0
 7805 1493 00       		.byte	0
 7806 1494 11       		.uleb128 0x11
 7807 1495 3E000000 		.4byte	.LVL276
 7808 1499 78080000 		.4byte	0x878
 7809 149d 12       		.uleb128 0x12
 7810 149e 01       		.byte	0x1
 7811 149f 52       		.byte	0x52
 7812 14a0 01       		.byte	0x1
 7813 14a1 3B       		.byte	0x3b
 7814 14a2 12       		.uleb128 0x12
 7815 14a3 01       		.byte	0x1
 7816 14a4 51       		.byte	0x51
 7817 14a5 02       		.byte	0x2
 7818 14a6 75       		.byte	0x75
 7819 14a7 00       		.sleb128 0
 7820 14a8 12       		.uleb128 0x12
 7821 14a9 01       		.byte	0x1
 7822 14aa 50       		.byte	0x50
 7823 14ab 02       		.byte	0x2
 7824 14ac 76       		.byte	0x76
 7825 14ad 00       		.sleb128 0
 7826 14ae 12       		.uleb128 0x12
 7827 14af 02       		.byte	0x2
 7828 14b0 7D       		.byte	0x7d
 7829 14b1 00       		.sleb128 0
 7830 14b2 02       		.byte	0x2
 7831 14b3 74       		.byte	0x74
 7832 14b4 00       		.sleb128 0
 7833 14b5 00       		.byte	0
 7834 14b6 00       		.byte	0
 7835 14b7 16       		.uleb128 0x16
 7836 14b8 01       		.byte	0x1
 7837 14b9 3A000000 		.4byte	.LASF48
 7838 14bd 01       		.byte	0x1
 7839 14be 6501     		.2byte	0x165
 7840 14c0 01       		.byte	0x1
 7841 14c1 00000000 		.4byte	.LFB53
 7842 14c5 96000000 		.4byte	.LFE53
ARM GAS  C:\Users\Computer\AppData\Local\Temp\cc1tHs0g.s 			page 156


 7843 14c9 D7130000 		.4byte	.LLST106
 7844 14cd 01       		.byte	0x1
 7845 14ce 0E160000 		.4byte	0x160e
 7846 14d2 17       		.uleb128 0x17
 7847 14d3 783000   		.ascii	"x0\000"
 7848 14d6 01       		.byte	0x1
 7849 14d7 6501     		.2byte	0x165
 7850 14d9 90000000 		.4byte	0x90
 7851 14dd 0F140000 		.4byte	.LLST107
 7852 14e1 17       		.uleb128 0x17
 7853 14e2 793000   		.ascii	"y0\000"
 7854 14e5 01       		.byte	0x1
 7855 14e6 6501     		.2byte	0x165
 7856 14e8 90000000 		.4byte	0x90
 7857 14ec 55140000 		.4byte	.LLST108
 7858 14f0 18       		.uleb128 0x18
 7859 14f1 6300     		.ascii	"c\000"
 7860 14f3 01       		.byte	0x1
 7861 14f4 6501     		.2byte	0x165
 7862 14f6 2C010000 		.4byte	0x12c
 7863 14fa 02       		.byte	0x2
 7864 14fb 91       		.byte	0x91
 7865 14fc 64       		.sleb128 -28
 7866 14fd 1B       		.uleb128 0x1b
 7867 14fe 18010000 		.4byte	.LASF18
 7868 1502 01       		.byte	0x1
 7869 1503 6501     		.2byte	0x165
 7870 1505 C4010000 		.4byte	0x1c4
 7871 1509 76140000 		.4byte	.LLST109
 7872 150d 15       		.uleb128 0x15
 7873 150e 24000000 		.4byte	.LVL282
 7874 1512 F8080000 		.4byte	0x8f8
 7875 1516 2D150000 		.4byte	0x152d
 7876 151a 12       		.uleb128 0x12
 7877 151b 01       		.byte	0x1
 7878 151c 52       		.byte	0x52
 7879 151d 01       		.byte	0x1
 7880 151e 32       		.byte	0x32
 7881 151f 12       		.uleb128 0x12
 7882 1520 01       		.byte	0x1
 7883 1521 50       		.byte	0x50
 7884 1522 02       		.byte	0x2
 7885 1523 77       		.byte	0x77
 7886 1524 00       		.sleb128 0
 7887 1525 12       		.uleb128 0x12
 7888 1526 02       		.byte	0x2
 7889 1527 7D       		.byte	0x7d
 7890 1528 00       		.sleb128 0
 7891 1529 02       		.byte	0x2
 7892 152a 74       		.byte	0x74
 7893 152b 00       		.sleb128 0
 7894 152c 00       		.byte	0
 7895 152d 15       		.uleb128 0x15
 7896 152e 34000000 		.4byte	.LVL283
 7897 1532 F8080000 		.4byte	0x8f8
 7898 1536 53150000 		.4byte	0x1553
 7899 153a 12       		.uleb128 0x12
ARM GAS  C:\Users\Computer\AppData\Local\Temp\cc1tHs0g.s 			page 157


 7900 153b 01       		.byte	0x1
 7901 153c 52       		.byte	0x52
 7902 153d 01       		.byte	0x1
 7903 153e 32       		.byte	0x32
 7904 153f 12       		.uleb128 0x12
 7905 1540 01       		.byte	0x1
 7906 1541 51       		.byte	0x51
 7907 1542 02       		.byte	0x2
 7908 1543 75       		.byte	0x75
 7909 1544 06       		.sleb128 6
 7910 1545 12       		.uleb128 0x12
 7911 1546 01       		.byte	0x1
 7912 1547 50       		.byte	0x50
 7913 1548 02       		.byte	0x2
 7914 1549 77       		.byte	0x77
 7915 154a 00       		.sleb128 0
 7916 154b 12       		.uleb128 0x12
 7917 154c 02       		.byte	0x2
 7918 154d 7D       		.byte	0x7d
 7919 154e 00       		.sleb128 0
 7920 154f 02       		.byte	0x2
 7921 1550 74       		.byte	0x74
 7922 1551 00       		.sleb128 0
 7923 1552 00       		.byte	0
 7924 1553 15       		.uleb128 0x15
 7925 1554 46000000 		.4byte	.LVL284
 7926 1558 F8080000 		.4byte	0x8f8
 7927 155c 79150000 		.4byte	0x1579
 7928 1560 12       		.uleb128 0x12
 7929 1561 01       		.byte	0x1
 7930 1562 52       		.byte	0x52
 7931 1563 01       		.byte	0x1
 7932 1564 32       		.byte	0x32
 7933 1565 12       		.uleb128 0x12
 7934 1566 01       		.byte	0x1
 7935 1567 51       		.byte	0x51
 7936 1568 02       		.byte	0x2
 7937 1569 75       		.byte	0x75
 7938 156a 0B       		.sleb128 11
 7939 156b 12       		.uleb128 0x12
 7940 156c 01       		.byte	0x1
 7941 156d 50       		.byte	0x50
 7942 156e 02       		.byte	0x2
 7943 156f 77       		.byte	0x77
 7944 1570 00       		.sleb128 0
 7945 1571 12       		.uleb128 0x12
 7946 1572 02       		.byte	0x2
 7947 1573 7D       		.byte	0x7d
 7948 1574 00       		.sleb128 0
 7949 1575 02       		.byte	0x2
 7950 1576 74       		.byte	0x74
 7951 1577 00       		.sleb128 0
 7952 1578 00       		.byte	0
 7953 1579 15       		.uleb128 0x15
 7954 157a 62000000 		.4byte	.LVL288
 7955 157e 78080000 		.4byte	0x878
 7956 1582 9F150000 		.4byte	0x159f
ARM GAS  C:\Users\Computer\AppData\Local\Temp\cc1tHs0g.s 			page 158


 7957 1586 12       		.uleb128 0x12
 7958 1587 01       		.byte	0x1
 7959 1588 52       		.byte	0x52
 7960 1589 01       		.byte	0x1
 7961 158a 34       		.byte	0x34
 7962 158b 12       		.uleb128 0x12
 7963 158c 01       		.byte	0x1
 7964 158d 51       		.byte	0x51
 7965 158e 02       		.byte	0x2
 7966 158f 78       		.byte	0x78
 7967 1590 00       		.sleb128 0
 7968 1591 12       		.uleb128 0x12
 7969 1592 01       		.byte	0x1
 7970 1593 50       		.byte	0x50
 7971 1594 02       		.byte	0x2
 7972 1595 77       		.byte	0x77
 7973 1596 00       		.sleb128 0
 7974 1597 12       		.uleb128 0x12
 7975 1598 02       		.byte	0x2
 7976 1599 7D       		.byte	0x7d
 7977 159a 00       		.sleb128 0
 7978 159b 02       		.byte	0x2
 7979 159c 74       		.byte	0x74
 7980 159d 00       		.sleb128 0
 7981 159e 00       		.byte	0
 7982 159f 15       		.uleb128 0x15
 7983 15a0 72000000 		.4byte	.LVL289
 7984 15a4 78080000 		.4byte	0x878
 7985 15a8 C5150000 		.4byte	0x15c5
 7986 15ac 12       		.uleb128 0x12
 7987 15ad 01       		.byte	0x1
 7988 15ae 52       		.byte	0x52
 7989 15af 01       		.byte	0x1
 7990 15b0 34       		.byte	0x34
 7991 15b1 12       		.uleb128 0x12
 7992 15b2 01       		.byte	0x1
 7993 15b3 51       		.byte	0x51
 7994 15b4 02       		.byte	0x2
 7995 15b5 78       		.byte	0x78
 7996 15b6 00       		.sleb128 0
 7997 15b7 12       		.uleb128 0x12
 7998 15b8 01       		.byte	0x1
 7999 15b9 50       		.byte	0x50
 8000 15ba 02       		.byte	0x2
 8001 15bb 76       		.byte	0x76
 8002 15bc 00       		.sleb128 0
 8003 15bd 12       		.uleb128 0x12
 8004 15be 02       		.byte	0x2
 8005 15bf 7D       		.byte	0x7d
 8006 15c0 00       		.sleb128 0
 8007 15c1 02       		.byte	0x2
 8008 15c2 74       		.byte	0x74
 8009 15c3 00       		.sleb128 0
 8010 15c4 00       		.byte	0
 8011 15c5 15       		.uleb128 0x15
 8012 15c6 80000000 		.4byte	.LVL290
 8013 15ca 78080000 		.4byte	0x878
ARM GAS  C:\Users\Computer\AppData\Local\Temp\cc1tHs0g.s 			page 159


 8014 15ce EB150000 		.4byte	0x15eb
 8015 15d2 12       		.uleb128 0x12
 8016 15d3 01       		.byte	0x1
 8017 15d4 52       		.byte	0x52
 8018 15d5 01       		.byte	0x1
 8019 15d6 33       		.byte	0x33
 8020 15d7 12       		.uleb128 0x12
 8021 15d8 01       		.byte	0x1
 8022 15d9 51       		.byte	0x51
 8023 15da 02       		.byte	0x2
 8024 15db 75       		.byte	0x75
 8025 15dc 00       		.sleb128 0
 8026 15dd 12       		.uleb128 0x12
 8027 15de 01       		.byte	0x1
 8028 15df 50       		.byte	0x50
 8029 15e0 02       		.byte	0x2
 8030 15e1 77       		.byte	0x77
 8031 15e2 00       		.sleb128 0
 8032 15e3 12       		.uleb128 0x12
 8033 15e4 02       		.byte	0x2
 8034 15e5 7D       		.byte	0x7d
 8035 15e6 00       		.sleb128 0
 8036 15e7 02       		.byte	0x2
 8037 15e8 74       		.byte	0x74
 8038 15e9 00       		.sleb128 0
 8039 15ea 00       		.byte	0
 8040 15eb 11       		.uleb128 0x11
 8041 15ec 8E000000 		.4byte	.LVL291
 8042 15f0 78080000 		.4byte	0x878
 8043 15f4 12       		.uleb128 0x12
 8044 15f5 01       		.byte	0x1
 8045 15f6 52       		.byte	0x52
 8046 15f7 01       		.byte	0x1
 8047 15f8 33       		.byte	0x33
 8048 15f9 12       		.uleb128 0x12
 8049 15fa 01       		.byte	0x1
 8050 15fb 51       		.byte	0x51
 8051 15fc 02       		.byte	0x2
 8052 15fd 75       		.byte	0x75
 8053 15fe 00       		.sleb128 0
 8054 15ff 12       		.uleb128 0x12
 8055 1600 01       		.byte	0x1
 8056 1601 50       		.byte	0x50
 8057 1602 02       		.byte	0x2
 8058 1603 76       		.byte	0x76
 8059 1604 00       		.sleb128 0
 8060 1605 12       		.uleb128 0x12
 8061 1606 02       		.byte	0x2
 8062 1607 7D       		.byte	0x7d
 8063 1608 00       		.sleb128 0
 8064 1609 02       		.byte	0x2
 8065 160a 74       		.byte	0x74
 8066 160b 00       		.sleb128 0
 8067 160c 00       		.byte	0
 8068 160d 00       		.byte	0
 8069 160e 16       		.uleb128 0x16
 8070 160f 01       		.byte	0x1
ARM GAS  C:\Users\Computer\AppData\Local\Temp\cc1tHs0g.s 			page 160


 8071 1610 19000000 		.4byte	.LASF49
 8072 1614 01       		.byte	0x1
 8073 1615 7001     		.2byte	0x170
 8074 1617 01       		.byte	0x1
 8075 1618 00000000 		.4byte	.LFB54
 8076 161c 64000000 		.4byte	.LFE54
 8077 1620 A2140000 		.4byte	.LLST110
 8078 1624 01       		.byte	0x1
 8079 1625 F9160000 		.4byte	0x16f9
 8080 1629 17       		.uleb128 0x17
 8081 162a 783000   		.ascii	"x0\000"
 8082 162d 01       		.byte	0x1
 8083 162e 7001     		.2byte	0x170
 8084 1630 90000000 		.4byte	0x90
 8085 1634 DA140000 		.4byte	.LLST111
 8086 1638 17       		.uleb128 0x17
 8087 1639 793000   		.ascii	"y0\000"
 8088 163c 01       		.byte	0x1
 8089 163d 7001     		.2byte	0x170
 8090 163f 90000000 		.4byte	0x90
 8091 1643 13150000 		.4byte	.LLST112
 8092 1647 18       		.uleb128 0x18
 8093 1648 6300     		.ascii	"c\000"
 8094 164a 01       		.byte	0x1
 8095 164b 7001     		.2byte	0x170
 8096 164d 2C010000 		.4byte	0x12c
 8097 1651 02       		.byte	0x2
 8098 1652 91       		.byte	0x91
 8099 1653 64       		.sleb128 -28
 8100 1654 1B       		.uleb128 0x1b
 8101 1655 18010000 		.4byte	.LASF18
 8102 1659 01       		.byte	0x1
 8103 165a 7001     		.2byte	0x170
 8104 165c C4010000 		.4byte	0x1c4
 8105 1660 4C150000 		.4byte	.LLST113
 8106 1664 15       		.uleb128 0x15
 8107 1665 2A000000 		.4byte	.LVL297
 8108 1669 F8080000 		.4byte	0x8f8
 8109 166d 8A160000 		.4byte	0x168a
 8110 1671 12       		.uleb128 0x12
 8111 1672 01       		.byte	0x1
 8112 1673 52       		.byte	0x52
 8113 1674 01       		.byte	0x1
 8114 1675 32       		.byte	0x32
 8115 1676 12       		.uleb128 0x12
 8116 1677 01       		.byte	0x1
 8117 1678 51       		.byte	0x51
 8118 1679 02       		.byte	0x2
 8119 167a 76       		.byte	0x76
 8120 167b 0B       		.sleb128 11
 8121 167c 12       		.uleb128 0x12
 8122 167d 01       		.byte	0x1
 8123 167e 50       		.byte	0x50
 8124 167f 02       		.byte	0x2
 8125 1680 78       		.byte	0x78
 8126 1681 00       		.sleb128 0
 8127 1682 12       		.uleb128 0x12
ARM GAS  C:\Users\Computer\AppData\Local\Temp\cc1tHs0g.s 			page 161


 8128 1683 02       		.byte	0x2
 8129 1684 7D       		.byte	0x7d
 8130 1685 00       		.sleb128 0
 8131 1686 02       		.byte	0x2
 8132 1687 74       		.byte	0x74
 8133 1688 00       		.sleb128 0
 8134 1689 00       		.byte	0
 8135 168a 15       		.uleb128 0x15
 8136 168b 3A000000 		.4byte	.LVL298
 8137 168f F8080000 		.4byte	0x8f8
 8138 1693 B0160000 		.4byte	0x16b0
 8139 1697 12       		.uleb128 0x12
 8140 1698 01       		.byte	0x1
 8141 1699 52       		.byte	0x52
 8142 169a 01       		.byte	0x1
 8143 169b 32       		.byte	0x32
 8144 169c 12       		.uleb128 0x12
 8145 169d 01       		.byte	0x1
 8146 169e 51       		.byte	0x51
 8147 169f 02       		.byte	0x2
 8148 16a0 76       		.byte	0x76
 8149 16a1 06       		.sleb128 6
 8150 16a2 12       		.uleb128 0x12
 8151 16a3 01       		.byte	0x1
 8152 16a4 50       		.byte	0x50
 8153 16a5 02       		.byte	0x2
 8154 16a6 78       		.byte	0x78
 8155 16a7 00       		.sleb128 0
 8156 16a8 12       		.uleb128 0x12
 8157 16a9 02       		.byte	0x2
 8158 16aa 7D       		.byte	0x7d
 8159 16ab 00       		.sleb128 0
 8160 16ac 02       		.byte	0x2
 8161 16ad 74       		.byte	0x74
 8162 16ae 00       		.sleb128 0
 8163 16af 00       		.byte	0
 8164 16b0 15       		.uleb128 0x15
 8165 16b1 4E000000 		.4byte	.LVL301
 8166 16b5 78080000 		.4byte	0x878
 8167 16b9 D6160000 		.4byte	0x16d6
 8168 16bd 12       		.uleb128 0x12
 8169 16be 01       		.byte	0x1
 8170 16bf 52       		.byte	0x52
 8171 16c0 01       		.byte	0x1
 8172 16c1 33       		.byte	0x33
 8173 16c2 12       		.uleb128 0x12
 8174 16c3 01       		.byte	0x1
 8175 16c4 51       		.byte	0x51
 8176 16c5 02       		.byte	0x2
 8177 16c6 76       		.byte	0x76
 8178 16c7 00       		.sleb128 0
 8179 16c8 12       		.uleb128 0x12
 8180 16c9 01       		.byte	0x1
 8181 16ca 50       		.byte	0x50
 8182 16cb 02       		.byte	0x2
 8183 16cc 75       		.byte	0x75
 8184 16cd 04       		.sleb128 4
ARM GAS  C:\Users\Computer\AppData\Local\Temp\cc1tHs0g.s 			page 162


 8185 16ce 12       		.uleb128 0x12
 8186 16cf 02       		.byte	0x2
 8187 16d0 7D       		.byte	0x7d
 8188 16d1 00       		.sleb128 0
 8189 16d2 02       		.byte	0x2
 8190 16d3 74       		.byte	0x74
 8191 16d4 00       		.sleb128 0
 8192 16d5 00       		.byte	0
 8193 16d6 11       		.uleb128 0x11
 8194 16d7 5C000000 		.4byte	.LVL302
 8195 16db 78080000 		.4byte	0x878
 8196 16df 12       		.uleb128 0x12
 8197 16e0 01       		.byte	0x1
 8198 16e1 52       		.byte	0x52
 8199 16e2 01       		.byte	0x1
 8200 16e3 3A       		.byte	0x3a
 8201 16e4 12       		.uleb128 0x12
 8202 16e5 01       		.byte	0x1
 8203 16e6 51       		.byte	0x51
 8204 16e7 02       		.byte	0x2
 8205 16e8 77       		.byte	0x77
 8206 16e9 00       		.sleb128 0
 8207 16ea 12       		.uleb128 0x12
 8208 16eb 01       		.byte	0x1
 8209 16ec 50       		.byte	0x50
 8210 16ed 02       		.byte	0x2
 8211 16ee 75       		.byte	0x75
 8212 16ef 00       		.sleb128 0
 8213 16f0 12       		.uleb128 0x12
 8214 16f1 02       		.byte	0x2
 8215 16f2 7D       		.byte	0x7d
 8216 16f3 00       		.sleb128 0
 8217 16f4 02       		.byte	0x2
 8218 16f5 74       		.byte	0x74
 8219 16f6 00       		.sleb128 0
 8220 16f7 00       		.byte	0
 8221 16f8 00       		.byte	0
 8222 16f9 16       		.uleb128 0x16
 8223 16fa 01       		.byte	0x1
 8224 16fb 24030000 		.4byte	.LASF50
 8225 16ff 01       		.byte	0x1
 8226 1700 7801     		.2byte	0x178
 8227 1702 01       		.byte	0x1
 8228 1703 00000000 		.4byte	.LFB55
 8229 1707 62000000 		.4byte	.LFE55
 8230 170b 78150000 		.4byte	.LLST114
 8231 170f 01       		.byte	0x1
 8232 1710 D8170000 		.4byte	0x17d8
 8233 1714 17       		.uleb128 0x17
 8234 1715 783000   		.ascii	"x0\000"
 8235 1718 01       		.byte	0x1
 8236 1719 7801     		.2byte	0x178
 8237 171b 90000000 		.4byte	0x90
 8238 171f B0150000 		.4byte	.LLST115
 8239 1723 17       		.uleb128 0x17
 8240 1724 793000   		.ascii	"y0\000"
 8241 1727 01       		.byte	0x1
ARM GAS  C:\Users\Computer\AppData\Local\Temp\cc1tHs0g.s 			page 163


 8242 1728 7801     		.2byte	0x178
 8243 172a 90000000 		.4byte	0x90
 8244 172e E9150000 		.4byte	.LLST116
 8245 1732 18       		.uleb128 0x18
 8246 1733 6300     		.ascii	"c\000"
 8247 1735 01       		.byte	0x1
 8248 1736 7801     		.2byte	0x178
 8249 1738 2C010000 		.4byte	0x12c
 8250 173c 02       		.byte	0x2
 8251 173d 91       		.byte	0x91
 8252 173e 64       		.sleb128 -28
 8253 173f 1B       		.uleb128 0x1b
 8254 1740 18010000 		.4byte	.LASF18
 8255 1744 01       		.byte	0x1
 8256 1745 7801     		.2byte	0x178
 8257 1747 C4010000 		.4byte	0x1c4
 8258 174b 0A160000 		.4byte	.LLST117
 8259 174f 15       		.uleb128 0x15
 8260 1750 26000000 		.4byte	.LVL309
 8261 1754 F8080000 		.4byte	0x8f8
 8262 1758 6F170000 		.4byte	0x176f
 8263 175c 12       		.uleb128 0x12
 8264 175d 01       		.byte	0x1
 8265 175e 52       		.byte	0x52
 8266 175f 01       		.byte	0x1
 8267 1760 32       		.byte	0x32
 8268 1761 12       		.uleb128 0x12
 8269 1762 01       		.byte	0x1
 8270 1763 50       		.byte	0x50
 8271 1764 02       		.byte	0x2
 8272 1765 78       		.byte	0x78
 8273 1766 00       		.sleb128 0
 8274 1767 12       		.uleb128 0x12
 8275 1768 02       		.byte	0x2
 8276 1769 7D       		.byte	0x7d
 8277 176a 00       		.sleb128 0
 8278 176b 02       		.byte	0x2
 8279 176c 74       		.byte	0x74
 8280 176d 00       		.sleb128 0
 8281 176e 00       		.byte	0
 8282 176f 15       		.uleb128 0x15
 8283 1770 3C000000 		.4byte	.LVL310
 8284 1774 F8080000 		.4byte	0x8f8
 8285 1778 8F170000 		.4byte	0x178f
 8286 177c 12       		.uleb128 0x12
 8287 177d 01       		.byte	0x1
 8288 177e 52       		.byte	0x52
 8289 177f 01       		.byte	0x1
 8290 1780 32       		.byte	0x32
 8291 1781 12       		.uleb128 0x12
 8292 1782 01       		.byte	0x1
 8293 1783 50       		.byte	0x50
 8294 1784 02       		.byte	0x2
 8295 1785 78       		.byte	0x78
 8296 1786 00       		.sleb128 0
 8297 1787 12       		.uleb128 0x12
 8298 1788 02       		.byte	0x2
ARM GAS  C:\Users\Computer\AppData\Local\Temp\cc1tHs0g.s 			page 164


 8299 1789 7D       		.byte	0x7d
 8300 178a 00       		.sleb128 0
 8301 178b 02       		.byte	0x2
 8302 178c 74       		.byte	0x74
 8303 178d 00       		.sleb128 0
 8304 178e 00       		.byte	0
 8305 178f 15       		.uleb128 0x15
 8306 1790 4C000000 		.4byte	.LVL312
 8307 1794 78080000 		.4byte	0x878
 8308 1798 B5170000 		.4byte	0x17b5
 8309 179c 12       		.uleb128 0x12
 8310 179d 01       		.byte	0x1
 8311 179e 52       		.byte	0x52
 8312 179f 01       		.byte	0x1
 8313 17a0 39       		.byte	0x39
 8314 17a1 12       		.uleb128 0x12
 8315 17a2 01       		.byte	0x1
 8316 17a3 51       		.byte	0x51
 8317 17a4 02       		.byte	0x2
 8318 17a5 75       		.byte	0x75
 8319 17a6 00       		.sleb128 0
 8320 17a7 12       		.uleb128 0x12
 8321 17a8 01       		.byte	0x1
 8322 17a9 50       		.byte	0x50
 8323 17aa 02       		.byte	0x2
 8324 17ab 77       		.byte	0x77
 8325 17ac 00       		.sleb128 0
 8326 17ad 12       		.uleb128 0x12
 8327 17ae 02       		.byte	0x2
 8328 17af 7D       		.byte	0x7d
 8329 17b0 00       		.sleb128 0
 8330 17b1 02       		.byte	0x2
 8331 17b2 74       		.byte	0x74
 8332 17b3 00       		.sleb128 0
 8333 17b4 00       		.byte	0
 8334 17b5 11       		.uleb128 0x11
 8335 17b6 5A000000 		.4byte	.LVL313
 8336 17ba 78080000 		.4byte	0x878
 8337 17be 12       		.uleb128 0x12
 8338 17bf 01       		.byte	0x1
 8339 17c0 52       		.byte	0x52
 8340 17c1 01       		.byte	0x1
 8341 17c2 39       		.byte	0x39
 8342 17c3 12       		.uleb128 0x12
 8343 17c4 01       		.byte	0x1
 8344 17c5 51       		.byte	0x51
 8345 17c6 02       		.byte	0x2
 8346 17c7 75       		.byte	0x75
 8347 17c8 00       		.sleb128 0
 8348 17c9 12       		.uleb128 0x12
 8349 17ca 01       		.byte	0x1
 8350 17cb 50       		.byte	0x50
 8351 17cc 02       		.byte	0x2
 8352 17cd 76       		.byte	0x76
 8353 17ce 00       		.sleb128 0
 8354 17cf 12       		.uleb128 0x12
 8355 17d0 02       		.byte	0x2
ARM GAS  C:\Users\Computer\AppData\Local\Temp\cc1tHs0g.s 			page 165


 8356 17d1 7D       		.byte	0x7d
 8357 17d2 00       		.sleb128 0
 8358 17d3 02       		.byte	0x2
 8359 17d4 74       		.byte	0x74
 8360 17d5 00       		.sleb128 0
 8361 17d6 00       		.byte	0
 8362 17d7 00       		.byte	0
 8363 17d8 16       		.uleb128 0x16
 8364 17d9 01       		.byte	0x1
 8365 17da 98020000 		.4byte	.LASF51
 8366 17de 01       		.byte	0x1
 8367 17df 8001     		.2byte	0x180
 8368 17e1 01       		.byte	0x1
 8369 17e2 00000000 		.4byte	.LFB56
 8370 17e6 AE000000 		.4byte	.LFE56
 8371 17ea 36160000 		.4byte	.LLST118
 8372 17ee 01       		.byte	0x1
 8373 17ef F1180000 		.4byte	0x18f1
 8374 17f3 17       		.uleb128 0x17
 8375 17f4 783000   		.ascii	"x0\000"
 8376 17f7 01       		.byte	0x1
 8377 17f8 8001     		.2byte	0x180
 8378 17fa 90000000 		.4byte	0x90
 8379 17fe 6E160000 		.4byte	.LLST119
 8380 1802 17       		.uleb128 0x17
 8381 1803 793000   		.ascii	"y0\000"
 8382 1806 01       		.byte	0x1
 8383 1807 8001     		.2byte	0x180
 8384 1809 90000000 		.4byte	0x90
 8385 180d 8F160000 		.4byte	.LLST120
 8386 1811 18       		.uleb128 0x18
 8387 1812 6300     		.ascii	"c\000"
 8388 1814 01       		.byte	0x1
 8389 1815 8001     		.2byte	0x180
 8390 1817 2C010000 		.4byte	0x12c
 8391 181b 02       		.byte	0x2
 8392 181c 91       		.byte	0x91
 8393 181d 54       		.sleb128 -44
 8394 181e 1B       		.uleb128 0x1b
 8395 181f 18010000 		.4byte	.LASF18
 8396 1823 01       		.byte	0x1
 8397 1824 8001     		.2byte	0x180
 8398 1826 C4010000 		.4byte	0x1c4
 8399 182a BB160000 		.4byte	.LLST121
 8400 182e 15       		.uleb128 0x15
 8401 182f 4C000000 		.4byte	.LVL319
 8402 1833 C8060000 		.4byte	0x6c8
 8403 1837 55180000 		.4byte	0x1855
 8404 183b 12       		.uleb128 0x12
 8405 183c 01       		.byte	0x1
 8406 183d 53       		.byte	0x53
 8407 183e 02       		.byte	0x2
 8408 183f 75       		.byte	0x75
 8409 1840 00       		.sleb128 0
 8410 1841 12       		.uleb128 0x12
 8411 1842 01       		.byte	0x1
 8412 1843 52       		.byte	0x52
ARM GAS  C:\Users\Computer\AppData\Local\Temp\cc1tHs0g.s 			page 166


 8413 1844 02       		.byte	0x2
 8414 1845 7A       		.byte	0x7a
 8415 1846 00       		.sleb128 0
 8416 1847 12       		.uleb128 0x12
 8417 1848 01       		.byte	0x1
 8418 1849 50       		.byte	0x50
 8419 184a 02       		.byte	0x2
 8420 184b 79       		.byte	0x79
 8421 184c 02       		.sleb128 2
 8422 184d 12       		.uleb128 0x12
 8423 184e 02       		.byte	0x2
 8424 184f 7D       		.byte	0x7d
 8425 1850 04       		.sleb128 4
 8426 1851 02       		.byte	0x2
 8427 1852 74       		.byte	0x74
 8428 1853 00       		.sleb128 0
 8429 1854 00       		.byte	0
 8430 1855 15       		.uleb128 0x15
 8431 1856 72000000 		.4byte	.LVL320
 8432 185a C8060000 		.4byte	0x6c8
 8433 185e 82180000 		.4byte	0x1882
 8434 1862 12       		.uleb128 0x12
 8435 1863 01       		.byte	0x1
 8436 1864 53       		.byte	0x53
 8437 1865 02       		.byte	0x2
 8438 1866 78       		.byte	0x78
 8439 1867 01       		.sleb128 1
 8440 1868 12       		.uleb128 0x12
 8441 1869 01       		.byte	0x1
 8442 186a 52       		.byte	0x52
 8443 186b 02       		.byte	0x2
 8444 186c 7B       		.byte	0x7b
 8445 186d 00       		.sleb128 0
 8446 186e 12       		.uleb128 0x12
 8447 186f 01       		.byte	0x1
 8448 1870 51       		.byte	0x51
 8449 1871 02       		.byte	0x2
 8450 1872 75       		.byte	0x75
 8451 1873 00       		.sleb128 0
 8452 1874 12       		.uleb128 0x12
 8453 1875 01       		.byte	0x1
 8454 1876 50       		.byte	0x50
 8455 1877 02       		.byte	0x2
 8456 1878 76       		.byte	0x76
 8457 1879 00       		.sleb128 0
 8458 187a 12       		.uleb128 0x12
 8459 187b 02       		.byte	0x2
 8460 187c 7D       		.byte	0x7d
 8461 187d 04       		.sleb128 4
 8462 187e 02       		.byte	0x2
 8463 187f 74       		.byte	0x74
 8464 1880 00       		.sleb128 0
 8465 1881 00       		.byte	0
 8466 1882 15       		.uleb128 0x15
 8467 1883 84000000 		.4byte	.LVL321
 8468 1887 F8080000 		.4byte	0x8f8
 8469 188b A8180000 		.4byte	0x18a8
ARM GAS  C:\Users\Computer\AppData\Local\Temp\cc1tHs0g.s 			page 167


 8470 188f 12       		.uleb128 0x12
 8471 1890 01       		.byte	0x1
 8472 1891 52       		.byte	0x52
 8473 1892 01       		.byte	0x1
 8474 1893 32       		.byte	0x32
 8475 1894 12       		.uleb128 0x12
 8476 1895 01       		.byte	0x1
 8477 1896 51       		.byte	0x51
 8478 1897 02       		.byte	0x2
 8479 1898 78       		.byte	0x78
 8480 1899 07       		.sleb128 7
 8481 189a 12       		.uleb128 0x12
 8482 189b 01       		.byte	0x1
 8483 189c 50       		.byte	0x50
 8484 189d 02       		.byte	0x2
 8485 189e 7B       		.byte	0x7b
 8486 189f 00       		.sleb128 0
 8487 18a0 12       		.uleb128 0x12
 8488 18a1 02       		.byte	0x2
 8489 18a2 7D       		.byte	0x7d
 8490 18a3 00       		.sleb128 0
 8491 18a4 02       		.byte	0x2
 8492 18a5 74       		.byte	0x74
 8493 18a6 00       		.sleb128 0
 8494 18a7 00       		.byte	0
 8495 18a8 15       		.uleb128 0x15
 8496 18a9 92000000 		.4byte	.LVL322
 8497 18ad 78080000 		.4byte	0x878
 8498 18b1 CE180000 		.4byte	0x18ce
 8499 18b5 12       		.uleb128 0x12
 8500 18b6 01       		.byte	0x1
 8501 18b7 52       		.byte	0x52
 8502 18b8 01       		.byte	0x1
 8503 18b9 39       		.byte	0x39
 8504 18ba 12       		.uleb128 0x12
 8505 18bb 01       		.byte	0x1
 8506 18bc 51       		.byte	0x51
 8507 18bd 02       		.byte	0x2
 8508 18be 75       		.byte	0x75
 8509 18bf 00       		.sleb128 0
 8510 18c0 12       		.uleb128 0x12
 8511 18c1 01       		.byte	0x1
 8512 18c2 50       		.byte	0x50
 8513 18c3 02       		.byte	0x2
 8514 18c4 7A       		.byte	0x7a
 8515 18c5 00       		.sleb128 0
 8516 18c6 12       		.uleb128 0x12
 8517 18c7 02       		.byte	0x2
 8518 18c8 7D       		.byte	0x7d
 8519 18c9 00       		.sleb128 0
 8520 18ca 02       		.byte	0x2
 8521 18cb 74       		.byte	0x74
 8522 18cc 00       		.sleb128 0
 8523 18cd 00       		.byte	0
 8524 18ce 11       		.uleb128 0x11
 8525 18cf A0000000 		.4byte	.LVL323
 8526 18d3 78080000 		.4byte	0x878
ARM GAS  C:\Users\Computer\AppData\Local\Temp\cc1tHs0g.s 			page 168


 8527 18d7 12       		.uleb128 0x12
 8528 18d8 01       		.byte	0x1
 8529 18d9 52       		.byte	0x52
 8530 18da 01       		.byte	0x1
 8531 18db 39       		.byte	0x39
 8532 18dc 12       		.uleb128 0x12
 8533 18dd 01       		.byte	0x1
 8534 18de 51       		.byte	0x51
 8535 18df 02       		.byte	0x2
 8536 18e0 75       		.byte	0x75
 8537 18e1 00       		.sleb128 0
 8538 18e2 12       		.uleb128 0x12
 8539 18e3 01       		.byte	0x1
 8540 18e4 50       		.byte	0x50
 8541 18e5 02       		.byte	0x2
 8542 18e6 76       		.byte	0x76
 8543 18e7 00       		.sleb128 0
 8544 18e8 12       		.uleb128 0x12
 8545 18e9 02       		.byte	0x2
 8546 18ea 7D       		.byte	0x7d
 8547 18eb 00       		.sleb128 0
 8548 18ec 02       		.byte	0x2
 8549 18ed 74       		.byte	0x74
 8550 18ee 00       		.sleb128 0
 8551 18ef 00       		.byte	0
 8552 18f0 00       		.byte	0
 8553 18f1 16       		.uleb128 0x16
 8554 18f2 01       		.byte	0x1
 8555 18f3 00000000 		.4byte	.LASF52
 8556 18f7 01       		.byte	0x1
 8557 18f8 8901     		.2byte	0x189
 8558 18fa 01       		.byte	0x1
 8559 18fb 00000000 		.4byte	.LFB57
 8560 18ff 8E000000 		.4byte	.LFE57
 8561 1903 E7160000 		.4byte	.LLST122
 8562 1907 01       		.byte	0x1
 8563 1908 281A0000 		.4byte	0x1a28
 8564 190c 17       		.uleb128 0x17
 8565 190d 783000   		.ascii	"x0\000"
 8566 1910 01       		.byte	0x1
 8567 1911 8901     		.2byte	0x189
 8568 1913 90000000 		.4byte	0x90
 8569 1917 1F170000 		.4byte	.LLST123
 8570 191b 17       		.uleb128 0x17
 8571 191c 793000   		.ascii	"y0\000"
 8572 191f 01       		.byte	0x1
 8573 1920 8901     		.2byte	0x189
 8574 1922 90000000 		.4byte	0x90
 8575 1926 4B170000 		.4byte	.LLST124
 8576 192a 18       		.uleb128 0x18
 8577 192b 6300     		.ascii	"c\000"
 8578 192d 01       		.byte	0x1
 8579 192e 8901     		.2byte	0x189
 8580 1930 2C010000 		.4byte	0x12c
 8581 1934 02       		.byte	0x2
 8582 1935 91       		.byte	0x91
 8583 1936 5C       		.sleb128 -36
ARM GAS  C:\Users\Computer\AppData\Local\Temp\cc1tHs0g.s 			page 169


 8584 1937 1B       		.uleb128 0x1b
 8585 1938 18010000 		.4byte	.LASF18
 8586 193c 01       		.byte	0x1
 8587 193d 8901     		.2byte	0x189
 8588 193f C4010000 		.4byte	0x1c4
 8589 1943 84170000 		.4byte	.LLST125
 8590 1947 15       		.uleb128 0x15
 8591 1948 30000000 		.4byte	.LVL330
 8592 194c F8080000 		.4byte	0x8f8
 8593 1950 6D190000 		.4byte	0x196d
 8594 1954 12       		.uleb128 0x12
 8595 1955 01       		.byte	0x1
 8596 1956 52       		.byte	0x52
 8597 1957 01       		.byte	0x1
 8598 1958 33       		.byte	0x33
 8599 1959 12       		.uleb128 0x12
 8600 195a 01       		.byte	0x1
 8601 195b 51       		.byte	0x51
 8602 195c 02       		.byte	0x2
 8603 195d 75       		.byte	0x75
 8604 195e 05       		.sleb128 5
 8605 195f 12       		.uleb128 0x12
 8606 1960 01       		.byte	0x1
 8607 1961 50       		.byte	0x50
 8608 1962 02       		.byte	0x2
 8609 1963 76       		.byte	0x76
 8610 1964 00       		.sleb128 0
 8611 1965 12       		.uleb128 0x12
 8612 1966 02       		.byte	0x2
 8613 1967 7D       		.byte	0x7d
 8614 1968 00       		.sleb128 0
 8615 1969 02       		.byte	0x2
 8616 196a 74       		.byte	0x74
 8617 196b 00       		.sleb128 0
 8618 196c 00       		.byte	0
 8619 196d 15       		.uleb128 0x15
 8620 196e 3E000000 		.4byte	.LVL331
 8621 1972 78080000 		.4byte	0x878
 8622 1976 93190000 		.4byte	0x1993
 8623 197a 12       		.uleb128 0x12
 8624 197b 01       		.byte	0x1
 8625 197c 52       		.byte	0x52
 8626 197d 01       		.byte	0x1
 8627 197e 3C       		.byte	0x3c
 8628 197f 12       		.uleb128 0x12
 8629 1980 01       		.byte	0x1
 8630 1981 51       		.byte	0x51
 8631 1982 02       		.byte	0x2
 8632 1983 77       		.byte	0x77
 8633 1984 00       		.sleb128 0
 8634 1985 12       		.uleb128 0x12
 8635 1986 01       		.byte	0x1
 8636 1987 50       		.byte	0x50
 8637 1988 02       		.byte	0x2
 8638 1989 79       		.byte	0x79
 8639 198a 00       		.sleb128 0
 8640 198b 12       		.uleb128 0x12
ARM GAS  C:\Users\Computer\AppData\Local\Temp\cc1tHs0g.s 			page 170


 8641 198c 02       		.byte	0x2
 8642 198d 7D       		.byte	0x7d
 8643 198e 00       		.sleb128 0
 8644 198f 02       		.byte	0x2
 8645 1990 74       		.byte	0x74
 8646 1991 00       		.sleb128 0
 8647 1992 00       		.byte	0
 8648 1993 15       		.uleb128 0x15
 8649 1994 56000000 		.4byte	.LVL332
 8650 1998 78080000 		.4byte	0x878
 8651 199c B9190000 		.4byte	0x19b9
 8652 19a0 12       		.uleb128 0x12
 8653 19a1 01       		.byte	0x1
 8654 19a2 52       		.byte	0x52
 8655 19a3 01       		.byte	0x1
 8656 19a4 34       		.byte	0x34
 8657 19a5 12       		.uleb128 0x12
 8658 19a6 01       		.byte	0x1
 8659 19a7 51       		.byte	0x51
 8660 19a8 02       		.byte	0x2
 8661 19a9 75       		.byte	0x75
 8662 19aa 01       		.sleb128 1
 8663 19ab 12       		.uleb128 0x12
 8664 19ac 01       		.byte	0x1
 8665 19ad 50       		.byte	0x50
 8666 19ae 02       		.byte	0x2
 8667 19af 79       		.byte	0x79
 8668 19b0 00       		.sleb128 0
 8669 19b1 12       		.uleb128 0x12
 8670 19b2 02       		.byte	0x2
 8671 19b3 7D       		.byte	0x7d
 8672 19b4 00       		.sleb128 0
 8673 19b5 02       		.byte	0x2
 8674 19b6 74       		.byte	0x74
 8675 19b7 00       		.sleb128 0
 8676 19b8 00       		.byte	0
 8677 19b9 15       		.uleb128 0x15
 8678 19ba 66000000 		.4byte	.LVL333
 8679 19be 78080000 		.4byte	0x878
 8680 19c2 DF190000 		.4byte	0x19df
 8681 19c6 12       		.uleb128 0x12
 8682 19c7 01       		.byte	0x1
 8683 19c8 52       		.byte	0x52
 8684 19c9 01       		.byte	0x1
 8685 19ca 35       		.byte	0x35
 8686 19cb 12       		.uleb128 0x12
 8687 19cc 01       		.byte	0x1
 8688 19cd 51       		.byte	0x51
 8689 19ce 02       		.byte	0x2
 8690 19cf 75       		.byte	0x75
 8691 19d0 06       		.sleb128 6
 8692 19d1 12       		.uleb128 0x12
 8693 19d2 01       		.byte	0x1
 8694 19d3 50       		.byte	0x50
 8695 19d4 02       		.byte	0x2
 8696 19d5 79       		.byte	0x79
 8697 19d6 00       		.sleb128 0
ARM GAS  C:\Users\Computer\AppData\Local\Temp\cc1tHs0g.s 			page 171


 8698 19d7 12       		.uleb128 0x12
 8699 19d8 02       		.byte	0x2
 8700 19d9 7D       		.byte	0x7d
 8701 19da 00       		.sleb128 0
 8702 19db 02       		.byte	0x2
 8703 19dc 74       		.byte	0x74
 8704 19dd 00       		.sleb128 0
 8705 19de 00       		.byte	0
 8706 19df 15       		.uleb128 0x15
 8707 19e0 76000000 		.4byte	.LVL335
 8708 19e4 F8080000 		.4byte	0x8f8
 8709 19e8 051A0000 		.4byte	0x1a05
 8710 19ec 12       		.uleb128 0x12
 8711 19ed 01       		.byte	0x1
 8712 19ee 52       		.byte	0x52
 8713 19ef 01       		.byte	0x1
 8714 19f0 33       		.byte	0x33
 8715 19f1 12       		.uleb128 0x12
 8716 19f2 01       		.byte	0x1
 8717 19f3 51       		.byte	0x51
 8718 19f4 02       		.byte	0x2
 8719 19f5 77       		.byte	0x77
 8720 19f6 00       		.sleb128 0
 8721 19f7 12       		.uleb128 0x12
 8722 19f8 01       		.byte	0x1
 8723 19f9 50       		.byte	0x50
 8724 19fa 02       		.byte	0x2
 8725 19fb 76       		.byte	0x76
 8726 19fc 00       		.sleb128 0
 8727 19fd 12       		.uleb128 0x12
 8728 19fe 02       		.byte	0x2
 8729 19ff 7D       		.byte	0x7d
 8730 1a00 00       		.sleb128 0
 8731 1a01 02       		.byte	0x2
 8732 1a02 74       		.byte	0x74
 8733 1a03 00       		.sleb128 0
 8734 1a04 00       		.byte	0
 8735 1a05 11       		.uleb128 0x11
 8736 1a06 84000000 		.4byte	.LVL336
 8737 1a0a F8080000 		.4byte	0x8f8
 8738 1a0e 12       		.uleb128 0x12
 8739 1a0f 01       		.byte	0x1
 8740 1a10 52       		.byte	0x52
 8741 1a11 01       		.byte	0x1
 8742 1a12 33       		.byte	0x33
 8743 1a13 12       		.uleb128 0x12
 8744 1a14 01       		.byte	0x1
 8745 1a15 51       		.byte	0x51
 8746 1a16 02       		.byte	0x2
 8747 1a17 75       		.byte	0x75
 8748 1a18 00       		.sleb128 0
 8749 1a19 12       		.uleb128 0x12
 8750 1a1a 01       		.byte	0x1
 8751 1a1b 50       		.byte	0x50
 8752 1a1c 02       		.byte	0x2
 8753 1a1d 76       		.byte	0x76
 8754 1a1e 00       		.sleb128 0
ARM GAS  C:\Users\Computer\AppData\Local\Temp\cc1tHs0g.s 			page 172


 8755 1a1f 12       		.uleb128 0x12
 8756 1a20 02       		.byte	0x2
 8757 1a21 7D       		.byte	0x7d
 8758 1a22 00       		.sleb128 0
 8759 1a23 02       		.byte	0x2
 8760 1a24 74       		.byte	0x74
 8761 1a25 00       		.sleb128 0
 8762 1a26 00       		.byte	0
 8763 1a27 00       		.byte	0
 8764 1a28 16       		.uleb128 0x16
 8765 1a29 01       		.byte	0x1
 8766 1a2a 06000000 		.4byte	.LASF53
 8767 1a2e 01       		.byte	0x1
 8768 1a2f 9301     		.2byte	0x193
 8769 1a31 01       		.byte	0x1
 8770 1a32 00000000 		.4byte	.LFB58
 8771 1a36 70000000 		.4byte	.LFE58
 8772 1a3a B0170000 		.4byte	.LLST126
 8773 1a3e 01       		.byte	0x1
 8774 1a3f 271B0000 		.4byte	0x1b27
 8775 1a43 17       		.uleb128 0x17
 8776 1a44 783000   		.ascii	"x0\000"
 8777 1a47 01       		.byte	0x1
 8778 1a48 9301     		.2byte	0x193
 8779 1a4a 90000000 		.4byte	0x90
 8780 1a4e E8170000 		.4byte	.LLST127
 8781 1a52 17       		.uleb128 0x17
 8782 1a53 793000   		.ascii	"y0\000"
 8783 1a56 01       		.byte	0x1
 8784 1a57 9301     		.2byte	0x193
 8785 1a59 90000000 		.4byte	0x90
 8786 1a5d 09180000 		.4byte	.LLST128
 8787 1a61 18       		.uleb128 0x18
 8788 1a62 6300     		.ascii	"c\000"
 8789 1a64 01       		.byte	0x1
 8790 1a65 9301     		.2byte	0x193
 8791 1a67 2C010000 		.4byte	0x12c
 8792 1a6b 02       		.byte	0x2
 8793 1a6c 91       		.byte	0x91
 8794 1a6d 64       		.sleb128 -28
 8795 1a6e 1B       		.uleb128 0x1b
 8796 1a6f 18010000 		.4byte	.LASF18
 8797 1a73 01       		.byte	0x1
 8798 1a74 9301     		.2byte	0x193
 8799 1a76 C4010000 		.4byte	0x1c4
 8800 1a7a 42180000 		.4byte	.LLST129
 8801 1a7e 15       		.uleb128 0x15
 8802 1a7f 24000000 		.4byte	.LVL343
 8803 1a83 78080000 		.4byte	0x878
 8804 1a87 9E1A0000 		.4byte	0x1a9e
 8805 1a8b 12       		.uleb128 0x12
 8806 1a8c 01       		.byte	0x1
 8807 1a8d 52       		.byte	0x52
 8808 1a8e 01       		.byte	0x1
 8809 1a8f 38       		.byte	0x38
 8810 1a90 12       		.uleb128 0x12
 8811 1a91 01       		.byte	0x1
ARM GAS  C:\Users\Computer\AppData\Local\Temp\cc1tHs0g.s 			page 173


 8812 1a92 51       		.byte	0x51
 8813 1a93 02       		.byte	0x2
 8814 1a94 75       		.byte	0x75
 8815 1a95 02       		.sleb128 2
 8816 1a96 12       		.uleb128 0x12
 8817 1a97 02       		.byte	0x2
 8818 1a98 7D       		.byte	0x7d
 8819 1a99 00       		.sleb128 0
 8820 1a9a 02       		.byte	0x2
 8821 1a9b 74       		.byte	0x74
 8822 1a9c 00       		.sleb128 0
 8823 1a9d 00       		.byte	0
 8824 1a9e 15       		.uleb128 0x15
 8825 1a9f 36000000 		.4byte	.LVL344
 8826 1aa3 F8080000 		.4byte	0x8f8
 8827 1aa7 C41A0000 		.4byte	0x1ac4
 8828 1aab 12       		.uleb128 0x12
 8829 1aac 01       		.byte	0x1
 8830 1aad 52       		.byte	0x52
 8831 1aae 01       		.byte	0x1
 8832 1aaf 33       		.byte	0x33
 8833 1ab0 12       		.uleb128 0x12
 8834 1ab1 01       		.byte	0x1
 8835 1ab2 51       		.byte	0x51
 8836 1ab3 02       		.byte	0x2
 8837 1ab4 78       		.byte	0x78
 8838 1ab5 00       		.sleb128 0
 8839 1ab6 12       		.uleb128 0x12
 8840 1ab7 01       		.byte	0x1
 8841 1ab8 50       		.byte	0x50
 8842 1ab9 02       		.byte	0x2
 8843 1aba 77       		.byte	0x77
 8844 1abb 00       		.sleb128 0
 8845 1abc 12       		.uleb128 0x12
 8846 1abd 02       		.byte	0x2
 8847 1abe 7D       		.byte	0x7d
 8848 1abf 00       		.sleb128 0
 8849 1ac0 02       		.byte	0x2
 8850 1ac1 74       		.byte	0x74
 8851 1ac2 00       		.sleb128 0
 8852 1ac3 00       		.byte	0
 8853 1ac4 15       		.uleb128 0x15
 8854 1ac5 4A000000 		.4byte	.LVL345
 8855 1ac9 F8080000 		.4byte	0x8f8
 8856 1acd EA1A0000 		.4byte	0x1aea
 8857 1ad1 12       		.uleb128 0x12
 8858 1ad2 01       		.byte	0x1
 8859 1ad3 52       		.byte	0x52
 8860 1ad4 01       		.byte	0x1
 8861 1ad5 33       		.byte	0x33
 8862 1ad6 12       		.uleb128 0x12
 8863 1ad7 01       		.byte	0x1
 8864 1ad8 51       		.byte	0x51
 8865 1ad9 02       		.byte	0x2
 8866 1ada 75       		.byte	0x75
 8867 1adb 0B       		.sleb128 11
 8868 1adc 12       		.uleb128 0x12
ARM GAS  C:\Users\Computer\AppData\Local\Temp\cc1tHs0g.s 			page 174


 8869 1add 01       		.byte	0x1
 8870 1ade 50       		.byte	0x50
 8871 1adf 02       		.byte	0x2
 8872 1ae0 77       		.byte	0x77
 8873 1ae1 00       		.sleb128 0
 8874 1ae2 12       		.uleb128 0x12
 8875 1ae3 02       		.byte	0x2
 8876 1ae4 7D       		.byte	0x7d
 8877 1ae5 00       		.sleb128 0
 8878 1ae6 02       		.byte	0x2
 8879 1ae7 74       		.byte	0x74
 8880 1ae8 00       		.sleb128 0
 8881 1ae9 00       		.byte	0
 8882 1aea 15       		.uleb128 0x15
 8883 1aeb 5C000000 		.4byte	.LVL347
 8884 1aef CA010000 		.4byte	0x1ca
 8885 1af3 0A1B0000 		.4byte	0x1b0a
 8886 1af7 12       		.uleb128 0x12
 8887 1af8 01       		.byte	0x1
 8888 1af9 53       		.byte	0x53
 8889 1afa 02       		.byte	0x2
 8890 1afb 74       		.byte	0x74
 8891 1afc 00       		.sleb128 0
 8892 1afd 12       		.uleb128 0x12
 8893 1afe 01       		.byte	0x1
 8894 1aff 51       		.byte	0x51
 8895 1b00 02       		.byte	0x2
 8896 1b01 75       		.byte	0x75
 8897 1b02 77       		.sleb128 -9
 8898 1b03 12       		.uleb128 0x12
 8899 1b04 01       		.byte	0x1
 8900 1b05 50       		.byte	0x50
 8901 1b06 02       		.byte	0x2
 8902 1b07 76       		.byte	0x76
 8903 1b08 00       		.sleb128 0
 8904 1b09 00       		.byte	0
 8905 1b0a 11       		.uleb128 0x11
 8906 1b0b 68000000 		.4byte	.LVL348
 8907 1b0f CA010000 		.4byte	0x1ca
 8908 1b13 12       		.uleb128 0x12
 8909 1b14 01       		.byte	0x1
 8910 1b15 53       		.byte	0x53
 8911 1b16 02       		.byte	0x2
 8912 1b17 74       		.byte	0x74
 8913 1b18 00       		.sleb128 0
 8914 1b19 12       		.uleb128 0x12
 8915 1b1a 01       		.byte	0x1
 8916 1b1b 51       		.byte	0x51
 8917 1b1c 02       		.byte	0x2
 8918 1b1d 75       		.byte	0x75
 8919 1b1e 00       		.sleb128 0
 8920 1b1f 12       		.uleb128 0x12
 8921 1b20 01       		.byte	0x1
 8922 1b21 50       		.byte	0x50
 8923 1b22 02       		.byte	0x2
 8924 1b23 76       		.byte	0x76
 8925 1b24 00       		.sleb128 0
ARM GAS  C:\Users\Computer\AppData\Local\Temp\cc1tHs0g.s 			page 175


 8926 1b25 00       		.byte	0
 8927 1b26 00       		.byte	0
 8928 1b27 16       		.uleb128 0x16
 8929 1b28 01       		.byte	0x1
 8930 1b29 A7020000 		.4byte	.LASF54
 8931 1b2d 01       		.byte	0x1
 8932 1b2e 9E01     		.2byte	0x19e
 8933 1b30 01       		.byte	0x1
 8934 1b31 00000000 		.4byte	.LFB59
 8935 1b35 60000000 		.4byte	.LFE59
 8936 1b39 6E180000 		.4byte	.LLST130
 8937 1b3d 01       		.byte	0x1
 8938 1b3e 0C1C0000 		.4byte	0x1c0c
 8939 1b42 17       		.uleb128 0x17
 8940 1b43 783000   		.ascii	"x0\000"
 8941 1b46 01       		.byte	0x1
 8942 1b47 9E01     		.2byte	0x19e
 8943 1b49 90000000 		.4byte	0x90
 8944 1b4d A6180000 		.4byte	.LLST131
 8945 1b51 17       		.uleb128 0x17
 8946 1b52 793000   		.ascii	"y0\000"
 8947 1b55 01       		.byte	0x1
 8948 1b56 9E01     		.2byte	0x19e
 8949 1b58 90000000 		.4byte	0x90
 8950 1b5c DF180000 		.4byte	.LLST132
 8951 1b60 18       		.uleb128 0x18
 8952 1b61 6300     		.ascii	"c\000"
 8953 1b63 01       		.byte	0x1
 8954 1b64 9E01     		.2byte	0x19e
 8955 1b66 2C010000 		.4byte	0x12c
 8956 1b6a 02       		.byte	0x2
 8957 1b6b 91       		.byte	0x91
 8958 1b6c 64       		.sleb128 -28
 8959 1b6d 1B       		.uleb128 0x1b
 8960 1b6e 18010000 		.4byte	.LASF18
 8961 1b72 01       		.byte	0x1
 8962 1b73 9E01     		.2byte	0x19e
 8963 1b75 C4010000 		.4byte	0x1c4
 8964 1b79 00190000 		.4byte	.LLST133
 8965 1b7d 15       		.uleb128 0x15
 8966 1b7e 24000000 		.4byte	.LVL354
 8967 1b82 F8080000 		.4byte	0x8f8
 8968 1b86 A31B0000 		.4byte	0x1ba3
 8969 1b8a 12       		.uleb128 0x12
 8970 1b8b 01       		.byte	0x1
 8971 1b8c 52       		.byte	0x52
 8972 1b8d 01       		.byte	0x1
 8973 1b8e 33       		.byte	0x33
 8974 1b8f 12       		.uleb128 0x12
 8975 1b90 01       		.byte	0x1
 8976 1b91 51       		.byte	0x51
 8977 1b92 02       		.byte	0x2
 8978 1b93 75       		.byte	0x75
 8979 1b94 00       		.sleb128 0
 8980 1b95 12       		.uleb128 0x12
 8981 1b96 01       		.byte	0x1
 8982 1b97 50       		.byte	0x50
ARM GAS  C:\Users\Computer\AppData\Local\Temp\cc1tHs0g.s 			page 176


 8983 1b98 02       		.byte	0x2
 8984 1b99 77       		.byte	0x77
 8985 1b9a 00       		.sleb128 0
 8986 1b9b 12       		.uleb128 0x12
 8987 1b9c 02       		.byte	0x2
 8988 1b9d 7D       		.byte	0x7d
 8989 1b9e 00       		.sleb128 0
 8990 1b9f 02       		.byte	0x2
 8991 1ba0 74       		.byte	0x74
 8992 1ba1 00       		.sleb128 0
 8993 1ba2 00       		.byte	0
 8994 1ba3 15       		.uleb128 0x15
 8995 1ba4 34000000 		.4byte	.LVL355
 8996 1ba8 78080000 		.4byte	0x878
 8997 1bac C31B0000 		.4byte	0x1bc3
 8998 1bb0 12       		.uleb128 0x12
 8999 1bb1 01       		.byte	0x1
 9000 1bb2 52       		.byte	0x52
 9001 1bb3 01       		.byte	0x1
 9002 1bb4 3C       		.byte	0x3c
 9003 1bb5 12       		.uleb128 0x12
 9004 1bb6 01       		.byte	0x1
 9005 1bb7 50       		.byte	0x50
 9006 1bb8 02       		.byte	0x2
 9007 1bb9 78       		.byte	0x78
 9008 1bba 00       		.sleb128 0
 9009 1bbb 12       		.uleb128 0x12
 9010 1bbc 02       		.byte	0x2
 9011 1bbd 7D       		.byte	0x7d
 9012 1bbe 00       		.sleb128 0
 9013 1bbf 02       		.byte	0x2
 9014 1bc0 74       		.byte	0x74
 9015 1bc1 00       		.sleb128 0
 9016 1bc2 00       		.byte	0
 9017 1bc3 15       		.uleb128 0x15
 9018 1bc4 4A000000 		.4byte	.LVL357
 9019 1bc8 F8080000 		.4byte	0x8f8
 9020 1bcc E91B0000 		.4byte	0x1be9
 9021 1bd0 12       		.uleb128 0x12
 9022 1bd1 01       		.byte	0x1
 9023 1bd2 52       		.byte	0x52
 9024 1bd3 01       		.byte	0x1
 9025 1bd4 33       		.byte	0x33
 9026 1bd5 12       		.uleb128 0x12
 9027 1bd6 01       		.byte	0x1
 9028 1bd7 51       		.byte	0x51
 9029 1bd8 02       		.byte	0x2
 9030 1bd9 75       		.byte	0x75
 9031 1bda 0A       		.sleb128 10
 9032 1bdb 12       		.uleb128 0x12
 9033 1bdc 01       		.byte	0x1
 9034 1bdd 50       		.byte	0x50
 9035 1bde 02       		.byte	0x2
 9036 1bdf 77       		.byte	0x77
 9037 1be0 00       		.sleb128 0
 9038 1be1 12       		.uleb128 0x12
 9039 1be2 02       		.byte	0x2
ARM GAS  C:\Users\Computer\AppData\Local\Temp\cc1tHs0g.s 			page 177


 9040 1be3 7D       		.byte	0x7d
 9041 1be4 00       		.sleb128 0
 9042 1be5 02       		.byte	0x2
 9043 1be6 74       		.byte	0x74
 9044 1be7 00       		.sleb128 0
 9045 1be8 00       		.byte	0
 9046 1be9 11       		.uleb128 0x11
 9047 1bea 58000000 		.4byte	.LVL358
 9048 1bee 78080000 		.4byte	0x878
 9049 1bf2 12       		.uleb128 0x12
 9050 1bf3 01       		.byte	0x1
 9051 1bf4 52       		.byte	0x52
 9052 1bf5 01       		.byte	0x1
 9053 1bf6 3A       		.byte	0x3a
 9054 1bf7 12       		.uleb128 0x12
 9055 1bf8 01       		.byte	0x1
 9056 1bf9 51       		.byte	0x51
 9057 1bfa 02       		.byte	0x2
 9058 1bfb 75       		.byte	0x75
 9059 1bfc 00       		.sleb128 0
 9060 1bfd 12       		.uleb128 0x12
 9061 1bfe 01       		.byte	0x1
 9062 1bff 50       		.byte	0x50
 9063 1c00 02       		.byte	0x2
 9064 1c01 76       		.byte	0x76
 9065 1c02 00       		.sleb128 0
 9066 1c03 12       		.uleb128 0x12
 9067 1c04 02       		.byte	0x2
 9068 1c05 7D       		.byte	0x7d
 9069 1c06 00       		.sleb128 0
 9070 1c07 02       		.byte	0x2
 9071 1c08 74       		.byte	0x74
 9072 1c09 00       		.sleb128 0
 9073 1c0a 00       		.byte	0
 9074 1c0b 00       		.byte	0
 9075 1c0c 16       		.uleb128 0x16
 9076 1c0d 01       		.byte	0x1
 9077 1c0e 13000000 		.4byte	.LASF55
 9078 1c12 01       		.byte	0x1
 9079 1c13 A701     		.2byte	0x1a7
 9080 1c15 01       		.byte	0x1
 9081 1c16 00000000 		.4byte	.LFB60
 9082 1c1a 54000000 		.4byte	.LFE60
 9083 1c1e 2C190000 		.4byte	.LLST134
 9084 1c22 01       		.byte	0x1
 9085 1c23 F11C0000 		.4byte	0x1cf1
 9086 1c27 17       		.uleb128 0x17
 9087 1c28 783000   		.ascii	"x0\000"
 9088 1c2b 01       		.byte	0x1
 9089 1c2c A701     		.2byte	0x1a7
 9090 1c2e 90000000 		.4byte	0x90
 9091 1c32 58190000 		.4byte	.LLST135
 9092 1c36 17       		.uleb128 0x17
 9093 1c37 793000   		.ascii	"y0\000"
 9094 1c3a 01       		.byte	0x1
 9095 1c3b A701     		.2byte	0x1a7
 9096 1c3d 90000000 		.4byte	0x90
ARM GAS  C:\Users\Computer\AppData\Local\Temp\cc1tHs0g.s 			page 178


 9097 1c41 79190000 		.4byte	.LLST136
 9098 1c45 18       		.uleb128 0x18
 9099 1c46 6300     		.ascii	"c\000"
 9100 1c48 01       		.byte	0x1
 9101 1c49 A701     		.2byte	0x1a7
 9102 1c4b 2C010000 		.4byte	0x12c
 9103 1c4f 02       		.byte	0x2
 9104 1c50 91       		.byte	0x91
 9105 1c51 64       		.sleb128 -28
 9106 1c52 1B       		.uleb128 0x1b
 9107 1c53 18010000 		.4byte	.LASF18
 9108 1c57 01       		.byte	0x1
 9109 1c58 A701     		.2byte	0x1a7
 9110 1c5a C4010000 		.4byte	0x1c4
 9111 1c5e 9A190000 		.4byte	.LLST137
 9112 1c62 15       		.uleb128 0x15
 9113 1c63 1E000000 		.4byte	.LVL364
 9114 1c67 F8080000 		.4byte	0x8f8
 9115 1c6b 881C0000 		.4byte	0x1c88
 9116 1c6f 12       		.uleb128 0x12
 9117 1c70 01       		.byte	0x1
 9118 1c71 52       		.byte	0x52
 9119 1c72 01       		.byte	0x1
 9120 1c73 34       		.byte	0x34
 9121 1c74 12       		.uleb128 0x12
 9122 1c75 01       		.byte	0x1
 9123 1c76 51       		.byte	0x51
 9124 1c77 02       		.byte	0x2
 9125 1c78 76       		.byte	0x76
 9126 1c79 00       		.sleb128 0
 9127 1c7a 12       		.uleb128 0x12
 9128 1c7b 01       		.byte	0x1
 9129 1c7c 50       		.byte	0x50
 9130 1c7d 02       		.byte	0x2
 9131 1c7e 75       		.byte	0x75
 9132 1c7f 00       		.sleb128 0
 9133 1c80 12       		.uleb128 0x12
 9134 1c81 02       		.byte	0x2
 9135 1c82 7D       		.byte	0x7d
 9136 1c83 00       		.sleb128 0
 9137 1c84 02       		.byte	0x2
 9138 1c85 74       		.byte	0x74
 9139 1c86 00       		.sleb128 0
 9140 1c87 00       		.byte	0
 9141 1c88 15       		.uleb128 0x15
 9142 1c89 2E000000 		.4byte	.LVL365
 9143 1c8d 78080000 		.4byte	0x878
 9144 1c91 A81C0000 		.4byte	0x1ca8
 9145 1c95 12       		.uleb128 0x12
 9146 1c96 01       		.byte	0x1
 9147 1c97 52       		.byte	0x52
 9148 1c98 01       		.byte	0x1
 9149 1c99 3C       		.byte	0x3c
 9150 1c9a 12       		.uleb128 0x12
 9151 1c9b 01       		.byte	0x1
 9152 1c9c 51       		.byte	0x51
 9153 1c9d 02       		.byte	0x2
ARM GAS  C:\Users\Computer\AppData\Local\Temp\cc1tHs0g.s 			page 179


 9154 1c9e 76       		.byte	0x76
 9155 1c9f 00       		.sleb128 0
 9156 1ca0 12       		.uleb128 0x12
 9157 1ca1 02       		.byte	0x2
 9158 1ca2 7D       		.byte	0x7d
 9159 1ca3 00       		.sleb128 0
 9160 1ca4 02       		.byte	0x2
 9161 1ca5 74       		.byte	0x74
 9162 1ca6 00       		.sleb128 0
 9163 1ca7 00       		.byte	0
 9164 1ca8 15       		.uleb128 0x15
 9165 1ca9 42000000 		.4byte	.LVL366
 9166 1cad F8080000 		.4byte	0x8f8
 9167 1cb1 CE1C0000 		.4byte	0x1cce
 9168 1cb5 12       		.uleb128 0x12
 9169 1cb6 01       		.byte	0x1
 9170 1cb7 52       		.byte	0x52
 9171 1cb8 01       		.byte	0x1
 9172 1cb9 34       		.byte	0x34
 9173 1cba 12       		.uleb128 0x12
 9174 1cbb 01       		.byte	0x1
 9175 1cbc 51       		.byte	0x51
 9176 1cbd 02       		.byte	0x2
 9177 1cbe 77       		.byte	0x77
 9178 1cbf 06       		.sleb128 6
 9179 1cc0 12       		.uleb128 0x12
 9180 1cc1 01       		.byte	0x1
 9181 1cc2 50       		.byte	0x50
 9182 1cc3 02       		.byte	0x2
 9183 1cc4 75       		.byte	0x75
 9184 1cc5 00       		.sleb128 0
 9185 1cc6 12       		.uleb128 0x12
 9186 1cc7 02       		.byte	0x2
 9187 1cc8 7D       		.byte	0x7d
 9188 1cc9 00       		.sleb128 0
 9189 1cca 02       		.byte	0x2
 9190 1ccb 74       		.byte	0x74
 9191 1ccc 00       		.sleb128 0
 9192 1ccd 00       		.byte	0
 9193 1cce 11       		.uleb128 0x11
 9194 1ccf 50000000 		.4byte	.LVL367
 9195 1cd3 F8080000 		.4byte	0x8f8
 9196 1cd7 12       		.uleb128 0x12
 9197 1cd8 01       		.byte	0x1
 9198 1cd9 52       		.byte	0x52
 9199 1cda 01       		.byte	0x1
 9200 1cdb 34       		.byte	0x34
 9201 1cdc 12       		.uleb128 0x12
 9202 1cdd 01       		.byte	0x1
 9203 1cde 51       		.byte	0x51
 9204 1cdf 02       		.byte	0x2
 9205 1ce0 77       		.byte	0x77
 9206 1ce1 00       		.sleb128 0
 9207 1ce2 12       		.uleb128 0x12
 9208 1ce3 01       		.byte	0x1
 9209 1ce4 50       		.byte	0x50
 9210 1ce5 02       		.byte	0x2
ARM GAS  C:\Users\Computer\AppData\Local\Temp\cc1tHs0g.s 			page 180


 9211 1ce6 75       		.byte	0x75
 9212 1ce7 00       		.sleb128 0
 9213 1ce8 12       		.uleb128 0x12
 9214 1ce9 02       		.byte	0x2
 9215 1cea 7D       		.byte	0x7d
 9216 1ceb 00       		.sleb128 0
 9217 1cec 02       		.byte	0x2
 9218 1ced 74       		.byte	0x74
 9219 1cee 00       		.sleb128 0
 9220 1cef 00       		.byte	0
 9221 1cf0 00       		.byte	0
 9222 1cf1 16       		.uleb128 0x16
 9223 1cf2 01       		.byte	0x1
 9224 1cf3 B3010000 		.4byte	.LASF56
 9225 1cf7 01       		.byte	0x1
 9226 1cf8 AF01     		.2byte	0x1af
 9227 1cfa 01       		.byte	0x1
 9228 1cfb 00000000 		.4byte	.LFB61
 9229 1cff 40000000 		.4byte	.LFE61
 9230 1d03 C6190000 		.4byte	.LLST138
 9231 1d07 01       		.byte	0x1
 9232 1d08 B61D0000 		.4byte	0x1db6
 9233 1d0c 17       		.uleb128 0x17
 9234 1d0d 783000   		.ascii	"x0\000"
 9235 1d10 01       		.byte	0x1
 9236 1d11 AF01     		.2byte	0x1af
 9237 1d13 90000000 		.4byte	0x90
 9238 1d17 F2190000 		.4byte	.LLST139
 9239 1d1b 17       		.uleb128 0x17
 9240 1d1c 793000   		.ascii	"y0\000"
 9241 1d1f 01       		.byte	0x1
 9242 1d20 AF01     		.2byte	0x1af
 9243 1d22 90000000 		.4byte	0x90
 9244 1d26 131A0000 		.4byte	.LLST140
 9245 1d2a 18       		.uleb128 0x18
 9246 1d2b 6300     		.ascii	"c\000"
 9247 1d2d 01       		.byte	0x1
 9248 1d2e AF01     		.2byte	0x1af
 9249 1d30 2C010000 		.4byte	0x12c
 9250 1d34 02       		.byte	0x2
 9251 1d35 91       		.byte	0x91
 9252 1d36 64       		.sleb128 -28
 9253 1d37 1B       		.uleb128 0x1b
 9254 1d38 18010000 		.4byte	.LASF18
 9255 1d3c 01       		.byte	0x1
 9256 1d3d AF01     		.2byte	0x1af
 9257 1d3f C4010000 		.4byte	0x1c4
 9258 1d43 341A0000 		.4byte	.LLST141
 9259 1d47 15       		.uleb128 0x15
 9260 1d48 1E000000 		.4byte	.LVL372
 9261 1d4c F8080000 		.4byte	0x8f8
 9262 1d50 6D1D0000 		.4byte	0x1d6d
 9263 1d54 12       		.uleb128 0x12
 9264 1d55 01       		.byte	0x1
 9265 1d56 52       		.byte	0x52
 9266 1d57 01       		.byte	0x1
 9267 1d58 34       		.byte	0x34
ARM GAS  C:\Users\Computer\AppData\Local\Temp\cc1tHs0g.s 			page 181


 9268 1d59 12       		.uleb128 0x12
 9269 1d5a 01       		.byte	0x1
 9270 1d5b 51       		.byte	0x51
 9271 1d5c 02       		.byte	0x2
 9272 1d5d 75       		.byte	0x75
 9273 1d5e 00       		.sleb128 0
 9274 1d5f 12       		.uleb128 0x12
 9275 1d60 01       		.byte	0x1
 9276 1d61 50       		.byte	0x50
 9277 1d62 02       		.byte	0x2
 9278 1d63 76       		.byte	0x76
 9279 1d64 00       		.sleb128 0
 9280 1d65 12       		.uleb128 0x12
 9281 1d66 02       		.byte	0x2
 9282 1d67 7D       		.byte	0x7d
 9283 1d68 00       		.sleb128 0
 9284 1d69 02       		.byte	0x2
 9285 1d6a 74       		.byte	0x74
 9286 1d6b 00       		.sleb128 0
 9287 1d6c 00       		.byte	0
 9288 1d6d 15       		.uleb128 0x15
 9289 1d6e 2E000000 		.4byte	.LVL373
 9290 1d72 78080000 		.4byte	0x878
 9291 1d76 931D0000 		.4byte	0x1d93
 9292 1d7a 12       		.uleb128 0x12
 9293 1d7b 01       		.byte	0x1
 9294 1d7c 52       		.byte	0x52
 9295 1d7d 01       		.byte	0x1
 9296 1d7e 3C       		.byte	0x3c
 9297 1d7f 12       		.uleb128 0x12
 9298 1d80 01       		.byte	0x1
 9299 1d81 51       		.byte	0x51
 9300 1d82 02       		.byte	0x2
 9301 1d83 75       		.byte	0x75
 9302 1d84 7B       		.sleb128 -5
 9303 1d85 12       		.uleb128 0x12
 9304 1d86 01       		.byte	0x1
 9305 1d87 50       		.byte	0x50
 9306 1d88 02       		.byte	0x2
 9307 1d89 77       		.byte	0x77
 9308 1d8a 00       		.sleb128 0
 9309 1d8b 12       		.uleb128 0x12
 9310 1d8c 02       		.byte	0x2
 9311 1d8d 7D       		.byte	0x7d
 9312 1d8e 00       		.sleb128 0
 9313 1d8f 02       		.byte	0x2
 9314 1d90 74       		.byte	0x74
 9315 1d91 00       		.sleb128 0
 9316 1d92 00       		.byte	0
 9317 1d93 11       		.uleb128 0x11
 9318 1d94 3C000000 		.4byte	.LVL374
 9319 1d98 F8080000 		.4byte	0x8f8
 9320 1d9c 12       		.uleb128 0x12
 9321 1d9d 01       		.byte	0x1
 9322 1d9e 52       		.byte	0x52
 9323 1d9f 01       		.byte	0x1
 9324 1da0 34       		.byte	0x34
ARM GAS  C:\Users\Computer\AppData\Local\Temp\cc1tHs0g.s 			page 182


 9325 1da1 12       		.uleb128 0x12
 9326 1da2 01       		.byte	0x1
 9327 1da3 51       		.byte	0x51
 9328 1da4 02       		.byte	0x2
 9329 1da5 75       		.byte	0x75
 9330 1da6 00       		.sleb128 0
 9331 1da7 12       		.uleb128 0x12
 9332 1da8 01       		.byte	0x1
 9333 1da9 50       		.byte	0x50
 9334 1daa 02       		.byte	0x2
 9335 1dab 76       		.byte	0x76
 9336 1dac 00       		.sleb128 0
 9337 1dad 12       		.uleb128 0x12
 9338 1dae 02       		.byte	0x2
 9339 1daf 7D       		.byte	0x7d
 9340 1db0 00       		.sleb128 0
 9341 1db1 02       		.byte	0x2
 9342 1db2 74       		.byte	0x74
 9343 1db3 00       		.sleb128 0
 9344 1db4 00       		.byte	0
 9345 1db5 00       		.byte	0
 9346 1db6 16       		.uleb128 0x16
 9347 1db7 01       		.byte	0x1
 9348 1db8 00010000 		.4byte	.LASF57
 9349 1dbc 01       		.byte	0x1
 9350 1dbd D101     		.2byte	0x1d1
 9351 1dbf 01       		.byte	0x1
 9352 1dc0 00000000 		.4byte	.LFB64
 9353 1dc4 FC000000 		.4byte	.LFE64
 9354 1dc8 601A0000 		.4byte	.LLST142
 9355 1dcc 01       		.byte	0x1
 9356 1dcd 681F0000 		.4byte	0x1f68
 9357 1dd1 17       		.uleb128 0x17
 9358 1dd2 6E756D00 		.ascii	"num\000"
 9359 1dd6 01       		.byte	0x1
 9360 1dd7 D101     		.2byte	0x1d1
 9361 1dd9 7A000000 		.4byte	0x7a
 9362 1ddd 8C1A0000 		.4byte	.LLST143
 9363 1de1 17       		.uleb128 0x17
 9364 1de2 783000   		.ascii	"x0\000"
 9365 1de5 01       		.byte	0x1
 9366 1de6 D101     		.2byte	0x1d1
 9367 1de8 90000000 		.4byte	0x90
 9368 1dec C61A0000 		.4byte	.LLST144
 9369 1df0 17       		.uleb128 0x17
 9370 1df1 793000   		.ascii	"y0\000"
 9371 1df4 01       		.byte	0x1
 9372 1df5 D101     		.2byte	0x1d1
 9373 1df7 90000000 		.4byte	0x90
 9374 1dfb 5E1C0000 		.4byte	.LLST145
 9375 1dff 18       		.uleb128 0x18
 9376 1e00 6300     		.ascii	"c\000"
 9377 1e02 01       		.byte	0x1
 9378 1e03 D101     		.2byte	0x1d1
 9379 1e05 2C010000 		.4byte	0x12c
 9380 1e09 02       		.byte	0x2
 9381 1e0a 91       		.byte	0x91
ARM GAS  C:\Users\Computer\AppData\Local\Temp\cc1tHs0g.s 			page 183


 9382 1e0b 74       		.sleb128 -12
 9383 1e0c 19       		.uleb128 0x19
 9384 1e0d 18010000 		.4byte	.LASF18
 9385 1e11 01       		.byte	0x1
 9386 1e12 D101     		.2byte	0x1d1
 9387 1e14 C4010000 		.4byte	0x1c4
 9388 1e18 02       		.byte	0x2
 9389 1e19 91       		.byte	0x91
 9390 1e1a 00       		.sleb128 0
 9391 1e1b 15       		.uleb128 0x15
 9392 1e1c 1A000000 		.4byte	.LVL380
 9393 1e20 F9160000 		.4byte	0x16f9
 9394 1e24 301E0000 		.4byte	0x1e30
 9395 1e28 12       		.uleb128 0x12
 9396 1e29 01       		.byte	0x1
 9397 1e2a 53       		.byte	0x53
 9398 1e2b 03       		.byte	0x3
 9399 1e2c 91       		.byte	0x91
 9400 1e2d 00       		.sleb128 0
 9401 1e2e 06       		.byte	0x6
 9402 1e2f 00       		.byte	0
 9403 1e30 15       		.uleb128 0x15
 9404 1e31 32000000 		.4byte	.LVL385
 9405 1e35 F11C0000 		.4byte	0x1cf1
 9406 1e39 451E0000 		.4byte	0x1e45
 9407 1e3d 12       		.uleb128 0x12
 9408 1e3e 01       		.byte	0x1
 9409 1e3f 53       		.byte	0x53
 9410 1e40 03       		.byte	0x3
 9411 1e41 91       		.byte	0x91
 9412 1e42 00       		.sleb128 0
 9413 1e43 06       		.byte	0x6
 9414 1e44 00       		.byte	0
 9415 1e45 15       		.uleb128 0x15
 9416 1e46 40000000 		.4byte	.LVL389
 9417 1e4a 0B0D0000 		.4byte	0xd0b
 9418 1e4e 5A1E0000 		.4byte	0x1e5a
 9419 1e52 12       		.uleb128 0x12
 9420 1e53 01       		.byte	0x1
 9421 1e54 53       		.byte	0x53
 9422 1e55 03       		.byte	0x3
 9423 1e56 91       		.byte	0x91
 9424 1e57 00       		.sleb128 0
 9425 1e58 06       		.byte	0x6
 9426 1e59 00       		.byte	0
 9427 1e5a 15       		.uleb128 0x15
 9428 1e5b 4E000000 		.4byte	.LVL393
 9429 1e5f DE0D0000 		.4byte	0xdde
 9430 1e63 6F1E0000 		.4byte	0x1e6f
 9431 1e67 12       		.uleb128 0x12
 9432 1e68 01       		.byte	0x1
 9433 1e69 53       		.byte	0x53
 9434 1e6a 03       		.byte	0x3
 9435 1e6b 91       		.byte	0x91
 9436 1e6c 00       		.sleb128 0
 9437 1e6d 06       		.byte	0x6
 9438 1e6e 00       		.byte	0
ARM GAS  C:\Users\Computer\AppData\Local\Temp\cc1tHs0g.s 			page 184


 9439 1e6f 15       		.uleb128 0x15
 9440 1e70 5C000000 		.4byte	.LVL397
 9441 1e74 AE0F0000 		.4byte	0xfae
 9442 1e78 841E0000 		.4byte	0x1e84
 9443 1e7c 12       		.uleb128 0x12
 9444 1e7d 01       		.byte	0x1
 9445 1e7e 53       		.byte	0x53
 9446 1e7f 03       		.byte	0x3
 9447 1e80 91       		.byte	0x91
 9448 1e81 00       		.sleb128 0
 9449 1e82 06       		.byte	0x6
 9450 1e83 00       		.byte	0
 9451 1e84 15       		.uleb128 0x15
 9452 1e85 6A000000 		.4byte	.LVL401
 9453 1e89 E5100000 		.4byte	0x10e5
 9454 1e8d 991E0000 		.4byte	0x1e99
 9455 1e91 12       		.uleb128 0x12
 9456 1e92 01       		.byte	0x1
 9457 1e93 53       		.byte	0x53
 9458 1e94 03       		.byte	0x3
 9459 1e95 91       		.byte	0x91
 9460 1e96 00       		.sleb128 0
 9461 1e97 06       		.byte	0x6
 9462 1e98 00       		.byte	0
 9463 1e99 15       		.uleb128 0x15
 9464 1e9a 78000000 		.4byte	.LVL405
 9465 1e9e AA110000 		.4byte	0x11aa
 9466 1ea2 AE1E0000 		.4byte	0x1eae
 9467 1ea6 12       		.uleb128 0x12
 9468 1ea7 01       		.byte	0x1
 9469 1ea8 53       		.byte	0x53
 9470 1ea9 03       		.byte	0x3
 9471 1eaa 91       		.byte	0x91
 9472 1eab 00       		.sleb128 0
 9473 1eac 06       		.byte	0x6
 9474 1ead 00       		.byte	0
 9475 1eae 15       		.uleb128 0x15
 9476 1eaf 86000000 		.4byte	.LVL409
 9477 1eb3 E1120000 		.4byte	0x12e1
 9478 1eb7 C31E0000 		.4byte	0x1ec3
 9479 1ebb 12       		.uleb128 0x12
 9480 1ebc 01       		.byte	0x1
 9481 1ebd 53       		.byte	0x53
 9482 1ebe 03       		.byte	0x3
 9483 1ebf 91       		.byte	0x91
 9484 1ec0 00       		.sleb128 0
 9485 1ec1 06       		.byte	0x6
 9486 1ec2 00       		.byte	0
 9487 1ec3 15       		.uleb128 0x15
 9488 1ec4 94000000 		.4byte	.LVL413
 9489 1ec8 F2130000 		.4byte	0x13f2
 9490 1ecc D81E0000 		.4byte	0x1ed8
 9491 1ed0 12       		.uleb128 0x12
 9492 1ed1 01       		.byte	0x1
 9493 1ed2 53       		.byte	0x53
 9494 1ed3 03       		.byte	0x3
 9495 1ed4 91       		.byte	0x91
ARM GAS  C:\Users\Computer\AppData\Local\Temp\cc1tHs0g.s 			page 185


 9496 1ed5 00       		.sleb128 0
 9497 1ed6 06       		.byte	0x6
 9498 1ed7 00       		.byte	0
 9499 1ed8 15       		.uleb128 0x15
 9500 1ed9 A2000000 		.4byte	.LVL417
 9501 1edd B7140000 		.4byte	0x14b7
 9502 1ee1 ED1E0000 		.4byte	0x1eed
 9503 1ee5 12       		.uleb128 0x12
 9504 1ee6 01       		.byte	0x1
 9505 1ee7 53       		.byte	0x53
 9506 1ee8 03       		.byte	0x3
 9507 1ee9 91       		.byte	0x91
 9508 1eea 00       		.sleb128 0
 9509 1eeb 06       		.byte	0x6
 9510 1eec 00       		.byte	0
 9511 1eed 15       		.uleb128 0x15
 9512 1eee B0000000 		.4byte	.LVL421
 9513 1ef2 0E160000 		.4byte	0x160e
 9514 1ef6 021F0000 		.4byte	0x1f02
 9515 1efa 12       		.uleb128 0x12
 9516 1efb 01       		.byte	0x1
 9517 1efc 53       		.byte	0x53
 9518 1efd 03       		.byte	0x3
 9519 1efe 91       		.byte	0x91
 9520 1eff 00       		.sleb128 0
 9521 1f00 06       		.byte	0x6
 9522 1f01 00       		.byte	0
 9523 1f02 15       		.uleb128 0x15
 9524 1f03 BE000000 		.4byte	.LVL425
 9525 1f07 D8170000 		.4byte	0x17d8
 9526 1f0b 171F0000 		.4byte	0x1f17
 9527 1f0f 12       		.uleb128 0x12
 9528 1f10 01       		.byte	0x1
 9529 1f11 53       		.byte	0x53
 9530 1f12 03       		.byte	0x3
 9531 1f13 91       		.byte	0x91
 9532 1f14 00       		.sleb128 0
 9533 1f15 06       		.byte	0x6
 9534 1f16 00       		.byte	0
 9535 1f17 15       		.uleb128 0x15
 9536 1f18 CC000000 		.4byte	.LVL429
 9537 1f1c F1180000 		.4byte	0x18f1
 9538 1f20 2C1F0000 		.4byte	0x1f2c
 9539 1f24 12       		.uleb128 0x12
 9540 1f25 01       		.byte	0x1
 9541 1f26 53       		.byte	0x53
 9542 1f27 03       		.byte	0x3
 9543 1f28 91       		.byte	0x91
 9544 1f29 00       		.sleb128 0
 9545 1f2a 06       		.byte	0x6
 9546 1f2b 00       		.byte	0
 9547 1f2c 15       		.uleb128 0x15
 9548 1f2d DA000000 		.4byte	.LVL433
 9549 1f31 281A0000 		.4byte	0x1a28
 9550 1f35 411F0000 		.4byte	0x1f41
 9551 1f39 12       		.uleb128 0x12
 9552 1f3a 01       		.byte	0x1
ARM GAS  C:\Users\Computer\AppData\Local\Temp\cc1tHs0g.s 			page 186


 9553 1f3b 53       		.byte	0x53
 9554 1f3c 03       		.byte	0x3
 9555 1f3d 91       		.byte	0x91
 9556 1f3e 00       		.sleb128 0
 9557 1f3f 06       		.byte	0x6
 9558 1f40 00       		.byte	0
 9559 1f41 15       		.uleb128 0x15
 9560 1f42 E8000000 		.4byte	.LVL437
 9561 1f46 271B0000 		.4byte	0x1b27
 9562 1f4a 561F0000 		.4byte	0x1f56
 9563 1f4e 12       		.uleb128 0x12
 9564 1f4f 01       		.byte	0x1
 9565 1f50 53       		.byte	0x53
 9566 1f51 03       		.byte	0x3
 9567 1f52 91       		.byte	0x91
 9568 1f53 00       		.sleb128 0
 9569 1f54 06       		.byte	0x6
 9570 1f55 00       		.byte	0
 9571 1f56 11       		.uleb128 0x11
 9572 1f57 F6000000 		.4byte	.LVL441
 9573 1f5b 0C1C0000 		.4byte	0x1c0c
 9574 1f5f 12       		.uleb128 0x12
 9575 1f60 01       		.byte	0x1
 9576 1f61 53       		.byte	0x53
 9577 1f62 03       		.byte	0x3
 9578 1f63 91       		.byte	0x91
 9579 1f64 00       		.sleb128 0
 9580 1f65 06       		.byte	0x6
 9581 1f66 00       		.byte	0
 9582 1f67 00       		.byte	0
 9583 1f68 16       		.uleb128 0x16
 9584 1f69 01       		.byte	0x1
 9585 1f6a 95010000 		.4byte	.LASF58
 9586 1f6e 01       		.byte	0x1
 9587 1f6f C401     		.2byte	0x1c4
 9588 1f71 01       		.byte	0x1
 9589 1f72 00000000 		.4byte	.LFB63
 9590 1f76 56000000 		.4byte	.LFE63
 9591 1f7a F61D0000 		.4byte	.LLST146
 9592 1f7e 01       		.byte	0x1
 9593 1f7f 83200000 		.4byte	0x2083
 9594 1f83 1B       		.uleb128 0x1b
 9595 1f84 76020000 		.4byte	.LASF59
 9596 1f88 01       		.byte	0x1
 9597 1f89 C401     		.2byte	0x1c4
 9598 1f8b 7A000000 		.4byte	0x7a
 9599 1f8f 221E0000 		.4byte	.LLST147
 9600 1f93 17       		.uleb128 0x17
 9601 1f94 6D696E00 		.ascii	"min\000"
 9602 1f98 01       		.byte	0x1
 9603 1f99 C401     		.2byte	0x1c4
 9604 1f9b 7A000000 		.4byte	0x7a
 9605 1f9f 431E0000 		.4byte	.LLST148
 9606 1fa3 18       		.uleb128 0x18
 9607 1fa4 6300     		.ascii	"c\000"
 9608 1fa6 01       		.byte	0x1
 9609 1fa7 C401     		.2byte	0x1c4
ARM GAS  C:\Users\Computer\AppData\Local\Temp\cc1tHs0g.s 			page 187


 9610 1fa9 2C010000 		.4byte	0x12c
 9611 1fad 02       		.byte	0x2
 9612 1fae 91       		.byte	0x91
 9613 1faf 6C       		.sleb128 -20
 9614 1fb0 1B       		.uleb128 0x1b
 9615 1fb1 18010000 		.4byte	.LASF18
 9616 1fb5 01       		.byte	0x1
 9617 1fb6 C401     		.2byte	0x1c4
 9618 1fb8 C4010000 		.4byte	0x1c4
 9619 1fbc 641E0000 		.4byte	.LLST149
 9620 1fc0 1C       		.uleb128 0x1c
 9621 1fc1 12010000 		.4byte	.LASF60
 9622 1fc5 01       		.byte	0x1
 9623 1fc6 C601     		.2byte	0x1c6
 9624 1fc8 7A000000 		.4byte	0x7a
 9625 1fcc 901E0000 		.4byte	.LLST150
 9626 1fd0 15       		.uleb128 0x15
 9627 1fd1 1C000000 		.4byte	.LVL446
 9628 1fd5 B61D0000 		.4byte	0x1db6
 9629 1fd9 F71F0000 		.4byte	0x1ff7
 9630 1fdd 12       		.uleb128 0x12
 9631 1fde 01       		.byte	0x1
 9632 1fdf 52       		.byte	0x52
 9633 1fe0 01       		.byte	0x1
 9634 1fe1 32       		.byte	0x32
 9635 1fe2 12       		.uleb128 0x12
 9636 1fe3 01       		.byte	0x1
 9637 1fe4 51       		.byte	0x51
 9638 1fe5 01       		.byte	0x1
 9639 1fe6 47       		.byte	0x47
 9640 1fe7 12       		.uleb128 0x12
 9641 1fe8 01       		.byte	0x1
 9642 1fe9 50       		.byte	0x50
 9643 1fea 04       		.byte	0x4
 9644 1feb 76       		.byte	0x76
 9645 1fec 00       		.sleb128 0
 9646 1fed 34       		.byte	0x34
 9647 1fee 25       		.byte	0x25
 9648 1fef 12       		.uleb128 0x12
 9649 1ff0 02       		.byte	0x2
 9650 1ff1 7D       		.byte	0x7d
 9651 1ff2 00       		.sleb128 0
 9652 1ff3 02       		.byte	0x2
 9653 1ff4 74       		.byte	0x74
 9654 1ff5 00       		.sleb128 0
 9655 1ff6 00       		.byte	0
 9656 1ff7 15       		.uleb128 0x15
 9657 1ff8 2A000000 		.4byte	.LVL447
 9658 1ffc B61D0000 		.4byte	0x1db6
 9659 2000 1C200000 		.4byte	0x201c
 9660 2004 12       		.uleb128 0x12
 9661 2005 01       		.byte	0x1
 9662 2006 52       		.byte	0x52
 9663 2007 01       		.byte	0x1
 9664 2008 32       		.byte	0x32
 9665 2009 12       		.uleb128 0x12
 9666 200a 01       		.byte	0x1
ARM GAS  C:\Users\Computer\AppData\Local\Temp\cc1tHs0g.s 			page 188


 9667 200b 51       		.byte	0x51
 9668 200c 01       		.byte	0x1
 9669 200d 41       		.byte	0x41
 9670 200e 12       		.uleb128 0x12
 9671 200f 01       		.byte	0x1
 9672 2010 50       		.byte	0x50
 9673 2011 02       		.byte	0x2
 9674 2012 76       		.byte	0x76
 9675 2013 00       		.sleb128 0
 9676 2014 12       		.uleb128 0x12
 9677 2015 02       		.byte	0x2
 9678 2016 7D       		.byte	0x7d
 9679 2017 00       		.sleb128 0
 9680 2018 02       		.byte	0x2
 9681 2019 74       		.byte	0x74
 9682 201a 00       		.sleb128 0
 9683 201b 00       		.byte	0
 9684 201c 15       		.uleb128 0x15
 9685 201d 36000000 		.4byte	.LVL448
 9686 2021 0F0F0000 		.4byte	0xf0f
 9687 2025 3A200000 		.4byte	0x203a
 9688 2029 12       		.uleb128 0x12
 9689 202a 01       		.byte	0x1
 9690 202b 53       		.byte	0x53
 9691 202c 02       		.byte	0x2
 9692 202d 74       		.byte	0x74
 9693 202e 00       		.sleb128 0
 9694 202f 12       		.uleb128 0x12
 9695 2030 01       		.byte	0x1
 9696 2031 51       		.byte	0x51
 9697 2032 01       		.byte	0x1
 9698 2033 32       		.byte	0x32
 9699 2034 12       		.uleb128 0x12
 9700 2035 01       		.byte	0x1
 9701 2036 50       		.byte	0x50
 9702 2037 01       		.byte	0x1
 9703 2038 40       		.byte	0x40
 9704 2039 00       		.byte	0
 9705 203a 15       		.uleb128 0x15
 9706 203b 44000000 		.4byte	.LVL449
 9707 203f B61D0000 		.4byte	0x1db6
 9708 2043 61200000 		.4byte	0x2061
 9709 2047 12       		.uleb128 0x12
 9710 2048 01       		.byte	0x1
 9711 2049 52       		.byte	0x52
 9712 204a 01       		.byte	0x1
 9713 204b 32       		.byte	0x32
 9714 204c 12       		.uleb128 0x12
 9715 204d 01       		.byte	0x1
 9716 204e 51       		.byte	0x51
 9717 204f 01       		.byte	0x1
 9718 2050 39       		.byte	0x39
 9719 2051 12       		.uleb128 0x12
 9720 2052 01       		.byte	0x1
 9721 2053 50       		.byte	0x50
 9722 2054 04       		.byte	0x4
 9723 2055 75       		.byte	0x75
ARM GAS  C:\Users\Computer\AppData\Local\Temp\cc1tHs0g.s 			page 189


 9724 2056 00       		.sleb128 0
 9725 2057 34       		.byte	0x34
 9726 2058 25       		.byte	0x25
 9727 2059 12       		.uleb128 0x12
 9728 205a 02       		.byte	0x2
 9729 205b 7D       		.byte	0x7d
 9730 205c 00       		.sleb128 0
 9731 205d 02       		.byte	0x2
 9732 205e 74       		.byte	0x74
 9733 205f 00       		.sleb128 0
 9734 2060 00       		.byte	0
 9735 2061 11       		.uleb128 0x11
 9736 2062 52000000 		.4byte	.LVL450
 9737 2066 B61D0000 		.4byte	0x1db6
 9738 206a 12       		.uleb128 0x12
 9739 206b 01       		.byte	0x1
 9740 206c 52       		.byte	0x52
 9741 206d 01       		.byte	0x1
 9742 206e 32       		.byte	0x32
 9743 206f 12       		.uleb128 0x12
 9744 2070 01       		.byte	0x1
 9745 2071 51       		.byte	0x51
 9746 2072 01       		.byte	0x1
 9747 2073 33       		.byte	0x33
 9748 2074 12       		.uleb128 0x12
 9749 2075 01       		.byte	0x1
 9750 2076 50       		.byte	0x50
 9751 2077 02       		.byte	0x2
 9752 2078 75       		.byte	0x75
 9753 2079 00       		.sleb128 0
 9754 207a 12       		.uleb128 0x12
 9755 207b 02       		.byte	0x2
 9756 207c 7D       		.byte	0x7d
 9757 207d 00       		.sleb128 0
 9758 207e 02       		.byte	0x2
 9759 207f 74       		.byte	0x74
 9760 2080 00       		.sleb128 0
 9761 2081 00       		.byte	0
 9762 2082 00       		.byte	0
 9763 2083 16       		.uleb128 0x16
 9764 2084 01       		.byte	0x1
 9765 2085 6E010000 		.4byte	.LASF61
 9766 2089 01       		.byte	0x1
 9767 208a B601     		.2byte	0x1b6
 9768 208c 01       		.byte	0x1
 9769 208d 00000000 		.4byte	.LFB62
 9770 2091 4C000000 		.4byte	.LFE62
 9771 2095 B21E0000 		.4byte	.LLST151
 9772 2099 01       		.byte	0x1
 9773 209a 99210000 		.4byte	0x2199
 9774 209e 17       		.uleb128 0x17
 9775 209f 6E756D00 		.ascii	"num\000"
 9776 20a3 01       		.byte	0x1
 9777 20a4 B601     		.2byte	0x1b6
 9778 20a6 85000000 		.4byte	0x85
 9779 20aa DE1E0000 		.4byte	.LLST152
 9780 20ae 17       		.uleb128 0x17
ARM GAS  C:\Users\Computer\AppData\Local\Temp\cc1tHs0g.s 			page 190


 9781 20af 783000   		.ascii	"x0\000"
 9782 20b2 01       		.byte	0x1
 9783 20b3 B601     		.2byte	0x1b6
 9784 20b5 90000000 		.4byte	0x90
 9785 20b9 FF1E0000 		.4byte	.LLST153
 9786 20bd 17       		.uleb128 0x17
 9787 20be 793000   		.ascii	"y0\000"
 9788 20c1 01       		.byte	0x1
 9789 20c2 B601     		.2byte	0x1b6
 9790 20c4 90000000 		.4byte	0x90
 9791 20c8 201F0000 		.4byte	.LLST154
 9792 20cc 18       		.uleb128 0x18
 9793 20cd 6300     		.ascii	"c\000"
 9794 20cf 01       		.byte	0x1
 9795 20d0 B601     		.2byte	0x1b6
 9796 20d2 2C010000 		.4byte	0x12c
 9797 20d6 02       		.byte	0x2
 9798 20d7 91       		.byte	0x91
 9799 20d8 6C       		.sleb128 -20
 9800 20d9 19       		.uleb128 0x19
 9801 20da 18010000 		.4byte	.LASF18
 9802 20de 01       		.byte	0x1
 9803 20df B601     		.2byte	0x1b6
 9804 20e1 C4010000 		.4byte	0x1c4
 9805 20e5 02       		.byte	0x2
 9806 20e6 91       		.byte	0x91
 9807 20e7 00       		.sleb128 0
 9808 20e8 1C       		.uleb128 0x1c
 9809 20e9 E0010000 		.4byte	.LASF62
 9810 20ed 01       		.byte	0x1
 9811 20ee B801     		.2byte	0x1b8
 9812 20f0 99210000 		.4byte	0x2199
 9813 20f4 411F0000 		.4byte	.LLST155
 9814 20f8 15       		.uleb128 0x15
 9815 20f9 18000000 		.4byte	.LVL457
 9816 20fd B61D0000 		.4byte	0x1db6
 9817 2101 1F210000 		.4byte	0x211f
 9818 2105 12       		.uleb128 0x12
 9819 2106 01       		.byte	0x1
 9820 2107 52       		.byte	0x52
 9821 2108 01       		.byte	0x1
 9822 2109 32       		.byte	0x32
 9823 210a 12       		.uleb128 0x12
 9824 210b 01       		.byte	0x1
 9825 210c 51       		.byte	0x51
 9826 210d 01       		.byte	0x1
 9827 210e 33       		.byte	0x33
 9828 210f 12       		.uleb128 0x12
 9829 2110 01       		.byte	0x1
 9830 2111 50       		.byte	0x50
 9831 2112 04       		.byte	0x4
 9832 2113 75       		.byte	0x75
 9833 2114 00       		.sleb128 0
 9834 2115 3C       		.byte	0x3c
 9835 2116 25       		.byte	0x25
 9836 2117 12       		.uleb128 0x12
 9837 2118 02       		.byte	0x2
ARM GAS  C:\Users\Computer\AppData\Local\Temp\cc1tHs0g.s 			page 191


 9838 2119 7D       		.byte	0x7d
 9839 211a 00       		.sleb128 0
 9840 211b 02       		.byte	0x2
 9841 211c 74       		.byte	0x74
 9842 211d 00       		.sleb128 0
 9843 211e 00       		.byte	0
 9844 211f 15       		.uleb128 0x15
 9845 2120 28000000 		.4byte	.LVL458
 9846 2124 B61D0000 		.4byte	0x1db6
 9847 2128 49210000 		.4byte	0x2149
 9848 212c 12       		.uleb128 0x12
 9849 212d 01       		.byte	0x1
 9850 212e 52       		.byte	0x52
 9851 212f 01       		.byte	0x1
 9852 2130 32       		.byte	0x32
 9853 2131 12       		.uleb128 0x12
 9854 2132 01       		.byte	0x1
 9855 2133 51       		.byte	0x51
 9856 2134 01       		.byte	0x1
 9857 2135 39       		.byte	0x39
 9858 2136 12       		.uleb128 0x12
 9859 2137 01       		.byte	0x1
 9860 2138 50       		.byte	0x50
 9861 2139 07       		.byte	0x7
 9862 213a 75       		.byte	0x75
 9863 213b 00       		.sleb128 0
 9864 213c 38       		.byte	0x38
 9865 213d 25       		.byte	0x25
 9866 213e 76       		.byte	0x76
 9867 213f 00       		.sleb128 0
 9868 2140 1A       		.byte	0x1a
 9869 2141 12       		.uleb128 0x12
 9870 2142 02       		.byte	0x2
 9871 2143 7D       		.byte	0x7d
 9872 2144 00       		.sleb128 0
 9873 2145 02       		.byte	0x2
 9874 2146 74       		.byte	0x74
 9875 2147 00       		.sleb128 0
 9876 2148 00       		.byte	0
 9877 2149 15       		.uleb128 0x15
 9878 214a 38000000 		.4byte	.LVL459
 9879 214e B61D0000 		.4byte	0x1db6
 9880 2152 74210000 		.4byte	0x2174
 9881 2156 12       		.uleb128 0x12
 9882 2157 01       		.byte	0x1
 9883 2158 52       		.byte	0x52
 9884 2159 01       		.byte	0x1
 9885 215a 32       		.byte	0x32
 9886 215b 12       		.uleb128 0x12
 9887 215c 01       		.byte	0x1
 9888 215d 51       		.byte	0x51
 9889 215e 02       		.byte	0x2
 9890 215f 76       		.byte	0x76
 9891 2160 00       		.sleb128 0
 9892 2161 12       		.uleb128 0x12
 9893 2162 01       		.byte	0x1
 9894 2163 50       		.byte	0x50
ARM GAS  C:\Users\Computer\AppData\Local\Temp\cc1tHs0g.s 			page 192


 9895 2164 07       		.byte	0x7
 9896 2165 75       		.byte	0x75
 9897 2166 00       		.sleb128 0
 9898 2167 34       		.byte	0x34
 9899 2168 25       		.byte	0x25
 9900 2169 76       		.byte	0x76
 9901 216a 00       		.sleb128 0
 9902 216b 1A       		.byte	0x1a
 9903 216c 12       		.uleb128 0x12
 9904 216d 02       		.byte	0x2
 9905 216e 7D       		.byte	0x7d
 9906 216f 00       		.sleb128 0
 9907 2170 02       		.byte	0x2
 9908 2171 74       		.byte	0x74
 9909 2172 00       		.sleb128 0
 9910 2173 00       		.byte	0
 9911 2174 11       		.uleb128 0x11
 9912 2175 48000000 		.4byte	.LVL460
 9913 2179 B61D0000 		.4byte	0x1db6
 9914 217d 12       		.uleb128 0x12
 9915 217e 01       		.byte	0x1
 9916 217f 52       		.byte	0x52
 9917 2180 01       		.byte	0x1
 9918 2181 32       		.byte	0x32
 9919 2182 12       		.uleb128 0x12
 9920 2183 01       		.byte	0x1
 9921 2184 51       		.byte	0x51
 9922 2185 01       		.byte	0x1
 9923 2186 45       		.byte	0x45
 9924 2187 12       		.uleb128 0x12
 9925 2188 01       		.byte	0x1
 9926 2189 50       		.byte	0x50
 9927 218a 05       		.byte	0x5
 9928 218b 76       		.byte	0x76
 9929 218c 00       		.sleb128 0
 9930 218d 75       		.byte	0x75
 9931 218e 00       		.sleb128 0
 9932 218f 1A       		.byte	0x1a
 9933 2190 12       		.uleb128 0x12
 9934 2191 02       		.byte	0x2
 9935 2192 7D       		.byte	0x7d
 9936 2193 00       		.sleb128 0
 9937 2194 02       		.byte	0x2
 9938 2195 74       		.byte	0x74
 9939 2196 00       		.sleb128 0
 9940 2197 00       		.byte	0
 9941 2198 00       		.byte	0
 9942 2199 07       		.uleb128 0x7
 9943 219a 7A000000 		.4byte	0x7a
 9944 219e A9210000 		.4byte	0x21a9
 9945 21a2 08       		.uleb128 0x8
 9946 21a3 B0000000 		.4byte	0xb0
 9947 21a7 03       		.byte	0x3
 9948 21a8 00       		.byte	0
 9949 21a9 16       		.uleb128 0x16
 9950 21aa 01       		.byte	0x1
 9951 21ab E9020000 		.4byte	.LASF63
ARM GAS  C:\Users\Computer\AppData\Local\Temp\cc1tHs0g.s 			page 193


 9952 21af 01       		.byte	0x1
 9953 21b0 0802     		.2byte	0x208
 9954 21b2 01       		.byte	0x1
 9955 21b3 00000000 		.4byte	.LFB65
 9956 21b7 C4000000 		.4byte	.LFE65
 9957 21bb 9D1F0000 		.4byte	.LLST156
 9958 21bf 01       		.byte	0x1
 9959 21c0 56230000 		.4byte	0x2356
 9960 21c4 1B       		.uleb128 0x1b
 9961 21c5 22000000 		.4byte	.LASF64
 9962 21c9 01       		.byte	0x1
 9963 21ca 0802     		.2byte	0x208
 9964 21cc 90000000 		.4byte	0x90
 9965 21d0 D51F0000 		.4byte	.LLST157
 9966 21d4 17       		.uleb128 0x17
 9967 21d5 6800     		.ascii	"h\000"
 9968 21d7 01       		.byte	0x1
 9969 21d8 0802     		.2byte	0x208
 9970 21da 90000000 		.4byte	0x90
 9971 21de 17200000 		.4byte	.LLST158
 9972 21e2 18       		.uleb128 0x18
 9973 21e3 6300     		.ascii	"c\000"
 9974 21e5 01       		.byte	0x1
 9975 21e6 0802     		.2byte	0x208
 9976 21e8 2C010000 		.4byte	0x12c
 9977 21ec 02       		.byte	0x2
 9978 21ed 91       		.byte	0x91
 9979 21ee 54       		.sleb128 -44
 9980 21ef 1B       		.uleb128 0x1b
 9981 21f0 18010000 		.4byte	.LASF18
 9982 21f4 01       		.byte	0x1
 9983 21f5 0802     		.2byte	0x208
 9984 21f7 C4010000 		.4byte	0x1c4
 9985 21fb 43200000 		.4byte	.LLST159
 9986 21ff 1A       		.uleb128 0x1a
 9987 2200 6900     		.ascii	"i\000"
 9988 2202 01       		.byte	0x1
 9989 2203 0A02     		.2byte	0x20a
 9990 2205 6C000000 		.4byte	0x6c
 9991 2209 7A200000 		.4byte	.LLST160
 9992 220d 1D       		.uleb128 0x1d
 9993 220e E3020000 		.4byte	.LASF65
 9994 2212 01       		.byte	0x1
 9995 2213 0B02     		.2byte	0x20b
 9996 2215 2C010000 		.4byte	0x12c
 9997 2219 02       		.byte	0x2
 9998 221a 91       		.byte	0x91
 9999 221b 5C       		.sleb128 -36
 10000 221c 1E       		.uleb128 0x1e
 10001 221d 08010000 		.4byte	.LASF66
 10002 2221 01       		.byte	0x1
 10003 2222 1002     		.2byte	0x210
 10004 2224 90000000 		.4byte	0x90
 10005 2228 0F       		.byte	0xf
 10006 2229 15       		.uleb128 0x15
 10007 222a 3E000000 		.4byte	.LVL467
 10008 222e 78080000 		.4byte	0x878
ARM GAS  C:\Users\Computer\AppData\Local\Temp\cc1tHs0g.s 			page 194


 10009 2232 4F220000 		.4byte	0x224f
 10010 2236 12       		.uleb128 0x12
 10011 2237 01       		.byte	0x1
 10012 2238 52       		.byte	0x52
 10013 2239 02       		.byte	0x2
 10014 223a 75       		.byte	0x75
 10015 223b 00       		.sleb128 0
 10016 223c 12       		.uleb128 0x12
 10017 223d 01       		.byte	0x1
 10018 223e 51       		.byte	0x51
 10019 223f 01       		.byte	0x1
 10020 2240 30       		.byte	0x30
 10021 2241 12       		.uleb128 0x12
 10022 2242 01       		.byte	0x1
 10023 2243 50       		.byte	0x50
 10024 2244 02       		.byte	0x2
 10025 2245 78       		.byte	0x78
 10026 2246 00       		.sleb128 0
 10027 2247 12       		.uleb128 0x12
 10028 2248 02       		.byte	0x2
 10029 2249 7D       		.byte	0x7d
 10030 224a 00       		.sleb128 0
 10031 224b 02       		.byte	0x2
 10032 224c 74       		.byte	0x74
 10033 224d 00       		.sleb128 0
 10034 224e 00       		.byte	0
 10035 224f 15       		.uleb128 0x15
 10036 2250 50000000 		.4byte	.LVL468
 10037 2254 78080000 		.4byte	0x878
 10038 2258 75220000 		.4byte	0x2275
 10039 225c 12       		.uleb128 0x12
 10040 225d 01       		.byte	0x1
 10041 225e 52       		.byte	0x52
 10042 225f 02       		.byte	0x2
 10043 2260 75       		.byte	0x75
 10044 2261 00       		.sleb128 0
 10045 2262 12       		.uleb128 0x12
 10046 2263 01       		.byte	0x1
 10047 2264 51       		.byte	0x51
 10048 2265 01       		.byte	0x1
 10049 2266 30       		.byte	0x30
 10050 2267 12       		.uleb128 0x12
 10051 2268 01       		.byte	0x1
 10052 2269 50       		.byte	0x50
 10053 226a 02       		.byte	0x2
 10054 226b 79       		.byte	0x79
 10055 226c 00       		.sleb128 0
 10056 226d 12       		.uleb128 0x12
 10057 226e 02       		.byte	0x2
 10058 226f 7D       		.byte	0x7d
 10059 2270 00       		.sleb128 0
 10060 2271 02       		.byte	0x2
 10061 2272 74       		.byte	0x74
 10062 2273 00       		.sleb128 0
 10063 2274 00       		.byte	0
 10064 2275 15       		.uleb128 0x15
 10065 2276 66000000 		.4byte	.LVL469
ARM GAS  C:\Users\Computer\AppData\Local\Temp\cc1tHs0g.s 			page 195


 10066 227a 78080000 		.4byte	0x878
 10067 227e 9B220000 		.4byte	0x229b
 10068 2282 12       		.uleb128 0x12
 10069 2283 01       		.byte	0x1
 10070 2284 52       		.byte	0x52
 10071 2285 02       		.byte	0x2
 10072 2286 75       		.byte	0x75
 10073 2287 00       		.sleb128 0
 10074 2288 12       		.uleb128 0x12
 10075 2289 01       		.byte	0x1
 10076 228a 51       		.byte	0x51
 10077 228b 01       		.byte	0x1
 10078 228c 30       		.byte	0x30
 10079 228d 12       		.uleb128 0x12
 10080 228e 01       		.byte	0x1
 10081 228f 50       		.byte	0x50
 10082 2290 02       		.byte	0x2
 10083 2291 77       		.byte	0x77
 10084 2292 00       		.sleb128 0
 10085 2293 12       		.uleb128 0x12
 10086 2294 02       		.byte	0x2
 10087 2295 7D       		.byte	0x7d
 10088 2296 00       		.sleb128 0
 10089 2297 02       		.byte	0x2
 10090 2298 74       		.byte	0x74
 10091 2299 00       		.sleb128 0
 10092 229a 00       		.byte	0
 10093 229b 15       		.uleb128 0x15
 10094 229c 74000000 		.4byte	.LVL470
 10095 22a0 78080000 		.4byte	0x878
 10096 22a4 C1220000 		.4byte	0x22c1
 10097 22a8 12       		.uleb128 0x12
 10098 22a9 01       		.byte	0x1
 10099 22aa 52       		.byte	0x52
 10100 22ab 02       		.byte	0x2
 10101 22ac 75       		.byte	0x75
 10102 22ad 00       		.sleb128 0
 10103 22ae 12       		.uleb128 0x12
 10104 22af 01       		.byte	0x1
 10105 22b0 51       		.byte	0x51
 10106 22b1 01       		.byte	0x1
 10107 22b2 30       		.byte	0x30
 10108 22b3 12       		.uleb128 0x12
 10109 22b4 01       		.byte	0x1
 10110 22b5 50       		.byte	0x50
 10111 22b6 02       		.byte	0x2
 10112 22b7 76       		.byte	0x76
 10113 22b8 00       		.sleb128 0
 10114 22b9 12       		.uleb128 0x12
 10115 22ba 02       		.byte	0x2
 10116 22bb 7D       		.byte	0x7d
 10117 22bc 00       		.sleb128 0
 10118 22bd 02       		.byte	0x2
 10119 22be 74       		.byte	0x74
 10120 22bf 00       		.sleb128 0
 10121 22c0 00       		.byte	0
 10122 22c1 15       		.uleb128 0x15
ARM GAS  C:\Users\Computer\AppData\Local\Temp\cc1tHs0g.s 			page 196


 10123 22c2 8A000000 		.4byte	.LVL471
 10124 22c6 78080000 		.4byte	0x878
 10125 22ca E7220000 		.4byte	0x22e7
 10126 22ce 12       		.uleb128 0x12
 10127 22cf 01       		.byte	0x1
 10128 22d0 52       		.byte	0x52
 10129 22d1 01       		.byte	0x1
 10130 22d2 3F       		.byte	0x3f
 10131 22d3 12       		.uleb128 0x12
 10132 22d4 01       		.byte	0x1
 10133 22d5 51       		.byte	0x51
 10134 22d6 02       		.byte	0x2
 10135 22d7 75       		.byte	0x75
 10136 22d8 00       		.sleb128 0
 10137 22d9 12       		.uleb128 0x12
 10138 22da 01       		.byte	0x1
 10139 22db 50       		.byte	0x50
 10140 22dc 02       		.byte	0x2
 10141 22dd 78       		.byte	0x78
 10142 22de 00       		.sleb128 0
 10143 22df 12       		.uleb128 0x12
 10144 22e0 02       		.byte	0x2
 10145 22e1 7D       		.byte	0x7d
 10146 22e2 00       		.sleb128 0
 10147 22e3 02       		.byte	0x2
 10148 22e4 74       		.byte	0x74
 10149 22e5 00       		.sleb128 0
 10150 22e6 00       		.byte	0
 10151 22e7 15       		.uleb128 0x15
 10152 22e8 98000000 		.4byte	.LVL472
 10153 22ec 78080000 		.4byte	0x878
 10154 22f0 0D230000 		.4byte	0x230d
 10155 22f4 12       		.uleb128 0x12
 10156 22f5 01       		.byte	0x1
 10157 22f6 52       		.byte	0x52
 10158 22f7 01       		.byte	0x1
 10159 22f8 3F       		.byte	0x3f
 10160 22f9 12       		.uleb128 0x12
 10161 22fa 01       		.byte	0x1
 10162 22fb 51       		.byte	0x51
 10163 22fc 02       		.byte	0x2
 10164 22fd 75       		.byte	0x75
 10165 22fe 00       		.sleb128 0
 10166 22ff 12       		.uleb128 0x12
 10167 2300 01       		.byte	0x1
 10168 2301 50       		.byte	0x50
 10169 2302 02       		.byte	0x2
 10170 2303 79       		.byte	0x79
 10171 2304 00       		.sleb128 0
 10172 2305 12       		.uleb128 0x12
 10173 2306 02       		.byte	0x2
 10174 2307 7D       		.byte	0x7d
 10175 2308 00       		.sleb128 0
 10176 2309 02       		.byte	0x2
 10177 230a 74       		.byte	0x74
 10178 230b 00       		.sleb128 0
 10179 230c 00       		.byte	0
ARM GAS  C:\Users\Computer\AppData\Local\Temp\cc1tHs0g.s 			page 197


 10180 230d 15       		.uleb128 0x15
 10181 230e A6000000 		.4byte	.LVL473
 10182 2312 78080000 		.4byte	0x878
 10183 2316 33230000 		.4byte	0x2333
 10184 231a 12       		.uleb128 0x12
 10185 231b 01       		.byte	0x1
 10186 231c 52       		.byte	0x52
 10187 231d 01       		.byte	0x1
 10188 231e 3F       		.byte	0x3f
 10189 231f 12       		.uleb128 0x12
 10190 2320 01       		.byte	0x1
 10191 2321 51       		.byte	0x51
 10192 2322 02       		.byte	0x2
 10193 2323 75       		.byte	0x75
 10194 2324 00       		.sleb128 0
 10195 2325 12       		.uleb128 0x12
 10196 2326 01       		.byte	0x1
 10197 2327 50       		.byte	0x50
 10198 2328 02       		.byte	0x2
 10199 2329 77       		.byte	0x77
 10200 232a 00       		.sleb128 0
 10201 232b 12       		.uleb128 0x12
 10202 232c 02       		.byte	0x2
 10203 232d 7D       		.byte	0x7d
 10204 232e 00       		.sleb128 0
 10205 232f 02       		.byte	0x2
 10206 2330 74       		.byte	0x74
 10207 2331 00       		.sleb128 0
 10208 2332 00       		.byte	0
 10209 2333 11       		.uleb128 0x11
 10210 2334 B4000000 		.4byte	.LVL474
 10211 2338 78080000 		.4byte	0x878
 10212 233c 12       		.uleb128 0x12
 10213 233d 01       		.byte	0x1
 10214 233e 52       		.byte	0x52
 10215 233f 01       		.byte	0x1
 10216 2340 3F       		.byte	0x3f
 10217 2341 12       		.uleb128 0x12
 10218 2342 01       		.byte	0x1
 10219 2343 51       		.byte	0x51
 10220 2344 02       		.byte	0x2
 10221 2345 75       		.byte	0x75
 10222 2346 00       		.sleb128 0
 10223 2347 12       		.uleb128 0x12
 10224 2348 01       		.byte	0x1
 10225 2349 50       		.byte	0x50
 10226 234a 02       		.byte	0x2
 10227 234b 76       		.byte	0x76
 10228 234c 00       		.sleb128 0
 10229 234d 12       		.uleb128 0x12
 10230 234e 02       		.byte	0x2
 10231 234f 7D       		.byte	0x7d
 10232 2350 00       		.sleb128 0
 10233 2351 02       		.byte	0x2
 10234 2352 74       		.byte	0x74
 10235 2353 00       		.sleb128 0
 10236 2354 00       		.byte	0
ARM GAS  C:\Users\Computer\AppData\Local\Temp\cc1tHs0g.s 			page 198


 10237 2355 00       		.byte	0
 10238 2356 1F       		.uleb128 0x1f
 10239 2357 01       		.byte	0x1
 10240 2358 04030000 		.4byte	.LASF74
 10241 235c 01       		.byte	0x1
 10242 235d 2802     		.2byte	0x228
 10243 235f 01       		.byte	0x1
 10244 2360 6C000000 		.4byte	0x6c
 10245 2364 00000000 		.4byte	.LFB66
 10246 2368 6A000000 		.4byte	.LFE66
 10247 236c FA200000 		.4byte	.LLST161
 10248 2370 01       		.byte	0x1
 10249 2371 B4230000 		.4byte	0x23b4
 10250 2375 1B       		.uleb128 0x1b
 10251 2376 1A030000 		.4byte	.LASF67
 10252 237a 01       		.byte	0x1
 10253 237b 2802     		.2byte	0x228
 10254 237d B4230000 		.4byte	0x23b4
 10255 2381 1A210000 		.4byte	.LLST162
 10256 2385 1B       		.uleb128 0x1b
 10257 2386 2D030000 		.4byte	.LASF68
 10258 238a 01       		.byte	0x1
 10259 238b 2802     		.2byte	0x228
 10260 238d BA230000 		.4byte	0x23ba
 10261 2391 54210000 		.4byte	.LLST163
 10262 2395 1A       		.uleb128 0x1a
 10263 2396 6900     		.ascii	"i\000"
 10264 2398 01       		.byte	0x1
 10265 2399 2A02     		.2byte	0x22a
 10266 239b 6C000000 		.4byte	0x6c
 10267 239f 80210000 		.4byte	.LLST164
 10268 23a3 1C       		.uleb128 0x1c
 10269 23a4 1F010000 		.4byte	.LASF69
 10270 23a8 01       		.byte	0x1
 10271 23a9 2B02     		.2byte	0x22b
 10272 23ab 7A000000 		.4byte	0x7a
 10273 23af E8210000 		.4byte	.LLST165
 10274 23b3 00       		.byte	0
 10275 23b4 0F       		.uleb128 0xf
 10276 23b5 04       		.byte	0x4
 10277 23b6 7A000000 		.4byte	0x7a
 10278 23ba 0F       		.uleb128 0xf
 10279 23bb 04       		.byte	0x4
 10280 23bc 85000000 		.4byte	0x85
 10281 23c0 20       		.uleb128 0x20
 10282 23c1 01       		.byte	0x1
 10283 23c2 E7010000 		.4byte	.LASF70
 10284 23c6 01       		.byte	0x1
 10285 23c7 3702     		.2byte	0x237
 10286 23c9 01       		.byte	0x1
 10287 23ca 6C000000 		.4byte	0x6c
 10288 23ce 00000000 		.4byte	.LFB67
 10289 23d2 6A000000 		.4byte	.LFE67
 10290 23d6 8C220000 		.4byte	.LLST166
 10291 23da 01       		.byte	0x1
 10292 23db 1B       		.uleb128 0x1b
 10293 23dc 1A030000 		.4byte	.LASF67
ARM GAS  C:\Users\Computer\AppData\Local\Temp\cc1tHs0g.s 			page 199


 10294 23e0 01       		.byte	0x1
 10295 23e1 3702     		.2byte	0x237
 10296 23e3 B4230000 		.4byte	0x23b4
 10297 23e7 AC220000 		.4byte	.LLST167
 10298 23eb 1B       		.uleb128 0x1b
 10299 23ec 2D030000 		.4byte	.LASF68
 10300 23f0 01       		.byte	0x1
 10301 23f1 3702     		.2byte	0x237
 10302 23f3 BA230000 		.4byte	0x23ba
 10303 23f7 E6220000 		.4byte	.LLST168
 10304 23fb 1A       		.uleb128 0x1a
 10305 23fc 6900     		.ascii	"i\000"
 10306 23fe 01       		.byte	0x1
 10307 23ff 3902     		.2byte	0x239
 10308 2401 6C000000 		.4byte	0x6c
 10309 2405 12230000 		.4byte	.LLST169
 10310 2409 1C       		.uleb128 0x1c
 10311 240a 1F010000 		.4byte	.LASF69
 10312 240e 01       		.byte	0x1
 10313 240f 3A02     		.2byte	0x23a
 10314 2411 7A000000 		.4byte	0x7a
 10315 2415 7A230000 		.4byte	.LLST170
 10316 2419 00       		.byte	0
 10317 241a 00       		.byte	0
 10318              		.section	.debug_abbrev,"",%progbits
 10319              	.Ldebug_abbrev0:
 10320 0000 01       		.uleb128 0x1
 10321 0001 11       		.uleb128 0x11
 10322 0002 01       		.byte	0x1
 10323 0003 25       		.uleb128 0x25
 10324 0004 0E       		.uleb128 0xe
 10325 0005 13       		.uleb128 0x13
 10326 0006 0B       		.uleb128 0xb
 10327 0007 03       		.uleb128 0x3
 10328 0008 0E       		.uleb128 0xe
 10329 0009 1B       		.uleb128 0x1b
 10330 000a 0E       		.uleb128 0xe
 10331 000b 55       		.uleb128 0x55
 10332 000c 06       		.uleb128 0x6
 10333 000d 11       		.uleb128 0x11
 10334 000e 01       		.uleb128 0x1
 10335 000f 52       		.uleb128 0x52
 10336 0010 01       		.uleb128 0x1
 10337 0011 10       		.uleb128 0x10
 10338 0012 06       		.uleb128 0x6
 10339 0013 00       		.byte	0
 10340 0014 00       		.byte	0
 10341 0015 02       		.uleb128 0x2
 10342 0016 24       		.uleb128 0x24
 10343 0017 00       		.byte	0
 10344 0018 0B       		.uleb128 0xb
 10345 0019 0B       		.uleb128 0xb
 10346 001a 3E       		.uleb128 0x3e
 10347 001b 0B       		.uleb128 0xb
 10348 001c 03       		.uleb128 0x3
 10349 001d 0E       		.uleb128 0xe
 10350 001e 00       		.byte	0
ARM GAS  C:\Users\Computer\AppData\Local\Temp\cc1tHs0g.s 			page 200


 10351 001f 00       		.byte	0
 10352 0020 03       		.uleb128 0x3
 10353 0021 16       		.uleb128 0x16
 10354 0022 00       		.byte	0
 10355 0023 03       		.uleb128 0x3
 10356 0024 0E       		.uleb128 0xe
 10357 0025 3A       		.uleb128 0x3a
 10358 0026 0B       		.uleb128 0xb
 10359 0027 3B       		.uleb128 0x3b
 10360 0028 0B       		.uleb128 0xb
 10361 0029 49       		.uleb128 0x49
 10362 002a 13       		.uleb128 0x13
 10363 002b 00       		.byte	0
 10364 002c 00       		.byte	0
 10365 002d 04       		.uleb128 0x4
 10366 002e 24       		.uleb128 0x24
 10367 002f 00       		.byte	0
 10368 0030 0B       		.uleb128 0xb
 10369 0031 0B       		.uleb128 0xb
 10370 0032 3E       		.uleb128 0x3e
 10371 0033 0B       		.uleb128 0xb
 10372 0034 03       		.uleb128 0x3
 10373 0035 08       		.uleb128 0x8
 10374 0036 00       		.byte	0
 10375 0037 00       		.byte	0
 10376 0038 05       		.uleb128 0x5
 10377 0039 13       		.uleb128 0x13
 10378 003a 01       		.byte	0x1
 10379 003b 0B       		.uleb128 0xb
 10380 003c 0B       		.uleb128 0xb
 10381 003d 3A       		.uleb128 0x3a
 10382 003e 0B       		.uleb128 0xb
 10383 003f 3B       		.uleb128 0x3b
 10384 0040 0B       		.uleb128 0xb
 10385 0041 01       		.uleb128 0x1
 10386 0042 13       		.uleb128 0x13
 10387 0043 00       		.byte	0
 10388 0044 00       		.byte	0
 10389 0045 06       		.uleb128 0x6
 10390 0046 0D       		.uleb128 0xd
 10391 0047 00       		.byte	0
 10392 0048 03       		.uleb128 0x3
 10393 0049 08       		.uleb128 0x8
 10394 004a 3A       		.uleb128 0x3a
 10395 004b 0B       		.uleb128 0xb
 10396 004c 3B       		.uleb128 0x3b
 10397 004d 0B       		.uleb128 0xb
 10398 004e 49       		.uleb128 0x49
 10399 004f 13       		.uleb128 0x13
 10400 0050 38       		.uleb128 0x38
 10401 0051 0A       		.uleb128 0xa
 10402 0052 00       		.byte	0
 10403 0053 00       		.byte	0
 10404 0054 07       		.uleb128 0x7
 10405 0055 01       		.uleb128 0x1
 10406 0056 01       		.byte	0x1
 10407 0057 49       		.uleb128 0x49
ARM GAS  C:\Users\Computer\AppData\Local\Temp\cc1tHs0g.s 			page 201


 10408 0058 13       		.uleb128 0x13
 10409 0059 01       		.uleb128 0x1
 10410 005a 13       		.uleb128 0x13
 10411 005b 00       		.byte	0
 10412 005c 00       		.byte	0
 10413 005d 08       		.uleb128 0x8
 10414 005e 21       		.uleb128 0x21
 10415 005f 00       		.byte	0
 10416 0060 49       		.uleb128 0x49
 10417 0061 13       		.uleb128 0x13
 10418 0062 2F       		.uleb128 0x2f
 10419 0063 0B       		.uleb128 0xb
 10420 0064 00       		.byte	0
 10421 0065 00       		.byte	0
 10422 0066 09       		.uleb128 0x9
 10423 0067 16       		.uleb128 0x16
 10424 0068 00       		.byte	0
 10425 0069 03       		.uleb128 0x3
 10426 006a 08       		.uleb128 0x8
 10427 006b 3A       		.uleb128 0x3a
 10428 006c 0B       		.uleb128 0xb
 10429 006d 3B       		.uleb128 0x3b
 10430 006e 0B       		.uleb128 0xb
 10431 006f 49       		.uleb128 0x49
 10432 0070 13       		.uleb128 0x13
 10433 0071 00       		.byte	0
 10434 0072 00       		.byte	0
 10435 0073 0A       		.uleb128 0xa
 10436 0074 2E       		.uleb128 0x2e
 10437 0075 01       		.byte	0x1
 10438 0076 3F       		.uleb128 0x3f
 10439 0077 0C       		.uleb128 0xc
 10440 0078 03       		.uleb128 0x3
 10441 0079 0E       		.uleb128 0xe
 10442 007a 3A       		.uleb128 0x3a
 10443 007b 0B       		.uleb128 0xb
 10444 007c 3B       		.uleb128 0x3b
 10445 007d 0B       		.uleb128 0xb
 10446 007e 27       		.uleb128 0x27
 10447 007f 0C       		.uleb128 0xc
 10448 0080 11       		.uleb128 0x11
 10449 0081 01       		.uleb128 0x1
 10450 0082 12       		.uleb128 0x12
 10451 0083 01       		.uleb128 0x1
 10452 0084 40       		.uleb128 0x40
 10453 0085 06       		.uleb128 0x6
 10454 0086 9742     		.uleb128 0x2117
 10455 0088 0C       		.uleb128 0xc
 10456 0089 01       		.uleb128 0x1
 10457 008a 13       		.uleb128 0x13
 10458 008b 00       		.byte	0
 10459 008c 00       		.byte	0
 10460 008d 0B       		.uleb128 0xb
 10461 008e 05       		.uleb128 0x5
 10462 008f 00       		.byte	0
 10463 0090 03       		.uleb128 0x3
 10464 0091 08       		.uleb128 0x8
ARM GAS  C:\Users\Computer\AppData\Local\Temp\cc1tHs0g.s 			page 202


 10465 0092 3A       		.uleb128 0x3a
 10466 0093 0B       		.uleb128 0xb
 10467 0094 3B       		.uleb128 0x3b
 10468 0095 0B       		.uleb128 0xb
 10469 0096 49       		.uleb128 0x49
 10470 0097 13       		.uleb128 0x13
 10471 0098 02       		.uleb128 0x2
 10472 0099 06       		.uleb128 0x6
 10473 009a 00       		.byte	0
 10474 009b 00       		.byte	0
 10475 009c 0C       		.uleb128 0xc
 10476 009d 05       		.uleb128 0x5
 10477 009e 00       		.byte	0
 10478 009f 03       		.uleb128 0x3
 10479 00a0 0E       		.uleb128 0xe
 10480 00a1 3A       		.uleb128 0x3a
 10481 00a2 0B       		.uleb128 0xb
 10482 00a3 3B       		.uleb128 0x3b
 10483 00a4 0B       		.uleb128 0xb
 10484 00a5 49       		.uleb128 0x49
 10485 00a6 13       		.uleb128 0x13
 10486 00a7 02       		.uleb128 0x2
 10487 00a8 06       		.uleb128 0x6
 10488 00a9 00       		.byte	0
 10489 00aa 00       		.byte	0
 10490 00ab 0D       		.uleb128 0xd
 10491 00ac 34       		.uleb128 0x34
 10492 00ad 00       		.byte	0
 10493 00ae 03       		.uleb128 0x3
 10494 00af 08       		.uleb128 0x8
 10495 00b0 3A       		.uleb128 0x3a
 10496 00b1 0B       		.uleb128 0xb
 10497 00b2 3B       		.uleb128 0x3b
 10498 00b3 0B       		.uleb128 0xb
 10499 00b4 49       		.uleb128 0x49
 10500 00b5 13       		.uleb128 0x13
 10501 00b6 02       		.uleb128 0x2
 10502 00b7 06       		.uleb128 0x6
 10503 00b8 00       		.byte	0
 10504 00b9 00       		.byte	0
 10505 00ba 0E       		.uleb128 0xe
 10506 00bb 34       		.uleb128 0x34
 10507 00bc 00       		.byte	0
 10508 00bd 03       		.uleb128 0x3
 10509 00be 0E       		.uleb128 0xe
 10510 00bf 3A       		.uleb128 0x3a
 10511 00c0 0B       		.uleb128 0xb
 10512 00c1 3B       		.uleb128 0x3b
 10513 00c2 0B       		.uleb128 0xb
 10514 00c3 49       		.uleb128 0x49
 10515 00c4 13       		.uleb128 0x13
 10516 00c5 02       		.uleb128 0x2
 10517 00c6 06       		.uleb128 0x6
 10518 00c7 00       		.byte	0
 10519 00c8 00       		.byte	0
 10520 00c9 0F       		.uleb128 0xf
 10521 00ca 0F       		.uleb128 0xf
ARM GAS  C:\Users\Computer\AppData\Local\Temp\cc1tHs0g.s 			page 203


 10522 00cb 00       		.byte	0
 10523 00cc 0B       		.uleb128 0xb
 10524 00cd 0B       		.uleb128 0xb
 10525 00ce 49       		.uleb128 0x49
 10526 00cf 13       		.uleb128 0x13
 10527 00d0 00       		.byte	0
 10528 00d1 00       		.byte	0
 10529 00d2 10       		.uleb128 0x10
 10530 00d3 05       		.uleb128 0x5
 10531 00d4 00       		.byte	0
 10532 00d5 03       		.uleb128 0x3
 10533 00d6 08       		.uleb128 0x8
 10534 00d7 3A       		.uleb128 0x3a
 10535 00d8 0B       		.uleb128 0xb
 10536 00d9 3B       		.uleb128 0x3b
 10537 00da 0B       		.uleb128 0xb
 10538 00db 49       		.uleb128 0x49
 10539 00dc 13       		.uleb128 0x13
 10540 00dd 02       		.uleb128 0x2
 10541 00de 0A       		.uleb128 0xa
 10542 00df 00       		.byte	0
 10543 00e0 00       		.byte	0
 10544 00e1 11       		.uleb128 0x11
 10545 00e2 898201   		.uleb128 0x4109
 10546 00e5 01       		.byte	0x1
 10547 00e6 11       		.uleb128 0x11
 10548 00e7 01       		.uleb128 0x1
 10549 00e8 31       		.uleb128 0x31
 10550 00e9 13       		.uleb128 0x13
 10551 00ea 00       		.byte	0
 10552 00eb 00       		.byte	0
 10553 00ec 12       		.uleb128 0x12
 10554 00ed 8A8201   		.uleb128 0x410a
 10555 00f0 00       		.byte	0
 10556 00f1 02       		.uleb128 0x2
 10557 00f2 0A       		.uleb128 0xa
 10558 00f3 9142     		.uleb128 0x2111
 10559 00f5 0A       		.uleb128 0xa
 10560 00f6 00       		.byte	0
 10561 00f7 00       		.byte	0
 10562 00f8 13       		.uleb128 0x13
 10563 00f9 05       		.uleb128 0x5
 10564 00fa 00       		.byte	0
 10565 00fb 03       		.uleb128 0x3
 10566 00fc 0E       		.uleb128 0xe
 10567 00fd 3A       		.uleb128 0x3a
 10568 00fe 0B       		.uleb128 0xb
 10569 00ff 3B       		.uleb128 0x3b
 10570 0100 0B       		.uleb128 0xb
 10571 0101 49       		.uleb128 0x49
 10572 0102 13       		.uleb128 0x13
 10573 0103 02       		.uleb128 0x2
 10574 0104 0A       		.uleb128 0xa
 10575 0105 00       		.byte	0
 10576 0106 00       		.byte	0
 10577 0107 14       		.uleb128 0x14
 10578 0108 34       		.uleb128 0x34
ARM GAS  C:\Users\Computer\AppData\Local\Temp\cc1tHs0g.s 			page 204


 10579 0109 00       		.byte	0
 10580 010a 03       		.uleb128 0x3
 10581 010b 0E       		.uleb128 0xe
 10582 010c 3A       		.uleb128 0x3a
 10583 010d 0B       		.uleb128 0xb
 10584 010e 3B       		.uleb128 0x3b
 10585 010f 0B       		.uleb128 0xb
 10586 0110 49       		.uleb128 0x49
 10587 0111 13       		.uleb128 0x13
 10588 0112 02       		.uleb128 0x2
 10589 0113 0A       		.uleb128 0xa
 10590 0114 00       		.byte	0
 10591 0115 00       		.byte	0
 10592 0116 15       		.uleb128 0x15
 10593 0117 898201   		.uleb128 0x4109
 10594 011a 01       		.byte	0x1
 10595 011b 11       		.uleb128 0x11
 10596 011c 01       		.uleb128 0x1
 10597 011d 31       		.uleb128 0x31
 10598 011e 13       		.uleb128 0x13
 10599 011f 01       		.uleb128 0x1
 10600 0120 13       		.uleb128 0x13
 10601 0121 00       		.byte	0
 10602 0122 00       		.byte	0
 10603 0123 16       		.uleb128 0x16
 10604 0124 2E       		.uleb128 0x2e
 10605 0125 01       		.byte	0x1
 10606 0126 3F       		.uleb128 0x3f
 10607 0127 0C       		.uleb128 0xc
 10608 0128 03       		.uleb128 0x3
 10609 0129 0E       		.uleb128 0xe
 10610 012a 3A       		.uleb128 0x3a
 10611 012b 0B       		.uleb128 0xb
 10612 012c 3B       		.uleb128 0x3b
 10613 012d 05       		.uleb128 0x5
 10614 012e 27       		.uleb128 0x27
 10615 012f 0C       		.uleb128 0xc
 10616 0130 11       		.uleb128 0x11
 10617 0131 01       		.uleb128 0x1
 10618 0132 12       		.uleb128 0x12
 10619 0133 01       		.uleb128 0x1
 10620 0134 40       		.uleb128 0x40
 10621 0135 06       		.uleb128 0x6
 10622 0136 9742     		.uleb128 0x2117
 10623 0138 0C       		.uleb128 0xc
 10624 0139 01       		.uleb128 0x1
 10625 013a 13       		.uleb128 0x13
 10626 013b 00       		.byte	0
 10627 013c 00       		.byte	0
 10628 013d 17       		.uleb128 0x17
 10629 013e 05       		.uleb128 0x5
 10630 013f 00       		.byte	0
 10631 0140 03       		.uleb128 0x3
 10632 0141 08       		.uleb128 0x8
 10633 0142 3A       		.uleb128 0x3a
 10634 0143 0B       		.uleb128 0xb
 10635 0144 3B       		.uleb128 0x3b
ARM GAS  C:\Users\Computer\AppData\Local\Temp\cc1tHs0g.s 			page 205


 10636 0145 05       		.uleb128 0x5
 10637 0146 49       		.uleb128 0x49
 10638 0147 13       		.uleb128 0x13
 10639 0148 02       		.uleb128 0x2
 10640 0149 06       		.uleb128 0x6
 10641 014a 00       		.byte	0
 10642 014b 00       		.byte	0
 10643 014c 18       		.uleb128 0x18
 10644 014d 05       		.uleb128 0x5
 10645 014e 00       		.byte	0
 10646 014f 03       		.uleb128 0x3
 10647 0150 08       		.uleb128 0x8
 10648 0151 3A       		.uleb128 0x3a
 10649 0152 0B       		.uleb128 0xb
 10650 0153 3B       		.uleb128 0x3b
 10651 0154 05       		.uleb128 0x5
 10652 0155 49       		.uleb128 0x49
 10653 0156 13       		.uleb128 0x13
 10654 0157 02       		.uleb128 0x2
 10655 0158 0A       		.uleb128 0xa
 10656 0159 00       		.byte	0
 10657 015a 00       		.byte	0
 10658 015b 19       		.uleb128 0x19
 10659 015c 05       		.uleb128 0x5
 10660 015d 00       		.byte	0
 10661 015e 03       		.uleb128 0x3
 10662 015f 0E       		.uleb128 0xe
 10663 0160 3A       		.uleb128 0x3a
 10664 0161 0B       		.uleb128 0xb
 10665 0162 3B       		.uleb128 0x3b
 10666 0163 05       		.uleb128 0x5
 10667 0164 49       		.uleb128 0x49
 10668 0165 13       		.uleb128 0x13
 10669 0166 02       		.uleb128 0x2
 10670 0167 0A       		.uleb128 0xa
 10671 0168 00       		.byte	0
 10672 0169 00       		.byte	0
 10673 016a 1A       		.uleb128 0x1a
 10674 016b 34       		.uleb128 0x34
 10675 016c 00       		.byte	0
 10676 016d 03       		.uleb128 0x3
 10677 016e 08       		.uleb128 0x8
 10678 016f 3A       		.uleb128 0x3a
 10679 0170 0B       		.uleb128 0xb
 10680 0171 3B       		.uleb128 0x3b
 10681 0172 05       		.uleb128 0x5
 10682 0173 49       		.uleb128 0x49
 10683 0174 13       		.uleb128 0x13
 10684 0175 02       		.uleb128 0x2
 10685 0176 06       		.uleb128 0x6
 10686 0177 00       		.byte	0
 10687 0178 00       		.byte	0
 10688 0179 1B       		.uleb128 0x1b
 10689 017a 05       		.uleb128 0x5
 10690 017b 00       		.byte	0
 10691 017c 03       		.uleb128 0x3
 10692 017d 0E       		.uleb128 0xe
ARM GAS  C:\Users\Computer\AppData\Local\Temp\cc1tHs0g.s 			page 206


 10693 017e 3A       		.uleb128 0x3a
 10694 017f 0B       		.uleb128 0xb
 10695 0180 3B       		.uleb128 0x3b
 10696 0181 05       		.uleb128 0x5
 10697 0182 49       		.uleb128 0x49
 10698 0183 13       		.uleb128 0x13
 10699 0184 02       		.uleb128 0x2
 10700 0185 06       		.uleb128 0x6
 10701 0186 00       		.byte	0
 10702 0187 00       		.byte	0
 10703 0188 1C       		.uleb128 0x1c
 10704 0189 34       		.uleb128 0x34
 10705 018a 00       		.byte	0
 10706 018b 03       		.uleb128 0x3
 10707 018c 0E       		.uleb128 0xe
 10708 018d 3A       		.uleb128 0x3a
 10709 018e 0B       		.uleb128 0xb
 10710 018f 3B       		.uleb128 0x3b
 10711 0190 05       		.uleb128 0x5
 10712 0191 49       		.uleb128 0x49
 10713 0192 13       		.uleb128 0x13
 10714 0193 02       		.uleb128 0x2
 10715 0194 06       		.uleb128 0x6
 10716 0195 00       		.byte	0
 10717 0196 00       		.byte	0
 10718 0197 1D       		.uleb128 0x1d
 10719 0198 34       		.uleb128 0x34
 10720 0199 00       		.byte	0
 10721 019a 03       		.uleb128 0x3
 10722 019b 0E       		.uleb128 0xe
 10723 019c 3A       		.uleb128 0x3a
 10724 019d 0B       		.uleb128 0xb
 10725 019e 3B       		.uleb128 0x3b
 10726 019f 05       		.uleb128 0x5
 10727 01a0 49       		.uleb128 0x49
 10728 01a1 13       		.uleb128 0x13
 10729 01a2 02       		.uleb128 0x2
 10730 01a3 0A       		.uleb128 0xa
 10731 01a4 00       		.byte	0
 10732 01a5 00       		.byte	0
 10733 01a6 1E       		.uleb128 0x1e
 10734 01a7 34       		.uleb128 0x34
 10735 01a8 00       		.byte	0
 10736 01a9 03       		.uleb128 0x3
 10737 01aa 0E       		.uleb128 0xe
 10738 01ab 3A       		.uleb128 0x3a
 10739 01ac 0B       		.uleb128 0xb
 10740 01ad 3B       		.uleb128 0x3b
 10741 01ae 05       		.uleb128 0x5
 10742 01af 49       		.uleb128 0x49
 10743 01b0 13       		.uleb128 0x13
 10744 01b1 1C       		.uleb128 0x1c
 10745 01b2 0B       		.uleb128 0xb
 10746 01b3 00       		.byte	0
 10747 01b4 00       		.byte	0
 10748 01b5 1F       		.uleb128 0x1f
 10749 01b6 2E       		.uleb128 0x2e
ARM GAS  C:\Users\Computer\AppData\Local\Temp\cc1tHs0g.s 			page 207


 10750 01b7 01       		.byte	0x1
 10751 01b8 3F       		.uleb128 0x3f
 10752 01b9 0C       		.uleb128 0xc
 10753 01ba 03       		.uleb128 0x3
 10754 01bb 0E       		.uleb128 0xe
 10755 01bc 3A       		.uleb128 0x3a
 10756 01bd 0B       		.uleb128 0xb
 10757 01be 3B       		.uleb128 0x3b
 10758 01bf 05       		.uleb128 0x5
 10759 01c0 27       		.uleb128 0x27
 10760 01c1 0C       		.uleb128 0xc
 10761 01c2 49       		.uleb128 0x49
 10762 01c3 13       		.uleb128 0x13
 10763 01c4 11       		.uleb128 0x11
 10764 01c5 01       		.uleb128 0x1
 10765 01c6 12       		.uleb128 0x12
 10766 01c7 01       		.uleb128 0x1
 10767 01c8 40       		.uleb128 0x40
 10768 01c9 06       		.uleb128 0x6
 10769 01ca 9742     		.uleb128 0x2117
 10770 01cc 0C       		.uleb128 0xc
 10771 01cd 01       		.uleb128 0x1
 10772 01ce 13       		.uleb128 0x13
 10773 01cf 00       		.byte	0
 10774 01d0 00       		.byte	0
 10775 01d1 20       		.uleb128 0x20
 10776 01d2 2E       		.uleb128 0x2e
 10777 01d3 01       		.byte	0x1
 10778 01d4 3F       		.uleb128 0x3f
 10779 01d5 0C       		.uleb128 0xc
 10780 01d6 03       		.uleb128 0x3
 10781 01d7 0E       		.uleb128 0xe
 10782 01d8 3A       		.uleb128 0x3a
 10783 01d9 0B       		.uleb128 0xb
 10784 01da 3B       		.uleb128 0x3b
 10785 01db 05       		.uleb128 0x5
 10786 01dc 27       		.uleb128 0x27
 10787 01dd 0C       		.uleb128 0xc
 10788 01de 49       		.uleb128 0x49
 10789 01df 13       		.uleb128 0x13
 10790 01e0 11       		.uleb128 0x11
 10791 01e1 01       		.uleb128 0x1
 10792 01e2 12       		.uleb128 0x12
 10793 01e3 01       		.uleb128 0x1
 10794 01e4 40       		.uleb128 0x40
 10795 01e5 06       		.uleb128 0x6
 10796 01e6 9742     		.uleb128 0x2117
 10797 01e8 0C       		.uleb128 0xc
 10798 01e9 00       		.byte	0
 10799 01ea 00       		.byte	0
 10800 01eb 00       		.byte	0
 10801              		.section	.debug_loc,"",%progbits
 10802              	.Ldebug_loc0:
 10803              	.LLST0:
 10804 0000 00000000 		.4byte	.LFB34
 10805 0004 02000000 		.4byte	.LCFI0
 10806 0008 0200     		.2byte	0x2
ARM GAS  C:\Users\Computer\AppData\Local\Temp\cc1tHs0g.s 			page 208


 10807 000a 7D       		.byte	0x7d
 10808 000b 00       		.sleb128 0
 10809 000c 02000000 		.4byte	.LCFI0
 10810 0010 78000000 		.4byte	.LFE34
 10811 0014 0200     		.2byte	0x2
 10812 0016 7D       		.byte	0x7d
 10813 0017 08       		.sleb128 8
 10814 0018 00000000 		.4byte	0
 10815 001c 00000000 		.4byte	0
 10816              	.LLST1:
 10817 0020 00000000 		.4byte	.LVL0
 10818 0024 12000000 		.4byte	.LVL2
 10819 0028 0100     		.2byte	0x1
 10820 002a 50       		.byte	0x50
 10821 002b 12000000 		.4byte	.LVL2
 10822 002f 78000000 		.4byte	.LFE34
 10823 0033 0400     		.2byte	0x4
 10824 0035 F3       		.byte	0xf3
 10825 0036 01       		.uleb128 0x1
 10826 0037 50       		.byte	0x50
 10827 0038 9F       		.byte	0x9f
 10828 0039 00000000 		.4byte	0
 10829 003d 00000000 		.4byte	0
 10830              	.LLST2:
 10831 0041 00000000 		.4byte	.LVL0
 10832 0045 08000000 		.4byte	.LVL1
 10833 0049 0100     		.2byte	0x1
 10834 004b 51       		.byte	0x51
 10835 004c 08000000 		.4byte	.LVL1
 10836 0050 78000000 		.4byte	.LFE34
 10837 0054 0400     		.2byte	0x4
 10838 0056 F3       		.byte	0xf3
 10839 0057 01       		.uleb128 0x1
 10840 0058 51       		.byte	0x51
 10841 0059 9F       		.byte	0x9f
 10842 005a 00000000 		.4byte	0
 10843 005e 00000000 		.4byte	0
 10844              	.LLST3:
 10845 0062 00000000 		.4byte	.LVL0
 10846 0066 18000000 		.4byte	.LVL3
 10847 006a 0100     		.2byte	0x1
 10848 006c 52       		.byte	0x52
 10849 006d 18000000 		.4byte	.LVL3
 10850 0071 78000000 		.4byte	.LFE34
 10851 0075 0400     		.2byte	0x4
 10852 0077 F3       		.byte	0xf3
 10853 0078 01       		.uleb128 0x1
 10854 0079 52       		.byte	0x52
 10855 007a 9F       		.byte	0x9f
 10856 007b 00000000 		.4byte	0
 10857 007f 00000000 		.4byte	0
 10858              	.LLST4:
 10859 0083 00000000 		.4byte	.LVL0
 10860 0087 32000000 		.4byte	.LVL4
 10861 008b 0200     		.2byte	0x2
 10862 008d 30       		.byte	0x30
 10863 008e 9F       		.byte	0x9f
ARM GAS  C:\Users\Computer\AppData\Local\Temp\cc1tHs0g.s 			page 209


 10864 008f 32000000 		.4byte	.LVL4
 10865 0093 44000000 		.4byte	.LVL5
 10866 0097 0200     		.2byte	0x2
 10867 0099 31       		.byte	0x31
 10868 009a 9F       		.byte	0x9f
 10869 009b 44000000 		.4byte	.LVL5
 10870 009f 56000000 		.4byte	.LVL6
 10871 00a3 0200     		.2byte	0x2
 10872 00a5 32       		.byte	0x32
 10873 00a6 9F       		.byte	0x9f
 10874 00a7 56000000 		.4byte	.LVL6
 10875 00ab 68000000 		.4byte	.LVL7
 10876 00af 0200     		.2byte	0x2
 10877 00b1 33       		.byte	0x33
 10878 00b2 9F       		.byte	0x9f
 10879 00b3 68000000 		.4byte	.LVL7
 10880 00b7 76000000 		.4byte	.LVL8
 10881 00bb 0200     		.2byte	0x2
 10882 00bd 34       		.byte	0x34
 10883 00be 9F       		.byte	0x9f
 10884 00bf 76000000 		.4byte	.LVL8
 10885 00c3 78000000 		.4byte	.LFE34
 10886 00c7 0200     		.2byte	0x2
 10887 00c9 35       		.byte	0x35
 10888 00ca 9F       		.byte	0x9f
 10889 00cb 00000000 		.4byte	0
 10890 00cf 00000000 		.4byte	0
 10891              	.LLST5:
 10892 00d3 00000000 		.4byte	.LVL0
 10893 00d7 08000000 		.4byte	.LVL1
 10894 00db 0A00     		.2byte	0xa
 10895 00dd 71       		.byte	0x71
 10896 00de 00       		.sleb128 0
 10897 00df 32       		.byte	0x32
 10898 00e0 24       		.byte	0x24
 10899 00e1 70       		.byte	0x70
 10900 00e2 00       		.sleb128 0
 10901 00e3 33       		.byte	0x33
 10902 00e4 25       		.byte	0x25
 10903 00e5 22       		.byte	0x22
 10904 00e6 9F       		.byte	0x9f
 10905 00e7 00000000 		.4byte	0
 10906 00eb 00000000 		.4byte	0
 10907              	.LLST6:
 10908 00ef 00000000 		.4byte	.LVL0
 10909 00f3 08000000 		.4byte	.LVL1
 10910 00f7 0500     		.2byte	0x5
 10911 00f9 71       		.byte	0x71
 10912 00fa 00       		.sleb128 0
 10913 00fb 32       		.byte	0x32
 10914 00fc 24       		.byte	0x24
 10915 00fd 9F       		.byte	0x9f
 10916 00fe 00000000 		.4byte	0
 10917 0102 00000000 		.4byte	0
 10918              	.LLST7:
 10919 0106 00000000 		.4byte	.LVL0
 10920 010a 12000000 		.4byte	.LVL2
ARM GAS  C:\Users\Computer\AppData\Local\Temp\cc1tHs0g.s 			page 210


 10921 010e 0500     		.2byte	0x5
 10922 0110 70       		.byte	0x70
 10923 0111 00       		.sleb128 0
 10924 0112 33       		.byte	0x33
 10925 0113 25       		.byte	0x25
 10926 0114 9F       		.byte	0x9f
 10927 0115 00000000 		.4byte	0
 10928 0119 00000000 		.4byte	0
 10929              	.LLST8:
 10930 011d 00000000 		.4byte	.LVL0
 10931 0121 12000000 		.4byte	.LVL2
 10932 0125 0500     		.2byte	0x5
 10933 0127 70       		.byte	0x70
 10934 0128 00       		.sleb128 0
 10935 0129 37       		.byte	0x37
 10936 012a 1A       		.byte	0x1a
 10937 012b 9F       		.byte	0x9f
 10938 012c 00000000 		.4byte	0
 10939 0130 00000000 		.4byte	0
 10940              	.LLST9:
 10941 0134 00000000 		.4byte	.LFB33
 10942 0138 02000000 		.4byte	.LCFI1
 10943 013c 0200     		.2byte	0x2
 10944 013e 7D       		.byte	0x7d
 10945 013f 00       		.sleb128 0
 10946 0140 02000000 		.4byte	.LCFI1
 10947 0144 06000000 		.4byte	.LCFI2
 10948 0148 0200     		.2byte	0x2
 10949 014a 7D       		.byte	0x7d
 10950 014b 14       		.sleb128 20
 10951 014c 06000000 		.4byte	.LCFI2
 10952 0150 F6000000 		.4byte	.LFE33
 10953 0154 0200     		.2byte	0x2
 10954 0156 7D       		.byte	0x7d
 10955 0157 20       		.sleb128 32
 10956 0158 00000000 		.4byte	0
 10957 015c 00000000 		.4byte	0
 10958              	.LLST10:
 10959 0160 00000000 		.4byte	.LVL9
 10960 0164 15000000 		.4byte	.LVL13-1
 10961 0168 0100     		.2byte	0x1
 10962 016a 50       		.byte	0x50
 10963 016b 15000000 		.4byte	.LVL13-1
 10964 016f F6000000 		.4byte	.LFE33
 10965 0173 0400     		.2byte	0x4
 10966 0175 F3       		.byte	0xf3
 10967 0176 01       		.uleb128 0x1
 10968 0177 50       		.byte	0x50
 10969 0178 9F       		.byte	0x9f
 10970 0179 00000000 		.4byte	0
 10971 017d 00000000 		.4byte	0
 10972              	.LLST11:
 10973 0181 00000000 		.4byte	.LVL9
 10974 0185 0C000000 		.4byte	.LVL11
 10975 0189 0100     		.2byte	0x1
 10976 018b 51       		.byte	0x51
 10977 018c 0C000000 		.4byte	.LVL11
ARM GAS  C:\Users\Computer\AppData\Local\Temp\cc1tHs0g.s 			page 211


 10978 0190 24000000 		.4byte	.LVL15
 10979 0194 0100     		.2byte	0x1
 10980 0196 57       		.byte	0x57
 10981 0197 24000000 		.4byte	.LVL15
 10982 019b F6000000 		.4byte	.LFE33
 10983 019f 0400     		.2byte	0x4
 10984 01a1 F3       		.byte	0xf3
 10985 01a2 01       		.uleb128 0x1
 10986 01a3 51       		.byte	0x51
 10987 01a4 9F       		.byte	0x9f
 10988 01a5 00000000 		.4byte	0
 10989 01a9 00000000 		.4byte	0
 10990              	.LLST12:
 10991 01ad 00000000 		.4byte	.LVL9
 10992 01b1 15000000 		.4byte	.LVL13-1
 10993 01b5 0100     		.2byte	0x1
 10994 01b7 53       		.byte	0x53
 10995 01b8 15000000 		.4byte	.LVL13-1
 10996 01bc 36000000 		.4byte	.LVL16
 10997 01c0 0100     		.2byte	0x1
 10998 01c2 56       		.byte	0x56
 10999 01c3 36000000 		.4byte	.LVL16
 11000 01c7 F6000000 		.4byte	.LFE33
 11001 01cb 0400     		.2byte	0x4
 11002 01cd F3       		.byte	0xf3
 11003 01ce 01       		.uleb128 0x1
 11004 01cf 53       		.byte	0x53
 11005 01d0 9F       		.byte	0x9f
 11006 01d1 00000000 		.4byte	0
 11007 01d5 00000000 		.4byte	0
 11008              	.LLST13:
 11009 01d9 00000000 		.4byte	.LVL9
 11010 01dd 60000000 		.4byte	.LVL17
 11011 01e1 0200     		.2byte	0x2
 11012 01e3 30       		.byte	0x30
 11013 01e4 9F       		.byte	0x9f
 11014 01e5 60000000 		.4byte	.LVL17
 11015 01e9 84000000 		.4byte	.LVL18
 11016 01ed 0200     		.2byte	0x2
 11017 01ef 31       		.byte	0x31
 11018 01f0 9F       		.byte	0x9f
 11019 01f1 84000000 		.4byte	.LVL18
 11020 01f5 A8000000 		.4byte	.LVL19
 11021 01f9 0200     		.2byte	0x2
 11022 01fb 32       		.byte	0x32
 11023 01fc 9F       		.byte	0x9f
 11024 01fd A8000000 		.4byte	.LVL19
 11025 0201 DC000000 		.4byte	.LVL20
 11026 0205 0200     		.2byte	0x2
 11027 0207 33       		.byte	0x33
 11028 0208 9F       		.byte	0x9f
 11029 0209 DC000000 		.4byte	.LVL20
 11030 020d F2000000 		.4byte	.LVL21
 11031 0211 0200     		.2byte	0x2
 11032 0213 34       		.byte	0x34
 11033 0214 9F       		.byte	0x9f
 11034 0215 F2000000 		.4byte	.LVL21
ARM GAS  C:\Users\Computer\AppData\Local\Temp\cc1tHs0g.s 			page 212


 11035 0219 F6000000 		.4byte	.LFE33
 11036 021d 0200     		.2byte	0x2
 11037 021f 35       		.byte	0x35
 11038 0220 9F       		.byte	0x9f
 11039 0221 00000000 		.4byte	0
 11040 0225 00000000 		.4byte	0
 11041              	.LLST14:
 11042 0229 04000000 		.4byte	.LVL10
 11043 022d 10000000 		.4byte	.LVL12
 11044 0231 0A00     		.2byte	0xa
 11045 0233 77       		.byte	0x77
 11046 0234 00       		.sleb128 0
 11047 0235 32       		.byte	0x32
 11048 0236 24       		.byte	0x24
 11049 0237 70       		.byte	0x70
 11050 0238 00       		.sleb128 0
 11051 0239 38       		.byte	0x38
 11052 023a 1B       		.byte	0x1b
 11053 023b 22       		.byte	0x22
 11054 023c 9F       		.byte	0x9f
 11055 023d 10000000 		.4byte	.LVL12
 11056 0241 1C000000 		.4byte	.LVL14
 11057 0245 0A00     		.2byte	0xa
 11058 0247 77       		.byte	0x77
 11059 0248 00       		.sleb128 0
 11060 0249 32       		.byte	0x32
 11061 024a 24       		.byte	0x24
 11062 024b 74       		.byte	0x74
 11063 024c 00       		.sleb128 0
 11064 024d 38       		.byte	0x38
 11065 024e 1B       		.byte	0x1b
 11066 024f 22       		.byte	0x22
 11067 0250 9F       		.byte	0x9f
 11068 0251 00000000 		.4byte	0
 11069 0255 00000000 		.4byte	0
 11070              	.LLST15:
 11071 0259 04000000 		.4byte	.LVL10
 11072 025d 24000000 		.4byte	.LVL15
 11073 0261 0500     		.2byte	0x5
 11074 0263 77       		.byte	0x77
 11075 0264 00       		.sleb128 0
 11076 0265 32       		.byte	0x32
 11077 0266 24       		.byte	0x24
 11078 0267 9F       		.byte	0x9f
 11079 0268 24000000 		.4byte	.LVL15
 11080 026c F6000000 		.4byte	.LFE33
 11081 0270 0600     		.2byte	0x6
 11082 0272 F3       		.byte	0xf3
 11083 0273 01       		.uleb128 0x1
 11084 0274 51       		.byte	0x51
 11085 0275 32       		.byte	0x32
 11086 0276 24       		.byte	0x24
 11087 0277 9F       		.byte	0x9f
 11088 0278 00000000 		.4byte	0
 11089 027c 00000000 		.4byte	0
 11090              	.LLST16:
 11091 0280 04000000 		.4byte	.LVL10
ARM GAS  C:\Users\Computer\AppData\Local\Temp\cc1tHs0g.s 			page 213


 11092 0284 10000000 		.4byte	.LVL12
 11093 0288 0500     		.2byte	0x5
 11094 028a 70       		.byte	0x70
 11095 028b 00       		.sleb128 0
 11096 028c 38       		.byte	0x38
 11097 028d 1B       		.byte	0x1b
 11098 028e 9F       		.byte	0x9f
 11099 028f 10000000 		.4byte	.LVL12
 11100 0293 1C000000 		.4byte	.LVL14
 11101 0297 0500     		.2byte	0x5
 11102 0299 74       		.byte	0x74
 11103 029a 00       		.sleb128 0
 11104 029b 38       		.byte	0x38
 11105 029c 1B       		.byte	0x1b
 11106 029d 9F       		.byte	0x9f
 11107 029e 00000000 		.4byte	0
 11108 02a2 00000000 		.4byte	0
 11109              	.LLST17:
 11110 02a6 04000000 		.4byte	.LVL10
 11111 02aa 10000000 		.4byte	.LVL12
 11112 02ae 0900     		.2byte	0x9
 11113 02b0 70       		.byte	0x70
 11114 02b1 00       		.sleb128 0
 11115 02b2 38       		.byte	0x38
 11116 02b3 14       		.byte	0x14
 11117 02b4 14       		.byte	0x14
 11118 02b5 1B       		.byte	0x1b
 11119 02b6 1E       		.byte	0x1e
 11120 02b7 1C       		.byte	0x1c
 11121 02b8 9F       		.byte	0x9f
 11122 02b9 10000000 		.4byte	.LVL12
 11123 02bd 1C000000 		.4byte	.LVL14
 11124 02c1 0900     		.2byte	0x9
 11125 02c3 74       		.byte	0x74
 11126 02c4 00       		.sleb128 0
 11127 02c5 38       		.byte	0x38
 11128 02c6 14       		.byte	0x14
 11129 02c7 14       		.byte	0x14
 11130 02c8 1B       		.byte	0x1b
 11131 02c9 1E       		.byte	0x1e
 11132 02ca 1C       		.byte	0x1c
 11133 02cb 9F       		.byte	0x9f
 11134 02cc 00000000 		.4byte	0
 11135 02d0 00000000 		.4byte	0
 11136              	.LLST18:
 11137 02d4 00000000 		.4byte	.LFB35
 11138 02d8 02000000 		.4byte	.LCFI3
 11139 02dc 0200     		.2byte	0x2
 11140 02de 7D       		.byte	0x7d
 11141 02df 00       		.sleb128 0
 11142 02e0 02000000 		.4byte	.LCFI3
 11143 02e4 4E000000 		.4byte	.LFE35
 11144 02e8 0200     		.2byte	0x2
 11145 02ea 7D       		.byte	0x7d
 11146 02eb 04       		.sleb128 4
 11147 02ec 00000000 		.4byte	0
 11148 02f0 00000000 		.4byte	0
ARM GAS  C:\Users\Computer\AppData\Local\Temp\cc1tHs0g.s 			page 214


 11149              	.LLST19:
 11150 02f4 00000000 		.4byte	.LVL22
 11151 02f8 06000000 		.4byte	.LVL23
 11152 02fc 0100     		.2byte	0x1
 11153 02fe 50       		.byte	0x50
 11154 02ff 06000000 		.4byte	.LVL23
 11155 0303 4E000000 		.4byte	.LFE35
 11156 0307 0400     		.2byte	0x4
 11157 0309 F3       		.byte	0xf3
 11158 030a 01       		.uleb128 0x1
 11159 030b 50       		.byte	0x50
 11160 030c 9F       		.byte	0x9f
 11161 030d 00000000 		.4byte	0
 11162 0311 00000000 		.4byte	0
 11163              	.LLST20:
 11164 0315 06000000 		.4byte	.LVL23
 11165 0319 10000000 		.4byte	.LVL24
 11166 031d 0200     		.2byte	0x2
 11167 031f 30       		.byte	0x30
 11168 0320 9F       		.byte	0x9f
 11169 0321 10000000 		.4byte	.LVL24
 11170 0325 16000000 		.4byte	.LVL25
 11171 0329 0200     		.2byte	0x2
 11172 032b 31       		.byte	0x31
 11173 032c 9F       		.byte	0x9f
 11174 032d 16000000 		.4byte	.LVL25
 11175 0331 1C000000 		.4byte	.LVL26
 11176 0335 0200     		.2byte	0x2
 11177 0337 32       		.byte	0x32
 11178 0338 9F       		.byte	0x9f
 11179 0339 1C000000 		.4byte	.LVL26
 11180 033d 22000000 		.4byte	.LVL27
 11181 0341 0200     		.2byte	0x2
 11182 0343 33       		.byte	0x33
 11183 0344 9F       		.byte	0x9f
 11184 0345 22000000 		.4byte	.LVL27
 11185 0349 28000000 		.4byte	.LVL28
 11186 034d 0200     		.2byte	0x2
 11187 034f 34       		.byte	0x34
 11188 0350 9F       		.byte	0x9f
 11189 0351 28000000 		.4byte	.LVL28
 11190 0355 2E000000 		.4byte	.LVL29
 11191 0359 0200     		.2byte	0x2
 11192 035b 30       		.byte	0x30
 11193 035c 9F       		.byte	0x9f
 11194 035d 2E000000 		.4byte	.LVL29
 11195 0361 34000000 		.4byte	.LVL30
 11196 0365 0200     		.2byte	0x2
 11197 0367 31       		.byte	0x31
 11198 0368 9F       		.byte	0x9f
 11199 0369 34000000 		.4byte	.LVL30
 11200 036d 3A000000 		.4byte	.LVL31
 11201 0371 0200     		.2byte	0x2
 11202 0373 32       		.byte	0x32
 11203 0374 9F       		.byte	0x9f
 11204 0375 3A000000 		.4byte	.LVL31
 11205 0379 40000000 		.4byte	.LVL32
ARM GAS  C:\Users\Computer\AppData\Local\Temp\cc1tHs0g.s 			page 215


 11206 037d 0200     		.2byte	0x2
 11207 037f 33       		.byte	0x33
 11208 0380 9F       		.byte	0x9f
 11209 0381 40000000 		.4byte	.LVL32
 11210 0385 46000000 		.4byte	.LVL33
 11211 0389 0200     		.2byte	0x2
 11212 038b 34       		.byte	0x34
 11213 038c 9F       		.byte	0x9f
 11214 038d 46000000 		.4byte	.LVL33
 11215 0391 4E000000 		.4byte	.LFE35
 11216 0395 0200     		.2byte	0x2
 11217 0397 35       		.byte	0x35
 11218 0398 9F       		.byte	0x9f
 11219 0399 00000000 		.4byte	0
 11220 039d 00000000 		.4byte	0
 11221              	.LLST21:
 11222 03a1 00000000 		.4byte	.LVL22
 11223 03a5 06000000 		.4byte	.LVL23
 11224 03a9 0200     		.2byte	0x2
 11225 03ab 30       		.byte	0x30
 11226 03ac 9F       		.byte	0x9f
 11227 03ad 00000000 		.4byte	0
 11228 03b1 00000000 		.4byte	0
 11229              	.LLST22:
 11230 03b5 00000000 		.4byte	.LFB36
 11231 03b9 02000000 		.4byte	.LCFI4
 11232 03bd 0200     		.2byte	0x2
 11233 03bf 7D       		.byte	0x7d
 11234 03c0 00       		.sleb128 0
 11235 03c1 02000000 		.4byte	.LCFI4
 11236 03c5 0C000000 		.4byte	.LCFI5
 11237 03c9 0200     		.2byte	0x2
 11238 03cb 7D       		.byte	0x7d
 11239 03cc 14       		.sleb128 20
 11240 03cd 0C000000 		.4byte	.LCFI5
 11241 03d1 14000000 		.4byte	.LCFI6
 11242 03d5 0200     		.2byte	0x2
 11243 03d7 7D       		.byte	0x7d
 11244 03d8 24       		.sleb128 36
 11245 03d9 14000000 		.4byte	.LCFI6
 11246 03dd 66010000 		.4byte	.LFE36
 11247 03e1 0300     		.2byte	0x3
 11248 03e3 7D       		.byte	0x7d
 11249 03e4 C000     		.sleb128 64
 11250 03e6 00000000 		.4byte	0
 11251 03ea 00000000 		.4byte	0
 11252              	.LLST23:
 11253 03ee 00000000 		.4byte	.LVL34
 11254 03f2 24000000 		.4byte	.LVL37
 11255 03f6 0100     		.2byte	0x1
 11256 03f8 50       		.byte	0x50
 11257 03f9 24000000 		.4byte	.LVL37
 11258 03fd 66010000 		.4byte	.LFE36
 11259 0401 0400     		.2byte	0x4
 11260 0403 F3       		.byte	0xf3
 11261 0404 01       		.uleb128 0x1
 11262 0405 50       		.byte	0x50
ARM GAS  C:\Users\Computer\AppData\Local\Temp\cc1tHs0g.s 			page 216


 11263 0406 9F       		.byte	0x9f
 11264 0407 00000000 		.4byte	0
 11265 040b 00000000 		.4byte	0
 11266              	.LLST24:
 11267 040f 00000000 		.4byte	.LVL34
 11268 0413 12000000 		.4byte	.LVL35
 11269 0417 0100     		.2byte	0x1
 11270 0419 51       		.byte	0x51
 11271 041a 12000000 		.4byte	.LVL35
 11272 041e 66010000 		.4byte	.LFE36
 11273 0422 0400     		.2byte	0x4
 11274 0424 F3       		.byte	0xf3
 11275 0425 01       		.uleb128 0x1
 11276 0426 51       		.byte	0x51
 11277 0427 9F       		.byte	0x9f
 11278 0428 00000000 		.4byte	0
 11279 042c 00000000 		.4byte	0
 11280              	.LLST25:
 11281 0430 00000000 		.4byte	.LVL34
 11282 0434 18000000 		.4byte	.LVL36
 11283 0438 0100     		.2byte	0x1
 11284 043a 52       		.byte	0x52
 11285 043b 18000000 		.4byte	.LVL36
 11286 043f 66010000 		.4byte	.LFE36
 11287 0443 0400     		.2byte	0x4
 11288 0445 F3       		.byte	0xf3
 11289 0446 01       		.uleb128 0x1
 11290 0447 52       		.byte	0x52
 11291 0448 9F       		.byte	0x9f
 11292 0449 00000000 		.4byte	0
 11293 044d 00000000 		.4byte	0
 11294              	.LLST26:
 11295 0451 28000000 		.4byte	.LVL38
 11296 0455 2A000000 		.4byte	.LVL39
 11297 0459 0100     		.2byte	0x1
 11298 045b 50       		.byte	0x50
 11299 045c 2A000000 		.4byte	.LVL39
 11300 0460 7C000000 		.4byte	.LVL45
 11301 0464 0100     		.2byte	0x1
 11302 0466 57       		.byte	0x57
 11303 0467 98000000 		.4byte	.LVL47
 11304 046b AA000000 		.4byte	.LVL49
 11305 046f 0100     		.2byte	0x1
 11306 0471 57       		.byte	0x57
 11307 0472 AA000000 		.4byte	.LVL49
 11308 0476 AC000000 		.4byte	.LVL50
 11309 047a 0100     		.2byte	0x1
 11310 047c 51       		.byte	0x51
 11311 047d AC000000 		.4byte	.LVL50
 11312 0481 58010000 		.4byte	.LVL61
 11313 0485 0100     		.2byte	0x1
 11314 0487 57       		.byte	0x57
 11315 0488 00000000 		.4byte	0
 11316 048c 00000000 		.4byte	0
 11317              	.LLST27:
 11318 0490 28000000 		.4byte	.LVL38
 11319 0494 7C000000 		.4byte	.LVL45
ARM GAS  C:\Users\Computer\AppData\Local\Temp\cc1tHs0g.s 			page 217


 11320 0498 0200     		.2byte	0x2
 11321 049a 31       		.byte	0x31
 11322 049b 9F       		.byte	0x9f
 11323 049c 9E000000 		.4byte	.LVL48
 11324 04a0 52010000 		.4byte	.LVL59
 11325 04a4 0700     		.2byte	0x7
 11326 04a6 75       		.byte	0x75
 11327 04a7 00       		.sleb128 0
 11328 04a8 31       		.byte	0x31
 11329 04a9 24       		.byte	0x24
 11330 04aa 23       		.byte	0x23
 11331 04ab 01       		.uleb128 0x1
 11332 04ac 9F       		.byte	0x9f
 11333 04ad 52010000 		.4byte	.LVL59
 11334 04b1 54010000 		.4byte	.LVL60
 11335 04b5 0700     		.2byte	0x7
 11336 04b7 75       		.byte	0x75
 11337 04b8 7F       		.sleb128 -1
 11338 04b9 31       		.byte	0x31
 11339 04ba 24       		.byte	0x24
 11340 04bb 23       		.byte	0x23
 11341 04bc 01       		.uleb128 0x1
 11342 04bd 9F       		.byte	0x9f
 11343 04be 00000000 		.4byte	0
 11344 04c2 00000000 		.4byte	0
 11345              	.LLST28:
 11346 04c6 32000000 		.4byte	.LVL40
 11347 04ca 7C000000 		.4byte	.LVL45
 11348 04ce 0200     		.2byte	0x2
 11349 04d0 30       		.byte	0x30
 11350 04d1 9F       		.byte	0x9f
 11351 04d2 9E000000 		.4byte	.LVL48
 11352 04d6 58010000 		.4byte	.LVL61
 11353 04da 0200     		.2byte	0x2
 11354 04dc 91       		.byte	0x91
 11355 04dd 4C       		.sleb128 -52
 11356 04de 00000000 		.4byte	0
 11357 04e2 00000000 		.4byte	0
 11358              	.LLST29:
 11359 04e6 32000000 		.4byte	.LVL40
 11360 04ea 7C000000 		.4byte	.LVL45
 11361 04ee 0100     		.2byte	0x1
 11362 04f0 58       		.byte	0x58
 11363 04f1 94000000 		.4byte	.LVL46
 11364 04f5 58010000 		.4byte	.LVL61
 11365 04f9 0200     		.2byte	0x2
 11366 04fb 91       		.byte	0x91
 11367 04fc 44       		.sleb128 -60
 11368 04fd 00000000 		.4byte	0
 11369 0501 00000000 		.4byte	0
 11370              	.LLST30:
 11371 0505 00000000 		.4byte	.LFB37
 11372 0509 02000000 		.4byte	.LCFI7
 11373 050d 0200     		.2byte	0x2
 11374 050f 7D       		.byte	0x7d
 11375 0510 00       		.sleb128 0
 11376 0511 02000000 		.4byte	.LCFI7
ARM GAS  C:\Users\Computer\AppData\Local\Temp\cc1tHs0g.s 			page 218


 11377 0515 0C000000 		.4byte	.LCFI8
 11378 0519 0200     		.2byte	0x2
 11379 051b 7D       		.byte	0x7d
 11380 051c 14       		.sleb128 20
 11381 051d 0C000000 		.4byte	.LCFI8
 11382 0521 1C000000 		.4byte	.LCFI9
 11383 0525 0200     		.2byte	0x2
 11384 0527 7D       		.byte	0x7d
 11385 0528 24       		.sleb128 36
 11386 0529 1C000000 		.4byte	.LCFI9
 11387 052d 76010000 		.4byte	.LFE37
 11388 0531 0300     		.2byte	0x3
 11389 0533 7D       		.byte	0x7d
 11390 0534 C000     		.sleb128 64
 11391 0536 00000000 		.4byte	0
 11392 053a 00000000 		.4byte	0
 11393              	.LLST31:
 11394 053e 00000000 		.4byte	.LVL62
 11395 0542 4E000000 		.4byte	.LVL66
 11396 0546 0100     		.2byte	0x1
 11397 0548 50       		.byte	0x50
 11398 0549 4E000000 		.4byte	.LVL66
 11399 054d 68010000 		.4byte	.LVL87
 11400 0551 0100     		.2byte	0x1
 11401 0553 59       		.byte	0x59
 11402 0554 68010000 		.4byte	.LVL87
 11403 0558 76010000 		.4byte	.LFE37
 11404 055c 0400     		.2byte	0x4
 11405 055e F3       		.byte	0xf3
 11406 055f 01       		.uleb128 0x1
 11407 0560 50       		.byte	0x50
 11408 0561 9F       		.byte	0x9f
 11409 0562 00000000 		.4byte	0
 11410 0566 00000000 		.4byte	0
 11411              	.LLST32:
 11412 056a 00000000 		.4byte	.LVL62
 11413 056e 4E000000 		.4byte	.LVL66
 11414 0572 0100     		.2byte	0x1
 11415 0574 51       		.byte	0x51
 11416 0575 4E000000 		.4byte	.LVL66
 11417 0579 68010000 		.4byte	.LVL87
 11418 057d 0100     		.2byte	0x1
 11419 057f 58       		.byte	0x58
 11420 0580 68010000 		.4byte	.LVL87
 11421 0584 76010000 		.4byte	.LFE37
 11422 0588 0400     		.2byte	0x4
 11423 058a F3       		.byte	0xf3
 11424 058b 01       		.uleb128 0x1
 11425 058c 51       		.byte	0x51
 11426 058d 9F       		.byte	0x9f
 11427 058e 00000000 		.4byte	0
 11428 0592 00000000 		.4byte	0
 11429              	.LLST33:
 11430 0596 00000000 		.4byte	.LVL62
 11431 059a 4E000000 		.4byte	.LVL66
 11432 059e 0100     		.2byte	0x1
 11433 05a0 52       		.byte	0x52
ARM GAS  C:\Users\Computer\AppData\Local\Temp\cc1tHs0g.s 			page 219


 11434 05a1 4E000000 		.4byte	.LVL66
 11435 05a5 76010000 		.4byte	.LFE37
 11436 05a9 0400     		.2byte	0x4
 11437 05ab F3       		.byte	0xf3
 11438 05ac 01       		.uleb128 0x1
 11439 05ad 52       		.byte	0x52
 11440 05ae 9F       		.byte	0x9f
 11441 05af 00000000 		.4byte	0
 11442 05b3 00000000 		.4byte	0
 11443              	.LLST34:
 11444 05b7 00000000 		.4byte	.LVL62
 11445 05bb 4E000000 		.4byte	.LVL66
 11446 05bf 0100     		.2byte	0x1
 11447 05c1 53       		.byte	0x53
 11448 05c2 4E000000 		.4byte	.LVL66
 11449 05c6 76010000 		.4byte	.LFE37
 11450 05ca 0400     		.2byte	0x4
 11451 05cc F3       		.byte	0xf3
 11452 05cd 01       		.uleb128 0x1
 11453 05ce 53       		.byte	0x53
 11454 05cf 9F       		.byte	0x9f
 11455 05d0 00000000 		.4byte	0
 11456 05d4 00000000 		.4byte	0
 11457              	.LLST35:
 11458 05d8 14000000 		.4byte	.LVL63
 11459 05dc 16000000 		.4byte	.LVL64
 11460 05e0 0100     		.2byte	0x1
 11461 05e2 56       		.byte	0x56
 11462 05e3 16000000 		.4byte	.LVL64
 11463 05e7 4E000000 		.4byte	.LVL66
 11464 05eb 0100     		.2byte	0x1
 11465 05ed 55       		.byte	0x55
 11466 05ee 4E000000 		.4byte	.LVL66
 11467 05f2 50000000 		.4byte	.LVL67
 11468 05f6 0100     		.2byte	0x1
 11469 05f8 50       		.byte	0x50
 11470 05f9 50000000 		.4byte	.LVL67
 11471 05fd 6E000000 		.4byte	.LVL71
 11472 0601 0100     		.2byte	0x1
 11473 0603 55       		.byte	0x55
 11474 0604 86000000 		.4byte	.LVL73
 11475 0608 94000000 		.4byte	.LVL75
 11476 060c 0100     		.2byte	0x1
 11477 060e 55       		.byte	0x55
 11478 060f 94000000 		.4byte	.LVL75
 11479 0613 A4000000 		.4byte	.LVL76
 11480 0617 0100     		.2byte	0x1
 11481 0619 50       		.byte	0x50
 11482 061a A4000000 		.4byte	.LVL76
 11483 061e 68010000 		.4byte	.LVL87
 11484 0622 0100     		.2byte	0x1
 11485 0624 55       		.byte	0x55
 11486 0625 00000000 		.4byte	0
 11487 0629 00000000 		.4byte	0
 11488              	.LLST36:
 11489 062d 14000000 		.4byte	.LVL63
 11490 0631 4E000000 		.4byte	.LVL66
ARM GAS  C:\Users\Computer\AppData\Local\Temp\cc1tHs0g.s 			page 220


 11491 0635 0200     		.2byte	0x2
 11492 0637 31       		.byte	0x31
 11493 0638 9F       		.byte	0x9f
 11494 0639 4E000000 		.4byte	.LVL66
 11495 063d 64000000 		.4byte	.LVL69
 11496 0641 0700     		.2byte	0x7
 11497 0643 74       		.byte	0x74
 11498 0644 00       		.sleb128 0
 11499 0645 31       		.byte	0x31
 11500 0646 24       		.byte	0x24
 11501 0647 23       		.byte	0x23
 11502 0648 01       		.uleb128 0x1
 11503 0649 9F       		.byte	0x9f
 11504 064a 64000000 		.4byte	.LVL69
 11505 064e 6A000000 		.4byte	.LVL70
 11506 0652 0700     		.2byte	0x7
 11507 0654 74       		.byte	0x74
 11508 0655 7F       		.sleb128 -1
 11509 0656 31       		.byte	0x31
 11510 0657 24       		.byte	0x24
 11511 0658 23       		.byte	0x23
 11512 0659 01       		.uleb128 0x1
 11513 065a 9F       		.byte	0x9f
 11514 065b 92000000 		.4byte	.LVL74
 11515 065f 5E010000 		.4byte	.LVL85
 11516 0663 0700     		.2byte	0x7
 11517 0665 74       		.byte	0x74
 11518 0666 00       		.sleb128 0
 11519 0667 31       		.byte	0x31
 11520 0668 24       		.byte	0x24
 11521 0669 23       		.byte	0x23
 11522 066a 01       		.uleb128 0x1
 11523 066b 9F       		.byte	0x9f
 11524 066c 5E010000 		.4byte	.LVL85
 11525 0670 64010000 		.4byte	.LVL86
 11526 0674 0700     		.2byte	0x7
 11527 0676 74       		.byte	0x74
 11528 0677 7F       		.sleb128 -1
 11529 0678 31       		.byte	0x31
 11530 0679 24       		.byte	0x24
 11531 067a 23       		.byte	0x23
 11532 067b 01       		.uleb128 0x1
 11533 067c 9F       		.byte	0x9f
 11534 067d 00000000 		.4byte	0
 11535 0681 00000000 		.4byte	0
 11536              	.LLST37:
 11537 0685 22000000 		.4byte	.LVL65
 11538 0689 4E000000 		.4byte	.LVL66
 11539 068d 0200     		.2byte	0x2
 11540 068f 30       		.byte	0x30
 11541 0690 9F       		.byte	0x9f
 11542 0691 4E000000 		.4byte	.LVL66
 11543 0695 60000000 		.4byte	.LVL68
 11544 0699 0100     		.2byte	0x1
 11545 069b 54       		.byte	0x54
 11546 069c 60000000 		.4byte	.LVL68
 11547 06a0 6E000000 		.4byte	.LVL71
ARM GAS  C:\Users\Computer\AppData\Local\Temp\cc1tHs0g.s 			page 221


 11548 06a4 0100     		.2byte	0x1
 11549 06a6 5A       		.byte	0x5a
 11550 06a7 92000000 		.4byte	.LVL74
 11551 06ab 5A010000 		.4byte	.LVL84
 11552 06af 0100     		.2byte	0x1
 11553 06b1 54       		.byte	0x54
 11554 06b2 5A010000 		.4byte	.LVL84
 11555 06b6 68010000 		.4byte	.LVL87
 11556 06ba 0100     		.2byte	0x1
 11557 06bc 5A       		.byte	0x5a
 11558 06bd 00000000 		.4byte	0
 11559 06c1 00000000 		.4byte	0
 11560              	.LLST38:
 11561 06c5 22000000 		.4byte	.LVL65
 11562 06c9 4E000000 		.4byte	.LVL66
 11563 06cd 0100     		.2byte	0x1
 11564 06cf 52       		.byte	0x52
 11565 06d0 4E000000 		.4byte	.LVL66
 11566 06d4 6E000000 		.4byte	.LVL71
 11567 06d8 0100     		.2byte	0x1
 11568 06da 56       		.byte	0x56
 11569 06db 82000000 		.4byte	.LVL72
 11570 06df 68010000 		.4byte	.LVL87
 11571 06e3 0100     		.2byte	0x1
 11572 06e5 56       		.byte	0x56
 11573 06e6 00000000 		.4byte	0
 11574 06ea 00000000 		.4byte	0
 11575              	.LLST39:
 11576 06ee 00000000 		.4byte	.LFB38
 11577 06f2 02000000 		.4byte	.LCFI10
 11578 06f6 0200     		.2byte	0x2
 11579 06f8 7D       		.byte	0x7d
 11580 06f9 00       		.sleb128 0
 11581 06fa 02000000 		.4byte	.LCFI10
 11582 06fe 0C000000 		.4byte	.LCFI11
 11583 0702 0200     		.2byte	0x2
 11584 0704 7D       		.byte	0x7d
 11585 0705 14       		.sleb128 20
 11586 0706 0C000000 		.4byte	.LCFI11
 11587 070a 0E000000 		.4byte	.LCFI12
 11588 070e 0200     		.2byte	0x2
 11589 0710 7D       		.byte	0x7d
 11590 0711 24       		.sleb128 36
 11591 0712 0E000000 		.4byte	.LCFI12
 11592 0716 00020000 		.4byte	.LFE38
 11593 071a 0200     		.2byte	0x2
 11594 071c 7D       		.byte	0x7d
 11595 071d 30       		.sleb128 48
 11596 071e 00000000 		.4byte	0
 11597 0722 00000000 		.4byte	0
 11598              	.LLST40:
 11599 0726 00000000 		.4byte	.LVL88
 11600 072a 14000000 		.4byte	.LVL89
 11601 072e 0100     		.2byte	0x1
 11602 0730 50       		.byte	0x50
 11603 0731 14000000 		.4byte	.LVL89
 11604 0735 3E000000 		.4byte	.LVL92
ARM GAS  C:\Users\Computer\AppData\Local\Temp\cc1tHs0g.s 			page 222


 11605 0739 0400     		.2byte	0x4
 11606 073b F3       		.byte	0xf3
 11607 073c 01       		.uleb128 0x1
 11608 073d 50       		.byte	0x50
 11609 073e 9F       		.byte	0x9f
 11610 073f 3E000000 		.4byte	.LVL92
 11611 0743 A6000000 		.4byte	.LVL104
 11612 0747 0100     		.2byte	0x1
 11613 0749 54       		.byte	0x54
 11614 074a A6000000 		.4byte	.LVL104
 11615 074e A8000000 		.4byte	.LVL105
 11616 0752 0300     		.2byte	0x3
 11617 0754 74       		.byte	0x74
 11618 0755 7F       		.sleb128 -1
 11619 0756 9F       		.byte	0x9f
 11620 0757 98010000 		.4byte	.LVL124
 11621 075b A0010000 		.4byte	.LVL126
 11622 075f 0100     		.2byte	0x1
 11623 0761 54       		.byte	0x54
 11624 0762 A0010000 		.4byte	.LVL126
 11625 0766 A6010000 		.4byte	.LVL129
 11626 076a 0100     		.2byte	0x1
 11627 076c 50       		.byte	0x50
 11628 076d A6010000 		.4byte	.LVL129
 11629 0771 B0010000 		.4byte	.LVL131
 11630 0775 0400     		.2byte	0x4
 11631 0777 F3       		.byte	0xf3
 11632 0778 01       		.uleb128 0x1
 11633 0779 50       		.byte	0x50
 11634 077a 9F       		.byte	0x9f
 11635 077b B0010000 		.4byte	.LVL131
 11636 077f D8010000 		.4byte	.LVL137
 11637 0783 0100     		.2byte	0x1
 11638 0785 54       		.byte	0x54
 11639 0786 00000000 		.4byte	0
 11640 078a 00000000 		.4byte	0
 11641              	.LLST41:
 11642 078e 00000000 		.4byte	.LVL88
 11643 0792 2A000000 		.4byte	.LVL90
 11644 0796 0100     		.2byte	0x1
 11645 0798 51       		.byte	0x51
 11646 0799 2A000000 		.4byte	.LVL90
 11647 079d 3E000000 		.4byte	.LVL92
 11648 07a1 0400     		.2byte	0x4
 11649 07a3 F3       		.byte	0xf3
 11650 07a4 01       		.uleb128 0x1
 11651 07a5 51       		.byte	0x51
 11652 07a6 9F       		.byte	0x9f
 11653 07a7 3E000000 		.4byte	.LVL92
 11654 07ab DE000000 		.4byte	.LVL108
 11655 07af 0100     		.2byte	0x1
 11656 07b1 55       		.byte	0x55
 11657 07b2 00010000 		.4byte	.LVL112
 11658 07b6 08010000 		.4byte	.LVL113
 11659 07ba 0100     		.2byte	0x1
 11660 07bc 55       		.byte	0x55
 11661 07bd 22010000 		.4byte	.LVL115
ARM GAS  C:\Users\Computer\AppData\Local\Temp\cc1tHs0g.s 			page 223


 11662 07c1 2A010000 		.4byte	.LVL116
 11663 07c5 0100     		.2byte	0x1
 11664 07c7 55       		.byte	0x55
 11665 07c8 54010000 		.4byte	.LVL118
 11666 07cc 5C010000 		.4byte	.LVL119
 11667 07d0 0100     		.2byte	0x1
 11668 07d2 55       		.byte	0x55
 11669 07d3 84010000 		.4byte	.LVL121
 11670 07d7 8A010000 		.4byte	.LVL122
 11671 07db 0100     		.2byte	0x1
 11672 07dd 55       		.byte	0x55
 11673 07de 98010000 		.4byte	.LVL124
 11674 07e2 9E010000 		.4byte	.LVL125
 11675 07e6 0100     		.2byte	0x1
 11676 07e8 55       		.byte	0x55
 11677 07e9 9E010000 		.4byte	.LVL125
 11678 07ed A6010000 		.4byte	.LVL129
 11679 07f1 0100     		.2byte	0x1
 11680 07f3 56       		.byte	0x56
 11681 07f4 A6010000 		.4byte	.LVL129
 11682 07f8 B0010000 		.4byte	.LVL131
 11683 07fc 0400     		.2byte	0x4
 11684 07fe F3       		.byte	0xf3
 11685 07ff 01       		.uleb128 0x1
 11686 0800 51       		.byte	0x51
 11687 0801 9F       		.byte	0x9f
 11688 0802 B0010000 		.4byte	.LVL131
 11689 0806 D2010000 		.4byte	.LVL135
 11690 080a 0100     		.2byte	0x1
 11691 080c 55       		.byte	0x55
 11692 080d D4010000 		.4byte	.LVL136
 11693 0811 FA010000 		.4byte	.LVL139
 11694 0815 0100     		.2byte	0x1
 11695 0817 55       		.byte	0x55
 11696 0818 FC010000 		.4byte	.LVL140
 11697 081c 00020000 		.4byte	.LFE38
 11698 0820 0100     		.2byte	0x1
 11699 0822 55       		.byte	0x55
 11700 0823 00000000 		.4byte	0
 11701 0827 00000000 		.4byte	0
 11702              	.LLST42:
 11703 082b 00000000 		.4byte	.LVL88
 11704 082f 3E000000 		.4byte	.LVL92
 11705 0833 0100     		.2byte	0x1
 11706 0835 52       		.byte	0x52
 11707 0836 3E000000 		.4byte	.LVL92
 11708 083a E2000000 		.4byte	.LVL109
 11709 083e 0100     		.2byte	0x1
 11710 0840 57       		.byte	0x57
 11711 0841 E2000000 		.4byte	.LVL109
 11712 0845 E6000000 		.4byte	.LVL110
 11713 0849 0100     		.2byte	0x1
 11714 084b 51       		.byte	0x51
 11715 084c E6000000 		.4byte	.LVL110
 11716 0850 8A010000 		.4byte	.LVL122
 11717 0854 0100     		.2byte	0x1
 11718 0856 59       		.byte	0x59
ARM GAS  C:\Users\Computer\AppData\Local\Temp\cc1tHs0g.s 			page 224


 11719 0857 98010000 		.4byte	.LVL124
 11720 085b A4010000 		.4byte	.LVL128
 11721 085f 0100     		.2byte	0x1
 11722 0861 57       		.byte	0x57
 11723 0862 A4010000 		.4byte	.LVL128
 11724 0866 A6010000 		.4byte	.LVL129
 11725 086a 0100     		.2byte	0x1
 11726 086c 54       		.byte	0x54
 11727 086d A6010000 		.4byte	.LVL129
 11728 0871 AC010000 		.4byte	.LVL130
 11729 0875 0100     		.2byte	0x1
 11730 0877 52       		.byte	0x52
 11731 0878 AC010000 		.4byte	.LVL130
 11732 087c B0010000 		.4byte	.LVL131
 11733 0880 0400     		.2byte	0x4
 11734 0882 F3       		.byte	0xf3
 11735 0883 01       		.uleb128 0x1
 11736 0884 52       		.byte	0x52
 11737 0885 9F       		.byte	0x9f
 11738 0886 B0010000 		.4byte	.LVL131
 11739 088a 00020000 		.4byte	.LFE38
 11740 088e 0100     		.2byte	0x1
 11741 0890 57       		.byte	0x57
 11742 0891 00000000 		.4byte	0
 11743 0895 00000000 		.4byte	0
 11744              	.LLST43:
 11745 0899 00000000 		.4byte	.LVL88
 11746 089d 3C000000 		.4byte	.LVL91
 11747 08a1 0100     		.2byte	0x1
 11748 08a3 53       		.byte	0x53
 11749 08a4 3C000000 		.4byte	.LVL91
 11750 08a8 3E000000 		.4byte	.LVL92
 11751 08ac 0400     		.2byte	0x4
 11752 08ae F3       		.byte	0xf3
 11753 08af 01       		.uleb128 0x1
 11754 08b0 53       		.byte	0x53
 11755 08b1 9F       		.byte	0x9f
 11756 08b2 3E000000 		.4byte	.LVL92
 11757 08b6 6C000000 		.4byte	.LVL98
 11758 08ba 0100     		.2byte	0x1
 11759 08bc 53       		.byte	0x53
 11760 08bd 98010000 		.4byte	.LVL124
 11761 08c1 A2010000 		.4byte	.LVL127
 11762 08c5 0100     		.2byte	0x1
 11763 08c7 53       		.byte	0x53
 11764 08c8 A2010000 		.4byte	.LVL127
 11765 08cc A6010000 		.4byte	.LVL129
 11766 08d0 0100     		.2byte	0x1
 11767 08d2 55       		.byte	0x55
 11768 08d3 A6010000 		.4byte	.LVL129
 11769 08d7 B0010000 		.4byte	.LVL131
 11770 08db 0100     		.2byte	0x1
 11771 08dd 53       		.byte	0x53
 11772 08de 00000000 		.4byte	0
 11773 08e2 00000000 		.4byte	0
 11774              	.LLST44:
 11775 08e6 56000000 		.4byte	.LVL94
ARM GAS  C:\Users\Computer\AppData\Local\Temp\cc1tHs0g.s 			page 225


 11776 08ea 5E000000 		.4byte	.LVL96
 11777 08ee 0100     		.2byte	0x1
 11778 08f0 56       		.byte	0x56
 11779 08f1 5E000000 		.4byte	.LVL96
 11780 08f5 8C010000 		.4byte	.LVL123
 11781 08f9 0100     		.2byte	0x1
 11782 08fb 5B       		.byte	0x5b
 11783 08fc B0010000 		.4byte	.LVL131
 11784 0900 00020000 		.4byte	.LFE38
 11785 0904 0100     		.2byte	0x1
 11786 0906 5B       		.byte	0x5b
 11787 0907 00000000 		.4byte	0
 11788 090b 00000000 		.4byte	0
 11789              	.LLST45:
 11790 090f 5A000000 		.4byte	.LVL95
 11791 0913 7A000000 		.4byte	.LVL100
 11792 0917 0100     		.2byte	0x1
 11793 0919 52       		.byte	0x52
 11794 091a 00000000 		.4byte	0
 11795 091e 00000000 		.4byte	0
 11796              	.LLST46:
 11797 0922 64000000 		.4byte	.LVL97
 11798 0926 6E000000 		.4byte	.LVL99
 11799 092a 0100     		.2byte	0x1
 11800 092c 50       		.byte	0x50
 11801 092d 6E000000 		.4byte	.LVL99
 11802 0931 98000000 		.4byte	.LVL102
 11803 0935 0100     		.2byte	0x1
 11804 0937 56       		.byte	0x56
 11805 0938 98000000 		.4byte	.LVL102
 11806 093c A4000000 		.4byte	.LVL103
 11807 0940 1200     		.2byte	0x12
 11808 0942 7B       		.byte	0x7b
 11809 0943 00       		.sleb128 0
 11810 0944 48       		.byte	0x48
 11811 0945 24       		.byte	0x24
 11812 0946 48       		.byte	0x48
 11813 0947 26       		.byte	0x26
 11814 0948 4F       		.byte	0x4f
 11815 0949 25       		.byte	0x25
 11816 094a 7B       		.byte	0x7b
 11817 094b 00       		.sleb128 0
 11818 094c 48       		.byte	0x48
 11819 094d 24       		.byte	0x24
 11820 094e 48       		.byte	0x48
 11821 094f 26       		.byte	0x26
 11822 0950 22       		.byte	0x22
 11823 0951 31       		.byte	0x31
 11824 0952 26       		.byte	0x26
 11825 0953 9F       		.byte	0x9f
 11826 0954 B0010000 		.4byte	.LVL131
 11827 0958 C0010000 		.4byte	.LVL133
 11828 095c 0100     		.2byte	0x1
 11829 095e 56       		.byte	0x56
 11830 095f C0010000 		.4byte	.LVL133
 11831 0963 CC010000 		.4byte	.LVL134
 11832 0967 1200     		.2byte	0x12
ARM GAS  C:\Users\Computer\AppData\Local\Temp\cc1tHs0g.s 			page 226


 11833 0969 7B       		.byte	0x7b
 11834 096a 00       		.sleb128 0
 11835 096b 48       		.byte	0x48
 11836 096c 24       		.byte	0x24
 11837 096d 48       		.byte	0x48
 11838 096e 26       		.byte	0x26
 11839 096f 4F       		.byte	0x4f
 11840 0970 25       		.byte	0x25
 11841 0971 7B       		.byte	0x7b
 11842 0972 00       		.sleb128 0
 11843 0973 48       		.byte	0x48
 11844 0974 24       		.byte	0x24
 11845 0975 48       		.byte	0x48
 11846 0976 26       		.byte	0x26
 11847 0977 22       		.byte	0x22
 11848 0978 31       		.byte	0x31
 11849 0979 26       		.byte	0x26
 11850 097a 9F       		.byte	0x9f
 11851 097b 00000000 		.4byte	0
 11852 097f 00000000 		.4byte	0
 11853              	.LLST47:
 11854 0983 6E000000 		.4byte	.LVL99
 11855 0987 A8000000 		.4byte	.LVL105
 11856 098b 0200     		.2byte	0x2
 11857 098d 7D       		.byte	0x7d
 11858 098e 00       		.sleb128 0
 11859 098f B0010000 		.4byte	.LVL131
 11860 0993 D8010000 		.4byte	.LVL137
 11861 0997 0200     		.2byte	0x2
 11862 0999 7D       		.byte	0x7d
 11863 099a 00       		.sleb128 0
 11864 099b 00000000 		.4byte	0
 11865 099f 00000000 		.4byte	0
 11866              	.LLST48:
 11867 09a3 00000000 		.4byte	.LFB40
 11868 09a7 02000000 		.4byte	.LCFI13
 11869 09ab 0200     		.2byte	0x2
 11870 09ad 7D       		.byte	0x7d
 11871 09ae 00       		.sleb128 0
 11872 09af 02000000 		.4byte	.LCFI13
 11873 09b3 04000000 		.4byte	.LCFI14
 11874 09b7 0200     		.2byte	0x2
 11875 09b9 7D       		.byte	0x7d
 11876 09ba 10       		.sleb128 16
 11877 09bb 04000000 		.4byte	.LCFI14
 11878 09bf 24000000 		.4byte	.LFE40
 11879 09c3 0200     		.2byte	0x2
 11880 09c5 7D       		.byte	0x7d
 11881 09c6 20       		.sleb128 32
 11882 09c7 00000000 		.4byte	0
 11883 09cb 00000000 		.4byte	0
 11884              	.LLST49:
 11885 09cf 00000000 		.4byte	.LVL141
 11886 09d3 0A000000 		.4byte	.LVL142
 11887 09d7 0100     		.2byte	0x1
 11888 09d9 50       		.byte	0x50
 11889 09da 0A000000 		.4byte	.LVL142
ARM GAS  C:\Users\Computer\AppData\Local\Temp\cc1tHs0g.s 			page 227


 11890 09de 24000000 		.4byte	.LFE40
 11891 09e2 0400     		.2byte	0x4
 11892 09e4 F3       		.byte	0xf3
 11893 09e5 01       		.uleb128 0x1
 11894 09e6 50       		.byte	0x50
 11895 09e7 9F       		.byte	0x9f
 11896 09e8 00000000 		.4byte	0
 11897 09ec 00000000 		.4byte	0
 11898              	.LLST50:
 11899 09f0 00000000 		.4byte	.LVL141
 11900 09f4 1F000000 		.4byte	.LVL144-1
 11901 09f8 0100     		.2byte	0x1
 11902 09fa 51       		.byte	0x51
 11903 09fb 1F000000 		.4byte	.LVL144-1
 11904 09ff 24000000 		.4byte	.LFE40
 11905 0a03 0400     		.2byte	0x4
 11906 0a05 F3       		.byte	0xf3
 11907 0a06 01       		.uleb128 0x1
 11908 0a07 51       		.byte	0x51
 11909 0a08 9F       		.byte	0x9f
 11910 0a09 00000000 		.4byte	0
 11911 0a0d 00000000 		.4byte	0
 11912              	.LLST51:
 11913 0a11 00000000 		.4byte	.LVL141
 11914 0a15 14000000 		.4byte	.LVL143
 11915 0a19 0100     		.2byte	0x1
 11916 0a1b 52       		.byte	0x52
 11917 0a1c 14000000 		.4byte	.LVL143
 11918 0a20 24000000 		.4byte	.LFE40
 11919 0a24 0400     		.2byte	0x4
 11920 0a26 F3       		.byte	0xf3
 11921 0a27 01       		.uleb128 0x1
 11922 0a28 52       		.byte	0x52
 11923 0a29 9F       		.byte	0x9f
 11924 0a2a 00000000 		.4byte	0
 11925 0a2e 00000000 		.4byte	0
 11926              	.LLST52:
 11927 0a32 00000000 		.4byte	.LFB41
 11928 0a36 02000000 		.4byte	.LCFI15
 11929 0a3a 0200     		.2byte	0x2
 11930 0a3c 7D       		.byte	0x7d
 11931 0a3d 00       		.sleb128 0
 11932 0a3e 02000000 		.4byte	.LCFI15
 11933 0a42 04000000 		.4byte	.LCFI16
 11934 0a46 0200     		.2byte	0x2
 11935 0a48 7D       		.byte	0x7d
 11936 0a49 0C       		.sleb128 12
 11937 0a4a 04000000 		.4byte	.LCFI16
 11938 0a4e 24000000 		.4byte	.LFE41
 11939 0a52 0200     		.2byte	0x2
 11940 0a54 7D       		.byte	0x7d
 11941 0a55 20       		.sleb128 32
 11942 0a56 00000000 		.4byte	0
 11943 0a5a 00000000 		.4byte	0
 11944              	.LLST53:
 11945 0a5e 00000000 		.4byte	.LVL145
 11946 0a62 1F000000 		.4byte	.LVL148-1
ARM GAS  C:\Users\Computer\AppData\Local\Temp\cc1tHs0g.s 			page 228


 11947 0a66 0100     		.2byte	0x1
 11948 0a68 50       		.byte	0x50
 11949 0a69 1F000000 		.4byte	.LVL148-1
 11950 0a6d 24000000 		.4byte	.LFE41
 11951 0a71 0400     		.2byte	0x4
 11952 0a73 F3       		.byte	0xf3
 11953 0a74 01       		.uleb128 0x1
 11954 0a75 50       		.byte	0x50
 11955 0a76 9F       		.byte	0x9f
 11956 0a77 00000000 		.4byte	0
 11957 0a7b 00000000 		.4byte	0
 11958              	.LLST54:
 11959 0a7f 00000000 		.4byte	.LVL145
 11960 0a83 0A000000 		.4byte	.LVL146
 11961 0a87 0100     		.2byte	0x1
 11962 0a89 51       		.byte	0x51
 11963 0a8a 0A000000 		.4byte	.LVL146
 11964 0a8e 24000000 		.4byte	.LFE41
 11965 0a92 0400     		.2byte	0x4
 11966 0a94 F3       		.byte	0xf3
 11967 0a95 01       		.uleb128 0x1
 11968 0a96 51       		.byte	0x51
 11969 0a97 9F       		.byte	0x9f
 11970 0a98 00000000 		.4byte	0
 11971 0a9c 00000000 		.4byte	0
 11972              	.LLST55:
 11973 0aa0 00000000 		.4byte	.LVL145
 11974 0aa4 14000000 		.4byte	.LVL147
 11975 0aa8 0100     		.2byte	0x1
 11976 0aaa 52       		.byte	0x52
 11977 0aab 14000000 		.4byte	.LVL147
 11978 0aaf 24000000 		.4byte	.LFE41
 11979 0ab3 0400     		.2byte	0x4
 11980 0ab5 F3       		.byte	0xf3
 11981 0ab6 01       		.uleb128 0x1
 11982 0ab7 52       		.byte	0x52
 11983 0ab8 9F       		.byte	0x9f
 11984 0ab9 00000000 		.4byte	0
 11985 0abd 00000000 		.4byte	0
 11986              	.LLST56:
 11987 0ac1 00000000 		.4byte	.LFB39
 11988 0ac5 02000000 		.4byte	.LCFI17
 11989 0ac9 0200     		.2byte	0x2
 11990 0acb 7D       		.byte	0x7d
 11991 0acc 00       		.sleb128 0
 11992 0acd 02000000 		.4byte	.LCFI17
 11993 0ad1 0C000000 		.4byte	.LCFI18
 11994 0ad5 0200     		.2byte	0x2
 11995 0ad7 7D       		.byte	0x7d
 11996 0ad8 14       		.sleb128 20
 11997 0ad9 0C000000 		.4byte	.LCFI18
 11998 0add 0E000000 		.4byte	.LCFI19
 11999 0ae1 0200     		.2byte	0x2
 12000 0ae3 7D       		.byte	0x7d
 12001 0ae4 24       		.sleb128 36
 12002 0ae5 0E000000 		.4byte	.LCFI19
 12003 0ae9 6E000000 		.4byte	.LFE39
ARM GAS  C:\Users\Computer\AppData\Local\Temp\cc1tHs0g.s 			page 229


 12004 0aed 0200     		.2byte	0x2
 12005 0aef 7D       		.byte	0x7d
 12006 0af0 30       		.sleb128 48
 12007 0af1 00000000 		.4byte	0
 12008 0af5 00000000 		.4byte	0
 12009              	.LLST57:
 12010 0af9 00000000 		.4byte	.LVL149
 12011 0afd 20000000 		.4byte	.LVL151
 12012 0b01 0100     		.2byte	0x1
 12013 0b03 50       		.byte	0x50
 12014 0b04 20000000 		.4byte	.LVL151
 12015 0b08 6E000000 		.4byte	.LFE39
 12016 0b0c 0400     		.2byte	0x4
 12017 0b0e F3       		.byte	0xf3
 12018 0b0f 01       		.uleb128 0x1
 12019 0b10 50       		.byte	0x50
 12020 0b11 9F       		.byte	0x9f
 12021 0b12 00000000 		.4byte	0
 12022 0b16 00000000 		.4byte	0
 12023              	.LLST58:
 12024 0b1a 00000000 		.4byte	.LVL149
 12025 0b1e 22000000 		.4byte	.LVL152
 12026 0b22 0100     		.2byte	0x1
 12027 0b24 51       		.byte	0x51
 12028 0b25 22000000 		.4byte	.LVL152
 12029 0b29 6E000000 		.4byte	.LFE39
 12030 0b2d 0400     		.2byte	0x4
 12031 0b2f F3       		.byte	0xf3
 12032 0b30 01       		.uleb128 0x1
 12033 0b31 51       		.byte	0x51
 12034 0b32 9F       		.byte	0x9f
 12035 0b33 00000000 		.4byte	0
 12036 0b37 00000000 		.4byte	0
 12037              	.LLST59:
 12038 0b3b 00000000 		.4byte	.LVL149
 12039 0b3f 1E000000 		.4byte	.LVL150
 12040 0b43 0100     		.2byte	0x1
 12041 0b45 52       		.byte	0x52
 12042 0b46 1E000000 		.4byte	.LVL150
 12043 0b4a 6E000000 		.4byte	.LFE39
 12044 0b4e 0400     		.2byte	0x4
 12045 0b50 F3       		.byte	0xf3
 12046 0b51 01       		.uleb128 0x1
 12047 0b52 52       		.byte	0x52
 12048 0b53 9F       		.byte	0x9f
 12049 0b54 00000000 		.4byte	0
 12050 0b58 00000000 		.4byte	0
 12051              	.LLST60:
 12052 0b5c 00000000 		.4byte	.LVL149
 12053 0b60 24000000 		.4byte	.LVL153
 12054 0b64 0100     		.2byte	0x1
 12055 0b66 53       		.byte	0x53
 12056 0b67 24000000 		.4byte	.LVL153
 12057 0b6b 6E000000 		.4byte	.LFE39
 12058 0b6f 0400     		.2byte	0x4
 12059 0b71 F3       		.byte	0xf3
 12060 0b72 01       		.uleb128 0x1
ARM GAS  C:\Users\Computer\AppData\Local\Temp\cc1tHs0g.s 			page 230


 12061 0b73 53       		.byte	0x53
 12062 0b74 9F       		.byte	0x9f
 12063 0b75 00000000 		.4byte	0
 12064 0b79 00000000 		.4byte	0
 12065              	.LLST61:
 12066 0b7d 00000000 		.4byte	.LFB42
 12067 0b81 02000000 		.4byte	.LCFI20
 12068 0b85 0200     		.2byte	0x2
 12069 0b87 7D       		.byte	0x7d
 12070 0b88 00       		.sleb128 0
 12071 0b89 02000000 		.4byte	.LCFI20
 12072 0b8d 0A000000 		.4byte	.LCFI21
 12073 0b91 0200     		.2byte	0x2
 12074 0b93 7D       		.byte	0x7d
 12075 0b94 14       		.sleb128 20
 12076 0b95 0A000000 		.4byte	.LCFI21
 12077 0b99 0C000000 		.4byte	.LCFI22
 12078 0b9d 0200     		.2byte	0x2
 12079 0b9f 7D       		.byte	0x7d
 12080 0ba0 20       		.sleb128 32
 12081 0ba1 0C000000 		.4byte	.LCFI22
 12082 0ba5 92000000 		.4byte	.LFE42
 12083 0ba9 0200     		.2byte	0x2
 12084 0bab 7D       		.byte	0x7d
 12085 0bac 28       		.sleb128 40
 12086 0bad 00000000 		.4byte	0
 12087 0bb1 00000000 		.4byte	0
 12088              	.LLST62:
 12089 0bb5 00000000 		.4byte	.LVL158
 12090 0bb9 16000000 		.4byte	.LVL161
 12091 0bbd 0100     		.2byte	0x1
 12092 0bbf 50       		.byte	0x50
 12093 0bc0 16000000 		.4byte	.LVL161
 12094 0bc4 92000000 		.4byte	.LFE42
 12095 0bc8 0400     		.2byte	0x4
 12096 0bca F3       		.byte	0xf3
 12097 0bcb 01       		.uleb128 0x1
 12098 0bcc 50       		.byte	0x50
 12099 0bcd 9F       		.byte	0x9f
 12100 0bce 00000000 		.4byte	0
 12101 0bd2 00000000 		.4byte	0
 12102              	.LLST63:
 12103 0bd6 00000000 		.4byte	.LVL158
 12104 0bda 24000000 		.4byte	.LVL162
 12105 0bde 0100     		.2byte	0x1
 12106 0be0 51       		.byte	0x51
 12107 0be1 24000000 		.4byte	.LVL162
 12108 0be5 92000000 		.4byte	.LFE42
 12109 0be9 0400     		.2byte	0x4
 12110 0beb F3       		.byte	0xf3
 12111 0bec 01       		.uleb128 0x1
 12112 0bed 51       		.byte	0x51
 12113 0bee 9F       		.byte	0x9f
 12114 0bef 00000000 		.4byte	0
 12115 0bf3 00000000 		.4byte	0
 12116              	.LLST64:
 12117 0bf7 00000000 		.4byte	.LVL158
ARM GAS  C:\Users\Computer\AppData\Local\Temp\cc1tHs0g.s 			page 231


 12118 0bfb 10000000 		.4byte	.LVL159
 12119 0bff 0100     		.2byte	0x1
 12120 0c01 52       		.byte	0x52
 12121 0c02 10000000 		.4byte	.LVL159
 12122 0c06 92000000 		.4byte	.LFE42
 12123 0c0a 0400     		.2byte	0x4
 12124 0c0c F3       		.byte	0xf3
 12125 0c0d 01       		.uleb128 0x1
 12126 0c0e 52       		.byte	0x52
 12127 0c0f 9F       		.byte	0x9f
 12128 0c10 00000000 		.4byte	0
 12129 0c14 00000000 		.4byte	0
 12130              	.LLST65:
 12131 0c18 00000000 		.4byte	.LVL158
 12132 0c1c 12000000 		.4byte	.LVL160
 12133 0c20 0100     		.2byte	0x1
 12134 0c22 53       		.byte	0x53
 12135 0c23 12000000 		.4byte	.LVL160
 12136 0c27 92000000 		.4byte	.LFE42
 12137 0c2b 0400     		.2byte	0x4
 12138 0c2d F3       		.byte	0xf3
 12139 0c2e 01       		.uleb128 0x1
 12140 0c2f 53       		.byte	0x53
 12141 0c30 9F       		.byte	0x9f
 12142 0c31 00000000 		.4byte	0
 12143 0c35 00000000 		.4byte	0
 12144              	.LLST66:
 12145 0c39 00000000 		.4byte	.LVL158
 12146 0c3d 16000000 		.4byte	.LVL161
 12147 0c41 0100     		.2byte	0x1
 12148 0c43 50       		.byte	0x50
 12149 0c44 16000000 		.4byte	.LVL161
 12150 0c48 38000000 		.4byte	.LVL163
 12151 0c4c 0100     		.2byte	0x1
 12152 0c4e 55       		.byte	0x55
 12153 0c4f 00000000 		.4byte	0
 12154 0c53 00000000 		.4byte	0
 12155              	.LLST67:
 12156 0c57 00000000 		.4byte	.LFB43
 12157 0c5b 02000000 		.4byte	.LCFI23
 12158 0c5f 0200     		.2byte	0x2
 12159 0c61 7D       		.byte	0x7d
 12160 0c62 00       		.sleb128 0
 12161 0c63 02000000 		.4byte	.LCFI23
 12162 0c67 04000000 		.4byte	.LCFI24
 12163 0c6b 0200     		.2byte	0x2
 12164 0c6d 7D       		.byte	0x7d
 12165 0c6e 04       		.sleb128 4
 12166 0c6f 04000000 		.4byte	.LCFI24
 12167 0c73 20000000 		.4byte	.LFE43
 12168 0c77 0200     		.2byte	0x2
 12169 0c79 7D       		.byte	0x7d
 12170 0c7a 18       		.sleb128 24
 12171 0c7b 00000000 		.4byte	0
 12172 0c7f 00000000 		.4byte	0
 12173              	.LLST68:
 12174 0c83 00000000 		.4byte	.LVL167
ARM GAS  C:\Users\Computer\AppData\Local\Temp\cc1tHs0g.s 			page 232


 12175 0c87 16000000 		.4byte	.LVL168
 12176 0c8b 0100     		.2byte	0x1
 12177 0c8d 51       		.byte	0x51
 12178 0c8e 16000000 		.4byte	.LVL168
 12179 0c92 1B000000 		.4byte	.LVL169-1
 12180 0c96 0200     		.2byte	0x2
 12181 0c98 91       		.byte	0x91
 12182 0c99 6C       		.sleb128 -20
 12183 0c9a 1B000000 		.4byte	.LVL169-1
 12184 0c9e 20000000 		.4byte	.LFE43
 12185 0ca2 0400     		.2byte	0x4
 12186 0ca4 F3       		.byte	0xf3
 12187 0ca5 01       		.uleb128 0x1
 12188 0ca6 51       		.byte	0x51
 12189 0ca7 9F       		.byte	0x9f
 12190 0ca8 00000000 		.4byte	0
 12191 0cac 00000000 		.4byte	0
 12192              	.LLST69:
 12193 0cb0 00000000 		.4byte	.LFB44
 12194 0cb4 02000000 		.4byte	.LCFI25
 12195 0cb8 0200     		.2byte	0x2
 12196 0cba 7D       		.byte	0x7d
 12197 0cbb 00       		.sleb128 0
 12198 0cbc 02000000 		.4byte	.LCFI25
 12199 0cc0 0A000000 		.4byte	.LCFI26
 12200 0cc4 0200     		.2byte	0x2
 12201 0cc6 7D       		.byte	0x7d
 12202 0cc7 14       		.sleb128 20
 12203 0cc8 0A000000 		.4byte	.LCFI26
 12204 0ccc 0C000000 		.4byte	.LCFI27
 12205 0cd0 0200     		.2byte	0x2
 12206 0cd2 7D       		.byte	0x7d
 12207 0cd3 20       		.sleb128 32
 12208 0cd4 0C000000 		.4byte	.LCFI27
 12209 0cd8 7E000000 		.4byte	.LFE44
 12210 0cdc 0200     		.2byte	0x2
 12211 0cde 7D       		.byte	0x7d
 12212 0cdf 28       		.sleb128 40
 12213 0ce0 00000000 		.4byte	0
 12214 0ce4 00000000 		.4byte	0
 12215              	.LLST70:
 12216 0ce8 00000000 		.4byte	.LVL170
 12217 0cec 14000000 		.4byte	.LVL172
 12218 0cf0 0100     		.2byte	0x1
 12219 0cf2 50       		.byte	0x50
 12220 0cf3 14000000 		.4byte	.LVL172
 12221 0cf7 7E000000 		.4byte	.LFE44
 12222 0cfb 0400     		.2byte	0x4
 12223 0cfd F3       		.byte	0xf3
 12224 0cfe 01       		.uleb128 0x1
 12225 0cff 50       		.byte	0x50
 12226 0d00 9F       		.byte	0x9f
 12227 0d01 00000000 		.4byte	0
 12228 0d05 00000000 		.4byte	0
 12229              	.LLST71:
 12230 0d09 00000000 		.4byte	.LVL170
 12231 0d0d 1A000000 		.4byte	.LVL173
ARM GAS  C:\Users\Computer\AppData\Local\Temp\cc1tHs0g.s 			page 233


 12232 0d11 0100     		.2byte	0x1
 12233 0d13 51       		.byte	0x51
 12234 0d14 1A000000 		.4byte	.LVL173
 12235 0d18 7E000000 		.4byte	.LFE44
 12236 0d1c 0400     		.2byte	0x4
 12237 0d1e F3       		.byte	0xf3
 12238 0d1f 01       		.uleb128 0x1
 12239 0d20 51       		.byte	0x51
 12240 0d21 9F       		.byte	0x9f
 12241 0d22 00000000 		.4byte	0
 12242 0d26 00000000 		.4byte	0
 12243              	.LLST72:
 12244 0d2a 00000000 		.4byte	.LVL170
 12245 0d2e 22000000 		.4byte	.LVL174
 12246 0d32 0100     		.2byte	0x1
 12247 0d34 52       		.byte	0x52
 12248 0d35 22000000 		.4byte	.LVL174
 12249 0d39 7E000000 		.4byte	.LFE44
 12250 0d3d 0400     		.2byte	0x4
 12251 0d3f F3       		.byte	0xf3
 12252 0d40 01       		.uleb128 0x1
 12253 0d41 52       		.byte	0x52
 12254 0d42 9F       		.byte	0x9f
 12255 0d43 00000000 		.4byte	0
 12256 0d47 00000000 		.4byte	0
 12257              	.LLST73:
 12258 0d4b 00000000 		.4byte	.LVL170
 12259 0d4f 10000000 		.4byte	.LVL171
 12260 0d53 0100     		.2byte	0x1
 12261 0d55 53       		.byte	0x53
 12262 0d56 10000000 		.4byte	.LVL171
 12263 0d5a 7E000000 		.4byte	.LFE44
 12264 0d5e 0400     		.2byte	0x4
 12265 0d60 F3       		.byte	0xf3
 12266 0d61 01       		.uleb128 0x1
 12267 0d62 53       		.byte	0x53
 12268 0d63 9F       		.byte	0x9f
 12269 0d64 00000000 		.4byte	0
 12270 0d68 00000000 		.4byte	0
 12271              	.LLST74:
 12272 0d6c 00000000 		.4byte	.LFB45
 12273 0d70 02000000 		.4byte	.LCFI28
 12274 0d74 0200     		.2byte	0x2
 12275 0d76 7D       		.byte	0x7d
 12276 0d77 00       		.sleb128 0
 12277 0d78 02000000 		.4byte	.LCFI28
 12278 0d7c 0C000000 		.4byte	.LCFI29
 12279 0d80 0200     		.2byte	0x2
 12280 0d82 7D       		.byte	0x7d
 12281 0d83 14       		.sleb128 20
 12282 0d84 0C000000 		.4byte	.LCFI29
 12283 0d88 10000000 		.4byte	.LCFI30
 12284 0d8c 0200     		.2byte	0x2
 12285 0d8e 7D       		.byte	0x7d
 12286 0d8f 24       		.sleb128 36
 12287 0d90 10000000 		.4byte	.LCFI30
 12288 0d94 90000000 		.4byte	.LFE45
ARM GAS  C:\Users\Computer\AppData\Local\Temp\cc1tHs0g.s 			page 234


 12289 0d98 0200     		.2byte	0x2
 12290 0d9a 7D       		.byte	0x7d
 12291 0d9b 38       		.sleb128 56
 12292 0d9c 00000000 		.4byte	0
 12293 0da0 00000000 		.4byte	0
 12294              	.LLST75:
 12295 0da4 00000000 		.4byte	.LVL178
 12296 0da8 1E000000 		.4byte	.LVL180
 12297 0dac 0100     		.2byte	0x1
 12298 0dae 50       		.byte	0x50
 12299 0daf 1E000000 		.4byte	.LVL180
 12300 0db3 90000000 		.4byte	.LFE45
 12301 0db7 0400     		.2byte	0x4
 12302 0db9 F3       		.byte	0xf3
 12303 0dba 01       		.uleb128 0x1
 12304 0dbb 50       		.byte	0x50
 12305 0dbc 9F       		.byte	0x9f
 12306 0dbd 00000000 		.4byte	0
 12307 0dc1 00000000 		.4byte	0
 12308              	.LLST76:
 12309 0dc5 00000000 		.4byte	.LVL178
 12310 0dc9 22000000 		.4byte	.LVL181
 12311 0dcd 0100     		.2byte	0x1
 12312 0dcf 51       		.byte	0x51
 12313 0dd0 22000000 		.4byte	.LVL181
 12314 0dd4 90000000 		.4byte	.LFE45
 12315 0dd8 0400     		.2byte	0x4
 12316 0dda F3       		.byte	0xf3
 12317 0ddb 01       		.uleb128 0x1
 12318 0ddc 51       		.byte	0x51
 12319 0ddd 9F       		.byte	0x9f
 12320 0dde 00000000 		.4byte	0
 12321 0de2 00000000 		.4byte	0
 12322              	.LLST77:
 12323 0de6 00000000 		.4byte	.LVL178
 12324 0dea 16000000 		.4byte	.LVL179
 12325 0dee 0100     		.2byte	0x1
 12326 0df0 53       		.byte	0x53
 12327 0df1 16000000 		.4byte	.LVL179
 12328 0df5 84000000 		.4byte	.LVL185
 12329 0df9 0100     		.2byte	0x1
 12330 0dfb 57       		.byte	0x57
 12331 0dfc 84000000 		.4byte	.LVL185
 12332 0e00 90000000 		.4byte	.LFE45
 12333 0e04 0400     		.2byte	0x4
 12334 0e06 F3       		.byte	0xf3
 12335 0e07 01       		.uleb128 0x1
 12336 0e08 53       		.byte	0x53
 12337 0e09 9F       		.byte	0x9f
 12338 0e0a 00000000 		.4byte	0
 12339 0e0e 00000000 		.4byte	0
 12340              	.LLST78:
 12341 0e12 00000000 		.4byte	.LFB46
 12342 0e16 02000000 		.4byte	.LCFI31
 12343 0e1a 0200     		.2byte	0x2
 12344 0e1c 7D       		.byte	0x7d
 12345 0e1d 00       		.sleb128 0
ARM GAS  C:\Users\Computer\AppData\Local\Temp\cc1tHs0g.s 			page 235


 12346 0e1e 02000000 		.4byte	.LCFI31
 12347 0e22 08000000 		.4byte	.LCFI32
 12348 0e26 0200     		.2byte	0x2
 12349 0e28 7D       		.byte	0x7d
 12350 0e29 14       		.sleb128 20
 12351 0e2a 08000000 		.4byte	.LCFI32
 12352 0e2e 18000000 		.4byte	.LCFI33
 12353 0e32 0200     		.2byte	0x2
 12354 0e34 7D       		.byte	0x7d
 12355 0e35 1C       		.sleb128 28
 12356 0e36 18000000 		.4byte	.LCFI33
 12357 0e3a 8A000000 		.4byte	.LFE46
 12358 0e3e 0200     		.2byte	0x2
 12359 0e40 7D       		.byte	0x7d
 12360 0e41 30       		.sleb128 48
 12361 0e42 00000000 		.4byte	0
 12362 0e46 00000000 		.4byte	0
 12363              	.LLST79:
 12364 0e4a 00000000 		.4byte	.LVL186
 12365 0e4e 1A000000 		.4byte	.LVL189
 12366 0e52 0100     		.2byte	0x1
 12367 0e54 50       		.byte	0x50
 12368 0e55 1A000000 		.4byte	.LVL189
 12369 0e59 3C000000 		.4byte	.LVL191
 12370 0e5d 0100     		.2byte	0x1
 12371 0e5f 56       		.byte	0x56
 12372 0e60 3C000000 		.4byte	.LVL191
 12373 0e64 42000000 		.4byte	.LVL193
 12374 0e68 0300     		.2byte	0x3
 12375 0e6a 76       		.byte	0x76
 12376 0e6b 7F       		.sleb128 -1
 12377 0e6c 9F       		.byte	0x9f
 12378 0e6d 42000000 		.4byte	.LVL193
 12379 0e71 8A000000 		.4byte	.LFE46
 12380 0e75 0400     		.2byte	0x4
 12381 0e77 F3       		.byte	0xf3
 12382 0e78 01       		.uleb128 0x1
 12383 0e79 50       		.byte	0x50
 12384 0e7a 9F       		.byte	0x9f
 12385 0e7b 00000000 		.4byte	0
 12386 0e7f 00000000 		.4byte	0
 12387              	.LLST80:
 12388 0e83 00000000 		.4byte	.LVL186
 12389 0e87 14000000 		.4byte	.LVL187
 12390 0e8b 0100     		.2byte	0x1
 12391 0e8d 51       		.byte	0x51
 12392 0e8e 14000000 		.4byte	.LVL187
 12393 0e92 60000000 		.4byte	.LVL195
 12394 0e96 0100     		.2byte	0x1
 12395 0e98 55       		.byte	0x55
 12396 0e99 60000000 		.4byte	.LVL195
 12397 0e9d 82000000 		.4byte	.LVL200
 12398 0ea1 0300     		.2byte	0x3
 12399 0ea3 75       		.byte	0x75
 12400 0ea4 7F       		.sleb128 -1
 12401 0ea5 9F       		.byte	0x9f
 12402 0ea6 82000000 		.4byte	.LVL200
ARM GAS  C:\Users\Computer\AppData\Local\Temp\cc1tHs0g.s 			page 236


 12403 0eaa 8A000000 		.4byte	.LFE46
 12404 0eae 0400     		.2byte	0x4
 12405 0eb0 F3       		.byte	0xf3
 12406 0eb1 01       		.uleb128 0x1
 12407 0eb2 51       		.byte	0x51
 12408 0eb3 9F       		.byte	0x9f
 12409 0eb4 00000000 		.4byte	0
 12410 0eb8 00000000 		.4byte	0
 12411              	.LLST81:
 12412 0ebc 00000000 		.4byte	.LVL186
 12413 0ec0 16000000 		.4byte	.LVL188
 12414 0ec4 0100     		.2byte	0x1
 12415 0ec6 53       		.byte	0x53
 12416 0ec7 16000000 		.4byte	.LVL188
 12417 0ecb 82000000 		.4byte	.LVL199
 12418 0ecf 0100     		.2byte	0x1
 12419 0ed1 54       		.byte	0x54
 12420 0ed2 82000000 		.4byte	.LVL199
 12421 0ed6 8A000000 		.4byte	.LFE46
 12422 0eda 0400     		.2byte	0x4
 12423 0edc F3       		.byte	0xf3
 12424 0edd 01       		.uleb128 0x1
 12425 0ede 53       		.byte	0x53
 12426 0edf 9F       		.byte	0x9f
 12427 0ee0 00000000 		.4byte	0
 12428 0ee4 00000000 		.4byte	0
 12429              	.LLST82:
 12430 0ee8 00000000 		.4byte	.LFB47
 12431 0eec 02000000 		.4byte	.LCFI34
 12432 0ef0 0200     		.2byte	0x2
 12433 0ef2 7D       		.byte	0x7d
 12434 0ef3 00       		.sleb128 0
 12435 0ef4 02000000 		.4byte	.LCFI34
 12436 0ef8 06000000 		.4byte	.LCFI35
 12437 0efc 0200     		.2byte	0x2
 12438 0efe 7D       		.byte	0x7d
 12439 0eff 14       		.sleb128 20
 12440 0f00 06000000 		.4byte	.LCFI35
 12441 0f04 30000000 		.4byte	.LFE47
 12442 0f08 0200     		.2byte	0x2
 12443 0f0a 7D       		.byte	0x7d
 12444 0f0b 28       		.sleb128 40
 12445 0f0c 00000000 		.4byte	0
 12446 0f10 00000000 		.4byte	0
 12447              	.LLST83:
 12448 0f14 00000000 		.4byte	.LVL201
 12449 0f18 1D000000 		.4byte	.LVL205-1
 12450 0f1c 0100     		.2byte	0x1
 12451 0f1e 50       		.byte	0x50
 12452 0f1f 1D000000 		.4byte	.LVL205-1
 12453 0f23 30000000 		.4byte	.LFE47
 12454 0f27 0400     		.2byte	0x4
 12455 0f29 F3       		.byte	0xf3
 12456 0f2a 01       		.uleb128 0x1
 12457 0f2b 50       		.byte	0x50
 12458 0f2c 9F       		.byte	0x9f
 12459 0f2d 00000000 		.4byte	0
ARM GAS  C:\Users\Computer\AppData\Local\Temp\cc1tHs0g.s 			page 237


 12460 0f31 00000000 		.4byte	0
 12461              	.LLST84:
 12462 0f35 00000000 		.4byte	.LVL201
 12463 0f39 0A000000 		.4byte	.LVL202
 12464 0f3d 0100     		.2byte	0x1
 12465 0f3f 51       		.byte	0x51
 12466 0f40 0A000000 		.4byte	.LVL202
 12467 0f44 1A000000 		.4byte	.LVL204
 12468 0f48 0100     		.2byte	0x1
 12469 0f4a 56       		.byte	0x56
 12470 0f4b 1A000000 		.4byte	.LVL204
 12471 0f4f 2E000000 		.4byte	.LVL208
 12472 0f53 0300     		.2byte	0x3
 12473 0f55 76       		.byte	0x76
 12474 0f56 79       		.sleb128 -7
 12475 0f57 9F       		.byte	0x9f
 12476 0f58 2E000000 		.4byte	.LVL208
 12477 0f5c 30000000 		.4byte	.LFE47
 12478 0f60 0400     		.2byte	0x4
 12479 0f62 F3       		.byte	0xf3
 12480 0f63 01       		.uleb128 0x1
 12481 0f64 51       		.byte	0x51
 12482 0f65 9F       		.byte	0x9f
 12483 0f66 00000000 		.4byte	0
 12484 0f6a 00000000 		.4byte	0
 12485              	.LLST85:
 12486 0f6e 00000000 		.4byte	.LVL201
 12487 0f72 16000000 		.4byte	.LVL203
 12488 0f76 0100     		.2byte	0x1
 12489 0f78 53       		.byte	0x53
 12490 0f79 16000000 		.4byte	.LVL203
 12491 0f7d 2E000000 		.4byte	.LVL207
 12492 0f81 0100     		.2byte	0x1
 12493 0f83 55       		.byte	0x55
 12494 0f84 2E000000 		.4byte	.LVL207
 12495 0f88 30000000 		.4byte	.LFE47
 12496 0f8c 0400     		.2byte	0x4
 12497 0f8e F3       		.byte	0xf3
 12498 0f8f 01       		.uleb128 0x1
 12499 0f90 53       		.byte	0x53
 12500 0f91 9F       		.byte	0x9f
 12501 0f92 00000000 		.4byte	0
 12502 0f96 00000000 		.4byte	0
 12503              	.LLST86:
 12504 0f9a 00000000 		.4byte	.LFB48
 12505 0f9e 02000000 		.4byte	.LCFI36
 12506 0fa2 0200     		.2byte	0x2
 12507 0fa4 7D       		.byte	0x7d
 12508 0fa5 00       		.sleb128 0
 12509 0fa6 02000000 		.4byte	.LCFI36
 12510 0faa 08000000 		.4byte	.LCFI37
 12511 0fae 0200     		.2byte	0x2
 12512 0fb0 7D       		.byte	0x7d
 12513 0fb1 14       		.sleb128 20
 12514 0fb2 08000000 		.4byte	.LCFI37
 12515 0fb6 14000000 		.4byte	.LCFI38
 12516 0fba 0200     		.2byte	0x2
ARM GAS  C:\Users\Computer\AppData\Local\Temp\cc1tHs0g.s 			page 238


 12517 0fbc 7D       		.byte	0x7d
 12518 0fbd 1C       		.sleb128 28
 12519 0fbe 14000000 		.4byte	.LCFI38
 12520 0fc2 8A000000 		.4byte	.LFE48
 12521 0fc6 0200     		.2byte	0x2
 12522 0fc8 7D       		.byte	0x7d
 12523 0fc9 30       		.sleb128 48
 12524 0fca 00000000 		.4byte	0
 12525 0fce 00000000 		.4byte	0
 12526              	.LLST87:
 12527 0fd2 00000000 		.4byte	.LVL209
 12528 0fd6 22000000 		.4byte	.LVL212
 12529 0fda 0100     		.2byte	0x1
 12530 0fdc 50       		.byte	0x50
 12531 0fdd 22000000 		.4byte	.LVL212
 12532 0fe1 66000000 		.4byte	.LVL220
 12533 0fe5 0100     		.2byte	0x1
 12534 0fe7 56       		.byte	0x56
 12535 0fe8 66000000 		.4byte	.LVL220
 12536 0fec 82000000 		.4byte	.LVL224
 12537 0ff0 0300     		.2byte	0x3
 12538 0ff2 76       		.byte	0x76
 12539 0ff3 7B       		.sleb128 -5
 12540 0ff4 9F       		.byte	0x9f
 12541 0ff5 82000000 		.4byte	.LVL224
 12542 0ff9 8A000000 		.4byte	.LFE48
 12543 0ffd 0400     		.2byte	0x4
 12544 0fff F3       		.byte	0xf3
 12545 1000 01       		.uleb128 0x1
 12546 1001 50       		.byte	0x50
 12547 1002 9F       		.byte	0x9f
 12548 1003 00000000 		.4byte	0
 12549 1007 00000000 		.4byte	0
 12550              	.LLST88:
 12551 100b 00000000 		.4byte	.LVL209
 12552 100f 1C000000 		.4byte	.LVL210
 12553 1013 0100     		.2byte	0x1
 12554 1015 51       		.byte	0x51
 12555 1016 1C000000 		.4byte	.LVL210
 12556 101a 44000000 		.4byte	.LVL215
 12557 101e 0100     		.2byte	0x1
 12558 1020 55       		.byte	0x55
 12559 1021 44000000 		.4byte	.LVL215
 12560 1025 4A000000 		.4byte	.LVL216
 12561 1029 0300     		.2byte	0x3
 12562 102b 75       		.byte	0x75
 12563 102c 7F       		.sleb128 -1
 12564 102d 9F       		.byte	0x9f
 12565 102e 4A000000 		.4byte	.LVL216
 12566 1032 4E000000 		.4byte	.LVL217
 12567 1036 0300     		.2byte	0x3
 12568 1038 71       		.byte	0x71
 12569 1039 7A       		.sleb128 -6
 12570 103a 9F       		.byte	0x9f
 12571 103b 4E000000 		.4byte	.LVL217
 12572 103f 8A000000 		.4byte	.LFE48
 12573 1043 0400     		.2byte	0x4
ARM GAS  C:\Users\Computer\AppData\Local\Temp\cc1tHs0g.s 			page 239


 12574 1045 F3       		.byte	0xf3
 12575 1046 01       		.uleb128 0x1
 12576 1047 51       		.byte	0x51
 12577 1048 9F       		.byte	0x9f
 12578 1049 00000000 		.4byte	0
 12579 104d 00000000 		.4byte	0
 12580              	.LLST89:
 12581 1051 00000000 		.4byte	.LVL209
 12582 1055 1E000000 		.4byte	.LVL211
 12583 1059 0100     		.2byte	0x1
 12584 105b 53       		.byte	0x53
 12585 105c 1E000000 		.4byte	.LVL211
 12586 1060 82000000 		.4byte	.LVL223
 12587 1064 0100     		.2byte	0x1
 12588 1066 54       		.byte	0x54
 12589 1067 82000000 		.4byte	.LVL223
 12590 106b 8A000000 		.4byte	.LFE48
 12591 106f 0400     		.2byte	0x4
 12592 1071 F3       		.byte	0xf3
 12593 1072 01       		.uleb128 0x1
 12594 1073 53       		.byte	0x53
 12595 1074 9F       		.byte	0x9f
 12596 1075 00000000 		.4byte	0
 12597 1079 00000000 		.4byte	0
 12598              	.LLST90:
 12599 107d 00000000 		.4byte	.LFB49
 12600 1081 02000000 		.4byte	.LCFI39
 12601 1085 0200     		.2byte	0x2
 12602 1087 7D       		.byte	0x7d
 12603 1088 00       		.sleb128 0
 12604 1089 02000000 		.4byte	.LCFI39
 12605 108d 08000000 		.4byte	.LCFI40
 12606 1091 0200     		.2byte	0x2
 12607 1093 7D       		.byte	0x7d
 12608 1094 14       		.sleb128 20
 12609 1095 08000000 		.4byte	.LCFI40
 12610 1099 48000000 		.4byte	.LFE49
 12611 109d 0200     		.2byte	0x2
 12612 109f 7D       		.byte	0x7d
 12613 10a0 28       		.sleb128 40
 12614 10a1 00000000 		.4byte	0
 12615 10a5 00000000 		.4byte	0
 12616              	.LLST91:
 12617 10a9 00000000 		.4byte	.LVL225
 12618 10ad 0E000000 		.4byte	.LVL226
 12619 10b1 0100     		.2byte	0x1
 12620 10b3 50       		.byte	0x50
 12621 10b4 0E000000 		.4byte	.LVL226
 12622 10b8 32000000 		.4byte	.LVL231
 12623 10bc 0100     		.2byte	0x1
 12624 10be 55       		.byte	0x55
 12625 10bf 32000000 		.4byte	.LVL231
 12626 10c3 46000000 		.4byte	.LVL235
 12627 10c7 0300     		.2byte	0x3
 12628 10c9 75       		.byte	0x75
 12629 10ca 7E       		.sleb128 -2
 12630 10cb 9F       		.byte	0x9f
ARM GAS  C:\Users\Computer\AppData\Local\Temp\cc1tHs0g.s 			page 240


 12631 10cc 46000000 		.4byte	.LVL235
 12632 10d0 48000000 		.4byte	.LFE49
 12633 10d4 0400     		.2byte	0x4
 12634 10d6 F3       		.byte	0xf3
 12635 10d7 01       		.uleb128 0x1
 12636 10d8 50       		.byte	0x50
 12637 10d9 9F       		.byte	0x9f
 12638 10da 00000000 		.4byte	0
 12639 10de 00000000 		.4byte	0
 12640              	.LLST92:
 12641 10e2 00000000 		.4byte	.LVL225
 12642 10e6 10000000 		.4byte	.LVL227
 12643 10ea 0100     		.2byte	0x1
 12644 10ec 51       		.byte	0x51
 12645 10ed 10000000 		.4byte	.LVL227
 12646 10f1 24000000 		.4byte	.LVL230
 12647 10f5 0100     		.2byte	0x1
 12648 10f7 57       		.byte	0x57
 12649 10f8 24000000 		.4byte	.LVL230
 12650 10fc 46000000 		.4byte	.LVL236
 12651 1100 0300     		.2byte	0x3
 12652 1102 77       		.byte	0x77
 12653 1103 7B       		.sleb128 -5
 12654 1104 9F       		.byte	0x9f
 12655 1105 46000000 		.4byte	.LVL236
 12656 1109 48000000 		.4byte	.LFE49
 12657 110d 0400     		.2byte	0x4
 12658 110f F3       		.byte	0xf3
 12659 1110 01       		.uleb128 0x1
 12660 1111 51       		.byte	0x51
 12661 1112 9F       		.byte	0x9f
 12662 1113 00000000 		.4byte	0
 12663 1117 00000000 		.4byte	0
 12664              	.LLST93:
 12665 111b 00000000 		.4byte	.LVL225
 12666 111f 1A000000 		.4byte	.LVL228
 12667 1123 0100     		.2byte	0x1
 12668 1125 53       		.byte	0x53
 12669 1126 1A000000 		.4byte	.LVL228
 12670 112a 46000000 		.4byte	.LVL234
 12671 112e 0100     		.2byte	0x1
 12672 1130 54       		.byte	0x54
 12673 1131 46000000 		.4byte	.LVL234
 12674 1135 48000000 		.4byte	.LFE49
 12675 1139 0400     		.2byte	0x4
 12676 113b F3       		.byte	0xf3
 12677 113c 01       		.uleb128 0x1
 12678 113d 53       		.byte	0x53
 12679 113e 9F       		.byte	0x9f
 12680 113f 00000000 		.4byte	0
 12681 1143 00000000 		.4byte	0
 12682              	.LLST94:
 12683 1147 00000000 		.4byte	.LFB50
 12684 114b 02000000 		.4byte	.LCFI41
 12685 114f 0200     		.2byte	0x2
 12686 1151 7D       		.byte	0x7d
 12687 1152 00       		.sleb128 0
ARM GAS  C:\Users\Computer\AppData\Local\Temp\cc1tHs0g.s 			page 241


 12688 1153 02000000 		.4byte	.LCFI41
 12689 1157 08000000 		.4byte	.LCFI42
 12690 115b 0200     		.2byte	0x2
 12691 115d 7D       		.byte	0x7d
 12692 115e 14       		.sleb128 20
 12693 115f 08000000 		.4byte	.LCFI42
 12694 1163 12000000 		.4byte	.LCFI43
 12695 1167 0200     		.2byte	0x2
 12696 1169 7D       		.byte	0x7d
 12697 116a 1C       		.sleb128 28
 12698 116b 12000000 		.4byte	.LCFI43
 12699 116f 8A000000 		.4byte	.LFE50
 12700 1173 0200     		.2byte	0x2
 12701 1175 7D       		.byte	0x7d
 12702 1176 30       		.sleb128 48
 12703 1177 00000000 		.4byte	0
 12704 117b 00000000 		.4byte	0
 12705              	.LLST95:
 12706 117f 00000000 		.4byte	.LVL237
 12707 1183 1C000000 		.4byte	.LVL240
 12708 1187 0100     		.2byte	0x1
 12709 1189 50       		.byte	0x50
 12710 118a 1C000000 		.4byte	.LVL240
 12711 118e 3E000000 		.4byte	.LVL242
 12712 1192 0100     		.2byte	0x1
 12713 1194 56       		.byte	0x56
 12714 1195 3E000000 		.4byte	.LVL242
 12715 1199 44000000 		.4byte	.LVL244
 12716 119d 0300     		.2byte	0x3
 12717 119f 76       		.byte	0x76
 12718 11a0 7E       		.sleb128 -2
 12719 11a1 9F       		.byte	0x9f
 12720 11a2 44000000 		.4byte	.LVL244
 12721 11a6 8A000000 		.4byte	.LFE50
 12722 11aa 0400     		.2byte	0x4
 12723 11ac F3       		.byte	0xf3
 12724 11ad 01       		.uleb128 0x1
 12725 11ae 50       		.byte	0x50
 12726 11af 9F       		.byte	0x9f
 12727 11b0 00000000 		.4byte	0
 12728 11b4 00000000 		.4byte	0
 12729              	.LLST96:
 12730 11b8 00000000 		.4byte	.LVL237
 12731 11bc 1A000000 		.4byte	.LVL239
 12732 11c0 0100     		.2byte	0x1
 12733 11c2 51       		.byte	0x51
 12734 11c3 1A000000 		.4byte	.LVL239
 12735 11c7 48000000 		.4byte	.LVL245
 12736 11cb 0100     		.2byte	0x1
 12737 11cd 55       		.byte	0x55
 12738 11ce 48000000 		.4byte	.LVL245
 12739 11d2 50000000 		.4byte	.LVL246
 12740 11d6 0300     		.2byte	0x3
 12741 11d8 75       		.byte	0x75
 12742 11d9 7F       		.sleb128 -1
 12743 11da 9F       		.byte	0x9f
 12744 11db 50000000 		.4byte	.LVL246
ARM GAS  C:\Users\Computer\AppData\Local\Temp\cc1tHs0g.s 			page 242


 12745 11df 54000000 		.4byte	.LVL247
 12746 11e3 0300     		.2byte	0x3
 12747 11e5 72       		.byte	0x72
 12748 11e6 7B       		.sleb128 -5
 12749 11e7 9F       		.byte	0x9f
 12750 11e8 54000000 		.4byte	.LVL247
 12751 11ec 8A000000 		.4byte	.LFE50
 12752 11f0 0400     		.2byte	0x4
 12753 11f2 F3       		.byte	0xf3
 12754 11f3 01       		.uleb128 0x1
 12755 11f4 51       		.byte	0x51
 12756 11f5 9F       		.byte	0x9f
 12757 11f6 00000000 		.4byte	0
 12758 11fa 00000000 		.4byte	0
 12759              	.LLST97:
 12760 11fe 00000000 		.4byte	.LVL237
 12761 1202 18000000 		.4byte	.LVL238
 12762 1206 0100     		.2byte	0x1
 12763 1208 53       		.byte	0x53
 12764 1209 18000000 		.4byte	.LVL238
 12765 120d 82000000 		.4byte	.LVL252
 12766 1211 0100     		.2byte	0x1
 12767 1213 54       		.byte	0x54
 12768 1214 82000000 		.4byte	.LVL252
 12769 1218 8A000000 		.4byte	.LFE50
 12770 121c 0400     		.2byte	0x4
 12771 121e F3       		.byte	0xf3
 12772 121f 01       		.uleb128 0x1
 12773 1220 53       		.byte	0x53
 12774 1221 9F       		.byte	0x9f
 12775 1222 00000000 		.4byte	0
 12776 1226 00000000 		.4byte	0
 12777              	.LLST98:
 12778 122a 00000000 		.4byte	.LFB51
 12779 122e 02000000 		.4byte	.LCFI44
 12780 1232 0200     		.2byte	0x2
 12781 1234 7D       		.byte	0x7d
 12782 1235 00       		.sleb128 0
 12783 1236 02000000 		.4byte	.LCFI44
 12784 123a 08000000 		.4byte	.LCFI45
 12785 123e 0200     		.2byte	0x2
 12786 1240 7D       		.byte	0x7d
 12787 1241 14       		.sleb128 20
 12788 1242 08000000 		.4byte	.LCFI45
 12789 1246 12000000 		.4byte	.LCFI46
 12790 124a 0200     		.2byte	0x2
 12791 124c 7D       		.byte	0x7d
 12792 124d 1C       		.sleb128 28
 12793 124e 12000000 		.4byte	.LCFI46
 12794 1252 7E000000 		.4byte	.LFE51
 12795 1256 0200     		.2byte	0x2
 12796 1258 7D       		.byte	0x7d
 12797 1259 30       		.sleb128 48
 12798 125a 00000000 		.4byte	0
 12799 125e 00000000 		.4byte	0
 12800              	.LLST99:
 12801 1262 00000000 		.4byte	.LVL253
ARM GAS  C:\Users\Computer\AppData\Local\Temp\cc1tHs0g.s 			page 243


 12802 1266 1C000000 		.4byte	.LVL256
 12803 126a 0100     		.2byte	0x1
 12804 126c 50       		.byte	0x50
 12805 126d 1C000000 		.4byte	.LVL256
 12806 1271 54000000 		.4byte	.LVL260
 12807 1275 0100     		.2byte	0x1
 12808 1277 55       		.byte	0x55
 12809 1278 54000000 		.4byte	.LVL260
 12810 127c 76000000 		.4byte	.LVL265
 12811 1280 0300     		.2byte	0x3
 12812 1282 75       		.byte	0x75
 12813 1283 7B       		.sleb128 -5
 12814 1284 9F       		.byte	0x9f
 12815 1285 76000000 		.4byte	.LVL265
 12816 1289 7E000000 		.4byte	.LFE51
 12817 128d 0400     		.2byte	0x4
 12818 128f F3       		.byte	0xf3
 12819 1290 01       		.uleb128 0x1
 12820 1291 50       		.byte	0x50
 12821 1292 9F       		.byte	0x9f
 12822 1293 00000000 		.4byte	0
 12823 1297 00000000 		.4byte	0
 12824              	.LLST100:
 12825 129b 00000000 		.4byte	.LVL253
 12826 129f 18000000 		.4byte	.LVL254
 12827 12a3 0100     		.2byte	0x1
 12828 12a5 51       		.byte	0x51
 12829 12a6 18000000 		.4byte	.LVL254
 12830 12aa 48000000 		.4byte	.LVL259
 12831 12ae 0100     		.2byte	0x1
 12832 12b0 56       		.byte	0x56
 12833 12b1 48000000 		.4byte	.LVL259
 12834 12b5 76000000 		.4byte	.LVL266
 12835 12b9 0300     		.2byte	0x3
 12836 12bb 76       		.byte	0x76
 12837 12bc 7A       		.sleb128 -6
 12838 12bd 9F       		.byte	0x9f
 12839 12be 76000000 		.4byte	.LVL266
 12840 12c2 7E000000 		.4byte	.LFE51
 12841 12c6 0400     		.2byte	0x4
 12842 12c8 F3       		.byte	0xf3
 12843 12c9 01       		.uleb128 0x1
 12844 12ca 51       		.byte	0x51
 12845 12cb 9F       		.byte	0x9f
 12846 12cc 00000000 		.4byte	0
 12847 12d0 00000000 		.4byte	0
 12848              	.LLST101:
 12849 12d4 00000000 		.4byte	.LVL253
 12850 12d8 1A000000 		.4byte	.LVL255
 12851 12dc 0100     		.2byte	0x1
 12852 12de 53       		.byte	0x53
 12853 12df 1A000000 		.4byte	.LVL255
 12854 12e3 76000000 		.4byte	.LVL264
 12855 12e7 0100     		.2byte	0x1
 12856 12e9 54       		.byte	0x54
 12857 12ea 76000000 		.4byte	.LVL264
 12858 12ee 7E000000 		.4byte	.LFE51
ARM GAS  C:\Users\Computer\AppData\Local\Temp\cc1tHs0g.s 			page 244


 12859 12f2 0400     		.2byte	0x4
 12860 12f4 F3       		.byte	0xf3
 12861 12f5 01       		.uleb128 0x1
 12862 12f6 53       		.byte	0x53
 12863 12f7 9F       		.byte	0x9f
 12864 12f8 00000000 		.4byte	0
 12865 12fc 00000000 		.4byte	0
 12866              	.LLST102:
 12867 1300 00000000 		.4byte	.LFB52
 12868 1304 02000000 		.4byte	.LCFI47
 12869 1308 0200     		.2byte	0x2
 12870 130a 7D       		.byte	0x7d
 12871 130b 00       		.sleb128 0
 12872 130c 02000000 		.4byte	.LCFI47
 12873 1310 12000000 		.4byte	.LCFI48
 12874 1314 0200     		.2byte	0x2
 12875 1316 7D       		.byte	0x7d
 12876 1317 14       		.sleb128 20
 12877 1318 12000000 		.4byte	.LCFI48
 12878 131c 42000000 		.4byte	.LFE52
 12879 1320 0200     		.2byte	0x2
 12880 1322 7D       		.byte	0x7d
 12881 1323 28       		.sleb128 40
 12882 1324 00000000 		.4byte	0
 12883 1328 00000000 		.4byte	0
 12884              	.LLST103:
 12885 132c 00000000 		.4byte	.LVL267
 12886 1330 0C000000 		.4byte	.LVL268
 12887 1334 0100     		.2byte	0x1
 12888 1336 50       		.byte	0x50
 12889 1337 0C000000 		.4byte	.LVL268
 12890 133b 10000000 		.4byte	.LVL270
 12891 133f 0100     		.2byte	0x1
 12892 1341 56       		.byte	0x56
 12893 1342 10000000 		.4byte	.LVL270
 12894 1346 16000000 		.4byte	.LVL271
 12895 134a 0300     		.2byte	0x3
 12896 134c 76       		.byte	0x76
 12897 134d 7F       		.sleb128 -1
 12898 134e 9F       		.byte	0x9f
 12899 134f 16000000 		.4byte	.LVL271
 12900 1353 18000000 		.4byte	.LVL272
 12901 1357 0300     		.2byte	0x3
 12902 1359 70       		.byte	0x70
 12903 135a 7B       		.sleb128 -5
 12904 135b 9F       		.byte	0x9f
 12905 135c 18000000 		.4byte	.LVL272
 12906 1360 42000000 		.4byte	.LFE52
 12907 1364 0400     		.2byte	0x4
 12908 1366 F3       		.byte	0xf3
 12909 1367 01       		.uleb128 0x1
 12910 1368 50       		.byte	0x50
 12911 1369 9F       		.byte	0x9f
 12912 136a 00000000 		.4byte	0
 12913 136e 00000000 		.4byte	0
 12914              	.LLST104:
 12915 1372 00000000 		.4byte	.LVL267
ARM GAS  C:\Users\Computer\AppData\Local\Temp\cc1tHs0g.s 			page 245


 12916 1376 0E000000 		.4byte	.LVL269
 12917 137a 0100     		.2byte	0x1
 12918 137c 51       		.byte	0x51
 12919 137d 0E000000 		.4byte	.LVL269
 12920 1381 1C000000 		.4byte	.LVL273
 12921 1385 0100     		.2byte	0x1
 12922 1387 57       		.byte	0x57
 12923 1388 1C000000 		.4byte	.LVL273
 12924 138c 40000000 		.4byte	.LVL278
 12925 1390 0300     		.2byte	0x3
 12926 1392 77       		.byte	0x77
 12927 1393 75       		.sleb128 -11
 12928 1394 9F       		.byte	0x9f
 12929 1395 40000000 		.4byte	.LVL278
 12930 1399 42000000 		.4byte	.LFE52
 12931 139d 0400     		.2byte	0x4
 12932 139f F3       		.byte	0xf3
 12933 13a0 01       		.uleb128 0x1
 12934 13a1 51       		.byte	0x51
 12935 13a2 9F       		.byte	0x9f
 12936 13a3 00000000 		.4byte	0
 12937 13a7 00000000 		.4byte	0
 12938              	.LLST105:
 12939 13ab 00000000 		.4byte	.LVL267
 12940 13af 21000000 		.4byte	.LVL274-1
 12941 13b3 0100     		.2byte	0x1
 12942 13b5 53       		.byte	0x53
 12943 13b6 21000000 		.4byte	.LVL274-1
 12944 13ba 40000000 		.4byte	.LVL277
 12945 13be 0100     		.2byte	0x1
 12946 13c0 54       		.byte	0x54
 12947 13c1 40000000 		.4byte	.LVL277
 12948 13c5 42000000 		.4byte	.LFE52
 12949 13c9 0400     		.2byte	0x4
 12950 13cb F3       		.byte	0xf3
 12951 13cc 01       		.uleb128 0x1
 12952 13cd 53       		.byte	0x53
 12953 13ce 9F       		.byte	0x9f
 12954 13cf 00000000 		.4byte	0
 12955 13d3 00000000 		.4byte	0
 12956              	.LLST106:
 12957 13d7 00000000 		.4byte	.LFB53
 12958 13db 02000000 		.4byte	.LCFI49
 12959 13df 0200     		.2byte	0x2
 12960 13e1 7D       		.byte	0x7d
 12961 13e2 00       		.sleb128 0
 12962 13e3 02000000 		.4byte	.LCFI49
 12963 13e7 06000000 		.4byte	.LCFI50
 12964 13eb 0200     		.2byte	0x2
 12965 13ed 7D       		.byte	0x7d
 12966 13ee 14       		.sleb128 20
 12967 13ef 06000000 		.4byte	.LCFI50
 12968 13f3 0C000000 		.4byte	.LCFI51
 12969 13f7 0200     		.2byte	0x2
 12970 13f9 7D       		.byte	0x7d
 12971 13fa 18       		.sleb128 24
 12972 13fb 0C000000 		.4byte	.LCFI51
ARM GAS  C:\Users\Computer\AppData\Local\Temp\cc1tHs0g.s 			page 246


 12973 13ff 96000000 		.4byte	.LFE53
 12974 1403 0200     		.2byte	0x2
 12975 1405 7D       		.byte	0x7d
 12976 1406 28       		.sleb128 40
 12977 1407 00000000 		.4byte	0
 12978 140b 00000000 		.4byte	0
 12979              	.LLST107:
 12980 140f 00000000 		.4byte	.LVL279
 12981 1413 1C000000 		.4byte	.LVL280
 12982 1417 0100     		.2byte	0x1
 12983 1419 50       		.byte	0x50
 12984 141a 1C000000 		.4byte	.LVL280
 12985 141e 50000000 		.4byte	.LVL285
 12986 1422 0100     		.2byte	0x1
 12987 1424 56       		.byte	0x56
 12988 1425 50000000 		.4byte	.LVL285
 12989 1429 58000000 		.4byte	.LVL286
 12990 142d 0300     		.2byte	0x3
 12991 142f 76       		.byte	0x76
 12992 1430 7B       		.sleb128 -5
 12993 1431 9F       		.byte	0x9f
 12994 1432 58000000 		.4byte	.LVL286
 12995 1436 5C000000 		.4byte	.LVL287
 12996 143a 0300     		.2byte	0x3
 12997 143c 72       		.byte	0x72
 12998 143d 7F       		.sleb128 -1
 12999 143e 9F       		.byte	0x9f
 13000 143f 5C000000 		.4byte	.LVL287
 13001 1443 96000000 		.4byte	.LFE53
 13002 1447 0400     		.2byte	0x4
 13003 1449 F3       		.byte	0xf3
 13004 144a 01       		.uleb128 0x1
 13005 144b 50       		.byte	0x50
 13006 144c 9F       		.byte	0x9f
 13007 144d 00000000 		.4byte	0
 13008 1451 00000000 		.4byte	0
 13009              	.LLST108:
 13010 1455 00000000 		.4byte	.LVL279
 13011 1459 23000000 		.4byte	.LVL282-1
 13012 145d 0100     		.2byte	0x1
 13013 145f 51       		.byte	0x51
 13014 1460 23000000 		.4byte	.LVL282-1
 13015 1464 96000000 		.4byte	.LFE53
 13016 1468 0400     		.2byte	0x4
 13017 146a F3       		.byte	0xf3
 13018 146b 01       		.uleb128 0x1
 13019 146c 51       		.byte	0x51
 13020 146d 9F       		.byte	0x9f
 13021 146e 00000000 		.4byte	0
 13022 1472 00000000 		.4byte	0
 13023              	.LLST109:
 13024 1476 00000000 		.4byte	.LVL279
 13025 147a 1E000000 		.4byte	.LVL281
 13026 147e 0100     		.2byte	0x1
 13027 1480 53       		.byte	0x53
 13028 1481 1E000000 		.4byte	.LVL281
 13029 1485 90000000 		.4byte	.LVL292
ARM GAS  C:\Users\Computer\AppData\Local\Temp\cc1tHs0g.s 			page 247


 13030 1489 0100     		.2byte	0x1
 13031 148b 54       		.byte	0x54
 13032 148c 90000000 		.4byte	.LVL292
 13033 1490 96000000 		.4byte	.LFE53
 13034 1494 0400     		.2byte	0x4
 13035 1496 F3       		.byte	0xf3
 13036 1497 01       		.uleb128 0x1
 13037 1498 53       		.byte	0x53
 13038 1499 9F       		.byte	0x9f
 13039 149a 00000000 		.4byte	0
 13040 149e 00000000 		.4byte	0
 13041              	.LLST110:
 13042 14a2 00000000 		.4byte	.LFB54
 13043 14a6 02000000 		.4byte	.LCFI52
 13044 14aa 0200     		.2byte	0x2
 13045 14ac 7D       		.byte	0x7d
 13046 14ad 00       		.sleb128 0
 13047 14ae 02000000 		.4byte	.LCFI52
 13048 14b2 06000000 		.4byte	.LCFI53
 13049 14b6 0200     		.2byte	0x2
 13050 14b8 7D       		.byte	0x7d
 13051 14b9 14       		.sleb128 20
 13052 14ba 06000000 		.4byte	.LCFI53
 13053 14be 10000000 		.4byte	.LCFI54
 13054 14c2 0200     		.2byte	0x2
 13055 14c4 7D       		.byte	0x7d
 13056 14c5 18       		.sleb128 24
 13057 14c6 10000000 		.4byte	.LCFI54
 13058 14ca 64000000 		.4byte	.LFE54
 13059 14ce 0200     		.2byte	0x2
 13060 14d0 7D       		.byte	0x7d
 13061 14d1 28       		.sleb128 40
 13062 14d2 00000000 		.4byte	0
 13063 14d6 00000000 		.4byte	0
 13064              	.LLST111:
 13065 14da 00000000 		.4byte	.LVL293
 13066 14de 1A000000 		.4byte	.LVL296
 13067 14e2 0100     		.2byte	0x1
 13068 14e4 50       		.byte	0x50
 13069 14e5 1A000000 		.4byte	.LVL296
 13070 14e9 4A000000 		.4byte	.LVL300
 13071 14ed 0100     		.2byte	0x1
 13072 14ef 55       		.byte	0x55
 13073 14f0 4A000000 		.4byte	.LVL300
 13074 14f4 5E000000 		.4byte	.LVL304
 13075 14f8 0300     		.2byte	0x3
 13076 14fa 75       		.byte	0x75
 13077 14fb 7F       		.sleb128 -1
 13078 14fc 9F       		.byte	0x9f
 13079 14fd 5E000000 		.4byte	.LVL304
 13080 1501 64000000 		.4byte	.LFE54
 13081 1505 0400     		.2byte	0x4
 13082 1507 F3       		.byte	0xf3
 13083 1508 01       		.uleb128 0x1
 13084 1509 50       		.byte	0x50
 13085 150a 9F       		.byte	0x9f
 13086 150b 00000000 		.4byte	0
ARM GAS  C:\Users\Computer\AppData\Local\Temp\cc1tHs0g.s 			page 248


 13087 150f 00000000 		.4byte	0
 13088              	.LLST112:
 13089 1513 00000000 		.4byte	.LVL293
 13090 1517 16000000 		.4byte	.LVL294
 13091 151b 0100     		.2byte	0x1
 13092 151d 51       		.byte	0x51
 13093 151e 16000000 		.4byte	.LVL294
 13094 1522 3C000000 		.4byte	.LVL299
 13095 1526 0100     		.2byte	0x1
 13096 1528 56       		.byte	0x56
 13097 1529 3C000000 		.4byte	.LVL299
 13098 152d 5E000000 		.4byte	.LVL305
 13099 1531 0300     		.2byte	0x3
 13100 1533 76       		.byte	0x76
 13101 1534 79       		.sleb128 -7
 13102 1535 9F       		.byte	0x9f
 13103 1536 5E000000 		.4byte	.LVL305
 13104 153a 64000000 		.4byte	.LFE54
 13105 153e 0400     		.2byte	0x4
 13106 1540 F3       		.byte	0xf3
 13107 1541 01       		.uleb128 0x1
 13108 1542 51       		.byte	0x51
 13109 1543 9F       		.byte	0x9f
 13110 1544 00000000 		.4byte	0
 13111 1548 00000000 		.4byte	0
 13112              	.LLST113:
 13113 154c 00000000 		.4byte	.LVL293
 13114 1550 18000000 		.4byte	.LVL295
 13115 1554 0100     		.2byte	0x1
 13116 1556 53       		.byte	0x53
 13117 1557 18000000 		.4byte	.LVL295
 13118 155b 5E000000 		.4byte	.LVL303
 13119 155f 0100     		.2byte	0x1
 13120 1561 54       		.byte	0x54
 13121 1562 5E000000 		.4byte	.LVL303
 13122 1566 64000000 		.4byte	.LFE54
 13123 156a 0400     		.2byte	0x4
 13124 156c F3       		.byte	0xf3
 13125 156d 01       		.uleb128 0x1
 13126 156e 53       		.byte	0x53
 13127 156f 9F       		.byte	0x9f
 13128 1570 00000000 		.4byte	0
 13129 1574 00000000 		.4byte	0
 13130              	.LLST114:
 13131 1578 00000000 		.4byte	.LFB55
 13132 157c 02000000 		.4byte	.LCFI55
 13133 1580 0200     		.2byte	0x2
 13134 1582 7D       		.byte	0x7d
 13135 1583 00       		.sleb128 0
 13136 1584 02000000 		.4byte	.LCFI55
 13137 1588 06000000 		.4byte	.LCFI56
 13138 158c 0200     		.2byte	0x2
 13139 158e 7D       		.byte	0x7d
 13140 158f 14       		.sleb128 20
 13141 1590 06000000 		.4byte	.LCFI56
 13142 1594 0A000000 		.4byte	.LCFI57
 13143 1598 0200     		.2byte	0x2
ARM GAS  C:\Users\Computer\AppData\Local\Temp\cc1tHs0g.s 			page 249


 13144 159a 7D       		.byte	0x7d
 13145 159b 18       		.sleb128 24
 13146 159c 0A000000 		.4byte	.LCFI57
 13147 15a0 62000000 		.4byte	.LFE55
 13148 15a4 0200     		.2byte	0x2
 13149 15a6 7D       		.byte	0x7d
 13150 15a7 28       		.sleb128 40
 13151 15a8 00000000 		.4byte	0
 13152 15ac 00000000 		.4byte	0
 13153              	.LLST115:
 13154 15b0 00000000 		.4byte	.LVL306
 13155 15b4 18000000 		.4byte	.LVL308
 13156 15b8 0100     		.2byte	0x1
 13157 15ba 50       		.byte	0x50
 13158 15bb 18000000 		.4byte	.LVL308
 13159 15bf 3E000000 		.4byte	.LVL311
 13160 15c3 0100     		.2byte	0x1
 13161 15c5 56       		.byte	0x56
 13162 15c6 3E000000 		.4byte	.LVL311
 13163 15ca 5C000000 		.4byte	.LVL315
 13164 15ce 0300     		.2byte	0x3
 13165 15d0 76       		.byte	0x76
 13166 15d1 7C       		.sleb128 -4
 13167 15d2 9F       		.byte	0x9f
 13168 15d3 5C000000 		.4byte	.LVL315
 13169 15d7 62000000 		.4byte	.LFE55
 13170 15db 0400     		.2byte	0x4
 13171 15dd F3       		.byte	0xf3
 13172 15de 01       		.uleb128 0x1
 13173 15df 50       		.byte	0x50
 13174 15e0 9F       		.byte	0x9f
 13175 15e1 00000000 		.4byte	0
 13176 15e5 00000000 		.4byte	0
 13177              	.LLST116:
 13178 15e9 00000000 		.4byte	.LVL306
 13179 15ed 25000000 		.4byte	.LVL309-1
 13180 15f1 0100     		.2byte	0x1
 13181 15f3 51       		.byte	0x51
 13182 15f4 25000000 		.4byte	.LVL309-1
 13183 15f8 62000000 		.4byte	.LFE55
 13184 15fc 0400     		.2byte	0x4
 13185 15fe F3       		.byte	0xf3
 13186 15ff 01       		.uleb128 0x1
 13187 1600 51       		.byte	0x51
 13188 1601 9F       		.byte	0x9f
 13189 1602 00000000 		.4byte	0
 13190 1606 00000000 		.4byte	0
 13191              	.LLST117:
 13192 160a 00000000 		.4byte	.LVL306
 13193 160e 12000000 		.4byte	.LVL307
 13194 1612 0100     		.2byte	0x1
 13195 1614 53       		.byte	0x53
 13196 1615 12000000 		.4byte	.LVL307
 13197 1619 5C000000 		.4byte	.LVL314
 13198 161d 0100     		.2byte	0x1
 13199 161f 54       		.byte	0x54
 13200 1620 5C000000 		.4byte	.LVL314
ARM GAS  C:\Users\Computer\AppData\Local\Temp\cc1tHs0g.s 			page 250


 13201 1624 62000000 		.4byte	.LFE55
 13202 1628 0400     		.2byte	0x4
 13203 162a F3       		.byte	0xf3
 13204 162b 01       		.uleb128 0x1
 13205 162c 53       		.byte	0x53
 13206 162d 9F       		.byte	0x9f
 13207 162e 00000000 		.4byte	0
 13208 1632 00000000 		.4byte	0
 13209              	.LLST118:
 13210 1636 00000000 		.4byte	.LFB56
 13211 163a 02000000 		.4byte	.LCFI58
 13212 163e 0200     		.2byte	0x2
 13213 1640 7D       		.byte	0x7d
 13214 1641 00       		.sleb128 0
 13215 1642 02000000 		.4byte	.LCFI58
 13216 1646 0C000000 		.4byte	.LCFI59
 13217 164a 0200     		.2byte	0x2
 13218 164c 7D       		.byte	0x7d
 13219 164d 14       		.sleb128 20
 13220 164e 0C000000 		.4byte	.LCFI59
 13221 1652 10000000 		.4byte	.LCFI60
 13222 1656 0200     		.2byte	0x2
 13223 1658 7D       		.byte	0x7d
 13224 1659 24       		.sleb128 36
 13225 165a 10000000 		.4byte	.LCFI60
 13226 165e AE000000 		.4byte	.LFE56
 13227 1662 0200     		.2byte	0x2
 13228 1664 7D       		.byte	0x7d
 13229 1665 38       		.sleb128 56
 13230 1666 00000000 		.4byte	0
 13231 166a 00000000 		.4byte	0
 13232              	.LLST119:
 13233 166e 00000000 		.4byte	.LVL316
 13234 1672 12000000 		.4byte	.LVL317
 13235 1676 0100     		.2byte	0x1
 13236 1678 50       		.byte	0x50
 13237 1679 12000000 		.4byte	.LVL317
 13238 167d AE000000 		.4byte	.LFE56
 13239 1681 0400     		.2byte	0x4
 13240 1683 F3       		.byte	0xf3
 13241 1684 01       		.uleb128 0x1
 13242 1685 50       		.byte	0x50
 13243 1686 9F       		.byte	0x9f
 13244 1687 00000000 		.4byte	0
 13245 168b 00000000 		.4byte	0
 13246              	.LLST120:
 13247 168f 00000000 		.4byte	.LVL316
 13248 1693 4B000000 		.4byte	.LVL319-1
 13249 1697 0100     		.2byte	0x1
 13250 1699 51       		.byte	0x51
 13251 169a 4B000000 		.4byte	.LVL319-1
 13252 169e A2000000 		.4byte	.LVL325
 13253 16a2 0100     		.2byte	0x1
 13254 16a4 58       		.byte	0x58
 13255 16a5 A2000000 		.4byte	.LVL325
 13256 16a9 AE000000 		.4byte	.LFE56
 13257 16ad 0400     		.2byte	0x4
ARM GAS  C:\Users\Computer\AppData\Local\Temp\cc1tHs0g.s 			page 251


 13258 16af F3       		.byte	0xf3
 13259 16b0 01       		.uleb128 0x1
 13260 16b1 51       		.byte	0x51
 13261 16b2 9F       		.byte	0x9f
 13262 16b3 00000000 		.4byte	0
 13263 16b7 00000000 		.4byte	0
 13264              	.LLST121:
 13265 16bb 00000000 		.4byte	.LVL316
 13266 16bf 22000000 		.4byte	.LVL318
 13267 16c3 0100     		.2byte	0x1
 13268 16c5 53       		.byte	0x53
 13269 16c6 22000000 		.4byte	.LVL318
 13270 16ca A2000000 		.4byte	.LVL324
 13271 16ce 0100     		.2byte	0x1
 13272 16d0 54       		.byte	0x54
 13273 16d1 A2000000 		.4byte	.LVL324
 13274 16d5 AE000000 		.4byte	.LFE56
 13275 16d9 0400     		.2byte	0x4
 13276 16db F3       		.byte	0xf3
 13277 16dc 01       		.uleb128 0x1
 13278 16dd 53       		.byte	0x53
 13279 16de 9F       		.byte	0x9f
 13280 16df 00000000 		.4byte	0
 13281 16e3 00000000 		.4byte	0
 13282              	.LLST122:
 13283 16e7 00000000 		.4byte	.LFB57
 13284 16eb 02000000 		.4byte	.LCFI61
 13285 16ef 0200     		.2byte	0x2
 13286 16f1 7D       		.byte	0x7d
 13287 16f2 00       		.sleb128 0
 13288 16f3 02000000 		.4byte	.LCFI61
 13289 16f7 08000000 		.4byte	.LCFI62
 13290 16fb 0200     		.2byte	0x2
 13291 16fd 7D       		.byte	0x7d
 13292 16fe 14       		.sleb128 20
 13293 16ff 08000000 		.4byte	.LCFI62
 13294 1703 14000000 		.4byte	.LCFI63
 13295 1707 0200     		.2byte	0x2
 13296 1709 7D       		.byte	0x7d
 13297 170a 1C       		.sleb128 28
 13298 170b 14000000 		.4byte	.LCFI63
 13299 170f 8E000000 		.4byte	.LFE57
 13300 1713 0200     		.2byte	0x2
 13301 1715 7D       		.byte	0x7d
 13302 1716 30       		.sleb128 48
 13303 1717 00000000 		.4byte	0
 13304 171b 00000000 		.4byte	0
 13305              	.LLST123:
 13306 171f 00000000 		.4byte	.LVL326
 13307 1723 28000000 		.4byte	.LVL329
 13308 1727 0100     		.2byte	0x1
 13309 1729 50       		.byte	0x50
 13310 172a 28000000 		.4byte	.LVL329
 13311 172e 86000000 		.4byte	.LVL339
 13312 1732 0100     		.2byte	0x1
 13313 1734 58       		.byte	0x58
 13314 1735 86000000 		.4byte	.LVL339
ARM GAS  C:\Users\Computer\AppData\Local\Temp\cc1tHs0g.s 			page 252


 13315 1739 8E000000 		.4byte	.LFE57
 13316 173d 0400     		.2byte	0x4
 13317 173f F3       		.byte	0xf3
 13318 1740 01       		.uleb128 0x1
 13319 1741 50       		.byte	0x50
 13320 1742 9F       		.byte	0x9f
 13321 1743 00000000 		.4byte	0
 13322 1747 00000000 		.4byte	0
 13323              	.LLST124:
 13324 174b 00000000 		.4byte	.LVL326
 13325 174f 1E000000 		.4byte	.LVL327
 13326 1753 0100     		.2byte	0x1
 13327 1755 51       		.byte	0x51
 13328 1756 1E000000 		.4byte	.LVL327
 13329 175a 68000000 		.4byte	.LVL334
 13330 175e 0100     		.2byte	0x1
 13331 1760 55       		.byte	0x55
 13332 1761 68000000 		.4byte	.LVL334
 13333 1765 86000000 		.4byte	.LVL338
 13334 1769 0300     		.2byte	0x3
 13335 176b 75       		.byte	0x75
 13336 176c 75       		.sleb128 -11
 13337 176d 9F       		.byte	0x9f
 13338 176e 86000000 		.4byte	.LVL338
 13339 1772 8E000000 		.4byte	.LFE57
 13340 1776 0400     		.2byte	0x4
 13341 1778 F3       		.byte	0xf3
 13342 1779 01       		.uleb128 0x1
 13343 177a 51       		.byte	0x51
 13344 177b 9F       		.byte	0x9f
 13345 177c 00000000 		.4byte	0
 13346 1780 00000000 		.4byte	0
 13347              	.LLST125:
 13348 1784 00000000 		.4byte	.LVL326
 13349 1788 20000000 		.4byte	.LVL328
 13350 178c 0100     		.2byte	0x1
 13351 178e 53       		.byte	0x53
 13352 178f 20000000 		.4byte	.LVL328
 13353 1793 86000000 		.4byte	.LVL337
 13354 1797 0100     		.2byte	0x1
 13355 1799 54       		.byte	0x54
 13356 179a 86000000 		.4byte	.LVL337
 13357 179e 8E000000 		.4byte	.LFE57
 13358 17a2 0400     		.2byte	0x4
 13359 17a4 F3       		.byte	0xf3
 13360 17a5 01       		.uleb128 0x1
 13361 17a6 53       		.byte	0x53
 13362 17a7 9F       		.byte	0x9f
 13363 17a8 00000000 		.4byte	0
 13364 17ac 00000000 		.4byte	0
 13365              	.LLST126:
 13366 17b0 00000000 		.4byte	.LFB58
 13367 17b4 02000000 		.4byte	.LCFI64
 13368 17b8 0200     		.2byte	0x2
 13369 17ba 7D       		.byte	0x7d
 13370 17bb 00       		.sleb128 0
 13371 17bc 02000000 		.4byte	.LCFI64
ARM GAS  C:\Users\Computer\AppData\Local\Temp\cc1tHs0g.s 			page 253


 13372 17c0 06000000 		.4byte	.LCFI65
 13373 17c4 0200     		.2byte	0x2
 13374 17c6 7D       		.byte	0x7d
 13375 17c7 14       		.sleb128 20
 13376 17c8 06000000 		.4byte	.LCFI65
 13377 17cc 0A000000 		.4byte	.LCFI66
 13378 17d0 0200     		.2byte	0x2
 13379 17d2 7D       		.byte	0x7d
 13380 17d3 18       		.sleb128 24
 13381 17d4 0A000000 		.4byte	.LCFI66
 13382 17d8 70000000 		.4byte	.LFE58
 13383 17dc 0200     		.2byte	0x2
 13384 17de 7D       		.byte	0x7d
 13385 17df 28       		.sleb128 40
 13386 17e0 00000000 		.4byte	0
 13387 17e4 00000000 		.4byte	0
 13388              	.LLST127:
 13389 17e8 00000000 		.4byte	.LVL340
 13390 17ec 23000000 		.4byte	.LVL343-1
 13391 17f0 0100     		.2byte	0x1
 13392 17f2 50       		.byte	0x50
 13393 17f3 23000000 		.4byte	.LVL343-1
 13394 17f7 70000000 		.4byte	.LFE58
 13395 17fb 0400     		.2byte	0x4
 13396 17fd F3       		.byte	0xf3
 13397 17fe 01       		.uleb128 0x1
 13398 17ff 50       		.byte	0x50
 13399 1800 9F       		.byte	0x9f
 13400 1801 00000000 		.4byte	0
 13401 1805 00000000 		.4byte	0
 13402              	.LLST128:
 13403 1809 00000000 		.4byte	.LVL340
 13404 180d 14000000 		.4byte	.LVL341
 13405 1811 0100     		.2byte	0x1
 13406 1813 51       		.byte	0x51
 13407 1814 14000000 		.4byte	.LVL341
 13408 1818 58000000 		.4byte	.LVL346
 13409 181c 0100     		.2byte	0x1
 13410 181e 55       		.byte	0x55
 13411 181f 58000000 		.4byte	.LVL346
 13412 1823 6A000000 		.4byte	.LVL350
 13413 1827 0300     		.2byte	0x3
 13414 1829 75       		.byte	0x75
 13415 182a 76       		.sleb128 -10
 13416 182b 9F       		.byte	0x9f
 13417 182c 6A000000 		.4byte	.LVL350
 13418 1830 70000000 		.4byte	.LFE58
 13419 1834 0400     		.2byte	0x4
 13420 1836 F3       		.byte	0xf3
 13421 1837 01       		.uleb128 0x1
 13422 1838 51       		.byte	0x51
 13423 1839 9F       		.byte	0x9f
 13424 183a 00000000 		.4byte	0
 13425 183e 00000000 		.4byte	0
 13426              	.LLST129:
 13427 1842 00000000 		.4byte	.LVL340
 13428 1846 18000000 		.4byte	.LVL342
ARM GAS  C:\Users\Computer\AppData\Local\Temp\cc1tHs0g.s 			page 254


 13429 184a 0100     		.2byte	0x1
 13430 184c 53       		.byte	0x53
 13431 184d 18000000 		.4byte	.LVL342
 13432 1851 6A000000 		.4byte	.LVL349
 13433 1855 0100     		.2byte	0x1
 13434 1857 54       		.byte	0x54
 13435 1858 6A000000 		.4byte	.LVL349
 13436 185c 70000000 		.4byte	.LFE58
 13437 1860 0400     		.2byte	0x4
 13438 1862 F3       		.byte	0xf3
 13439 1863 01       		.uleb128 0x1
 13440 1864 53       		.byte	0x53
 13441 1865 9F       		.byte	0x9f
 13442 1866 00000000 		.4byte	0
 13443 186a 00000000 		.4byte	0
 13444              	.LLST130:
 13445 186e 00000000 		.4byte	.LFB59
 13446 1872 02000000 		.4byte	.LCFI67
 13447 1876 0200     		.2byte	0x2
 13448 1878 7D       		.byte	0x7d
 13449 1879 00       		.sleb128 0
 13450 187a 02000000 		.4byte	.LCFI67
 13451 187e 06000000 		.4byte	.LCFI68
 13452 1882 0200     		.2byte	0x2
 13453 1884 7D       		.byte	0x7d
 13454 1885 14       		.sleb128 20
 13455 1886 06000000 		.4byte	.LCFI68
 13456 188a 0C000000 		.4byte	.LCFI69
 13457 188e 0200     		.2byte	0x2
 13458 1890 7D       		.byte	0x7d
 13459 1891 18       		.sleb128 24
 13460 1892 0C000000 		.4byte	.LCFI69
 13461 1896 60000000 		.4byte	.LFE59
 13462 189a 0200     		.2byte	0x2
 13463 189c 7D       		.byte	0x7d
 13464 189d 28       		.sleb128 40
 13465 189e 00000000 		.4byte	0
 13466 18a2 00000000 		.4byte	0
 13467              	.LLST131:
 13468 18a6 00000000 		.4byte	.LVL351
 13469 18aa 1C000000 		.4byte	.LVL353
 13470 18ae 0100     		.2byte	0x1
 13471 18b0 50       		.byte	0x50
 13472 18b1 1C000000 		.4byte	.LVL353
 13473 18b5 44000000 		.4byte	.LVL356
 13474 18b9 0100     		.2byte	0x1
 13475 18bb 56       		.byte	0x56
 13476 18bc 44000000 		.4byte	.LVL356
 13477 18c0 5A000000 		.4byte	.LVL360
 13478 18c4 0300     		.2byte	0x3
 13479 18c6 76       		.byte	0x76
 13480 18c7 7C       		.sleb128 -4
 13481 18c8 9F       		.byte	0x9f
 13482 18c9 5A000000 		.4byte	.LVL360
 13483 18cd 60000000 		.4byte	.LFE59
 13484 18d1 0400     		.2byte	0x4
 13485 18d3 F3       		.byte	0xf3
ARM GAS  C:\Users\Computer\AppData\Local\Temp\cc1tHs0g.s 			page 255


 13486 18d4 01       		.uleb128 0x1
 13487 18d5 50       		.byte	0x50
 13488 18d6 9F       		.byte	0x9f
 13489 18d7 00000000 		.4byte	0
 13490 18db 00000000 		.4byte	0
 13491              	.LLST132:
 13492 18df 00000000 		.4byte	.LVL351
 13493 18e3 23000000 		.4byte	.LVL354-1
 13494 18e7 0100     		.2byte	0x1
 13495 18e9 51       		.byte	0x51
 13496 18ea 23000000 		.4byte	.LVL354-1
 13497 18ee 60000000 		.4byte	.LFE59
 13498 18f2 0400     		.2byte	0x4
 13499 18f4 F3       		.byte	0xf3
 13500 18f5 01       		.uleb128 0x1
 13501 18f6 51       		.byte	0x51
 13502 18f7 9F       		.byte	0x9f
 13503 18f8 00000000 		.4byte	0
 13504 18fc 00000000 		.4byte	0
 13505              	.LLST133:
 13506 1900 00000000 		.4byte	.LVL351
 13507 1904 14000000 		.4byte	.LVL352
 13508 1908 0100     		.2byte	0x1
 13509 190a 53       		.byte	0x53
 13510 190b 14000000 		.4byte	.LVL352
 13511 190f 5A000000 		.4byte	.LVL359
 13512 1913 0100     		.2byte	0x1
 13513 1915 54       		.byte	0x54
 13514 1916 5A000000 		.4byte	.LVL359
 13515 191a 60000000 		.4byte	.LFE59
 13516 191e 0400     		.2byte	0x4
 13517 1920 F3       		.byte	0xf3
 13518 1921 01       		.uleb128 0x1
 13519 1922 53       		.byte	0x53
 13520 1923 9F       		.byte	0x9f
 13521 1924 00000000 		.4byte	0
 13522 1928 00000000 		.4byte	0
 13523              	.LLST134:
 13524 192c 00000000 		.4byte	.LFB60
 13525 1930 02000000 		.4byte	.LCFI70
 13526 1934 0200     		.2byte	0x2
 13527 1936 7D       		.byte	0x7d
 13528 1937 00       		.sleb128 0
 13529 1938 02000000 		.4byte	.LCFI70
 13530 193c 06000000 		.4byte	.LCFI71
 13531 1940 0200     		.2byte	0x2
 13532 1942 7D       		.byte	0x7d
 13533 1943 14       		.sleb128 20
 13534 1944 06000000 		.4byte	.LCFI71
 13535 1948 54000000 		.4byte	.LFE60
 13536 194c 0200     		.2byte	0x2
 13537 194e 7D       		.byte	0x7d
 13538 194f 28       		.sleb128 40
 13539 1950 00000000 		.4byte	0
 13540 1954 00000000 		.4byte	0
 13541              	.LLST135:
 13542 1958 00000000 		.4byte	.LVL361
ARM GAS  C:\Users\Computer\AppData\Local\Temp\cc1tHs0g.s 			page 256


 13543 195c 16000000 		.4byte	.LVL362
 13544 1960 0100     		.2byte	0x1
 13545 1962 50       		.byte	0x50
 13546 1963 16000000 		.4byte	.LVL362
 13547 1967 54000000 		.4byte	.LFE60
 13548 196b 0400     		.2byte	0x4
 13549 196d F3       		.byte	0xf3
 13550 196e 01       		.uleb128 0x1
 13551 196f 50       		.byte	0x50
 13552 1970 9F       		.byte	0x9f
 13553 1971 00000000 		.4byte	0
 13554 1975 00000000 		.4byte	0
 13555              	.LLST136:
 13556 1979 00000000 		.4byte	.LVL361
 13557 197d 1D000000 		.4byte	.LVL364-1
 13558 1981 0100     		.2byte	0x1
 13559 1983 51       		.byte	0x51
 13560 1984 1D000000 		.4byte	.LVL364-1
 13561 1988 54000000 		.4byte	.LFE60
 13562 198c 0400     		.2byte	0x4
 13563 198e F3       		.byte	0xf3
 13564 198f 01       		.uleb128 0x1
 13565 1990 51       		.byte	0x51
 13566 1991 9F       		.byte	0x9f
 13567 1992 00000000 		.4byte	0
 13568 1996 00000000 		.4byte	0
 13569              	.LLST137:
 13570 199a 00000000 		.4byte	.LVL361
 13571 199e 18000000 		.4byte	.LVL363
 13572 19a2 0100     		.2byte	0x1
 13573 19a4 53       		.byte	0x53
 13574 19a5 18000000 		.4byte	.LVL363
 13575 19a9 52000000 		.4byte	.LVL368
 13576 19ad 0100     		.2byte	0x1
 13577 19af 54       		.byte	0x54
 13578 19b0 52000000 		.4byte	.LVL368
 13579 19b4 54000000 		.4byte	.LFE60
 13580 19b8 0400     		.2byte	0x4
 13581 19ba F3       		.byte	0xf3
 13582 19bb 01       		.uleb128 0x1
 13583 19bc 53       		.byte	0x53
 13584 19bd 9F       		.byte	0x9f
 13585 19be 00000000 		.4byte	0
 13586 19c2 00000000 		.4byte	0
 13587              	.LLST138:
 13588 19c6 00000000 		.4byte	.LFB61
 13589 19ca 02000000 		.4byte	.LCFI72
 13590 19ce 0200     		.2byte	0x2
 13591 19d0 7D       		.byte	0x7d
 13592 19d1 00       		.sleb128 0
 13593 19d2 02000000 		.4byte	.LCFI72
 13594 19d6 06000000 		.4byte	.LCFI73
 13595 19da 0200     		.2byte	0x2
 13596 19dc 7D       		.byte	0x7d
 13597 19dd 14       		.sleb128 20
 13598 19de 06000000 		.4byte	.LCFI73
 13599 19e2 40000000 		.4byte	.LFE61
ARM GAS  C:\Users\Computer\AppData\Local\Temp\cc1tHs0g.s 			page 257


 13600 19e6 0200     		.2byte	0x2
 13601 19e8 7D       		.byte	0x7d
 13602 19e9 28       		.sleb128 40
 13603 19ea 00000000 		.4byte	0
 13604 19ee 00000000 		.4byte	0
 13605              	.LLST139:
 13606 19f2 00000000 		.4byte	.LVL369
 13607 19f6 16000000 		.4byte	.LVL370
 13608 19fa 0100     		.2byte	0x1
 13609 19fc 50       		.byte	0x50
 13610 19fd 16000000 		.4byte	.LVL370
 13611 1a01 40000000 		.4byte	.LFE61
 13612 1a05 0400     		.2byte	0x4
 13613 1a07 F3       		.byte	0xf3
 13614 1a08 01       		.uleb128 0x1
 13615 1a09 50       		.byte	0x50
 13616 1a0a 9F       		.byte	0x9f
 13617 1a0b 00000000 		.4byte	0
 13618 1a0f 00000000 		.4byte	0
 13619              	.LLST140:
 13620 1a13 00000000 		.4byte	.LVL369
 13621 1a17 1D000000 		.4byte	.LVL372-1
 13622 1a1b 0100     		.2byte	0x1
 13623 1a1d 51       		.byte	0x51
 13624 1a1e 1D000000 		.4byte	.LVL372-1
 13625 1a22 40000000 		.4byte	.LFE61
 13626 1a26 0400     		.2byte	0x4
 13627 1a28 F3       		.byte	0xf3
 13628 1a29 01       		.uleb128 0x1
 13629 1a2a 51       		.byte	0x51
 13630 1a2b 9F       		.byte	0x9f
 13631 1a2c 00000000 		.4byte	0
 13632 1a30 00000000 		.4byte	0
 13633              	.LLST141:
 13634 1a34 00000000 		.4byte	.LVL369
 13635 1a38 18000000 		.4byte	.LVL371
 13636 1a3c 0100     		.2byte	0x1
 13637 1a3e 53       		.byte	0x53
 13638 1a3f 18000000 		.4byte	.LVL371
 13639 1a43 3E000000 		.4byte	.LVL375
 13640 1a47 0100     		.2byte	0x1
 13641 1a49 54       		.byte	0x54
 13642 1a4a 3E000000 		.4byte	.LVL375
 13643 1a4e 40000000 		.4byte	.LFE61
 13644 1a52 0400     		.2byte	0x4
 13645 1a54 F3       		.byte	0xf3
 13646 1a55 01       		.uleb128 0x1
 13647 1a56 53       		.byte	0x53
 13648 1a57 9F       		.byte	0x9f
 13649 1a58 00000000 		.4byte	0
 13650 1a5c 00000000 		.4byte	0
 13651              	.LLST142:
 13652 1a60 00000000 		.4byte	.LFB64
 13653 1a64 02000000 		.4byte	.LCFI74
 13654 1a68 0200     		.2byte	0x2
 13655 1a6a 7D       		.byte	0x7d
 13656 1a6b 00       		.sleb128 0
ARM GAS  C:\Users\Computer\AppData\Local\Temp\cc1tHs0g.s 			page 258


 13657 1a6c 02000000 		.4byte	.LCFI74
 13658 1a70 04000000 		.4byte	.LCFI75
 13659 1a74 0200     		.2byte	0x2
 13660 1a76 7D       		.byte	0x7d
 13661 1a77 04       		.sleb128 4
 13662 1a78 04000000 		.4byte	.LCFI75
 13663 1a7c FC000000 		.4byte	.LFE64
 13664 1a80 0200     		.2byte	0x2
 13665 1a82 7D       		.byte	0x7d
 13666 1a83 10       		.sleb128 16
 13667 1a84 00000000 		.4byte	0
 13668 1a88 00000000 		.4byte	0
 13669              	.LLST143:
 13670 1a8c 00000000 		.4byte	.LVL376
 13671 1a90 0E000000 		.4byte	.LVL377
 13672 1a94 0100     		.2byte	0x1
 13673 1a96 50       		.byte	0x50
 13674 1a97 0E000000 		.4byte	.LVL377
 13675 1a9b 1E000000 		.4byte	.LVL381
 13676 1a9f 0400     		.2byte	0x4
 13677 1aa1 F3       		.byte	0xf3
 13678 1aa2 01       		.uleb128 0x1
 13679 1aa3 50       		.byte	0x50
 13680 1aa4 9F       		.byte	0x9f
 13681 1aa5 1E000000 		.4byte	.LVL381
 13682 1aa9 20000000 		.4byte	.LVL382
 13683 1aad 0100     		.2byte	0x1
 13684 1aaf 50       		.byte	0x50
 13685 1ab0 20000000 		.4byte	.LVL382
 13686 1ab4 FC000000 		.4byte	.LFE64
 13687 1ab8 0400     		.2byte	0x4
 13688 1aba F3       		.byte	0xf3
 13689 1abb 01       		.uleb128 0x1
 13690 1abc 50       		.byte	0x50
 13691 1abd 9F       		.byte	0x9f
 13692 1abe 00000000 		.4byte	0
 13693 1ac2 00000000 		.4byte	0
 13694              	.LLST144:
 13695 1ac6 00000000 		.4byte	.LVL376
 13696 1aca 14000000 		.4byte	.LVL378
 13697 1ace 0100     		.2byte	0x1
 13698 1ad0 51       		.byte	0x51
 13699 1ad1 14000000 		.4byte	.LVL378
 13700 1ad5 1E000000 		.4byte	.LVL381
 13701 1ad9 0400     		.2byte	0x4
 13702 1adb F3       		.byte	0xf3
 13703 1adc 01       		.uleb128 0x1
 13704 1add 51       		.byte	0x51
 13705 1ade 9F       		.byte	0x9f
 13706 1adf 1E000000 		.4byte	.LVL381
 13707 1ae3 2C000000 		.4byte	.LVL383
 13708 1ae7 0100     		.2byte	0x1
 13709 1ae9 51       		.byte	0x51
 13710 1aea 2C000000 		.4byte	.LVL383
 13711 1aee 34000000 		.4byte	.LVL386
 13712 1af2 0400     		.2byte	0x4
 13713 1af4 F3       		.byte	0xf3
ARM GAS  C:\Users\Computer\AppData\Local\Temp\cc1tHs0g.s 			page 259


 13714 1af5 01       		.uleb128 0x1
 13715 1af6 51       		.byte	0x51
 13716 1af7 9F       		.byte	0x9f
 13717 1af8 34000000 		.4byte	.LVL386
 13718 1afc 3A000000 		.4byte	.LVL387
 13719 1b00 0100     		.2byte	0x1
 13720 1b02 51       		.byte	0x51
 13721 1b03 3A000000 		.4byte	.LVL387
 13722 1b07 42000000 		.4byte	.LVL390
 13723 1b0b 0400     		.2byte	0x4
 13724 1b0d F3       		.byte	0xf3
 13725 1b0e 01       		.uleb128 0x1
 13726 1b0f 51       		.byte	0x51
 13727 1b10 9F       		.byte	0x9f
 13728 1b11 42000000 		.4byte	.LVL390
 13729 1b15 48000000 		.4byte	.LVL391
 13730 1b19 0100     		.2byte	0x1
 13731 1b1b 51       		.byte	0x51
 13732 1b1c 48000000 		.4byte	.LVL391
 13733 1b20 50000000 		.4byte	.LVL394
 13734 1b24 0400     		.2byte	0x4
 13735 1b26 F3       		.byte	0xf3
 13736 1b27 01       		.uleb128 0x1
 13737 1b28 51       		.byte	0x51
 13738 1b29 9F       		.byte	0x9f
 13739 1b2a 50000000 		.4byte	.LVL394
 13740 1b2e 56000000 		.4byte	.LVL395
 13741 1b32 0100     		.2byte	0x1
 13742 1b34 51       		.byte	0x51
 13743 1b35 56000000 		.4byte	.LVL395
 13744 1b39 5E000000 		.4byte	.LVL398
 13745 1b3d 0400     		.2byte	0x4
 13746 1b3f F3       		.byte	0xf3
 13747 1b40 01       		.uleb128 0x1
 13748 1b41 51       		.byte	0x51
 13749 1b42 9F       		.byte	0x9f
 13750 1b43 5E000000 		.4byte	.LVL398
 13751 1b47 64000000 		.4byte	.LVL399
 13752 1b4b 0100     		.2byte	0x1
 13753 1b4d 51       		.byte	0x51
 13754 1b4e 64000000 		.4byte	.LVL399
 13755 1b52 6C000000 		.4byte	.LVL402
 13756 1b56 0400     		.2byte	0x4
 13757 1b58 F3       		.byte	0xf3
 13758 1b59 01       		.uleb128 0x1
 13759 1b5a 51       		.byte	0x51
 13760 1b5b 9F       		.byte	0x9f
 13761 1b5c 6C000000 		.4byte	.LVL402
 13762 1b60 72000000 		.4byte	.LVL403
 13763 1b64 0100     		.2byte	0x1
 13764 1b66 51       		.byte	0x51
 13765 1b67 72000000 		.4byte	.LVL403
 13766 1b6b 7A000000 		.4byte	.LVL406
 13767 1b6f 0400     		.2byte	0x4
 13768 1b71 F3       		.byte	0xf3
 13769 1b72 01       		.uleb128 0x1
 13770 1b73 51       		.byte	0x51
ARM GAS  C:\Users\Computer\AppData\Local\Temp\cc1tHs0g.s 			page 260


 13771 1b74 9F       		.byte	0x9f
 13772 1b75 7A000000 		.4byte	.LVL406
 13773 1b79 80000000 		.4byte	.LVL407
 13774 1b7d 0100     		.2byte	0x1
 13775 1b7f 51       		.byte	0x51
 13776 1b80 80000000 		.4byte	.LVL407
 13777 1b84 88000000 		.4byte	.LVL410
 13778 1b88 0400     		.2byte	0x4
 13779 1b8a F3       		.byte	0xf3
 13780 1b8b 01       		.uleb128 0x1
 13781 1b8c 51       		.byte	0x51
 13782 1b8d 9F       		.byte	0x9f
 13783 1b8e 88000000 		.4byte	.LVL410
 13784 1b92 8E000000 		.4byte	.LVL411
 13785 1b96 0100     		.2byte	0x1
 13786 1b98 51       		.byte	0x51
 13787 1b99 8E000000 		.4byte	.LVL411
 13788 1b9d 96000000 		.4byte	.LVL414
 13789 1ba1 0400     		.2byte	0x4
 13790 1ba3 F3       		.byte	0xf3
 13791 1ba4 01       		.uleb128 0x1
 13792 1ba5 51       		.byte	0x51
 13793 1ba6 9F       		.byte	0x9f
 13794 1ba7 96000000 		.4byte	.LVL414
 13795 1bab 9C000000 		.4byte	.LVL415
 13796 1baf 0100     		.2byte	0x1
 13797 1bb1 51       		.byte	0x51
 13798 1bb2 9C000000 		.4byte	.LVL415
 13799 1bb6 A4000000 		.4byte	.LVL418
 13800 1bba 0400     		.2byte	0x4
 13801 1bbc F3       		.byte	0xf3
 13802 1bbd 01       		.uleb128 0x1
 13803 1bbe 51       		.byte	0x51
 13804 1bbf 9F       		.byte	0x9f
 13805 1bc0 A4000000 		.4byte	.LVL418
 13806 1bc4 AA000000 		.4byte	.LVL419
 13807 1bc8 0100     		.2byte	0x1
 13808 1bca 51       		.byte	0x51
 13809 1bcb AA000000 		.4byte	.LVL419
 13810 1bcf B2000000 		.4byte	.LVL422
 13811 1bd3 0400     		.2byte	0x4
 13812 1bd5 F3       		.byte	0xf3
 13813 1bd6 01       		.uleb128 0x1
 13814 1bd7 51       		.byte	0x51
 13815 1bd8 9F       		.byte	0x9f
 13816 1bd9 B2000000 		.4byte	.LVL422
 13817 1bdd B8000000 		.4byte	.LVL423
 13818 1be1 0100     		.2byte	0x1
 13819 1be3 51       		.byte	0x51
 13820 1be4 B8000000 		.4byte	.LVL423
 13821 1be8 C0000000 		.4byte	.LVL426
 13822 1bec 0400     		.2byte	0x4
 13823 1bee F3       		.byte	0xf3
 13824 1bef 01       		.uleb128 0x1
 13825 1bf0 51       		.byte	0x51
 13826 1bf1 9F       		.byte	0x9f
 13827 1bf2 C0000000 		.4byte	.LVL426
ARM GAS  C:\Users\Computer\AppData\Local\Temp\cc1tHs0g.s 			page 261


 13828 1bf6 C6000000 		.4byte	.LVL427
 13829 1bfa 0100     		.2byte	0x1
 13830 1bfc 51       		.byte	0x51
 13831 1bfd C6000000 		.4byte	.LVL427
 13832 1c01 CE000000 		.4byte	.LVL430
 13833 1c05 0400     		.2byte	0x4
 13834 1c07 F3       		.byte	0xf3
 13835 1c08 01       		.uleb128 0x1
 13836 1c09 51       		.byte	0x51
 13837 1c0a 9F       		.byte	0x9f
 13838 1c0b CE000000 		.4byte	.LVL430
 13839 1c0f D4000000 		.4byte	.LVL431
 13840 1c13 0100     		.2byte	0x1
 13841 1c15 51       		.byte	0x51
 13842 1c16 D4000000 		.4byte	.LVL431
 13843 1c1a DC000000 		.4byte	.LVL434
 13844 1c1e 0400     		.2byte	0x4
 13845 1c20 F3       		.byte	0xf3
 13846 1c21 01       		.uleb128 0x1
 13847 1c22 51       		.byte	0x51
 13848 1c23 9F       		.byte	0x9f
 13849 1c24 DC000000 		.4byte	.LVL434
 13850 1c28 E2000000 		.4byte	.LVL435
 13851 1c2c 0100     		.2byte	0x1
 13852 1c2e 51       		.byte	0x51
 13853 1c2f E2000000 		.4byte	.LVL435
 13854 1c33 EA000000 		.4byte	.LVL438
 13855 1c37 0400     		.2byte	0x4
 13856 1c39 F3       		.byte	0xf3
 13857 1c3a 01       		.uleb128 0x1
 13858 1c3b 51       		.byte	0x51
 13859 1c3c 9F       		.byte	0x9f
 13860 1c3d EA000000 		.4byte	.LVL438
 13861 1c41 F0000000 		.4byte	.LVL439
 13862 1c45 0100     		.2byte	0x1
 13863 1c47 51       		.byte	0x51
 13864 1c48 F0000000 		.4byte	.LVL439
 13865 1c4c FC000000 		.4byte	.LFE64
 13866 1c50 0400     		.2byte	0x4
 13867 1c52 F3       		.byte	0xf3
 13868 1c53 01       		.uleb128 0x1
 13869 1c54 51       		.byte	0x51
 13870 1c55 9F       		.byte	0x9f
 13871 1c56 00000000 		.4byte	0
 13872 1c5a 00000000 		.4byte	0
 13873              	.LLST145:
 13874 1c5e 00000000 		.4byte	.LVL376
 13875 1c62 16000000 		.4byte	.LVL379
 13876 1c66 0100     		.2byte	0x1
 13877 1c68 52       		.byte	0x52
 13878 1c69 16000000 		.4byte	.LVL379
 13879 1c6d 1E000000 		.4byte	.LVL381
 13880 1c71 0400     		.2byte	0x4
 13881 1c73 F3       		.byte	0xf3
 13882 1c74 01       		.uleb128 0x1
 13883 1c75 52       		.byte	0x52
 13884 1c76 9F       		.byte	0x9f
ARM GAS  C:\Users\Computer\AppData\Local\Temp\cc1tHs0g.s 			page 262


 13885 1c77 1E000000 		.4byte	.LVL381
 13886 1c7b 2E000000 		.4byte	.LVL384
 13887 1c7f 0100     		.2byte	0x1
 13888 1c81 52       		.byte	0x52
 13889 1c82 2E000000 		.4byte	.LVL384
 13890 1c86 34000000 		.4byte	.LVL386
 13891 1c8a 0400     		.2byte	0x4
 13892 1c8c F3       		.byte	0xf3
 13893 1c8d 01       		.uleb128 0x1
 13894 1c8e 52       		.byte	0x52
 13895 1c8f 9F       		.byte	0x9f
 13896 1c90 34000000 		.4byte	.LVL386
 13897 1c94 3C000000 		.4byte	.LVL388
 13898 1c98 0100     		.2byte	0x1
 13899 1c9a 52       		.byte	0x52
 13900 1c9b 3C000000 		.4byte	.LVL388
 13901 1c9f 42000000 		.4byte	.LVL390
 13902 1ca3 0400     		.2byte	0x4
 13903 1ca5 F3       		.byte	0xf3
 13904 1ca6 01       		.uleb128 0x1
 13905 1ca7 52       		.byte	0x52
 13906 1ca8 9F       		.byte	0x9f
 13907 1ca9 42000000 		.4byte	.LVL390
 13908 1cad 4A000000 		.4byte	.LVL392
 13909 1cb1 0100     		.2byte	0x1
 13910 1cb3 52       		.byte	0x52
 13911 1cb4 4A000000 		.4byte	.LVL392
 13912 1cb8 50000000 		.4byte	.LVL394
 13913 1cbc 0400     		.2byte	0x4
 13914 1cbe F3       		.byte	0xf3
 13915 1cbf 01       		.uleb128 0x1
 13916 1cc0 52       		.byte	0x52
 13917 1cc1 9F       		.byte	0x9f
 13918 1cc2 50000000 		.4byte	.LVL394
 13919 1cc6 58000000 		.4byte	.LVL396
 13920 1cca 0100     		.2byte	0x1
 13921 1ccc 52       		.byte	0x52
 13922 1ccd 58000000 		.4byte	.LVL396
 13923 1cd1 5E000000 		.4byte	.LVL398
 13924 1cd5 0400     		.2byte	0x4
 13925 1cd7 F3       		.byte	0xf3
 13926 1cd8 01       		.uleb128 0x1
 13927 1cd9 52       		.byte	0x52
 13928 1cda 9F       		.byte	0x9f
 13929 1cdb 5E000000 		.4byte	.LVL398
 13930 1cdf 66000000 		.4byte	.LVL400
 13931 1ce3 0100     		.2byte	0x1
 13932 1ce5 52       		.byte	0x52
 13933 1ce6 66000000 		.4byte	.LVL400
 13934 1cea 6C000000 		.4byte	.LVL402
 13935 1cee 0400     		.2byte	0x4
 13936 1cf0 F3       		.byte	0xf3
 13937 1cf1 01       		.uleb128 0x1
 13938 1cf2 52       		.byte	0x52
 13939 1cf3 9F       		.byte	0x9f
 13940 1cf4 6C000000 		.4byte	.LVL402
 13941 1cf8 74000000 		.4byte	.LVL404
ARM GAS  C:\Users\Computer\AppData\Local\Temp\cc1tHs0g.s 			page 263


 13942 1cfc 0100     		.2byte	0x1
 13943 1cfe 52       		.byte	0x52
 13944 1cff 74000000 		.4byte	.LVL404
 13945 1d03 7A000000 		.4byte	.LVL406
 13946 1d07 0400     		.2byte	0x4
 13947 1d09 F3       		.byte	0xf3
 13948 1d0a 01       		.uleb128 0x1
 13949 1d0b 52       		.byte	0x52
 13950 1d0c 9F       		.byte	0x9f
 13951 1d0d 7A000000 		.4byte	.LVL406
 13952 1d11 82000000 		.4byte	.LVL408
 13953 1d15 0100     		.2byte	0x1
 13954 1d17 52       		.byte	0x52
 13955 1d18 82000000 		.4byte	.LVL408
 13956 1d1c 88000000 		.4byte	.LVL410
 13957 1d20 0400     		.2byte	0x4
 13958 1d22 F3       		.byte	0xf3
 13959 1d23 01       		.uleb128 0x1
 13960 1d24 52       		.byte	0x52
 13961 1d25 9F       		.byte	0x9f
 13962 1d26 88000000 		.4byte	.LVL410
 13963 1d2a 90000000 		.4byte	.LVL412
 13964 1d2e 0100     		.2byte	0x1
 13965 1d30 52       		.byte	0x52
 13966 1d31 90000000 		.4byte	.LVL412
 13967 1d35 96000000 		.4byte	.LVL414
 13968 1d39 0400     		.2byte	0x4
 13969 1d3b F3       		.byte	0xf3
 13970 1d3c 01       		.uleb128 0x1
 13971 1d3d 52       		.byte	0x52
 13972 1d3e 9F       		.byte	0x9f
 13973 1d3f 96000000 		.4byte	.LVL414
 13974 1d43 9E000000 		.4byte	.LVL416
 13975 1d47 0100     		.2byte	0x1
 13976 1d49 52       		.byte	0x52
 13977 1d4a 9E000000 		.4byte	.LVL416
 13978 1d4e A4000000 		.4byte	.LVL418
 13979 1d52 0400     		.2byte	0x4
 13980 1d54 F3       		.byte	0xf3
 13981 1d55 01       		.uleb128 0x1
 13982 1d56 52       		.byte	0x52
 13983 1d57 9F       		.byte	0x9f
 13984 1d58 A4000000 		.4byte	.LVL418
 13985 1d5c AC000000 		.4byte	.LVL420
 13986 1d60 0100     		.2byte	0x1
 13987 1d62 52       		.byte	0x52
 13988 1d63 AC000000 		.4byte	.LVL420
 13989 1d67 B2000000 		.4byte	.LVL422
 13990 1d6b 0400     		.2byte	0x4
 13991 1d6d F3       		.byte	0xf3
 13992 1d6e 01       		.uleb128 0x1
 13993 1d6f 52       		.byte	0x52
 13994 1d70 9F       		.byte	0x9f
 13995 1d71 B2000000 		.4byte	.LVL422
 13996 1d75 BA000000 		.4byte	.LVL424
 13997 1d79 0100     		.2byte	0x1
 13998 1d7b 52       		.byte	0x52
ARM GAS  C:\Users\Computer\AppData\Local\Temp\cc1tHs0g.s 			page 264


 13999 1d7c BA000000 		.4byte	.LVL424
 14000 1d80 C0000000 		.4byte	.LVL426
 14001 1d84 0400     		.2byte	0x4
 14002 1d86 F3       		.byte	0xf3
 14003 1d87 01       		.uleb128 0x1
 14004 1d88 52       		.byte	0x52
 14005 1d89 9F       		.byte	0x9f
 14006 1d8a C0000000 		.4byte	.LVL426
 14007 1d8e C8000000 		.4byte	.LVL428
 14008 1d92 0100     		.2byte	0x1
 14009 1d94 52       		.byte	0x52
 14010 1d95 C8000000 		.4byte	.LVL428
 14011 1d99 CE000000 		.4byte	.LVL430
 14012 1d9d 0400     		.2byte	0x4
 14013 1d9f F3       		.byte	0xf3
 14014 1da0 01       		.uleb128 0x1
 14015 1da1 52       		.byte	0x52
 14016 1da2 9F       		.byte	0x9f
 14017 1da3 CE000000 		.4byte	.LVL430
 14018 1da7 D6000000 		.4byte	.LVL432
 14019 1dab 0100     		.2byte	0x1
 14020 1dad 52       		.byte	0x52
 14021 1dae D6000000 		.4byte	.LVL432
 14022 1db2 DC000000 		.4byte	.LVL434
 14023 1db6 0400     		.2byte	0x4
 14024 1db8 F3       		.byte	0xf3
 14025 1db9 01       		.uleb128 0x1
 14026 1dba 52       		.byte	0x52
 14027 1dbb 9F       		.byte	0x9f
 14028 1dbc DC000000 		.4byte	.LVL434
 14029 1dc0 E4000000 		.4byte	.LVL436
 14030 1dc4 0100     		.2byte	0x1
 14031 1dc6 52       		.byte	0x52
 14032 1dc7 E4000000 		.4byte	.LVL436
 14033 1dcb EA000000 		.4byte	.LVL438
 14034 1dcf 0400     		.2byte	0x4
 14035 1dd1 F3       		.byte	0xf3
 14036 1dd2 01       		.uleb128 0x1
 14037 1dd3 52       		.byte	0x52
 14038 1dd4 9F       		.byte	0x9f
 14039 1dd5 EA000000 		.4byte	.LVL438
 14040 1dd9 F2000000 		.4byte	.LVL440
 14041 1ddd 0100     		.2byte	0x1
 14042 1ddf 52       		.byte	0x52
 14043 1de0 F2000000 		.4byte	.LVL440
 14044 1de4 FC000000 		.4byte	.LFE64
 14045 1de8 0400     		.2byte	0x4
 14046 1dea F3       		.byte	0xf3
 14047 1deb 01       		.uleb128 0x1
 14048 1dec 52       		.byte	0x52
 14049 1ded 9F       		.byte	0x9f
 14050 1dee 00000000 		.4byte	0
 14051 1df2 00000000 		.4byte	0
 14052              	.LLST146:
 14053 1df6 00000000 		.4byte	.LFB63
 14054 1dfa 02000000 		.4byte	.LCFI76
 14055 1dfe 0200     		.2byte	0x2
ARM GAS  C:\Users\Computer\AppData\Local\Temp\cc1tHs0g.s 			page 265


 14056 1e00 7D       		.byte	0x7d
 14057 1e01 00       		.sleb128 0
 14058 1e02 02000000 		.4byte	.LCFI76
 14059 1e06 04000000 		.4byte	.LCFI77
 14060 1e0a 0200     		.2byte	0x2
 14061 1e0c 7D       		.byte	0x7d
 14062 1e0d 10       		.sleb128 16
 14063 1e0e 04000000 		.4byte	.LCFI77
 14064 1e12 56000000 		.4byte	.LFE63
 14065 1e16 0200     		.2byte	0x2
 14066 1e18 7D       		.byte	0x7d
 14067 1e19 20       		.sleb128 32
 14068 1e1a 00000000 		.4byte	0
 14069 1e1e 00000000 		.4byte	0
 14070              	.LLST147:
 14071 1e22 00000000 		.4byte	.LVL442
 14072 1e26 0E000000 		.4byte	.LVL443
 14073 1e2a 0100     		.2byte	0x1
 14074 1e2c 50       		.byte	0x50
 14075 1e2d 0E000000 		.4byte	.LVL443
 14076 1e31 56000000 		.4byte	.LFE63
 14077 1e35 0400     		.2byte	0x4
 14078 1e37 F3       		.byte	0xf3
 14079 1e38 01       		.uleb128 0x1
 14080 1e39 50       		.byte	0x50
 14081 1e3a 9F       		.byte	0x9f
 14082 1e3b 00000000 		.4byte	0
 14083 1e3f 00000000 		.4byte	0
 14084              	.LLST148:
 14085 1e43 00000000 		.4byte	.LVL442
 14086 1e47 14000000 		.4byte	.LVL444
 14087 1e4b 0100     		.2byte	0x1
 14088 1e4d 51       		.byte	0x51
 14089 1e4e 14000000 		.4byte	.LVL444
 14090 1e52 56000000 		.4byte	.LFE63
 14091 1e56 0400     		.2byte	0x4
 14092 1e58 F3       		.byte	0xf3
 14093 1e59 01       		.uleb128 0x1
 14094 1e5a 51       		.byte	0x51
 14095 1e5b 9F       		.byte	0x9f
 14096 1e5c 00000000 		.4byte	0
 14097 1e60 00000000 		.4byte	0
 14098              	.LLST149:
 14099 1e64 00000000 		.4byte	.LVL442
 14100 1e68 18000000 		.4byte	.LVL445
 14101 1e6c 0100     		.2byte	0x1
 14102 1e6e 53       		.byte	0x53
 14103 1e6f 18000000 		.4byte	.LVL445
 14104 1e73 54000000 		.4byte	.LVL451
 14105 1e77 0100     		.2byte	0x1
 14106 1e79 54       		.byte	0x54
 14107 1e7a 54000000 		.4byte	.LVL451
 14108 1e7e 56000000 		.4byte	.LFE63
 14109 1e82 0400     		.2byte	0x4
 14110 1e84 F3       		.byte	0xf3
 14111 1e85 01       		.uleb128 0x1
 14112 1e86 53       		.byte	0x53
ARM GAS  C:\Users\Computer\AppData\Local\Temp\cc1tHs0g.s 			page 266


 14113 1e87 9F       		.byte	0x9f
 14114 1e88 00000000 		.4byte	0
 14115 1e8c 00000000 		.4byte	0
 14116              	.LLST150:
 14117 1e90 0E000000 		.4byte	.LVL443
 14118 1e94 1B000000 		.4byte	.LVL446-1
 14119 1e98 0100     		.2byte	0x1
 14120 1e9a 50       		.byte	0x50
 14121 1e9b 1B000000 		.4byte	.LVL446-1
 14122 1e9f 54000000 		.4byte	.LVL452
 14123 1ea3 0500     		.2byte	0x5
 14124 1ea5 76       		.byte	0x76
 14125 1ea6 00       		.sleb128 0
 14126 1ea7 34       		.byte	0x34
 14127 1ea8 25       		.byte	0x25
 14128 1ea9 9F       		.byte	0x9f
 14129 1eaa 00000000 		.4byte	0
 14130 1eae 00000000 		.4byte	0
 14131              	.LLST151:
 14132 1eb2 00000000 		.4byte	.LFB62
 14133 1eb6 02000000 		.4byte	.LCFI78
 14134 1eba 0200     		.2byte	0x2
 14135 1ebc 7D       		.byte	0x7d
 14136 1ebd 00       		.sleb128 0
 14137 1ebe 02000000 		.4byte	.LCFI78
 14138 1ec2 04000000 		.4byte	.LCFI79
 14139 1ec6 0200     		.2byte	0x2
 14140 1ec8 7D       		.byte	0x7d
 14141 1ec9 10       		.sleb128 16
 14142 1eca 04000000 		.4byte	.LCFI79
 14143 1ece 4C000000 		.4byte	.LFE62
 14144 1ed2 0200     		.2byte	0x2
 14145 1ed4 7D       		.byte	0x7d
 14146 1ed5 20       		.sleb128 32
 14147 1ed6 00000000 		.4byte	0
 14148 1eda 00000000 		.4byte	0
 14149              	.LLST152:
 14150 1ede 00000000 		.4byte	.LVL453
 14151 1ee2 0C000000 		.4byte	.LVL454
 14152 1ee6 0100     		.2byte	0x1
 14153 1ee8 50       		.byte	0x50
 14154 1ee9 0C000000 		.4byte	.LVL454
 14155 1eed 4C000000 		.4byte	.LFE62
 14156 1ef1 0400     		.2byte	0x4
 14157 1ef3 F3       		.byte	0xf3
 14158 1ef4 01       		.uleb128 0x1
 14159 1ef5 50       		.byte	0x50
 14160 1ef6 9F       		.byte	0x9f
 14161 1ef7 00000000 		.4byte	0
 14162 1efb 00000000 		.4byte	0
 14163              	.LLST153:
 14164 1eff 00000000 		.4byte	.LVL453
 14165 1f03 0E000000 		.4byte	.LVL455
 14166 1f07 0100     		.2byte	0x1
 14167 1f09 51       		.byte	0x51
 14168 1f0a 0E000000 		.4byte	.LVL455
 14169 1f0e 4C000000 		.4byte	.LFE62
ARM GAS  C:\Users\Computer\AppData\Local\Temp\cc1tHs0g.s 			page 267


 14170 1f12 0400     		.2byte	0x4
 14171 1f14 F3       		.byte	0xf3
 14172 1f15 01       		.uleb128 0x1
 14173 1f16 51       		.byte	0x51
 14174 1f17 9F       		.byte	0x9f
 14175 1f18 00000000 		.4byte	0
 14176 1f1c 00000000 		.4byte	0
 14177              	.LLST154:
 14178 1f20 00000000 		.4byte	.LVL453
 14179 1f24 10000000 		.4byte	.LVL456
 14180 1f28 0100     		.2byte	0x1
 14181 1f2a 52       		.byte	0x52
 14182 1f2b 10000000 		.4byte	.LVL456
 14183 1f2f 4C000000 		.4byte	.LFE62
 14184 1f33 0400     		.2byte	0x4
 14185 1f35 F3       		.byte	0xf3
 14186 1f36 01       		.uleb128 0x1
 14187 1f37 52       		.byte	0x52
 14188 1f38 9F       		.byte	0x9f
 14189 1f39 00000000 		.4byte	0
 14190 1f3d 00000000 		.4byte	0
 14191              	.LLST155:
 14192 1f41 00000000 		.4byte	.LVL453
 14193 1f45 0C000000 		.4byte	.LVL454
 14194 1f49 2000     		.2byte	0x20
 14195 1f4b 70       		.byte	0x70
 14196 1f4c 00       		.sleb128 0
 14197 1f4d 3C       		.byte	0x3c
 14198 1f4e 25       		.byte	0x25
 14199 1f4f 9F       		.byte	0x9f
 14200 1f50 93       		.byte	0x93
 14201 1f51 01       		.uleb128 0x1
 14202 1f52 70       		.byte	0x70
 14203 1f53 00       		.sleb128 0
 14204 1f54 38       		.byte	0x38
 14205 1f55 25       		.byte	0x25
 14206 1f56 3F       		.byte	0x3f
 14207 1f57 1A       		.byte	0x1a
 14208 1f58 9F       		.byte	0x9f
 14209 1f59 93       		.byte	0x93
 14210 1f5a 01       		.uleb128 0x1
 14211 1f5b 70       		.byte	0x70
 14212 1f5c 00       		.sleb128 0
 14213 1f5d 34       		.byte	0x34
 14214 1f5e 25       		.byte	0x25
 14215 1f5f 3F       		.byte	0x3f
 14216 1f60 1A       		.byte	0x1a
 14217 1f61 9F       		.byte	0x9f
 14218 1f62 93       		.byte	0x93
 14219 1f63 01       		.uleb128 0x1
 14220 1f64 70       		.byte	0x70
 14221 1f65 00       		.sleb128 0
 14222 1f66 3F       		.byte	0x3f
 14223 1f67 1A       		.byte	0x1a
 14224 1f68 9F       		.byte	0x9f
 14225 1f69 93       		.byte	0x93
 14226 1f6a 01       		.uleb128 0x1
ARM GAS  C:\Users\Computer\AppData\Local\Temp\cc1tHs0g.s 			page 268


 14227 1f6b 0C000000 		.4byte	.LVL454
 14228 1f6f 4A000000 		.4byte	.LVL461
 14229 1f73 2000     		.2byte	0x20
 14230 1f75 75       		.byte	0x75
 14231 1f76 00       		.sleb128 0
 14232 1f77 3C       		.byte	0x3c
 14233 1f78 25       		.byte	0x25
 14234 1f79 9F       		.byte	0x9f
 14235 1f7a 93       		.byte	0x93
 14236 1f7b 01       		.uleb128 0x1
 14237 1f7c 75       		.byte	0x75
 14238 1f7d 00       		.sleb128 0
 14239 1f7e 38       		.byte	0x38
 14240 1f7f 25       		.byte	0x25
 14241 1f80 3F       		.byte	0x3f
 14242 1f81 1A       		.byte	0x1a
 14243 1f82 9F       		.byte	0x9f
 14244 1f83 93       		.byte	0x93
 14245 1f84 01       		.uleb128 0x1
 14246 1f85 75       		.byte	0x75
 14247 1f86 00       		.sleb128 0
 14248 1f87 34       		.byte	0x34
 14249 1f88 25       		.byte	0x25
 14250 1f89 3F       		.byte	0x3f
 14251 1f8a 1A       		.byte	0x1a
 14252 1f8b 9F       		.byte	0x9f
 14253 1f8c 93       		.byte	0x93
 14254 1f8d 01       		.uleb128 0x1
 14255 1f8e 75       		.byte	0x75
 14256 1f8f 00       		.sleb128 0
 14257 1f90 3F       		.byte	0x3f
 14258 1f91 1A       		.byte	0x1a
 14259 1f92 9F       		.byte	0x9f
 14260 1f93 93       		.byte	0x93
 14261 1f94 01       		.uleb128 0x1
 14262 1f95 00000000 		.4byte	0
 14263 1f99 00000000 		.4byte	0
 14264              	.LLST156:
 14265 1f9d 00000000 		.4byte	.LFB65
 14266 1fa1 02000000 		.4byte	.LCFI80
 14267 1fa5 0200     		.2byte	0x2
 14268 1fa7 7D       		.byte	0x7d
 14269 1fa8 00       		.sleb128 0
 14270 1fa9 02000000 		.4byte	.LCFI80
 14271 1fad 08000000 		.4byte	.LCFI81
 14272 1fb1 0200     		.2byte	0x2
 14273 1fb3 7D       		.byte	0x7d
 14274 1fb4 14       		.sleb128 20
 14275 1fb5 08000000 		.4byte	.LCFI81
 14276 1fb9 0C000000 		.4byte	.LCFI82
 14277 1fbd 0200     		.2byte	0x2
 14278 1fbf 7D       		.byte	0x7d
 14279 1fc0 1C       		.sleb128 28
 14280 1fc1 0C000000 		.4byte	.LCFI82
 14281 1fc5 C4000000 		.4byte	.LFE65
 14282 1fc9 0200     		.2byte	0x2
 14283 1fcb 7D       		.byte	0x7d
ARM GAS  C:\Users\Computer\AppData\Local\Temp\cc1tHs0g.s 			page 269


 14284 1fcc 38       		.sleb128 56
 14285 1fcd 00000000 		.4byte	0
 14286 1fd1 00000000 		.4byte	0
 14287              	.LLST157:
 14288 1fd5 00000000 		.4byte	.LVL462
 14289 1fd9 00000000 		.4byte	.LVL462
 14290 1fdd 0100     		.2byte	0x1
 14291 1fdf 50       		.byte	0x50
 14292 1fe0 00000000 		.4byte	.LVL462
 14293 1fe4 16000000 		.4byte	.LVL464
 14294 1fe8 0500     		.2byte	0x5
 14295 1fea 70       		.byte	0x70
 14296 1feb 00       		.sleb128 0
 14297 1fec 32       		.byte	0x32
 14298 1fed 24       		.byte	0x24
 14299 1fee 9F       		.byte	0x9f
 14300 1fef 16000000 		.4byte	.LVL464
 14301 1ff3 36000000 		.4byte	.LVL466
 14302 1ff7 0600     		.2byte	0x6
 14303 1ff9 F3       		.byte	0xf3
 14304 1ffa 01       		.uleb128 0x1
 14305 1ffb 50       		.byte	0x50
 14306 1ffc 32       		.byte	0x32
 14307 1ffd 24       		.byte	0x24
 14308 1ffe 9F       		.byte	0x9f
 14309 1fff BE000000 		.4byte	.LVL476
 14310 2003 C4000000 		.4byte	.LFE65
 14311 2007 0600     		.2byte	0x6
 14312 2009 F3       		.byte	0xf3
 14313 200a 01       		.uleb128 0x1
 14314 200b 50       		.byte	0x50
 14315 200c 32       		.byte	0x32
 14316 200d 24       		.byte	0x24
 14317 200e 9F       		.byte	0x9f
 14318 200f 00000000 		.4byte	0
 14319 2013 00000000 		.4byte	0
 14320              	.LLST158:
 14321 2017 00000000 		.4byte	.LVL462
 14322 201b 2A000000 		.4byte	.LVL465
 14323 201f 0100     		.2byte	0x1
 14324 2021 51       		.byte	0x51
 14325 2022 2A000000 		.4byte	.LVL465
 14326 2026 BE000000 		.4byte	.LVL476
 14327 202a 0400     		.2byte	0x4
 14328 202c F3       		.byte	0xf3
 14329 202d 01       		.uleb128 0x1
 14330 202e 51       		.byte	0x51
 14331 202f 9F       		.byte	0x9f
 14332 2030 BE000000 		.4byte	.LVL476
 14333 2034 C4000000 		.4byte	.LFE65
 14334 2038 0100     		.2byte	0x1
 14335 203a 51       		.byte	0x51
 14336 203b 00000000 		.4byte	0
 14337 203f 00000000 		.4byte	0
 14338              	.LLST159:
 14339 2043 00000000 		.4byte	.LVL462
 14340 2047 14000000 		.4byte	.LVL463
ARM GAS  C:\Users\Computer\AppData\Local\Temp\cc1tHs0g.s 			page 270


 14341 204b 0100     		.2byte	0x1
 14342 204d 53       		.byte	0x53
 14343 204e 14000000 		.4byte	.LVL463
 14344 2052 B6000000 		.4byte	.LVL475
 14345 2056 0100     		.2byte	0x1
 14346 2058 54       		.byte	0x54
 14347 2059 B6000000 		.4byte	.LVL475
 14348 205d BE000000 		.4byte	.LVL476
 14349 2061 0400     		.2byte	0x4
 14350 2063 F3       		.byte	0xf3
 14351 2064 01       		.uleb128 0x1
 14352 2065 53       		.byte	0x53
 14353 2066 9F       		.byte	0x9f
 14354 2067 BE000000 		.4byte	.LVL476
 14355 206b C4000000 		.4byte	.LFE65
 14356 206f 0100     		.2byte	0x1
 14357 2071 54       		.byte	0x54
 14358 2072 00000000 		.4byte	0
 14359 2076 00000000 		.4byte	0
 14360              	.LLST160:
 14361 207a 00000000 		.4byte	.LVL462
 14362 207e 3E000000 		.4byte	.LVL467
 14363 2082 0200     		.2byte	0x2
 14364 2084 30       		.byte	0x30
 14365 2085 9F       		.byte	0x9f
 14366 2086 3E000000 		.4byte	.LVL467
 14367 208a 50000000 		.4byte	.LVL468
 14368 208e 0200     		.2byte	0x2
 14369 2090 31       		.byte	0x31
 14370 2091 9F       		.byte	0x9f
 14371 2092 50000000 		.4byte	.LVL468
 14372 2096 66000000 		.4byte	.LVL469
 14373 209a 0200     		.2byte	0x2
 14374 209c 32       		.byte	0x32
 14375 209d 9F       		.byte	0x9f
 14376 209e 66000000 		.4byte	.LVL469
 14377 20a2 74000000 		.4byte	.LVL470
 14378 20a6 0200     		.2byte	0x2
 14379 20a8 33       		.byte	0x33
 14380 20a9 9F       		.byte	0x9f
 14381 20aa 74000000 		.4byte	.LVL470
 14382 20ae 8A000000 		.4byte	.LVL471
 14383 20b2 0200     		.2byte	0x2
 14384 20b4 34       		.byte	0x34
 14385 20b5 9F       		.byte	0x9f
 14386 20b6 8A000000 		.4byte	.LVL471
 14387 20ba 98000000 		.4byte	.LVL472
 14388 20be 0200     		.2byte	0x2
 14389 20c0 31       		.byte	0x31
 14390 20c1 9F       		.byte	0x9f
 14391 20c2 98000000 		.4byte	.LVL472
 14392 20c6 A6000000 		.4byte	.LVL473
 14393 20ca 0200     		.2byte	0x2
 14394 20cc 32       		.byte	0x32
 14395 20cd 9F       		.byte	0x9f
 14396 20ce A6000000 		.4byte	.LVL473
 14397 20d2 B4000000 		.4byte	.LVL474
ARM GAS  C:\Users\Computer\AppData\Local\Temp\cc1tHs0g.s 			page 271


 14398 20d6 0200     		.2byte	0x2
 14399 20d8 33       		.byte	0x33
 14400 20d9 9F       		.byte	0x9f
 14401 20da B4000000 		.4byte	.LVL474
 14402 20de BE000000 		.4byte	.LVL476
 14403 20e2 0200     		.2byte	0x2
 14404 20e4 34       		.byte	0x34
 14405 20e5 9F       		.byte	0x9f
 14406 20e6 BE000000 		.4byte	.LVL476
 14407 20ea C4000000 		.4byte	.LFE65
 14408 20ee 0200     		.2byte	0x2
 14409 20f0 30       		.byte	0x30
 14410 20f1 9F       		.byte	0x9f
 14411 20f2 00000000 		.4byte	0
 14412 20f6 00000000 		.4byte	0
 14413              	.LLST161:
 14414 20fa 00000000 		.4byte	.LFB66
 14415 20fe 02000000 		.4byte	.LCFI83
 14416 2102 0200     		.2byte	0x2
 14417 2104 7D       		.byte	0x7d
 14418 2105 00       		.sleb128 0
 14419 2106 02000000 		.4byte	.LCFI83
 14420 210a 6A000000 		.4byte	.LFE66
 14421 210e 0200     		.2byte	0x2
 14422 2110 7D       		.byte	0x7d
 14423 2111 04       		.sleb128 4
 14424 2112 00000000 		.4byte	0
 14425 2116 00000000 		.4byte	0
 14426              	.LLST162:
 14427 211a 00000000 		.4byte	.LVL477
 14428 211e 5A000000 		.4byte	.LVL486
 14429 2122 0100     		.2byte	0x1
 14430 2124 50       		.byte	0x50
 14431 2125 5A000000 		.4byte	.LVL486
 14432 2129 66000000 		.4byte	.LVL488
 14433 212d 0400     		.2byte	0x4
 14434 212f F3       		.byte	0xf3
 14435 2130 01       		.uleb128 0x1
 14436 2131 50       		.byte	0x50
 14437 2132 9F       		.byte	0x9f
 14438 2133 66000000 		.4byte	.LVL488
 14439 2137 68000000 		.4byte	.LVL489
 14440 213b 0100     		.2byte	0x1
 14441 213d 50       		.byte	0x50
 14442 213e 68000000 		.4byte	.LVL489
 14443 2142 6A000000 		.4byte	.LFE66
 14444 2146 0400     		.2byte	0x4
 14445 2148 F3       		.byte	0xf3
 14446 2149 01       		.uleb128 0x1
 14447 214a 50       		.byte	0x50
 14448 214b 9F       		.byte	0x9f
 14449 214c 00000000 		.4byte	0
 14450 2150 00000000 		.4byte	0
 14451              	.LLST163:
 14452 2154 00000000 		.4byte	.LVL477
 14453 2158 58000000 		.4byte	.LVL485
 14454 215c 0100     		.2byte	0x1
ARM GAS  C:\Users\Computer\AppData\Local\Temp\cc1tHs0g.s 			page 272


 14455 215e 51       		.byte	0x51
 14456 215f 58000000 		.4byte	.LVL485
 14457 2163 66000000 		.4byte	.LVL488
 14458 2167 0400     		.2byte	0x4
 14459 2169 F3       		.byte	0xf3
 14460 216a 01       		.uleb128 0x1
 14461 216b 51       		.byte	0x51
 14462 216c 9F       		.byte	0x9f
 14463 216d 66000000 		.4byte	.LVL488
 14464 2171 6A000000 		.4byte	.LFE66
 14465 2175 0100     		.2byte	0x1
 14466 2177 51       		.byte	0x51
 14467 2178 00000000 		.4byte	0
 14468 217c 00000000 		.4byte	0
 14469              	.LLST164:
 14470 2180 00000000 		.4byte	.LVL477
 14471 2184 0E000000 		.4byte	.LVL478
 14472 2188 0200     		.2byte	0x2
 14473 218a 30       		.byte	0x30
 14474 218b 9F       		.byte	0x9f
 14475 218c 0E000000 		.4byte	.LVL478
 14476 2190 1A000000 		.4byte	.LVL479
 14477 2194 0200     		.2byte	0x2
 14478 2196 31       		.byte	0x31
 14479 2197 9F       		.byte	0x9f
 14480 2198 1A000000 		.4byte	.LVL479
 14481 219c 26000000 		.4byte	.LVL480
 14482 21a0 0200     		.2byte	0x2
 14483 21a2 32       		.byte	0x32
 14484 21a3 9F       		.byte	0x9f
 14485 21a4 26000000 		.4byte	.LVL480
 14486 21a8 32000000 		.4byte	.LVL481
 14487 21ac 0200     		.2byte	0x2
 14488 21ae 33       		.byte	0x33
 14489 21af 9F       		.byte	0x9f
 14490 21b0 32000000 		.4byte	.LVL481
 14491 21b4 3E000000 		.4byte	.LVL482
 14492 21b8 0200     		.2byte	0x2
 14493 21ba 34       		.byte	0x34
 14494 21bb 9F       		.byte	0x9f
 14495 21bc 3E000000 		.4byte	.LVL482
 14496 21c0 4A000000 		.4byte	.LVL483
 14497 21c4 0200     		.2byte	0x2
 14498 21c6 35       		.byte	0x35
 14499 21c7 9F       		.byte	0x9f
 14500 21c8 4A000000 		.4byte	.LVL483
 14501 21cc 56000000 		.4byte	.LVL484
 14502 21d0 0200     		.2byte	0x2
 14503 21d2 36       		.byte	0x36
 14504 21d3 9F       		.byte	0x9f
 14505 21d4 56000000 		.4byte	.LVL484
 14506 21d8 64000000 		.4byte	.LVL487
 14507 21dc 0200     		.2byte	0x2
 14508 21de 37       		.byte	0x37
 14509 21df 9F       		.byte	0x9f
 14510 21e0 00000000 		.4byte	0
 14511 21e4 00000000 		.4byte	0
ARM GAS  C:\Users\Computer\AppData\Local\Temp\cc1tHs0g.s 			page 273


 14512              	.LLST165:
 14513 21e8 00000000 		.4byte	.LVL477
 14514 21ec 0E000000 		.4byte	.LVL478
 14515 21f0 0700     		.2byte	0x7
 14516 21f2 71       		.byte	0x71
 14517 21f3 00       		.sleb128 0
 14518 21f4 94       		.byte	0x94
 14519 21f5 02       		.byte	0x2
 14520 21f6 37       		.byte	0x37
 14521 21f7 25       		.byte	0x25
 14522 21f8 9F       		.byte	0x9f
 14523 21f9 0E000000 		.4byte	.LVL478
 14524 21fd 1A000000 		.4byte	.LVL479
 14525 2201 0700     		.2byte	0x7
 14526 2203 71       		.byte	0x71
 14527 2204 02       		.sleb128 2
 14528 2205 94       		.byte	0x94
 14529 2206 02       		.byte	0x2
 14530 2207 37       		.byte	0x37
 14531 2208 25       		.byte	0x25
 14532 2209 9F       		.byte	0x9f
 14533 220a 1A000000 		.4byte	.LVL479
 14534 220e 26000000 		.4byte	.LVL480
 14535 2212 0700     		.2byte	0x7
 14536 2214 71       		.byte	0x71
 14537 2215 04       		.sleb128 4
 14538 2216 94       		.byte	0x94
 14539 2217 02       		.byte	0x2
 14540 2218 37       		.byte	0x37
 14541 2219 25       		.byte	0x25
 14542 221a 9F       		.byte	0x9f
 14543 221b 26000000 		.4byte	.LVL480
 14544 221f 32000000 		.4byte	.LVL481
 14545 2223 0700     		.2byte	0x7
 14546 2225 71       		.byte	0x71
 14547 2226 06       		.sleb128 6
 14548 2227 94       		.byte	0x94
 14549 2228 02       		.byte	0x2
 14550 2229 37       		.byte	0x37
 14551 222a 25       		.byte	0x25
 14552 222b 9F       		.byte	0x9f
 14553 222c 32000000 		.4byte	.LVL481
 14554 2230 3E000000 		.4byte	.LVL482
 14555 2234 0700     		.2byte	0x7
 14556 2236 71       		.byte	0x71
 14557 2237 08       		.sleb128 8
 14558 2238 94       		.byte	0x94
 14559 2239 02       		.byte	0x2
 14560 223a 37       		.byte	0x37
 14561 223b 25       		.byte	0x25
 14562 223c 9F       		.byte	0x9f
 14563 223d 3E000000 		.4byte	.LVL482
 14564 2241 4A000000 		.4byte	.LVL483
 14565 2245 0700     		.2byte	0x7
 14566 2247 71       		.byte	0x71
 14567 2248 0A       		.sleb128 10
 14568 2249 94       		.byte	0x94
ARM GAS  C:\Users\Computer\AppData\Local\Temp\cc1tHs0g.s 			page 274


 14569 224a 02       		.byte	0x2
 14570 224b 37       		.byte	0x37
 14571 224c 25       		.byte	0x25
 14572 224d 9F       		.byte	0x9f
 14573 224e 4A000000 		.4byte	.LVL483
 14574 2252 56000000 		.4byte	.LVL484
 14575 2256 0700     		.2byte	0x7
 14576 2258 71       		.byte	0x71
 14577 2259 0C       		.sleb128 12
 14578 225a 94       		.byte	0x94
 14579 225b 02       		.byte	0x2
 14580 225c 37       		.byte	0x37
 14581 225d 25       		.byte	0x25
 14582 225e 9F       		.byte	0x9f
 14583 225f 56000000 		.4byte	.LVL484
 14584 2263 58000000 		.4byte	.LVL485
 14585 2267 0700     		.2byte	0x7
 14586 2269 71       		.byte	0x71
 14587 226a 0E       		.sleb128 14
 14588 226b 94       		.byte	0x94
 14589 226c 02       		.byte	0x2
 14590 226d 37       		.byte	0x37
 14591 226e 25       		.byte	0x25
 14592 226f 9F       		.byte	0x9f
 14593 2270 58000000 		.4byte	.LVL485
 14594 2274 64000000 		.4byte	.LVL487
 14595 2278 0A00     		.2byte	0xa
 14596 227a F3       		.byte	0xf3
 14597 227b 01       		.uleb128 0x1
 14598 227c 51       		.byte	0x51
 14599 227d 23       		.byte	0x23
 14600 227e 0E       		.uleb128 0xe
 14601 227f 94       		.byte	0x94
 14602 2280 02       		.byte	0x2
 14603 2281 37       		.byte	0x37
 14604 2282 25       		.byte	0x25
 14605 2283 9F       		.byte	0x9f
 14606 2284 00000000 		.4byte	0
 14607 2288 00000000 		.4byte	0
 14608              	.LLST166:
 14609 228c 00000000 		.4byte	.LFB67
 14610 2290 02000000 		.4byte	.LCFI84
 14611 2294 0200     		.2byte	0x2
 14612 2296 7D       		.byte	0x7d
 14613 2297 00       		.sleb128 0
 14614 2298 02000000 		.4byte	.LCFI84
 14615 229c 6A000000 		.4byte	.LFE67
 14616 22a0 0200     		.2byte	0x2
 14617 22a2 7D       		.byte	0x7d
 14618 22a3 04       		.sleb128 4
 14619 22a4 00000000 		.4byte	0
 14620 22a8 00000000 		.4byte	0
 14621              	.LLST167:
 14622 22ac 00000000 		.4byte	.LVL490
 14623 22b0 5A000000 		.4byte	.LVL499
 14624 22b4 0100     		.2byte	0x1
 14625 22b6 50       		.byte	0x50
ARM GAS  C:\Users\Computer\AppData\Local\Temp\cc1tHs0g.s 			page 275


 14626 22b7 5A000000 		.4byte	.LVL499
 14627 22bb 66000000 		.4byte	.LVL501
 14628 22bf 0400     		.2byte	0x4
 14629 22c1 F3       		.byte	0xf3
 14630 22c2 01       		.uleb128 0x1
 14631 22c3 50       		.byte	0x50
 14632 22c4 9F       		.byte	0x9f
 14633 22c5 66000000 		.4byte	.LVL501
 14634 22c9 68000000 		.4byte	.LVL502
 14635 22cd 0100     		.2byte	0x1
 14636 22cf 50       		.byte	0x50
 14637 22d0 68000000 		.4byte	.LVL502
 14638 22d4 6A000000 		.4byte	.LFE67
 14639 22d8 0400     		.2byte	0x4
 14640 22da F3       		.byte	0xf3
 14641 22db 01       		.uleb128 0x1
 14642 22dc 50       		.byte	0x50
 14643 22dd 9F       		.byte	0x9f
 14644 22de 00000000 		.4byte	0
 14645 22e2 00000000 		.4byte	0
 14646              	.LLST168:
 14647 22e6 00000000 		.4byte	.LVL490
 14648 22ea 58000000 		.4byte	.LVL498
 14649 22ee 0100     		.2byte	0x1
 14650 22f0 51       		.byte	0x51
 14651 22f1 58000000 		.4byte	.LVL498
 14652 22f5 66000000 		.4byte	.LVL501
 14653 22f9 0400     		.2byte	0x4
 14654 22fb F3       		.byte	0xf3
 14655 22fc 01       		.uleb128 0x1
 14656 22fd 51       		.byte	0x51
 14657 22fe 9F       		.byte	0x9f
 14658 22ff 66000000 		.4byte	.LVL501
 14659 2303 6A000000 		.4byte	.LFE67
 14660 2307 0100     		.2byte	0x1
 14661 2309 51       		.byte	0x51
 14662 230a 00000000 		.4byte	0
 14663 230e 00000000 		.4byte	0
 14664              	.LLST169:
 14665 2312 00000000 		.4byte	.LVL490
 14666 2316 0E000000 		.4byte	.LVL491
 14667 231a 0200     		.2byte	0x2
 14668 231c 30       		.byte	0x30
 14669 231d 9F       		.byte	0x9f
 14670 231e 0E000000 		.4byte	.LVL491
 14671 2322 1A000000 		.4byte	.LVL492
 14672 2326 0200     		.2byte	0x2
 14673 2328 31       		.byte	0x31
 14674 2329 9F       		.byte	0x9f
 14675 232a 1A000000 		.4byte	.LVL492
 14676 232e 26000000 		.4byte	.LVL493
 14677 2332 0200     		.2byte	0x2
 14678 2334 32       		.byte	0x32
 14679 2335 9F       		.byte	0x9f
 14680 2336 26000000 		.4byte	.LVL493
 14681 233a 32000000 		.4byte	.LVL494
 14682 233e 0200     		.2byte	0x2
ARM GAS  C:\Users\Computer\AppData\Local\Temp\cc1tHs0g.s 			page 276


 14683 2340 33       		.byte	0x33
 14684 2341 9F       		.byte	0x9f
 14685 2342 32000000 		.4byte	.LVL494
 14686 2346 3E000000 		.4byte	.LVL495
 14687 234a 0200     		.2byte	0x2
 14688 234c 34       		.byte	0x34
 14689 234d 9F       		.byte	0x9f
 14690 234e 3E000000 		.4byte	.LVL495
 14691 2352 4A000000 		.4byte	.LVL496
 14692 2356 0200     		.2byte	0x2
 14693 2358 35       		.byte	0x35
 14694 2359 9F       		.byte	0x9f
 14695 235a 4A000000 		.4byte	.LVL496
 14696 235e 56000000 		.4byte	.LVL497
 14697 2362 0200     		.2byte	0x2
 14698 2364 36       		.byte	0x36
 14699 2365 9F       		.byte	0x9f
 14700 2366 56000000 		.4byte	.LVL497
 14701 236a 64000000 		.4byte	.LVL500
 14702 236e 0200     		.2byte	0x2
 14703 2370 37       		.byte	0x37
 14704 2371 9F       		.byte	0x9f
 14705 2372 00000000 		.4byte	0
 14706 2376 00000000 		.4byte	0
 14707              	.LLST170:
 14708 237a 00000000 		.4byte	.LVL490
 14709 237e 0E000000 		.4byte	.LVL491
 14710 2382 0700     		.2byte	0x7
 14711 2384 71       		.byte	0x71
 14712 2385 00       		.sleb128 0
 14713 2386 94       		.byte	0x94
 14714 2387 02       		.byte	0x2
 14715 2388 37       		.byte	0x37
 14716 2389 25       		.byte	0x25
 14717 238a 9F       		.byte	0x9f
 14718 238b 0E000000 		.4byte	.LVL491
 14719 238f 1A000000 		.4byte	.LVL492
 14720 2393 0700     		.2byte	0x7
 14721 2395 71       		.byte	0x71
 14722 2396 02       		.sleb128 2
 14723 2397 94       		.byte	0x94
 14724 2398 02       		.byte	0x2
 14725 2399 37       		.byte	0x37
 14726 239a 25       		.byte	0x25
 14727 239b 9F       		.byte	0x9f
 14728 239c 1A000000 		.4byte	.LVL492
 14729 23a0 26000000 		.4byte	.LVL493
 14730 23a4 0700     		.2byte	0x7
 14731 23a6 71       		.byte	0x71
 14732 23a7 04       		.sleb128 4
 14733 23a8 94       		.byte	0x94
 14734 23a9 02       		.byte	0x2
 14735 23aa 37       		.byte	0x37
 14736 23ab 25       		.byte	0x25
 14737 23ac 9F       		.byte	0x9f
 14738 23ad 26000000 		.4byte	.LVL493
 14739 23b1 32000000 		.4byte	.LVL494
ARM GAS  C:\Users\Computer\AppData\Local\Temp\cc1tHs0g.s 			page 277


 14740 23b5 0700     		.2byte	0x7
 14741 23b7 71       		.byte	0x71
 14742 23b8 06       		.sleb128 6
 14743 23b9 94       		.byte	0x94
 14744 23ba 02       		.byte	0x2
 14745 23bb 37       		.byte	0x37
 14746 23bc 25       		.byte	0x25
 14747 23bd 9F       		.byte	0x9f
 14748 23be 32000000 		.4byte	.LVL494
 14749 23c2 3E000000 		.4byte	.LVL495
 14750 23c6 0700     		.2byte	0x7
 14751 23c8 71       		.byte	0x71
 14752 23c9 08       		.sleb128 8
 14753 23ca 94       		.byte	0x94
 14754 23cb 02       		.byte	0x2
 14755 23cc 37       		.byte	0x37
 14756 23cd 25       		.byte	0x25
 14757 23ce 9F       		.byte	0x9f
 14758 23cf 3E000000 		.4byte	.LVL495
 14759 23d3 4A000000 		.4byte	.LVL496
 14760 23d7 0700     		.2byte	0x7
 14761 23d9 71       		.byte	0x71
 14762 23da 0A       		.sleb128 10
 14763 23db 94       		.byte	0x94
 14764 23dc 02       		.byte	0x2
 14765 23dd 37       		.byte	0x37
 14766 23de 25       		.byte	0x25
 14767 23df 9F       		.byte	0x9f
 14768 23e0 4A000000 		.4byte	.LVL496
 14769 23e4 56000000 		.4byte	.LVL497
 14770 23e8 0700     		.2byte	0x7
 14771 23ea 71       		.byte	0x71
 14772 23eb 0C       		.sleb128 12
 14773 23ec 94       		.byte	0x94
 14774 23ed 02       		.byte	0x2
 14775 23ee 37       		.byte	0x37
 14776 23ef 25       		.byte	0x25
 14777 23f0 9F       		.byte	0x9f
 14778 23f1 56000000 		.4byte	.LVL497
 14779 23f5 58000000 		.4byte	.LVL498
 14780 23f9 0700     		.2byte	0x7
 14781 23fb 71       		.byte	0x71
 14782 23fc 0E       		.sleb128 14
 14783 23fd 94       		.byte	0x94
 14784 23fe 02       		.byte	0x2
 14785 23ff 37       		.byte	0x37
 14786 2400 25       		.byte	0x25
 14787 2401 9F       		.byte	0x9f
 14788 2402 58000000 		.4byte	.LVL498
 14789 2406 64000000 		.4byte	.LVL500
 14790 240a 0A00     		.2byte	0xa
 14791 240c F3       		.byte	0xf3
 14792 240d 01       		.uleb128 0x1
 14793 240e 51       		.byte	0x51
 14794 240f 23       		.byte	0x23
 14795 2410 0E       		.uleb128 0xe
 14796 2411 94       		.byte	0x94
ARM GAS  C:\Users\Computer\AppData\Local\Temp\cc1tHs0g.s 			page 278


 14797 2412 02       		.byte	0x2
 14798 2413 37       		.byte	0x37
 14799 2414 25       		.byte	0x25
 14800 2415 9F       		.byte	0x9f
 14801 2416 00000000 		.4byte	0
 14802 241a 00000000 		.4byte	0
 14803              		.section	.debug_aranges,"",%progbits
 14804 0000 2C010000 		.4byte	0x12c
 14805 0004 0200     		.2byte	0x2
 14806 0006 00000000 		.4byte	.Ldebug_info0
 14807 000a 04       		.byte	0x4
 14808 000b 00       		.byte	0
 14809 000c 0000     		.2byte	0
 14810 000e 0000     		.2byte	0
 14811 0010 00000000 		.4byte	.LFB34
 14812 0014 78000000 		.4byte	.LFE34-.LFB34
 14813 0018 00000000 		.4byte	.LFB33
 14814 001c F6000000 		.4byte	.LFE33-.LFB33
 14815 0020 00000000 		.4byte	.LFB35
 14816 0024 4E000000 		.4byte	.LFE35-.LFB35
 14817 0028 00000000 		.4byte	.LFB36
 14818 002c 66010000 		.4byte	.LFE36-.LFB36
 14819 0030 00000000 		.4byte	.LFB37
 14820 0034 76010000 		.4byte	.LFE37-.LFB37
 14821 0038 00000000 		.4byte	.LFB38
 14822 003c 00020000 		.4byte	.LFE38-.LFB38
 14823 0040 00000000 		.4byte	.LFB40
 14824 0044 24000000 		.4byte	.LFE40-.LFB40
 14825 0048 00000000 		.4byte	.LFB41
 14826 004c 24000000 		.4byte	.LFE41-.LFB41
 14827 0050 00000000 		.4byte	.LFB39
 14828 0054 6E000000 		.4byte	.LFE39-.LFB39
 14829 0058 00000000 		.4byte	.LFB42
 14830 005c 92000000 		.4byte	.LFE42-.LFB42
 14831 0060 00000000 		.4byte	.LFB43
 14832 0064 20000000 		.4byte	.LFE43-.LFB43
 14833 0068 00000000 		.4byte	.LFB44
 14834 006c 7E000000 		.4byte	.LFE44-.LFB44
 14835 0070 00000000 		.4byte	.LFB45
 14836 0074 90000000 		.4byte	.LFE45-.LFB45
 14837 0078 00000000 		.4byte	.LFB46
 14838 007c 8A000000 		.4byte	.LFE46-.LFB46
 14839 0080 00000000 		.4byte	.LFB47
 14840 0084 30000000 		.4byte	.LFE47-.LFB47
 14841 0088 00000000 		.4byte	.LFB48
 14842 008c 8A000000 		.4byte	.LFE48-.LFB48
 14843 0090 00000000 		.4byte	.LFB49
 14844 0094 48000000 		.4byte	.LFE49-.LFB49
 14845 0098 00000000 		.4byte	.LFB50
 14846 009c 8A000000 		.4byte	.LFE50-.LFB50
 14847 00a0 00000000 		.4byte	.LFB51
 14848 00a4 7E000000 		.4byte	.LFE51-.LFB51
 14849 00a8 00000000 		.4byte	.LFB52
 14850 00ac 42000000 		.4byte	.LFE52-.LFB52
 14851 00b0 00000000 		.4byte	.LFB53
 14852 00b4 96000000 		.4byte	.LFE53-.LFB53
 14853 00b8 00000000 		.4byte	.LFB54
ARM GAS  C:\Users\Computer\AppData\Local\Temp\cc1tHs0g.s 			page 279


 14854 00bc 64000000 		.4byte	.LFE54-.LFB54
 14855 00c0 00000000 		.4byte	.LFB55
 14856 00c4 62000000 		.4byte	.LFE55-.LFB55
 14857 00c8 00000000 		.4byte	.LFB56
 14858 00cc AE000000 		.4byte	.LFE56-.LFB56
 14859 00d0 00000000 		.4byte	.LFB57
 14860 00d4 8E000000 		.4byte	.LFE57-.LFB57
 14861 00d8 00000000 		.4byte	.LFB58
 14862 00dc 70000000 		.4byte	.LFE58-.LFB58
 14863 00e0 00000000 		.4byte	.LFB59
 14864 00e4 60000000 		.4byte	.LFE59-.LFB59
 14865 00e8 00000000 		.4byte	.LFB60
 14866 00ec 54000000 		.4byte	.LFE60-.LFB60
 14867 00f0 00000000 		.4byte	.LFB61
 14868 00f4 40000000 		.4byte	.LFE61-.LFB61
 14869 00f8 00000000 		.4byte	.LFB64
 14870 00fc FC000000 		.4byte	.LFE64-.LFB64
 14871 0100 00000000 		.4byte	.LFB63
 14872 0104 56000000 		.4byte	.LFE63-.LFB63
 14873 0108 00000000 		.4byte	.LFB62
 14874 010c 4C000000 		.4byte	.LFE62-.LFB62
 14875 0110 00000000 		.4byte	.LFB65
 14876 0114 C4000000 		.4byte	.LFE65-.LFB65
 14877 0118 00000000 		.4byte	.LFB66
 14878 011c 6A000000 		.4byte	.LFE66-.LFB66
 14879 0120 00000000 		.4byte	.LFB67
 14880 0124 6A000000 		.4byte	.LFE67-.LFB67
 14881 0128 00000000 		.4byte	0
 14882 012c 00000000 		.4byte	0
 14883              		.section	.debug_ranges,"",%progbits
 14884              	.Ldebug_ranges0:
 14885 0000 00000000 		.4byte	.LFB34
 14886 0004 78000000 		.4byte	.LFE34
 14887 0008 00000000 		.4byte	.LFB33
 14888 000c F6000000 		.4byte	.LFE33
 14889 0010 00000000 		.4byte	.LFB35
 14890 0014 4E000000 		.4byte	.LFE35
 14891 0018 00000000 		.4byte	.LFB36
 14892 001c 66010000 		.4byte	.LFE36
 14893 0020 00000000 		.4byte	.LFB37
 14894 0024 76010000 		.4byte	.LFE37
 14895 0028 00000000 		.4byte	.LFB38
 14896 002c 00020000 		.4byte	.LFE38
 14897 0030 00000000 		.4byte	.LFB40
 14898 0034 24000000 		.4byte	.LFE40
 14899 0038 00000000 		.4byte	.LFB41
 14900 003c 24000000 		.4byte	.LFE41
 14901 0040 00000000 		.4byte	.LFB39
 14902 0044 6E000000 		.4byte	.LFE39
 14903 0048 00000000 		.4byte	.LFB42
 14904 004c 92000000 		.4byte	.LFE42
 14905 0050 00000000 		.4byte	.LFB43
 14906 0054 20000000 		.4byte	.LFE43
 14907 0058 00000000 		.4byte	.LFB44
 14908 005c 7E000000 		.4byte	.LFE44
 14909 0060 00000000 		.4byte	.LFB45
 14910 0064 90000000 		.4byte	.LFE45
ARM GAS  C:\Users\Computer\AppData\Local\Temp\cc1tHs0g.s 			page 280


 14911 0068 00000000 		.4byte	.LFB46
 14912 006c 8A000000 		.4byte	.LFE46
 14913 0070 00000000 		.4byte	.LFB47
 14914 0074 30000000 		.4byte	.LFE47
 14915 0078 00000000 		.4byte	.LFB48
 14916 007c 8A000000 		.4byte	.LFE48
 14917 0080 00000000 		.4byte	.LFB49
 14918 0084 48000000 		.4byte	.LFE49
 14919 0088 00000000 		.4byte	.LFB50
 14920 008c 8A000000 		.4byte	.LFE50
 14921 0090 00000000 		.4byte	.LFB51
 14922 0094 7E000000 		.4byte	.LFE51
 14923 0098 00000000 		.4byte	.LFB52
 14924 009c 42000000 		.4byte	.LFE52
 14925 00a0 00000000 		.4byte	.LFB53
 14926 00a4 96000000 		.4byte	.LFE53
 14927 00a8 00000000 		.4byte	.LFB54
 14928 00ac 64000000 		.4byte	.LFE54
 14929 00b0 00000000 		.4byte	.LFB55
 14930 00b4 62000000 		.4byte	.LFE55
 14931 00b8 00000000 		.4byte	.LFB56
 14932 00bc AE000000 		.4byte	.LFE56
 14933 00c0 00000000 		.4byte	.LFB57
 14934 00c4 8E000000 		.4byte	.LFE57
 14935 00c8 00000000 		.4byte	.LFB58
 14936 00cc 70000000 		.4byte	.LFE58
 14937 00d0 00000000 		.4byte	.LFB59
 14938 00d4 60000000 		.4byte	.LFE59
 14939 00d8 00000000 		.4byte	.LFB60
 14940 00dc 54000000 		.4byte	.LFE60
 14941 00e0 00000000 		.4byte	.LFB61
 14942 00e4 40000000 		.4byte	.LFE61
 14943 00e8 00000000 		.4byte	.LFB64
 14944 00ec FC000000 		.4byte	.LFE64
 14945 00f0 00000000 		.4byte	.LFB63
 14946 00f4 56000000 		.4byte	.LFE63
 14947 00f8 00000000 		.4byte	.LFB62
 14948 00fc 4C000000 		.4byte	.LFE62
 14949 0100 00000000 		.4byte	.LFB65
 14950 0104 C4000000 		.4byte	.LFE65
 14951 0108 00000000 		.4byte	.LFB66
 14952 010c 6A000000 		.4byte	.LFE66
 14953 0110 00000000 		.4byte	.LFB67
 14954 0114 6A000000 		.4byte	.LFE67
 14955 0118 00000000 		.4byte	0
 14956 011c 00000000 		.4byte	0
 14957              		.section	.debug_line,"",%progbits
 14958              	.Ldebug_line0:
 14959 0000 5F070000 		.section	.debug_str,"MS",%progbits,1
 14959      02000301 
 14959      00000201 
 14959      FB0E0D00 
 14959      01010101 
 14960              	.LASF52:
 14961 0000 64726177 		.ascii	"drawB\000"
 14961      4200
 14962              	.LASF53:
ARM GAS  C:\Users\Computer\AppData\Local\Temp\cc1tHs0g.s 			page 281


 14963 0006 64726177 		.ascii	"drawC\000"
 14963      4300
 14964              	.LASF11:
 14965 000c 75696E74 		.ascii	"uint16\000"
 14965      313600
 14966              	.LASF55:
 14967 0013 64726177 		.ascii	"drawE\000"
 14967      4500
 14968              	.LASF49:
 14969 0019 64726177 		.ascii	"drawNine\000"
 14969      4E696E65 
 14969      00
 14970              	.LASF64:
 14971 0022 626C6F63 		.ascii	"blockLoc\000"
 14971      6B4C6F63 
 14971      00
 14972              	.LASF72:
 14973 002b 2E5C4C45 		.ascii	".\\LED_Matrix.c\000"
 14973      445F4D61 
 14973      74726978 
 14973      2E6300
 14974              	.LASF48:
 14975 003a 64726177 		.ascii	"drawEight\000"
 14975      45696768 
 14975      7400
 14976              	.LASF40:
 14977 0044 64726177 		.ascii	"drawOne\000"
 14977      4F6E6500 
 14978              	.LASF9:
 14979 004c 696E7431 		.ascii	"int16_t\000"
 14979      365F7400 
 14980              	.LASF6:
 14981 0054 6C6F6E67 		.ascii	"long long int\000"
 14981      206C6F6E 
 14981      6720696E 
 14981      7400
 14982              	.LASF0:
 14983 0062 7369676E 		.ascii	"signed char\000"
 14983      65642063 
 14983      68617200 
 14984              	.LASF7:
 14985 006e 6C6F6E67 		.ascii	"long long unsigned int\000"
 14985      206C6F6E 
 14985      6720756E 
 14985      7369676E 
 14985      65642069 
 14986              	.LASF42:
 14987 0085 64726177 		.ascii	"drawColon\000"
 14987      436F6C6F 
 14987      6E00
 14988              	.LASF73:
 14989 008f 433A5C55 		.ascii	"C:\\Users\\Computer\\Documents\\Git\\GlowTime\\RGB_"
 14989      73657273 
 14989      5C436F6D 
 14989      70757465 
 14989      725C446F 
 14990 00bc 4C45445F 		.ascii	"LED_Matrix.cydsn\000"
ARM GAS  C:\Users\Computer\AppData\Local\Temp\cc1tHs0g.s 			page 282


 14990      4D617472 
 14990      69782E63 
 14990      7964736E 
 14990      00
 14991              	.LASF4:
 14992 00cd 6C6F6E67 		.ascii	"long int\000"
 14992      20696E74 
 14992      00
 14993              	.LASF10:
 14994 00d6 75696E74 		.ascii	"uint8\000"
 14994      3800
 14995              	.LASF47:
 14996 00dc 64726177 		.ascii	"drawSeven\000"
 14996      53657665 
 14996      6E00
 14997              	.LASF43:
 14998 00e6 64726177 		.ascii	"drawThree\000"
 14998      54687265 
 14998      6500
 14999              	.LASF14:
 15000 00f0 646F7562 		.ascii	"double\000"
 15000      6C6500
 15001              	.LASF31:
 15002 00f7 64726177 		.ascii	"drawLine\000"
 15002      4C696E65 
 15002      00
 15003              	.LASF57:
 15004 0100 64726177 		.ascii	"drawHex\000"
 15004      48657800 
 15005              	.LASF66:
 15006 0108 6D617848 		.ascii	"maxHeight\000"
 15006      65696768 
 15006      7400
 15007              	.LASF60:
 15008 0112 74486F75 		.ascii	"tHour\000"
 15008      7200
 15009              	.LASF18:
 15010 0118 6D617472 		.ascii	"matrix\000"
 15010      697800
 15011              	.LASF69:
 15012 011f 74656D70 		.ascii	"temp\000"
 15012      00
 15013              	.LASF34:
 15014 0124 64726177 		.ascii	"drawFastVLine\000"
 15014      46617374 
 15014      564C696E 
 15014      6500
 15015              	.LASF8:
 15016 0132 756E7369 		.ascii	"unsigned int\000"
 15016      676E6564 
 15016      20696E74 
 15016      00
 15017              	.LASF5:
 15018 013f 6C6F6E67 		.ascii	"long unsigned int\000"
 15018      20756E73 
 15018      69676E65 
 15018      6420696E 
ARM GAS  C:\Users\Computer\AppData\Local\Temp\cc1tHs0g.s 			page 283


 15018      7400
 15019              	.LASF29:
 15020 0151 64726177 		.ascii	"drawCircleHelper\000"
 15020      43697263 
 15020      6C654865 
 15020      6C706572 
 15020      00
 15021              	.LASF27:
 15022 0162 6464465F 		.ascii	"ddF_x\000"
 15022      7800
 15023              	.LASF28:
 15024 0168 6464465F 		.ascii	"ddF_y\000"
 15024      7900
 15025              	.LASF61:
 15026 016e 7072696E 		.ascii	"printHexString\000"
 15026      74486578 
 15026      53747269 
 15026      6E6700
 15027              	.LASF3:
 15028 017d 73686F72 		.ascii	"short unsigned int\000"
 15028      7420756E 
 15028      7369676E 
 15028      65642069 
 15028      6E7400
 15029              	.LASF12:
 15030 0190 696E7438 		.ascii	"int8\000"
 15030      00
 15031              	.LASF58:
 15032 0195 7072696E 		.ascii	"printTime\000"
 15032      7454696D 
 15032      6500
 15033              	.LASF41:
 15034 019f 64726177 		.ascii	"drawTwo\000"
 15034      54776F00 
 15035              	.LASF25:
 15036 01a7 636C6561 		.ascii	"clearScreen\000"
 15036      72536372 
 15036      65656E00 
 15037              	.LASF56:
 15038 01b3 64726177 		.ascii	"drawF\000"
 15038      4600
 15039              	.LASF16:
 15040 01b9 73697A65 		.ascii	"sizetype\000"
 15040      74797065 
 15040      00
 15041              	.LASF35:
 15042 01c2 64726177 		.ascii	"drawFastHLine\000"
 15042      46617374 
 15042      484C696E 
 15042      6500
 15043              	.LASF32:
 15044 01d0 73746565 		.ascii	"steep\000"
 15044      7000
 15045              	.LASF24:
 15046 01d6 64726177 		.ascii	"drawPixel\000"
 15046      50697865 
 15046      6C00
ARM GAS  C:\Users\Computer\AppData\Local\Temp\cc1tHs0g.s 			page 284


 15047              	.LASF62:
 15048 01e0 746F6B65 		.ascii	"tokens\000"
 15048      6E7300
 15049              	.LASF70:
 15050 01e7 616E7944 		.ascii	"anyDataDecrease\000"
 15050      61746144 
 15050      65637265 
 15050      61736500 
 15051              	.LASF13:
 15052 01f7 666C6F61 		.ascii	"float\000"
 15052      7400
 15053              	.LASF26:
 15054 01fd 64726177 		.ascii	"drawCircle\000"
 15054      43697263 
 15054      6C6500
 15055              	.LASF71:
 15056 0208 474E5520 		.ascii	"GNU C 4.7.3 20130312 (release) [ARM/embedded-4_7-br"
 15056      4320342E 
 15056      372E3320 
 15056      32303133 
 15056      30333132 
 15057 023b 616E6368 		.ascii	"anch revision 196615]\000"
 15057      20726576 
 15057      6973696F 
 15057      6E203139 
 15057      36363135 
 15058              	.LASF39:
 15059 0251 64726177 		.ascii	"drawTriangle\000"
 15059      54726961 
 15059      6E676C65 
 15059      00
 15060              	.LASF1:
 15061 025e 756E7369 		.ascii	"unsigned char\000"
 15061      676E6564 
 15061      20636861 
 15061      7200
 15062              	.LASF2:
 15063 026c 73686F72 		.ascii	"short int\000"
 15063      7420696E 
 15063      7400
 15064              	.LASF59:
 15065 0276 686F7572 		.ascii	"hours\000"
 15065      7300
 15066              	.LASF33:
 15067 027c 79737465 		.ascii	"ystep\000"
 15067      7000
 15068              	.LASF38:
 15069 0282 66696C6C 		.ascii	"fillScreen\000"
 15069      53637265 
 15069      656E00
 15070              	.LASF30:
 15071 028d 636F726E 		.ascii	"cornername\000"
 15071      65726E61 
 15071      6D6500
 15072              	.LASF51:
 15073 0298 64726177 		.ascii	"drawA\000"
 15073      4100
ARM GAS  C:\Users\Computer\AppData\Local\Temp\cc1tHs0g.s 			page 285


 15074              	.LASF44:
 15075 029e 64726177 		.ascii	"drawFour\000"
 15075      466F7572 
 15075      00
 15076              	.LASF54:
 15077 02a7 64726177 		.ascii	"drawD\000"
 15077      4400
 15078              	.LASF17:
 15079 02ad 636F6C6F 		.ascii	"color\000"
 15079      7200
 15080              	.LASF15:
 15081 02b3 63686172 		.ascii	"char\000"
 15081      00
 15082              	.LASF23:
 15083 02b8 636C6561 		.ascii	"clearPixel\000"
 15083      72506978 
 15083      656C00
 15084              	.LASF19:
 15085 02c3 696E6465 		.ascii	"index\000"
 15085      7800
 15086              	.LASF46:
 15087 02c9 64726177 		.ascii	"drawSix\000"
 15087      53697800 
 15088              	.LASF20:
 15089 02d1 73637261 		.ascii	"scratch1\000"
 15089      74636831 
 15089      00
 15090              	.LASF21:
 15091 02da 73637261 		.ascii	"scratch2\000"
 15091      74636832 
 15091      00
 15092              	.LASF65:
 15093 02e3 626C6163 		.ascii	"black\000"
 15093      6B00
 15094              	.LASF63:
 15095 02e9 64726177 		.ascii	"drawblock\000"
 15095      626C6F63 
 15095      6B00
 15096              	.LASF22:
 15097 02f3 6269745F 		.ascii	"bit_pos\000"
 15097      706F7300 
 15098              	.LASF36:
 15099 02fb 64726177 		.ascii	"drawRect\000"
 15099      52656374 
 15099      00
 15100              	.LASF74:
 15101 0304 69664461 		.ascii	"ifDataChange\000"
 15101      74614368 
 15101      616E6765 
 15101      00
 15102              	.LASF45:
 15103 0311 64726177 		.ascii	"drawFive\000"
 15103      46697665 
 15103      00
 15104              	.LASF67:
 15105 031a 6F6C6452 		.ascii	"oldResult\000"
 15105      6573756C 
ARM GAS  C:\Users\Computer\AppData\Local\Temp\cc1tHs0g.s 			page 286


 15105      7400
 15106              	.LASF50:
 15107 0324 64726177 		.ascii	"drawZero\000"
 15107      5A65726F 
 15107      00
 15108              	.LASF68:
 15109 032d 72657375 		.ascii	"result\000"
 15109      6C7400
 15110              	.LASF37:
 15111 0334 66696C6C 		.ascii	"fillRect\000"
 15111      52656374 
 15111      00
 15112              		.ident	"GCC: (GNU Tools for ARM Embedded Processors) 4.7.3 20130312 (release) [ARM/embedded-4_7-br
