ARM GAS  C:\Users\Steve\AppData\Local\Temp\cc9TlorX.s 			page 1


   1              		.cpu cortex-m0
   2              		.fpu softvfp
   3              		.eabi_attribute 20, 1
   4              		.eabi_attribute 21, 1
   5              		.eabi_attribute 23, 3
   6              		.eabi_attribute 24, 1
   7              		.eabi_attribute 25, 1
   8              		.eabi_attribute 26, 1
   9              		.eabi_attribute 30, 2
  10              		.eabi_attribute 34, 0
  11              		.eabi_attribute 18, 4
  12              		.code	16
  13              		.file	"main.c"
  14              		.text
  15              	.Ltext0:
  16              		.cfi_sections	.debug_frame
  17              		.section	.text.FIFO_EMPTY,"ax",%progbits
  18              		.align	2
  19              		.global	FIFO_EMPTY
  20              		.code	16
  21              		.thumb_func
  22              		.type	FIFO_EMPTY, %function
  23              	FIFO_EMPTY:
  24              	.LFB34:
  25              		.file 1 ".\\main.c"
   1:.\main.c      **** /* ========================================
   2:.\main.c      ****  *
   3:.\main.c      ****  * The following firmware was developed by Cypress Semiconductor
   4:.\main.c      ****  * This work is licensed under a Creative Commons Attribution 3.0 Unported License.
   5:.\main.c      ****  * 
   6:.\main.c      ****  * http://creativecommons.org/licenses/by/3.0/deed.en_US
   7:.\main.c      ****  * 
   8:.\main.c      ****  * You are free to:
   9:.\main.c      ****  * -To Share — to copy, distribute and transmit the work 
  10:.\main.c      ****  * -To Remix — to adapt the work 
  11:.\main.c      ****  * -To make commercial use of the work
  12:.\main.c      ****  *
  13:.\main.c      ****  * ======================================== 
  14:.\main.c      ****  */
  15:.\main.c      ****  
  16:.\main.c      **** /*******************************************************************************
  17:.\main.c      ****  * Pioneer Kit 16x32 RGB LED Matrix Example Project
  18:.\main.c      ****  ********************************************************************************
  19:.\main.c      ****  * This project Displays 5-bit color image at a refresh rate of 360 Hz
  20:.\main.c      ****  * It uses 75% of the UDB datapaths and 50% of the PLDs
  21:.\main.c      ****  * The matrix is constructed as 2 planes of 8 rows each. (R1, G1, B1) write to the first plane
  22:.\main.c      ****  * (R2, G2, B2) are for the second plane. Rows are selected using (A, B, C). Columns are
  23:.\main.c      ****  * written by clocking out 32 (R, G, B) values.
  24:.\main.c      ****  * LAT and OE are active low: i.e. data is latched and output is enabled on logic 0
  25:.\main.c      ****  *
  26:.\main.c      ****  * Expanding the project to 8-bit color is simple - just needs a little more code! This is 
  27:.\main.c      ****  * left to the user to implement. Also TO DO: gamma correction
  28:.\main.c      ****  * 
  29:.\main.c      ****  * To buy or see a tutorial on the RGB LED Matrix, go here: http://www.adafruit.com/products/420
  30:.\main.c      ****  * For more details on the panel itself, see one of the links below
  31:.\main.c      ****  *
  32:.\main.c      ****  * Credit to the following sites/authors:
ARM GAS  C:\Users\Steve\AppData\Local\Temp\cc9TlorX.s 			page 2


  33:.\main.c      ****  * Reference: Adafruit tutorial and code https://github.com/adafruit/RGB-matrix-Panel
  34:.\main.c      ****  * Ghosting: http://www.rayslogic.com/propeller/Programming/AdafruitRGB/AdafruitRGB.htm 
  35:.\main.c      ****  * Technical: http://www.hobbypcb.com/blog/item/3-16x32-rgb-led-matrix-technical-details.html
  36:.\main.c      ****  * Favicon idea: http://rhb.me/2012/05/led-matrix-bringup/
  37:.\main.c      ****  **************************************************************************************** */
  38:.\main.c      **** 
  39:.\main.c      **** #include <device.h>
  40:.\main.c      **** #include <LED_Matrix.h>
  41:.\main.c      **** #include "I2CDriver.h"
  42:.\main.c      **** 
  43:.\main.c      **** /* j is the row counter (0-7), pwm_count is used for Binary Coded Modulation */
  44:.\main.c      **** uint8 j = 0, pwm_count = 0;
  45:.\main.c      **** /* Tells which bit of color is currently being written */
  46:.\main.c      **** uint8 bit_shift;
  47:.\main.c      **** /* stores the currently displayed image in 5-bit color */
  48:.\main.c      **** color matrix[16*4];
  49:.\main.c      **** 
  50:.\main.c      **** int8 height[]={0,2,4,6,8,10,12,14};
  51:.\main.c      **** 
  52:.\main.c      **** /*******************************************************************************
  53:.\main.c      **** * Function Name: isr_2
  54:.\main.c      **** ********************************************************************************
  55:.\main.c      **** *
  56:.\main.c      **** * Summary:
  57:.\main.c      **** *  ISR that does most of the heavy lifting: 
  58:.\main.c      **** *  - BCM for 5-bit color
  59:.\main.c      **** *  - Writes image in matrix[] to the FIFOs in the LED_Matrix Component
  60:.\main.c      **** *  - Takes about 9.80uS @ 48MHz, the Component then takes ~2.3 uS to shift out data
  61:.\main.c      **** *
  62:.\main.c      **** *
  63:.\main.c      **** * Parameters:  
  64:.\main.c      **** *   None
  65:.\main.c      **** *
  66:.\main.c      **** * Return:
  67:.\main.c      **** *   None
  68:.\main.c      **** *
  69:.\main.c      **** *******************************************************************************/
  70:.\main.c      **** int PB = 0; 
  71:.\main.c      **** CY_ISR(PB_ISR)
  72:.\main.c      **** {
  73:.\main.c      **** 	if(PB==0)
  74:.\main.c      **** 	{
  75:.\main.c      **** 		PB=1;
  76:.\main.c      **** 	}
  77:.\main.c      **** 	else
  78:.\main.c      **** 	{
  79:.\main.c      **** 		PB=0;
  80:.\main.c      **** 	}
  81:.\main.c      **** }
  82:.\main.c      **** 
  83:.\main.c      **** CY_ISR(FIFO_EMPTY)
  84:.\main.c      **** {
  26              		.loc 1 84 0
  27              		.cfi_startproc
  28 0000 F0B5     		push	{r4, r5, r6, r7, lr}
  29              	.LCFI0:
  30              		.cfi_def_cfa_offset 20
ARM GAS  C:\Users\Steve\AppData\Local\Temp\cc9TlorX.s 			page 3


  31              		.cfi_offset 4, -20
  32              		.cfi_offset 5, -16
  33              		.cfi_offset 6, -12
  34              		.cfi_offset 7, -8
  35              		.cfi_offset 14, -4
  36 0002 5F46     		mov	r7, fp
  37 0004 4D46     		mov	r5, r9
  38 0006 4446     		mov	r4, r8
  39 0008 5646     		mov	r6, sl
  40 000a F0B4     		push	{r4, r5, r6, r7}
  41              	.LCFI1:
  42              		.cfi_def_cfa_offset 36
  43              		.cfi_offset 8, -36
  44              		.cfi_offset 9, -32
  45              		.cfi_offset 10, -28
  46              		.cfi_offset 11, -24
  85:.\main.c      **** 	/* Clear pending interrupts */
  86:.\main.c      **** 	*isr_2_INTC_CLR_PD = isr_2__INTC_MASK;
  47              		.loc 1 86 0
  48 000c 764B     		ldr	r3, .L14
  87:.\main.c      **** 	
  88:.\main.c      **** 	/* Setting the latch passes the value through the LED driver
  89:.\main.c      **** 	 * Clearing the latch then latches this value
  90:.\main.c      **** 	 * See: http://www.bjtopspace.com/ziliao/CYT62726.pdf
  91:.\main.c      **** 	 */
  92:.\main.c      **** //	Set_LAT;				/* Note that this is done in hardware, and these 2 lines have no effect since CR_Add
  93:.\main.c      **** //	Clear_LAT;
  94:.\main.c      **** 
  95:.\main.c      **** 	/* Enable Outputs - OE is control[1], and is active low. 
  96:.\main.c      **** 	 * control[0] is 'enable', so leave it at 1 
  97:.\main.c      **** 	 */ 
  98:.\main.c      **** 	LED_Matrix_1_WriteControl(0x01);
  49              		.loc 1 98 0
  50 000e 7749     		ldr	r1, .L14+4
  99:.\main.c      **** 	
 100:.\main.c      **** 	pwm_count++;
  51              		.loc 1 100 0
  52 0010 774D     		ldr	r5, .L14+8
  86:.\main.c      **** 	*isr_2_INTC_CLR_PD = isr_2__INTC_MASK;
  53              		.loc 1 86 0
  54 0012 0822     		mov	r2, #8
  98:.\main.c      **** 	LED_Matrix_1_WriteControl(0x01);
  55              		.loc 1 98 0
  56 0014 0120     		mov	r0, #1
  86:.\main.c      **** 	*isr_2_INTC_CLR_PD = isr_2__INTC_MASK;
  57              		.loc 1 86 0
  58 0016 1A60     		str	r2, [r3]
  98:.\main.c      **** 	LED_Matrix_1_WriteControl(0x01);
  59              		.loc 1 98 0
  60 0018 0870     		strb	r0, [r1]
  61              		.loc 1 100 0
  62 001a 2C78     		ldrb	r4, [r5]
  84:.\main.c      **** {
  63              		.loc 1 84 0
  64 001c 87B0     		sub	sp, sp, #28
  65              	.LCFI2:
  66              		.cfi_def_cfa_offset 64
ARM GAS  C:\Users\Steve\AppData\Local\Temp\cc9TlorX.s 			page 4


  67              		.loc 1 100 0
  68 001e 0134     		add	r4, r4, #1
  69 0020 E7B2     		uxtb	r7, r4
  70 0022 2F70     		strb	r7, [r5]
 101:.\main.c      **** 
 102:.\main.c      **** 	/* Binary coded modulation. Read more here: http://www.batsocks.co.uk/readme/art_bcm_1.htm  */
 103:.\main.c      **** 	if(pwm_count == 31)
  71              		.loc 1 103 0
  72 0024 1F2F     		cmp	r7, #31
  73 0026 00D1     		bne	.LCB38
  74 0028 B1E0     		b	.L10	@long jump
  75              	.LCB38:
 104:.\main.c      **** 	{
 105:.\main.c      **** 		bit_shift = 0;
 106:.\main.c      **** 		pwm_count = 0;
 107:.\main.c      **** 		j++;
 108:.\main.c      **** 		
 109:.\main.c      **** 		if(j == 8)
 110:.\main.c      **** 		{
 111:.\main.c      **** 			j = 0;
 112:.\main.c      **** 		}
 113:.\main.c      **** 	}
 114:.\main.c      **** 	else if(pwm_count == 1)
  76              		.loc 1 114 0
  77 002a 012F     		cmp	r7, #1
  78 002c 00D1     		bne	.LCB40
  79 002e C2E0     		b	.L11	@long jump
  80              	.LCB40:
 115:.\main.c      **** 	{
 116:.\main.c      **** 		bit_shift = 1;
 117:.\main.c      **** 	}
 118:.\main.c      **** 	else if(pwm_count == 3)
  81              		.loc 1 118 0
  82 0030 032F     		cmp	r7, #3
  83 0032 00D1     		bne	.LCB42
  84 0034 B8E0     		b	.L12	@long jump
  85              	.LCB42:
 119:.\main.c      **** 	{
 120:.\main.c      **** 		bit_shift = 2;
 121:.\main.c      **** 	}
 122:.\main.c      **** 	else if(pwm_count == 7)
  86              		.loc 1 122 0
  87 0036 072F     		cmp	r7, #7
  88 0038 00D1     		bne	.LCB44
  89 003a C9E0     		b	.L13	@long jump
  90              	.LCB44:
 123:.\main.c      **** 	{
 124:.\main.c      **** 		bit_shift = 3;
 125:.\main.c      **** 	}
 126:.\main.c      **** 	else if(pwm_count == 15)
  91              		.loc 1 126 0
  92 003c 0F2F     		cmp	r7, #15
  93 003e 00D1     		bne	.LCB46
  94 0040 BFE0     		b	.L8	@long jump
  95              	.LCB46:
  96 0042 6C4A     		ldr	r2, .L14+12
  97 0044 6E78     		ldrb	r6, [r5, #1]
ARM GAS  C:\Users\Steve\AppData\Local\Temp\cc9TlorX.s 			page 5


  98 0046 1478     		ldrb	r4, [r2]
  99 0048 B100     		lsl	r1, r6, #2
 100              	.L4:
 127:.\main.c      **** 	{
 128:.\main.c      **** 		bit_shift = 4;
 129:.\main.c      **** 	}
 130:.\main.c      **** 
 131:.\main.c      **** 	/* Write the values to the FIFOs. Note that the data is not written to the matrix until all the FI
 132:.\main.c      **** 	
 133:.\main.c      **** 	/****************************** Visually mapping out the matrix **********************
 134:.\main.c      **** 	*	A row in Plane1:		0th byte		1st byte		2nd byte		3rd byte
 135:.\main.c      **** 	* 	F0_REG_0 	R1	 	x-x-x-x-x-x-x-x x-x-x-x-x-x-x-x x-x-x-x-x-x-x-x x-x-x-x-x-x-x-x 
 136:.\main.c      **** 	*	F0_REG_1	G1			.												.
 137:.\main.c      **** 	*	F0_REG_2	B1			.												.
 138:.\main.c      **** 	*							.												.
 139:.\main.c      **** 	*	A row in Plane2:		.												.
 140:.\main.c      **** 	*	F1_REG_0 	R2	 	x-x-x-x-x-x-x-x x-x-x-x-x-x-x-x x-x-x-x-x-x-x-x x-x-x-x-x-x-x-x 
 141:.\main.c      **** 	*	F1_REG_1	G2			.												.
 142:.\main.c      **** 	*	F1_REG_2	B2			.												.
 143:.\main.c      **** 	*
 144:.\main.c      **** 	* Note: The 8 rows are selected by (A, B, C)
 145:.\main.c      **** 	*************************************************************************************/
 146:.\main.c      **** 	
 147:.\main.c      **** 	/* These four lines write to the first plane */
 148:.\main.c      **** 	LED_Matrix_1_F0_REG_0 = (uint8)matrix[0 + j*4].r[bit_shift];
 101              		.loc 1 148 0
 102 004a 0801     		lsl	r0, r1, #4
 103 004c 6A4B     		ldr	r3, .L14+16
 104 004e 411A     		sub	r1, r0, r1
 105 0050 0C19     		add	r4, r1, r4
 106 0052 E75C     		ldrb	r7, [r4, r3]
 107 0054 694C     		ldr	r4, .L14+20
 108 0056 2770     		strb	r7, [r4]
 149:.\main.c      **** 	LED_Matrix_1_F0_REG_0 = (uint8)matrix[1 + j*4].r[bit_shift];
 109              		.loc 1 149 0
 110 0058 6978     		ldrb	r1, [r5, #1]
 111 005a 1278     		ldrb	r2, [r2]
 112 005c 8800     		lsl	r0, r1, #2
 113 005e 451C     		add	r5, r0, #1
 114 0060 2E01     		lsl	r6, r5, #4
 115 0062 771B     		sub	r7, r6, r5
 116 0064 B946     		mov	r9, r7
 117 0066 BF18     		add	r7, r7, r2
 118 0068 FD5C     		ldrb	r5, [r7, r3]
 150:.\main.c      **** 	LED_Matrix_1_F0_REG_0 = (uint8)matrix[2 + j*4].r[bit_shift];
 151:.\main.c      **** 	LED_Matrix_1_F0_REG_0 = (uint8)matrix[3 + j*4].r[bit_shift];
 119              		.loc 1 151 0
 120 006a 9346     		mov	fp, r2
 149:.\main.c      **** 	LED_Matrix_1_F0_REG_0 = (uint8)matrix[1 + j*4].r[bit_shift];
 121              		.loc 1 149 0
 122 006c 2570     		strb	r5, [r4]
 150:.\main.c      **** 	LED_Matrix_1_F0_REG_0 = (uint8)matrix[2 + j*4].r[bit_shift];
 123              		.loc 1 150 0
 124 006e 851C     		add	r5, r0, #2
 125 0070 2E01     		lsl	r6, r5, #4
 126 0072 751B     		sub	r5, r6, r5
 127 0074 AE18     		add	r6, r5, r2
ARM GAS  C:\Users\Steve\AppData\Local\Temp\cc9TlorX.s 			page 6


 128 0076 0296     		str	r6, [sp, #8]
 129 0078 A846     		mov	r8, r5
 130 007a F55C     		ldrb	r5, [r6, r3]
 131              		.loc 1 151 0
 132 007c C61C     		add	r6, r0, #3
 150:.\main.c      **** 	LED_Matrix_1_F0_REG_0 = (uint8)matrix[2 + j*4].r[bit_shift];
 133              		.loc 1 150 0
 134 007e 2570     		strb	r5, [r4]
 135              		.loc 1 151 0
 136 0080 3501     		lsl	r5, r6, #4
 137 0082 AD1B     		sub	r5, r5, r6
 138 0084 AC46     		mov	ip, r5
 139 0086 E344     		add	fp, fp, ip
 140 0088 5E46     		mov	r6, fp
 141 008a F55C     		ldrb	r5, [r6, r3]
 152:.\main.c      **** 
 153:.\main.c      **** 	LED_Matrix_1_F0_REG_1 = (uint8)matrix[0 + j*4].g[bit_shift];
 154:.\main.c      **** 	LED_Matrix_1_F0_REG_1 = (uint8)matrix[1 + j*4].g[bit_shift];
 142              		.loc 1 154 0
 143 008c DF19     		add	r7, r3, r7
 151:.\main.c      **** 	LED_Matrix_1_F0_REG_0 = (uint8)matrix[3 + j*4].r[bit_shift];
 144              		.loc 1 151 0
 145 008e 2570     		strb	r5, [r4]
 153:.\main.c      **** 	LED_Matrix_1_F0_REG_1 = (uint8)matrix[0 + j*4].g[bit_shift];
 146              		.loc 1 153 0
 147 0090 8C01     		lsl	r4, r1, #6
 148 0092 201A     		sub	r0, r4, r0
 149 0094 8618     		add	r6, r0, r2
 150 0096 9D19     		add	r5, r3, r6
 151 0098 6C79     		ldrb	r4, [r5, #5]
 152 009a 8246     		mov	sl, r0
 153 009c 5848     		ldr	r0, .L14+24
 155:.\main.c      **** 	LED_Matrix_1_F0_REG_1 = (uint8)matrix[2 + j*4].g[bit_shift];
 156:.\main.c      **** 	LED_Matrix_1_F0_REG_1 = (uint8)matrix[3 + j*4].g[bit_shift];
 157:.\main.c      **** 	
 158:.\main.c      **** 	/* These four lines write to the second plane */
 159:.\main.c      **** 	LED_Matrix_1_F1_REG_1 = (uint8)matrix[0 + (j+8)*4].g[bit_shift];
 160:.\main.c      **** 	LED_Matrix_1_F1_REG_1 = (uint8)matrix[1 + (j+8)*4].g[bit_shift];
 161:.\main.c      **** 	LED_Matrix_1_F1_REG_1 = (uint8)matrix[2 + (j+8)*4].g[bit_shift];
 162:.\main.c      **** 	LED_Matrix_1_F1_REG_1 = (uint8)matrix[3 + (j+8)*4].g[bit_shift];
 163:.\main.c      **** 	
 164:.\main.c      **** 	LED_Matrix_1_F0_REG_2 = (uint8)matrix[0 + j*4].b[bit_shift];
 165:.\main.c      **** 	LED_Matrix_1_F0_REG_2 = (uint8)matrix[1 + j*4].b[bit_shift];
 154              		.loc 1 165 0
 155 009e 9944     		add	r9, r9, r3
 153:.\main.c      **** 	LED_Matrix_1_F0_REG_1 = (uint8)matrix[0 + j*4].g[bit_shift];
 156              		.loc 1 153 0
 157 00a0 0470     		strb	r4, [r0]
 154:.\main.c      **** 	LED_Matrix_1_F0_REG_1 = (uint8)matrix[1 + j*4].g[bit_shift];
 158              		.loc 1 154 0
 159 00a2 7E79     		ldrb	r6, [r7, #5]
 160              		.loc 1 165 0
 161 00a4 9144     		add	r9, r9, r2
 154:.\main.c      **** 	LED_Matrix_1_F0_REG_1 = (uint8)matrix[1 + j*4].g[bit_shift];
 162              		.loc 1 154 0
 163 00a6 0670     		strb	r6, [r0]
 155:.\main.c      **** 	LED_Matrix_1_F0_REG_1 = (uint8)matrix[2 + j*4].g[bit_shift];
ARM GAS  C:\Users\Steve\AppData\Local\Temp\cc9TlorX.s 			page 7


 164              		.loc 1 155 0
 165 00a8 029D     		ldr	r5, [sp, #8]
 156:.\main.c      **** 	LED_Matrix_1_F0_REG_1 = (uint8)matrix[3 + j*4].g[bit_shift];
 166              		.loc 1 156 0
 167 00aa 5E46     		mov	r6, fp
 155:.\main.c      **** 	LED_Matrix_1_F0_REG_1 = (uint8)matrix[2 + j*4].g[bit_shift];
 168              		.loc 1 155 0
 169 00ac 5C19     		add	r4, r3, r5
 170 00ae 6779     		ldrb	r7, [r4, #5]
 156:.\main.c      **** 	LED_Matrix_1_F0_REG_1 = (uint8)matrix[3 + j*4].g[bit_shift];
 171              		.loc 1 156 0
 172 00b0 9D19     		add	r5, r3, r6
 155:.\main.c      **** 	LED_Matrix_1_F0_REG_1 = (uint8)matrix[2 + j*4].g[bit_shift];
 173              		.loc 1 155 0
 174 00b2 0770     		strb	r7, [r0]
 156:.\main.c      **** 	LED_Matrix_1_F0_REG_1 = (uint8)matrix[3 + j*4].g[bit_shift];
 175              		.loc 1 156 0
 176 00b4 6C79     		ldrb	r4, [r5, #5]
 166:.\main.c      **** 	LED_Matrix_1_F0_REG_2 = (uint8)matrix[2 + j*4].b[bit_shift];
 177              		.loc 1 166 0
 178 00b6 9844     		add	r8, r8, r3
 156:.\main.c      **** 	LED_Matrix_1_F0_REG_1 = (uint8)matrix[3 + j*4].g[bit_shift];
 179              		.loc 1 156 0
 180 00b8 0470     		strb	r4, [r0]
 159:.\main.c      **** 	LED_Matrix_1_F1_REG_1 = (uint8)matrix[0 + (j+8)*4].g[bit_shift];
 181              		.loc 1 159 0
 182 00ba 081C     		mov	r0, r1
 183 00bc 0830     		add	r0, r0, #8
 184 00be 8600     		lsl	r6, r0, #2
 185 00c0 8701     		lsl	r7, r0, #6
 186 00c2 BD1B     		sub	r5, r7, r6
 187 00c4 AC18     		add	r4, r5, r2
 188 00c6 0295     		str	r5, [sp, #8]
 189 00c8 0394     		str	r4, [sp, #12]
 190 00ca 1819     		add	r0, r3, r4
 191 00cc 4779     		ldrb	r7, [r0, #5]
 160:.\main.c      **** 	LED_Matrix_1_F1_REG_1 = (uint8)matrix[1 + (j+8)*4].g[bit_shift];
 192              		.loc 1 160 0
 193 00ce 741C     		add	r4, r6, #1
 159:.\main.c      **** 	LED_Matrix_1_F1_REG_1 = (uint8)matrix[0 + (j+8)*4].g[bit_shift];
 194              		.loc 1 159 0
 195 00d0 4C48     		ldr	r0, .L14+28
 160:.\main.c      **** 	LED_Matrix_1_F1_REG_1 = (uint8)matrix[1 + (j+8)*4].g[bit_shift];
 196              		.loc 1 160 0
 197 00d2 2501     		lsl	r5, r4, #4
 159:.\main.c      **** 	LED_Matrix_1_F1_REG_1 = (uint8)matrix[0 + (j+8)*4].g[bit_shift];
 198              		.loc 1 159 0
 199 00d4 0770     		strb	r7, [r0]
 160:.\main.c      **** 	LED_Matrix_1_F1_REG_1 = (uint8)matrix[1 + (j+8)*4].g[bit_shift];
 200              		.loc 1 160 0
 201 00d6 2F1B     		sub	r7, r5, r4
 202 00d8 BC18     		add	r4, r7, r2
 203 00da 0594     		str	r4, [sp, #20]
 204 00dc 0497     		str	r7, [sp, #16]
 205 00de 1D19     		add	r5, r3, r4
 206 00e0 6F79     		ldrb	r7, [r5, #5]
 161:.\main.c      **** 	LED_Matrix_1_F1_REG_1 = (uint8)matrix[2 + (j+8)*4].g[bit_shift];
ARM GAS  C:\Users\Steve\AppData\Local\Temp\cc9TlorX.s 			page 8


 207              		.loc 1 161 0
 208 00e2 B41C     		add	r4, r6, #2
 209 00e4 2501     		lsl	r5, r4, #4
 160:.\main.c      **** 	LED_Matrix_1_F1_REG_1 = (uint8)matrix[1 + (j+8)*4].g[bit_shift];
 210              		.loc 1 160 0
 211 00e6 0770     		strb	r7, [r0]
 161:.\main.c      **** 	LED_Matrix_1_F1_REG_1 = (uint8)matrix[2 + (j+8)*4].g[bit_shift];
 212              		.loc 1 161 0
 213 00e8 2F1B     		sub	r7, r5, r4
 214 00ea BD18     		add	r5, r7, r2
 215 00ec 0197     		str	r7, [sp, #4]
 216 00ee 5C19     		add	r4, r3, r5
 162:.\main.c      **** 	LED_Matrix_1_F1_REG_1 = (uint8)matrix[3 + (j+8)*4].g[bit_shift];
 217              		.loc 1 162 0
 218 00f0 0336     		add	r6, r6, #3
 161:.\main.c      **** 	LED_Matrix_1_F1_REG_1 = (uint8)matrix[2 + (j+8)*4].g[bit_shift];
 219              		.loc 1 161 0
 220 00f2 6779     		ldrb	r7, [r4, #5]
 162:.\main.c      **** 	LED_Matrix_1_F1_REG_1 = (uint8)matrix[3 + (j+8)*4].g[bit_shift];
 221              		.loc 1 162 0
 222 00f4 3401     		lsl	r4, r6, #4
 223 00f6 A61B     		sub	r6, r4, r6
 224 00f8 B418     		add	r4, r6, r2
 161:.\main.c      **** 	LED_Matrix_1_F1_REG_1 = (uint8)matrix[2 + (j+8)*4].g[bit_shift];
 225              		.loc 1 161 0
 226 00fa 0770     		strb	r7, [r0]
 162:.\main.c      **** 	LED_Matrix_1_F1_REG_1 = (uint8)matrix[3 + (j+8)*4].g[bit_shift];
 227              		.loc 1 162 0
 228 00fc 1F19     		add	r7, r3, r4
 229 00fe 7F79     		ldrb	r7, [r7, #5]
 230              		.loc 1 166 0
 231 0100 9044     		add	r8, r8, r2
 162:.\main.c      **** 	LED_Matrix_1_F1_REG_1 = (uint8)matrix[3 + (j+8)*4].g[bit_shift];
 232              		.loc 1 162 0
 233 0102 0770     		strb	r7, [r0]
 164:.\main.c      **** 	LED_Matrix_1_F0_REG_2 = (uint8)matrix[0 + j*4].b[bit_shift];
 234              		.loc 1 164 0
 235 0104 5046     		mov	r0, sl
 236 0106 1F18     		add	r7, r3, r0
 237 0108 B818     		add	r0, r7, r2
 238 010a 877A     		ldrb	r7, [r0, #10]
 239 010c 3E48     		ldr	r0, .L14+32
 167:.\main.c      **** 	LED_Matrix_1_F0_REG_2 = (uint8)matrix[3 + j*4].b[bit_shift];
 240              		.loc 1 167 0
 241 010e 9C44     		add	ip, ip, r3
 164:.\main.c      **** 	LED_Matrix_1_F0_REG_2 = (uint8)matrix[0 + j*4].b[bit_shift];
 242              		.loc 1 164 0
 243 0110 0770     		strb	r7, [r0]
 165:.\main.c      **** 	LED_Matrix_1_F0_REG_2 = (uint8)matrix[1 + j*4].b[bit_shift];
 244              		.loc 1 165 0
 245 0112 4F46     		mov	r7, r9
 246 0114 BF7A     		ldrb	r7, [r7, #10]
 247              		.loc 1 167 0
 248 0116 9444     		add	ip, ip, r2
 165:.\main.c      **** 	LED_Matrix_1_F0_REG_2 = (uint8)matrix[1 + j*4].b[bit_shift];
 249              		.loc 1 165 0
 250 0118 0770     		strb	r7, [r0]
ARM GAS  C:\Users\Steve\AppData\Local\Temp\cc9TlorX.s 			page 9


 166:.\main.c      **** 	LED_Matrix_1_F0_REG_2 = (uint8)matrix[2 + j*4].b[bit_shift];
 251              		.loc 1 166 0
 252 011a 4746     		mov	r7, r8
 253 011c BF7A     		ldrb	r7, [r7, #10]
 168:.\main.c      **** 
 169:.\main.c      **** 	LED_Matrix_1_F1_REG_2 = (uint8)matrix[0 + (j+8)*4].b[bit_shift];
 170:.\main.c      **** 	LED_Matrix_1_F1_REG_2 = (uint8)matrix[1 + (j+8)*4].b[bit_shift];
 171:.\main.c      **** 	LED_Matrix_1_F1_REG_2 = (uint8)matrix[2 + (j+8)*4].b[bit_shift];
 172:.\main.c      **** 	LED_Matrix_1_F1_REG_2 = (uint8)matrix[3 + (j+8)*4].b[bit_shift];
 254              		.loc 1 172 0
 255 011e 9E19     		add	r6, r3, r6
 166:.\main.c      **** 	LED_Matrix_1_F0_REG_2 = (uint8)matrix[2 + j*4].b[bit_shift];
 256              		.loc 1 166 0
 257 0120 0770     		strb	r7, [r0]
 167:.\main.c      **** 	LED_Matrix_1_F0_REG_2 = (uint8)matrix[3 + j*4].b[bit_shift];
 258              		.loc 1 167 0
 259 0122 6746     		mov	r7, ip
 260 0124 BF7A     		ldrb	r7, [r7, #10]
 261 0126 0770     		strb	r7, [r0]
 169:.\main.c      **** 	LED_Matrix_1_F1_REG_2 = (uint8)matrix[0 + (j+8)*4].b[bit_shift];
 262              		.loc 1 169 0
 263 0128 0298     		ldr	r0, [sp, #8]
 264 012a 1F18     		add	r7, r3, r0
 265 012c B818     		add	r0, r7, r2
 266 012e 877A     		ldrb	r7, [r0, #10]
 267 0130 3648     		ldr	r0, .L14+36
 268 0132 0770     		strb	r7, [r0]
 170:.\main.c      **** 	LED_Matrix_1_F1_REG_2 = (uint8)matrix[1 + (j+8)*4].b[bit_shift];
 269              		.loc 1 170 0
 270 0134 049F     		ldr	r7, [sp, #16]
 271 0136 FF18     		add	r7, r7, r3
 272 0138 B846     		mov	r8, r7
 273 013a 9044     		add	r8, r8, r2
 274 013c 4746     		mov	r7, r8
 275 013e BF7A     		ldrb	r7, [r7, #10]
 276 0140 0770     		strb	r7, [r0]
 171:.\main.c      **** 	LED_Matrix_1_F1_REG_2 = (uint8)matrix[2 + (j+8)*4].b[bit_shift];
 277              		.loc 1 171 0
 278 0142 019F     		ldr	r7, [sp, #4]
 279 0144 FF18     		add	r7, r7, r3
 280 0146 BC46     		mov	ip, r7
 281 0148 9444     		add	ip, ip, r2
 282 014a 6746     		mov	r7, ip
 283 014c BF7A     		ldrb	r7, [r7, #10]
 284              		.loc 1 172 0
 285 014e B218     		add	r2, r6, r2
 171:.\main.c      **** 	LED_Matrix_1_F1_REG_2 = (uint8)matrix[2 + (j+8)*4].b[bit_shift];
 286              		.loc 1 171 0
 287 0150 0770     		strb	r7, [r0]
 288              		.loc 1 172 0
 289 0152 977A     		ldrb	r7, [r2, #10]
 173:.\main.c      **** 	
 174:.\main.c      **** 	LED_Matrix_1_F1_REG_0 = (uint8)matrix[0 + (j+8)*4].r[bit_shift];
 290              		.loc 1 174 0
 291 0154 2E4A     		ldr	r2, .L14+40
 172:.\main.c      **** 	LED_Matrix_1_F1_REG_2 = (uint8)matrix[3 + (j+8)*4].b[bit_shift];
 292              		.loc 1 172 0
ARM GAS  C:\Users\Steve\AppData\Local\Temp\cc9TlorX.s 			page 10


 293 0156 0770     		strb	r7, [r0]
 294              		.loc 1 174 0
 295 0158 0398     		ldr	r0, [sp, #12]
 296 015a C65C     		ldrb	r6, [r0, r3]
 297 015c 1670     		strb	r6, [r2]
 175:.\main.c      **** 	LED_Matrix_1_F1_REG_0 = (uint8)matrix[1 + (j+8)*4].r[bit_shift];
 298              		.loc 1 175 0
 299 015e 059F     		ldr	r7, [sp, #20]
 176:.\main.c      **** 	LED_Matrix_1_F1_REG_0 = (uint8)matrix[2 + (j+8)*4].r[bit_shift];
 177:.\main.c      **** 
 178:.\main.c      **** 	/* Disable outputs */
 179:.\main.c      **** 	LED_Matrix_1_WriteControl(0x03);
 300              		.loc 1 179 0
 301 0160 0326     		mov	r6, #3
 175:.\main.c      **** 	LED_Matrix_1_F1_REG_0 = (uint8)matrix[1 + (j+8)*4].r[bit_shift];
 302              		.loc 1 175 0
 303 0162 F85C     		ldrb	r0, [r7, r3]
 304              		.loc 1 179 0
 305 0164 214F     		ldr	r7, .L14+4
 175:.\main.c      **** 	LED_Matrix_1_F1_REG_0 = (uint8)matrix[1 + (j+8)*4].r[bit_shift];
 306              		.loc 1 175 0
 307 0166 1070     		strb	r0, [r2]
 176:.\main.c      **** 	LED_Matrix_1_F1_REG_0 = (uint8)matrix[2 + (j+8)*4].r[bit_shift];
 308              		.loc 1 176 0
 309 0168 ED5C     		ldrb	r5, [r5, r3]
 180:.\main.c      **** 	
 181:.\main.c      **** 	/* Note that row change occurs at a lower frequency than the BCM because of mystery ghosting */
 182:.\main.c      **** 	Row_Select(j);
 310              		.loc 1 182 0
 311 016a 2A48     		ldr	r0, .L14+44
 176:.\main.c      **** 	LED_Matrix_1_F1_REG_0 = (uint8)matrix[2 + (j+8)*4].r[bit_shift];
 312              		.loc 1 176 0
 313 016c 1570     		strb	r5, [r2]
 179:.\main.c      **** 	LED_Matrix_1_WriteControl(0x03);
 314              		.loc 1 179 0
 315 016e 3E70     		strb	r6, [r7]
 316              		.loc 1 182 0
 317 0170 0678     		ldrb	r6, [r0]
 318 0172 0725     		mov	r5, #7
 319 0174 2940     		and	r1, r5
 320 0176 AE43     		bic	r6, r5
 321 0178 3143     		orr	r1, r6
 322 017a 0170     		strb	r1, [r0]
 183:.\main.c      **** 
 184:.\main.c      **** 	/* Once F1_REG_0 is full (this line does it), the Component will begin shifting out values */
 185:.\main.c      **** 	LED_Matrix_1_F1_REG_0 = (uint8)matrix[3 + (j+8)*4].r[bit_shift];
 323              		.loc 1 185 0
 324 017c E35C     		ldrb	r3, [r4, r3]
 325 017e 1370     		strb	r3, [r2]
 186:.\main.c      **** }
 326              		.loc 1 186 0
 327 0180 07B0     		add	sp, sp, #28
 328              		@ sp needed for prologue
 329 0182 3CBC     		pop	{r2, r3, r4, r5}
 330 0184 9046     		mov	r8, r2
 331 0186 9946     		mov	r9, r3
 332 0188 A246     		mov	sl, r4
ARM GAS  C:\Users\Steve\AppData\Local\Temp\cc9TlorX.s 			page 11


 333 018a AB46     		mov	fp, r5
 334 018c F0BD     		pop	{r4, r5, r6, r7, pc}
 335              	.L10:
 107:.\main.c      **** 		j++;
 336              		.loc 1 107 0
 337 018e 6F78     		ldrb	r7, [r5, #1]
 105:.\main.c      **** 		bit_shift = 0;
 338              		.loc 1 105 0
 339 0190 184A     		ldr	r2, .L14+12
 107:.\main.c      **** 		j++;
 340              		.loc 1 107 0
 341 0192 0137     		add	r7, r7, #1
 105:.\main.c      **** 		bit_shift = 0;
 342              		.loc 1 105 0
 343 0194 0024     		mov	r4, #0
 107:.\main.c      **** 		j++;
 344              		.loc 1 107 0
 345 0196 FEB2     		uxtb	r6, r7
 105:.\main.c      **** 		bit_shift = 0;
 346              		.loc 1 105 0
 347 0198 1470     		strb	r4, [r2]
 106:.\main.c      **** 		pwm_count = 0;
 348              		.loc 1 106 0
 349 019a 2C70     		strb	r4, [r5]
 109:.\main.c      **** 		if(j == 8)
 350              		.loc 1 109 0
 351 019c 082E     		cmp	r6, #8
 352 019e 1ED0     		beq	.L3
 107:.\main.c      **** 		j++;
 353              		.loc 1 107 0
 354 01a0 6E70     		strb	r6, [r5, #1]
 355 01a2 B100     		lsl	r1, r6, #2
 356 01a4 0024     		mov	r4, #0
 357 01a6 50E7     		b	.L4
 358              	.L12:
 120:.\main.c      **** 		bit_shift = 2;
 359              		.loc 1 120 0
 360 01a8 124A     		ldr	r2, .L14+12
 361 01aa 6878     		ldrb	r0, [r5, #1]
 362 01ac 0223     		mov	r3, #2
 363 01ae 1370     		strb	r3, [r2]
 364 01b0 8100     		lsl	r1, r0, #2
 365 01b2 0224     		mov	r4, #2
 366 01b4 49E7     		b	.L4
 367              	.L11:
 116:.\main.c      **** 		bit_shift = 1;
 368              		.loc 1 116 0
 369 01b6 0F4A     		ldr	r2, .L14+12
 370 01b8 6978     		ldrb	r1, [r5, #1]
 371 01ba 1770     		strb	r7, [r2]
 372 01bc 8900     		lsl	r1, r1, #2
 373 01be 0124     		mov	r4, #1
 374 01c0 43E7     		b	.L4
 375              	.L8:
 128:.\main.c      **** 		bit_shift = 4;
 376              		.loc 1 128 0
 377 01c2 0C4A     		ldr	r2, .L14+12
ARM GAS  C:\Users\Steve\AppData\Local\Temp\cc9TlorX.s 			page 12


 378 01c4 6878     		ldrb	r0, [r5, #1]
 379 01c6 0423     		mov	r3, #4
 380 01c8 1370     		strb	r3, [r2]
 381 01ca 8100     		lsl	r1, r0, #2
 382 01cc 0424     		mov	r4, #4
 383 01ce 3CE7     		b	.L4
 384              	.L13:
 124:.\main.c      **** 		bit_shift = 3;
 385              		.loc 1 124 0
 386 01d0 084A     		ldr	r2, .L14+12
 387 01d2 6E78     		ldrb	r6, [r5, #1]
 388 01d4 0327     		mov	r7, #3
 389 01d6 1770     		strb	r7, [r2]
 390 01d8 B100     		lsl	r1, r6, #2
 391 01da 0324     		mov	r4, #3
 392 01dc 35E7     		b	.L4
 393              	.L3:
 111:.\main.c      **** 			j = 0;
 394              		.loc 1 111 0
 395 01de 6C70     		strb	r4, [r5, #1]
 396 01e0 0021     		mov	r1, #0
 397 01e2 0024     		mov	r4, #0
 398 01e4 31E7     		b	.L4
 399              	.L15:
 400 01e6 C046     		.align	2
 401              	.L14:
 402 01e8 80E200E0 		.word	-536812928
 403 01ec 71000F40 		.word	1074724977
 404 01f0 00000000 		.word	.LANCHOR0
 405 01f4 00000000 		.word	bit_shift
 406 01f8 00000000 		.word	matrix
 407 01fc 42000F40 		.word	1074724930
 408 0200 43000F40 		.word	1074724931
 409 0204 53000F40 		.word	1074724947
 410 0208 41000F40 		.word	1074724929
 411 020c 51000F40 		.word	1074724945
 412 0210 52000F40 		.word	1074724946
 413 0214 72000F40 		.word	1074724978
 414              		.cfi_endproc
 415              	.LFE34:
 416              		.size	FIFO_EMPTY, .-FIFO_EMPTY
 417              		.section	.text.PB_ISR,"ax",%progbits
 418              		.align	2
 419              		.global	PB_ISR
 420              		.code	16
 421              		.thumb_func
 422              		.type	PB_ISR, %function
 423              	PB_ISR:
 424              	.LFB33:
  72:.\main.c      **** {
 425              		.loc 1 72 0
 426              		.cfi_startproc
  73:.\main.c      **** 	if(PB==0)
 427              		.loc 1 73 0
 428 0000 054B     		ldr	r3, .L20
  72:.\main.c      **** {
 429              		.loc 1 72 0
ARM GAS  C:\Users\Steve\AppData\Local\Temp\cc9TlorX.s 			page 13


 430 0002 00B5     		push	{lr}
 431              	.LCFI3:
 432              		.cfi_def_cfa_offset 4
 433              		.cfi_offset 14, -4
  73:.\main.c      **** 	if(PB==0)
 434              		.loc 1 73 0
 435 0004 5A68     		ldr	r2, [r3, #4]
 436 0006 002A     		cmp	r2, #0
 437 0008 02D0     		beq	.L19
  79:.\main.c      **** 		PB=0;
 438              		.loc 1 79 0
 439 000a 0020     		mov	r0, #0
 440 000c 5860     		str	r0, [r3, #4]
 441              	.L16:
  81:.\main.c      **** }
 442              		.loc 1 81 0
 443              		@ sp needed for prologue
 444 000e 00BD     		pop	{pc}
 445              	.L19:
  75:.\main.c      **** 		PB=1;
 446              		.loc 1 75 0
 447 0010 0121     		mov	r1, #1
 448 0012 5960     		str	r1, [r3, #4]
 449 0014 FBE7     		b	.L16
 450              	.L21:
 451 0016 C046     		.align	2
 452              	.L20:
 453 0018 00000000 		.word	.LANCHOR0
 454              		.cfi_endproc
 455              	.LFE33:
 456              		.size	PB_ISR, .-PB_ISR
 457              		.section	.text.eoc_isr,"ax",%progbits
 458              		.align	2
 459              		.global	eoc_isr
 460              		.code	16
 461              		.thumb_func
 462              		.type	eoc_isr, %function
 463              	eoc_isr:
 464              	.LFB35:
 187:.\main.c      **** uint8 dataReady = 0;
 188:.\main.c      **** int16 result[8] = {0,0,0,0,0,0,0,0};
 189:.\main.c      **** int16 oldResult[8] = {0,0,0,0,0,0,0,0};
 190:.\main.c      **** int w = 0;
 191:.\main.c      **** CY_ISR(eoc_isr)
 192:.\main.c      **** {
 465              		.loc 1 192 0
 466              		.cfi_startproc
 193:.\main.c      **** 	
 194:.\main.c      **** 	result[0] = (uint16)(ADC_SAR_CHAN0_RESULT_REG & ADC_RESULT_MASK);
 467              		.loc 1 194 0
 468 0000 3C49     		ldr	r1, .L39
 195:.\main.c      **** 	result[1] = (uint16)(ADC_SAR_CHAN1_RESULT_REG & ADC_RESULT_MASK);
 469              		.loc 1 195 0
 470 0002 3D4A     		ldr	r2, .L39+4
 192:.\main.c      **** {
 471              		.loc 1 192 0
 472 0004 70B5     		push	{r4, r5, r6, lr}
ARM GAS  C:\Users\Steve\AppData\Local\Temp\cc9TlorX.s 			page 14


 473              	.LCFI4:
 474              		.cfi_def_cfa_offset 16
 475              		.cfi_offset 4, -16
 476              		.cfi_offset 5, -12
 477              		.cfi_offset 6, -8
 478              		.cfi_offset 14, -4
 194:.\main.c      **** 	result[0] = (uint16)(ADC_SAR_CHAN0_RESULT_REG & ADC_RESULT_MASK);
 479              		.loc 1 194 0
 480 0006 3D4B     		ldr	r3, .L39+8
 481 0008 0D68     		ldr	r5, [r1]
 482              		.loc 1 195 0
 483 000a 1468     		ldr	r4, [r2]
 194:.\main.c      **** 	result[0] = (uint16)(ADC_SAR_CHAN0_RESULT_REG & ADC_RESULT_MASK);
 484              		.loc 1 194 0
 485 000c A8B2     		uxth	r0, r5
 486              		.loc 1 195 0
 487 000e 5C81     		strh	r4, [r3, #10]
 196:.\main.c      **** 	result[2] = (uint16)(ADC_SAR_CHAN2_RESULT_REG & ADC_RESULT_MASK);
 488              		.loc 1 196 0
 489 0010 3B4C     		ldr	r4, .L39+12
 194:.\main.c      **** 	result[0] = (uint16)(ADC_SAR_CHAN0_RESULT_REG & ADC_RESULT_MASK);
 490              		.loc 1 194 0
 491 0012 1881     		strh	r0, [r3, #8]
 492              		.loc 1 196 0
 493 0014 2668     		ldr	r6, [r4]
 197:.\main.c      **** 	result[3] = (uint16)(ADC_SAR_CHAN0_RESULT_REG & ADC_RESULT_MASK);
 198:.\main.c      **** 	result[4] = (uint16)(ADC_SAR_CHAN1_RESULT_REG & ADC_RESULT_MASK);
 199:.\main.c      **** 	result[5] = (uint16)(ADC_SAR_CHAN2_RESULT_REG & ADC_RESULT_MASK);
 200:.\main.c      **** 	result[6] = (uint16)(ADC_SAR_CHAN0_RESULT_REG & ADC_RESULT_MASK);
 201:.\main.c      **** 	result[7] = (uint16)(ADC_SAR_CHAN1_RESULT_REG & ADC_RESULT_MASK);
 202:.\main.c      **** 	for(w=0;w<8;w++)
 203:.\main.c      **** 	{
 204:.\main.c      **** 		if((result[w] & 0xFF00) == 0xFF00)
 494              		.loc 1 204 0
 495 0016 00B2     		sxth	r0, r0
 196:.\main.c      **** 	result[2] = (uint16)(ADC_SAR_CHAN2_RESULT_REG & ADC_RESULT_MASK);
 496              		.loc 1 196 0
 497 0018 9E81     		strh	r6, [r3, #12]
 197:.\main.c      **** 	result[3] = (uint16)(ADC_SAR_CHAN0_RESULT_REG & ADC_RESULT_MASK);
 498              		.loc 1 197 0
 499 001a 0E68     		ldr	r6, [r1]
 500 001c DE81     		strh	r6, [r3, #14]
 198:.\main.c      **** 	result[4] = (uint16)(ADC_SAR_CHAN1_RESULT_REG & ADC_RESULT_MASK);
 501              		.loc 1 198 0
 502 001e 1668     		ldr	r6, [r2]
 199:.\main.c      **** 	result[5] = (uint16)(ADC_SAR_CHAN2_RESULT_REG & ADC_RESULT_MASK);
 503              		.loc 1 199 0
 504 0020 2468     		ldr	r4, [r4]
 198:.\main.c      **** 	result[4] = (uint16)(ADC_SAR_CHAN1_RESULT_REG & ADC_RESULT_MASK);
 505              		.loc 1 198 0
 506 0022 1E82     		strh	r6, [r3, #16]
 200:.\main.c      **** 	result[6] = (uint16)(ADC_SAR_CHAN0_RESULT_REG & ADC_RESULT_MASK);
 507              		.loc 1 200 0
 508 0024 0968     		ldr	r1, [r1]
 509              		.loc 1 204 0
 510 0026 FF26     		mov	r6, #255
 201:.\main.c      **** 	result[7] = (uint16)(ADC_SAR_CHAN1_RESULT_REG & ADC_RESULT_MASK);
ARM GAS  C:\Users\Steve\AppData\Local\Temp\cc9TlorX.s 			page 15


 511              		.loc 1 201 0
 512 0028 1268     		ldr	r2, [r2]
 199:.\main.c      **** 	result[5] = (uint16)(ADC_SAR_CHAN2_RESULT_REG & ADC_RESULT_MASK);
 513              		.loc 1 199 0
 514 002a 5C82     		strh	r4, [r3, #18]
 515              		.loc 1 204 0
 516 002c 3402     		lsl	r4, r6, #8
 200:.\main.c      **** 	result[6] = (uint16)(ADC_SAR_CHAN0_RESULT_REG & ADC_RESULT_MASK);
 517              		.loc 1 200 0
 518 002e 9982     		strh	r1, [r3, #20]
 201:.\main.c      **** 	result[7] = (uint16)(ADC_SAR_CHAN1_RESULT_REG & ADC_RESULT_MASK);
 519              		.loc 1 201 0
 520 0030 DA82     		strh	r2, [r3, #22]
 521              		.loc 1 204 0
 522 0032 2040     		and	r0, r4
 523 0034 A042     		cmp	r0, r4
 524 0036 4DD0     		beq	.L31
 525 0038 2D05     		lsl	r5, r5, #20
 526 003a E90E     		lsr	r1, r5, #27
 527              	.L23:
 528 003c 5E89     		ldrh	r6, [r3, #10]
 529 003e FF22     		mov	r2, #255
 530 0040 30B2     		sxth	r0, r6
 531 0042 1402     		lsl	r4, r2, #8
 205:.\main.c      **** 		{
 206:.\main.c      **** 			result[w] = 0;
 207:.\main.c      **** 		}
 208:.\main.c      **** 		result[w]=(result[w] & 0x0FE0)>>7;
 532              		.loc 1 208 0
 533 0044 1981     		strh	r1, [r3, #8]
 204:.\main.c      **** 		if((result[w] & 0xFF00) == 0xFF00)
 534              		.loc 1 204 0
 535 0046 2040     		and	r0, r4
 536 0048 A042     		cmp	r0, r4
 537 004a 51D0     		beq	.L32
 538 004c 3505     		lsl	r5, r6, #20
 539 004e E90E     		lsr	r1, r5, #27
 540              	.L24:
 541 0050 9E89     		ldrh	r6, [r3, #12]
 542 0052 FF22     		mov	r2, #255
 543 0054 30B2     		sxth	r0, r6
 544 0056 1402     		lsl	r4, r2, #8
 545              		.loc 1 208 0
 546 0058 5981     		strh	r1, [r3, #10]
 204:.\main.c      **** 		if((result[w] & 0xFF00) == 0xFF00)
 547              		.loc 1 204 0
 548 005a 2040     		and	r0, r4
 549 005c A042     		cmp	r0, r4
 550 005e 45D0     		beq	.L33
 551 0060 3505     		lsl	r5, r6, #20
 552 0062 E90E     		lsr	r1, r5, #27
 553              	.L25:
 554 0064 DE89     		ldrh	r6, [r3, #14]
 555 0066 FF22     		mov	r2, #255
 556 0068 30B2     		sxth	r0, r6
 557 006a 1402     		lsl	r4, r2, #8
 558              		.loc 1 208 0
ARM GAS  C:\Users\Steve\AppData\Local\Temp\cc9TlorX.s 			page 16


 559 006c 9981     		strh	r1, [r3, #12]
 204:.\main.c      **** 		if((result[w] & 0xFF00) == 0xFF00)
 560              		.loc 1 204 0
 561 006e 2040     		and	r0, r4
 562 0070 A042     		cmp	r0, r4
 563 0072 39D0     		beq	.L34
 564 0074 3505     		lsl	r5, r6, #20
 565 0076 E90E     		lsr	r1, r5, #27
 566              	.L26:
 567 0078 1E8A     		ldrh	r6, [r3, #16]
 568 007a FF22     		mov	r2, #255
 569 007c 30B2     		sxth	r0, r6
 570 007e 1402     		lsl	r4, r2, #8
 571              		.loc 1 208 0
 572 0080 D981     		strh	r1, [r3, #14]
 204:.\main.c      **** 		if((result[w] & 0xFF00) == 0xFF00)
 573              		.loc 1 204 0
 574 0082 2040     		and	r0, r4
 575 0084 A042     		cmp	r0, r4
 576 0086 2DD0     		beq	.L35
 577 0088 3505     		lsl	r5, r6, #20
 578 008a E90E     		lsr	r1, r5, #27
 579              	.L27:
 580 008c 5E8A     		ldrh	r6, [r3, #18]
 581 008e FF22     		mov	r2, #255
 582 0090 30B2     		sxth	r0, r6
 583 0092 1402     		lsl	r4, r2, #8
 584              		.loc 1 208 0
 585 0094 1982     		strh	r1, [r3, #16]
 204:.\main.c      **** 		if((result[w] & 0xFF00) == 0xFF00)
 586              		.loc 1 204 0
 587 0096 2040     		and	r0, r4
 588 0098 A042     		cmp	r0, r4
 589 009a 21D0     		beq	.L36
 590 009c 3505     		lsl	r5, r6, #20
 591 009e E90E     		lsr	r1, r5, #27
 592              	.L28:
 593 00a0 9E8A     		ldrh	r6, [r3, #20]
 594 00a2 FF22     		mov	r2, #255
 595 00a4 30B2     		sxth	r0, r6
 596 00a6 1402     		lsl	r4, r2, #8
 597              		.loc 1 208 0
 598 00a8 5982     		strh	r1, [r3, #18]
 204:.\main.c      **** 		if((result[w] & 0xFF00) == 0xFF00)
 599              		.loc 1 204 0
 600 00aa 2040     		and	r0, r4
 601 00ac A042     		cmp	r0, r4
 602 00ae 15D0     		beq	.L37
 603 00b0 3505     		lsl	r5, r6, #20
 604 00b2 E90E     		lsr	r1, r5, #27
 605              	.L29:
 606 00b4 DE8A     		ldrh	r6, [r3, #22]
 607 00b6 FF22     		mov	r2, #255
 608 00b8 30B2     		sxth	r0, r6
 609 00ba 1402     		lsl	r4, r2, #8
 610              		.loc 1 208 0
 611 00bc 9982     		strh	r1, [r3, #20]
ARM GAS  C:\Users\Steve\AppData\Local\Temp\cc9TlorX.s 			page 17


 204:.\main.c      **** 		if((result[w] & 0xFF00) == 0xFF00)
 612              		.loc 1 204 0
 613 00be 2040     		and	r0, r4
 614 00c0 A042     		cmp	r0, r4
 615 00c2 09D0     		beq	.L38
 616 00c4 3505     		lsl	r5, r6, #20
 617 00c6 E90E     		lsr	r1, r5, #27
 618              	.L30:
 619 00c8 0826     		mov	r6, #8
 209:.\main.c      **** 	}
 210:.\main.c      **** 	dataReady = 1;
 620              		.loc 1 210 0
 621 00ca 0120     		mov	r0, #1
 622 00cc 9E61     		str	r6, [r3, #24]
 208:.\main.c      **** 		result[w]=(result[w] & 0x0FE0)>>7;
 623              		.loc 1 208 0
 624 00ce D982     		strh	r1, [r3, #22]
 625              		.loc 1 210 0
 626 00d0 1877     		strb	r0, [r3, #28]
 211:.\main.c      **** }
 627              		.loc 1 211 0
 628              		@ sp needed for prologue
 629 00d2 70BD     		pop	{r4, r5, r6, pc}
 630              	.L31:
 204:.\main.c      **** 		if((result[w] & 0xFF00) == 0xFF00)
 631              		.loc 1 204 0
 632 00d4 0021     		mov	r1, #0
 633 00d6 B1E7     		b	.L23
 634              	.L38:
 635 00d8 0021     		mov	r1, #0
 636 00da F5E7     		b	.L30
 637              	.L37:
 638 00dc 0021     		mov	r1, #0
 639 00de E9E7     		b	.L29
 640              	.L36:
 641 00e0 0021     		mov	r1, #0
 642 00e2 DDE7     		b	.L28
 643              	.L35:
 644 00e4 0021     		mov	r1, #0
 645 00e6 D1E7     		b	.L27
 646              	.L34:
 647 00e8 0021     		mov	r1, #0
 648 00ea C5E7     		b	.L26
 649              	.L33:
 650 00ec 0021     		mov	r1, #0
 651 00ee B9E7     		b	.L25
 652              	.L32:
 653 00f0 0021     		mov	r1, #0
 654 00f2 ADE7     		b	.L24
 655              	.L40:
 656              		.align	2
 657              	.L39:
 658 00f4 80011A40 		.word	1075446144
 659 00f8 84011A40 		.word	1075446148
 660 00fc 00000000 		.word	.LANCHOR0
 661 0100 88011A40 		.word	1075446152
 662              		.cfi_endproc
ARM GAS  C:\Users\Steve\AppData\Local\Temp\cc9TlorX.s 			page 18


 663              	.LFE35:
 664              		.size	eoc_isr, .-eoc_isr
 665              		.section	.text.startup.main,"ax",%progbits
 666              		.align	2
 667              		.global	main
 668              		.code	16
 669              		.thumb_func
 670              		.type	main, %function
 671              	main:
 672              	.LFB36:
 212:.\main.c      **** 
 213:.\main.c      **** /*******************************************************************************
 214:.\main.c      **** * Function Name: main
 215:.\main.c      **** ********************************************************************************
 216:.\main.c      **** *
 217:.\main.c      **** * Summary:
 218:.\main.c      **** *  Handles UART Comm and updates matrix buffer
 219:.\main.c      **** *
 220:.\main.c      **** * Parameters:  
 221:.\main.c      **** *   None
 222:.\main.c      **** *
 223:.\main.c      **** * Return:
 224:.\main.c      **** *   None
 225:.\main.c      **** *
 226:.\main.c      **** *******************************************************************************/
 227:.\main.c      **** 
 228:.\main.c      **** int main()
 229:.\main.c      **** {	
 673              		.loc 1 229 0
 674              		.cfi_startproc
 675 0000 F0B5     		push	{r4, r5, r6, r7, lr}
 676              	.LCFI5:
 677              		.cfi_def_cfa_offset 20
 678              		.cfi_offset 4, -20
 679              		.cfi_offset 5, -16
 680              		.cfi_offset 6, -12
 681              		.cfi_offset 7, -8
 682              		.cfi_offset 14, -4
 683 0002 4F46     		mov	r7, r9
 684 0004 4646     		mov	r6, r8
 685 0006 C0B4     		push	{r6, r7}
 686              	.LCFI6:
 687              		.cfi_def_cfa_offset 28
 688              		.cfi_offset 8, -28
 689              		.cfi_offset 9, -24
 690 0008 87B0     		sub	sp, sp, #28
 691              	.LCFI7:
 692              		.cfi_def_cfa_offset 56
 230:.\main.c      **** 	int i;
 231:.\main.c      **** 	/* struct that can accomodate 8-bit RGB color */
 232:.\main.c      **** 	RGB lotsOfColors[8];
 233:.\main.c      **** 	lotsOfColors[0].r = 12;
 693              		.loc 1 233 0
 694 000a 6946     		mov	r1, sp
 234:.\main.c      **** 	lotsOfColors[0].g = 0;
 235:.\main.c      **** 	lotsOfColors[0].b = 0;
 236:.\main.c      **** 	
ARM GAS  C:\Users\Steve\AppData\Local\Temp\cc9TlorX.s 			page 19


 237:.\main.c      **** 	lotsOfColors[1].r = 24;
 238:.\main.c      **** 	lotsOfColors[1].g = 0;
 239:.\main.c      **** 	lotsOfColors[1].b = 0;
 240:.\main.c      **** 	
 241:.\main.c      **** 	lotsOfColors[2].r = 0;
 242:.\main.c      **** 	lotsOfColors[2].g = 4;
 243:.\main.c      **** 	lotsOfColors[2].b = 0;
 244:.\main.c      **** 	
 245:.\main.c      **** 	lotsOfColors[3].r = 0;
 246:.\main.c      **** 	lotsOfColors[3].g = 16;
 247:.\main.c      **** 	lotsOfColors[3].b = 0;
 248:.\main.c      **** 	
 249:.\main.c      **** 	lotsOfColors[4].r = 0;
 250:.\main.c      **** 	lotsOfColors[4].g = 28;
 695              		.loc 1 250 0
 696 000c 1C26     		mov	r6, #28
 234:.\main.c      **** 	lotsOfColors[0].g = 0;
 697              		.loc 1 234 0
 698 000e 0020     		mov	r0, #0
 699              		.loc 1 250 0
 700 0010 4E73     		strb	r6, [r1, #13]
 233:.\main.c      **** 	lotsOfColors[0].r = 12;
 701              		.loc 1 233 0
 702 0012 0C23     		mov	r3, #12
 251:.\main.c      **** 	lotsOfColors[4].b = 0;
 252:.\main.c      **** 	
 253:.\main.c      **** 	lotsOfColors[5].r = 0;
 254:.\main.c      **** 	lotsOfColors[5].g = 8;
 255:.\main.c      **** 	lotsOfColors[5].b = 0;
 256:.\main.c      **** 	
 257:.\main.c      **** 	lotsOfColors[6].r = 0;
 258:.\main.c      **** 	lotsOfColors[6].g = 0;
 259:.\main.c      **** 	lotsOfColors[6].b = 20;
 260:.\main.c      **** 	
 261:.\main.c      **** 	lotsOfColors[7].r = 0;
 262:.\main.c      **** 	lotsOfColors[7].g = 0;
 263:.\main.c      **** 	lotsOfColors[7].b = 31;
 264:.\main.c      **** 	
 265:.\main.c      **** 	clearScreen(matrix);
 703              		.loc 1 265 0
 704 0014 244E     		ldr	r6, .L45
 233:.\main.c      **** 	lotsOfColors[0].r = 12;
 705              		.loc 1 233 0
 706 0016 0B70     		strb	r3, [r1]
 234:.\main.c      **** 	lotsOfColors[0].g = 0;
 707              		.loc 1 234 0
 708 0018 4870     		strb	r0, [r1, #1]
 259:.\main.c      **** 	lotsOfColors[6].b = 20;
 709              		.loc 1 259 0
 710 001a 1423     		mov	r3, #20
 235:.\main.c      **** 	lotsOfColors[0].b = 0;
 711              		.loc 1 235 0
 712 001c 8870     		strb	r0, [r1, #2]
 237:.\main.c      **** 	lotsOfColors[1].r = 24;
 713              		.loc 1 237 0
 714 001e 1822     		mov	r2, #24
 238:.\main.c      **** 	lotsOfColors[1].g = 0;
ARM GAS  C:\Users\Steve\AppData\Local\Temp\cc9TlorX.s 			page 20


 715              		.loc 1 238 0
 716 0020 0871     		strb	r0, [r1, #4]
 239:.\main.c      **** 	lotsOfColors[1].b = 0;
 717              		.loc 1 239 0
 718 0022 4871     		strb	r0, [r1, #5]
 241:.\main.c      **** 	lotsOfColors[2].r = 0;
 719              		.loc 1 241 0
 720 0024 8871     		strb	r0, [r1, #6]
 243:.\main.c      **** 	lotsOfColors[2].b = 0;
 721              		.loc 1 243 0
 722 0026 0872     		strb	r0, [r1, #8]
 245:.\main.c      **** 	lotsOfColors[3].r = 0;
 723              		.loc 1 245 0
 724 0028 4872     		strb	r0, [r1, #9]
 247:.\main.c      **** 	lotsOfColors[3].b = 0;
 725              		.loc 1 247 0
 726 002a C872     		strb	r0, [r1, #11]
 249:.\main.c      **** 	lotsOfColors[4].r = 0;
 727              		.loc 1 249 0
 728 002c 0873     		strb	r0, [r1, #12]
 251:.\main.c      **** 	lotsOfColors[4].b = 0;
 729              		.loc 1 251 0
 730 002e 8873     		strb	r0, [r1, #14]
 253:.\main.c      **** 	lotsOfColors[5].r = 0;
 731              		.loc 1 253 0
 732 0030 C873     		strb	r0, [r1, #15]
 255:.\main.c      **** 	lotsOfColors[5].b = 0;
 733              		.loc 1 255 0
 734 0032 4874     		strb	r0, [r1, #17]
 257:.\main.c      **** 	lotsOfColors[6].r = 0;
 735              		.loc 1 257 0
 736 0034 8874     		strb	r0, [r1, #18]
 258:.\main.c      **** 	lotsOfColors[6].g = 0;
 737              		.loc 1 258 0
 738 0036 C874     		strb	r0, [r1, #19]
 261:.\main.c      **** 	lotsOfColors[7].r = 0;
 739              		.loc 1 261 0
 740 0038 4875     		strb	r0, [r1, #21]
 262:.\main.c      **** 	lotsOfColors[7].g = 0;
 741              		.loc 1 262 0
 742 003a 8875     		strb	r0, [r1, #22]
 242:.\main.c      **** 	lotsOfColors[2].g = 4;
 743              		.loc 1 242 0
 744 003c 0424     		mov	r4, #4
 246:.\main.c      **** 	lotsOfColors[3].g = 16;
 745              		.loc 1 246 0
 746 003e 1025     		mov	r5, #16
 254:.\main.c      **** 	lotsOfColors[5].g = 8;
 747              		.loc 1 254 0
 748 0040 0827     		mov	r7, #8
 263:.\main.c      **** 	lotsOfColors[7].b = 31;
 749              		.loc 1 263 0
 750 0042 1F20     		mov	r0, #31
 259:.\main.c      **** 	lotsOfColors[6].b = 20;
 751              		.loc 1 259 0
 752 0044 0B75     		strb	r3, [r1, #20]
 237:.\main.c      **** 	lotsOfColors[1].r = 24;
ARM GAS  C:\Users\Steve\AppData\Local\Temp\cc9TlorX.s 			page 21


 753              		.loc 1 237 0
 754 0046 CA70     		strb	r2, [r1, #3]
 242:.\main.c      **** 	lotsOfColors[2].g = 4;
 755              		.loc 1 242 0
 756 0048 CC71     		strb	r4, [r1, #7]
 246:.\main.c      **** 	lotsOfColors[3].g = 16;
 757              		.loc 1 246 0
 758 004a 8D72     		strb	r5, [r1, #10]
 254:.\main.c      **** 	lotsOfColors[5].g = 8;
 759              		.loc 1 254 0
 760 004c 0F74     		strb	r7, [r1, #16]
 263:.\main.c      **** 	lotsOfColors[7].b = 31;
 761              		.loc 1 263 0
 762 004e C875     		strb	r0, [r1, #23]
 763              		.loc 1 265 0
 764 0050 301C     		mov	r0, r6
 765 0052 FFF7FEFF 		bl	clearScreen
 766              	.LVL0:
 266:.\main.c      **** 	
 267:.\main.c      **** 	LED_Matrix_1_Start();
 767              		.loc 1 267 0
 768 0056 FFF7FEFF 		bl	LED_Matrix_1_Start
 769              	.LVL1:
 268:.\main.c      **** 	
 269:.\main.c      **** 	/* Enable Component */
 270:.\main.c      **** 	LED_Matrix_1_WriteControl(0x03);
 770              		.loc 1 270 0
 771 005a 144A     		ldr	r2, .L45+4
 772 005c 0321     		mov	r1, #3
 773 005e 1170     		strb	r1, [r2]
 271:.\main.c      **** 
 272:.\main.c      **** 	/* Start the isr that is triggered everytime the Component finishes writing to the matrix */
 273:.\main.c      **** 	isr_2_StartEx(FIFO_EMPTY);
 774              		.loc 1 273 0
 775 0060 1348     		ldr	r0, .L45+8
 776 0062 FFF7FEFF 		bl	isr_2_StartEx
 777              	.LVL2:
 274:.\main.c      **** 	
 275:.\main.c      **** 	/* Enable interrupts */
 276:.\main.c      **** 	CyGlobalIntEnable;
 778              		.loc 1 276 0
 779              	@ 276 ".\main.c" 1
 780 0066 62B6     		CPSIE   i
 781              	@ 0 "" 2
 782              	.LVL3:
 783              		.code	16
 784 0068 124D     		ldr	r5, .L45+12
 277:.\main.c      **** 
 278:.\main.c      **** 	for(;;)
 279:.\main.c      ****     { 	
 280:.\main.c      **** 
 281:.\main.c      **** 		
 282:.\main.c      **** 
 283:.\main.c      **** 		//DrawPixel(0, 15, c, matrix);
 284:.\main.c      **** 		//DrawPixel(31, 0, c, matrix);
 285:.\main.c      **** 		for(i=0;i<8;i++)
 785              		.loc 1 285 0
ARM GAS  C:\Users\Steve\AppData\Local\Temp\cc9TlorX.s 			page 22


 786 006a 0727     		mov	r7, #7
 787 006c B846     		mov	r8, r7
 788 006e 0024     		mov	r4, #0
 789 0070 A946     		mov	r9, r5
 790 0072 0027     		mov	r7, #0
 791              	.LVL4:
 792              	.L44:
 286:.\main.c      **** 		{
 287:.\main.c      **** 			drawblock(i,height[i],lotsOfColors[i],matrix);
 793              		.loc 1 287 0 discriminator 2
 794 0074 6200     		lsl	r2, r4, #1
 795 0076 4B46     		mov	r3, r9
 796 0078 1957     		ldrsb	r1, [r3, r4]
 797 007a 1519     		add	r5, r2, r4
 798 007c 6B46     		mov	r3, sp
 799 007e 00AA     		add	r2, sp, #0
 800 0080 5B5D     		ldrb	r3, [r3, r5]
 801 0082 5519     		add	r5, r2, r5
 802 0084 6A78     		ldrb	r2, [r5, #1]
 803 0086 60B2     		sxtb	r0, r4
 804 0088 1202     		lsl	r2, r2, #8
 805 008a 1A43     		orr	r2, r3
 806 008c AB78     		ldrb	r3, [r5, #2]
 807 008e 1D04     		lsl	r5, r3, #16
 808 0090 2A43     		orr	r2, r5
 809 0092 331C     		mov	r3, r6
 810 0094 FFF7FEFF 		bl	drawblock
 811              	.LVL5:
 285:.\main.c      **** 		for(i=0;i<8;i++)
 812              		.loc 1 285 0 discriminator 2
 813 0098 601C     		add	r0, r4, #1
 814              	.LVL6:
 815 009a C40F     		lsr	r4, r0, #31
 816              	.LVL7:
 817 009c 4146     		mov	r1, r8
 818 009e 8142     		cmp	r1, r0
 819 00a0 7C41     		adc	r4, r4, r7
 820 00a2 6442     		neg	r4, r4
 821 00a4 0440     		and	r4, r0
 822 00a6 E5E7     		b	.L44
 823              	.L46:
 824              		.align	2
 825              	.L45:
 826 00a8 00000000 		.word	matrix
 827 00ac 71000F40 		.word	1074724977
 828 00b0 00000000 		.word	FIFO_EMPTY
 829 00b4 00000000 		.word	.LANCHOR1
 830              		.cfi_endproc
 831              	.LFE36:
 832              		.size	main, .-main
 833              		.global	w
 834              		.global	oldResult
 835              		.global	result
 836              		.global	dataReady
 837              		.global	PB
 838              		.global	height
 839              		.comm	matrix,960,4
ARM GAS  C:\Users\Steve\AppData\Local\Temp\cc9TlorX.s 			page 23


 840              		.comm	bit_shift,1,1
 841              		.global	pwm_count
 842              		.global	j
 843              		.data
 844              		.align	2
 845              		.set	.LANCHOR1,. + 0
 846              		.type	height, %object
 847              		.size	height, 8
 848              	height:
 849 0000 00       		.byte	0
 850 0001 02       		.byte	2
 851 0002 04       		.byte	4
 852 0003 06       		.byte	6
 853 0004 08       		.byte	8
 854 0005 0A       		.byte	10
 855 0006 0C       		.byte	12
 856 0007 0E       		.byte	14
 857              		.bss
 858              		.align	2
 859              		.set	.LANCHOR0,. + 0
 860              		.type	pwm_count, %object
 861              		.size	pwm_count, 1
 862              	pwm_count:
 863 0000 00       		.space	1
 864              		.type	j, %object
 865              		.size	j, 1
 866              	j:
 867 0001 00       		.space	1
 868 0002 0000     		.space	2
 869              		.type	PB, %object
 870              		.size	PB, 4
 871              	PB:
 872 0004 00000000 		.space	4
 873              		.type	result, %object
 874              		.size	result, 16
 875              	result:
 876 0008 00000000 		.space	16
 876      00000000 
 876      00000000 
 876      00000000 
 877              		.type	w, %object
 878              		.size	w, 4
 879              	w:
 880 0018 00000000 		.space	4
 881              		.type	dataReady, %object
 882              		.size	dataReady, 1
 883              	dataReady:
 884 001c 00       		.space	1
 885 001d 000000   		.space	3
 886              		.type	oldResult, %object
 887              		.size	oldResult, 16
 888              	oldResult:
 889 0020 00000000 		.space	16
 889      00000000 
 889      00000000 
 889      00000000 
 890              		.text
ARM GAS  C:\Users\Steve\AppData\Local\Temp\cc9TlorX.s 			page 24


 891              	.Letext0:
 892              		.file 2 "./Generated_Source/PSoC4/cytypes.h"
 893              		.file 3 "./LED_Matrix.h"
 894              		.file 4 "./Generated_Source/PSoC4/isr_2.h"
 895              		.file 5 "./Generated_Source/PSoC4/LED_Matrix_1.h"
 896              		.section	.debug_info,"",%progbits
 897              	.Ldebug_info0:
 898 0000 83030000 		.4byte	0x383
 899 0004 0200     		.2byte	0x2
 900 0006 00000000 		.4byte	.Ldebug_abbrev0
 901 000a 04       		.byte	0x4
 902 000b 01       		.uleb128 0x1
 903 000c 69010000 		.4byte	.LASF37
 904 0010 01       		.byte	0x1
 905 0011 B5000000 		.4byte	.LASF38
 906 0015 B2010000 		.4byte	.LASF39
 907 0019 00000000 		.4byte	.Ldebug_ranges0+0
 908 001d 00000000 		.4byte	0
 909 0021 00000000 		.4byte	0
 910 0025 00000000 		.4byte	.Ldebug_line0
 911 0029 02       		.uleb128 0x2
 912 002a 01       		.byte	0x1
 913 002b 06       		.byte	0x6
 914 002c F6010000 		.4byte	.LASF0
 915 0030 02       		.uleb128 0x2
 916 0031 01       		.byte	0x1
 917 0032 08       		.byte	0x8
 918 0033 51000000 		.4byte	.LASF1
 919 0037 02       		.uleb128 0x2
 920 0038 02       		.byte	0x2
 921 0039 05       		.byte	0x5
 922 003a 26000000 		.4byte	.LASF2
 923 003e 02       		.uleb128 0x2
 924 003f 02       		.byte	0x2
 925 0040 07       		.byte	0x7
 926 0041 13000000 		.4byte	.LASF3
 927 0045 02       		.uleb128 0x2
 928 0046 04       		.byte	0x4
 929 0047 05       		.byte	0x5
 930 0048 ED010000 		.4byte	.LASF4
 931 004c 02       		.uleb128 0x2
 932 004d 04       		.byte	0x4
 933 004e 07       		.byte	0x7
 934 004f 72000000 		.4byte	.LASF5
 935 0053 02       		.uleb128 0x2
 936 0054 08       		.byte	0x8
 937 0055 05       		.byte	0x5
 938 0056 3A010000 		.4byte	.LASF6
 939 005a 02       		.uleb128 0x2
 940 005b 08       		.byte	0x8
 941 005c 07       		.byte	0x7
 942 005d FD000000 		.4byte	.LASF7
 943 0061 03       		.uleb128 0x3
 944 0062 04       		.byte	0x4
 945 0063 05       		.byte	0x5
 946 0064 696E7400 		.ascii	"int\000"
 947 0068 02       		.uleb128 0x2
ARM GAS  C:\Users\Steve\AppData\Local\Temp\cc9TlorX.s 			page 25


 948 0069 04       		.byte	0x4
 949 006a 07       		.byte	0x7
 950 006b E6000000 		.4byte	.LASF8
 951 006f 04       		.uleb128 0x4
 952 0070 84000000 		.4byte	.LASF9
 953 0074 02       		.byte	0x2
 954 0075 5B       		.byte	0x5b
 955 0076 30000000 		.4byte	0x30
 956 007a 04       		.uleb128 0x4
 957 007b C4000000 		.4byte	.LASF10
 958 007f 02       		.byte	0x2
 959 0080 5C       		.byte	0x5c
 960 0081 3E000000 		.4byte	0x3e
 961 0085 04       		.uleb128 0x4
 962 0086 D0000000 		.4byte	.LASF11
 963 008a 02       		.byte	0x2
 964 008b 5D       		.byte	0x5d
 965 008c 4C000000 		.4byte	0x4c
 966 0090 04       		.uleb128 0x4
 967 0091 CB000000 		.4byte	.LASF12
 968 0095 02       		.byte	0x2
 969 0096 5E       		.byte	0x5e
 970 0097 29000000 		.4byte	0x29
 971 009b 04       		.uleb128 0x4
 972 009c 14010000 		.4byte	.LASF13
 973 00a0 02       		.byte	0x2
 974 00a1 5F       		.byte	0x5f
 975 00a2 37000000 		.4byte	0x37
 976 00a6 02       		.uleb128 0x2
 977 00a7 04       		.byte	0x4
 978 00a8 04       		.byte	0x4
 979 00a9 4B000000 		.4byte	.LASF14
 980 00ad 02       		.uleb128 0x2
 981 00ae 08       		.byte	0x8
 982 00af 04       		.byte	0x4
 983 00b0 A7000000 		.4byte	.LASF15
 984 00b4 02       		.uleb128 0x2
 985 00b5 01       		.byte	0x1
 986 00b6 08       		.byte	0x8
 987 00b7 48010000 		.4byte	.LASF16
 988 00bb 04       		.uleb128 0x4
 989 00bc 6D000000 		.4byte	.LASF17
 990 00c0 02       		.byte	0x2
 991 00c1 F0       		.byte	0xf0
 992 00c2 C6000000 		.4byte	0xc6
 993 00c6 05       		.uleb128 0x5
 994 00c7 6F000000 		.4byte	0x6f
 995 00cb 04       		.uleb128 0x4
 996 00cc 00000000 		.4byte	.LASF18
 997 00d0 02       		.byte	0x2
 998 00d1 F2       		.byte	0xf2
 999 00d2 D6000000 		.4byte	0xd6
 1000 00d6 05       		.uleb128 0x5
 1001 00d7 85000000 		.4byte	0x85
 1002 00db 06       		.uleb128 0x6
 1003 00dc 1A010000 		.4byte	.LASF19
 1004 00e0 02       		.byte	0x2
ARM GAS  C:\Users\Steve\AppData\Local\Temp\cc9TlorX.s 			page 26


 1005 00e1 0201     		.2byte	0x102
 1006 00e3 E7000000 		.4byte	0xe7
 1007 00e7 07       		.uleb128 0x7
 1008 00e8 04       		.byte	0x4
 1009 00e9 ED000000 		.4byte	0xed
 1010 00ed 08       		.uleb128 0x8
 1011 00ee 01       		.byte	0x1
 1012 00ef 02       		.uleb128 0x2
 1013 00f0 04       		.byte	0x4
 1014 00f1 07       		.byte	0x7
 1015 00f2 31010000 		.4byte	.LASF20
 1016 00f6 09       		.uleb128 0x9
 1017 00f7 0F       		.byte	0xf
 1018 00f8 03       		.byte	0x3
 1019 00f9 26       		.byte	0x26
 1020 00fa 23010000 		.4byte	0x123
 1021 00fe 0A       		.uleb128 0xa
 1022 00ff 7200     		.ascii	"r\000"
 1023 0101 03       		.byte	0x3
 1024 0102 28       		.byte	0x28
 1025 0103 23010000 		.4byte	0x123
 1026 0107 02       		.byte	0x2
 1027 0108 23       		.byte	0x23
 1028 0109 00       		.uleb128 0
 1029 010a 0A       		.uleb128 0xa
 1030 010b 6700     		.ascii	"g\000"
 1031 010d 03       		.byte	0x3
 1032 010e 29       		.byte	0x29
 1033 010f 23010000 		.4byte	0x123
 1034 0113 02       		.byte	0x2
 1035 0114 23       		.byte	0x23
 1036 0115 05       		.uleb128 0x5
 1037 0116 0A       		.uleb128 0xa
 1038 0117 6200     		.ascii	"b\000"
 1039 0119 03       		.byte	0x3
 1040 011a 2A       		.byte	0x2a
 1041 011b 23010000 		.4byte	0x123
 1042 011f 02       		.byte	0x2
 1043 0120 23       		.byte	0x23
 1044 0121 0A       		.uleb128 0xa
 1045 0122 00       		.byte	0
 1046 0123 0B       		.uleb128 0xb
 1047 0124 6F000000 		.4byte	0x6f
 1048 0128 33010000 		.4byte	0x133
 1049 012c 0C       		.uleb128 0xc
 1050 012d EF000000 		.4byte	0xef
 1051 0131 04       		.byte	0x4
 1052 0132 00       		.byte	0
 1053 0133 04       		.uleb128 0x4
 1054 0134 BE000000 		.4byte	.LASF21
 1055 0138 03       		.byte	0x3
 1056 0139 2B       		.byte	0x2b
 1057 013a F6000000 		.4byte	0xf6
 1058 013e 09       		.uleb128 0x9
 1059 013f 03       		.byte	0x3
 1060 0140 03       		.byte	0x3
 1061 0141 2E       		.byte	0x2e
ARM GAS  C:\Users\Steve\AppData\Local\Temp\cc9TlorX.s 			page 27


 1062 0142 6B010000 		.4byte	0x16b
 1063 0146 0A       		.uleb128 0xa
 1064 0147 7200     		.ascii	"r\000"
 1065 0149 03       		.byte	0x3
 1066 014a 30       		.byte	0x30
 1067 014b 6F000000 		.4byte	0x6f
 1068 014f 02       		.byte	0x2
 1069 0150 23       		.byte	0x23
 1070 0151 00       		.uleb128 0
 1071 0152 0A       		.uleb128 0xa
 1072 0153 6700     		.ascii	"g\000"
 1073 0155 03       		.byte	0x3
 1074 0156 31       		.byte	0x31
 1075 0157 6F000000 		.4byte	0x6f
 1076 015b 02       		.byte	0x2
 1077 015c 23       		.byte	0x23
 1078 015d 01       		.uleb128 0x1
 1079 015e 0A       		.uleb128 0xa
 1080 015f 6200     		.ascii	"b\000"
 1081 0161 03       		.byte	0x3
 1082 0162 32       		.byte	0x32
 1083 0163 6F000000 		.4byte	0x6f
 1084 0167 02       		.byte	0x2
 1085 0168 23       		.byte	0x23
 1086 0169 02       		.uleb128 0x2
 1087 016a 00       		.byte	0
 1088 016b 0D       		.uleb128 0xd
 1089 016c 52474200 		.ascii	"RGB\000"
 1090 0170 03       		.byte	0x3
 1091 0171 33       		.byte	0x33
 1092 0172 3E010000 		.4byte	0x13e
 1093 0176 0E       		.uleb128 0xe
 1094 0177 01       		.byte	0x1
 1095 0178 5E010000 		.4byte	.LASF22
 1096 017c 01       		.byte	0x1
 1097 017d 53       		.byte	0x53
 1098 017e 01       		.byte	0x1
 1099 017f 00000000 		.4byte	.LFB34
 1100 0183 18020000 		.4byte	.LFE34
 1101 0187 00000000 		.4byte	.LLST0
 1102 018b 01       		.byte	0x1
 1103 018c 0E       		.uleb128 0xe
 1104 018d 01       		.byte	0x1
 1105 018e AE000000 		.4byte	.LASF23
 1106 0192 01       		.byte	0x1
 1107 0193 47       		.byte	0x47
 1108 0194 01       		.byte	0x1
 1109 0195 00000000 		.4byte	.LFB33
 1110 0199 1C000000 		.4byte	.LFE33
 1111 019d 39000000 		.4byte	.LLST1
 1112 01a1 01       		.byte	0x1
 1113 01a2 0E       		.uleb128 0xe
 1114 01a3 01       		.byte	0x1
 1115 01a4 43000000 		.4byte	.LASF24
 1116 01a8 01       		.byte	0x1
 1117 01a9 BF       		.byte	0xbf
 1118 01aa 01       		.byte	0x1
ARM GAS  C:\Users\Steve\AppData\Local\Temp\cc9TlorX.s 			page 28


 1119 01ab 00000000 		.4byte	.LFB35
 1120 01af 04010000 		.4byte	.LFE35
 1121 01b3 59000000 		.4byte	.LLST2
 1122 01b7 01       		.byte	0x1
 1123 01b8 0F       		.uleb128 0xf
 1124 01b9 01       		.byte	0x1
 1125 01ba D7000000 		.4byte	.LASF40
 1126 01be 01       		.byte	0x1
 1127 01bf E4       		.byte	0xe4
 1128 01c0 61000000 		.4byte	0x61
 1129 01c4 00000000 		.4byte	.LFB36
 1130 01c8 B8000000 		.4byte	.LFE36
 1131 01cc 79000000 		.4byte	.LLST3
 1132 01d0 01       		.byte	0x1
 1133 01d1 3B020000 		.4byte	0x23b
 1134 01d5 10       		.uleb128 0x10
 1135 01d6 6900     		.ascii	"i\000"
 1136 01d8 01       		.byte	0x1
 1137 01d9 E6       		.byte	0xe6
 1138 01da 61000000 		.4byte	0x61
 1139 01de B1000000 		.4byte	.LLST4
 1140 01e2 11       		.uleb128 0x11
 1141 01e3 06000000 		.4byte	.LASF25
 1142 01e7 01       		.byte	0x1
 1143 01e8 E8       		.byte	0xe8
 1144 01e9 3B020000 		.4byte	0x23b
 1145 01ed 02       		.byte	0x2
 1146 01ee 91       		.byte	0x91
 1147 01ef 48       		.sleb128 -56
 1148 01f0 12       		.uleb128 0x12
 1149 01f1 56000000 		.4byte	.LVL0
 1150 01f5 2A030000 		.4byte	0x32a
 1151 01f9 04020000 		.4byte	0x204
 1152 01fd 13       		.uleb128 0x13
 1153 01fe 01       		.byte	0x1
 1154 01ff 50       		.byte	0x50
 1155 0200 02       		.byte	0x2
 1156 0201 76       		.byte	0x76
 1157 0202 00       		.sleb128 0
 1158 0203 00       		.byte	0
 1159 0204 14       		.uleb128 0x14
 1160 0205 5A000000 		.4byte	.LVL1
 1161 0209 44030000 		.4byte	0x344
 1162 020d 12       		.uleb128 0x12
 1163 020e 66000000 		.4byte	.LVL2
 1164 0212 53030000 		.4byte	0x353
 1165 0216 24020000 		.4byte	0x224
 1166 021a 13       		.uleb128 0x13
 1167 021b 01       		.byte	0x1
 1168 021c 50       		.byte	0x50
 1169 021d 05       		.byte	0x5
 1170 021e 03       		.byte	0x3
 1171 021f 00000000 		.4byte	FIFO_EMPTY
 1172 0223 00       		.byte	0
 1173 0224 15       		.uleb128 0x15
 1174 0225 98000000 		.4byte	.LVL5
 1175 0229 67030000 		.4byte	0x367
ARM GAS  C:\Users\Steve\AppData\Local\Temp\cc9TlorX.s 			page 29


 1176 022d 13       		.uleb128 0x13
 1177 022e 01       		.byte	0x1
 1178 022f 53       		.byte	0x53
 1179 0230 02       		.byte	0x2
 1180 0231 76       		.byte	0x76
 1181 0232 00       		.sleb128 0
 1182 0233 13       		.uleb128 0x13
 1183 0234 01       		.byte	0x1
 1184 0235 50       		.byte	0x50
 1185 0236 02       		.byte	0x2
 1186 0237 74       		.byte	0x74
 1187 0238 00       		.sleb128 0
 1188 0239 00       		.byte	0
 1189 023a 00       		.byte	0
 1190 023b 0B       		.uleb128 0xb
 1191 023c 6B010000 		.4byte	0x16b
 1192 0240 4B020000 		.4byte	0x24b
 1193 0244 0C       		.uleb128 0xc
 1194 0245 EF000000 		.4byte	0xef
 1195 0249 07       		.byte	0x7
 1196 024a 00       		.byte	0
 1197 024b 0B       		.uleb128 0xb
 1198 024c 33010000 		.4byte	0x133
 1199 0250 5B020000 		.4byte	0x25b
 1200 0254 0C       		.uleb128 0xc
 1201 0255 EF000000 		.4byte	0xef
 1202 0259 3F       		.byte	0x3f
 1203 025a 00       		.byte	0
 1204 025b 16       		.uleb128 0x16
 1205 025c 4D010000 		.4byte	.LASF26
 1206 0260 01       		.byte	0x1
 1207 0261 30       		.byte	0x30
 1208 0262 4B020000 		.4byte	0x24b
 1209 0266 01       		.byte	0x1
 1210 0267 05       		.byte	0x5
 1211 0268 03       		.byte	0x3
 1212 0269 00000000 		.4byte	matrix
 1213 026d 17       		.uleb128 0x17
 1214 026e 6A00     		.ascii	"j\000"
 1215 0270 01       		.byte	0x1
 1216 0271 2C       		.byte	0x2c
 1217 0272 6F000000 		.4byte	0x6f
 1218 0276 01       		.byte	0x1
 1219 0277 05       		.byte	0x5
 1220 0278 03       		.byte	0x3
 1221 0279 00000000 		.4byte	j
 1222 027d 16       		.uleb128 0x16
 1223 027e DC000000 		.4byte	.LASF27
 1224 0282 01       		.byte	0x1
 1225 0283 2C       		.byte	0x2c
 1226 0284 6F000000 		.4byte	0x6f
 1227 0288 01       		.byte	0x1
 1228 0289 05       		.byte	0x5
 1229 028a 03       		.byte	0x3
 1230 028b 00000000 		.4byte	pwm_count
 1231 028f 16       		.uleb128 0x16
 1232 0290 96000000 		.4byte	.LASF28
ARM GAS  C:\Users\Steve\AppData\Local\Temp\cc9TlorX.s 			page 30


 1233 0294 01       		.byte	0x1
 1234 0295 2E       		.byte	0x2e
 1235 0296 6F000000 		.4byte	0x6f
 1236 029a 01       		.byte	0x1
 1237 029b 05       		.byte	0x5
 1238 029c 03       		.byte	0x3
 1239 029d 00000000 		.4byte	bit_shift
 1240 02a1 0B       		.uleb128 0xb
 1241 02a2 90000000 		.4byte	0x90
 1242 02a6 B1020000 		.4byte	0x2b1
 1243 02aa 0C       		.uleb128 0xc
 1244 02ab EF000000 		.4byte	0xef
 1245 02af 07       		.byte	0x7
 1246 02b0 00       		.byte	0
 1247 02b1 16       		.uleb128 0x16
 1248 02b2 A0000000 		.4byte	.LASF29
 1249 02b6 01       		.byte	0x1
 1250 02b7 32       		.byte	0x32
 1251 02b8 A1020000 		.4byte	0x2a1
 1252 02bc 01       		.byte	0x1
 1253 02bd 05       		.byte	0x5
 1254 02be 03       		.byte	0x3
 1255 02bf 00000000 		.4byte	height
 1256 02c3 17       		.uleb128 0x17
 1257 02c4 504200   		.ascii	"PB\000"
 1258 02c7 01       		.byte	0x1
 1259 02c8 46       		.byte	0x46
 1260 02c9 61000000 		.4byte	0x61
 1261 02cd 01       		.byte	0x1
 1262 02ce 05       		.byte	0x5
 1263 02cf 03       		.byte	0x3
 1264 02d0 00000000 		.4byte	PB
 1265 02d4 16       		.uleb128 0x16
 1266 02d5 54010000 		.4byte	.LASF30
 1267 02d9 01       		.byte	0x1
 1268 02da BB       		.byte	0xbb
 1269 02db 6F000000 		.4byte	0x6f
 1270 02df 01       		.byte	0x1
 1271 02e0 05       		.byte	0x5
 1272 02e1 03       		.byte	0x3
 1273 02e2 00000000 		.4byte	dataReady
 1274 02e6 0B       		.uleb128 0xb
 1275 02e7 9B000000 		.4byte	0x9b
 1276 02eb F6020000 		.4byte	0x2f6
 1277 02ef 0C       		.uleb128 0xc
 1278 02f0 EF000000 		.4byte	0xef
 1279 02f4 07       		.byte	0x7
 1280 02f5 00       		.byte	0
 1281 02f6 16       		.uleb128 0x16
 1282 02f7 02020000 		.4byte	.LASF31
 1283 02fb 01       		.byte	0x1
 1284 02fc BC       		.byte	0xbc
 1285 02fd E6020000 		.4byte	0x2e6
 1286 0301 01       		.byte	0x1
 1287 0302 05       		.byte	0x5
 1288 0303 03       		.byte	0x3
 1289 0304 00000000 		.4byte	result
ARM GAS  C:\Users\Steve\AppData\Local\Temp\cc9TlorX.s 			page 31


 1290 0308 16       		.uleb128 0x16
 1291 0309 27010000 		.4byte	.LASF32
 1292 030d 01       		.byte	0x1
 1293 030e BD       		.byte	0xbd
 1294 030f E6020000 		.4byte	0x2e6
 1295 0313 01       		.byte	0x1
 1296 0314 05       		.byte	0x5
 1297 0315 03       		.byte	0x3
 1298 0316 00000000 		.4byte	oldResult
 1299 031a 17       		.uleb128 0x17
 1300 031b 7700     		.ascii	"w\000"
 1301 031d 01       		.byte	0x1
 1302 031e BE       		.byte	0xbe
 1303 031f 61000000 		.4byte	0x61
 1304 0323 01       		.byte	0x1
 1305 0324 05       		.byte	0x5
 1306 0325 03       		.byte	0x3
 1307 0326 00000000 		.4byte	w
 1308 032a 18       		.uleb128 0x18
 1309 032b 01       		.byte	0x1
 1310 032c 8A000000 		.4byte	.LASF33
 1311 0330 03       		.byte	0x3
 1312 0331 3F       		.byte	0x3f
 1313 0332 01       		.byte	0x1
 1314 0333 01       		.byte	0x1
 1315 0334 3E030000 		.4byte	0x33e
 1316 0338 19       		.uleb128 0x19
 1317 0339 3E030000 		.4byte	0x33e
 1318 033d 00       		.byte	0
 1319 033e 07       		.uleb128 0x7
 1320 033f 04       		.byte	0x4
 1321 0340 33010000 		.4byte	0x133
 1322 0344 1A       		.uleb128 0x1a
 1323 0345 01       		.byte	0x1
 1324 0346 30000000 		.4byte	.LASF35
 1325 034a 05       		.byte	0x5
 1326 034b 4E       		.byte	0x4e
 1327 034c 01       		.byte	0x1
 1328 034d 53030000 		.4byte	0x353
 1329 0351 1B       		.uleb128 0x1b
 1330 0352 00       		.byte	0
 1331 0353 18       		.uleb128 0x18
 1332 0354 01       		.byte	0x1
 1333 0355 5F000000 		.4byte	.LASF34
 1334 0359 04       		.byte	0x4
 1335 035a 18       		.byte	0x18
 1336 035b 01       		.byte	0x1
 1337 035c 01       		.byte	0x1
 1338 035d 67030000 		.4byte	0x367
 1339 0361 19       		.uleb128 0x19
 1340 0362 DB000000 		.4byte	0xdb
 1341 0366 00       		.byte	0
 1342 0367 1C       		.uleb128 0x1c
 1343 0368 01       		.byte	0x1
 1344 0369 F3000000 		.4byte	.LASF36
 1345 036d 03       		.byte	0x3
 1346 036e 5C       		.byte	0x5c
ARM GAS  C:\Users\Steve\AppData\Local\Temp\cc9TlorX.s 			page 32


 1347 036f 01       		.byte	0x1
 1348 0370 01       		.byte	0x1
 1349 0371 19       		.uleb128 0x19
 1350 0372 90000000 		.4byte	0x90
 1351 0376 19       		.uleb128 0x19
 1352 0377 90000000 		.4byte	0x90
 1353 037b 19       		.uleb128 0x19
 1354 037c 6B010000 		.4byte	0x16b
 1355 0380 19       		.uleb128 0x19
 1356 0381 3E030000 		.4byte	0x33e
 1357 0385 00       		.byte	0
 1358 0386 00       		.byte	0
 1359              		.section	.debug_abbrev,"",%progbits
 1360              	.Ldebug_abbrev0:
 1361 0000 01       		.uleb128 0x1
 1362 0001 11       		.uleb128 0x11
 1363 0002 01       		.byte	0x1
 1364 0003 25       		.uleb128 0x25
 1365 0004 0E       		.uleb128 0xe
 1366 0005 13       		.uleb128 0x13
 1367 0006 0B       		.uleb128 0xb
 1368 0007 03       		.uleb128 0x3
 1369 0008 0E       		.uleb128 0xe
 1370 0009 1B       		.uleb128 0x1b
 1371 000a 0E       		.uleb128 0xe
 1372 000b 55       		.uleb128 0x55
 1373 000c 06       		.uleb128 0x6
 1374 000d 11       		.uleb128 0x11
 1375 000e 01       		.uleb128 0x1
 1376 000f 52       		.uleb128 0x52
 1377 0010 01       		.uleb128 0x1
 1378 0011 10       		.uleb128 0x10
 1379 0012 06       		.uleb128 0x6
 1380 0013 00       		.byte	0
 1381 0014 00       		.byte	0
 1382 0015 02       		.uleb128 0x2
 1383 0016 24       		.uleb128 0x24
 1384 0017 00       		.byte	0
 1385 0018 0B       		.uleb128 0xb
 1386 0019 0B       		.uleb128 0xb
 1387 001a 3E       		.uleb128 0x3e
 1388 001b 0B       		.uleb128 0xb
 1389 001c 03       		.uleb128 0x3
 1390 001d 0E       		.uleb128 0xe
 1391 001e 00       		.byte	0
 1392 001f 00       		.byte	0
 1393 0020 03       		.uleb128 0x3
 1394 0021 24       		.uleb128 0x24
 1395 0022 00       		.byte	0
 1396 0023 0B       		.uleb128 0xb
 1397 0024 0B       		.uleb128 0xb
 1398 0025 3E       		.uleb128 0x3e
 1399 0026 0B       		.uleb128 0xb
 1400 0027 03       		.uleb128 0x3
 1401 0028 08       		.uleb128 0x8
 1402 0029 00       		.byte	0
 1403 002a 00       		.byte	0
ARM GAS  C:\Users\Steve\AppData\Local\Temp\cc9TlorX.s 			page 33


 1404 002b 04       		.uleb128 0x4
 1405 002c 16       		.uleb128 0x16
 1406 002d 00       		.byte	0
 1407 002e 03       		.uleb128 0x3
 1408 002f 0E       		.uleb128 0xe
 1409 0030 3A       		.uleb128 0x3a
 1410 0031 0B       		.uleb128 0xb
 1411 0032 3B       		.uleb128 0x3b
 1412 0033 0B       		.uleb128 0xb
 1413 0034 49       		.uleb128 0x49
 1414 0035 13       		.uleb128 0x13
 1415 0036 00       		.byte	0
 1416 0037 00       		.byte	0
 1417 0038 05       		.uleb128 0x5
 1418 0039 35       		.uleb128 0x35
 1419 003a 00       		.byte	0
 1420 003b 49       		.uleb128 0x49
 1421 003c 13       		.uleb128 0x13
 1422 003d 00       		.byte	0
 1423 003e 00       		.byte	0
 1424 003f 06       		.uleb128 0x6
 1425 0040 16       		.uleb128 0x16
 1426 0041 00       		.byte	0
 1427 0042 03       		.uleb128 0x3
 1428 0043 0E       		.uleb128 0xe
 1429 0044 3A       		.uleb128 0x3a
 1430 0045 0B       		.uleb128 0xb
 1431 0046 3B       		.uleb128 0x3b
 1432 0047 05       		.uleb128 0x5
 1433 0048 49       		.uleb128 0x49
 1434 0049 13       		.uleb128 0x13
 1435 004a 00       		.byte	0
 1436 004b 00       		.byte	0
 1437 004c 07       		.uleb128 0x7
 1438 004d 0F       		.uleb128 0xf
 1439 004e 00       		.byte	0
 1440 004f 0B       		.uleb128 0xb
 1441 0050 0B       		.uleb128 0xb
 1442 0051 49       		.uleb128 0x49
 1443 0052 13       		.uleb128 0x13
 1444 0053 00       		.byte	0
 1445 0054 00       		.byte	0
 1446 0055 08       		.uleb128 0x8
 1447 0056 15       		.uleb128 0x15
 1448 0057 00       		.byte	0
 1449 0058 27       		.uleb128 0x27
 1450 0059 0C       		.uleb128 0xc
 1451 005a 00       		.byte	0
 1452 005b 00       		.byte	0
 1453 005c 09       		.uleb128 0x9
 1454 005d 13       		.uleb128 0x13
 1455 005e 01       		.byte	0x1
 1456 005f 0B       		.uleb128 0xb
 1457 0060 0B       		.uleb128 0xb
 1458 0061 3A       		.uleb128 0x3a
 1459 0062 0B       		.uleb128 0xb
 1460 0063 3B       		.uleb128 0x3b
ARM GAS  C:\Users\Steve\AppData\Local\Temp\cc9TlorX.s 			page 34


 1461 0064 0B       		.uleb128 0xb
 1462 0065 01       		.uleb128 0x1
 1463 0066 13       		.uleb128 0x13
 1464 0067 00       		.byte	0
 1465 0068 00       		.byte	0
 1466 0069 0A       		.uleb128 0xa
 1467 006a 0D       		.uleb128 0xd
 1468 006b 00       		.byte	0
 1469 006c 03       		.uleb128 0x3
 1470 006d 08       		.uleb128 0x8
 1471 006e 3A       		.uleb128 0x3a
 1472 006f 0B       		.uleb128 0xb
 1473 0070 3B       		.uleb128 0x3b
 1474 0071 0B       		.uleb128 0xb
 1475 0072 49       		.uleb128 0x49
 1476 0073 13       		.uleb128 0x13
 1477 0074 38       		.uleb128 0x38
 1478 0075 0A       		.uleb128 0xa
 1479 0076 00       		.byte	0
 1480 0077 00       		.byte	0
 1481 0078 0B       		.uleb128 0xb
 1482 0079 01       		.uleb128 0x1
 1483 007a 01       		.byte	0x1
 1484 007b 49       		.uleb128 0x49
 1485 007c 13       		.uleb128 0x13
 1486 007d 01       		.uleb128 0x1
 1487 007e 13       		.uleb128 0x13
 1488 007f 00       		.byte	0
 1489 0080 00       		.byte	0
 1490 0081 0C       		.uleb128 0xc
 1491 0082 21       		.uleb128 0x21
 1492 0083 00       		.byte	0
 1493 0084 49       		.uleb128 0x49
 1494 0085 13       		.uleb128 0x13
 1495 0086 2F       		.uleb128 0x2f
 1496 0087 0B       		.uleb128 0xb
 1497 0088 00       		.byte	0
 1498 0089 00       		.byte	0
 1499 008a 0D       		.uleb128 0xd
 1500 008b 16       		.uleb128 0x16
 1501 008c 00       		.byte	0
 1502 008d 03       		.uleb128 0x3
 1503 008e 08       		.uleb128 0x8
 1504 008f 3A       		.uleb128 0x3a
 1505 0090 0B       		.uleb128 0xb
 1506 0091 3B       		.uleb128 0x3b
 1507 0092 0B       		.uleb128 0xb
 1508 0093 49       		.uleb128 0x49
 1509 0094 13       		.uleb128 0x13
 1510 0095 00       		.byte	0
 1511 0096 00       		.byte	0
 1512 0097 0E       		.uleb128 0xe
 1513 0098 2E       		.uleb128 0x2e
 1514 0099 00       		.byte	0
 1515 009a 3F       		.uleb128 0x3f
 1516 009b 0C       		.uleb128 0xc
 1517 009c 03       		.uleb128 0x3
ARM GAS  C:\Users\Steve\AppData\Local\Temp\cc9TlorX.s 			page 35


 1518 009d 0E       		.uleb128 0xe
 1519 009e 3A       		.uleb128 0x3a
 1520 009f 0B       		.uleb128 0xb
 1521 00a0 3B       		.uleb128 0x3b
 1522 00a1 0B       		.uleb128 0xb
 1523 00a2 27       		.uleb128 0x27
 1524 00a3 0C       		.uleb128 0xc
 1525 00a4 11       		.uleb128 0x11
 1526 00a5 01       		.uleb128 0x1
 1527 00a6 12       		.uleb128 0x12
 1528 00a7 01       		.uleb128 0x1
 1529 00a8 40       		.uleb128 0x40
 1530 00a9 06       		.uleb128 0x6
 1531 00aa 9742     		.uleb128 0x2117
 1532 00ac 0C       		.uleb128 0xc
 1533 00ad 00       		.byte	0
 1534 00ae 00       		.byte	0
 1535 00af 0F       		.uleb128 0xf
 1536 00b0 2E       		.uleb128 0x2e
 1537 00b1 01       		.byte	0x1
 1538 00b2 3F       		.uleb128 0x3f
 1539 00b3 0C       		.uleb128 0xc
 1540 00b4 03       		.uleb128 0x3
 1541 00b5 0E       		.uleb128 0xe
 1542 00b6 3A       		.uleb128 0x3a
 1543 00b7 0B       		.uleb128 0xb
 1544 00b8 3B       		.uleb128 0x3b
 1545 00b9 0B       		.uleb128 0xb
 1546 00ba 49       		.uleb128 0x49
 1547 00bb 13       		.uleb128 0x13
 1548 00bc 11       		.uleb128 0x11
 1549 00bd 01       		.uleb128 0x1
 1550 00be 12       		.uleb128 0x12
 1551 00bf 01       		.uleb128 0x1
 1552 00c0 40       		.uleb128 0x40
 1553 00c1 06       		.uleb128 0x6
 1554 00c2 9742     		.uleb128 0x2117
 1555 00c4 0C       		.uleb128 0xc
 1556 00c5 01       		.uleb128 0x1
 1557 00c6 13       		.uleb128 0x13
 1558 00c7 00       		.byte	0
 1559 00c8 00       		.byte	0
 1560 00c9 10       		.uleb128 0x10
 1561 00ca 34       		.uleb128 0x34
 1562 00cb 00       		.byte	0
 1563 00cc 03       		.uleb128 0x3
 1564 00cd 08       		.uleb128 0x8
 1565 00ce 3A       		.uleb128 0x3a
 1566 00cf 0B       		.uleb128 0xb
 1567 00d0 3B       		.uleb128 0x3b
 1568 00d1 0B       		.uleb128 0xb
 1569 00d2 49       		.uleb128 0x49
 1570 00d3 13       		.uleb128 0x13
 1571 00d4 02       		.uleb128 0x2
 1572 00d5 06       		.uleb128 0x6
 1573 00d6 00       		.byte	0
 1574 00d7 00       		.byte	0
ARM GAS  C:\Users\Steve\AppData\Local\Temp\cc9TlorX.s 			page 36


 1575 00d8 11       		.uleb128 0x11
 1576 00d9 34       		.uleb128 0x34
 1577 00da 00       		.byte	0
 1578 00db 03       		.uleb128 0x3
 1579 00dc 0E       		.uleb128 0xe
 1580 00dd 3A       		.uleb128 0x3a
 1581 00de 0B       		.uleb128 0xb
 1582 00df 3B       		.uleb128 0x3b
 1583 00e0 0B       		.uleb128 0xb
 1584 00e1 49       		.uleb128 0x49
 1585 00e2 13       		.uleb128 0x13
 1586 00e3 02       		.uleb128 0x2
 1587 00e4 0A       		.uleb128 0xa
 1588 00e5 00       		.byte	0
 1589 00e6 00       		.byte	0
 1590 00e7 12       		.uleb128 0x12
 1591 00e8 898201   		.uleb128 0x4109
 1592 00eb 01       		.byte	0x1
 1593 00ec 11       		.uleb128 0x11
 1594 00ed 01       		.uleb128 0x1
 1595 00ee 31       		.uleb128 0x31
 1596 00ef 13       		.uleb128 0x13
 1597 00f0 01       		.uleb128 0x1
 1598 00f1 13       		.uleb128 0x13
 1599 00f2 00       		.byte	0
 1600 00f3 00       		.byte	0
 1601 00f4 13       		.uleb128 0x13
 1602 00f5 8A8201   		.uleb128 0x410a
 1603 00f8 00       		.byte	0
 1604 00f9 02       		.uleb128 0x2
 1605 00fa 0A       		.uleb128 0xa
 1606 00fb 9142     		.uleb128 0x2111
 1607 00fd 0A       		.uleb128 0xa
 1608 00fe 00       		.byte	0
 1609 00ff 00       		.byte	0
 1610 0100 14       		.uleb128 0x14
 1611 0101 898201   		.uleb128 0x4109
 1612 0104 00       		.byte	0
 1613 0105 11       		.uleb128 0x11
 1614 0106 01       		.uleb128 0x1
 1615 0107 31       		.uleb128 0x31
 1616 0108 13       		.uleb128 0x13
 1617 0109 00       		.byte	0
 1618 010a 00       		.byte	0
 1619 010b 15       		.uleb128 0x15
 1620 010c 898201   		.uleb128 0x4109
 1621 010f 01       		.byte	0x1
 1622 0110 11       		.uleb128 0x11
 1623 0111 01       		.uleb128 0x1
 1624 0112 31       		.uleb128 0x31
 1625 0113 13       		.uleb128 0x13
 1626 0114 00       		.byte	0
 1627 0115 00       		.byte	0
 1628 0116 16       		.uleb128 0x16
 1629 0117 34       		.uleb128 0x34
 1630 0118 00       		.byte	0
 1631 0119 03       		.uleb128 0x3
ARM GAS  C:\Users\Steve\AppData\Local\Temp\cc9TlorX.s 			page 37


 1632 011a 0E       		.uleb128 0xe
 1633 011b 3A       		.uleb128 0x3a
 1634 011c 0B       		.uleb128 0xb
 1635 011d 3B       		.uleb128 0x3b
 1636 011e 0B       		.uleb128 0xb
 1637 011f 49       		.uleb128 0x49
 1638 0120 13       		.uleb128 0x13
 1639 0121 3F       		.uleb128 0x3f
 1640 0122 0C       		.uleb128 0xc
 1641 0123 02       		.uleb128 0x2
 1642 0124 0A       		.uleb128 0xa
 1643 0125 00       		.byte	0
 1644 0126 00       		.byte	0
 1645 0127 17       		.uleb128 0x17
 1646 0128 34       		.uleb128 0x34
 1647 0129 00       		.byte	0
 1648 012a 03       		.uleb128 0x3
 1649 012b 08       		.uleb128 0x8
 1650 012c 3A       		.uleb128 0x3a
 1651 012d 0B       		.uleb128 0xb
 1652 012e 3B       		.uleb128 0x3b
 1653 012f 0B       		.uleb128 0xb
 1654 0130 49       		.uleb128 0x49
 1655 0131 13       		.uleb128 0x13
 1656 0132 3F       		.uleb128 0x3f
 1657 0133 0C       		.uleb128 0xc
 1658 0134 02       		.uleb128 0x2
 1659 0135 0A       		.uleb128 0xa
 1660 0136 00       		.byte	0
 1661 0137 00       		.byte	0
 1662 0138 18       		.uleb128 0x18
 1663 0139 2E       		.uleb128 0x2e
 1664 013a 01       		.byte	0x1
 1665 013b 3F       		.uleb128 0x3f
 1666 013c 0C       		.uleb128 0xc
 1667 013d 03       		.uleb128 0x3
 1668 013e 0E       		.uleb128 0xe
 1669 013f 3A       		.uleb128 0x3a
 1670 0140 0B       		.uleb128 0xb
 1671 0141 3B       		.uleb128 0x3b
 1672 0142 0B       		.uleb128 0xb
 1673 0143 27       		.uleb128 0x27
 1674 0144 0C       		.uleb128 0xc
 1675 0145 3C       		.uleb128 0x3c
 1676 0146 0C       		.uleb128 0xc
 1677 0147 01       		.uleb128 0x1
 1678 0148 13       		.uleb128 0x13
 1679 0149 00       		.byte	0
 1680 014a 00       		.byte	0
 1681 014b 19       		.uleb128 0x19
 1682 014c 05       		.uleb128 0x5
 1683 014d 00       		.byte	0
 1684 014e 49       		.uleb128 0x49
 1685 014f 13       		.uleb128 0x13
 1686 0150 00       		.byte	0
 1687 0151 00       		.byte	0
 1688 0152 1A       		.uleb128 0x1a
ARM GAS  C:\Users\Steve\AppData\Local\Temp\cc9TlorX.s 			page 38


 1689 0153 2E       		.uleb128 0x2e
 1690 0154 01       		.byte	0x1
 1691 0155 3F       		.uleb128 0x3f
 1692 0156 0C       		.uleb128 0xc
 1693 0157 03       		.uleb128 0x3
 1694 0158 0E       		.uleb128 0xe
 1695 0159 3A       		.uleb128 0x3a
 1696 015a 0B       		.uleb128 0xb
 1697 015b 3B       		.uleb128 0x3b
 1698 015c 0B       		.uleb128 0xb
 1699 015d 3C       		.uleb128 0x3c
 1700 015e 0C       		.uleb128 0xc
 1701 015f 01       		.uleb128 0x1
 1702 0160 13       		.uleb128 0x13
 1703 0161 00       		.byte	0
 1704 0162 00       		.byte	0
 1705 0163 1B       		.uleb128 0x1b
 1706 0164 18       		.uleb128 0x18
 1707 0165 00       		.byte	0
 1708 0166 00       		.byte	0
 1709 0167 00       		.byte	0
 1710 0168 1C       		.uleb128 0x1c
 1711 0169 2E       		.uleb128 0x2e
 1712 016a 01       		.byte	0x1
 1713 016b 3F       		.uleb128 0x3f
 1714 016c 0C       		.uleb128 0xc
 1715 016d 03       		.uleb128 0x3
 1716 016e 0E       		.uleb128 0xe
 1717 016f 3A       		.uleb128 0x3a
 1718 0170 0B       		.uleb128 0xb
 1719 0171 3B       		.uleb128 0x3b
 1720 0172 0B       		.uleb128 0xb
 1721 0173 27       		.uleb128 0x27
 1722 0174 0C       		.uleb128 0xc
 1723 0175 3C       		.uleb128 0x3c
 1724 0176 0C       		.uleb128 0xc
 1725 0177 00       		.byte	0
 1726 0178 00       		.byte	0
 1727 0179 00       		.byte	0
 1728              		.section	.debug_loc,"",%progbits
 1729              	.Ldebug_loc0:
 1730              	.LLST0:
 1731 0000 00000000 		.4byte	.LFB34
 1732 0004 02000000 		.4byte	.LCFI0
 1733 0008 0200     		.2byte	0x2
 1734 000a 7D       		.byte	0x7d
 1735 000b 00       		.sleb128 0
 1736 000c 02000000 		.4byte	.LCFI0
 1737 0010 0C000000 		.4byte	.LCFI1
 1738 0014 0200     		.2byte	0x2
 1739 0016 7D       		.byte	0x7d
 1740 0017 14       		.sleb128 20
 1741 0018 0C000000 		.4byte	.LCFI1
 1742 001c 1E000000 		.4byte	.LCFI2
 1743 0020 0200     		.2byte	0x2
 1744 0022 7D       		.byte	0x7d
 1745 0023 24       		.sleb128 36
ARM GAS  C:\Users\Steve\AppData\Local\Temp\cc9TlorX.s 			page 39


 1746 0024 1E000000 		.4byte	.LCFI2
 1747 0028 18020000 		.4byte	.LFE34
 1748 002c 0300     		.2byte	0x3
 1749 002e 7D       		.byte	0x7d
 1750 002f C000     		.sleb128 64
 1751 0031 00000000 		.4byte	0
 1752 0035 00000000 		.4byte	0
 1753              	.LLST1:
 1754 0039 00000000 		.4byte	.LFB33
 1755 003d 04000000 		.4byte	.LCFI3
 1756 0041 0200     		.2byte	0x2
 1757 0043 7D       		.byte	0x7d
 1758 0044 00       		.sleb128 0
 1759 0045 04000000 		.4byte	.LCFI3
 1760 0049 1C000000 		.4byte	.LFE33
 1761 004d 0200     		.2byte	0x2
 1762 004f 7D       		.byte	0x7d
 1763 0050 04       		.sleb128 4
 1764 0051 00000000 		.4byte	0
 1765 0055 00000000 		.4byte	0
 1766              	.LLST2:
 1767 0059 00000000 		.4byte	.LFB35
 1768 005d 06000000 		.4byte	.LCFI4
 1769 0061 0200     		.2byte	0x2
 1770 0063 7D       		.byte	0x7d
 1771 0064 00       		.sleb128 0
 1772 0065 06000000 		.4byte	.LCFI4
 1773 0069 04010000 		.4byte	.LFE35
 1774 006d 0200     		.2byte	0x2
 1775 006f 7D       		.byte	0x7d
 1776 0070 10       		.sleb128 16
 1777 0071 00000000 		.4byte	0
 1778 0075 00000000 		.4byte	0
 1779              	.LLST3:
 1780 0079 00000000 		.4byte	.LFB36
 1781 007d 02000000 		.4byte	.LCFI5
 1782 0081 0200     		.2byte	0x2
 1783 0083 7D       		.byte	0x7d
 1784 0084 00       		.sleb128 0
 1785 0085 02000000 		.4byte	.LCFI5
 1786 0089 08000000 		.4byte	.LCFI6
 1787 008d 0200     		.2byte	0x2
 1788 008f 7D       		.byte	0x7d
 1789 0090 14       		.sleb128 20
 1790 0091 08000000 		.4byte	.LCFI6
 1791 0095 0A000000 		.4byte	.LCFI7
 1792 0099 0200     		.2byte	0x2
 1793 009b 7D       		.byte	0x7d
 1794 009c 1C       		.sleb128 28
 1795 009d 0A000000 		.4byte	.LCFI7
 1796 00a1 B8000000 		.4byte	.LFE36
 1797 00a5 0200     		.2byte	0x2
 1798 00a7 7D       		.byte	0x7d
 1799 00a8 38       		.sleb128 56
 1800 00a9 00000000 		.4byte	0
 1801 00ad 00000000 		.4byte	0
 1802              	.LLST4:
ARM GAS  C:\Users\Steve\AppData\Local\Temp\cc9TlorX.s 			page 40


 1803 00b1 68000000 		.4byte	.LVL3
 1804 00b5 74000000 		.4byte	.LVL4
 1805 00b9 0200     		.2byte	0x2
 1806 00bb 30       		.byte	0x30
 1807 00bc 9F       		.byte	0x9f
 1808 00bd 9A000000 		.4byte	.LVL6
 1809 00c1 9C000000 		.4byte	.LVL7
 1810 00c5 0100     		.2byte	0x1
 1811 00c7 54       		.byte	0x54
 1812 00c8 9C000000 		.4byte	.LVL7
 1813 00cc B8000000 		.4byte	.LFE36
 1814 00d0 0300     		.2byte	0x3
 1815 00d2 70       		.byte	0x70
 1816 00d3 7F       		.sleb128 -1
 1817 00d4 9F       		.byte	0x9f
 1818 00d5 00000000 		.4byte	0
 1819 00d9 00000000 		.4byte	0
 1820              		.section	.debug_aranges,"",%progbits
 1821 0000 34000000 		.4byte	0x34
 1822 0004 0200     		.2byte	0x2
 1823 0006 00000000 		.4byte	.Ldebug_info0
 1824 000a 04       		.byte	0x4
 1825 000b 00       		.byte	0
 1826 000c 0000     		.2byte	0
 1827 000e 0000     		.2byte	0
 1828 0010 00000000 		.4byte	.LFB34
 1829 0014 18020000 		.4byte	.LFE34-.LFB34
 1830 0018 00000000 		.4byte	.LFB33
 1831 001c 1C000000 		.4byte	.LFE33-.LFB33
 1832 0020 00000000 		.4byte	.LFB35
 1833 0024 04010000 		.4byte	.LFE35-.LFB35
 1834 0028 00000000 		.4byte	.LFB36
 1835 002c B8000000 		.4byte	.LFE36-.LFB36
 1836 0030 00000000 		.4byte	0
 1837 0034 00000000 		.4byte	0
 1838              		.section	.debug_ranges,"",%progbits
 1839              	.Ldebug_ranges0:
 1840 0000 00000000 		.4byte	.LFB34
 1841 0004 18020000 		.4byte	.LFE34
 1842 0008 00000000 		.4byte	.LFB33
 1843 000c 1C000000 		.4byte	.LFE33
 1844 0010 00000000 		.4byte	.LFB35
 1845 0014 04010000 		.4byte	.LFE35
 1846 0018 00000000 		.4byte	.LFB36
 1847 001c B8000000 		.4byte	.LFE36
 1848 0020 00000000 		.4byte	0
 1849 0024 00000000 		.4byte	0
 1850              		.section	.debug_line,"",%progbits
 1851              	.Ldebug_line0:
 1852 0000 CE010000 		.section	.debug_str,"MS",%progbits,1
 1852      02007400 
 1852      00000201 
 1852      FB0E0D00 
 1852      01010101 
 1853              	.LASF18:
 1854 0000 72656733 		.ascii	"reg32\000"
 1854      3200
ARM GAS  C:\Users\Steve\AppData\Local\Temp\cc9TlorX.s 			page 41


 1855              	.LASF25:
 1856 0006 6C6F7473 		.ascii	"lotsOfColors\000"
 1856      4F66436F 
 1856      6C6F7273 
 1856      00
 1857              	.LASF3:
 1858 0013 73686F72 		.ascii	"short unsigned int\000"
 1858      7420756E 
 1858      7369676E 
 1858      65642069 
 1858      6E7400
 1859              	.LASF2:
 1860 0026 73686F72 		.ascii	"short int\000"
 1860      7420696E 
 1860      7400
 1861              	.LASF35:
 1862 0030 4C45445F 		.ascii	"LED_Matrix_1_Start\000"
 1862      4D617472 
 1862      69785F31 
 1862      5F537461 
 1862      727400
 1863              	.LASF24:
 1864 0043 656F635F 		.ascii	"eoc_isr\000"
 1864      69737200 
 1865              	.LASF14:
 1866 004b 666C6F61 		.ascii	"float\000"
 1866      7400
 1867              	.LASF1:
 1868 0051 756E7369 		.ascii	"unsigned char\000"
 1868      676E6564 
 1868      20636861 
 1868      7200
 1869              	.LASF34:
 1870 005f 6973725F 		.ascii	"isr_2_StartEx\000"
 1870      325F5374 
 1870      61727445 
 1870      7800
 1871              	.LASF17:
 1872 006d 72656738 		.ascii	"reg8\000"
 1872      00
 1873              	.LASF5:
 1874 0072 6C6F6E67 		.ascii	"long unsigned int\000"
 1874      20756E73 
 1874      69676E65 
 1874      6420696E 
 1874      7400
 1875              	.LASF9:
 1876 0084 75696E74 		.ascii	"uint8\000"
 1876      3800
 1877              	.LASF33:
 1878 008a 636C6561 		.ascii	"clearScreen\000"
 1878      72536372 
 1878      65656E00 
 1879              	.LASF28:
 1880 0096 6269745F 		.ascii	"bit_shift\000"
 1880      73686966 
 1880      7400
ARM GAS  C:\Users\Steve\AppData\Local\Temp\cc9TlorX.s 			page 42


 1881              	.LASF29:
 1882 00a0 68656967 		.ascii	"height\000"
 1882      687400
 1883              	.LASF15:
 1884 00a7 646F7562 		.ascii	"double\000"
 1884      6C6500
 1885              	.LASF23:
 1886 00ae 50425F49 		.ascii	"PB_ISR\000"
 1886      535200
 1887              	.LASF38:
 1888 00b5 2E5C6D61 		.ascii	".\\main.c\000"
 1888      696E2E63 
 1888      00
 1889              	.LASF21:
 1890 00be 636F6C6F 		.ascii	"color\000"
 1890      7200
 1891              	.LASF10:
 1892 00c4 75696E74 		.ascii	"uint16\000"
 1892      313600
 1893              	.LASF12:
 1894 00cb 696E7438 		.ascii	"int8\000"
 1894      00
 1895              	.LASF11:
 1896 00d0 75696E74 		.ascii	"uint32\000"
 1896      333200
 1897              	.LASF40:
 1898 00d7 6D61696E 		.ascii	"main\000"
 1898      00
 1899              	.LASF27:
 1900 00dc 70776D5F 		.ascii	"pwm_count\000"
 1900      636F756E 
 1900      7400
 1901              	.LASF8:
 1902 00e6 756E7369 		.ascii	"unsigned int\000"
 1902      676E6564 
 1902      20696E74 
 1902      00
 1903              	.LASF36:
 1904 00f3 64726177 		.ascii	"drawblock\000"
 1904      626C6F63 
 1904      6B00
 1905              	.LASF7:
 1906 00fd 6C6F6E67 		.ascii	"long long unsigned int\000"
 1906      206C6F6E 
 1906      6720756E 
 1906      7369676E 
 1906      65642069 
 1907              	.LASF13:
 1908 0114 696E7431 		.ascii	"int16\000"
 1908      3600
 1909              	.LASF19:
 1910 011a 63796973 		.ascii	"cyisraddress\000"
 1910      72616464 
 1910      72657373 
 1910      00
 1911              	.LASF32:
 1912 0127 6F6C6452 		.ascii	"oldResult\000"
ARM GAS  C:\Users\Steve\AppData\Local\Temp\cc9TlorX.s 			page 43


 1912      6573756C 
 1912      7400
 1913              	.LASF20:
 1914 0131 73697A65 		.ascii	"sizetype\000"
 1914      74797065 
 1914      00
 1915              	.LASF6:
 1916 013a 6C6F6E67 		.ascii	"long long int\000"
 1916      206C6F6E 
 1916      6720696E 
 1916      7400
 1917              	.LASF16:
 1918 0148 63686172 		.ascii	"char\000"
 1918      00
 1919              	.LASF26:
 1920 014d 6D617472 		.ascii	"matrix\000"
 1920      697800
 1921              	.LASF30:
 1922 0154 64617461 		.ascii	"dataReady\000"
 1922      52656164 
 1922      7900
 1923              	.LASF22:
 1924 015e 4649464F 		.ascii	"FIFO_EMPTY\000"
 1924      5F454D50 
 1924      545900
 1925              	.LASF37:
 1926 0169 474E5520 		.ascii	"GNU C 4.7.3 20130312 (release) [ARM/embedded-4_7-br"
 1926      4320342E 
 1926      372E3320 
 1926      32303133 
 1926      30333132 
 1927 019c 616E6368 		.ascii	"anch revision 196615]\000"
 1927      20726576 
 1927      6973696F 
 1927      6E203139 
 1927      36363135 
 1928              	.LASF39:
 1929 01b2 433A5C55 		.ascii	"C:\\Users\\Steve\\Documents\\Git\\GlowTime\\RGB_LED"
 1929      73657273 
 1929      5C537465 
 1929      76655C44 
 1929      6F63756D 
 1930 01df 5F4D6174 		.ascii	"_Matrix.cydsn\000"
 1930      7269782E 
 1930      63796473 
 1930      6E00
 1931              	.LASF4:
 1932 01ed 6C6F6E67 		.ascii	"long int\000"
 1932      20696E74 
 1932      00
 1933              	.LASF0:
 1934 01f6 7369676E 		.ascii	"signed char\000"
 1934      65642063 
 1934      68617200 
 1935              	.LASF31:
 1936 0202 72657375 		.ascii	"result\000"
 1936      6C7400
ARM GAS  C:\Users\Steve\AppData\Local\Temp\cc9TlorX.s 			page 44


 1937              		.ident	"GCC: (GNU Tools for ARM Embedded Processors) 4.7.3 20130312 (release) [ARM/embedded-4_7-br
