ARM GAS  C:\Users\Computer\AppData\Local\Temp\ccQy7sfN.s 			page 1


   1              		.cpu cortex-m0
   2              		.fpu softvfp
   3              		.eabi_attribute 20, 1
   4              		.eabi_attribute 21, 1
   5              		.eabi_attribute 23, 3
   6              		.eabi_attribute 24, 1
   7              		.eabi_attribute 25, 1
   8              		.eabi_attribute 26, 1
   9              		.eabi_attribute 30, 2
  10              		.eabi_attribute 34, 0
  11              		.eabi_attribute 18, 4
  12              		.code	16
  13              		.file	"main.c"
  14              		.text
  15              	.Ltext0:
  16              		.cfi_sections	.debug_frame
  17              		.section	.text.PB_ISR,"ax",%progbits
  18              		.align	2
  19              		.global	PB_ISR
  20              		.code	16
  21              		.thumb_func
  22              		.type	PB_ISR, %function
  23              	PB_ISR:
  24              	.LFB33:
  25              		.file 1 ".\\main.c"
   1:.\main.c      **** #include <device.h>
   2:.\main.c      **** #include <LED_Matrix.h>
   3:.\main.c      **** #include "I2CDriver.h"
   4:.\main.c      **** 
   5:.\main.c      **** uint8 j = 0, pwm_count = 0;
   6:.\main.c      **** uint8 bit_shift;
   7:.\main.c      **** uint16 adcMax[8]={0,0,0,0,0,0,0,0};
   8:.\main.c      **** color matrix[16*4];
   9:.\main.c      **** 
  10:.\main.c      **** int mode = 3;
  11:.\main.c      **** CY_ISR(PB_ISR)
  12:.\main.c      **** {
  26              		.loc 1 12 0
  27              		.cfi_startproc
  13:.\main.c      **** 	if(mode == 0)
  28              		.loc 1 13 0
  29 0000 0A4A     		ldr	r2, .L10
  12:.\main.c      **** {
  30              		.loc 1 12 0
  31 0002 00B5     		push	{lr}
  32              	.LCFI0:
  33              		.cfi_def_cfa_offset 4
  34              		.cfi_offset 14, -4
  35              		.loc 1 13 0
  36 0004 1368     		ldr	r3, [r2]
  37 0006 002B     		cmp	r3, #0
  38 0008 06D0     		beq	.L7
  14:.\main.c      **** 	{
  15:.\main.c      **** 		mode=1;
  16:.\main.c      **** 	}
  17:.\main.c      **** 	else if(mode==1)
  39              		.loc 1 17 0
ARM GAS  C:\Users\Computer\AppData\Local\Temp\ccQy7sfN.s 			page 2


  40 000a 012B     		cmp	r3, #1
  41 000c 07D0     		beq	.L8
  18:.\main.c      **** 	{
  19:.\main.c      **** 		mode=2;
  20:.\main.c      **** 	}
  21:.\main.c      ****     else if(mode==2)
  42              		.loc 1 21 0
  43 000e 022B     		cmp	r3, #2
  44 0010 08D0     		beq	.L9
  22:.\main.c      **** 	{
  23:.\main.c      **** 		mode=3;
  24:.\main.c      **** 	}
  25:.\main.c      ****     else
  26:.\main.c      ****     {
  27:.\main.c      ****         mode=0;   
  45              		.loc 1 27 0
  46 0012 0020     		mov	r0, #0
  47 0014 1060     		str	r0, [r2]
  48              	.L1:
  28:.\main.c      ****     }
  29:.\main.c      **** }
  49              		.loc 1 29 0
  50              		@ sp needed for prologue
  51 0016 00BD     		pop	{pc}
  52              	.L7:
  15:.\main.c      **** 		mode=1;
  53              		.loc 1 15 0
  54 0018 0120     		mov	r0, #1
  55 001a 1060     		str	r0, [r2]
  56 001c FBE7     		b	.L1
  57              	.L8:
  19:.\main.c      **** 		mode=2;
  58              		.loc 1 19 0
  59 001e 0223     		mov	r3, #2
  60 0020 1360     		str	r3, [r2]
  61 0022 F8E7     		b	.L1
  62              	.L9:
  23:.\main.c      **** 		mode=3;
  63              		.loc 1 23 0
  64 0024 0321     		mov	r1, #3
  65 0026 1160     		str	r1, [r2]
  66 0028 F5E7     		b	.L1
  67              	.L11:
  68 002a C046     		.align	2
  69              	.L10:
  70 002c 00000000 		.word	.LANCHOR0
  71              		.cfi_endproc
  72              	.LFE33:
  73              		.size	PB_ISR, .-PB_ISR
  74              		.section	.text.FIFO_EMPTY,"ax",%progbits
  75              		.align	2
  76              		.global	FIFO_EMPTY
  77              		.code	16
  78              		.thumb_func
  79              		.type	FIFO_EMPTY, %function
  80              	FIFO_EMPTY:
  81              	.LFB34:
ARM GAS  C:\Users\Computer\AppData\Local\Temp\ccQy7sfN.s 			page 3


  30:.\main.c      **** 
  31:.\main.c      **** CY_ISR(FIFO_EMPTY)
  32:.\main.c      **** {
  82              		.loc 1 32 0
  83              		.cfi_startproc
  84 0000 F0B5     		push	{r4, r5, r6, r7, lr}
  85              	.LCFI1:
  86              		.cfi_def_cfa_offset 20
  87              		.cfi_offset 4, -20
  88              		.cfi_offset 5, -16
  89              		.cfi_offset 6, -12
  90              		.cfi_offset 7, -8
  91              		.cfi_offset 14, -4
  92 0002 5F46     		mov	r7, fp
  93 0004 4D46     		mov	r5, r9
  94 0006 4446     		mov	r4, r8
  95 0008 5646     		mov	r6, sl
  96 000a F0B4     		push	{r4, r5, r6, r7}
  97              	.LCFI2:
  98              		.cfi_def_cfa_offset 36
  99              		.cfi_offset 8, -36
 100              		.cfi_offset 9, -32
 101              		.cfi_offset 10, -28
 102              		.cfi_offset 11, -24
  33:.\main.c      **** 
  34:.\main.c      **** 	*isr_2_INTC_CLR_PD = isr_2__INTC_MASK;
 103              		.loc 1 34 0
 104 000c 674B     		ldr	r3, .L18
  35:.\main.c      **** 	
  36:.\main.c      **** 	LED_Matrix_1_WriteControl(0x01);
 105              		.loc 1 36 0
 106 000e 6849     		ldr	r1, .L18+4
  37:.\main.c      **** 	
  38:.\main.c      **** 	pwm_count++;
 107              		.loc 1 38 0
 108 0010 684D     		ldr	r5, .L18+8
  34:.\main.c      **** 	*isr_2_INTC_CLR_PD = isr_2__INTC_MASK;
 109              		.loc 1 34 0
 110 0012 0822     		mov	r2, #8
  36:.\main.c      **** 	LED_Matrix_1_WriteControl(0x01);
 111              		.loc 1 36 0
 112 0014 0120     		mov	r0, #1
  34:.\main.c      **** 	*isr_2_INTC_CLR_PD = isr_2__INTC_MASK;
 113              		.loc 1 34 0
 114 0016 1A60     		str	r2, [r3]
  36:.\main.c      **** 	LED_Matrix_1_WriteControl(0x01);
 115              		.loc 1 36 0
 116 0018 0870     		strb	r0, [r1]
 117              		.loc 1 38 0
 118 001a 2C78     		ldrb	r4, [r5]
  32:.\main.c      **** {
 119              		.loc 1 32 0
 120 001c 87B0     		sub	sp, sp, #28
 121              	.LCFI3:
 122              		.cfi_def_cfa_offset 64
 123              		.loc 1 38 0
 124 001e 0134     		add	r4, r4, #1
ARM GAS  C:\Users\Computer\AppData\Local\Temp\ccQy7sfN.s 			page 4


 125 0020 E7B2     		uxtb	r7, r4
 126 0022 2F70     		strb	r7, [r5]
  39:.\main.c      **** 
  40:.\main.c      **** 	if(pwm_count == 1)
 127              		.loc 1 40 0
 128 0024 012F     		cmp	r7, #1
 129 0026 00D1     		bne	.LCB88
 130 0028 B9E0     		b	.L17	@long jump
 131              	.LCB88:
  41:.\main.c      **** 	{
  42:.\main.c      **** 		bit_shift = 1;
  43:.\main.c      **** 	}
  44:.\main.c      **** 	else if(pwm_count == 3)
 132              		.loc 1 44 0
 133 002a 032F     		cmp	r7, #3
 134 002c 00D1     		bne	.LCB90
 135 002e A5E0     		b	.L15	@long jump
 136              	.LCB90:
 137 0030 614A     		ldr	r2, .L18+12
 138 0032 6E78     		ldrb	r6, [r5, #1]
 139 0034 1478     		ldrb	r4, [r2]
 140 0036 B700     		lsl	r7, r6, #2
 141              	.L14:
  45:.\main.c      **** 	{
  46:.\main.c      **** 		bit_shift = 0;
  47:.\main.c      **** 		pwm_count = 0;
  48:.\main.c      **** 		j++;
  49:.\main.c      **** 		
  50:.\main.c      **** 		if(j == 8)
  51:.\main.c      **** 		{
  52:.\main.c      **** 			j = 0;
  53:.\main.c      **** 		}
  54:.\main.c      **** 	}
  55:.\main.c      **** 
  56:.\main.c      **** 	LED_Matrix_1_F0_REG_0 = (uint8)matrix[0 + j*4].r[bit_shift];
 142              		.loc 1 56 0
 143 0038 3801     		lsl	r0, r7, #4
 144 003a 604B     		ldr	r3, .L18+16
 145 003c C11B     		sub	r1, r0, r7
 146 003e 0C19     		add	r4, r1, r4
 147 0040 E75C     		ldrb	r7, [r4, r3]
 148 0042 5F4C     		ldr	r4, .L18+20
 149 0044 2770     		strb	r7, [r4]
  57:.\main.c      **** 	LED_Matrix_1_F0_REG_0 = (uint8)matrix[1 + j*4].r[bit_shift];
 150              		.loc 1 57 0
 151 0046 6978     		ldrb	r1, [r5, #1]
 152 0048 1278     		ldrb	r2, [r2]
 153 004a 8800     		lsl	r0, r1, #2
 154 004c 451C     		add	r5, r0, #1
 155 004e 2E01     		lsl	r6, r5, #4
 156 0050 771B     		sub	r7, r6, r5
 157 0052 B946     		mov	r9, r7
 158 0054 BF18     		add	r7, r7, r2
 159 0056 FD5C     		ldrb	r5, [r7, r3]
  58:.\main.c      **** 	LED_Matrix_1_F0_REG_0 = (uint8)matrix[2 + j*4].r[bit_shift];
  59:.\main.c      **** 	LED_Matrix_1_F0_REG_0 = (uint8)matrix[3 + j*4].r[bit_shift];
 160              		.loc 1 59 0
ARM GAS  C:\Users\Computer\AppData\Local\Temp\ccQy7sfN.s 			page 5


 161 0058 9346     		mov	fp, r2
  57:.\main.c      **** 	LED_Matrix_1_F0_REG_0 = (uint8)matrix[1 + j*4].r[bit_shift];
 162              		.loc 1 57 0
 163 005a 2570     		strb	r5, [r4]
  58:.\main.c      **** 	LED_Matrix_1_F0_REG_0 = (uint8)matrix[2 + j*4].r[bit_shift];
 164              		.loc 1 58 0
 165 005c 851C     		add	r5, r0, #2
 166 005e 2E01     		lsl	r6, r5, #4
 167 0060 751B     		sub	r5, r6, r5
 168 0062 AE18     		add	r6, r5, r2
 169 0064 0296     		str	r6, [sp, #8]
 170 0066 A846     		mov	r8, r5
 171 0068 F55C     		ldrb	r5, [r6, r3]
 172              		.loc 1 59 0
 173 006a C61C     		add	r6, r0, #3
  58:.\main.c      **** 	LED_Matrix_1_F0_REG_0 = (uint8)matrix[2 + j*4].r[bit_shift];
 174              		.loc 1 58 0
 175 006c 2570     		strb	r5, [r4]
 176              		.loc 1 59 0
 177 006e 3501     		lsl	r5, r6, #4
 178 0070 AD1B     		sub	r5, r5, r6
 179 0072 AC46     		mov	ip, r5
 180 0074 E344     		add	fp, fp, ip
 181 0076 5E46     		mov	r6, fp
 182 0078 F55C     		ldrb	r5, [r6, r3]
  60:.\main.c      **** 
  61:.\main.c      **** 	LED_Matrix_1_F0_REG_1 = (uint8)matrix[0 + j*4].g[bit_shift];
  62:.\main.c      **** 	LED_Matrix_1_F0_REG_1 = (uint8)matrix[1 + j*4].g[bit_shift];
 183              		.loc 1 62 0
 184 007a DF19     		add	r7, r3, r7
  59:.\main.c      **** 	LED_Matrix_1_F0_REG_0 = (uint8)matrix[3 + j*4].r[bit_shift];
 185              		.loc 1 59 0
 186 007c 2570     		strb	r5, [r4]
  61:.\main.c      **** 	LED_Matrix_1_F0_REG_1 = (uint8)matrix[0 + j*4].g[bit_shift];
 187              		.loc 1 61 0
 188 007e 8C01     		lsl	r4, r1, #6
 189 0080 201A     		sub	r0, r4, r0
 190 0082 8618     		add	r6, r0, r2
 191 0084 9D19     		add	r5, r3, r6
 192 0086 6C79     		ldrb	r4, [r5, #5]
 193 0088 8246     		mov	sl, r0
 194 008a 4E48     		ldr	r0, .L18+24
  63:.\main.c      **** 	LED_Matrix_1_F0_REG_1 = (uint8)matrix[2 + j*4].g[bit_shift];
  64:.\main.c      **** 	LED_Matrix_1_F0_REG_1 = (uint8)matrix[3 + j*4].g[bit_shift];
  65:.\main.c      **** 	
  66:.\main.c      **** 	LED_Matrix_1_F1_REG_1 = (uint8)matrix[0 + (j+8)*4].g[bit_shift];
  67:.\main.c      **** 	LED_Matrix_1_F1_REG_1 = (uint8)matrix[1 + (j+8)*4].g[bit_shift];
  68:.\main.c      **** 	LED_Matrix_1_F1_REG_1 = (uint8)matrix[2 + (j+8)*4].g[bit_shift];
  69:.\main.c      **** 	LED_Matrix_1_F1_REG_1 = (uint8)matrix[3 + (j+8)*4].g[bit_shift];
  70:.\main.c      **** 	
  71:.\main.c      **** 	LED_Matrix_1_F0_REG_2 = (uint8)matrix[0 + j*4].b[bit_shift];
  72:.\main.c      **** 	LED_Matrix_1_F0_REG_2 = (uint8)matrix[1 + j*4].b[bit_shift];
 195              		.loc 1 72 0
 196 008c 9944     		add	r9, r9, r3
  61:.\main.c      **** 	LED_Matrix_1_F0_REG_1 = (uint8)matrix[0 + j*4].g[bit_shift];
 197              		.loc 1 61 0
 198 008e 0470     		strb	r4, [r0]
ARM GAS  C:\Users\Computer\AppData\Local\Temp\ccQy7sfN.s 			page 6


  62:.\main.c      **** 	LED_Matrix_1_F0_REG_1 = (uint8)matrix[1 + j*4].g[bit_shift];
 199              		.loc 1 62 0
 200 0090 7E79     		ldrb	r6, [r7, #5]
 201              		.loc 1 72 0
 202 0092 9144     		add	r9, r9, r2
  62:.\main.c      **** 	LED_Matrix_1_F0_REG_1 = (uint8)matrix[1 + j*4].g[bit_shift];
 203              		.loc 1 62 0
 204 0094 0670     		strb	r6, [r0]
  63:.\main.c      **** 	LED_Matrix_1_F0_REG_1 = (uint8)matrix[2 + j*4].g[bit_shift];
 205              		.loc 1 63 0
 206 0096 029D     		ldr	r5, [sp, #8]
  64:.\main.c      **** 	LED_Matrix_1_F0_REG_1 = (uint8)matrix[3 + j*4].g[bit_shift];
 207              		.loc 1 64 0
 208 0098 5E46     		mov	r6, fp
  63:.\main.c      **** 	LED_Matrix_1_F0_REG_1 = (uint8)matrix[2 + j*4].g[bit_shift];
 209              		.loc 1 63 0
 210 009a 5C19     		add	r4, r3, r5
 211 009c 6779     		ldrb	r7, [r4, #5]
  64:.\main.c      **** 	LED_Matrix_1_F0_REG_1 = (uint8)matrix[3 + j*4].g[bit_shift];
 212              		.loc 1 64 0
 213 009e 9D19     		add	r5, r3, r6
  63:.\main.c      **** 	LED_Matrix_1_F0_REG_1 = (uint8)matrix[2 + j*4].g[bit_shift];
 214              		.loc 1 63 0
 215 00a0 0770     		strb	r7, [r0]
  64:.\main.c      **** 	LED_Matrix_1_F0_REG_1 = (uint8)matrix[3 + j*4].g[bit_shift];
 216              		.loc 1 64 0
 217 00a2 6C79     		ldrb	r4, [r5, #5]
  73:.\main.c      **** 	LED_Matrix_1_F0_REG_2 = (uint8)matrix[2 + j*4].b[bit_shift];
 218              		.loc 1 73 0
 219 00a4 9844     		add	r8, r8, r3
  64:.\main.c      **** 	LED_Matrix_1_F0_REG_1 = (uint8)matrix[3 + j*4].g[bit_shift];
 220              		.loc 1 64 0
 221 00a6 0470     		strb	r4, [r0]
  66:.\main.c      **** 	LED_Matrix_1_F1_REG_1 = (uint8)matrix[0 + (j+8)*4].g[bit_shift];
 222              		.loc 1 66 0
 223 00a8 081C     		mov	r0, r1
 224 00aa 0830     		add	r0, r0, #8
 225 00ac 8600     		lsl	r6, r0, #2
 226 00ae 8701     		lsl	r7, r0, #6
 227 00b0 BD1B     		sub	r5, r7, r6
 228 00b2 AC18     		add	r4, r5, r2
 229 00b4 0295     		str	r5, [sp, #8]
 230 00b6 0394     		str	r4, [sp, #12]
 231 00b8 1819     		add	r0, r3, r4
 232 00ba 4779     		ldrb	r7, [r0, #5]
  67:.\main.c      **** 	LED_Matrix_1_F1_REG_1 = (uint8)matrix[1 + (j+8)*4].g[bit_shift];
 233              		.loc 1 67 0
 234 00bc 741C     		add	r4, r6, #1
  66:.\main.c      **** 	LED_Matrix_1_F1_REG_1 = (uint8)matrix[0 + (j+8)*4].g[bit_shift];
 235              		.loc 1 66 0
 236 00be 4248     		ldr	r0, .L18+28
  67:.\main.c      **** 	LED_Matrix_1_F1_REG_1 = (uint8)matrix[1 + (j+8)*4].g[bit_shift];
 237              		.loc 1 67 0
 238 00c0 2501     		lsl	r5, r4, #4
  66:.\main.c      **** 	LED_Matrix_1_F1_REG_1 = (uint8)matrix[0 + (j+8)*4].g[bit_shift];
 239              		.loc 1 66 0
 240 00c2 0770     		strb	r7, [r0]
ARM GAS  C:\Users\Computer\AppData\Local\Temp\ccQy7sfN.s 			page 7


  67:.\main.c      **** 	LED_Matrix_1_F1_REG_1 = (uint8)matrix[1 + (j+8)*4].g[bit_shift];
 241              		.loc 1 67 0
 242 00c4 2F1B     		sub	r7, r5, r4
 243 00c6 BC18     		add	r4, r7, r2
 244 00c8 0594     		str	r4, [sp, #20]
 245 00ca 0497     		str	r7, [sp, #16]
 246 00cc 1D19     		add	r5, r3, r4
 247 00ce 6F79     		ldrb	r7, [r5, #5]
  68:.\main.c      **** 	LED_Matrix_1_F1_REG_1 = (uint8)matrix[2 + (j+8)*4].g[bit_shift];
 248              		.loc 1 68 0
 249 00d0 B41C     		add	r4, r6, #2
 250 00d2 2501     		lsl	r5, r4, #4
  67:.\main.c      **** 	LED_Matrix_1_F1_REG_1 = (uint8)matrix[1 + (j+8)*4].g[bit_shift];
 251              		.loc 1 67 0
 252 00d4 0770     		strb	r7, [r0]
  68:.\main.c      **** 	LED_Matrix_1_F1_REG_1 = (uint8)matrix[2 + (j+8)*4].g[bit_shift];
 253              		.loc 1 68 0
 254 00d6 2F1B     		sub	r7, r5, r4
 255 00d8 BD18     		add	r5, r7, r2
 256 00da 0197     		str	r7, [sp, #4]
 257 00dc 5C19     		add	r4, r3, r5
  69:.\main.c      **** 	LED_Matrix_1_F1_REG_1 = (uint8)matrix[3 + (j+8)*4].g[bit_shift];
 258              		.loc 1 69 0
 259 00de 0336     		add	r6, r6, #3
  68:.\main.c      **** 	LED_Matrix_1_F1_REG_1 = (uint8)matrix[2 + (j+8)*4].g[bit_shift];
 260              		.loc 1 68 0
 261 00e0 6779     		ldrb	r7, [r4, #5]
  69:.\main.c      **** 	LED_Matrix_1_F1_REG_1 = (uint8)matrix[3 + (j+8)*4].g[bit_shift];
 262              		.loc 1 69 0
 263 00e2 3401     		lsl	r4, r6, #4
 264 00e4 A61B     		sub	r6, r4, r6
 265 00e6 B418     		add	r4, r6, r2
  68:.\main.c      **** 	LED_Matrix_1_F1_REG_1 = (uint8)matrix[2 + (j+8)*4].g[bit_shift];
 266              		.loc 1 68 0
 267 00e8 0770     		strb	r7, [r0]
  69:.\main.c      **** 	LED_Matrix_1_F1_REG_1 = (uint8)matrix[3 + (j+8)*4].g[bit_shift];
 268              		.loc 1 69 0
 269 00ea 1F19     		add	r7, r3, r4
 270 00ec 7F79     		ldrb	r7, [r7, #5]
 271              		.loc 1 73 0
 272 00ee 9044     		add	r8, r8, r2
  69:.\main.c      **** 	LED_Matrix_1_F1_REG_1 = (uint8)matrix[3 + (j+8)*4].g[bit_shift];
 273              		.loc 1 69 0
 274 00f0 0770     		strb	r7, [r0]
  71:.\main.c      **** 	LED_Matrix_1_F0_REG_2 = (uint8)matrix[0 + j*4].b[bit_shift];
 275              		.loc 1 71 0
 276 00f2 5046     		mov	r0, sl
 277 00f4 1F18     		add	r7, r3, r0
 278 00f6 B818     		add	r0, r7, r2
 279 00f8 877A     		ldrb	r7, [r0, #10]
 280 00fa 3448     		ldr	r0, .L18+32
  74:.\main.c      **** 	LED_Matrix_1_F0_REG_2 = (uint8)matrix[3 + j*4].b[bit_shift];
 281              		.loc 1 74 0
 282 00fc 9C44     		add	ip, ip, r3
  71:.\main.c      **** 	LED_Matrix_1_F0_REG_2 = (uint8)matrix[0 + j*4].b[bit_shift];
 283              		.loc 1 71 0
 284 00fe 0770     		strb	r7, [r0]
ARM GAS  C:\Users\Computer\AppData\Local\Temp\ccQy7sfN.s 			page 8


  72:.\main.c      **** 	LED_Matrix_1_F0_REG_2 = (uint8)matrix[1 + j*4].b[bit_shift];
 285              		.loc 1 72 0
 286 0100 4F46     		mov	r7, r9
 287 0102 BF7A     		ldrb	r7, [r7, #10]
 288              		.loc 1 74 0
 289 0104 9444     		add	ip, ip, r2
  72:.\main.c      **** 	LED_Matrix_1_F0_REG_2 = (uint8)matrix[1 + j*4].b[bit_shift];
 290              		.loc 1 72 0
 291 0106 0770     		strb	r7, [r0]
  73:.\main.c      **** 	LED_Matrix_1_F0_REG_2 = (uint8)matrix[2 + j*4].b[bit_shift];
 292              		.loc 1 73 0
 293 0108 4746     		mov	r7, r8
 294 010a BF7A     		ldrb	r7, [r7, #10]
  75:.\main.c      **** 
  76:.\main.c      **** 	LED_Matrix_1_F1_REG_2 = (uint8)matrix[0 + (j+8)*4].b[bit_shift];
  77:.\main.c      **** 	LED_Matrix_1_F1_REG_2 = (uint8)matrix[1 + (j+8)*4].b[bit_shift];
  78:.\main.c      **** 	LED_Matrix_1_F1_REG_2 = (uint8)matrix[2 + (j+8)*4].b[bit_shift];
  79:.\main.c      **** 	LED_Matrix_1_F1_REG_2 = (uint8)matrix[3 + (j+8)*4].b[bit_shift];
 295              		.loc 1 79 0
 296 010c 9E19     		add	r6, r3, r6
  73:.\main.c      **** 	LED_Matrix_1_F0_REG_2 = (uint8)matrix[2 + j*4].b[bit_shift];
 297              		.loc 1 73 0
 298 010e 0770     		strb	r7, [r0]
  74:.\main.c      **** 	LED_Matrix_1_F0_REG_2 = (uint8)matrix[3 + j*4].b[bit_shift];
 299              		.loc 1 74 0
 300 0110 6746     		mov	r7, ip
 301 0112 BF7A     		ldrb	r7, [r7, #10]
 302 0114 0770     		strb	r7, [r0]
  76:.\main.c      **** 	LED_Matrix_1_F1_REG_2 = (uint8)matrix[0 + (j+8)*4].b[bit_shift];
 303              		.loc 1 76 0
 304 0116 0298     		ldr	r0, [sp, #8]
 305 0118 1F18     		add	r7, r3, r0
 306 011a B818     		add	r0, r7, r2
 307 011c 877A     		ldrb	r7, [r0, #10]
 308 011e 2C48     		ldr	r0, .L18+36
 309 0120 0770     		strb	r7, [r0]
  77:.\main.c      **** 	LED_Matrix_1_F1_REG_2 = (uint8)matrix[1 + (j+8)*4].b[bit_shift];
 310              		.loc 1 77 0
 311 0122 049F     		ldr	r7, [sp, #16]
 312 0124 FF18     		add	r7, r7, r3
 313 0126 B846     		mov	r8, r7
 314 0128 9044     		add	r8, r8, r2
 315 012a 4746     		mov	r7, r8
 316 012c BF7A     		ldrb	r7, [r7, #10]
 317 012e 0770     		strb	r7, [r0]
  78:.\main.c      **** 	LED_Matrix_1_F1_REG_2 = (uint8)matrix[2 + (j+8)*4].b[bit_shift];
 318              		.loc 1 78 0
 319 0130 019F     		ldr	r7, [sp, #4]
 320 0132 FF18     		add	r7, r7, r3
 321 0134 BC46     		mov	ip, r7
 322 0136 9444     		add	ip, ip, r2
 323 0138 6746     		mov	r7, ip
 324 013a BF7A     		ldrb	r7, [r7, #10]
 325              		.loc 1 79 0
 326 013c B218     		add	r2, r6, r2
  78:.\main.c      **** 	LED_Matrix_1_F1_REG_2 = (uint8)matrix[2 + (j+8)*4].b[bit_shift];
 327              		.loc 1 78 0
ARM GAS  C:\Users\Computer\AppData\Local\Temp\ccQy7sfN.s 			page 9


 328 013e 0770     		strb	r7, [r0]
 329              		.loc 1 79 0
 330 0140 977A     		ldrb	r7, [r2, #10]
  80:.\main.c      **** 	
  81:.\main.c      **** 	LED_Matrix_1_F1_REG_0 = (uint8)matrix[0 + (j+8)*4].r[bit_shift];
 331              		.loc 1 81 0
 332 0142 244A     		ldr	r2, .L18+40
  79:.\main.c      **** 	LED_Matrix_1_F1_REG_2 = (uint8)matrix[3 + (j+8)*4].b[bit_shift];
 333              		.loc 1 79 0
 334 0144 0770     		strb	r7, [r0]
 335              		.loc 1 81 0
 336 0146 0398     		ldr	r0, [sp, #12]
 337 0148 C65C     		ldrb	r6, [r0, r3]
 338 014a 1670     		strb	r6, [r2]
  82:.\main.c      **** 	LED_Matrix_1_F1_REG_0 = (uint8)matrix[1 + (j+8)*4].r[bit_shift];
 339              		.loc 1 82 0
 340 014c 059F     		ldr	r7, [sp, #20]
  83:.\main.c      **** 	LED_Matrix_1_F1_REG_0 = (uint8)matrix[2 + (j+8)*4].r[bit_shift];
  84:.\main.c      **** 
  85:.\main.c      **** 	LED_Matrix_1_WriteControl(0x03);
 341              		.loc 1 85 0
 342 014e 0326     		mov	r6, #3
  82:.\main.c      **** 	LED_Matrix_1_F1_REG_0 = (uint8)matrix[1 + (j+8)*4].r[bit_shift];
 343              		.loc 1 82 0
 344 0150 F85C     		ldrb	r0, [r7, r3]
 345              		.loc 1 85 0
 346 0152 174F     		ldr	r7, .L18+4
  82:.\main.c      **** 	LED_Matrix_1_F1_REG_0 = (uint8)matrix[1 + (j+8)*4].r[bit_shift];
 347              		.loc 1 82 0
 348 0154 1070     		strb	r0, [r2]
  83:.\main.c      **** 	LED_Matrix_1_F1_REG_0 = (uint8)matrix[2 + (j+8)*4].r[bit_shift];
 349              		.loc 1 83 0
 350 0156 ED5C     		ldrb	r5, [r5, r3]
  86:.\main.c      **** 	
  87:.\main.c      **** 	Row_Select(j);
 351              		.loc 1 87 0
 352 0158 1F48     		ldr	r0, .L18+44
  83:.\main.c      **** 	LED_Matrix_1_F1_REG_0 = (uint8)matrix[2 + (j+8)*4].r[bit_shift];
 353              		.loc 1 83 0
 354 015a 1570     		strb	r5, [r2]
  85:.\main.c      **** 	LED_Matrix_1_WriteControl(0x03);
 355              		.loc 1 85 0
 356 015c 3E70     		strb	r6, [r7]
 357              		.loc 1 87 0
 358 015e 0678     		ldrb	r6, [r0]
 359 0160 0725     		mov	r5, #7
 360 0162 2940     		and	r1, r5
 361 0164 AE43     		bic	r6, r5
 362 0166 3143     		orr	r1, r6
 363 0168 0170     		strb	r1, [r0]
  88:.\main.c      **** 
  89:.\main.c      **** 	LED_Matrix_1_F1_REG_0 = (uint8)matrix[3 + (j+8)*4].r[bit_shift];
 364              		.loc 1 89 0
 365 016a E35C     		ldrb	r3, [r4, r3]
 366 016c 1370     		strb	r3, [r2]
  90:.\main.c      **** }
 367              		.loc 1 90 0
ARM GAS  C:\Users\Computer\AppData\Local\Temp\ccQy7sfN.s 			page 10


 368 016e 07B0     		add	sp, sp, #28
 369              		@ sp needed for prologue
 370 0170 3CBC     		pop	{r2, r3, r4, r5}
 371 0172 9046     		mov	r8, r2
 372 0174 9946     		mov	r9, r3
 373 0176 A246     		mov	sl, r4
 374 0178 AB46     		mov	fp, r5
 375 017a F0BD     		pop	{r4, r5, r6, r7, pc}
 376              	.L15:
  48:.\main.c      **** 		j++;
 377              		.loc 1 48 0
 378 017c 6878     		ldrb	r0, [r5, #1]
  46:.\main.c      **** 		bit_shift = 0;
 379              		.loc 1 46 0
 380 017e 0E4A     		ldr	r2, .L18+12
  48:.\main.c      **** 		j++;
 381              		.loc 1 48 0
 382 0180 0130     		add	r0, r0, #1
  46:.\main.c      **** 		bit_shift = 0;
 383              		.loc 1 46 0
 384 0182 0023     		mov	r3, #0
  48:.\main.c      **** 		j++;
 385              		.loc 1 48 0
 386 0184 C1B2     		uxtb	r1, r0
  46:.\main.c      **** 		bit_shift = 0;
 387              		.loc 1 46 0
 388 0186 1370     		strb	r3, [r2]
  47:.\main.c      **** 		pwm_count = 0;
 389              		.loc 1 47 0
 390 0188 2B70     		strb	r3, [r5]
  50:.\main.c      **** 		if(j == 8)
 391              		.loc 1 50 0
 392 018a 0829     		cmp	r1, #8
 393 018c 03D0     		beq	.L16
  48:.\main.c      **** 		j++;
 394              		.loc 1 48 0
 395 018e 6970     		strb	r1, [r5, #1]
 396 0190 8F00     		lsl	r7, r1, #2
 397 0192 0024     		mov	r4, #0
 398 0194 50E7     		b	.L14
 399              	.L16:
  52:.\main.c      **** 			j = 0;
 400              		.loc 1 52 0
 401 0196 6B70     		strb	r3, [r5, #1]
 402 0198 0024     		mov	r4, #0
 403 019a 0027     		mov	r7, #0
 404 019c 4CE7     		b	.L14
 405              	.L17:
  42:.\main.c      **** 		bit_shift = 1;
 406              		.loc 1 42 0
 407 019e 064A     		ldr	r2, .L18+12
 408 01a0 6E78     		ldrb	r6, [r5, #1]
 409 01a2 1770     		strb	r7, [r2]
 410 01a4 0124     		mov	r4, #1
 411 01a6 B700     		lsl	r7, r6, #2
 412 01a8 46E7     		b	.L14
 413              	.L19:
ARM GAS  C:\Users\Computer\AppData\Local\Temp\ccQy7sfN.s 			page 11


 414 01aa C046     		.align	2
 415              	.L18:
 416 01ac 80E200E0 		.word	-536812928
 417 01b0 71000F40 		.word	1074724977
 418 01b4 00000000 		.word	.LANCHOR1
 419 01b8 00000000 		.word	bit_shift
 420 01bc 00000000 		.word	matrix
 421 01c0 41000F40 		.word	1074724929
 422 01c4 43000F40 		.word	1074724931
 423 01c8 53000F40 		.word	1074724947
 424 01cc 40000F40 		.word	1074724928
 425 01d0 50000F40 		.word	1074724944
 426 01d4 51000F40 		.word	1074724945
 427 01d8 72000F40 		.word	1074724978
 428              		.cfi_endproc
 429              	.LFE34:
 430              		.size	FIFO_EMPTY, .-FIFO_EMPTY
 431              		.section	.text.eoc_isr,"ax",%progbits
 432              		.align	2
 433              		.global	eoc_isr
 434              		.code	16
 435              		.thumb_func
 436              		.type	eoc_isr, %function
 437              	eoc_isr:
 438              	.LFB35:
  91:.\main.c      **** uint8 dataReady = 0;
  92:.\main.c      **** uint16 result[8] = {0,0,0,0,0,0,0,0};
  93:.\main.c      **** uint8 oldResult[8] = {0,0,0,0,0,0,0,0};
  94:.\main.c      **** uint8 scaledResult[8] = {0,0,0,0,0,0,0,0};
  95:.\main.c      **** int w = 0;
  96:.\main.c      **** int refresh=0;
  97:.\main.c      **** CY_ISR(eoc_isr)
  98:.\main.c      **** {
 439              		.loc 1 98 0
 440              		.cfi_startproc
  99:.\main.c      **** 	
 100:.\main.c      **** 	result[0] = (uint16)(ADC_SAR_CHAN0_RESULT_REG & ADC_RESULT_MASK);
 441              		.loc 1 100 0
 442 0000 444B     		ldr	r3, .L37
 101:.\main.c      **** 	result[1] = (uint16)(ADC_SAR_CHAN1_RESULT_REG & ADC_RESULT_MASK);
 443              		.loc 1 101 0
 444 0002 454A     		ldr	r2, .L37+4
 100:.\main.c      **** 	result[0] = (uint16)(ADC_SAR_CHAN0_RESULT_REG & ADC_RESULT_MASK);
 445              		.loc 1 100 0
 446 0004 1968     		ldr	r1, [r3]
 447 0006 4548     		ldr	r0, .L37+8
 448              		.loc 1 101 0
 449 0008 1368     		ldr	r3, [r2]
 102:.\main.c      **** 	result[2] = (uint16)(ADC_SAR_CHAN2_RESULT_REG & ADC_RESULT_MASK);
 450              		.loc 1 102 0
 451 000a 454A     		ldr	r2, .L37+12
  98:.\main.c      **** {
 452              		.loc 1 98 0
 453 000c 00B5     		push	{lr}
 454              	.LCFI4:
 455              		.cfi_def_cfa_offset 4
 456              		.cfi_offset 14, -4
ARM GAS  C:\Users\Computer\AppData\Local\Temp\ccQy7sfN.s 			page 12


 101:.\main.c      **** 	result[1] = (uint16)(ADC_SAR_CHAN1_RESULT_REG & ADC_RESULT_MASK);
 457              		.loc 1 101 0
 458 000e C380     		strh	r3, [r0, #6]
 459              		.loc 1 102 0
 460 0010 1368     		ldr	r3, [r2]
 103:.\main.c      **** 	result[3] = (uint16)(ADC_SAR_CHAN3_RESULT_REG & ADC_RESULT_MASK);
 461              		.loc 1 103 0
 462 0012 444A     		ldr	r2, .L37+16
 102:.\main.c      **** 	result[2] = (uint16)(ADC_SAR_CHAN2_RESULT_REG & ADC_RESULT_MASK);
 463              		.loc 1 102 0
 464 0014 0381     		strh	r3, [r0, #8]
 465              		.loc 1 103 0
 466 0016 1368     		ldr	r3, [r2]
 104:.\main.c      **** 	result[4] = (uint16)(ADC_SAR_CHAN4_RESULT_REG & ADC_RESULT_MASK);
 467              		.loc 1 104 0
 468 0018 434A     		ldr	r2, .L37+20
 103:.\main.c      **** 	result[3] = (uint16)(ADC_SAR_CHAN3_RESULT_REG & ADC_RESULT_MASK);
 469              		.loc 1 103 0
 470 001a 4381     		strh	r3, [r0, #10]
 471              		.loc 1 104 0
 472 001c 1368     		ldr	r3, [r2]
 105:.\main.c      **** 	result[5] = (uint16)(ADC_SAR_CHAN5_RESULT_REG & ADC_RESULT_MASK);
 473              		.loc 1 105 0
 474 001e 434A     		ldr	r2, .L37+24
 104:.\main.c      **** 	result[4] = (uint16)(ADC_SAR_CHAN4_RESULT_REG & ADC_RESULT_MASK);
 475              		.loc 1 104 0
 476 0020 8381     		strh	r3, [r0, #12]
 477              		.loc 1 105 0
 478 0022 1368     		ldr	r3, [r2]
 106:.\main.c      **** 	result[6] = (uint16)(ADC_SAR_CHAN6_RESULT_REG & ADC_RESULT_MASK);
 479              		.loc 1 106 0
 480 0024 424A     		ldr	r2, .L37+28
 105:.\main.c      **** 	result[5] = (uint16)(ADC_SAR_CHAN5_RESULT_REG & ADC_RESULT_MASK);
 481              		.loc 1 105 0
 482 0026 C381     		strh	r3, [r0, #14]
 483              		.loc 1 106 0
 484 0028 1368     		ldr	r3, [r2]
 107:.\main.c      **** 	result[7] = (uint16)(ADC_SAR_CHAN7_RESULT_REG & ADC_RESULT_MASK);
 485              		.loc 1 107 0
 486 002a 424A     		ldr	r2, .L37+32
 106:.\main.c      **** 	result[6] = (uint16)(ADC_SAR_CHAN6_RESULT_REG & ADC_RESULT_MASK);
 487              		.loc 1 106 0
 488 002c 0382     		strh	r3, [r0, #16]
 489              		.loc 1 107 0
 490 002e 1368     		ldr	r3, [r2]
 108:.\main.c      **** 	for(w=0;w<8;w++)
 109:.\main.c      **** 	{
 110:.\main.c      **** 		if((result[w] & 0xFF00) == 0xFF00)
 491              		.loc 1 110 0
 492 0030 FF22     		mov	r2, #255
 107:.\main.c      **** 	result[7] = (uint16)(ADC_SAR_CHAN7_RESULT_REG & ADC_RESULT_MASK);
 493              		.loc 1 107 0
 494 0032 4382     		strh	r3, [r0, #18]
 495              		.loc 1 110 0
 496 0034 1302     		lsl	r3, r2, #8
 100:.\main.c      **** 	result[0] = (uint16)(ADC_SAR_CHAN0_RESULT_REG & ADC_RESULT_MASK);
 497              		.loc 1 100 0
ARM GAS  C:\Users\Computer\AppData\Local\Temp\ccQy7sfN.s 			page 13


 498 0036 8180     		strh	r1, [r0, #4]
 499              		.loc 1 110 0
 500 0038 1940     		and	r1, r3
 501 003a 9942     		cmp	r1, r3
 502 003c 2ED0     		beq	.L29
 503 003e C388     		ldrh	r3, [r0, #6]
 504 0040 FF22     		mov	r2, #255
 505 0042 9343     		bic	r3, r2
 506 0044 1102     		lsl	r1, r2, #8
 507 0046 8B42     		cmp	r3, r1
 508 0048 30D0     		beq	.L30
 509              	.L22:
 510 004a 0189     		ldrh	r1, [r0, #8]
 511 004c FF22     		mov	r2, #255
 512 004e 9143     		bic	r1, r2
 513 0050 1302     		lsl	r3, r2, #8
 514 0052 9942     		cmp	r1, r3
 515 0054 32D0     		beq	.L31
 516              	.L23:
 517 0056 4389     		ldrh	r3, [r0, #10]
 518 0058 FF22     		mov	r2, #255
 519 005a 9343     		bic	r3, r2
 520 005c 1102     		lsl	r1, r2, #8
 521 005e 8B42     		cmp	r3, r1
 522 0060 34D0     		beq	.L32
 523              	.L24:
 524 0062 8189     		ldrh	r1, [r0, #12]
 525 0064 FF22     		mov	r2, #255
 526 0066 9143     		bic	r1, r2
 527 0068 1302     		lsl	r3, r2, #8
 528 006a 9942     		cmp	r1, r3
 529 006c 36D0     		beq	.L33
 530              	.L25:
 531 006e C389     		ldrh	r3, [r0, #14]
 532 0070 FF22     		mov	r2, #255
 533 0072 9343     		bic	r3, r2
 534 0074 1102     		lsl	r1, r2, #8
 535 0076 8B42     		cmp	r3, r1
 536 0078 38D0     		beq	.L34
 537              	.L26:
 538 007a 018A     		ldrh	r1, [r0, #16]
 539 007c FF22     		mov	r2, #255
 540 007e 9143     		bic	r1, r2
 541 0080 1302     		lsl	r3, r2, #8
 542 0082 9942     		cmp	r1, r3
 543 0084 3AD0     		beq	.L35
 544              	.L27:
 545 0086 438A     		ldrh	r3, [r0, #18]
 546 0088 FF22     		mov	r2, #255
 547 008a 9343     		bic	r3, r2
 548 008c 1102     		lsl	r1, r2, #8
 549 008e 8B42     		cmp	r3, r1
 550 0090 3CD0     		beq	.L36
 551              	.L28:
 552 0092 0822     		mov	r2, #8
 111:.\main.c      **** 		{
 112:.\main.c      **** 			result[w] = 0;
ARM GAS  C:\Users\Computer\AppData\Local\Temp\ccQy7sfN.s 			page 14


 113:.\main.c      **** 		}
 114:.\main.c      **** 	}
 115:.\main.c      **** 	dataReady = 1;
 553              		.loc 1 115 0
 554 0094 0121     		mov	r1, #1
 555 0096 4261     		str	r2, [r0, #20]
 556 0098 0176     		strb	r1, [r0, #24]
 116:.\main.c      **** 	
 117:.\main.c      **** }
 557              		.loc 1 117 0
 558              		@ sp needed for prologue
 559 009a 00BD     		pop	{pc}
 560              	.L29:
 110:.\main.c      **** 		if((result[w] & 0xFF00) == 0xFF00)
 561              		.loc 1 110 0
 562 009c C388     		ldrh	r3, [r0, #6]
 112:.\main.c      **** 			result[w] = 0;
 563              		.loc 1 112 0
 564 009e 0021     		mov	r1, #0
 110:.\main.c      **** 		if((result[w] & 0xFF00) == 0xFF00)
 565              		.loc 1 110 0
 566 00a0 FF22     		mov	r2, #255
 112:.\main.c      **** 			result[w] = 0;
 567              		.loc 1 112 0
 568 00a2 8180     		strh	r1, [r0, #4]
 110:.\main.c      **** 		if((result[w] & 0xFF00) == 0xFF00)
 569              		.loc 1 110 0
 570 00a4 9343     		bic	r3, r2
 571 00a6 1102     		lsl	r1, r2, #8
 572 00a8 8B42     		cmp	r3, r1
 573 00aa CED1     		bne	.L22
 574              	.L30:
 575 00ac 0189     		ldrh	r1, [r0, #8]
 112:.\main.c      **** 			result[w] = 0;
 576              		.loc 1 112 0
 577 00ae 0023     		mov	r3, #0
 110:.\main.c      **** 		if((result[w] & 0xFF00) == 0xFF00)
 578              		.loc 1 110 0
 579 00b0 FF22     		mov	r2, #255
 112:.\main.c      **** 			result[w] = 0;
 580              		.loc 1 112 0
 581 00b2 C380     		strh	r3, [r0, #6]
 110:.\main.c      **** 		if((result[w] & 0xFF00) == 0xFF00)
 582              		.loc 1 110 0
 583 00b4 9143     		bic	r1, r2
 584 00b6 1302     		lsl	r3, r2, #8
 585 00b8 9942     		cmp	r1, r3
 586 00ba CCD1     		bne	.L23
 587              	.L31:
 588 00bc 4389     		ldrh	r3, [r0, #10]
 112:.\main.c      **** 			result[w] = 0;
 589              		.loc 1 112 0
 590 00be 0021     		mov	r1, #0
 110:.\main.c      **** 		if((result[w] & 0xFF00) == 0xFF00)
 591              		.loc 1 110 0
 592 00c0 FF22     		mov	r2, #255
 112:.\main.c      **** 			result[w] = 0;
ARM GAS  C:\Users\Computer\AppData\Local\Temp\ccQy7sfN.s 			page 15


 593              		.loc 1 112 0
 594 00c2 0181     		strh	r1, [r0, #8]
 110:.\main.c      **** 		if((result[w] & 0xFF00) == 0xFF00)
 595              		.loc 1 110 0
 596 00c4 9343     		bic	r3, r2
 597 00c6 1102     		lsl	r1, r2, #8
 598 00c8 8B42     		cmp	r3, r1
 599 00ca CAD1     		bne	.L24
 600              	.L32:
 601 00cc 8189     		ldrh	r1, [r0, #12]
 112:.\main.c      **** 			result[w] = 0;
 602              		.loc 1 112 0
 603 00ce 0023     		mov	r3, #0
 110:.\main.c      **** 		if((result[w] & 0xFF00) == 0xFF00)
 604              		.loc 1 110 0
 605 00d0 FF22     		mov	r2, #255
 112:.\main.c      **** 			result[w] = 0;
 606              		.loc 1 112 0
 607 00d2 4381     		strh	r3, [r0, #10]
 110:.\main.c      **** 		if((result[w] & 0xFF00) == 0xFF00)
 608              		.loc 1 110 0
 609 00d4 9143     		bic	r1, r2
 610 00d6 1302     		lsl	r3, r2, #8
 611 00d8 9942     		cmp	r1, r3
 612 00da C8D1     		bne	.L25
 613              	.L33:
 614 00dc C389     		ldrh	r3, [r0, #14]
 112:.\main.c      **** 			result[w] = 0;
 615              		.loc 1 112 0
 616 00de 0021     		mov	r1, #0
 110:.\main.c      **** 		if((result[w] & 0xFF00) == 0xFF00)
 617              		.loc 1 110 0
 618 00e0 FF22     		mov	r2, #255
 112:.\main.c      **** 			result[w] = 0;
 619              		.loc 1 112 0
 620 00e2 8181     		strh	r1, [r0, #12]
 110:.\main.c      **** 		if((result[w] & 0xFF00) == 0xFF00)
 621              		.loc 1 110 0
 622 00e4 9343     		bic	r3, r2
 623 00e6 1102     		lsl	r1, r2, #8
 624 00e8 8B42     		cmp	r3, r1
 625 00ea C6D1     		bne	.L26
 626              	.L34:
 627 00ec 018A     		ldrh	r1, [r0, #16]
 112:.\main.c      **** 			result[w] = 0;
 628              		.loc 1 112 0
 629 00ee 0023     		mov	r3, #0
 110:.\main.c      **** 		if((result[w] & 0xFF00) == 0xFF00)
 630              		.loc 1 110 0
 631 00f0 FF22     		mov	r2, #255
 112:.\main.c      **** 			result[w] = 0;
 632              		.loc 1 112 0
 633 00f2 C381     		strh	r3, [r0, #14]
 110:.\main.c      **** 		if((result[w] & 0xFF00) == 0xFF00)
 634              		.loc 1 110 0
 635 00f4 9143     		bic	r1, r2
 636 00f6 1302     		lsl	r3, r2, #8
ARM GAS  C:\Users\Computer\AppData\Local\Temp\ccQy7sfN.s 			page 16


 637 00f8 9942     		cmp	r1, r3
 638 00fa C4D1     		bne	.L27
 639              	.L35:
 640 00fc 438A     		ldrh	r3, [r0, #18]
 112:.\main.c      **** 			result[w] = 0;
 641              		.loc 1 112 0
 642 00fe 0021     		mov	r1, #0
 110:.\main.c      **** 		if((result[w] & 0xFF00) == 0xFF00)
 643              		.loc 1 110 0
 644 0100 FF22     		mov	r2, #255
 112:.\main.c      **** 			result[w] = 0;
 645              		.loc 1 112 0
 646 0102 0182     		strh	r1, [r0, #16]
 110:.\main.c      **** 		if((result[w] & 0xFF00) == 0xFF00)
 647              		.loc 1 110 0
 648 0104 9343     		bic	r3, r2
 649 0106 1102     		lsl	r1, r2, #8
 650 0108 8B42     		cmp	r3, r1
 651 010a C2D1     		bne	.L28
 652              	.L36:
 112:.\main.c      **** 			result[w] = 0;
 653              		.loc 1 112 0
 654 010c 0023     		mov	r3, #0
 655 010e 4382     		strh	r3, [r0, #18]
 656 0110 BFE7     		b	.L28
 657              	.L38:
 658 0112 C046     		.align	2
 659              	.L37:
 660 0114 80011A40 		.word	1075446144
 661 0118 84011A40 		.word	1075446148
 662 011c 00000000 		.word	.LANCHOR1
 663 0120 88011A40 		.word	1075446152
 664 0124 8C011A40 		.word	1075446156
 665 0128 90011A40 		.word	1075446160
 666 012c 94011A40 		.word	1075446164
 667 0130 98011A40 		.word	1075446168
 668 0134 9C011A40 		.word	1075446172
 669              		.cfi_endproc
 670              	.LFE35:
 671              		.size	eoc_isr, .-eoc_isr
 672              		.section	.text.startup.main,"ax",%progbits
 673              		.align	2
 674              		.global	main
 675              		.code	16
 676              		.thumb_func
 677              		.type	main, %function
 678              	main:
 679              	.LFB36:
 118:.\main.c      **** 
 119:.\main.c      **** 
 120:.\main.c      **** int main()
 121:.\main.c      **** {	
 680              		.loc 1 121 0
 681              		.cfi_startproc
 682              	.LVL0:
 683 0000 F0B5     		push	{r4, r5, r6, r7, lr}
 684              	.LCFI5:
ARM GAS  C:\Users\Computer\AppData\Local\Temp\ccQy7sfN.s 			page 17


 685              		.cfi_def_cfa_offset 20
 686              		.cfi_offset 4, -20
 687              		.cfi_offset 5, -16
 688              		.cfi_offset 6, -12
 689              		.cfi_offset 7, -8
 690              		.cfi_offset 14, -4
 691 0002 5F46     		mov	r7, fp
 692 0004 5646     		mov	r6, sl
 693 0006 4D46     		mov	r5, r9
 694 0008 4446     		mov	r4, r8
 695 000a F0B4     		push	{r4, r5, r6, r7}
 696              	.LCFI6:
 697              		.cfi_def_cfa_offset 36
 698              		.cfi_offset 8, -36
 699              		.cfi_offset 9, -32
 700              		.cfi_offset 10, -28
 701              		.cfi_offset 11, -24
 702 000c 8DB0     		sub	sp, sp, #52
 703              	.LCFI7:
 704              		.cfi_def_cfa_offset 88
 122:.\main.c      ****     RGB black;
 123:.\main.c      **** 	black.r = 0;
 124:.\main.c      **** 	black.g = 0;
 125:.\main.c      **** 	black.b = 0;
 126:.\main.c      **** 	int i = 0;
 127:.\main.c      **** 	RGB white;
 128:.\main.c      ****     RTC_Start();
 705              		.loc 1 128 0
 706 000e FFF7FEFF 		bl	RTC_Start
 707              	.LVL1:
 129:.\main.c      **** 	PCF8583 rtc;
 130:.\main.c      ****     uint8 I2C_Status;
 131:.\main.c      ****     I2C_Status = i2cWrite(0x00,0x04);
 708              		.loc 1 131 0
 709 0012 0421     		mov	r1, #4
 710 0014 0020     		mov	r0, #0
 711 0016 FFF7FEFF 		bl	i2cWrite
 712              	.LVL2:
 132:.\main.c      **** 	
 133:.\main.c      ****     
 134:.\main.c      **** 	localTimeInit(&rtc);
 713              		.loc 1 134 0
 714 001a 03A8     		add	r0, sp, #12
 715 001c FFF7FEFF 		bl	localTimeInit
 716              	.LVL3:
 135:.\main.c      ****     
 136:.\main.c      **** 	white.r = 0;
 137:.\main.c      **** 	white.g = 0;
 138:.\main.c      **** 	white.b = 0;
 139:.\main.c      **** 	
 140:.\main.c      **** 	RGB lotsOfColors[8];
 141:.\main.c      **** 	lotsOfColors[0].r = 1;
 142:.\main.c      **** 	lotsOfColors[0].g = 0;
 143:.\main.c      **** 	lotsOfColors[0].b = 0;
 144:.\main.c      **** 	
 145:.\main.c      **** 	lotsOfColors[1].r = 1;
 146:.\main.c      **** 	lotsOfColors[1].g = 1;
ARM GAS  C:\Users\Computer\AppData\Local\Temp\ccQy7sfN.s 			page 18


 147:.\main.c      **** 	lotsOfColors[1].b = 0;
 148:.\main.c      **** 	
 149:.\main.c      **** 	lotsOfColors[2].r = 0;
 150:.\main.c      **** 	lotsOfColors[2].g = 0;
 151:.\main.c      **** 	lotsOfColors[2].b = 1;
 152:.\main.c      **** 	
 153:.\main.c      **** 	lotsOfColors[3].r = 0;
 717              		.loc 1 153 0
 718 0020 2127     		mov	r7, #33
 141:.\main.c      **** 	lotsOfColors[0].r = 1;
 719              		.loc 1 141 0
 720 0022 0123     		mov	r3, #1
 151:.\main.c      **** 	lotsOfColors[2].b = 1;
 721              		.loc 1 151 0
 722 0024 08A9     		add	r1, sp, #32
 154:.\main.c      **** 	lotsOfColors[3].g = 1;
 723              		.loc 1 154 0
 724 0026 2224     		mov	r4, #34
 142:.\main.c      **** 	lotsOfColors[0].g = 0;
 725              		.loc 1 142 0
 726 0028 0022     		mov	r2, #0
 151:.\main.c      **** 	lotsOfColors[2].b = 1;
 727              		.loc 1 151 0
 728 002a 0B70     		strb	r3, [r1]
 153:.\main.c      **** 	lotsOfColors[3].r = 0;
 729              		.loc 1 153 0
 730 002c 6F44     		add	r7, r7, sp
 731              		.loc 1 154 0
 732 002e 6C44     		add	r4, r4, sp
 155:.\main.c      **** 	lotsOfColors[3].b = 1;
 733              		.loc 1 155 0
 734 0030 2325     		mov	r5, #35
 156:.\main.c      **** 	
 157:.\main.c      **** 	lotsOfColors[4].r = 1;
 158:.\main.c      **** 	lotsOfColors[4].g = 0;
 159:.\main.c      **** 	lotsOfColors[4].b = 1;
 735              		.loc 1 159 0
 736 0032 2621     		mov	r1, #38
 141:.\main.c      **** 	lotsOfColors[0].r = 1;
 737              		.loc 1 141 0
 738 0034 6846     		mov	r0, sp
 153:.\main.c      **** 	lotsOfColors[3].r = 0;
 739              		.loc 1 153 0
 740 0036 3A70     		strb	r2, [r7]
 154:.\main.c      **** 	lotsOfColors[3].g = 1;
 741              		.loc 1 154 0
 742 0038 2370     		strb	r3, [r4]
 155:.\main.c      **** 	lotsOfColors[3].b = 1;
 743              		.loc 1 155 0
 744 003a 6D44     		add	r5, r5, sp
 745              		.loc 1 159 0
 746 003c 6944     		add	r1, r1, sp
 160:.\main.c      **** 	
 161:.\main.c      **** 	lotsOfColors[5].r = 1;
 162:.\main.c      **** 	lotsOfColors[5].g = 1;
 747              		.loc 1 162 0
 748 003e 0AAC     		add	r4, sp, #40
ARM GAS  C:\Users\Computer\AppData\Local\Temp\ccQy7sfN.s 			page 19


 161:.\main.c      **** 	lotsOfColors[5].r = 1;
 749              		.loc 1 161 0
 750 0040 2727     		mov	r7, #39
 155:.\main.c      **** 	lotsOfColors[3].b = 1;
 751              		.loc 1 155 0
 752 0042 2B70     		strb	r3, [r5]
 142:.\main.c      **** 	lotsOfColors[0].g = 0;
 753              		.loc 1 142 0
 754 0044 4276     		strb	r2, [r0, #25]
 143:.\main.c      **** 	lotsOfColors[0].b = 0;
 755              		.loc 1 143 0
 756 0046 8276     		strb	r2, [r0, #26]
 147:.\main.c      **** 	lotsOfColors[1].b = 0;
 757              		.loc 1 147 0
 758 0048 4277     		strb	r2, [r0, #29]
 149:.\main.c      **** 	lotsOfColors[2].r = 0;
 759              		.loc 1 149 0
 760 004a 8277     		strb	r2, [r0, #30]
 150:.\main.c      **** 	lotsOfColors[2].g = 0;
 761              		.loc 1 150 0
 762 004c C277     		strb	r2, [r0, #31]
 159:.\main.c      **** 	lotsOfColors[4].b = 1;
 763              		.loc 1 159 0
 764 004e 0B70     		strb	r3, [r1]
 765              		.loc 1 162 0
 766 0050 2370     		strb	r3, [r4]
 141:.\main.c      **** 	lotsOfColors[0].r = 1;
 767              		.loc 1 141 0
 768 0052 0376     		strb	r3, [r0, #24]
 145:.\main.c      **** 	lotsOfColors[1].r = 1;
 769              		.loc 1 145 0
 770 0054 C376     		strb	r3, [r0, #27]
 146:.\main.c      **** 	lotsOfColors[1].g = 1;
 771              		.loc 1 146 0
 772 0056 0377     		strb	r3, [r0, #28]
 157:.\main.c      **** 	lotsOfColors[4].r = 1;
 773              		.loc 1 157 0
 774 0058 09AE     		add	r6, sp, #36
 161:.\main.c      **** 	lotsOfColors[5].r = 1;
 775              		.loc 1 161 0
 776 005a 6F44     		add	r7, r7, sp
 158:.\main.c      **** 	lotsOfColors[4].g = 0;
 777              		.loc 1 158 0
 778 005c 2520     		mov	r0, #37
 163:.\main.c      **** 	lotsOfColors[5].b = 1;
 779              		.loc 1 163 0
 780 005e 2925     		mov	r5, #41
 164:.\main.c      **** 	
 165:.\main.c      **** 	lotsOfColors[6].r = 2;
 166:.\main.c      **** 	lotsOfColors[6].g = 1;
 781              		.loc 1 166 0
 782 0060 2B21     		mov	r1, #43
 167:.\main.c      **** 	lotsOfColors[6].b = 1;
 168:.\main.c      **** 	
 169:.\main.c      **** 	lotsOfColors[7].r = 0;
 170:.\main.c      **** 	lotsOfColors[7].g = 2;
 783              		.loc 1 170 0
ARM GAS  C:\Users\Computer\AppData\Local\Temp\ccQy7sfN.s 			page 20


 784 0062 2E24     		mov	r4, #46
 166:.\main.c      **** 	lotsOfColors[6].g = 1;
 785              		.loc 1 166 0
 786 0064 6944     		add	r1, r1, sp
 161:.\main.c      **** 	lotsOfColors[5].r = 1;
 787              		.loc 1 161 0
 788 0066 3B70     		strb	r3, [r7]
 157:.\main.c      **** 	lotsOfColors[4].r = 1;
 789              		.loc 1 157 0
 790 0068 3370     		strb	r3, [r6]
 158:.\main.c      **** 	lotsOfColors[4].g = 0;
 791              		.loc 1 158 0
 792 006a 6844     		add	r0, r0, sp
 163:.\main.c      **** 	lotsOfColors[5].b = 1;
 793              		.loc 1 163 0
 794 006c 6D44     		add	r5, r5, sp
 165:.\main.c      **** 	lotsOfColors[6].r = 2;
 795              		.loc 1 165 0
 796 006e 0226     		mov	r6, #2
 797              		.loc 1 170 0
 798 0070 6C44     		add	r4, r4, sp
 167:.\main.c      **** 	lotsOfColors[6].b = 1;
 799              		.loc 1 167 0
 800 0072 0BAF     		add	r7, sp, #44
 166:.\main.c      **** 	lotsOfColors[6].g = 1;
 801              		.loc 1 166 0
 802 0074 0B70     		strb	r3, [r1]
 158:.\main.c      **** 	lotsOfColors[4].g = 0;
 803              		.loc 1 158 0
 804 0076 0270     		strb	r2, [r0]
 163:.\main.c      **** 	lotsOfColors[5].b = 1;
 805              		.loc 1 163 0
 806 0078 2B70     		strb	r3, [r5]
 167:.\main.c      **** 	lotsOfColors[6].b = 1;
 807              		.loc 1 167 0
 808 007a 3B70     		strb	r3, [r7]
 809              		.loc 1 170 0
 810 007c 2670     		strb	r6, [r4]
 165:.\main.c      **** 	lotsOfColors[6].r = 2;
 811              		.loc 1 165 0
 812 007e 2A20     		mov	r0, #42
 171:.\main.c      **** 	lotsOfColors[7].b = 0;
 172:.\main.c      **** 	
 173:.\main.c      **** 	clearScreen(matrix);
 813              		.loc 1 173 0
 814 0080 7D4C     		ldr	r4, .L112
 169:.\main.c      **** 	lotsOfColors[7].r = 0;
 815              		.loc 1 169 0
 816 0082 2D23     		mov	r3, #45
 171:.\main.c      **** 	lotsOfColors[7].b = 0;
 817              		.loc 1 171 0
 818 0084 2F25     		mov	r5, #47
 169:.\main.c      **** 	lotsOfColors[7].r = 0;
 819              		.loc 1 169 0
 820 0086 6B44     		add	r3, r3, sp
 165:.\main.c      **** 	lotsOfColors[6].r = 2;
 821              		.loc 1 165 0
ARM GAS  C:\Users\Computer\AppData\Local\Temp\ccQy7sfN.s 			page 21


 822 0088 6844     		add	r0, r0, sp
 171:.\main.c      **** 	lotsOfColors[7].b = 0;
 823              		.loc 1 171 0
 824 008a 6D44     		add	r5, r5, sp
 169:.\main.c      **** 	lotsOfColors[7].r = 0;
 825              		.loc 1 169 0
 826 008c 1A70     		strb	r2, [r3]
 171:.\main.c      **** 	lotsOfColors[7].b = 0;
 827              		.loc 1 171 0
 828 008e 2A70     		strb	r2, [r5]
 165:.\main.c      **** 	lotsOfColors[6].r = 2;
 829              		.loc 1 165 0
 830 0090 0670     		strb	r6, [r0]
 831              		.loc 1 173 0
 832 0092 201C     		mov	r0, r4
 174:.\main.c      **** 	
 175:.\main.c      **** 	LED_Matrix_1_Start();
 176:.\main.c      **** 	
 177:.\main.c      **** 	LED_Matrix_1_WriteControl(0x03);
 833              		.loc 1 177 0
 834 0094 794E     		ldr	r6, .L112+4
 173:.\main.c      **** 	clearScreen(matrix);
 835              		.loc 1 173 0
 836 0096 FFF7FEFF 		bl	clearScreen
 837              	.LVL4:
 175:.\main.c      **** 	LED_Matrix_1_Start();
 838              		.loc 1 175 0
 839 009a FFF7FEFF 		bl	LED_Matrix_1_Start
 840              	.LVL5:
 841              		.loc 1 177 0
 842 009e 0322     		mov	r2, #3
 843 00a0 3270     		strb	r2, [r6]
 178:.\main.c      **** 
 179:.\main.c      **** 	isr_2_StartEx(FIFO_EMPTY);
 844              		.loc 1 179 0
 845 00a2 7748     		ldr	r0, .L112+8
 846 00a4 FFF7FEFF 		bl	isr_2_StartEx
 847              	.LVL6:
 180:.\main.c      **** 	ADC_Start();
 848              		.loc 1 180 0
 849 00a8 FFF7FEFF 		bl	ADC_Start
 850              	.LVL7:
 181:.\main.c      **** 	ADC_StartConvert();
 851              		.loc 1 181 0
 852 00ac FFF7FEFF 		bl	ADC_StartConvert
 853              	.LVL8:
 182:.\main.c      **** 	eoc_StartEx(eoc_isr);
 854              		.loc 1 182 0
 855 00b0 7448     		ldr	r0, .L112+12
 856 00b2 FFF7FEFF 		bl	eoc_StartEx
 857              	.LVL9:
 183:.\main.c      ****     PB_StartEx(PB_ISR); 
 858              		.loc 1 183 0
 859 00b6 7448     		ldr	r0, .L112+16
 860 00b8 FFF7FEFF 		bl	PB_StartEx
 861              	.LVL10:
 184:.\main.c      **** 	
ARM GAS  C:\Users\Computer\AppData\Local\Temp\ccQy7sfN.s 			page 22


 185:.\main.c      **** 	
 186:.\main.c      **** 	CyGlobalIntEnable;
 862              		.loc 1 186 0
 863              	@ 186 ".\main.c" 1
 864 00bc 62B6     		CPSIE   i
 865              	@ 0 "" 2
 866              	.LVL11:
 867              		.code	16
 868 00be 734D     		ldr	r5, .L112+20
 187:.\main.c      **** 	int dataChange = 0;
 188:.\main.c      ****     int trial = 0;
 189:.\main.c      ****    
 190:.\main.c      **** 	for(;;)
 191:.\main.c      ****     { 	
 192:.\main.c      **** 		CyDelay(1);
 193:.\main.c      **** 		if(mode == 0)
 194:.\main.c      ****         {
 195:.\main.c      ****     		if(dataReady == 1)
 196:.\main.c      ****     		{
 197:.\main.c      ****     			dataChange = ifDataChange(&oldResult[0],&result[0]);
 869              		.loc 1 197 0
 870 00c0 1C21     		mov	r1, #28
 198:.\main.c      ****     			dataReady = 0;
 199:.\main.c      ****     			if(dataChange == 1 || trial == 0)
 200:.\main.c      ****     			{
 201:.\main.c      ****                     trial =0;
 202:.\main.c      ****     				for(i=0;i<8;i++)
 203:.\main.c      ****     				{
 204:.\main.c      ****     					oldResult[i] = ((uint8)(result[i]>>6)) & 0x1F;
 205:.\main.c      ****     				}
 206:.\main.c      ****                     scaleResult(&scaledResult[0],&oldResult[0]);
 871              		.loc 1 206 0
 872 00c2 2423     		mov	r3, #36
 197:.\main.c      ****     			dataChange = ifDataChange(&oldResult[0],&result[0]);
 873              		.loc 1 197 0
 874 00c4 4F19     		add	r7, r1, r5
 188:.\main.c      ****     int trial = 0;
 875              		.loc 1 188 0
 876 00c6 0020     		mov	r0, #0
 877              		.loc 1 206 0
 878 00c8 5A19     		add	r2, r3, r5
 879 00ca 714E     		ldr	r6, .L112+24
 188:.\main.c      ****     int trial = 0;
 880              		.loc 1 188 0
 881 00cc 8246     		mov	sl, r0
 197:.\main.c      ****     			dataChange = ifDataChange(&oldResult[0],&result[0]);
 882              		.loc 1 197 0
 883 00ce B946     		mov	r9, r7
 884              		.loc 1 206 0
 885 00d0 9046     		mov	r8, r2
 886 00d2 BB46     		mov	fp, r7
 887              	.LVL12:
 888              	.L108:
 192:.\main.c      **** 		CyDelay(1);
 889              		.loc 1 192 0
 890 00d4 0120     		mov	r0, #1
 891 00d6 FFF7FEFF 		bl	CyDelay
ARM GAS  C:\Users\Computer\AppData\Local\Temp\ccQy7sfN.s 			page 23


 892              	.LVL13:
 193:.\main.c      **** 		if(mode == 0)
 893              		.loc 1 193 0
 894 00da 3768     		ldr	r7, [r6]
 895 00dc 002F     		cmp	r7, #0
 896 00de 00D0     		beq	.LCB661
 897 00e0 AAE0     		b	.L41	@long jump
 898              	.LCB661:
 899              	.L109:
 195:.\main.c      ****     		if(dataReady == 1)
 900              		.loc 1 195 0
 901 00e2 2A7E     		ldrb	r2, [r5, #24]
 902 00e4 012A     		cmp	r2, #1
 903 00e6 F5D1     		bne	.L108
 197:.\main.c      ****     			dataChange = ifDataChange(&oldResult[0],&result[0]);
 904              		.loc 1 197 0
 905 00e8 291D     		add	r1, r5, #4
 906 00ea 4846     		mov	r0, r9
 907 00ec FFF7FEFF 		bl	ifDataChange
 908              	.LVL14:
 198:.\main.c      ****     			dataReady = 0;
 909              		.loc 1 198 0
 910 00f0 2F76     		strb	r7, [r5, #24]
 199:.\main.c      ****     			if(dataChange == 1 || trial == 0)
 911              		.loc 1 199 0
 912 00f2 0128     		cmp	r0, #1
 913 00f4 02D0     		beq	.L43
 199:.\main.c      ****     			if(dataChange == 1 || trial == 0)
 914              		.loc 1 199 0 is_stmt 0 discriminator 1
 915 00f6 5346     		mov	r3, sl
 916 00f8 002B     		cmp	r3, #0
 917 00fa EBD1     		bne	.L108
 918              	.L43:
 204:.\main.c      ****     					oldResult[i] = ((uint8)(result[i]>>6)) & 0x1F;
 919              		.loc 1 204 0 is_stmt 1
 920 00fc AF88     		ldrh	r7, [r5, #4]
 921 00fe 1F23     		mov	r3, #31
 922 0100 B809     		lsr	r0, r7, #6
 923              	.LVL15:
 924 0102 2F89     		ldrh	r7, [r5, #8]
 925 0104 E988     		ldrh	r1, [r5, #6]
 926 0106 1840     		and	r0, r3
 927 0108 2877     		strb	r0, [r5, #28]
 928              	.LVL16:
 929 010a B809     		lsr	r0, r7, #6
 930 010c AF89     		ldrh	r7, [r5, #12]
 931 010e 1840     		and	r0, r3
 932 0110 8A09     		lsr	r2, r1, #6
 933 0112 6989     		ldrh	r1, [r5, #10]
 934 0114 1A40     		and	r2, r3
 935 0116 A877     		strb	r0, [r5, #30]
 936 0118 B809     		lsr	r0, r7, #6
 937 011a 1840     		and	r0, r3
 938 011c 6A77     		strb	r2, [r5, #29]
 939              	.LVL17:
 940 011e 8A09     		lsr	r2, r1, #6
 941 0120 2021     		mov	r1, #32
ARM GAS  C:\Users\Computer\AppData\Local\Temp\ccQy7sfN.s 			page 24


 942 0122 6854     		strb	r0, [r5, r1]
 943 0124 1A40     		and	r2, r3
 944 0126 EA77     		strb	r2, [r5, #31]
 945              	.LVL18:
 946 0128 EA89     		ldrh	r2, [r5, #14]
 947 012a 2120     		mov	r0, #33
 948 012c 9709     		lsr	r7, r2, #6
 949 012e 1F40     		and	r7, r3
 950 0130 2F54     		strb	r7, [r5, r0]
 951              	.LVL19:
 952 0132 298A     		ldrh	r1, [r5, #16]
 953 0134 2222     		mov	r2, #34
 954 0136 8F09     		lsr	r7, r1, #6
 955 0138 1F40     		and	r7, r3
 956 013a AF54     		strb	r7, [r5, r2]
 957              	.LVL20:
 958 013c 688A     		ldrh	r0, [r5, #18]
 959 013e 2327     		mov	r7, #35
 960 0140 8109     		lsr	r1, r0, #6
 961 0142 0B40     		and	r3, r1
 962              		.loc 1 206 0
 963 0144 4046     		mov	r0, r8
 964 0146 5946     		mov	r1, fp
 204:.\main.c      ****     					oldResult[i] = ((uint8)(result[i]>>6)) & 0x1F;
 965              		.loc 1 204 0
 966 0148 EB55     		strb	r3, [r5, r7]
 967              	.LVL21:
 968              		.loc 1 206 0
 969 014a FFF7FEFF 		bl	scaleResult
 970              	.LVL22:
 207:.\main.c      ****     				for(i=0;i<8;i++)
 208:.\main.c      ****     				{
 209:.\main.c      ****     					drawblock(i,scaledResult[i],lotsOfColors[i],matrix);
 971              		.loc 1 209 0
 972 014e 2423     		mov	r3, #36
 973 0150 E956     		ldrsb	r1, [r5, r3]
 974 0152 0020     		mov	r0, #0
 975 0154 069A     		ldr	r2, [sp, #24]
 976 0156 231C     		mov	r3, r4
 977 0158 FFF7FEFF 		bl	drawblock
 978              	.LVL23:
 979 015c 6846     		mov	r0, sp
 980 015e 037F     		ldrb	r3, [r0, #28]
 981 0160 C77E     		ldrb	r7, [r0, #27]
 982 0162 2522     		mov	r2, #37
 983 0164 407F     		ldrb	r0, [r0, #29]
 984 0166 A956     		ldrsb	r1, [r5, r2]
 985 0168 1A02     		lsl	r2, r3, #8
 986 016a 3A43     		orr	r2, r7
 987 016c 0704     		lsl	r7, r0, #16
 988 016e 3A43     		orr	r2, r7
 989 0170 0120     		mov	r0, #1
 990 0172 231C     		mov	r3, r4
 991 0174 FFF7FEFF 		bl	drawblock
 992              	.LVL24:
 993 0178 08A8     		add	r0, sp, #32
 994 017a 0778     		ldrb	r7, [r0]
ARM GAS  C:\Users\Computer\AppData\Local\Temp\ccQy7sfN.s 			page 25


 995 017c 6A46     		mov	r2, sp
 996 017e D38B     		ldrh	r3, [r2, #30]
 997 0180 2621     		mov	r1, #38
 998 0182 3A04     		lsl	r2, r7, #16
 999 0184 1A43     		orr	r2, r3
 1000 0186 6956     		ldrsb	r1, [r5, r1]
 1001 0188 0220     		mov	r0, #2
 1002 018a 231C     		mov	r3, r4
 1003 018c FFF7FEFF 		bl	drawblock
 1004              	.LVL25:
 1005 0190 2220     		mov	r0, #34
 1006 0192 6844     		add	r0, r0, sp
 1007 0194 2122     		mov	r2, #33
 1008 0196 0778     		ldrb	r7, [r0]
 1009 0198 6A44     		add	r2, r2, sp
 1010 019a 1378     		ldrb	r3, [r2]
 1011 019c 3A02     		lsl	r2, r7, #8
 1012 019e 1A43     		orr	r2, r3
 1013 01a0 2323     		mov	r3, #35
 1014 01a2 6B44     		add	r3, r3, sp
 1015 01a4 1878     		ldrb	r0, [r3]
 1016 01a6 2721     		mov	r1, #39
 1017 01a8 0704     		lsl	r7, r0, #16
 1018 01aa 3A43     		orr	r2, r7
 1019 01ac 6956     		ldrsb	r1, [r5, r1]
 1020 01ae 0320     		mov	r0, #3
 1021 01b0 231C     		mov	r3, r4
 1022 01b2 FFF7FEFF 		bl	drawblock
 1023              	.LVL26:
 1024 01b6 2821     		mov	r1, #40
 1025 01b8 6956     		ldrsb	r1, [r5, r1]
 1026 01ba 0420     		mov	r0, #4
 1027 01bc 099A     		ldr	r2, [sp, #36]
 1028 01be 231C     		mov	r3, r4
 1029 01c0 FFF7FEFF 		bl	drawblock
 1030              	.LVL27:
 1031 01c4 0AAF     		add	r7, sp, #40
 1032 01c6 2922     		mov	r2, #41
 1033 01c8 2723     		mov	r3, #39
 1034 01ca A956     		ldrsb	r1, [r5, r2]
 1035 01cc 6B44     		add	r3, r3, sp
 1036 01ce 3A78     		ldrb	r2, [r7]
 1037 01d0 1878     		ldrb	r0, [r3]
 1038 01d2 2923     		mov	r3, #41
 1039 01d4 6B44     		add	r3, r3, sp
 1040 01d6 1202     		lsl	r2, r2, #8
 1041 01d8 0243     		orr	r2, r0
 1042 01da 1878     		ldrb	r0, [r3]
 1043 01dc 231C     		mov	r3, r4
 1044 01de 0704     		lsl	r7, r0, #16
 1045 01e0 3A43     		orr	r2, r7
 1046 01e2 0520     		mov	r0, #5
 1047 01e4 FFF7FEFF 		bl	drawblock
 1048              	.LVL28:
 1049 01e8 0BA8     		add	r0, sp, #44
 1050 01ea 0778     		ldrb	r7, [r0]
 1051 01ec 6A46     		mov	r2, sp
ARM GAS  C:\Users\Computer\AppData\Local\Temp\ccQy7sfN.s 			page 26


 1052 01ee 538D     		ldrh	r3, [r2, #42]
 1053 01f0 2A21     		mov	r1, #42
 1054 01f2 3A04     		lsl	r2, r7, #16
 1055 01f4 1A43     		orr	r2, r3
 1056 01f6 6956     		ldrsb	r1, [r5, r1]
 1057 01f8 0620     		mov	r0, #6
 1058 01fa 231C     		mov	r3, r4
 1059 01fc FFF7FEFF 		bl	drawblock
 1060              	.LVL29:
 1061 0200 2E20     		mov	r0, #46
 1062 0202 6844     		add	r0, r0, sp
 1063 0204 2D22     		mov	r2, #45
 1064 0206 0778     		ldrb	r7, [r0]
 1065 0208 6A44     		add	r2, r2, sp
 1066 020a 1378     		ldrb	r3, [r2]
 1067 020c 3A02     		lsl	r2, r7, #8
 1068 020e 1A43     		orr	r2, r3
 1069 0210 2F23     		mov	r3, #47
 1070 0212 6B44     		add	r3, r3, sp
 1071 0214 1878     		ldrb	r0, [r3]
 1072 0216 2B21     		mov	r1, #43
 1073 0218 0704     		lsl	r7, r0, #16
 1074 021a 3A43     		orr	r2, r7
 1075 021c 6956     		ldrsb	r1, [r5, r1]
 1076 021e 0720     		mov	r0, #7
 1077 0220 231C     		mov	r3, r4
 1078 0222 FFF7FEFF 		bl	drawblock
 1079              	.LVL30:
 201:.\main.c      ****                     trial =0;
 1080              		.loc 1 201 0
 1081 0226 0021     		mov	r1, #0
 192:.\main.c      **** 		CyDelay(1);
 1082              		.loc 1 192 0
 1083 0228 0120     		mov	r0, #1
 201:.\main.c      ****                     trial =0;
 1084              		.loc 1 201 0
 1085 022a 8A46     		mov	sl, r1
 1086              	.LVL31:
 192:.\main.c      **** 		CyDelay(1);
 1087              		.loc 1 192 0
 1088 022c FFF7FEFF 		bl	CyDelay
 1089              	.LVL32:
 193:.\main.c      **** 		if(mode == 0)
 1090              		.loc 1 193 0
 1091 0230 3768     		ldr	r7, [r6]
 1092 0232 002F     		cmp	r7, #0
 1093 0234 00D1     		bne	.LCB869
 1094 0236 54E7     		b	.L109	@long jump
 1095              	.LCB869:
 1096              	.LVL33:
 1097              	.L41:
 210:.\main.c      ****     				}
 211:.\main.c      ****     			}
 212:.\main.c      ****     		}
 213:.\main.c      ****         }
 214:.\main.c      ****         else if(mode==1)
 1098              		.loc 1 214 0
ARM GAS  C:\Users\Computer\AppData\Local\Temp\ccQy7sfN.s 			page 27


 1099 0238 012F     		cmp	r7, #1
 1100 023a 2BD0     		beq	.L110
 215:.\main.c      ****         {
 216:.\main.c      ****     		if(dataReady == 1)
 217:.\main.c      ****     		{
 218:.\main.c      ****     			dataChange = ifDataChange(&oldResult[0],&result[0]);
 219:.\main.c      ****     			dataReady = 0;
 220:.\main.c      ****     			if(dataChange == 1 || trial == 0)
 221:.\main.c      ****     			{
 222:.\main.c      ****                     trial = 1;
 223:.\main.c      ****     				for(i=0;i<8;i++)
 224:.\main.c      ****     				{
 225:.\main.c      ****     					if(oldResult[i]-0x1 > (((uint8)(result[i]>>6)) & 0x1F))
 226:.\main.c      ****                             oldResult[i] = oldResult[i]-0x1;
 227:.\main.c      ****                         else 
 228:.\main.c      ****                             oldResult[i] = ((uint8)(result[i]>>6)) & 0x1F;
 229:.\main.c      ****     				}
 230:.\main.c      ****                     scaleResult(&scaledResult[0],&oldResult[0]);
 231:.\main.c      ****     				for(i=0;i<8;i++)
 232:.\main.c      ****     				{
 233:.\main.c      ****                         drawblock(i,scaledResult[i],lotsOfColors[i],matrix);
 234:.\main.c      ****     				}
 235:.\main.c      ****     			}
 236:.\main.c      ****     		}
 237:.\main.c      ****         }  
 238:.\main.c      ****         else if(mode==2)
 1101              		.loc 1 238 0
 1102 023c 022F     		cmp	r7, #2
 1103 023e 00D1     		bne	.LCB877
 1104 0240 F6E0     		b	.L111	@long jump
 1105              	.LCB877:
 239:.\main.c      ****         {
 240:.\main.c      ****     		if(dataReady == 1)
 241:.\main.c      ****     		{
 242:.\main.c      ****     			dataChange = ifDataChange(&oldResult[0],&result[0]);
 243:.\main.c      ****     			dataReady = 0;
 244:.\main.c      ****     			if(dataChange == 1 || trial == 0)
 245:.\main.c      ****     			{
 246:.\main.c      ****                     trial = 1;
 247:.\main.c      ****     				for(i=0;i<8;i++)
 248:.\main.c      ****     				{
 249:.\main.c      ****     					if(oldResult[i]-0x1 > (((uint8)(result[i]>>6)) & 0x1F))
 250:.\main.c      ****                             oldResult[i] = oldResult[i]-0x1;
 251:.\main.c      ****                         else 
 252:.\main.c      ****                             oldResult[i] = ((uint8)(result[i]>>6)) & 0x1F;
 253:.\main.c      ****     				}
 254:.\main.c      ****                     scaleResult(&scaledResult[0],&oldResult[0]);
 255:.\main.c      ****     				for(i=0;i<8;i++)
 256:.\main.c      ****     				{
 257:.\main.c      ****                         //fallingLine(i,scaledResult[i],lotsOfColors[i],matrix);
 258:.\main.c      ****                         //drawblock(i,scaledResult[i],lotsOfColors[i],matrix);
 259:.\main.c      ****                         
 260:.\main.c      ****                         drawblock(i,0,lotsOfColors[i],matrix);
 261:.\main.c      ****                         if(scaledResult[i]>2)
 262:.\main.c      ****                         {
 263:.\main.c      ****                             drawFastHLine(i*4, scaledResult[i], 3,lotsOfColors[i], matrix);
 264:.\main.c      ****                         }
ARM GAS  C:\Users\Computer\AppData\Local\Temp\ccQy7sfN.s 			page 28


 265:.\main.c      ****                         else
 266:.\main.c      ****                         {
 267:.\main.c      ****                             drawFastHLine(i*4, 1, 3,lotsOfColors[i], matrix);
 268:.\main.c      ****                         }
 269:.\main.c      ****     				}
 270:.\main.c      ****     			}
 271:.\main.c      ****     		}
 272:.\main.c      ****         }  
 273:.\main.c      ****         else
 274:.\main.c      ****         {
 275:.\main.c      ****            RTC_Enable();
 1106              		.loc 1 275 0
 1107 0242 FFF7FEFF 		bl	RTC_Enable
 1108              	.LVL34:
 276:.\main.c      ****            clearScreen(matrix); 
 1109              		.loc 1 276 0
 1110 0246 201C     		mov	r0, r4
 1111 0248 FFF7FEFF 		bl	clearScreen
 1112              	.LVL35:
 277:.\main.c      ****            I2C_Status = getTime(&rtc);
 1113              		.loc 1 277 0
 1114 024c 03A8     		add	r0, sp, #12
 1115 024e FFF7FEFF 		bl	getTime
 1116              	.LVL36:
 278:.\main.c      ****            printTime(rtc.hour,rtc.minute,rtc.sec,lotsOfColors[2], matrix);
 1117              		.loc 1 278 0
 1118 0252 6B46     		mov	r3, sp
 1119 0254 6946     		mov	r1, sp
 1120 0256 9A7B     		ldrb	r2, [r3, #14]
 1121 0258 087B     		ldrb	r0, [r1, #12]
 1122 025a 497B     		ldrb	r1, [r1, #13]
 1123 025c 0094     		str	r4, [sp]
 1124 025e DF8B     		ldrh	r7, [r3, #30]
 1125 0260 08AB     		add	r3, sp, #32
 1126 0262 BC46     		mov	ip, r7
 1127 0264 1F78     		ldrb	r7, [r3]
 1128 0266 3B04     		lsl	r3, r7, #16
 1129 0268 6746     		mov	r7, ip
 1130 026a 3B43     		orr	r3, r7
 1131 026c FFF7FEFF 		bl	printTime
 1132              	.LVL37:
 279:.\main.c      ****            trial = 0;
 1133              		.loc 1 279 0
 1134 0270 0022     		mov	r2, #0
 1135 0272 9246     		mov	sl, r2
 1136 0274 2EE7     		b	.L108
 1137              	.L113:
 1138 0276 C046     		.align	2
 1139              	.L112:
 1140 0278 00000000 		.word	matrix
 1141 027c 71000F40 		.word	1074724977
 1142 0280 00000000 		.word	FIFO_EMPTY
 1143 0284 00000000 		.word	eoc_isr
 1144 0288 00000000 		.word	PB_ISR
 1145 028c 00000000 		.word	.LANCHOR1
 1146 0290 00000000 		.word	.LANCHOR0
 1147              	.LVL38:
ARM GAS  C:\Users\Computer\AppData\Local\Temp\ccQy7sfN.s 			page 29


 1148              	.L110:
 216:.\main.c      ****     		if(dataReady == 1)
 1149              		.loc 1 216 0
 1150 0294 297E     		ldrb	r1, [r5, #24]
 1151 0296 0129     		cmp	r1, #1
 1152 0298 00D0     		beq	.LCB925
 1153 029a 1BE7     		b	.L108	@long jump
 1154              	.LCB925:
 218:.\main.c      ****     			dataChange = ifDataChange(&oldResult[0],&result[0]);
 1155              		.loc 1 218 0
 1156 029c 291D     		add	r1, r5, #4
 1157 029e 4846     		mov	r0, r9
 1158 02a0 FFF7FEFF 		bl	ifDataChange
 1159              	.LVL39:
 219:.\main.c      ****     			dataReady = 0;
 1160              		.loc 1 219 0
 1161 02a4 0023     		mov	r3, #0
 1162 02a6 2B76     		strb	r3, [r5, #24]
 220:.\main.c      ****     			if(dataChange == 1 || trial == 0)
 1163              		.loc 1 220 0
 1164 02a8 0128     		cmp	r0, #1
 1165 02aa 03D0     		beq	.L45
 220:.\main.c      ****     			if(dataChange == 1 || trial == 0)
 1166              		.loc 1 220 0 is_stmt 0 discriminator 1
 1167 02ac 5246     		mov	r2, sl
 1168 02ae 002A     		cmp	r2, #0
 1169 02b0 00D0     		beq	.LCB937
 1170 02b2 0FE7     		b	.L108	@long jump
 1171              	.LCB937:
 1172              	.L45:
 225:.\main.c      ****     					if(oldResult[i]-0x1 > (((uint8)(result[i]>>6)) & 0x1F))
 1173              		.loc 1 225 0 is_stmt 1
 1174 02b4 2F7F     		ldrb	r7, [r5, #28]
 1175 02b6 A888     		ldrh	r0, [r5, #4]
 1176              	.LVL40:
 1177 02b8 013F     		sub	r7, r7, #1
 1178 02ba 4105     		lsl	r1, r0, #21
 1179 02bc CB0E     		lsr	r3, r1, #27
 1180 02be 9F42     		cmp	r7, r3
 1181 02c0 00DD     		ble	.LCB949
 1182 02c2 19E2     		b	.L46	@long jump
 1183              	.LCB949:
 228:.\main.c      ****                             oldResult[i] = ((uint8)(result[i]>>6)) & 0x1F;
 1184              		.loc 1 228 0
 1185 02c4 2B77     		strb	r3, [r5, #28]
 1186              	.L47:
 1187              	.LVL41:
 225:.\main.c      ****     					if(oldResult[i]-0x1 > (((uint8)(result[i]>>6)) & 0x1F))
 1188              		.loc 1 225 0
 1189 02c6 6F7F     		ldrb	r7, [r5, #29]
 1190 02c8 EA88     		ldrh	r2, [r5, #6]
 1191 02ca 013F     		sub	r7, r7, #1
 1192 02cc 5005     		lsl	r0, r2, #21
 1193 02ce C10E     		lsr	r1, r0, #27
 1194 02d0 8F42     		cmp	r7, r1
 1195 02d2 00DD     		ble	.LCB962
 1196 02d4 0EE2     		b	.L48	@long jump
ARM GAS  C:\Users\Computer\AppData\Local\Temp\ccQy7sfN.s 			page 30


 1197              	.LCB962:
 228:.\main.c      ****                             oldResult[i] = ((uint8)(result[i]>>6)) & 0x1F;
 1198              		.loc 1 228 0
 1199 02d6 6977     		strb	r1, [r5, #29]
 1200              	.L49:
 1201              	.LVL42:
 225:.\main.c      ****     					if(oldResult[i]-0x1 > (((uint8)(result[i]>>6)) & 0x1F))
 1202              		.loc 1 225 0
 1203 02d8 AB7F     		ldrb	r3, [r5, #30]
 1204 02da 2F89     		ldrh	r7, [r5, #8]
 1205 02dc 013B     		sub	r3, r3, #1
 1206 02de 7A05     		lsl	r2, r7, #21
 1207 02e0 D00E     		lsr	r0, r2, #27
 1208 02e2 8342     		cmp	r3, r0
 1209 02e4 00DD     		ble	.LCB975
 1210 02e6 03E2     		b	.L50	@long jump
 1211              	.LCB975:
 228:.\main.c      ****                             oldResult[i] = ((uint8)(result[i]>>6)) & 0x1F;
 1212              		.loc 1 228 0
 1213 02e8 A877     		strb	r0, [r5, #30]
 1214              	.L51:
 1215              	.LVL43:
 225:.\main.c      ****     					if(oldResult[i]-0x1 > (((uint8)(result[i]>>6)) & 0x1F))
 1216              		.loc 1 225 0
 1217 02ea E97F     		ldrb	r1, [r5, #31]
 1218 02ec 6B89     		ldrh	r3, [r5, #10]
 1219 02ee 0139     		sub	r1, r1, #1
 1220 02f0 5F05     		lsl	r7, r3, #21
 1221 02f2 FA0E     		lsr	r2, r7, #27
 1222 02f4 9142     		cmp	r1, r2
 1223 02f6 00DD     		ble	.LCB988
 1224 02f8 F8E1     		b	.L52	@long jump
 1225              	.LCB988:
 228:.\main.c      ****                             oldResult[i] = ((uint8)(result[i]>>6)) & 0x1F;
 1226              		.loc 1 228 0
 1227 02fa EA77     		strb	r2, [r5, #31]
 1228              	.L53:
 1229              	.LVL44:
 225:.\main.c      ****     					if(oldResult[i]-0x1 > (((uint8)(result[i]>>6)) & 0x1F))
 1230              		.loc 1 225 0
 1231 02fc 2020     		mov	r0, #32
 1232 02fe 2B5C     		ldrb	r3, [r5, r0]
 1233 0300 A989     		ldrh	r1, [r5, #12]
 1234 0302 013B     		sub	r3, r3, #1
 1235 0304 4F05     		lsl	r7, r1, #21
 1236 0306 FA0E     		lsr	r2, r7, #27
 1237 0308 9342     		cmp	r3, r2
 1238 030a 00DD     		ble	.LCB1002
 1239 030c ECE1     		b	.L54	@long jump
 1240              	.LCB1002:
 228:.\main.c      ****                             oldResult[i] = ((uint8)(result[i]>>6)) & 0x1F;
 1241              		.loc 1 228 0
 1242 030e 2A54     		strb	r2, [r5, r0]
 1243              	.L55:
 1244              	.LVL45:
 225:.\main.c      ****     					if(oldResult[i]-0x1 > (((uint8)(result[i]>>6)) & 0x1F))
 1245              		.loc 1 225 0
ARM GAS  C:\Users\Computer\AppData\Local\Temp\ccQy7sfN.s 			page 31


 1246 0310 2120     		mov	r0, #33
 1247 0312 2B5C     		ldrb	r3, [r5, r0]
 1248 0314 E989     		ldrh	r1, [r5, #14]
 1249 0316 013B     		sub	r3, r3, #1
 1250 0318 4F05     		lsl	r7, r1, #21
 1251 031a FA0E     		lsr	r2, r7, #27
 1252 031c 9342     		cmp	r3, r2
 1253 031e 00DD     		ble	.LCB1016
 1254 0320 E0E1     		b	.L56	@long jump
 1255              	.LCB1016:
 228:.\main.c      ****                             oldResult[i] = ((uint8)(result[i]>>6)) & 0x1F;
 1256              		.loc 1 228 0
 1257 0322 2A54     		strb	r2, [r5, r0]
 1258              	.L57:
 1259              	.LVL46:
 225:.\main.c      ****     					if(oldResult[i]-0x1 > (((uint8)(result[i]>>6)) & 0x1F))
 1260              		.loc 1 225 0
 1261 0324 2220     		mov	r0, #34
 1262 0326 2B5C     		ldrb	r3, [r5, r0]
 1263 0328 298A     		ldrh	r1, [r5, #16]
 1264 032a 013B     		sub	r3, r3, #1
 1265 032c 4F05     		lsl	r7, r1, #21
 1266 032e FA0E     		lsr	r2, r7, #27
 1267 0330 9342     		cmp	r3, r2
 1268 0332 00DD     		ble	.LCB1030
 1269 0334 D4E1     		b	.L58	@long jump
 1270              	.LCB1030:
 228:.\main.c      ****                             oldResult[i] = ((uint8)(result[i]>>6)) & 0x1F;
 1271              		.loc 1 228 0
 1272 0336 2A54     		strb	r2, [r5, r0]
 1273              	.L59:
 1274              	.LVL47:
 225:.\main.c      ****     					if(oldResult[i]-0x1 > (((uint8)(result[i]>>6)) & 0x1F))
 1275              		.loc 1 225 0
 1276 0338 2320     		mov	r0, #35
 1277 033a 2B5C     		ldrb	r3, [r5, r0]
 1278 033c 698A     		ldrh	r1, [r5, #18]
 1279 033e 013B     		sub	r3, r3, #1
 1280 0340 4F05     		lsl	r7, r1, #21
 1281 0342 FA0E     		lsr	r2, r7, #27
 1282 0344 9342     		cmp	r3, r2
 1283 0346 00DC     		bgt	.LCB1044
 1284 0348 C8E1     		b	.L60	@long jump
 1285              	.LCB1044:
 226:.\main.c      ****                             oldResult[i] = oldResult[i]-0x1;
 1286              		.loc 1 226 0
 1287 034a 2B54     		strb	r3, [r5, r0]
 1288              	.L61:
 1289              	.LVL48:
 230:.\main.c      ****                     scaleResult(&scaledResult[0],&oldResult[0]);
 1290              		.loc 1 230 0
 1291 034c 4046     		mov	r0, r8
 1292 034e 4946     		mov	r1, r9
 1293 0350 FFF7FEFF 		bl	scaleResult
 1294              	.LVL49:
 233:.\main.c      ****                         drawblock(i,scaledResult[i],lotsOfColors[i],matrix);
 1295              		.loc 1 233 0
ARM GAS  C:\Users\Computer\AppData\Local\Temp\ccQy7sfN.s 			page 32


 1296 0354 2420     		mov	r0, #36
 1297 0356 6F46     		mov	r7, sp
 1298 0358 2956     		ldrsb	r1, [r5, r0]
 1299 035a 069A     		ldr	r2, [sp, #24]
 1300 035c 0020     		mov	r0, #0
 1301 035e 231C     		mov	r3, r4
 1302 0360 FFF7FEFF 		bl	drawblock
 1303              	.LVL50:
 1304 0364 3A7F     		ldrb	r2, [r7, #28]
 1305 0366 2523     		mov	r3, #37
 1306 0368 F87E     		ldrb	r0, [r7, #27]
 1307 036a E956     		ldrsb	r1, [r5, r3]
 1308 036c 7B7F     		ldrb	r3, [r7, #29]
 1309 036e 1202     		lsl	r2, r2, #8
 1310 0370 0243     		orr	r2, r0
 1311 0372 1804     		lsl	r0, r3, #16
 1312 0374 0243     		orr	r2, r0
 1313 0376 231C     		mov	r3, r4
 1314 0378 0120     		mov	r0, #1
 1315 037a FFF7FEFF 		bl	drawblock
 1316              	.LVL51:
 1317 037e 08AA     		add	r2, sp, #32
 1318 0380 1378     		ldrb	r3, [r2]
 1319 0382 FF8B     		ldrh	r7, [r7, #30]
 1320 0384 1A04     		lsl	r2, r3, #16
 1321 0386 2621     		mov	r1, #38
 1322 0388 3A43     		orr	r2, r7
 1323 038a 6956     		ldrsb	r1, [r5, r1]
 1324 038c 0220     		mov	r0, #2
 1325 038e 231C     		mov	r3, r4
 1326 0390 FFF7FEFF 		bl	drawblock
 1327              	.LVL52:
 1328 0394 2222     		mov	r2, #34
 1329 0396 2720     		mov	r0, #39
 1330 0398 6A44     		add	r2, r2, sp
 1331 039a 2127     		mov	r7, #33
 1332 039c 2956     		ldrsb	r1, [r5, r0]
 1333 039e 6F44     		add	r7, r7, sp
 1334 03a0 1078     		ldrb	r0, [r2]
 1335 03a2 3B78     		ldrb	r3, [r7]
 1336 03a4 2327     		mov	r7, #35
 1337 03a6 0202     		lsl	r2, r0, #8
 1338 03a8 6F44     		add	r7, r7, sp
 1339 03aa 1A43     		orr	r2, r3
 1340 03ac 3B78     		ldrb	r3, [r7]
 1341 03ae 2727     		mov	r7, #39
 1342 03b0 1804     		lsl	r0, r3, #16
 1343 03b2 0243     		orr	r2, r0
 1344 03b4 231C     		mov	r3, r4
 1345 03b6 0320     		mov	r0, #3
 1346 03b8 FFF7FEFF 		bl	drawblock
 1347              	.LVL53:
 1348 03bc 2821     		mov	r1, #40
 1349 03be 6956     		ldrsb	r1, [r5, r1]
 1350 03c0 0420     		mov	r0, #4
 1351 03c2 099A     		ldr	r2, [sp, #36]
 1352 03c4 231C     		mov	r3, r4
ARM GAS  C:\Users\Computer\AppData\Local\Temp\ccQy7sfN.s 			page 33


 1353 03c6 FFF7FEFF 		bl	drawblock
 1354              	.LVL54:
 1355 03ca 2922     		mov	r2, #41
 1356 03cc 0AA8     		add	r0, sp, #40
 1357 03ce A956     		ldrsb	r1, [r5, r2]
 1358 03d0 6F44     		add	r7, r7, sp
 1359 03d2 0278     		ldrb	r2, [r0]
 1360 03d4 3B78     		ldrb	r3, [r7]
 1361 03d6 2927     		mov	r7, #41
 1362 03d8 6F44     		add	r7, r7, sp
 1363 03da 1202     		lsl	r2, r2, #8
 1364 03dc 1A43     		orr	r2, r3
 1365 03de 3B78     		ldrb	r3, [r7]
 1366 03e0 0BAF     		add	r7, sp, #44
 1367 03e2 1804     		lsl	r0, r3, #16
 1368 03e4 0243     		orr	r2, r0
 1369 03e6 231C     		mov	r3, r4
 1370 03e8 0520     		mov	r0, #5
 1371 03ea FFF7FEFF 		bl	drawblock
 1372              	.LVL55:
 1373 03ee 3878     		ldrb	r0, [r7]
 1374 03f0 6A46     		mov	r2, sp
 1375 03f2 538D     		ldrh	r3, [r2, #42]
 1376 03f4 2A21     		mov	r1, #42
 1377 03f6 0204     		lsl	r2, r0, #16
 1378 03f8 1A43     		orr	r2, r3
 1379 03fa 6956     		ldrsb	r1, [r5, r1]
 1380 03fc 0620     		mov	r0, #6
 1381 03fe 231C     		mov	r3, r4
 1382 0400 2E27     		mov	r7, #46
 1383 0402 FFF7FEFF 		bl	drawblock
 1384              	.LVL56:
 1385 0406 6F44     		add	r7, r7, sp
 1386 0408 2D22     		mov	r2, #45
 1387 040a 3878     		ldrb	r0, [r7]
 1388 040c 6A44     		add	r2, r2, sp
 1389 040e 1378     		ldrb	r3, [r2]
 1390 0410 0202     		lsl	r2, r0, #8
 1391 0412 1A43     		orr	r2, r3
 1392 0414 2F23     		mov	r3, #47
 1393 0416 6B44     		add	r3, r3, sp
 1394 0418 1F78     		ldrb	r7, [r3]
 1395 041a 2B21     		mov	r1, #43
 1396 041c 3804     		lsl	r0, r7, #16
 1397 041e 0243     		orr	r2, r0
 1398 0420 6956     		ldrsb	r1, [r5, r1]
 1399 0422 0720     		mov	r0, #7
 1400 0424 231C     		mov	r3, r4
 1401 0426 FFF7FEFF 		bl	drawblock
 1402              	.LVL57:
 1403              	.L96:
 222:.\main.c      ****                     trial = 1;
 1404              		.loc 1 222 0
 1405 042a 0121     		mov	r1, #1
 1406 042c 8A46     		mov	sl, r1
 1407              	.LVL58:
 1408 042e 51E6     		b	.L108
ARM GAS  C:\Users\Computer\AppData\Local\Temp\ccQy7sfN.s 			page 34


 1409              	.LVL59:
 1410              	.L111:
 240:.\main.c      ****     		if(dataReady == 1)
 1411              		.loc 1 240 0
 1412 0430 287E     		ldrb	r0, [r5, #24]
 1413 0432 0128     		cmp	r0, #1
 1414 0434 00D0     		beq	.LCB1195
 1415 0436 4DE6     		b	.L108	@long jump
 1416              	.LCB1195:
 242:.\main.c      ****     			dataChange = ifDataChange(&oldResult[0],&result[0]);
 1417              		.loc 1 242 0
 1418 0438 291D     		add	r1, r5, #4
 1419 043a 4846     		mov	r0, r9
 1420 043c FFF7FEFF 		bl	ifDataChange
 1421              	.LVL60:
 243:.\main.c      ****     			dataReady = 0;
 1422              		.loc 1 243 0
 1423 0440 0021     		mov	r1, #0
 1424 0442 2976     		strb	r1, [r5, #24]
 244:.\main.c      ****     			if(dataChange == 1 || trial == 0)
 1425              		.loc 1 244 0
 1426 0444 0128     		cmp	r0, #1
 1427 0446 03D0     		beq	.L63
 244:.\main.c      ****     			if(dataChange == 1 || trial == 0)
 1428              		.loc 1 244 0 is_stmt 0 discriminator 1
 1429 0448 5346     		mov	r3, sl
 1430 044a 002B     		cmp	r3, #0
 1431 044c 00D0     		beq	.LCB1207
 1432 044e 41E6     		b	.L108	@long jump
 1433              	.LCB1207:
 1434              	.L63:
 249:.\main.c      ****     					if(oldResult[i]-0x1 > (((uint8)(result[i]>>6)) & 0x1F))
 1435              		.loc 1 249 0 is_stmt 1
 1436 0450 2F7F     		ldrb	r7, [r5, #28]
 1437 0452 AA88     		ldrh	r2, [r5, #4]
 1438 0454 013F     		sub	r7, r7, #1
 1439 0456 5005     		lsl	r0, r2, #21
 1440              	.LVL61:
 1441 0458 C10E     		lsr	r1, r0, #27
 1442 045a 8F42     		cmp	r7, r1
 1443 045c 00DD     		ble	.LCB1219
 1444 045e CFE1     		b	.L64	@long jump
 1445              	.LCB1219:
 252:.\main.c      ****                             oldResult[i] = ((uint8)(result[i]>>6)) & 0x1F;
 1446              		.loc 1 252 0
 1447 0460 2977     		strb	r1, [r5, #28]
 1448              	.L65:
 1449              	.LVL62:
 249:.\main.c      ****     					if(oldResult[i]-0x1 > (((uint8)(result[i]>>6)) & 0x1F))
 1450              		.loc 1 249 0
 1451 0462 6B7F     		ldrb	r3, [r5, #29]
 1452 0464 EF88     		ldrh	r7, [r5, #6]
 1453 0466 013B     		sub	r3, r3, #1
 1454 0468 7A05     		lsl	r2, r7, #21
 1455 046a D00E     		lsr	r0, r2, #27
 1456 046c 8342     		cmp	r3, r0
 1457 046e 00DD     		ble	.LCB1232
ARM GAS  C:\Users\Computer\AppData\Local\Temp\ccQy7sfN.s 			page 35


 1458 0470 C4E1     		b	.L66	@long jump
 1459              	.LCB1232:
 252:.\main.c      ****                             oldResult[i] = ((uint8)(result[i]>>6)) & 0x1F;
 1460              		.loc 1 252 0
 1461 0472 6877     		strb	r0, [r5, #29]
 1462              	.L67:
 1463              	.LVL63:
 249:.\main.c      ****     					if(oldResult[i]-0x1 > (((uint8)(result[i]>>6)) & 0x1F))
 1464              		.loc 1 249 0
 1465 0474 A97F     		ldrb	r1, [r5, #30]
 1466 0476 2B89     		ldrh	r3, [r5, #8]
 1467 0478 0139     		sub	r1, r1, #1
 1468 047a 5F05     		lsl	r7, r3, #21
 1469 047c FA0E     		lsr	r2, r7, #27
 1470 047e 9142     		cmp	r1, r2
 1471 0480 00DD     		ble	.LCB1245
 1472 0482 B9E1     		b	.L68	@long jump
 1473              	.LCB1245:
 252:.\main.c      ****                             oldResult[i] = ((uint8)(result[i]>>6)) & 0x1F;
 1474              		.loc 1 252 0
 1475 0484 AA77     		strb	r2, [r5, #30]
 1476              	.L69:
 1477              	.LVL64:
 249:.\main.c      ****     					if(oldResult[i]-0x1 > (((uint8)(result[i]>>6)) & 0x1F))
 1478              		.loc 1 249 0
 1479 0486 E87F     		ldrb	r0, [r5, #31]
 1480 0488 6989     		ldrh	r1, [r5, #10]
 1481 048a 0138     		sub	r0, r0, #1
 1482 048c 4B05     		lsl	r3, r1, #21
 1483 048e DF0E     		lsr	r7, r3, #27
 1484 0490 B842     		cmp	r0, r7
 1485 0492 00DD     		ble	.LCB1258
 1486 0494 AEE1     		b	.L70	@long jump
 1487              	.LCB1258:
 252:.\main.c      ****                             oldResult[i] = ((uint8)(result[i]>>6)) & 0x1F;
 1488              		.loc 1 252 0
 1489 0496 EF77     		strb	r7, [r5, #31]
 1490              	.L71:
 1491              	.LVL65:
 249:.\main.c      ****     					if(oldResult[i]-0x1 > (((uint8)(result[i]>>6)) & 0x1F))
 1492              		.loc 1 249 0
 1493 0498 2020     		mov	r0, #32
 1494 049a 2A5C     		ldrb	r2, [r5, r0]
 1495 049c A989     		ldrh	r1, [r5, #12]
 1496 049e 013A     		sub	r2, r2, #1
 1497 04a0 4B05     		lsl	r3, r1, #21
 1498 04a2 DF0E     		lsr	r7, r3, #27
 1499 04a4 BA42     		cmp	r2, r7
 1500 04a6 00DD     		ble	.LCB1272
 1501 04a8 A2E1     		b	.L72	@long jump
 1502              	.LCB1272:
 252:.\main.c      ****                             oldResult[i] = ((uint8)(result[i]>>6)) & 0x1F;
 1503              		.loc 1 252 0
 1504 04aa 2F54     		strb	r7, [r5, r0]
 1505              	.L73:
 1506              	.LVL66:
 249:.\main.c      ****     					if(oldResult[i]-0x1 > (((uint8)(result[i]>>6)) & 0x1F))
ARM GAS  C:\Users\Computer\AppData\Local\Temp\ccQy7sfN.s 			page 36


 1507              		.loc 1 249 0
 1508 04ac 2120     		mov	r0, #33
 1509 04ae 2A5C     		ldrb	r2, [r5, r0]
 1510 04b0 E989     		ldrh	r1, [r5, #14]
 1511 04b2 013A     		sub	r2, r2, #1
 1512 04b4 4B05     		lsl	r3, r1, #21
 1513 04b6 DF0E     		lsr	r7, r3, #27
 1514 04b8 BA42     		cmp	r2, r7
 1515 04ba 00DD     		ble	.LCB1286
 1516 04bc 96E1     		b	.L74	@long jump
 1517              	.LCB1286:
 252:.\main.c      ****                             oldResult[i] = ((uint8)(result[i]>>6)) & 0x1F;
 1518              		.loc 1 252 0
 1519 04be 2F54     		strb	r7, [r5, r0]
 1520              	.L75:
 1521              	.LVL67:
 249:.\main.c      ****     					if(oldResult[i]-0x1 > (((uint8)(result[i]>>6)) & 0x1F))
 1522              		.loc 1 249 0
 1523 04c0 2220     		mov	r0, #34
 1524 04c2 2A5C     		ldrb	r2, [r5, r0]
 1525 04c4 298A     		ldrh	r1, [r5, #16]
 1526 04c6 013A     		sub	r2, r2, #1
 1527 04c8 4B05     		lsl	r3, r1, #21
 1528 04ca DF0E     		lsr	r7, r3, #27
 1529 04cc BA42     		cmp	r2, r7
 1530 04ce 00DD     		ble	.LCB1300
 1531 04d0 8AE1     		b	.L76	@long jump
 1532              	.LCB1300:
 252:.\main.c      ****                             oldResult[i] = ((uint8)(result[i]>>6)) & 0x1F;
 1533              		.loc 1 252 0
 1534 04d2 2F54     		strb	r7, [r5, r0]
 1535              	.L77:
 1536              	.LVL68:
 249:.\main.c      ****     					if(oldResult[i]-0x1 > (((uint8)(result[i]>>6)) & 0x1F))
 1537              		.loc 1 249 0
 1538 04d4 2320     		mov	r0, #35
 1539 04d6 295C     		ldrb	r1, [r5, r0]
 1540 04d8 6A8A     		ldrh	r2, [r5, #18]
 1541 04da 0139     		sub	r1, r1, #1
 1542 04dc 5305     		lsl	r3, r2, #21
 1543 04de DF0E     		lsr	r7, r3, #27
 1544 04e0 B942     		cmp	r1, r7
 1545 04e2 00DC     		bgt	.LCB1314
 1546 04e4 7EE1     		b	.L78	@long jump
 1547              	.LCB1314:
 250:.\main.c      ****                             oldResult[i] = oldResult[i]-0x1;
 1548              		.loc 1 250 0
 1549 04e6 2954     		strb	r1, [r5, r0]
 1550              	.L79:
 1551              	.LVL69:
 254:.\main.c      ****                     scaleResult(&scaledResult[0],&oldResult[0]);
 1552              		.loc 1 254 0
 1553 04e8 4046     		mov	r0, r8
 1554 04ea 4946     		mov	r1, r9
 1555 04ec FFF7FEFF 		bl	scaleResult
 1556              	.LVL70:
 260:.\main.c      ****                         drawblock(i,0,lotsOfColors[i],matrix);
ARM GAS  C:\Users\Computer\AppData\Local\Temp\ccQy7sfN.s 			page 37


 1557              		.loc 1 260 0
 1558 04f0 0020     		mov	r0, #0
 1559 04f2 0021     		mov	r1, #0
 1560 04f4 069A     		ldr	r2, [sp, #24]
 1561 04f6 231C     		mov	r3, r4
 1562 04f8 FFF7FEFF 		bl	drawblock
 1563              	.LVL71:
 261:.\main.c      ****                         if(scaledResult[i]>2)
 1564              		.loc 1 261 0
 1565 04fc 2420     		mov	r0, #36
 1566 04fe 295C     		ldrb	r1, [r5, r0]
 1567 0500 0229     		cmp	r1, #2
 1568 0502 00D9     		bls	.LCB1333
 1569 0504 66E1     		b	.L80	@long jump
 1570              	.LCB1333:
 267:.\main.c      ****                             drawFastHLine(i*4, 1, 3,lotsOfColors[i], matrix);
 1571              		.loc 1 267 0
 1572 0506 0094     		str	r4, [sp]
 1573 0508 0020     		mov	r0, #0
 1574 050a 0121     		mov	r1, #1
 1575 050c 0322     		mov	r2, #3
 1576 050e 069B     		ldr	r3, [sp, #24]
 1577 0510 FFF7FEFF 		bl	drawFastHLine
 1578              	.LVL72:
 1579              	.L81:
 260:.\main.c      ****                         drawblock(i,0,lotsOfColors[i],matrix);
 1580              		.loc 1 260 0
 1581 0514 6F46     		mov	r7, sp
 1582 0516 3A7F     		ldrb	r2, [r7, #28]
 1583 0518 FB7E     		ldrb	r3, [r7, #27]
 1584 051a 787F     		ldrb	r0, [r7, #29]
 1585 051c 1202     		lsl	r2, r2, #8
 1586 051e 0104     		lsl	r1, r0, #16
 1587 0520 1A43     		orr	r2, r3
 1588 0522 0A43     		orr	r2, r1
 1589 0524 231C     		mov	r3, r4
 1590 0526 0120     		mov	r0, #1
 1591 0528 0021     		mov	r1, #0
 1592 052a FFF7FEFF 		bl	drawblock
 1593              	.LVL73:
 261:.\main.c      ****                         if(scaledResult[i]>2)
 1594              		.loc 1 261 0
 1595 052e 2523     		mov	r3, #37
 1596 0530 EA5C     		ldrb	r2, [r5, r3]
 1597 0532 022A     		cmp	r2, #2
 1598 0534 00D9     		bls	.LCB1362
 1599 0536 3EE1     		b	.L82	@long jump
 1600              	.LCB1362:
 267:.\main.c      ****                             drawFastHLine(i*4, 1, 3,lotsOfColors[i], matrix);
 1601              		.loc 1 267 0
 1602 0538 0094     		str	r4, [sp]
 1603 053a 397F     		ldrb	r1, [r7, #28]
 1604 053c F87E     		ldrb	r0, [r7, #27]
 1605 053e 7F7F     		ldrb	r7, [r7, #29]
 1606 0540 0B02     		lsl	r3, r1, #8
 1607 0542 0343     		orr	r3, r0
 1608 0544 3A04     		lsl	r2, r7, #16
ARM GAS  C:\Users\Computer\AppData\Local\Temp\ccQy7sfN.s 			page 38


 1609 0546 1343     		orr	r3, r2
 1610 0548 0420     		mov	r0, #4
 1611 054a 0121     		mov	r1, #1
 1612 054c 0322     		mov	r2, #3
 1613 054e FFF7FEFF 		bl	drawFastHLine
 1614              	.LVL74:
 1615              	.L83:
 260:.\main.c      ****                         drawblock(i,0,lotsOfColors[i],matrix);
 1616              		.loc 1 260 0
 1617 0552 08AF     		add	r7, sp, #32
 1618 0554 6946     		mov	r1, sp
 1619 0556 3A78     		ldrb	r2, [r7]
 1620 0558 CB8B     		ldrh	r3, [r1, #30]
 1621 055a 1204     		lsl	r2, r2, #16
 1622 055c 1A43     		orr	r2, r3
 1623 055e 0220     		mov	r0, #2
 1624 0560 0021     		mov	r1, #0
 1625 0562 231C     		mov	r3, r4
 1626 0564 FFF7FEFF 		bl	drawblock
 1627              	.LVL75:
 261:.\main.c      ****                         if(scaledResult[i]>2)
 1628              		.loc 1 261 0
 1629 0568 2620     		mov	r0, #38
 1630 056a 295C     		ldrb	r1, [r5, r0]
 1631 056c 0229     		cmp	r1, #2
 1632 056e 00D9     		bls	.LCB1397
 1633 0570 14E1     		b	.L84	@long jump
 1634              	.LCB1397:
 267:.\main.c      ****                             drawFastHLine(i*4, 1, 3,lotsOfColors[i], matrix);
 1635              		.loc 1 267 0
 1636 0572 0094     		str	r4, [sp]
 1637 0574 08AA     		add	r2, sp, #32
 1638 0576 1078     		ldrb	r0, [r2]
 1639 0578 6B46     		mov	r3, sp
 1640 057a DF8B     		ldrh	r7, [r3, #30]
 1641 057c 0304     		lsl	r3, r0, #16
 1642 057e 3B43     		orr	r3, r7
 1643 0580 0820     		mov	r0, #8
 1644 0582 0121     		mov	r1, #1
 1645 0584 0322     		mov	r2, #3
 1646 0586 FFF7FEFF 		bl	drawFastHLine
 1647              	.LVL76:
 1648              	.L85:
 260:.\main.c      ****                         drawblock(i,0,lotsOfColors[i],matrix);
 1649              		.loc 1 260 0
 1650 058a 2222     		mov	r2, #34
 1651 058c 6A44     		add	r2, r2, sp
 1652 058e 2121     		mov	r1, #33
 1653 0590 2320     		mov	r0, #35
 1654 0592 1778     		ldrb	r7, [r2]
 1655 0594 6944     		add	r1, r1, sp
 1656 0596 6844     		add	r0, r0, sp
 1657 0598 0B78     		ldrb	r3, [r1]
 1658 059a 0178     		ldrb	r1, [r0]
 1659 059c 3A02     		lsl	r2, r7, #8
 1660 059e 1A43     		orr	r2, r3
 1661 05a0 0B04     		lsl	r3, r1, #16
ARM GAS  C:\Users\Computer\AppData\Local\Temp\ccQy7sfN.s 			page 39


 1662 05a2 1A43     		orr	r2, r3
 1663 05a4 0320     		mov	r0, #3
 1664 05a6 0021     		mov	r1, #0
 1665 05a8 231C     		mov	r3, r4
 1666 05aa FFF7FEFF 		bl	drawblock
 1667              	.LVL77:
 261:.\main.c      ****                         if(scaledResult[i]>2)
 1668              		.loc 1 261 0
 1669 05ae 2722     		mov	r2, #39
 1670 05b0 AF5C     		ldrb	r7, [r5, r2]
 1671 05b2 022F     		cmp	r7, #2
 1672 05b4 00D9     		bls	.LCB1438
 1673 05b6 DDE0     		b	.L86	@long jump
 1674              	.LCB1438:
 267:.\main.c      ****                             drawFastHLine(i*4, 1, 3,lotsOfColors[i], matrix);
 1675              		.loc 1 267 0
 1676 05b8 2221     		mov	r1, #34
 1677 05ba 0094     		str	r4, [sp]
 1678 05bc 6944     		add	r1, r1, sp
 1679 05be 2120     		mov	r0, #33
 1680 05c0 2327     		mov	r7, #35
 1681 05c2 6844     		add	r0, r0, sp
 1682 05c4 0B78     		ldrb	r3, [r1]
 1683 05c6 6F44     		add	r7, r7, sp
 1684 05c8 0278     		ldrb	r2, [r0]
 1685 05ca 3878     		ldrb	r0, [r7]
 1686 05cc 1B02     		lsl	r3, r3, #8
 1687 05ce 1343     		orr	r3, r2
 1688 05d0 0204     		lsl	r2, r0, #16
 1689 05d2 1343     		orr	r3, r2
 1690 05d4 0C20     		mov	r0, #12
 1691 05d6 0121     		mov	r1, #1
 1692 05d8 0322     		mov	r2, #3
 1693 05da FFF7FEFF 		bl	drawFastHLine
 1694              	.LVL78:
 1695              	.L87:
 260:.\main.c      ****                         drawblock(i,0,lotsOfColors[i],matrix);
 1696              		.loc 1 260 0
 1697 05de 0021     		mov	r1, #0
 1698 05e0 231C     		mov	r3, r4
 1699 05e2 0420     		mov	r0, #4
 1700 05e4 099A     		ldr	r2, [sp, #36]
 1701 05e6 FFF7FEFF 		bl	drawblock
 1702              	.LVL79:
 261:.\main.c      ****                         if(scaledResult[i]>2)
 1703              		.loc 1 261 0
 1704 05ea 2821     		mov	r1, #40
 1705 05ec 6B5C     		ldrb	r3, [r5, r1]
 1706 05ee 022B     		cmp	r3, #2
 1707 05f0 00D9     		bls	.LCB1472
 1708 05f2 B7E0     		b	.L88	@long jump
 1709              	.LCB1472:
 267:.\main.c      ****                             drawFastHLine(i*4, 1, 3,lotsOfColors[i], matrix);
 1710              		.loc 1 267 0
 1711 05f4 0094     		str	r4, [sp]
 1712 05f6 1020     		mov	r0, #16
 1713 05f8 0121     		mov	r1, #1
ARM GAS  C:\Users\Computer\AppData\Local\Temp\ccQy7sfN.s 			page 40


 1714 05fa 0322     		mov	r2, #3
 1715 05fc 099B     		ldr	r3, [sp, #36]
 1716 05fe FFF7FEFF 		bl	drawFastHLine
 1717              	.LVL80:
 1718              	.L89:
 260:.\main.c      ****                         drawblock(i,0,lotsOfColors[i],matrix);
 1719              		.loc 1 260 0
 1720 0602 0AAF     		add	r7, sp, #40
 1721 0604 2720     		mov	r0, #39
 1722 0606 2923     		mov	r3, #41
 1723 0608 3A78     		ldrb	r2, [r7]
 1724 060a 6844     		add	r0, r0, sp
 1725 060c 6B44     		add	r3, r3, sp
 1726 060e 0178     		ldrb	r1, [r0]
 1727 0610 1878     		ldrb	r0, [r3]
 1728 0612 1202     		lsl	r2, r2, #8
 1729 0614 0A43     		orr	r2, r1
 1730 0616 0104     		lsl	r1, r0, #16
 1731 0618 0A43     		orr	r2, r1
 1732 061a 0520     		mov	r0, #5
 1733 061c 0021     		mov	r1, #0
 1734 061e 231C     		mov	r3, r4
 261:.\main.c      ****                         if(scaledResult[i]>2)
 1735              		.loc 1 261 0
 1736 0620 2927     		mov	r7, #41
 260:.\main.c      ****                         drawblock(i,0,lotsOfColors[i],matrix);
 1737              		.loc 1 260 0
 1738 0622 FFF7FEFF 		bl	drawblock
 1739              	.LVL81:
 261:.\main.c      ****                         if(scaledResult[i]>2)
 1740              		.loc 1 261 0
 1741 0626 EA5D     		ldrb	r2, [r5, r7]
 1742 0628 022A     		cmp	r2, #2
 1743 062a 00D9     		bls	.LCB1505
 1744 062c 87E0     		b	.L90	@long jump
 1745              	.LCB1505:
 267:.\main.c      ****                             drawFastHLine(i*4, 1, 3,lotsOfColors[i], matrix);
 1746              		.loc 1 267 0
 1747 062e 0094     		str	r4, [sp]
 1748 0630 0AA9     		add	r1, sp, #40
 1749 0632 2723     		mov	r3, #39
 1750 0634 6B44     		add	r3, r3, sp
 1751 0636 0F78     		ldrb	r7, [r1]
 1752 0638 1878     		ldrb	r0, [r3]
 1753 063a 2922     		mov	r2, #41
 1754 063c 6A44     		add	r2, r2, sp
 1755 063e 3B02     		lsl	r3, r7, #8
 1756 0640 0343     		orr	r3, r0
 1757 0642 1078     		ldrb	r0, [r2]
 1758 0644 0322     		mov	r2, #3
 1759 0646 0104     		lsl	r1, r0, #16
 1760 0648 0B43     		orr	r3, r1
 1761 064a 1420     		mov	r0, #20
 1762 064c 0121     		mov	r1, #1
 1763 064e FFF7FEFF 		bl	drawFastHLine
 1764              	.LVL82:
 1765              	.L91:
ARM GAS  C:\Users\Computer\AppData\Local\Temp\ccQy7sfN.s 			page 41


 260:.\main.c      ****                         drawblock(i,0,lotsOfColors[i],matrix);
 1766              		.loc 1 260 0
 1767 0652 0BAA     		add	r2, sp, #44
 1768 0654 6946     		mov	r1, sp
 1769 0656 1778     		ldrb	r7, [r2]
 1770 0658 4B8D     		ldrh	r3, [r1, #42]
 1771 065a 3A04     		lsl	r2, r7, #16
 1772 065c 1A43     		orr	r2, r3
 1773 065e 0620     		mov	r0, #6
 1774 0660 0021     		mov	r1, #0
 1775 0662 231C     		mov	r3, r4
 1776 0664 FFF7FEFF 		bl	drawblock
 1777              	.LVL83:
 261:.\main.c      ****                         if(scaledResult[i]>2)
 1778              		.loc 1 261 0
 1779 0668 2A20     		mov	r0, #42
 1780 066a 295C     		ldrb	r1, [r5, r0]
 1781 066c 0229     		cmp	r1, #2
 1782 066e 59D8     		bhi	.L92
 267:.\main.c      ****                             drawFastHLine(i*4, 1, 3,lotsOfColors[i], matrix);
 1783              		.loc 1 267 0
 1784 0670 0094     		str	r4, [sp]
 1785 0672 0BAF     		add	r7, sp, #44
 1786 0674 6B46     		mov	r3, sp
 1787 0676 3878     		ldrb	r0, [r7]
 1788 0678 5A8D     		ldrh	r2, [r3, #42]
 1789 067a 0304     		lsl	r3, r0, #16
 1790 067c 1343     		orr	r3, r2
 1791 067e 1820     		mov	r0, #24
 1792 0680 0121     		mov	r1, #1
 1793 0682 0322     		mov	r2, #3
 1794 0684 FFF7FEFF 		bl	drawFastHLine
 1795              	.LVL84:
 1796              	.L93:
 260:.\main.c      ****                         drawblock(i,0,lotsOfColors[i],matrix);
 1797              		.loc 1 260 0
 1798 0688 2E22     		mov	r2, #46
 1799 068a 6A44     		add	r2, r2, sp
 1800 068c 2D21     		mov	r1, #45
 1801 068e 2F20     		mov	r0, #47
 1802 0690 1778     		ldrb	r7, [r2]
 1803 0692 6944     		add	r1, r1, sp
 1804 0694 6844     		add	r0, r0, sp
 1805 0696 0B78     		ldrb	r3, [r1]
 1806 0698 0178     		ldrb	r1, [r0]
 1807 069a 3A02     		lsl	r2, r7, #8
 1808 069c 1A43     		orr	r2, r3
 1809 069e 0B04     		lsl	r3, r1, #16
 1810 06a0 1A43     		orr	r2, r3
 1811 06a2 0720     		mov	r0, #7
 1812 06a4 0021     		mov	r1, #0
 1813 06a6 231C     		mov	r3, r4
 1814 06a8 FFF7FEFF 		bl	drawblock
 1815              	.LVL85:
 261:.\main.c      ****                         if(scaledResult[i]>2)
 1816              		.loc 1 261 0
 1817 06ac 2B22     		mov	r2, #43
ARM GAS  C:\Users\Computer\AppData\Local\Temp\ccQy7sfN.s 			page 42


 1818 06ae AF5C     		ldrb	r7, [r5, r2]
 1819 06b0 022F     		cmp	r7, #2
 1820 06b2 23D9     		bls	.L94
 263:.\main.c      ****                             drawFastHLine(i*4, scaledResult[i], 3,lotsOfColors[i], matrix);
 1821              		.loc 1 263 0
 1822 06b4 79B2     		sxtb	r1, r7
 1823 06b6 2E27     		mov	r7, #46
 1824 06b8 0094     		str	r4, [sp]
 1825 06ba 6F44     		add	r7, r7, sp
 1826 06bc 2D23     		mov	r3, #45
 1827 06be 6B44     		add	r3, r3, sp
 1828 06c0 3878     		ldrb	r0, [r7]
 1829 06c2 1A78     		ldrb	r2, [r3]
 1830 06c4 0302     		lsl	r3, r0, #8
 1831 06c6 1343     		orr	r3, r2
 1832 06c8 2F22     		mov	r2, #47
 1833 06ca 6A44     		add	r2, r2, sp
 1834 06cc 1778     		ldrb	r7, [r2]
 1835 06ce 0322     		mov	r2, #3
 1836 06d0 3804     		lsl	r0, r7, #16
 1837 06d2 0343     		orr	r3, r0
 1838 06d4 1C20     		mov	r0, #28
 1839 06d6 FFF7FEFF 		bl	drawFastHLine
 1840              	.LVL86:
 1841 06da A6E6     		b	.L96
 1842              	.L60:
 228:.\main.c      ****                             oldResult[i] = ((uint8)(result[i]>>6)) & 0x1F;
 1843              		.loc 1 228 0
 1844 06dc 2A54     		strb	r2, [r5, r0]
 1845 06de 35E6     		b	.L61
 1846              	.LVL87:
 1847              	.L58:
 226:.\main.c      ****                             oldResult[i] = oldResult[i]-0x1;
 1848              		.loc 1 226 0
 1849 06e0 2B54     		strb	r3, [r5, r0]
 1850 06e2 29E6     		b	.L59
 1851              	.LVL88:
 1852              	.L56:
 1853 06e4 2B54     		strb	r3, [r5, r0]
 1854 06e6 1DE6     		b	.L57
 1855              	.LVL89:
 1856              	.L54:
 1857 06e8 2B54     		strb	r3, [r5, r0]
 1858 06ea 11E6     		b	.L55
 1859              	.LVL90:
 1860              	.L52:
 1861 06ec E977     		strb	r1, [r5, #31]
 1862 06ee 05E6     		b	.L53
 1863              	.LVL91:
 1864              	.L50:
 1865 06f0 AB77     		strb	r3, [r5, #30]
 1866 06f2 FAE5     		b	.L51
 1867              	.LVL92:
 1868              	.L48:
 1869 06f4 6F77     		strb	r7, [r5, #29]
 1870 06f6 EFE5     		b	.L49
 1871              	.LVL93:
ARM GAS  C:\Users\Computer\AppData\Local\Temp\ccQy7sfN.s 			page 43


 1872              	.L46:
 1873 06f8 2F77     		strb	r7, [r5, #28]
 1874 06fa E4E5     		b	.L47
 1875              	.LVL94:
 1876              	.L94:
 267:.\main.c      ****                             drawFastHLine(i*4, 1, 3,lotsOfColors[i], matrix);
 1877              		.loc 1 267 0
 1878 06fc 2E23     		mov	r3, #46
 1879 06fe 0094     		str	r4, [sp]
 1880 0700 6B44     		add	r3, r3, sp
 1881 0702 2D20     		mov	r0, #45
 1882 0704 2F27     		mov	r7, #47
 1883 0706 6844     		add	r0, r0, sp
 1884 0708 1A78     		ldrb	r2, [r3]
 1885 070a 6F44     		add	r7, r7, sp
 1886 070c 0178     		ldrb	r1, [r0]
 1887 070e 3878     		ldrb	r0, [r7]
 1888 0710 1302     		lsl	r3, r2, #8
 1889 0712 0B43     		orr	r3, r1
 1890 0714 0104     		lsl	r1, r0, #16
 1891 0716 0B43     		orr	r3, r1
 1892 0718 1C20     		mov	r0, #28
 1893 071a 0121     		mov	r1, #1
 1894 071c 0322     		mov	r2, #3
 1895 071e FFF7FEFF 		bl	drawFastHLine
 1896              	.LVL95:
 1897 0722 82E6     		b	.L96
 1898              	.LVL96:
 1899              	.L92:
 263:.\main.c      ****                             drawFastHLine(i*4, scaledResult[i], 3,lotsOfColors[i], matrix);
 1900              		.loc 1 263 0
 1901 0724 0094     		str	r4, [sp]
 1902 0726 0BAF     		add	r7, sp, #44
 1903 0728 6B46     		mov	r3, sp
 1904 072a 3878     		ldrb	r0, [r7]
 1905 072c 5A8D     		ldrh	r2, [r3, #42]
 1906 072e 0304     		lsl	r3, r0, #16
 1907 0730 1343     		orr	r3, r2
 1908 0732 49B2     		sxtb	r1, r1
 1909 0734 1820     		mov	r0, #24
 1910 0736 0322     		mov	r2, #3
 1911 0738 FFF7FEFF 		bl	drawFastHLine
 1912              	.LVL97:
 1913 073c A4E7     		b	.L93
 1914              	.LVL98:
 1915              	.L90:
 1916 073e 0094     		str	r4, [sp]
 1917 0740 0AAF     		add	r7, sp, #40
 1918 0742 2723     		mov	r3, #39
 1919 0744 6B44     		add	r3, r3, sp
 1920 0746 3878     		ldrb	r0, [r7]
 1921 0748 51B2     		sxtb	r1, r2
 1922 074a 1A78     		ldrb	r2, [r3]
 1923 074c 0302     		lsl	r3, r0, #8
 1924 074e 1343     		orr	r3, r2
 1925 0750 2922     		mov	r2, #41
 1926 0752 6A44     		add	r2, r2, sp
ARM GAS  C:\Users\Computer\AppData\Local\Temp\ccQy7sfN.s 			page 44


 1927 0754 1778     		ldrb	r7, [r2]
 1928 0756 0322     		mov	r2, #3
 1929 0758 3804     		lsl	r0, r7, #16
 1930 075a 0343     		orr	r3, r0
 1931 075c 1420     		mov	r0, #20
 1932 075e FFF7FEFF 		bl	drawFastHLine
 1933              	.LVL99:
 1934 0762 76E7     		b	.L91
 1935              	.LVL100:
 1936              	.L88:
 1937 0764 59B2     		sxtb	r1, r3
 1938 0766 0094     		str	r4, [sp]
 1939 0768 1020     		mov	r0, #16
 1940 076a 0322     		mov	r2, #3
 1941 076c 099B     		ldr	r3, [sp, #36]
 1942 076e FFF7FEFF 		bl	drawFastHLine
 1943              	.LVL101:
 1944 0772 46E7     		b	.L89
 1945              	.LVL102:
 1946              	.L86:
 1947 0774 79B2     		sxtb	r1, r7
 1948 0776 2227     		mov	r7, #34
 1949 0778 0094     		str	r4, [sp]
 1950 077a 6F44     		add	r7, r7, sp
 1951 077c 2123     		mov	r3, #33
 1952 077e 6B44     		add	r3, r3, sp
 1953 0780 3A78     		ldrb	r2, [r7]
 1954 0782 1878     		ldrb	r0, [r3]
 1955 0784 1302     		lsl	r3, r2, #8
 1956 0786 0343     		orr	r3, r0
 1957 0788 2320     		mov	r0, #35
 1958 078a 6844     		add	r0, r0, sp
 1959 078c 0778     		ldrb	r7, [r0]
 1960 078e 0C20     		mov	r0, #12
 1961 0790 3A04     		lsl	r2, r7, #16
 1962 0792 1343     		orr	r3, r2
 1963 0794 0322     		mov	r2, #3
 1964 0796 FFF7FEFF 		bl	drawFastHLine
 1965              	.LVL103:
 1966 079a 20E7     		b	.L87
 1967              	.LVL104:
 1968              	.L84:
 1969 079c 0094     		str	r4, [sp]
 1970 079e 08AF     		add	r7, sp, #32
 1971 07a0 6B46     		mov	r3, sp
 1972 07a2 3878     		ldrb	r0, [r7]
 1973 07a4 DA8B     		ldrh	r2, [r3, #30]
 1974 07a6 0304     		lsl	r3, r0, #16
 1975 07a8 1343     		orr	r3, r2
 1976 07aa 49B2     		sxtb	r1, r1
 1977 07ac 0820     		mov	r0, #8
 1978 07ae 0322     		mov	r2, #3
 1979 07b0 FFF7FEFF 		bl	drawFastHLine
 1980              	.LVL105:
 1981 07b4 E9E6     		b	.L85
 1982              	.LVL106:
 1983              	.L82:
ARM GAS  C:\Users\Computer\AppData\Local\Temp\ccQy7sfN.s 			page 45


 1984 07b6 0094     		str	r4, [sp]
 1985 07b8 6846     		mov	r0, sp
 1986 07ba 037F     		ldrb	r3, [r0, #28]
 1987 07bc 51B2     		sxtb	r1, r2
 1988 07be FF7E     		ldrb	r7, [r7, #27]
 1989 07c0 427F     		ldrb	r2, [r0, #29]
 1990 07c2 1B02     		lsl	r3, r3, #8
 1991 07c4 1004     		lsl	r0, r2, #16
 1992 07c6 3B43     		orr	r3, r7
 1993 07c8 0343     		orr	r3, r0
 1994 07ca 0322     		mov	r2, #3
 1995 07cc 0420     		mov	r0, #4
 1996 07ce FFF7FEFF 		bl	drawFastHLine
 1997              	.LVL107:
 1998 07d2 BEE6     		b	.L83
 1999              	.LVL108:
 2000              	.L80:
 2001 07d4 49B2     		sxtb	r1, r1
 2002 07d6 0094     		str	r4, [sp]
 2003 07d8 0020     		mov	r0, #0
 2004 07da 0322     		mov	r2, #3
 2005 07dc 069B     		ldr	r3, [sp, #24]
 2006 07de FFF7FEFF 		bl	drawFastHLine
 2007              	.LVL109:
 2008 07e2 97E6     		b	.L81
 2009              	.LVL110:
 2010              	.L78:
 252:.\main.c      ****                             oldResult[i] = ((uint8)(result[i]>>6)) & 0x1F;
 2011              		.loc 1 252 0
 2012 07e4 2F54     		strb	r7, [r5, r0]
 2013 07e6 7FE6     		b	.L79
 2014              	.LVL111:
 2015              	.L76:
 250:.\main.c      ****                             oldResult[i] = oldResult[i]-0x1;
 2016              		.loc 1 250 0
 2017 07e8 2A54     		strb	r2, [r5, r0]
 2018 07ea 73E6     		b	.L77
 2019              	.LVL112:
 2020              	.L74:
 2021 07ec 2A54     		strb	r2, [r5, r0]
 2022 07ee 67E6     		b	.L75
 2023              	.LVL113:
 2024              	.L72:
 2025 07f0 2A54     		strb	r2, [r5, r0]
 2026 07f2 5BE6     		b	.L73
 2027              	.LVL114:
 2028              	.L70:
 2029 07f4 E877     		strb	r0, [r5, #31]
 2030 07f6 4FE6     		b	.L71
 2031              	.LVL115:
 2032              	.L68:
 2033 07f8 A977     		strb	r1, [r5, #30]
 2034 07fa 44E6     		b	.L69
 2035              	.LVL116:
 2036              	.L66:
 2037 07fc 6B77     		strb	r3, [r5, #29]
 2038 07fe 39E6     		b	.L67
ARM GAS  C:\Users\Computer\AppData\Local\Temp\ccQy7sfN.s 			page 46


 2039              	.LVL117:
 2040              	.L64:
 2041 0800 2F77     		strb	r7, [r5, #28]
 2042 0802 2EE6     		b	.L65
 2043              		.cfi_endproc
 2044              	.LFE36:
 2045              		.size	main, .-main
 2046              		.global	refresh
 2047              		.global	w
 2048              		.global	scaledResult
 2049              		.global	oldResult
 2050              		.global	result
 2051              		.global	dataReady
 2052              		.global	mode
 2053              		.comm	matrix,960,4
 2054              		.global	adcMax
 2055              		.comm	bit_shift,1,1
 2056              		.global	pwm_count
 2057              		.global	j
 2058              		.data
 2059              		.align	2
 2060              		.set	.LANCHOR0,. + 0
 2061              		.type	mode, %object
 2062              		.size	mode, 4
 2063              	mode:
 2064 0000 03000000 		.word	3
 2065              		.bss
 2066              		.align	2
 2067              		.set	.LANCHOR1,. + 0
 2068              		.type	pwm_count, %object
 2069              		.size	pwm_count, 1
 2070              	pwm_count:
 2071 0000 00       		.space	1
 2072              		.type	j, %object
 2073              		.size	j, 1
 2074              	j:
 2075 0001 00       		.space	1
 2076 0002 0000     		.space	2
 2077              		.type	result, %object
 2078              		.size	result, 16
 2079              	result:
 2080 0004 00000000 		.space	16
 2080      00000000 
 2080      00000000 
 2080      00000000 
 2081              		.type	w, %object
 2082              		.size	w, 4
 2083              	w:
 2084 0014 00000000 		.space	4
 2085              		.type	dataReady, %object
 2086              		.size	dataReady, 1
 2087              	dataReady:
 2088 0018 00       		.space	1
 2089 0019 000000   		.space	3
 2090              		.type	oldResult, %object
 2091              		.size	oldResult, 8
 2092              	oldResult:
ARM GAS  C:\Users\Computer\AppData\Local\Temp\ccQy7sfN.s 			page 47


 2093 001c 00000000 		.space	8
 2093      00000000 
 2094              		.type	scaledResult, %object
 2095              		.size	scaledResult, 8
 2096              	scaledResult:
 2097 0024 00000000 		.space	8
 2097      00000000 
 2098              		.type	refresh, %object
 2099              		.size	refresh, 4
 2100              	refresh:
 2101 002c 00000000 		.space	4
 2102              		.type	adcMax, %object
 2103              		.size	adcMax, 16
 2104              	adcMax:
 2105 0030 00000000 		.space	16
 2105      00000000 
 2105      00000000 
 2105      00000000 
 2106              		.text
 2107              	.Letext0:
 2108              		.file 2 "./Generated_Source/PSoC4/cytypes.h"
 2109              		.file 3 "./LED_Matrix.h"
 2110              		.file 4 ".\\I2CDriver.h"
 2111              		.file 5 "./Generated_Source/PSoC4/isr_2.h"
 2112              		.file 6 "./Generated_Source/PSoC4/RTC.h"
 2113              		.file 7 "./Generated_Source/PSoC4/ADC.h"
 2114              		.file 8 "./Generated_Source/PSoC4/eoc.h"
 2115              		.file 9 "./Generated_Source/PSoC4/PB.h"
 2116              		.file 10 "./Generated_Source/PSoC4/CyLib.h"
 2117              		.file 11 "./Generated_Source/PSoC4/LED_Matrix_1.h"
 2118              		.section	.debug_info,"",%progbits
 2119              	.Ldebug_info0:
 2120 0000 C20B0000 		.4byte	0xbc2
 2121 0004 0200     		.2byte	0x2
 2122 0006 00000000 		.4byte	.Ldebug_abbrev0
 2123 000a 04       		.byte	0x4
 2124 000b 01       		.uleb128 0x1
 2125 000c FD010000 		.4byte	.LASF65
 2126 0010 01       		.byte	0x1
 2127 0011 82000000 		.4byte	.LASF66
 2128 0015 9A000000 		.4byte	.LASF67
 2129 0019 00000000 		.4byte	.Ldebug_ranges0+0
 2130 001d 00000000 		.4byte	0
 2131 0021 00000000 		.4byte	0
 2132 0025 00000000 		.4byte	.Ldebug_line0
 2133 0029 02       		.uleb128 0x2
 2134 002a 01       		.byte	0x1
 2135 002b 06       		.byte	0x6
 2136 002c 76000000 		.4byte	.LASF0
 2137 0030 02       		.uleb128 0x2
 2138 0031 01       		.byte	0x1
 2139 0032 08       		.byte	0x8
 2140 0033 4B020000 		.4byte	.LASF1
 2141 0037 02       		.uleb128 0x2
 2142 0038 02       		.byte	0x2
 2143 0039 05       		.byte	0x5
 2144 003a 59020000 		.4byte	.LASF2
ARM GAS  C:\Users\Computer\AppData\Local\Temp\ccQy7sfN.s 			page 48


 2145 003e 02       		.uleb128 0x2
 2146 003f 02       		.byte	0x2
 2147 0040 07       		.byte	0x7
 2148 0041 5E010000 		.4byte	.LASF3
 2149 0045 02       		.uleb128 0x2
 2150 0046 04       		.byte	0x4
 2151 0047 05       		.byte	0x5
 2152 0048 D8000000 		.4byte	.LASF4
 2153 004c 02       		.uleb128 0x2
 2154 004d 04       		.byte	0x4
 2155 004e 07       		.byte	0x7
 2156 004f 41010000 		.4byte	.LASF5
 2157 0053 02       		.uleb128 0x2
 2158 0054 08       		.byte	0x8
 2159 0055 05       		.byte	0x5
 2160 0056 68000000 		.4byte	.LASF6
 2161 005a 02       		.uleb128 0x2
 2162 005b 08       		.byte	0x8
 2163 005c 07       		.byte	0x7
 2164 005d 1C000000 		.4byte	.LASF7
 2165 0061 03       		.uleb128 0x3
 2166 0062 04       		.byte	0x4
 2167 0063 05       		.byte	0x5
 2168 0064 696E7400 		.ascii	"int\000"
 2169 0068 02       		.uleb128 0x2
 2170 0069 04       		.byte	0x4
 2171 006a 07       		.byte	0x7
 2172 006b 27010000 		.4byte	.LASF8
 2173 006f 04       		.uleb128 0x4
 2174 0070 E1000000 		.4byte	.LASF9
 2175 0074 02       		.byte	0x2
 2176 0075 5B       		.byte	0x5b
 2177 0076 30000000 		.4byte	0x30
 2178 007a 04       		.uleb128 0x4
 2179 007b 00000000 		.4byte	.LASF10
 2180 007f 02       		.byte	0x2
 2181 0080 5C       		.byte	0x5c
 2182 0081 3E000000 		.4byte	0x3e
 2183 0085 04       		.uleb128 0x4
 2184 0086 F6000000 		.4byte	.LASF11
 2185 008a 02       		.byte	0x2
 2186 008b 5D       		.byte	0x5d
 2187 008c 4C000000 		.4byte	0x4c
 2188 0090 04       		.uleb128 0x4
 2189 0091 71010000 		.4byte	.LASF12
 2190 0095 02       		.byte	0x2
 2191 0096 5E       		.byte	0x5e
 2192 0097 29000000 		.4byte	0x29
 2193 009b 02       		.uleb128 0x2
 2194 009c 04       		.byte	0x4
 2195 009d 04       		.byte	0x4
 2196 009e EE010000 		.4byte	.LASF13
 2197 00a2 02       		.uleb128 0x2
 2198 00a3 08       		.byte	0x8
 2199 00a4 04       		.byte	0x4
 2200 00a5 EF000000 		.4byte	.LASF14
 2201 00a9 02       		.uleb128 0x2
ARM GAS  C:\Users\Computer\AppData\Local\Temp\ccQy7sfN.s 			page 49


 2202 00aa 01       		.byte	0x1
 2203 00ab 08       		.byte	0x8
 2204 00ac 78020000 		.4byte	.LASF15
 2205 00b0 04       		.uleb128 0x4
 2206 00b1 46020000 		.4byte	.LASF16
 2207 00b5 02       		.byte	0x2
 2208 00b6 F0       		.byte	0xf0
 2209 00b7 BB000000 		.4byte	0xbb
 2210 00bb 05       		.uleb128 0x5
 2211 00bc 6F000000 		.4byte	0x6f
 2212 00c0 04       		.uleb128 0x4
 2213 00c1 AF010000 		.4byte	.LASF17
 2214 00c5 02       		.byte	0x2
 2215 00c6 F2       		.byte	0xf2
 2216 00c7 CB000000 		.4byte	0xcb
 2217 00cb 05       		.uleb128 0x5
 2218 00cc 85000000 		.4byte	0x85
 2219 00d0 06       		.uleb128 0x6
 2220 00d1 82020000 		.4byte	.LASF18
 2221 00d5 02       		.byte	0x2
 2222 00d6 0201     		.2byte	0x102
 2223 00d8 DC000000 		.4byte	0xdc
 2224 00dc 07       		.uleb128 0x7
 2225 00dd 04       		.byte	0x4
 2226 00de E2000000 		.4byte	0xe2
 2227 00e2 08       		.uleb128 0x8
 2228 00e3 01       		.byte	0x1
 2229 00e4 02       		.uleb128 0x2
 2230 00e5 04       		.byte	0x4
 2231 00e6 07       		.byte	0x7
 2232 00e7 B5010000 		.4byte	.LASF19
 2233 00eb 09       		.uleb128 0x9
 2234 00ec 0F       		.byte	0xf
 2235 00ed 03       		.byte	0x3
 2236 00ee 26       		.byte	0x26
 2237 00ef 18010000 		.4byte	0x118
 2238 00f3 0A       		.uleb128 0xa
 2239 00f4 7200     		.ascii	"r\000"
 2240 00f6 03       		.byte	0x3
 2241 00f7 28       		.byte	0x28
 2242 00f8 18010000 		.4byte	0x118
 2243 00fc 02       		.byte	0x2
 2244 00fd 23       		.byte	0x23
 2245 00fe 00       		.uleb128 0
 2246 00ff 0A       		.uleb128 0xa
 2247 0100 6700     		.ascii	"g\000"
 2248 0102 03       		.byte	0x3
 2249 0103 29       		.byte	0x29
 2250 0104 18010000 		.4byte	0x118
 2251 0108 02       		.byte	0x2
 2252 0109 23       		.byte	0x23
 2253 010a 05       		.uleb128 0x5
 2254 010b 0A       		.uleb128 0xa
 2255 010c 6200     		.ascii	"b\000"
 2256 010e 03       		.byte	0x3
 2257 010f 2A       		.byte	0x2a
 2258 0110 18010000 		.4byte	0x118
ARM GAS  C:\Users\Computer\AppData\Local\Temp\ccQy7sfN.s 			page 50


 2259 0114 02       		.byte	0x2
 2260 0115 23       		.byte	0x23
 2261 0116 0A       		.uleb128 0xa
 2262 0117 00       		.byte	0
 2263 0118 0B       		.uleb128 0xb
 2264 0119 6F000000 		.4byte	0x6f
 2265 011d 28010000 		.4byte	0x128
 2266 0121 0C       		.uleb128 0xc
 2267 0122 E4000000 		.4byte	0xe4
 2268 0126 04       		.byte	0x4
 2269 0127 00       		.byte	0
 2270 0128 04       		.uleb128 0x4
 2271 0129 72020000 		.4byte	.LASF20
 2272 012d 03       		.byte	0x3
 2273 012e 2B       		.byte	0x2b
 2274 012f EB000000 		.4byte	0xeb
 2275 0133 09       		.uleb128 0x9
 2276 0134 03       		.byte	0x3
 2277 0135 03       		.byte	0x3
 2278 0136 2E       		.byte	0x2e
 2279 0137 60010000 		.4byte	0x160
 2280 013b 0A       		.uleb128 0xa
 2281 013c 7200     		.ascii	"r\000"
 2282 013e 03       		.byte	0x3
 2283 013f 30       		.byte	0x30
 2284 0140 6F000000 		.4byte	0x6f
 2285 0144 02       		.byte	0x2
 2286 0145 23       		.byte	0x23
 2287 0146 00       		.uleb128 0
 2288 0147 0A       		.uleb128 0xa
 2289 0148 6700     		.ascii	"g\000"
 2290 014a 03       		.byte	0x3
 2291 014b 31       		.byte	0x31
 2292 014c 6F000000 		.4byte	0x6f
 2293 0150 02       		.byte	0x2
 2294 0151 23       		.byte	0x23
 2295 0152 01       		.uleb128 0x1
 2296 0153 0A       		.uleb128 0xa
 2297 0154 6200     		.ascii	"b\000"
 2298 0156 03       		.byte	0x3
 2299 0157 32       		.byte	0x32
 2300 0158 6F000000 		.4byte	0x6f
 2301 015c 02       		.byte	0x2
 2302 015d 23       		.byte	0x23
 2303 015e 02       		.uleb128 0x2
 2304 015f 00       		.byte	0
 2305 0160 0D       		.uleb128 0xd
 2306 0161 52474200 		.ascii	"RGB\000"
 2307 0165 03       		.byte	0x3
 2308 0166 33       		.byte	0x33
 2309 0167 33010000 		.4byte	0x133
 2310 016b 0E       		.uleb128 0xe
 2311 016c D7010000 		.4byte	.LASF68
 2312 0170 09       		.byte	0x9
 2313 0171 04       		.byte	0x4
 2314 0172 12       		.byte	0x12
 2315 0173 F5010000 		.4byte	0x1f5
ARM GAS  C:\Users\Computer\AppData\Local\Temp\ccQy7sfN.s 			page 51


 2316 0177 0F       		.uleb128 0xf
 2317 0178 E3010000 		.4byte	.LASF21
 2318 017c 04       		.byte	0x4
 2319 017d 14       		.byte	0x14
 2320 017e 6F000000 		.4byte	0x6f
 2321 0182 02       		.byte	0x2
 2322 0183 23       		.byte	0x23
 2323 0184 00       		.uleb128 0
 2324 0185 0F       		.uleb128 0xf
 2325 0186 D0020000 		.4byte	.LASF22
 2326 018a 04       		.byte	0x4
 2327 018b 15       		.byte	0x15
 2328 018c 6F000000 		.4byte	0x6f
 2329 0190 02       		.byte	0x2
 2330 0191 23       		.byte	0x23
 2331 0192 01       		.uleb128 0x1
 2332 0193 0A       		.uleb128 0xa
 2333 0194 73656300 		.ascii	"sec\000"
 2334 0198 04       		.byte	0x4
 2335 0199 16       		.byte	0x16
 2336 019a 6F000000 		.4byte	0x6f
 2337 019e 02       		.byte	0x2
 2338 019f 23       		.byte	0x23
 2339 01a0 02       		.uleb128 0x2
 2340 01a1 0A       		.uleb128 0xa
 2341 01a2 64617900 		.ascii	"day\000"
 2342 01a6 04       		.byte	0x4
 2343 01a7 17       		.byte	0x17
 2344 01a8 6F000000 		.4byte	0x6f
 2345 01ac 02       		.byte	0x2
 2346 01ad 23       		.byte	0x23
 2347 01ae 03       		.uleb128 0x3
 2348 01af 0F       		.uleb128 0xf
 2349 01b0 8F020000 		.4byte	.LASF23
 2350 01b4 04       		.byte	0x4
 2351 01b5 18       		.byte	0x18
 2352 01b6 6F000000 		.4byte	0x6f
 2353 01ba 02       		.byte	0x2
 2354 01bb 23       		.byte	0x23
 2355 01bc 04       		.uleb128 0x4
 2356 01bd 0F       		.uleb128 0xf
 2357 01be 21010000 		.4byte	.LASF24
 2358 01c2 04       		.byte	0x4
 2359 01c3 19       		.byte	0x19
 2360 01c4 6F000000 		.4byte	0x6f
 2361 01c8 02       		.byte	0x2
 2362 01c9 23       		.byte	0x23
 2363 01ca 05       		.uleb128 0x5
 2364 01cb 0F       		.uleb128 0xf
 2365 01cc 95000000 		.4byte	.LASF25
 2366 01d0 04       		.byte	0x4
 2367 01d1 1A       		.byte	0x1a
 2368 01d2 6F000000 		.4byte	0x6f
 2369 01d6 02       		.byte	0x2
 2370 01d7 23       		.byte	0x23
 2371 01d8 06       		.uleb128 0x6
 2372 01d9 0A       		.uleb128 0xa
ARM GAS  C:\Users\Computer\AppData\Local\Temp\ccQy7sfN.s 			page 52


 2373 01da 706D00   		.ascii	"pm\000"
 2374 01dd 04       		.byte	0x4
 2375 01de 1B       		.byte	0x1b
 2376 01df 6F000000 		.4byte	0x6f
 2377 01e3 02       		.byte	0x2
 2378 01e4 23       		.byte	0x23
 2379 01e5 07       		.uleb128 0x7
 2380 01e6 0F       		.uleb128 0xf
 2381 01e7 63020000 		.4byte	.LASF26
 2382 01eb 04       		.byte	0x4
 2383 01ec 1C       		.byte	0x1c
 2384 01ed 6F000000 		.4byte	0x6f
 2385 01f1 02       		.byte	0x2
 2386 01f2 23       		.byte	0x23
 2387 01f3 08       		.uleb128 0x8
 2388 01f4 00       		.byte	0
 2389 01f5 04       		.uleb128 0x4
 2390 01f6 6A020000 		.4byte	.LASF27
 2391 01fa 04       		.byte	0x4
 2392 01fb 1E       		.byte	0x1e
 2393 01fc 6B010000 		.4byte	0x16b
 2394 0200 10       		.uleb128 0x10
 2395 0201 01       		.byte	0x1
 2396 0202 1A010000 		.4byte	.LASF28
 2397 0206 01       		.byte	0x1
 2398 0207 0B       		.byte	0xb
 2399 0208 01       		.byte	0x1
 2400 0209 00000000 		.4byte	.LFB33
 2401 020d 30000000 		.4byte	.LFE33
 2402 0211 00000000 		.4byte	.LLST0
 2403 0215 01       		.byte	0x1
 2404 0216 10       		.uleb128 0x10
 2405 0217 01       		.byte	0x1
 2406 0218 CC010000 		.4byte	.LASF29
 2407 021c 01       		.byte	0x1
 2408 021d 1F       		.byte	0x1f
 2409 021e 01       		.byte	0x1
 2410 021f 00000000 		.4byte	.LFB34
 2411 0223 DC010000 		.4byte	.LFE34
 2412 0227 20000000 		.4byte	.LLST1
 2413 022b 01       		.byte	0x1
 2414 022c 10       		.uleb128 0x10
 2415 022d 01       		.byte	0x1
 2416 022e D7020000 		.4byte	.LASF30
 2417 0232 01       		.byte	0x1
 2418 0233 61       		.byte	0x61
 2419 0234 01       		.byte	0x1
 2420 0235 00000000 		.4byte	.LFB35
 2421 0239 38010000 		.4byte	.LFE35
 2422 023d 59000000 		.4byte	.LLST2
 2423 0241 01       		.byte	0x1
 2424 0242 11       		.uleb128 0x11
 2425 0243 01       		.byte	0x1
 2426 0244 0B030000 		.4byte	.LASF69
 2427 0248 01       		.byte	0x1
 2428 0249 78       		.byte	0x78
 2429 024a 61000000 		.4byte	0x61
ARM GAS  C:\Users\Computer\AppData\Local\Temp\ccQy7sfN.s 			page 53


 2430 024e 00000000 		.4byte	.LFB36
 2431 0252 04080000 		.4byte	.LFE36
 2432 0256 79000000 		.4byte	.LLST3
 2433 025a 01       		.byte	0x1
 2434 025b 10090000 		.4byte	0x910
 2435 025f 12       		.uleb128 0x12
 2436 0260 CA020000 		.4byte	.LASF31
 2437 0264 01       		.byte	0x1
 2438 0265 7A       		.byte	0x7a
 2439 0266 60010000 		.4byte	0x160
 2440 026a 13       		.uleb128 0x13
 2441 026b 6900     		.ascii	"i\000"
 2442 026d 01       		.byte	0x1
 2443 026e 7E       		.byte	0x7e
 2444 026f 61000000 		.4byte	0x61
 2445 0273 B2000000 		.4byte	.LLST4
 2446 0277 12       		.uleb128 0x12
 2447 0278 E8010000 		.4byte	.LASF32
 2448 027c 01       		.byte	0x1
 2449 027d 7F       		.byte	0x7f
 2450 027e 60010000 		.4byte	0x160
 2451 0282 14       		.uleb128 0x14
 2452 0283 72746300 		.ascii	"rtc\000"
 2453 0287 01       		.byte	0x1
 2454 0288 81       		.byte	0x81
 2455 0289 F5010000 		.4byte	0x1f5
 2456 028d 03       		.byte	0x3
 2457 028e 91       		.byte	0x91
 2458 028f B47F     		.sleb128 -76
 2459 0291 12       		.uleb128 0x12
 2460 0292 5D000000 		.4byte	.LASF33
 2461 0296 01       		.byte	0x1
 2462 0297 82       		.byte	0x82
 2463 0298 6F000000 		.4byte	0x6f
 2464 029c 15       		.uleb128 0x15
 2465 029d 34010000 		.4byte	.LASF34
 2466 02a1 01       		.byte	0x1
 2467 02a2 8C       		.byte	0x8c
 2468 02a3 10090000 		.4byte	0x910
 2469 02a7 02       		.byte	0x2
 2470 02a8 91       		.byte	0x91
 2471 02a9 40       		.sleb128 -64
 2472 02aa 16       		.uleb128 0x16
 2473 02ab DF020000 		.4byte	.LASF35
 2474 02af 01       		.byte	0x1
 2475 02b0 BB       		.byte	0xbb
 2476 02b1 61000000 		.4byte	0x61
 2477 02b5 02040000 		.4byte	.LLST5
 2478 02b9 16       		.uleb128 0x16
 2479 02ba 46000000 		.4byte	.LASF36
 2480 02be 01       		.byte	0x1
 2481 02bf BC       		.byte	0xbc
 2482 02c0 61000000 		.4byte	0x61
 2483 02c4 37040000 		.4byte	.LLST6
 2484 02c8 17       		.uleb128 0x17
 2485 02c9 12000000 		.4byte	.LVL1
 2486 02cd 240A0000 		.4byte	0xa24
ARM GAS  C:\Users\Computer\AppData\Local\Temp\ccQy7sfN.s 			page 54


 2487 02d1 18       		.uleb128 0x18
 2488 02d2 1A000000 		.4byte	.LVL2
 2489 02d6 2E0A0000 		.4byte	0xa2e
 2490 02da E9020000 		.4byte	0x2e9
 2491 02de 19       		.uleb128 0x19
 2492 02df 01       		.byte	0x1
 2493 02e0 51       		.byte	0x51
 2494 02e1 01       		.byte	0x1
 2495 02e2 34       		.byte	0x34
 2496 02e3 19       		.uleb128 0x19
 2497 02e4 01       		.byte	0x1
 2498 02e5 50       		.byte	0x50
 2499 02e6 01       		.byte	0x1
 2500 02e7 30       		.byte	0x30
 2501 02e8 00       		.byte	0
 2502 02e9 18       		.uleb128 0x18
 2503 02ea 20000000 		.4byte	.LVL3
 2504 02ee 4B0A0000 		.4byte	0xa4b
 2505 02f2 FE020000 		.4byte	0x2fe
 2506 02f6 19       		.uleb128 0x19
 2507 02f7 01       		.byte	0x1
 2508 02f8 50       		.byte	0x50
 2509 02f9 03       		.byte	0x3
 2510 02fa 91       		.byte	0x91
 2511 02fb B47F     		.sleb128 -76
 2512 02fd 00       		.byte	0
 2513 02fe 18       		.uleb128 0x18
 2514 02ff 9A000000 		.4byte	.LVL4
 2515 0303 650A0000 		.4byte	0xa65
 2516 0307 12030000 		.4byte	0x312
 2517 030b 19       		.uleb128 0x19
 2518 030c 01       		.byte	0x1
 2519 030d 50       		.byte	0x50
 2520 030e 02       		.byte	0x2
 2521 030f 74       		.byte	0x74
 2522 0310 00       		.sleb128 0
 2523 0311 00       		.byte	0
 2524 0312 17       		.uleb128 0x17
 2525 0313 9E000000 		.4byte	.LVL5
 2526 0317 7F0A0000 		.4byte	0xa7f
 2527 031b 18       		.uleb128 0x18
 2528 031c A8000000 		.4byte	.LVL6
 2529 0320 8E0A0000 		.4byte	0xa8e
 2530 0324 32030000 		.4byte	0x332
 2531 0328 19       		.uleb128 0x19
 2532 0329 01       		.byte	0x1
 2533 032a 50       		.byte	0x50
 2534 032b 05       		.byte	0x5
 2535 032c 03       		.byte	0x3
 2536 032d 00000000 		.4byte	FIFO_EMPTY
 2537 0331 00       		.byte	0
 2538 0332 17       		.uleb128 0x17
 2539 0333 AC000000 		.4byte	.LVL7
 2540 0337 A20A0000 		.4byte	0xaa2
 2541 033b 17       		.uleb128 0x17
 2542 033c B0000000 		.4byte	.LVL8
 2543 0340 AC0A0000 		.4byte	0xaac
ARM GAS  C:\Users\Computer\AppData\Local\Temp\ccQy7sfN.s 			page 55


 2544 0344 18       		.uleb128 0x18
 2545 0345 B6000000 		.4byte	.LVL9
 2546 0349 B60A0000 		.4byte	0xab6
 2547 034d 5B030000 		.4byte	0x35b
 2548 0351 19       		.uleb128 0x19
 2549 0352 01       		.byte	0x1
 2550 0353 50       		.byte	0x50
 2551 0354 05       		.byte	0x5
 2552 0355 03       		.byte	0x3
 2553 0356 00000000 		.4byte	eoc_isr
 2554 035a 00       		.byte	0
 2555 035b 18       		.uleb128 0x18
 2556 035c BC000000 		.4byte	.LVL10
 2557 0360 CA0A0000 		.4byte	0xaca
 2558 0364 72030000 		.4byte	0x372
 2559 0368 19       		.uleb128 0x19
 2560 0369 01       		.byte	0x1
 2561 036a 50       		.byte	0x50
 2562 036b 05       		.byte	0x5
 2563 036c 03       		.byte	0x3
 2564 036d 00000000 		.4byte	PB_ISR
 2565 0371 00       		.byte	0
 2566 0372 18       		.uleb128 0x18
 2567 0373 DA000000 		.4byte	.LVL13
 2568 0377 DE0A0000 		.4byte	0xade
 2569 037b 85030000 		.4byte	0x385
 2570 037f 19       		.uleb128 0x19
 2571 0380 01       		.byte	0x1
 2572 0381 50       		.byte	0x50
 2573 0382 01       		.byte	0x1
 2574 0383 31       		.byte	0x31
 2575 0384 00       		.byte	0
 2576 0385 18       		.uleb128 0x18
 2577 0386 F0000000 		.4byte	.LVL14
 2578 038a F20A0000 		.4byte	0xaf2
 2579 038e 9F030000 		.4byte	0x39f
 2580 0392 19       		.uleb128 0x19
 2581 0393 01       		.byte	0x1
 2582 0394 51       		.byte	0x51
 2583 0395 02       		.byte	0x2
 2584 0396 75       		.byte	0x75
 2585 0397 04       		.sleb128 4
 2586 0398 19       		.uleb128 0x19
 2587 0399 01       		.byte	0x1
 2588 039a 50       		.byte	0x50
 2589 039b 02       		.byte	0x2
 2590 039c 79       		.byte	0x79
 2591 039d 00       		.sleb128 0
 2592 039e 00       		.byte	0
 2593 039f 18       		.uleb128 0x18
 2594 03a0 4E010000 		.4byte	.LVL22
 2595 03a4 1B0B0000 		.4byte	0xb1b
 2596 03a8 B9030000 		.4byte	0x3b9
 2597 03ac 19       		.uleb128 0x19
 2598 03ad 01       		.byte	0x1
 2599 03ae 51       		.byte	0x51
 2600 03af 02       		.byte	0x2
ARM GAS  C:\Users\Computer\AppData\Local\Temp\ccQy7sfN.s 			page 56


 2601 03b0 79       		.byte	0x79
 2602 03b1 00       		.sleb128 0
 2603 03b2 19       		.uleb128 0x19
 2604 03b3 01       		.byte	0x1
 2605 03b4 50       		.byte	0x50
 2606 03b5 02       		.byte	0x2
 2607 03b6 78       		.byte	0x78
 2608 03b7 00       		.sleb128 0
 2609 03b8 00       		.byte	0
 2610 03b9 18       		.uleb128 0x18
 2611 03ba 5C010000 		.4byte	.LVL23
 2612 03be 340B0000 		.4byte	0xb34
 2613 03c2 D2030000 		.4byte	0x3d2
 2614 03c6 19       		.uleb128 0x19
 2615 03c7 01       		.byte	0x1
 2616 03c8 53       		.byte	0x53
 2617 03c9 02       		.byte	0x2
 2618 03ca 74       		.byte	0x74
 2619 03cb 00       		.sleb128 0
 2620 03cc 19       		.uleb128 0x19
 2621 03cd 01       		.byte	0x1
 2622 03ce 50       		.byte	0x50
 2623 03cf 01       		.byte	0x1
 2624 03d0 30       		.byte	0x30
 2625 03d1 00       		.byte	0
 2626 03d2 18       		.uleb128 0x18
 2627 03d3 78010000 		.4byte	.LVL24
 2628 03d7 340B0000 		.4byte	0xb34
 2629 03db EB030000 		.4byte	0x3eb
 2630 03df 19       		.uleb128 0x19
 2631 03e0 01       		.byte	0x1
 2632 03e1 53       		.byte	0x53
 2633 03e2 02       		.byte	0x2
 2634 03e3 74       		.byte	0x74
 2635 03e4 00       		.sleb128 0
 2636 03e5 19       		.uleb128 0x19
 2637 03e6 01       		.byte	0x1
 2638 03e7 50       		.byte	0x50
 2639 03e8 01       		.byte	0x1
 2640 03e9 31       		.byte	0x31
 2641 03ea 00       		.byte	0
 2642 03eb 18       		.uleb128 0x18
 2643 03ec 90010000 		.4byte	.LVL25
 2644 03f0 340B0000 		.4byte	0xb34
 2645 03f4 04040000 		.4byte	0x404
 2646 03f8 19       		.uleb128 0x19
 2647 03f9 01       		.byte	0x1
 2648 03fa 53       		.byte	0x53
 2649 03fb 02       		.byte	0x2
 2650 03fc 74       		.byte	0x74
 2651 03fd 00       		.sleb128 0
 2652 03fe 19       		.uleb128 0x19
 2653 03ff 01       		.byte	0x1
 2654 0400 50       		.byte	0x50
 2655 0401 01       		.byte	0x1
 2656 0402 32       		.byte	0x32
 2657 0403 00       		.byte	0
ARM GAS  C:\Users\Computer\AppData\Local\Temp\ccQy7sfN.s 			page 57


 2658 0404 18       		.uleb128 0x18
 2659 0405 B6010000 		.4byte	.LVL26
 2660 0409 340B0000 		.4byte	0xb34
 2661 040d 1D040000 		.4byte	0x41d
 2662 0411 19       		.uleb128 0x19
 2663 0412 01       		.byte	0x1
 2664 0413 53       		.byte	0x53
 2665 0414 02       		.byte	0x2
 2666 0415 74       		.byte	0x74
 2667 0416 00       		.sleb128 0
 2668 0417 19       		.uleb128 0x19
 2669 0418 01       		.byte	0x1
 2670 0419 50       		.byte	0x50
 2671 041a 01       		.byte	0x1
 2672 041b 33       		.byte	0x33
 2673 041c 00       		.byte	0
 2674 041d 18       		.uleb128 0x18
 2675 041e C4010000 		.4byte	.LVL27
 2676 0422 340B0000 		.4byte	0xb34
 2677 0426 36040000 		.4byte	0x436
 2678 042a 19       		.uleb128 0x19
 2679 042b 01       		.byte	0x1
 2680 042c 53       		.byte	0x53
 2681 042d 02       		.byte	0x2
 2682 042e 74       		.byte	0x74
 2683 042f 00       		.sleb128 0
 2684 0430 19       		.uleb128 0x19
 2685 0431 01       		.byte	0x1
 2686 0432 50       		.byte	0x50
 2687 0433 01       		.byte	0x1
 2688 0434 34       		.byte	0x34
 2689 0435 00       		.byte	0
 2690 0436 18       		.uleb128 0x18
 2691 0437 E8010000 		.4byte	.LVL28
 2692 043b 340B0000 		.4byte	0xb34
 2693 043f 4F040000 		.4byte	0x44f
 2694 0443 19       		.uleb128 0x19
 2695 0444 01       		.byte	0x1
 2696 0445 53       		.byte	0x53
 2697 0446 02       		.byte	0x2
 2698 0447 74       		.byte	0x74
 2699 0448 00       		.sleb128 0
 2700 0449 19       		.uleb128 0x19
 2701 044a 01       		.byte	0x1
 2702 044b 50       		.byte	0x50
 2703 044c 01       		.byte	0x1
 2704 044d 35       		.byte	0x35
 2705 044e 00       		.byte	0
 2706 044f 18       		.uleb128 0x18
 2707 0450 00020000 		.4byte	.LVL29
 2708 0454 340B0000 		.4byte	0xb34
 2709 0458 68040000 		.4byte	0x468
 2710 045c 19       		.uleb128 0x19
 2711 045d 01       		.byte	0x1
 2712 045e 53       		.byte	0x53
 2713 045f 02       		.byte	0x2
 2714 0460 74       		.byte	0x74
ARM GAS  C:\Users\Computer\AppData\Local\Temp\ccQy7sfN.s 			page 58


 2715 0461 00       		.sleb128 0
 2716 0462 19       		.uleb128 0x19
 2717 0463 01       		.byte	0x1
 2718 0464 50       		.byte	0x50
 2719 0465 01       		.byte	0x1
 2720 0466 36       		.byte	0x36
 2721 0467 00       		.byte	0
 2722 0468 18       		.uleb128 0x18
 2723 0469 26020000 		.4byte	.LVL30
 2724 046d 340B0000 		.4byte	0xb34
 2725 0471 81040000 		.4byte	0x481
 2726 0475 19       		.uleb128 0x19
 2727 0476 01       		.byte	0x1
 2728 0477 53       		.byte	0x53
 2729 0478 02       		.byte	0x2
 2730 0479 74       		.byte	0x74
 2731 047a 00       		.sleb128 0
 2732 047b 19       		.uleb128 0x19
 2733 047c 01       		.byte	0x1
 2734 047d 50       		.byte	0x50
 2735 047e 01       		.byte	0x1
 2736 047f 37       		.byte	0x37
 2737 0480 00       		.byte	0
 2738 0481 18       		.uleb128 0x18
 2739 0482 30020000 		.4byte	.LVL32
 2740 0486 DE0A0000 		.4byte	0xade
 2741 048a 94040000 		.4byte	0x494
 2742 048e 19       		.uleb128 0x19
 2743 048f 01       		.byte	0x1
 2744 0490 50       		.byte	0x50
 2745 0491 01       		.byte	0x1
 2746 0492 31       		.byte	0x31
 2747 0493 00       		.byte	0
 2748 0494 17       		.uleb128 0x17
 2749 0495 46020000 		.4byte	.LVL34
 2750 0499 570B0000 		.4byte	0xb57
 2751 049d 18       		.uleb128 0x18
 2752 049e 4C020000 		.4byte	.LVL35
 2753 04a2 650A0000 		.4byte	0xa65
 2754 04a6 B1040000 		.4byte	0x4b1
 2755 04aa 19       		.uleb128 0x19
 2756 04ab 01       		.byte	0x1
 2757 04ac 50       		.byte	0x50
 2758 04ad 02       		.byte	0x2
 2759 04ae 74       		.byte	0x74
 2760 04af 00       		.sleb128 0
 2761 04b0 00       		.byte	0
 2762 04b1 18       		.uleb128 0x18
 2763 04b2 52020000 		.4byte	.LVL36
 2764 04b6 610B0000 		.4byte	0xb61
 2765 04ba C6040000 		.4byte	0x4c6
 2766 04be 19       		.uleb128 0x19
 2767 04bf 01       		.byte	0x1
 2768 04c0 50       		.byte	0x50
 2769 04c1 03       		.byte	0x3
 2770 04c2 91       		.byte	0x91
 2771 04c3 B47F     		.sleb128 -76
ARM GAS  C:\Users\Computer\AppData\Local\Temp\ccQy7sfN.s 			page 59


 2772 04c5 00       		.byte	0
 2773 04c6 18       		.uleb128 0x18
 2774 04c7 70020000 		.4byte	.LVL37
 2775 04cb 790B0000 		.4byte	0xb79
 2776 04cf DB040000 		.4byte	0x4db
 2777 04d3 19       		.uleb128 0x19
 2778 04d4 02       		.byte	0x2
 2779 04d5 7D       		.byte	0x7d
 2780 04d6 00       		.sleb128 0
 2781 04d7 02       		.byte	0x2
 2782 04d8 74       		.byte	0x74
 2783 04d9 00       		.sleb128 0
 2784 04da 00       		.byte	0
 2785 04db 18       		.uleb128 0x18
 2786 04dc A4020000 		.4byte	.LVL39
 2787 04e0 F20A0000 		.4byte	0xaf2
 2788 04e4 F5040000 		.4byte	0x4f5
 2789 04e8 19       		.uleb128 0x19
 2790 04e9 01       		.byte	0x1
 2791 04ea 51       		.byte	0x51
 2792 04eb 02       		.byte	0x2
 2793 04ec 75       		.byte	0x75
 2794 04ed 04       		.sleb128 4
 2795 04ee 19       		.uleb128 0x19
 2796 04ef 01       		.byte	0x1
 2797 04f0 50       		.byte	0x50
 2798 04f1 02       		.byte	0x2
 2799 04f2 79       		.byte	0x79
 2800 04f3 00       		.sleb128 0
 2801 04f4 00       		.byte	0
 2802 04f5 18       		.uleb128 0x18
 2803 04f6 54030000 		.4byte	.LVL49
 2804 04fa 1B0B0000 		.4byte	0xb1b
 2805 04fe 0F050000 		.4byte	0x50f
 2806 0502 19       		.uleb128 0x19
 2807 0503 01       		.byte	0x1
 2808 0504 51       		.byte	0x51
 2809 0505 02       		.byte	0x2
 2810 0506 79       		.byte	0x79
 2811 0507 00       		.sleb128 0
 2812 0508 19       		.uleb128 0x19
 2813 0509 01       		.byte	0x1
 2814 050a 50       		.byte	0x50
 2815 050b 02       		.byte	0x2
 2816 050c 78       		.byte	0x78
 2817 050d 00       		.sleb128 0
 2818 050e 00       		.byte	0
 2819 050f 18       		.uleb128 0x18
 2820 0510 64030000 		.4byte	.LVL50
 2821 0514 340B0000 		.4byte	0xb34
 2822 0518 28050000 		.4byte	0x528
 2823 051c 19       		.uleb128 0x19
 2824 051d 01       		.byte	0x1
 2825 051e 53       		.byte	0x53
 2826 051f 02       		.byte	0x2
 2827 0520 74       		.byte	0x74
 2828 0521 00       		.sleb128 0
ARM GAS  C:\Users\Computer\AppData\Local\Temp\ccQy7sfN.s 			page 60


 2829 0522 19       		.uleb128 0x19
 2830 0523 01       		.byte	0x1
 2831 0524 50       		.byte	0x50
 2832 0525 01       		.byte	0x1
 2833 0526 30       		.byte	0x30
 2834 0527 00       		.byte	0
 2835 0528 18       		.uleb128 0x18
 2836 0529 7E030000 		.4byte	.LVL51
 2837 052d 340B0000 		.4byte	0xb34
 2838 0531 41050000 		.4byte	0x541
 2839 0535 19       		.uleb128 0x19
 2840 0536 01       		.byte	0x1
 2841 0537 53       		.byte	0x53
 2842 0538 02       		.byte	0x2
 2843 0539 74       		.byte	0x74
 2844 053a 00       		.sleb128 0
 2845 053b 19       		.uleb128 0x19
 2846 053c 01       		.byte	0x1
 2847 053d 50       		.byte	0x50
 2848 053e 01       		.byte	0x1
 2849 053f 31       		.byte	0x31
 2850 0540 00       		.byte	0
 2851 0541 18       		.uleb128 0x18
 2852 0542 94030000 		.4byte	.LVL52
 2853 0546 340B0000 		.4byte	0xb34
 2854 054a 5A050000 		.4byte	0x55a
 2855 054e 19       		.uleb128 0x19
 2856 054f 01       		.byte	0x1
 2857 0550 53       		.byte	0x53
 2858 0551 02       		.byte	0x2
 2859 0552 74       		.byte	0x74
 2860 0553 00       		.sleb128 0
 2861 0554 19       		.uleb128 0x19
 2862 0555 01       		.byte	0x1
 2863 0556 50       		.byte	0x50
 2864 0557 01       		.byte	0x1
 2865 0558 32       		.byte	0x32
 2866 0559 00       		.byte	0
 2867 055a 18       		.uleb128 0x18
 2868 055b BC030000 		.4byte	.LVL53
 2869 055f 340B0000 		.4byte	0xb34
 2870 0563 73050000 		.4byte	0x573
 2871 0567 19       		.uleb128 0x19
 2872 0568 01       		.byte	0x1
 2873 0569 53       		.byte	0x53
 2874 056a 02       		.byte	0x2
 2875 056b 74       		.byte	0x74
 2876 056c 00       		.sleb128 0
 2877 056d 19       		.uleb128 0x19
 2878 056e 01       		.byte	0x1
 2879 056f 50       		.byte	0x50
 2880 0570 01       		.byte	0x1
 2881 0571 33       		.byte	0x33
 2882 0572 00       		.byte	0
 2883 0573 18       		.uleb128 0x18
 2884 0574 CA030000 		.4byte	.LVL54
 2885 0578 340B0000 		.4byte	0xb34
ARM GAS  C:\Users\Computer\AppData\Local\Temp\ccQy7sfN.s 			page 61


 2886 057c 8C050000 		.4byte	0x58c
 2887 0580 19       		.uleb128 0x19
 2888 0581 01       		.byte	0x1
 2889 0582 53       		.byte	0x53
 2890 0583 02       		.byte	0x2
 2891 0584 74       		.byte	0x74
 2892 0585 00       		.sleb128 0
 2893 0586 19       		.uleb128 0x19
 2894 0587 01       		.byte	0x1
 2895 0588 50       		.byte	0x50
 2896 0589 01       		.byte	0x1
 2897 058a 34       		.byte	0x34
 2898 058b 00       		.byte	0
 2899 058c 18       		.uleb128 0x18
 2900 058d EE030000 		.4byte	.LVL55
 2901 0591 340B0000 		.4byte	0xb34
 2902 0595 A5050000 		.4byte	0x5a5
 2903 0599 19       		.uleb128 0x19
 2904 059a 01       		.byte	0x1
 2905 059b 53       		.byte	0x53
 2906 059c 02       		.byte	0x2
 2907 059d 74       		.byte	0x74
 2908 059e 00       		.sleb128 0
 2909 059f 19       		.uleb128 0x19
 2910 05a0 01       		.byte	0x1
 2911 05a1 50       		.byte	0x50
 2912 05a2 01       		.byte	0x1
 2913 05a3 35       		.byte	0x35
 2914 05a4 00       		.byte	0
 2915 05a5 18       		.uleb128 0x18
 2916 05a6 06040000 		.4byte	.LVL56
 2917 05aa 340B0000 		.4byte	0xb34
 2918 05ae BE050000 		.4byte	0x5be
 2919 05b2 19       		.uleb128 0x19
 2920 05b3 01       		.byte	0x1
 2921 05b4 53       		.byte	0x53
 2922 05b5 02       		.byte	0x2
 2923 05b6 74       		.byte	0x74
 2924 05b7 00       		.sleb128 0
 2925 05b8 19       		.uleb128 0x19
 2926 05b9 01       		.byte	0x1
 2927 05ba 50       		.byte	0x50
 2928 05bb 01       		.byte	0x1
 2929 05bc 36       		.byte	0x36
 2930 05bd 00       		.byte	0
 2931 05be 18       		.uleb128 0x18
 2932 05bf 2A040000 		.4byte	.LVL57
 2933 05c3 340B0000 		.4byte	0xb34
 2934 05c7 D7050000 		.4byte	0x5d7
 2935 05cb 19       		.uleb128 0x19
 2936 05cc 01       		.byte	0x1
 2937 05cd 53       		.byte	0x53
 2938 05ce 02       		.byte	0x2
 2939 05cf 74       		.byte	0x74
 2940 05d0 00       		.sleb128 0
 2941 05d1 19       		.uleb128 0x19
 2942 05d2 01       		.byte	0x1
ARM GAS  C:\Users\Computer\AppData\Local\Temp\ccQy7sfN.s 			page 62


 2943 05d3 50       		.byte	0x50
 2944 05d4 01       		.byte	0x1
 2945 05d5 37       		.byte	0x37
 2946 05d6 00       		.byte	0
 2947 05d7 18       		.uleb128 0x18
 2948 05d8 40040000 		.4byte	.LVL60
 2949 05dc F20A0000 		.4byte	0xaf2
 2950 05e0 F1050000 		.4byte	0x5f1
 2951 05e4 19       		.uleb128 0x19
 2952 05e5 01       		.byte	0x1
 2953 05e6 51       		.byte	0x51
 2954 05e7 02       		.byte	0x2
 2955 05e8 75       		.byte	0x75
 2956 05e9 04       		.sleb128 4
 2957 05ea 19       		.uleb128 0x19
 2958 05eb 01       		.byte	0x1
 2959 05ec 50       		.byte	0x50
 2960 05ed 02       		.byte	0x2
 2961 05ee 79       		.byte	0x79
 2962 05ef 00       		.sleb128 0
 2963 05f0 00       		.byte	0
 2964 05f1 18       		.uleb128 0x18
 2965 05f2 F0040000 		.4byte	.LVL70
 2966 05f6 1B0B0000 		.4byte	0xb1b
 2967 05fa 0B060000 		.4byte	0x60b
 2968 05fe 19       		.uleb128 0x19
 2969 05ff 01       		.byte	0x1
 2970 0600 51       		.byte	0x51
 2971 0601 02       		.byte	0x2
 2972 0602 79       		.byte	0x79
 2973 0603 00       		.sleb128 0
 2974 0604 19       		.uleb128 0x19
 2975 0605 01       		.byte	0x1
 2976 0606 50       		.byte	0x50
 2977 0607 02       		.byte	0x2
 2978 0608 78       		.byte	0x78
 2979 0609 00       		.sleb128 0
 2980 060a 00       		.byte	0
 2981 060b 18       		.uleb128 0x18
 2982 060c FC040000 		.4byte	.LVL71
 2983 0610 340B0000 		.4byte	0xb34
 2984 0614 29060000 		.4byte	0x629
 2985 0618 19       		.uleb128 0x19
 2986 0619 01       		.byte	0x1
 2987 061a 53       		.byte	0x53
 2988 061b 02       		.byte	0x2
 2989 061c 74       		.byte	0x74
 2990 061d 00       		.sleb128 0
 2991 061e 19       		.uleb128 0x19
 2992 061f 01       		.byte	0x1
 2993 0620 51       		.byte	0x51
 2994 0621 01       		.byte	0x1
 2995 0622 30       		.byte	0x30
 2996 0623 19       		.uleb128 0x19
 2997 0624 01       		.byte	0x1
 2998 0625 50       		.byte	0x50
 2999 0626 01       		.byte	0x1
ARM GAS  C:\Users\Computer\AppData\Local\Temp\ccQy7sfN.s 			page 63


 3000 0627 30       		.byte	0x30
 3001 0628 00       		.byte	0
 3002 0629 18       		.uleb128 0x18
 3003 062a 14050000 		.4byte	.LVL72
 3004 062e A10B0000 		.4byte	0xba1
 3005 0632 4D060000 		.4byte	0x64d
 3006 0636 19       		.uleb128 0x19
 3007 0637 01       		.byte	0x1
 3008 0638 52       		.byte	0x52
 3009 0639 01       		.byte	0x1
 3010 063a 33       		.byte	0x33
 3011 063b 19       		.uleb128 0x19
 3012 063c 01       		.byte	0x1
 3013 063d 51       		.byte	0x51
 3014 063e 01       		.byte	0x1
 3015 063f 31       		.byte	0x31
 3016 0640 19       		.uleb128 0x19
 3017 0641 01       		.byte	0x1
 3018 0642 50       		.byte	0x50
 3019 0643 01       		.byte	0x1
 3020 0644 30       		.byte	0x30
 3021 0645 19       		.uleb128 0x19
 3022 0646 02       		.byte	0x2
 3023 0647 7D       		.byte	0x7d
 3024 0648 00       		.sleb128 0
 3025 0649 02       		.byte	0x2
 3026 064a 74       		.byte	0x74
 3027 064b 00       		.sleb128 0
 3028 064c 00       		.byte	0
 3029 064d 18       		.uleb128 0x18
 3030 064e 2E050000 		.4byte	.LVL73
 3031 0652 340B0000 		.4byte	0xb34
 3032 0656 6B060000 		.4byte	0x66b
 3033 065a 19       		.uleb128 0x19
 3034 065b 01       		.byte	0x1
 3035 065c 53       		.byte	0x53
 3036 065d 02       		.byte	0x2
 3037 065e 74       		.byte	0x74
 3038 065f 00       		.sleb128 0
 3039 0660 19       		.uleb128 0x19
 3040 0661 01       		.byte	0x1
 3041 0662 51       		.byte	0x51
 3042 0663 01       		.byte	0x1
 3043 0664 30       		.byte	0x30
 3044 0665 19       		.uleb128 0x19
 3045 0666 01       		.byte	0x1
 3046 0667 50       		.byte	0x50
 3047 0668 01       		.byte	0x1
 3048 0669 31       		.byte	0x31
 3049 066a 00       		.byte	0
 3050 066b 18       		.uleb128 0x18
 3051 066c 52050000 		.4byte	.LVL74
 3052 0670 A10B0000 		.4byte	0xba1
 3053 0674 8F060000 		.4byte	0x68f
 3054 0678 19       		.uleb128 0x19
 3055 0679 01       		.byte	0x1
 3056 067a 52       		.byte	0x52
ARM GAS  C:\Users\Computer\AppData\Local\Temp\ccQy7sfN.s 			page 64


 3057 067b 01       		.byte	0x1
 3058 067c 33       		.byte	0x33
 3059 067d 19       		.uleb128 0x19
 3060 067e 01       		.byte	0x1
 3061 067f 51       		.byte	0x51
 3062 0680 01       		.byte	0x1
 3063 0681 31       		.byte	0x31
 3064 0682 19       		.uleb128 0x19
 3065 0683 01       		.byte	0x1
 3066 0684 50       		.byte	0x50
 3067 0685 01       		.byte	0x1
 3068 0686 34       		.byte	0x34
 3069 0687 19       		.uleb128 0x19
 3070 0688 02       		.byte	0x2
 3071 0689 7D       		.byte	0x7d
 3072 068a 00       		.sleb128 0
 3073 068b 02       		.byte	0x2
 3074 068c 74       		.byte	0x74
 3075 068d 00       		.sleb128 0
 3076 068e 00       		.byte	0
 3077 068f 18       		.uleb128 0x18
 3078 0690 68050000 		.4byte	.LVL75
 3079 0694 340B0000 		.4byte	0xb34
 3080 0698 AD060000 		.4byte	0x6ad
 3081 069c 19       		.uleb128 0x19
 3082 069d 01       		.byte	0x1
 3083 069e 53       		.byte	0x53
 3084 069f 02       		.byte	0x2
 3085 06a0 74       		.byte	0x74
 3086 06a1 00       		.sleb128 0
 3087 06a2 19       		.uleb128 0x19
 3088 06a3 01       		.byte	0x1
 3089 06a4 51       		.byte	0x51
 3090 06a5 01       		.byte	0x1
 3091 06a6 30       		.byte	0x30
 3092 06a7 19       		.uleb128 0x19
 3093 06a8 01       		.byte	0x1
 3094 06a9 50       		.byte	0x50
 3095 06aa 01       		.byte	0x1
 3096 06ab 32       		.byte	0x32
 3097 06ac 00       		.byte	0
 3098 06ad 18       		.uleb128 0x18
 3099 06ae 8A050000 		.4byte	.LVL76
 3100 06b2 A10B0000 		.4byte	0xba1
 3101 06b6 D1060000 		.4byte	0x6d1
 3102 06ba 19       		.uleb128 0x19
 3103 06bb 01       		.byte	0x1
 3104 06bc 52       		.byte	0x52
 3105 06bd 01       		.byte	0x1
 3106 06be 33       		.byte	0x33
 3107 06bf 19       		.uleb128 0x19
 3108 06c0 01       		.byte	0x1
 3109 06c1 51       		.byte	0x51
 3110 06c2 01       		.byte	0x1
 3111 06c3 31       		.byte	0x31
 3112 06c4 19       		.uleb128 0x19
 3113 06c5 01       		.byte	0x1
ARM GAS  C:\Users\Computer\AppData\Local\Temp\ccQy7sfN.s 			page 65


 3114 06c6 50       		.byte	0x50
 3115 06c7 01       		.byte	0x1
 3116 06c8 38       		.byte	0x38
 3117 06c9 19       		.uleb128 0x19
 3118 06ca 02       		.byte	0x2
 3119 06cb 7D       		.byte	0x7d
 3120 06cc 00       		.sleb128 0
 3121 06cd 02       		.byte	0x2
 3122 06ce 74       		.byte	0x74
 3123 06cf 00       		.sleb128 0
 3124 06d0 00       		.byte	0
 3125 06d1 18       		.uleb128 0x18
 3126 06d2 AE050000 		.4byte	.LVL77
 3127 06d6 340B0000 		.4byte	0xb34
 3128 06da EF060000 		.4byte	0x6ef
 3129 06de 19       		.uleb128 0x19
 3130 06df 01       		.byte	0x1
 3131 06e0 53       		.byte	0x53
 3132 06e1 02       		.byte	0x2
 3133 06e2 74       		.byte	0x74
 3134 06e3 00       		.sleb128 0
 3135 06e4 19       		.uleb128 0x19
 3136 06e5 01       		.byte	0x1
 3137 06e6 51       		.byte	0x51
 3138 06e7 01       		.byte	0x1
 3139 06e8 30       		.byte	0x30
 3140 06e9 19       		.uleb128 0x19
 3141 06ea 01       		.byte	0x1
 3142 06eb 50       		.byte	0x50
 3143 06ec 01       		.byte	0x1
 3144 06ed 33       		.byte	0x33
 3145 06ee 00       		.byte	0
 3146 06ef 18       		.uleb128 0x18
 3147 06f0 DE050000 		.4byte	.LVL78
 3148 06f4 A10B0000 		.4byte	0xba1
 3149 06f8 13070000 		.4byte	0x713
 3150 06fc 19       		.uleb128 0x19
 3151 06fd 01       		.byte	0x1
 3152 06fe 52       		.byte	0x52
 3153 06ff 01       		.byte	0x1
 3154 0700 33       		.byte	0x33
 3155 0701 19       		.uleb128 0x19
 3156 0702 01       		.byte	0x1
 3157 0703 51       		.byte	0x51
 3158 0704 01       		.byte	0x1
 3159 0705 31       		.byte	0x31
 3160 0706 19       		.uleb128 0x19
 3161 0707 01       		.byte	0x1
 3162 0708 50       		.byte	0x50
 3163 0709 01       		.byte	0x1
 3164 070a 3C       		.byte	0x3c
 3165 070b 19       		.uleb128 0x19
 3166 070c 02       		.byte	0x2
 3167 070d 7D       		.byte	0x7d
 3168 070e 00       		.sleb128 0
 3169 070f 02       		.byte	0x2
 3170 0710 74       		.byte	0x74
ARM GAS  C:\Users\Computer\AppData\Local\Temp\ccQy7sfN.s 			page 66


 3171 0711 00       		.sleb128 0
 3172 0712 00       		.byte	0
 3173 0713 18       		.uleb128 0x18
 3174 0714 EA050000 		.4byte	.LVL79
 3175 0718 340B0000 		.4byte	0xb34
 3176 071c 31070000 		.4byte	0x731
 3177 0720 19       		.uleb128 0x19
 3178 0721 01       		.byte	0x1
 3179 0722 53       		.byte	0x53
 3180 0723 02       		.byte	0x2
 3181 0724 74       		.byte	0x74
 3182 0725 00       		.sleb128 0
 3183 0726 19       		.uleb128 0x19
 3184 0727 01       		.byte	0x1
 3185 0728 51       		.byte	0x51
 3186 0729 01       		.byte	0x1
 3187 072a 30       		.byte	0x30
 3188 072b 19       		.uleb128 0x19
 3189 072c 01       		.byte	0x1
 3190 072d 50       		.byte	0x50
 3191 072e 01       		.byte	0x1
 3192 072f 34       		.byte	0x34
 3193 0730 00       		.byte	0
 3194 0731 18       		.uleb128 0x18
 3195 0732 02060000 		.4byte	.LVL80
 3196 0736 A10B0000 		.4byte	0xba1
 3197 073a 55070000 		.4byte	0x755
 3198 073e 19       		.uleb128 0x19
 3199 073f 01       		.byte	0x1
 3200 0740 52       		.byte	0x52
 3201 0741 01       		.byte	0x1
 3202 0742 33       		.byte	0x33
 3203 0743 19       		.uleb128 0x19
 3204 0744 01       		.byte	0x1
 3205 0745 51       		.byte	0x51
 3206 0746 01       		.byte	0x1
 3207 0747 31       		.byte	0x31
 3208 0748 19       		.uleb128 0x19
 3209 0749 01       		.byte	0x1
 3210 074a 50       		.byte	0x50
 3211 074b 01       		.byte	0x1
 3212 074c 40       		.byte	0x40
 3213 074d 19       		.uleb128 0x19
 3214 074e 02       		.byte	0x2
 3215 074f 7D       		.byte	0x7d
 3216 0750 00       		.sleb128 0
 3217 0751 02       		.byte	0x2
 3218 0752 74       		.byte	0x74
 3219 0753 00       		.sleb128 0
 3220 0754 00       		.byte	0
 3221 0755 18       		.uleb128 0x18
 3222 0756 26060000 		.4byte	.LVL81
 3223 075a 340B0000 		.4byte	0xb34
 3224 075e 73070000 		.4byte	0x773
 3225 0762 19       		.uleb128 0x19
 3226 0763 01       		.byte	0x1
 3227 0764 53       		.byte	0x53
ARM GAS  C:\Users\Computer\AppData\Local\Temp\ccQy7sfN.s 			page 67


 3228 0765 02       		.byte	0x2
 3229 0766 74       		.byte	0x74
 3230 0767 00       		.sleb128 0
 3231 0768 19       		.uleb128 0x19
 3232 0769 01       		.byte	0x1
 3233 076a 51       		.byte	0x51
 3234 076b 01       		.byte	0x1
 3235 076c 30       		.byte	0x30
 3236 076d 19       		.uleb128 0x19
 3237 076e 01       		.byte	0x1
 3238 076f 50       		.byte	0x50
 3239 0770 01       		.byte	0x1
 3240 0771 35       		.byte	0x35
 3241 0772 00       		.byte	0
 3242 0773 18       		.uleb128 0x18
 3243 0774 52060000 		.4byte	.LVL82
 3244 0778 A10B0000 		.4byte	0xba1
 3245 077c 97070000 		.4byte	0x797
 3246 0780 19       		.uleb128 0x19
 3247 0781 01       		.byte	0x1
 3248 0782 52       		.byte	0x52
 3249 0783 01       		.byte	0x1
 3250 0784 33       		.byte	0x33
 3251 0785 19       		.uleb128 0x19
 3252 0786 01       		.byte	0x1
 3253 0787 51       		.byte	0x51
 3254 0788 01       		.byte	0x1
 3255 0789 31       		.byte	0x31
 3256 078a 19       		.uleb128 0x19
 3257 078b 01       		.byte	0x1
 3258 078c 50       		.byte	0x50
 3259 078d 01       		.byte	0x1
 3260 078e 44       		.byte	0x44
 3261 078f 19       		.uleb128 0x19
 3262 0790 02       		.byte	0x2
 3263 0791 7D       		.byte	0x7d
 3264 0792 00       		.sleb128 0
 3265 0793 02       		.byte	0x2
 3266 0794 74       		.byte	0x74
 3267 0795 00       		.sleb128 0
 3268 0796 00       		.byte	0
 3269 0797 18       		.uleb128 0x18
 3270 0798 68060000 		.4byte	.LVL83
 3271 079c 340B0000 		.4byte	0xb34
 3272 07a0 B5070000 		.4byte	0x7b5
 3273 07a4 19       		.uleb128 0x19
 3274 07a5 01       		.byte	0x1
 3275 07a6 53       		.byte	0x53
 3276 07a7 02       		.byte	0x2
 3277 07a8 74       		.byte	0x74
 3278 07a9 00       		.sleb128 0
 3279 07aa 19       		.uleb128 0x19
 3280 07ab 01       		.byte	0x1
 3281 07ac 51       		.byte	0x51
 3282 07ad 01       		.byte	0x1
 3283 07ae 30       		.byte	0x30
 3284 07af 19       		.uleb128 0x19
ARM GAS  C:\Users\Computer\AppData\Local\Temp\ccQy7sfN.s 			page 68


 3285 07b0 01       		.byte	0x1
 3286 07b1 50       		.byte	0x50
 3287 07b2 01       		.byte	0x1
 3288 07b3 36       		.byte	0x36
 3289 07b4 00       		.byte	0
 3290 07b5 18       		.uleb128 0x18
 3291 07b6 88060000 		.4byte	.LVL84
 3292 07ba A10B0000 		.4byte	0xba1
 3293 07be D9070000 		.4byte	0x7d9
 3294 07c2 19       		.uleb128 0x19
 3295 07c3 01       		.byte	0x1
 3296 07c4 52       		.byte	0x52
 3297 07c5 01       		.byte	0x1
 3298 07c6 33       		.byte	0x33
 3299 07c7 19       		.uleb128 0x19
 3300 07c8 01       		.byte	0x1
 3301 07c9 51       		.byte	0x51
 3302 07ca 01       		.byte	0x1
 3303 07cb 31       		.byte	0x31
 3304 07cc 19       		.uleb128 0x19
 3305 07cd 01       		.byte	0x1
 3306 07ce 50       		.byte	0x50
 3307 07cf 01       		.byte	0x1
 3308 07d0 48       		.byte	0x48
 3309 07d1 19       		.uleb128 0x19
 3310 07d2 02       		.byte	0x2
 3311 07d3 7D       		.byte	0x7d
 3312 07d4 00       		.sleb128 0
 3313 07d5 02       		.byte	0x2
 3314 07d6 74       		.byte	0x74
 3315 07d7 00       		.sleb128 0
 3316 07d8 00       		.byte	0
 3317 07d9 18       		.uleb128 0x18
 3318 07da AC060000 		.4byte	.LVL85
 3319 07de 340B0000 		.4byte	0xb34
 3320 07e2 F7070000 		.4byte	0x7f7
 3321 07e6 19       		.uleb128 0x19
 3322 07e7 01       		.byte	0x1
 3323 07e8 53       		.byte	0x53
 3324 07e9 02       		.byte	0x2
 3325 07ea 74       		.byte	0x74
 3326 07eb 00       		.sleb128 0
 3327 07ec 19       		.uleb128 0x19
 3328 07ed 01       		.byte	0x1
 3329 07ee 51       		.byte	0x51
 3330 07ef 01       		.byte	0x1
 3331 07f0 30       		.byte	0x30
 3332 07f1 19       		.uleb128 0x19
 3333 07f2 01       		.byte	0x1
 3334 07f3 50       		.byte	0x50
 3335 07f4 01       		.byte	0x1
 3336 07f5 37       		.byte	0x37
 3337 07f6 00       		.byte	0
 3338 07f7 18       		.uleb128 0x18
 3339 07f8 DA060000 		.4byte	.LVL86
 3340 07fc A10B0000 		.4byte	0xba1
 3341 0800 16080000 		.4byte	0x816
ARM GAS  C:\Users\Computer\AppData\Local\Temp\ccQy7sfN.s 			page 69


 3342 0804 19       		.uleb128 0x19
 3343 0805 01       		.byte	0x1
 3344 0806 52       		.byte	0x52
 3345 0807 01       		.byte	0x1
 3346 0808 33       		.byte	0x33
 3347 0809 19       		.uleb128 0x19
 3348 080a 01       		.byte	0x1
 3349 080b 50       		.byte	0x50
 3350 080c 01       		.byte	0x1
 3351 080d 4C       		.byte	0x4c
 3352 080e 19       		.uleb128 0x19
 3353 080f 02       		.byte	0x2
 3354 0810 7D       		.byte	0x7d
 3355 0811 00       		.sleb128 0
 3356 0812 02       		.byte	0x2
 3357 0813 74       		.byte	0x74
 3358 0814 00       		.sleb128 0
 3359 0815 00       		.byte	0
 3360 0816 18       		.uleb128 0x18
 3361 0817 22070000 		.4byte	.LVL95
 3362 081b A10B0000 		.4byte	0xba1
 3363 081f 3A080000 		.4byte	0x83a
 3364 0823 19       		.uleb128 0x19
 3365 0824 01       		.byte	0x1
 3366 0825 52       		.byte	0x52
 3367 0826 01       		.byte	0x1
 3368 0827 33       		.byte	0x33
 3369 0828 19       		.uleb128 0x19
 3370 0829 01       		.byte	0x1
 3371 082a 51       		.byte	0x51
 3372 082b 01       		.byte	0x1
 3373 082c 31       		.byte	0x31
 3374 082d 19       		.uleb128 0x19
 3375 082e 01       		.byte	0x1
 3376 082f 50       		.byte	0x50
 3377 0830 01       		.byte	0x1
 3378 0831 4C       		.byte	0x4c
 3379 0832 19       		.uleb128 0x19
 3380 0833 02       		.byte	0x2
 3381 0834 7D       		.byte	0x7d
 3382 0835 00       		.sleb128 0
 3383 0836 02       		.byte	0x2
 3384 0837 74       		.byte	0x74
 3385 0838 00       		.sleb128 0
 3386 0839 00       		.byte	0
 3387 083a 18       		.uleb128 0x18
 3388 083b 3C070000 		.4byte	.LVL97
 3389 083f A10B0000 		.4byte	0xba1
 3390 0843 59080000 		.4byte	0x859
 3391 0847 19       		.uleb128 0x19
 3392 0848 01       		.byte	0x1
 3393 0849 52       		.byte	0x52
 3394 084a 01       		.byte	0x1
 3395 084b 33       		.byte	0x33
 3396 084c 19       		.uleb128 0x19
 3397 084d 01       		.byte	0x1
 3398 084e 50       		.byte	0x50
ARM GAS  C:\Users\Computer\AppData\Local\Temp\ccQy7sfN.s 			page 70


 3399 084f 01       		.byte	0x1
 3400 0850 48       		.byte	0x48
 3401 0851 19       		.uleb128 0x19
 3402 0852 02       		.byte	0x2
 3403 0853 7D       		.byte	0x7d
 3404 0854 00       		.sleb128 0
 3405 0855 02       		.byte	0x2
 3406 0856 74       		.byte	0x74
 3407 0857 00       		.sleb128 0
 3408 0858 00       		.byte	0
 3409 0859 18       		.uleb128 0x18
 3410 085a 62070000 		.4byte	.LVL99
 3411 085e A10B0000 		.4byte	0xba1
 3412 0862 78080000 		.4byte	0x878
 3413 0866 19       		.uleb128 0x19
 3414 0867 01       		.byte	0x1
 3415 0868 52       		.byte	0x52
 3416 0869 01       		.byte	0x1
 3417 086a 33       		.byte	0x33
 3418 086b 19       		.uleb128 0x19
 3419 086c 01       		.byte	0x1
 3420 086d 50       		.byte	0x50
 3421 086e 01       		.byte	0x1
 3422 086f 44       		.byte	0x44
 3423 0870 19       		.uleb128 0x19
 3424 0871 02       		.byte	0x2
 3425 0872 7D       		.byte	0x7d
 3426 0873 00       		.sleb128 0
 3427 0874 02       		.byte	0x2
 3428 0875 74       		.byte	0x74
 3429 0876 00       		.sleb128 0
 3430 0877 00       		.byte	0
 3431 0878 18       		.uleb128 0x18
 3432 0879 72070000 		.4byte	.LVL101
 3433 087d A10B0000 		.4byte	0xba1
 3434 0881 97080000 		.4byte	0x897
 3435 0885 19       		.uleb128 0x19
 3436 0886 01       		.byte	0x1
 3437 0887 52       		.byte	0x52
 3438 0888 01       		.byte	0x1
 3439 0889 33       		.byte	0x33
 3440 088a 19       		.uleb128 0x19
 3441 088b 01       		.byte	0x1
 3442 088c 50       		.byte	0x50
 3443 088d 01       		.byte	0x1
 3444 088e 40       		.byte	0x40
 3445 088f 19       		.uleb128 0x19
 3446 0890 02       		.byte	0x2
 3447 0891 7D       		.byte	0x7d
 3448 0892 00       		.sleb128 0
 3449 0893 02       		.byte	0x2
 3450 0894 74       		.byte	0x74
 3451 0895 00       		.sleb128 0
 3452 0896 00       		.byte	0
 3453 0897 18       		.uleb128 0x18
 3454 0898 9A070000 		.4byte	.LVL103
 3455 089c A10B0000 		.4byte	0xba1
ARM GAS  C:\Users\Computer\AppData\Local\Temp\ccQy7sfN.s 			page 71


 3456 08a0 B6080000 		.4byte	0x8b6
 3457 08a4 19       		.uleb128 0x19
 3458 08a5 01       		.byte	0x1
 3459 08a6 52       		.byte	0x52
 3460 08a7 01       		.byte	0x1
 3461 08a8 33       		.byte	0x33
 3462 08a9 19       		.uleb128 0x19
 3463 08aa 01       		.byte	0x1
 3464 08ab 50       		.byte	0x50
 3465 08ac 01       		.byte	0x1
 3466 08ad 3C       		.byte	0x3c
 3467 08ae 19       		.uleb128 0x19
 3468 08af 02       		.byte	0x2
 3469 08b0 7D       		.byte	0x7d
 3470 08b1 00       		.sleb128 0
 3471 08b2 02       		.byte	0x2
 3472 08b3 74       		.byte	0x74
 3473 08b4 00       		.sleb128 0
 3474 08b5 00       		.byte	0
 3475 08b6 18       		.uleb128 0x18
 3476 08b7 B4070000 		.4byte	.LVL105
 3477 08bb A10B0000 		.4byte	0xba1
 3478 08bf D5080000 		.4byte	0x8d5
 3479 08c3 19       		.uleb128 0x19
 3480 08c4 01       		.byte	0x1
 3481 08c5 52       		.byte	0x52
 3482 08c6 01       		.byte	0x1
 3483 08c7 33       		.byte	0x33
 3484 08c8 19       		.uleb128 0x19
 3485 08c9 01       		.byte	0x1
 3486 08ca 50       		.byte	0x50
 3487 08cb 01       		.byte	0x1
 3488 08cc 38       		.byte	0x38
 3489 08cd 19       		.uleb128 0x19
 3490 08ce 02       		.byte	0x2
 3491 08cf 7D       		.byte	0x7d
 3492 08d0 00       		.sleb128 0
 3493 08d1 02       		.byte	0x2
 3494 08d2 74       		.byte	0x74
 3495 08d3 00       		.sleb128 0
 3496 08d4 00       		.byte	0
 3497 08d5 18       		.uleb128 0x18
 3498 08d6 D2070000 		.4byte	.LVL107
 3499 08da A10B0000 		.4byte	0xba1
 3500 08de F4080000 		.4byte	0x8f4
 3501 08e2 19       		.uleb128 0x19
 3502 08e3 01       		.byte	0x1
 3503 08e4 52       		.byte	0x52
 3504 08e5 01       		.byte	0x1
 3505 08e6 33       		.byte	0x33
 3506 08e7 19       		.uleb128 0x19
 3507 08e8 01       		.byte	0x1
 3508 08e9 50       		.byte	0x50
 3509 08ea 01       		.byte	0x1
 3510 08eb 34       		.byte	0x34
 3511 08ec 19       		.uleb128 0x19
 3512 08ed 02       		.byte	0x2
ARM GAS  C:\Users\Computer\AppData\Local\Temp\ccQy7sfN.s 			page 72


 3513 08ee 7D       		.byte	0x7d
 3514 08ef 00       		.sleb128 0
 3515 08f0 02       		.byte	0x2
 3516 08f1 74       		.byte	0x74
 3517 08f2 00       		.sleb128 0
 3518 08f3 00       		.byte	0
 3519 08f4 1A       		.uleb128 0x1a
 3520 08f5 E2070000 		.4byte	.LVL109
 3521 08f9 A10B0000 		.4byte	0xba1
 3522 08fd 19       		.uleb128 0x19
 3523 08fe 01       		.byte	0x1
 3524 08ff 52       		.byte	0x52
 3525 0900 01       		.byte	0x1
 3526 0901 33       		.byte	0x33
 3527 0902 19       		.uleb128 0x19
 3528 0903 01       		.byte	0x1
 3529 0904 50       		.byte	0x50
 3530 0905 01       		.byte	0x1
 3531 0906 30       		.byte	0x30
 3532 0907 19       		.uleb128 0x19
 3533 0908 02       		.byte	0x2
 3534 0909 7D       		.byte	0x7d
 3535 090a 00       		.sleb128 0
 3536 090b 02       		.byte	0x2
 3537 090c 74       		.byte	0x74
 3538 090d 00       		.sleb128 0
 3539 090e 00       		.byte	0
 3540 090f 00       		.byte	0
 3541 0910 0B       		.uleb128 0xb
 3542 0911 60010000 		.4byte	0x160
 3543 0915 20090000 		.4byte	0x920
 3544 0919 0C       		.uleb128 0xc
 3545 091a E4000000 		.4byte	0xe4
 3546 091e 07       		.byte	0x7
 3547 091f 00       		.byte	0
 3548 0920 0B       		.uleb128 0xb
 3549 0921 28010000 		.4byte	0x128
 3550 0925 30090000 		.4byte	0x930
 3551 0929 0C       		.uleb128 0xc
 3552 092a E4000000 		.4byte	0xe4
 3553 092e 3F       		.byte	0x3f
 3554 092f 00       		.byte	0
 3555 0930 1B       		.uleb128 0x1b
 3556 0931 13010000 		.4byte	.LASF37
 3557 0935 01       		.byte	0x1
 3558 0936 08       		.byte	0x8
 3559 0937 20090000 		.4byte	0x920
 3560 093b 01       		.byte	0x1
 3561 093c 05       		.byte	0x5
 3562 093d 03       		.byte	0x3
 3563 093e 00000000 		.4byte	matrix
 3564 0942 1C       		.uleb128 0x1c
 3565 0943 6A00     		.ascii	"j\000"
 3566 0945 01       		.byte	0x1
 3567 0946 05       		.byte	0x5
 3568 0947 6F000000 		.4byte	0x6f
 3569 094b 01       		.byte	0x1
ARM GAS  C:\Users\Computer\AppData\Local\Temp\ccQy7sfN.s 			page 73


 3570 094c 05       		.byte	0x5
 3571 094d 03       		.byte	0x3
 3572 094e 00000000 		.4byte	j
 3573 0952 1B       		.uleb128 0x1b
 3574 0953 FD000000 		.4byte	.LASF38
 3575 0957 01       		.byte	0x1
 3576 0958 05       		.byte	0x5
 3577 0959 6F000000 		.4byte	0x6f
 3578 095d 01       		.byte	0x1
 3579 095e 05       		.byte	0x5
 3580 095f 03       		.byte	0x3
 3581 0960 00000000 		.4byte	pwm_count
 3582 0964 1B       		.uleb128 0x1b
 3583 0965 01030000 		.4byte	.LASF39
 3584 0969 01       		.byte	0x1
 3585 096a 06       		.byte	0x6
 3586 096b 6F000000 		.4byte	0x6f
 3587 096f 01       		.byte	0x1
 3588 0970 05       		.byte	0x5
 3589 0971 03       		.byte	0x3
 3590 0972 00000000 		.4byte	bit_shift
 3591 0976 0B       		.uleb128 0xb
 3592 0977 7A000000 		.4byte	0x7a
 3593 097b 86090000 		.4byte	0x986
 3594 097f 0C       		.uleb128 0xc
 3595 0980 E4000000 		.4byte	0xe4
 3596 0984 07       		.byte	0x7
 3597 0985 00       		.byte	0
 3598 0986 1B       		.uleb128 0x1b
 3599 0987 07000000 		.4byte	.LASF40
 3600 098b 01       		.byte	0x1
 3601 098c 07       		.byte	0x7
 3602 098d 76090000 		.4byte	0x976
 3603 0991 01       		.byte	0x1
 3604 0992 05       		.byte	0x5
 3605 0993 03       		.byte	0x3
 3606 0994 00000000 		.4byte	adcMax
 3607 0998 1B       		.uleb128 0x1b
 3608 0999 7D020000 		.4byte	.LASF41
 3609 099d 01       		.byte	0x1
 3610 099e 0A       		.byte	0xa
 3611 099f 61000000 		.4byte	0x61
 3612 09a3 01       		.byte	0x1
 3613 09a4 05       		.byte	0x5
 3614 09a5 03       		.byte	0x3
 3615 09a6 00000000 		.4byte	mode
 3616 09aa 1B       		.uleb128 0x1b
 3617 09ab 76010000 		.4byte	.LASF42
 3618 09af 01       		.byte	0x1
 3619 09b0 5B       		.byte	0x5b
 3620 09b1 6F000000 		.4byte	0x6f
 3621 09b5 01       		.byte	0x1
 3622 09b6 05       		.byte	0x5
 3623 09b7 03       		.byte	0x3
 3624 09b8 00000000 		.4byte	dataReady
 3625 09bc 1B       		.uleb128 0x1b
 3626 09bd 1A030000 		.4byte	.LASF43
ARM GAS  C:\Users\Computer\AppData\Local\Temp\ccQy7sfN.s 			page 74


 3627 09c1 01       		.byte	0x1
 3628 09c2 5C       		.byte	0x5c
 3629 09c3 76090000 		.4byte	0x976
 3630 09c7 01       		.byte	0x1
 3631 09c8 05       		.byte	0x5
 3632 09c9 03       		.byte	0x3
 3633 09ca 00000000 		.4byte	result
 3634 09ce 0B       		.uleb128 0xb
 3635 09cf 6F000000 		.4byte	0x6f
 3636 09d3 DE090000 		.4byte	0x9de
 3637 09d7 0C       		.uleb128 0xc
 3638 09d8 E4000000 		.4byte	0xe4
 3639 09dc 07       		.byte	0x7
 3640 09dd 00       		.byte	0
 3641 09de 1B       		.uleb128 0x1b
 3642 09df 10030000 		.4byte	.LASF44
 3643 09e3 01       		.byte	0x1
 3644 09e4 5D       		.byte	0x5d
 3645 09e5 CE090000 		.4byte	0x9ce
 3646 09e9 01       		.byte	0x1
 3647 09ea 05       		.byte	0x5
 3648 09eb 03       		.byte	0x3
 3649 09ec 00000000 		.4byte	oldResult
 3650 09f0 1B       		.uleb128 0x1b
 3651 09f1 97020000 		.4byte	.LASF45
 3652 09f5 01       		.byte	0x1
 3653 09f6 5E       		.byte	0x5e
 3654 09f7 CE090000 		.4byte	0x9ce
 3655 09fb 01       		.byte	0x1
 3656 09fc 05       		.byte	0x5
 3657 09fd 03       		.byte	0x3
 3658 09fe 00000000 		.4byte	scaledResult
 3659 0a02 1C       		.uleb128 0x1c
 3660 0a03 7700     		.ascii	"w\000"
 3661 0a05 01       		.byte	0x1
 3662 0a06 5F       		.byte	0x5f
 3663 0a07 61000000 		.4byte	0x61
 3664 0a0b 01       		.byte	0x1
 3665 0a0c 05       		.byte	0x5
 3666 0a0d 03       		.byte	0x3
 3667 0a0e 00000000 		.4byte	w
 3668 0a12 1B       		.uleb128 0x1b
 3669 0a13 E7000000 		.4byte	.LASF46
 3670 0a17 01       		.byte	0x1
 3671 0a18 60       		.byte	0x60
 3672 0a19 61000000 		.4byte	0x61
 3673 0a1d 01       		.byte	0x1
 3674 0a1e 05       		.byte	0x5
 3675 0a1f 03       		.byte	0x3
 3676 0a20 00000000 		.4byte	refresh
 3677 0a24 1D       		.uleb128 0x1d
 3678 0a25 01       		.byte	0x1
 3679 0a26 8B000000 		.4byte	.LASF50
 3680 0a2a 06       		.byte	0x6
 3681 0a2b 6C       		.byte	0x6c
 3682 0a2c 01       		.byte	0x1
 3683 0a2d 01       		.byte	0x1
ARM GAS  C:\Users\Computer\AppData\Local\Temp\ccQy7sfN.s 			page 75


 3684 0a2e 1E       		.uleb128 0x1e
 3685 0a2f 01       		.byte	0x1
 3686 0a30 F4010000 		.4byte	.LASF56
 3687 0a34 04       		.byte	0x4
 3688 0a35 23       		.byte	0x23
 3689 0a36 01       		.byte	0x1
 3690 0a37 6F000000 		.4byte	0x6f
 3691 0a3b 01       		.byte	0x1
 3692 0a3c 4B0A0000 		.4byte	0xa4b
 3693 0a40 1F       		.uleb128 0x1f
 3694 0a41 6F000000 		.4byte	0x6f
 3695 0a45 1F       		.uleb128 0x1f
 3696 0a46 6F000000 		.4byte	0x6f
 3697 0a4a 00       		.byte	0
 3698 0a4b 20       		.uleb128 0x20
 3699 0a4c 01       		.byte	0x1
 3700 0a4d 95010000 		.4byte	.LASF47
 3701 0a51 04       		.byte	0x4
 3702 0a52 20       		.byte	0x20
 3703 0a53 01       		.byte	0x1
 3704 0a54 01       		.byte	0x1
 3705 0a55 5F0A0000 		.4byte	0xa5f
 3706 0a59 1F       		.uleb128 0x1f
 3707 0a5a 5F0A0000 		.4byte	0xa5f
 3708 0a5e 00       		.byte	0
 3709 0a5f 07       		.uleb128 0x7
 3710 0a60 04       		.byte	0x4
 3711 0a61 F5010000 		.4byte	0x1f5
 3712 0a65 20       		.uleb128 0x20
 3713 0a66 01       		.byte	0x1
 3714 0a67 A3010000 		.4byte	.LASF48
 3715 0a6b 03       		.byte	0x3
 3716 0a6c 3F       		.byte	0x3f
 3717 0a6d 01       		.byte	0x1
 3718 0a6e 01       		.byte	0x1
 3719 0a6f 790A0000 		.4byte	0xa79
 3720 0a73 1F       		.uleb128 0x1f
 3721 0a74 790A0000 		.4byte	0xa79
 3722 0a78 00       		.byte	0
 3723 0a79 07       		.uleb128 0x7
 3724 0a7a 04       		.byte	0x4
 3725 0a7b 28010000 		.4byte	0x128
 3726 0a7f 21       		.uleb128 0x21
 3727 0a80 01       		.byte	0x1
 3728 0a81 33000000 		.4byte	.LASF63
 3729 0a85 0B       		.byte	0xb
 3730 0a86 4E       		.byte	0x4e
 3731 0a87 01       		.byte	0x1
 3732 0a88 8E0A0000 		.4byte	0xa8e
 3733 0a8c 22       		.uleb128 0x22
 3734 0a8d 00       		.byte	0
 3735 0a8e 20       		.uleb128 0x20
 3736 0a8f 01       		.byte	0x1
 3737 0a90 0E000000 		.4byte	.LASF49
 3738 0a94 05       		.byte	0x5
 3739 0a95 18       		.byte	0x18
 3740 0a96 01       		.byte	0x1
ARM GAS  C:\Users\Computer\AppData\Local\Temp\ccQy7sfN.s 			page 76


 3741 0a97 01       		.byte	0x1
 3742 0a98 A20A0000 		.4byte	0xaa2
 3743 0a9c 1F       		.uleb128 0x1f
 3744 0a9d D0000000 		.4byte	0xd0
 3745 0aa1 00       		.byte	0
 3746 0aa2 1D       		.uleb128 0x1d
 3747 0aa3 01       		.byte	0x1
 3748 0aa4 AC020000 		.4byte	.LASF51
 3749 0aa8 07       		.byte	0x7
 3750 0aa9 87       		.byte	0x87
 3751 0aaa 01       		.byte	0x1
 3752 0aab 01       		.byte	0x1
 3753 0aac 1D       		.uleb128 0x1d
 3754 0aad 01       		.byte	0x1
 3755 0aae 4C000000 		.4byte	.LASF52
 3756 0ab2 07       		.byte	0x7
 3757 0ab3 8B       		.byte	0x8b
 3758 0ab4 01       		.byte	0x1
 3759 0ab5 01       		.byte	0x1
 3760 0ab6 20       		.uleb128 0x20
 3761 0ab7 01       		.byte	0x1
 3762 0ab8 07010000 		.4byte	.LASF53
 3763 0abc 08       		.byte	0x8
 3764 0abd 18       		.byte	0x18
 3765 0abe 01       		.byte	0x1
 3766 0abf 01       		.byte	0x1
 3767 0ac0 CA0A0000 		.4byte	0xaca
 3768 0ac4 1F       		.uleb128 0x1f
 3769 0ac5 D0000000 		.4byte	0xd0
 3770 0ac9 00       		.byte	0
 3771 0aca 20       		.uleb128 0x20
 3772 0acb 01       		.byte	0x1
 3773 0acc 80010000 		.4byte	.LASF54
 3774 0ad0 09       		.byte	0x9
 3775 0ad1 18       		.byte	0x18
 3776 0ad2 01       		.byte	0x1
 3777 0ad3 01       		.byte	0x1
 3778 0ad4 DE0A0000 		.4byte	0xade
 3779 0ad8 1F       		.uleb128 0x1f
 3780 0ad9 D0000000 		.4byte	0xd0
 3781 0add 00       		.byte	0
 3782 0ade 20       		.uleb128 0x20
 3783 0adf 01       		.byte	0x1
 3784 0ae0 A4020000 		.4byte	.LASF55
 3785 0ae4 0A       		.byte	0xa
 3786 0ae5 69       		.byte	0x69
 3787 0ae6 01       		.byte	0x1
 3788 0ae7 01       		.byte	0x1
 3789 0ae8 F20A0000 		.4byte	0xaf2
 3790 0aec 1F       		.uleb128 0x1f
 3791 0aed 85000000 		.4byte	0x85
 3792 0af1 00       		.byte	0
 3793 0af2 1E       		.uleb128 0x1e
 3794 0af3 01       		.byte	0x1
 3795 0af4 F4020000 		.4byte	.LASF57
 3796 0af8 03       		.byte	0x3
 3797 0af9 5D       		.byte	0x5d
ARM GAS  C:\Users\Computer\AppData\Local\Temp\ccQy7sfN.s 			page 77


 3798 0afa 01       		.byte	0x1
 3799 0afb 61000000 		.4byte	0x61
 3800 0aff 01       		.byte	0x1
 3801 0b00 0F0B0000 		.4byte	0xb0f
 3802 0b04 1F       		.uleb128 0x1f
 3803 0b05 0F0B0000 		.4byte	0xb0f
 3804 0b09 1F       		.uleb128 0x1f
 3805 0b0a 150B0000 		.4byte	0xb15
 3806 0b0e 00       		.byte	0
 3807 0b0f 07       		.uleb128 0x7
 3808 0b10 04       		.byte	0x4
 3809 0b11 6F000000 		.4byte	0x6f
 3810 0b15 07       		.uleb128 0x7
 3811 0b16 04       		.byte	0x4
 3812 0b17 7A000000 		.4byte	0x7a
 3813 0b1b 20       		.uleb128 0x20
 3814 0b1c 01       		.byte	0x1
 3815 0b1d B6020000 		.4byte	.LASF58
 3816 0b21 03       		.byte	0x3
 3817 0b22 60       		.byte	0x60
 3818 0b23 01       		.byte	0x1
 3819 0b24 01       		.byte	0x1
 3820 0b25 340B0000 		.4byte	0xb34
 3821 0b29 1F       		.uleb128 0x1f
 3822 0b2a 0F0B0000 		.4byte	0xb0f
 3823 0b2e 1F       		.uleb128 0x1f
 3824 0b2f 0F0B0000 		.4byte	0xb0f
 3825 0b33 00       		.byte	0
 3826 0b34 20       		.uleb128 0x20
 3827 0b35 01       		.byte	0x1
 3828 0b36 EA020000 		.4byte	.LASF59
 3829 0b3a 03       		.byte	0x3
 3830 0b3b 5C       		.byte	0x5c
 3831 0b3c 01       		.byte	0x1
 3832 0b3d 01       		.byte	0x1
 3833 0b3e 570B0000 		.4byte	0xb57
 3834 0b42 1F       		.uleb128 0x1f
 3835 0b43 90000000 		.4byte	0x90
 3836 0b47 1F       		.uleb128 0x1f
 3837 0b48 90000000 		.4byte	0x90
 3838 0b4c 1F       		.uleb128 0x1f
 3839 0b4d 60010000 		.4byte	0x160
 3840 0b51 1F       		.uleb128 0x1f
 3841 0b52 790A0000 		.4byte	0xa79
 3842 0b56 00       		.byte	0
 3843 0b57 1D       		.uleb128 0x1d
 3844 0b58 01       		.byte	0x1
 3845 0b59 53010000 		.4byte	.LASF60
 3846 0b5d 06       		.byte	0x6
 3847 0b5e 6B       		.byte	0x6b
 3848 0b5f 01       		.byte	0x1
 3849 0b60 01       		.byte	0x1
 3850 0b61 1E       		.uleb128 0x1e
 3851 0b62 01       		.byte	0x1
 3852 0b63 C2020000 		.4byte	.LASF61
 3853 0b67 04       		.byte	0x4
 3854 0b68 26       		.byte	0x26
ARM GAS  C:\Users\Computer\AppData\Local\Temp\ccQy7sfN.s 			page 78


 3855 0b69 01       		.byte	0x1
 3856 0b6a 6F000000 		.4byte	0x6f
 3857 0b6e 01       		.byte	0x1
 3858 0b6f 790B0000 		.4byte	0xb79
 3859 0b73 1F       		.uleb128 0x1f
 3860 0b74 5F0A0000 		.4byte	0xa5f
 3861 0b78 00       		.byte	0
 3862 0b79 20       		.uleb128 0x20
 3863 0b7a 01       		.byte	0x1
 3864 0b7b 8B010000 		.4byte	.LASF62
 3865 0b7f 03       		.byte	0x3
 3866 0b80 59       		.byte	0x59
 3867 0b81 01       		.byte	0x1
 3868 0b82 01       		.byte	0x1
 3869 0b83 A10B0000 		.4byte	0xba1
 3870 0b87 1F       		.uleb128 0x1f
 3871 0b88 6F000000 		.4byte	0x6f
 3872 0b8c 1F       		.uleb128 0x1f
 3873 0b8d 6F000000 		.4byte	0x6f
 3874 0b91 1F       		.uleb128 0x1f
 3875 0b92 6F000000 		.4byte	0x6f
 3876 0b96 1F       		.uleb128 0x1f
 3877 0b97 60010000 		.4byte	0x160
 3878 0b9b 1F       		.uleb128 0x1f
 3879 0b9c 790A0000 		.4byte	0xa79
 3880 0ba0 00       		.byte	0
 3881 0ba1 23       		.uleb128 0x23
 3882 0ba2 01       		.byte	0x1
 3883 0ba3 BE010000 		.4byte	.LASF64
 3884 0ba7 03       		.byte	0x3
 3885 0ba8 44       		.byte	0x44
 3886 0ba9 01       		.byte	0x1
 3887 0baa 01       		.byte	0x1
 3888 0bab 1F       		.uleb128 0x1f
 3889 0bac 90000000 		.4byte	0x90
 3890 0bb0 1F       		.uleb128 0x1f
 3891 0bb1 90000000 		.4byte	0x90
 3892 0bb5 1F       		.uleb128 0x1f
 3893 0bb6 90000000 		.4byte	0x90
 3894 0bba 1F       		.uleb128 0x1f
 3895 0bbb 60010000 		.4byte	0x160
 3896 0bbf 1F       		.uleb128 0x1f
 3897 0bc0 790A0000 		.4byte	0xa79
 3898 0bc4 00       		.byte	0
 3899 0bc5 00       		.byte	0
 3900              		.section	.debug_abbrev,"",%progbits
 3901              	.Ldebug_abbrev0:
 3902 0000 01       		.uleb128 0x1
 3903 0001 11       		.uleb128 0x11
 3904 0002 01       		.byte	0x1
 3905 0003 25       		.uleb128 0x25
 3906 0004 0E       		.uleb128 0xe
 3907 0005 13       		.uleb128 0x13
 3908 0006 0B       		.uleb128 0xb
 3909 0007 03       		.uleb128 0x3
 3910 0008 0E       		.uleb128 0xe
 3911 0009 1B       		.uleb128 0x1b
ARM GAS  C:\Users\Computer\AppData\Local\Temp\ccQy7sfN.s 			page 79


 3912 000a 0E       		.uleb128 0xe
 3913 000b 55       		.uleb128 0x55
 3914 000c 06       		.uleb128 0x6
 3915 000d 11       		.uleb128 0x11
 3916 000e 01       		.uleb128 0x1
 3917 000f 52       		.uleb128 0x52
 3918 0010 01       		.uleb128 0x1
 3919 0011 10       		.uleb128 0x10
 3920 0012 06       		.uleb128 0x6
 3921 0013 00       		.byte	0
 3922 0014 00       		.byte	0
 3923 0015 02       		.uleb128 0x2
 3924 0016 24       		.uleb128 0x24
 3925 0017 00       		.byte	0
 3926 0018 0B       		.uleb128 0xb
 3927 0019 0B       		.uleb128 0xb
 3928 001a 3E       		.uleb128 0x3e
 3929 001b 0B       		.uleb128 0xb
 3930 001c 03       		.uleb128 0x3
 3931 001d 0E       		.uleb128 0xe
 3932 001e 00       		.byte	0
 3933 001f 00       		.byte	0
 3934 0020 03       		.uleb128 0x3
 3935 0021 24       		.uleb128 0x24
 3936 0022 00       		.byte	0
 3937 0023 0B       		.uleb128 0xb
 3938 0024 0B       		.uleb128 0xb
 3939 0025 3E       		.uleb128 0x3e
 3940 0026 0B       		.uleb128 0xb
 3941 0027 03       		.uleb128 0x3
 3942 0028 08       		.uleb128 0x8
 3943 0029 00       		.byte	0
 3944 002a 00       		.byte	0
 3945 002b 04       		.uleb128 0x4
 3946 002c 16       		.uleb128 0x16
 3947 002d 00       		.byte	0
 3948 002e 03       		.uleb128 0x3
 3949 002f 0E       		.uleb128 0xe
 3950 0030 3A       		.uleb128 0x3a
 3951 0031 0B       		.uleb128 0xb
 3952 0032 3B       		.uleb128 0x3b
 3953 0033 0B       		.uleb128 0xb
 3954 0034 49       		.uleb128 0x49
 3955 0035 13       		.uleb128 0x13
 3956 0036 00       		.byte	0
 3957 0037 00       		.byte	0
 3958 0038 05       		.uleb128 0x5
 3959 0039 35       		.uleb128 0x35
 3960 003a 00       		.byte	0
 3961 003b 49       		.uleb128 0x49
 3962 003c 13       		.uleb128 0x13
 3963 003d 00       		.byte	0
 3964 003e 00       		.byte	0
 3965 003f 06       		.uleb128 0x6
 3966 0040 16       		.uleb128 0x16
 3967 0041 00       		.byte	0
 3968 0042 03       		.uleb128 0x3
ARM GAS  C:\Users\Computer\AppData\Local\Temp\ccQy7sfN.s 			page 80


 3969 0043 0E       		.uleb128 0xe
 3970 0044 3A       		.uleb128 0x3a
 3971 0045 0B       		.uleb128 0xb
 3972 0046 3B       		.uleb128 0x3b
 3973 0047 05       		.uleb128 0x5
 3974 0048 49       		.uleb128 0x49
 3975 0049 13       		.uleb128 0x13
 3976 004a 00       		.byte	0
 3977 004b 00       		.byte	0
 3978 004c 07       		.uleb128 0x7
 3979 004d 0F       		.uleb128 0xf
 3980 004e 00       		.byte	0
 3981 004f 0B       		.uleb128 0xb
 3982 0050 0B       		.uleb128 0xb
 3983 0051 49       		.uleb128 0x49
 3984 0052 13       		.uleb128 0x13
 3985 0053 00       		.byte	0
 3986 0054 00       		.byte	0
 3987 0055 08       		.uleb128 0x8
 3988 0056 15       		.uleb128 0x15
 3989 0057 00       		.byte	0
 3990 0058 27       		.uleb128 0x27
 3991 0059 0C       		.uleb128 0xc
 3992 005a 00       		.byte	0
 3993 005b 00       		.byte	0
 3994 005c 09       		.uleb128 0x9
 3995 005d 13       		.uleb128 0x13
 3996 005e 01       		.byte	0x1
 3997 005f 0B       		.uleb128 0xb
 3998 0060 0B       		.uleb128 0xb
 3999 0061 3A       		.uleb128 0x3a
 4000 0062 0B       		.uleb128 0xb
 4001 0063 3B       		.uleb128 0x3b
 4002 0064 0B       		.uleb128 0xb
 4003 0065 01       		.uleb128 0x1
 4004 0066 13       		.uleb128 0x13
 4005 0067 00       		.byte	0
 4006 0068 00       		.byte	0
 4007 0069 0A       		.uleb128 0xa
 4008 006a 0D       		.uleb128 0xd
 4009 006b 00       		.byte	0
 4010 006c 03       		.uleb128 0x3
 4011 006d 08       		.uleb128 0x8
 4012 006e 3A       		.uleb128 0x3a
 4013 006f 0B       		.uleb128 0xb
 4014 0070 3B       		.uleb128 0x3b
 4015 0071 0B       		.uleb128 0xb
 4016 0072 49       		.uleb128 0x49
 4017 0073 13       		.uleb128 0x13
 4018 0074 38       		.uleb128 0x38
 4019 0075 0A       		.uleb128 0xa
 4020 0076 00       		.byte	0
 4021 0077 00       		.byte	0
 4022 0078 0B       		.uleb128 0xb
 4023 0079 01       		.uleb128 0x1
 4024 007a 01       		.byte	0x1
 4025 007b 49       		.uleb128 0x49
ARM GAS  C:\Users\Computer\AppData\Local\Temp\ccQy7sfN.s 			page 81


 4026 007c 13       		.uleb128 0x13
 4027 007d 01       		.uleb128 0x1
 4028 007e 13       		.uleb128 0x13
 4029 007f 00       		.byte	0
 4030 0080 00       		.byte	0
 4031 0081 0C       		.uleb128 0xc
 4032 0082 21       		.uleb128 0x21
 4033 0083 00       		.byte	0
 4034 0084 49       		.uleb128 0x49
 4035 0085 13       		.uleb128 0x13
 4036 0086 2F       		.uleb128 0x2f
 4037 0087 0B       		.uleb128 0xb
 4038 0088 00       		.byte	0
 4039 0089 00       		.byte	0
 4040 008a 0D       		.uleb128 0xd
 4041 008b 16       		.uleb128 0x16
 4042 008c 00       		.byte	0
 4043 008d 03       		.uleb128 0x3
 4044 008e 08       		.uleb128 0x8
 4045 008f 3A       		.uleb128 0x3a
 4046 0090 0B       		.uleb128 0xb
 4047 0091 3B       		.uleb128 0x3b
 4048 0092 0B       		.uleb128 0xb
 4049 0093 49       		.uleb128 0x49
 4050 0094 13       		.uleb128 0x13
 4051 0095 00       		.byte	0
 4052 0096 00       		.byte	0
 4053 0097 0E       		.uleb128 0xe
 4054 0098 13       		.uleb128 0x13
 4055 0099 01       		.byte	0x1
 4056 009a 03       		.uleb128 0x3
 4057 009b 0E       		.uleb128 0xe
 4058 009c 0B       		.uleb128 0xb
 4059 009d 0B       		.uleb128 0xb
 4060 009e 3A       		.uleb128 0x3a
 4061 009f 0B       		.uleb128 0xb
 4062 00a0 3B       		.uleb128 0x3b
 4063 00a1 0B       		.uleb128 0xb
 4064 00a2 01       		.uleb128 0x1
 4065 00a3 13       		.uleb128 0x13
 4066 00a4 00       		.byte	0
 4067 00a5 00       		.byte	0
 4068 00a6 0F       		.uleb128 0xf
 4069 00a7 0D       		.uleb128 0xd
 4070 00a8 00       		.byte	0
 4071 00a9 03       		.uleb128 0x3
 4072 00aa 0E       		.uleb128 0xe
 4073 00ab 3A       		.uleb128 0x3a
 4074 00ac 0B       		.uleb128 0xb
 4075 00ad 3B       		.uleb128 0x3b
 4076 00ae 0B       		.uleb128 0xb
 4077 00af 49       		.uleb128 0x49
 4078 00b0 13       		.uleb128 0x13
 4079 00b1 38       		.uleb128 0x38
 4080 00b2 0A       		.uleb128 0xa
 4081 00b3 00       		.byte	0
 4082 00b4 00       		.byte	0
ARM GAS  C:\Users\Computer\AppData\Local\Temp\ccQy7sfN.s 			page 82


 4083 00b5 10       		.uleb128 0x10
 4084 00b6 2E       		.uleb128 0x2e
 4085 00b7 00       		.byte	0
 4086 00b8 3F       		.uleb128 0x3f
 4087 00b9 0C       		.uleb128 0xc
 4088 00ba 03       		.uleb128 0x3
 4089 00bb 0E       		.uleb128 0xe
 4090 00bc 3A       		.uleb128 0x3a
 4091 00bd 0B       		.uleb128 0xb
 4092 00be 3B       		.uleb128 0x3b
 4093 00bf 0B       		.uleb128 0xb
 4094 00c0 27       		.uleb128 0x27
 4095 00c1 0C       		.uleb128 0xc
 4096 00c2 11       		.uleb128 0x11
 4097 00c3 01       		.uleb128 0x1
 4098 00c4 12       		.uleb128 0x12
 4099 00c5 01       		.uleb128 0x1
 4100 00c6 40       		.uleb128 0x40
 4101 00c7 06       		.uleb128 0x6
 4102 00c8 9742     		.uleb128 0x2117
 4103 00ca 0C       		.uleb128 0xc
 4104 00cb 00       		.byte	0
 4105 00cc 00       		.byte	0
 4106 00cd 11       		.uleb128 0x11
 4107 00ce 2E       		.uleb128 0x2e
 4108 00cf 01       		.byte	0x1
 4109 00d0 3F       		.uleb128 0x3f
 4110 00d1 0C       		.uleb128 0xc
 4111 00d2 03       		.uleb128 0x3
 4112 00d3 0E       		.uleb128 0xe
 4113 00d4 3A       		.uleb128 0x3a
 4114 00d5 0B       		.uleb128 0xb
 4115 00d6 3B       		.uleb128 0x3b
 4116 00d7 0B       		.uleb128 0xb
 4117 00d8 49       		.uleb128 0x49
 4118 00d9 13       		.uleb128 0x13
 4119 00da 11       		.uleb128 0x11
 4120 00db 01       		.uleb128 0x1
 4121 00dc 12       		.uleb128 0x12
 4122 00dd 01       		.uleb128 0x1
 4123 00de 40       		.uleb128 0x40
 4124 00df 06       		.uleb128 0x6
 4125 00e0 9742     		.uleb128 0x2117
 4126 00e2 0C       		.uleb128 0xc
 4127 00e3 01       		.uleb128 0x1
 4128 00e4 13       		.uleb128 0x13
 4129 00e5 00       		.byte	0
 4130 00e6 00       		.byte	0
 4131 00e7 12       		.uleb128 0x12
 4132 00e8 34       		.uleb128 0x34
 4133 00e9 00       		.byte	0
 4134 00ea 03       		.uleb128 0x3
 4135 00eb 0E       		.uleb128 0xe
 4136 00ec 3A       		.uleb128 0x3a
 4137 00ed 0B       		.uleb128 0xb
 4138 00ee 3B       		.uleb128 0x3b
 4139 00ef 0B       		.uleb128 0xb
ARM GAS  C:\Users\Computer\AppData\Local\Temp\ccQy7sfN.s 			page 83


 4140 00f0 49       		.uleb128 0x49
 4141 00f1 13       		.uleb128 0x13
 4142 00f2 00       		.byte	0
 4143 00f3 00       		.byte	0
 4144 00f4 13       		.uleb128 0x13
 4145 00f5 34       		.uleb128 0x34
 4146 00f6 00       		.byte	0
 4147 00f7 03       		.uleb128 0x3
 4148 00f8 08       		.uleb128 0x8
 4149 00f9 3A       		.uleb128 0x3a
 4150 00fa 0B       		.uleb128 0xb
 4151 00fb 3B       		.uleb128 0x3b
 4152 00fc 0B       		.uleb128 0xb
 4153 00fd 49       		.uleb128 0x49
 4154 00fe 13       		.uleb128 0x13
 4155 00ff 02       		.uleb128 0x2
 4156 0100 06       		.uleb128 0x6
 4157 0101 00       		.byte	0
 4158 0102 00       		.byte	0
 4159 0103 14       		.uleb128 0x14
 4160 0104 34       		.uleb128 0x34
 4161 0105 00       		.byte	0
 4162 0106 03       		.uleb128 0x3
 4163 0107 08       		.uleb128 0x8
 4164 0108 3A       		.uleb128 0x3a
 4165 0109 0B       		.uleb128 0xb
 4166 010a 3B       		.uleb128 0x3b
 4167 010b 0B       		.uleb128 0xb
 4168 010c 49       		.uleb128 0x49
 4169 010d 13       		.uleb128 0x13
 4170 010e 02       		.uleb128 0x2
 4171 010f 0A       		.uleb128 0xa
 4172 0110 00       		.byte	0
 4173 0111 00       		.byte	0
 4174 0112 15       		.uleb128 0x15
 4175 0113 34       		.uleb128 0x34
 4176 0114 00       		.byte	0
 4177 0115 03       		.uleb128 0x3
 4178 0116 0E       		.uleb128 0xe
 4179 0117 3A       		.uleb128 0x3a
 4180 0118 0B       		.uleb128 0xb
 4181 0119 3B       		.uleb128 0x3b
 4182 011a 0B       		.uleb128 0xb
 4183 011b 49       		.uleb128 0x49
 4184 011c 13       		.uleb128 0x13
 4185 011d 02       		.uleb128 0x2
 4186 011e 0A       		.uleb128 0xa
 4187 011f 00       		.byte	0
 4188 0120 00       		.byte	0
 4189 0121 16       		.uleb128 0x16
 4190 0122 34       		.uleb128 0x34
 4191 0123 00       		.byte	0
 4192 0124 03       		.uleb128 0x3
 4193 0125 0E       		.uleb128 0xe
 4194 0126 3A       		.uleb128 0x3a
 4195 0127 0B       		.uleb128 0xb
 4196 0128 3B       		.uleb128 0x3b
ARM GAS  C:\Users\Computer\AppData\Local\Temp\ccQy7sfN.s 			page 84


 4197 0129 0B       		.uleb128 0xb
 4198 012a 49       		.uleb128 0x49
 4199 012b 13       		.uleb128 0x13
 4200 012c 02       		.uleb128 0x2
 4201 012d 06       		.uleb128 0x6
 4202 012e 00       		.byte	0
 4203 012f 00       		.byte	0
 4204 0130 17       		.uleb128 0x17
 4205 0131 898201   		.uleb128 0x4109
 4206 0134 00       		.byte	0
 4207 0135 11       		.uleb128 0x11
 4208 0136 01       		.uleb128 0x1
 4209 0137 31       		.uleb128 0x31
 4210 0138 13       		.uleb128 0x13
 4211 0139 00       		.byte	0
 4212 013a 00       		.byte	0
 4213 013b 18       		.uleb128 0x18
 4214 013c 898201   		.uleb128 0x4109
 4215 013f 01       		.byte	0x1
 4216 0140 11       		.uleb128 0x11
 4217 0141 01       		.uleb128 0x1
 4218 0142 31       		.uleb128 0x31
 4219 0143 13       		.uleb128 0x13
 4220 0144 01       		.uleb128 0x1
 4221 0145 13       		.uleb128 0x13
 4222 0146 00       		.byte	0
 4223 0147 00       		.byte	0
 4224 0148 19       		.uleb128 0x19
 4225 0149 8A8201   		.uleb128 0x410a
 4226 014c 00       		.byte	0
 4227 014d 02       		.uleb128 0x2
 4228 014e 0A       		.uleb128 0xa
 4229 014f 9142     		.uleb128 0x2111
 4230 0151 0A       		.uleb128 0xa
 4231 0152 00       		.byte	0
 4232 0153 00       		.byte	0
 4233 0154 1A       		.uleb128 0x1a
 4234 0155 898201   		.uleb128 0x4109
 4235 0158 01       		.byte	0x1
 4236 0159 11       		.uleb128 0x11
 4237 015a 01       		.uleb128 0x1
 4238 015b 31       		.uleb128 0x31
 4239 015c 13       		.uleb128 0x13
 4240 015d 00       		.byte	0
 4241 015e 00       		.byte	0
 4242 015f 1B       		.uleb128 0x1b
 4243 0160 34       		.uleb128 0x34
 4244 0161 00       		.byte	0
 4245 0162 03       		.uleb128 0x3
 4246 0163 0E       		.uleb128 0xe
 4247 0164 3A       		.uleb128 0x3a
 4248 0165 0B       		.uleb128 0xb
 4249 0166 3B       		.uleb128 0x3b
 4250 0167 0B       		.uleb128 0xb
 4251 0168 49       		.uleb128 0x49
 4252 0169 13       		.uleb128 0x13
 4253 016a 3F       		.uleb128 0x3f
ARM GAS  C:\Users\Computer\AppData\Local\Temp\ccQy7sfN.s 			page 85


 4254 016b 0C       		.uleb128 0xc
 4255 016c 02       		.uleb128 0x2
 4256 016d 0A       		.uleb128 0xa
 4257 016e 00       		.byte	0
 4258 016f 00       		.byte	0
 4259 0170 1C       		.uleb128 0x1c
 4260 0171 34       		.uleb128 0x34
 4261 0172 00       		.byte	0
 4262 0173 03       		.uleb128 0x3
 4263 0174 08       		.uleb128 0x8
 4264 0175 3A       		.uleb128 0x3a
 4265 0176 0B       		.uleb128 0xb
 4266 0177 3B       		.uleb128 0x3b
 4267 0178 0B       		.uleb128 0xb
 4268 0179 49       		.uleb128 0x49
 4269 017a 13       		.uleb128 0x13
 4270 017b 3F       		.uleb128 0x3f
 4271 017c 0C       		.uleb128 0xc
 4272 017d 02       		.uleb128 0x2
 4273 017e 0A       		.uleb128 0xa
 4274 017f 00       		.byte	0
 4275 0180 00       		.byte	0
 4276 0181 1D       		.uleb128 0x1d
 4277 0182 2E       		.uleb128 0x2e
 4278 0183 00       		.byte	0
 4279 0184 3F       		.uleb128 0x3f
 4280 0185 0C       		.uleb128 0xc
 4281 0186 03       		.uleb128 0x3
 4282 0187 0E       		.uleb128 0xe
 4283 0188 3A       		.uleb128 0x3a
 4284 0189 0B       		.uleb128 0xb
 4285 018a 3B       		.uleb128 0x3b
 4286 018b 0B       		.uleb128 0xb
 4287 018c 27       		.uleb128 0x27
 4288 018d 0C       		.uleb128 0xc
 4289 018e 3C       		.uleb128 0x3c
 4290 018f 0C       		.uleb128 0xc
 4291 0190 00       		.byte	0
 4292 0191 00       		.byte	0
 4293 0192 1E       		.uleb128 0x1e
 4294 0193 2E       		.uleb128 0x2e
 4295 0194 01       		.byte	0x1
 4296 0195 3F       		.uleb128 0x3f
 4297 0196 0C       		.uleb128 0xc
 4298 0197 03       		.uleb128 0x3
 4299 0198 0E       		.uleb128 0xe
 4300 0199 3A       		.uleb128 0x3a
 4301 019a 0B       		.uleb128 0xb
 4302 019b 3B       		.uleb128 0x3b
 4303 019c 0B       		.uleb128 0xb
 4304 019d 27       		.uleb128 0x27
 4305 019e 0C       		.uleb128 0xc
 4306 019f 49       		.uleb128 0x49
 4307 01a0 13       		.uleb128 0x13
 4308 01a1 3C       		.uleb128 0x3c
 4309 01a2 0C       		.uleb128 0xc
 4310 01a3 01       		.uleb128 0x1
ARM GAS  C:\Users\Computer\AppData\Local\Temp\ccQy7sfN.s 			page 86


 4311 01a4 13       		.uleb128 0x13
 4312 01a5 00       		.byte	0
 4313 01a6 00       		.byte	0
 4314 01a7 1F       		.uleb128 0x1f
 4315 01a8 05       		.uleb128 0x5
 4316 01a9 00       		.byte	0
 4317 01aa 49       		.uleb128 0x49
 4318 01ab 13       		.uleb128 0x13
 4319 01ac 00       		.byte	0
 4320 01ad 00       		.byte	0
 4321 01ae 20       		.uleb128 0x20
 4322 01af 2E       		.uleb128 0x2e
 4323 01b0 01       		.byte	0x1
 4324 01b1 3F       		.uleb128 0x3f
 4325 01b2 0C       		.uleb128 0xc
 4326 01b3 03       		.uleb128 0x3
 4327 01b4 0E       		.uleb128 0xe
 4328 01b5 3A       		.uleb128 0x3a
 4329 01b6 0B       		.uleb128 0xb
 4330 01b7 3B       		.uleb128 0x3b
 4331 01b8 0B       		.uleb128 0xb
 4332 01b9 27       		.uleb128 0x27
 4333 01ba 0C       		.uleb128 0xc
 4334 01bb 3C       		.uleb128 0x3c
 4335 01bc 0C       		.uleb128 0xc
 4336 01bd 01       		.uleb128 0x1
 4337 01be 13       		.uleb128 0x13
 4338 01bf 00       		.byte	0
 4339 01c0 00       		.byte	0
 4340 01c1 21       		.uleb128 0x21
 4341 01c2 2E       		.uleb128 0x2e
 4342 01c3 01       		.byte	0x1
 4343 01c4 3F       		.uleb128 0x3f
 4344 01c5 0C       		.uleb128 0xc
 4345 01c6 03       		.uleb128 0x3
 4346 01c7 0E       		.uleb128 0xe
 4347 01c8 3A       		.uleb128 0x3a
 4348 01c9 0B       		.uleb128 0xb
 4349 01ca 3B       		.uleb128 0x3b
 4350 01cb 0B       		.uleb128 0xb
 4351 01cc 3C       		.uleb128 0x3c
 4352 01cd 0C       		.uleb128 0xc
 4353 01ce 01       		.uleb128 0x1
 4354 01cf 13       		.uleb128 0x13
 4355 01d0 00       		.byte	0
 4356 01d1 00       		.byte	0
 4357 01d2 22       		.uleb128 0x22
 4358 01d3 18       		.uleb128 0x18
 4359 01d4 00       		.byte	0
 4360 01d5 00       		.byte	0
 4361 01d6 00       		.byte	0
 4362 01d7 23       		.uleb128 0x23
 4363 01d8 2E       		.uleb128 0x2e
 4364 01d9 01       		.byte	0x1
 4365 01da 3F       		.uleb128 0x3f
 4366 01db 0C       		.uleb128 0xc
 4367 01dc 03       		.uleb128 0x3
ARM GAS  C:\Users\Computer\AppData\Local\Temp\ccQy7sfN.s 			page 87


 4368 01dd 0E       		.uleb128 0xe
 4369 01de 3A       		.uleb128 0x3a
 4370 01df 0B       		.uleb128 0xb
 4371 01e0 3B       		.uleb128 0x3b
 4372 01e1 0B       		.uleb128 0xb
 4373 01e2 27       		.uleb128 0x27
 4374 01e3 0C       		.uleb128 0xc
 4375 01e4 3C       		.uleb128 0x3c
 4376 01e5 0C       		.uleb128 0xc
 4377 01e6 00       		.byte	0
 4378 01e7 00       		.byte	0
 4379 01e8 00       		.byte	0
 4380              		.section	.debug_loc,"",%progbits
 4381              	.Ldebug_loc0:
 4382              	.LLST0:
 4383 0000 00000000 		.4byte	.LFB33
 4384 0004 04000000 		.4byte	.LCFI0
 4385 0008 0200     		.2byte	0x2
 4386 000a 7D       		.byte	0x7d
 4387 000b 00       		.sleb128 0
 4388 000c 04000000 		.4byte	.LCFI0
 4389 0010 30000000 		.4byte	.LFE33
 4390 0014 0200     		.2byte	0x2
 4391 0016 7D       		.byte	0x7d
 4392 0017 04       		.sleb128 4
 4393 0018 00000000 		.4byte	0
 4394 001c 00000000 		.4byte	0
 4395              	.LLST1:
 4396 0020 00000000 		.4byte	.LFB34
 4397 0024 02000000 		.4byte	.LCFI1
 4398 0028 0200     		.2byte	0x2
 4399 002a 7D       		.byte	0x7d
 4400 002b 00       		.sleb128 0
 4401 002c 02000000 		.4byte	.LCFI1
 4402 0030 0C000000 		.4byte	.LCFI2
 4403 0034 0200     		.2byte	0x2
 4404 0036 7D       		.byte	0x7d
 4405 0037 14       		.sleb128 20
 4406 0038 0C000000 		.4byte	.LCFI2
 4407 003c 1E000000 		.4byte	.LCFI3
 4408 0040 0200     		.2byte	0x2
 4409 0042 7D       		.byte	0x7d
 4410 0043 24       		.sleb128 36
 4411 0044 1E000000 		.4byte	.LCFI3
 4412 0048 DC010000 		.4byte	.LFE34
 4413 004c 0300     		.2byte	0x3
 4414 004e 7D       		.byte	0x7d
 4415 004f C000     		.sleb128 64
 4416 0051 00000000 		.4byte	0
 4417 0055 00000000 		.4byte	0
 4418              	.LLST2:
 4419 0059 00000000 		.4byte	.LFB35
 4420 005d 0E000000 		.4byte	.LCFI4
 4421 0061 0200     		.2byte	0x2
 4422 0063 7D       		.byte	0x7d
 4423 0064 00       		.sleb128 0
 4424 0065 0E000000 		.4byte	.LCFI4
ARM GAS  C:\Users\Computer\AppData\Local\Temp\ccQy7sfN.s 			page 88


 4425 0069 38010000 		.4byte	.LFE35
 4426 006d 0200     		.2byte	0x2
 4427 006f 7D       		.byte	0x7d
 4428 0070 04       		.sleb128 4
 4429 0071 00000000 		.4byte	0
 4430 0075 00000000 		.4byte	0
 4431              	.LLST3:
 4432 0079 00000000 		.4byte	.LFB36
 4433 007d 02000000 		.4byte	.LCFI5
 4434 0081 0200     		.2byte	0x2
 4435 0083 7D       		.byte	0x7d
 4436 0084 00       		.sleb128 0
 4437 0085 02000000 		.4byte	.LCFI5
 4438 0089 0C000000 		.4byte	.LCFI6
 4439 008d 0200     		.2byte	0x2
 4440 008f 7D       		.byte	0x7d
 4441 0090 14       		.sleb128 20
 4442 0091 0C000000 		.4byte	.LCFI6
 4443 0095 0E000000 		.4byte	.LCFI7
 4444 0099 0200     		.2byte	0x2
 4445 009b 7D       		.byte	0x7d
 4446 009c 24       		.sleb128 36
 4447 009d 0E000000 		.4byte	.LCFI7
 4448 00a1 04080000 		.4byte	.LFE36
 4449 00a5 0300     		.2byte	0x3
 4450 00a7 7D       		.byte	0x7d
 4451 00a8 D800     		.sleb128 88
 4452 00aa 00000000 		.4byte	0
 4453 00ae 00000000 		.4byte	0
 4454              	.LLST4:
 4455 00b2 00000000 		.4byte	.LVL0
 4456 00b6 D4000000 		.4byte	.LVL12
 4457 00ba 0200     		.2byte	0x2
 4458 00bc 30       		.byte	0x30
 4459 00bd 9F       		.byte	0x9f
 4460 00be 0A010000 		.4byte	.LVL16
 4461 00c2 1E010000 		.4byte	.LVL17
 4462 00c6 0200     		.2byte	0x2
 4463 00c8 31       		.byte	0x31
 4464 00c9 9F       		.byte	0x9f
 4465 00ca 1E010000 		.4byte	.LVL17
 4466 00ce 28010000 		.4byte	.LVL18
 4467 00d2 0200     		.2byte	0x2
 4468 00d4 33       		.byte	0x33
 4469 00d5 9F       		.byte	0x9f
 4470 00d6 28010000 		.4byte	.LVL18
 4471 00da 32010000 		.4byte	.LVL19
 4472 00de 0200     		.2byte	0x2
 4473 00e0 35       		.byte	0x35
 4474 00e1 9F       		.byte	0x9f
 4475 00e2 32010000 		.4byte	.LVL19
 4476 00e6 3C010000 		.4byte	.LVL20
 4477 00ea 0200     		.2byte	0x2
 4478 00ec 36       		.byte	0x36
 4479 00ed 9F       		.byte	0x9f
 4480 00ee 3C010000 		.4byte	.LVL20
 4481 00f2 4A010000 		.4byte	.LVL21
ARM GAS  C:\Users\Computer\AppData\Local\Temp\ccQy7sfN.s 			page 89


 4482 00f6 0200     		.2byte	0x2
 4483 00f8 37       		.byte	0x37
 4484 00f9 9F       		.byte	0x9f
 4485 00fa 4A010000 		.4byte	.LVL21
 4486 00fe 4E010000 		.4byte	.LVL22
 4487 0102 0200     		.2byte	0x2
 4488 0104 38       		.byte	0x38
 4489 0105 9F       		.byte	0x9f
 4490 0106 4E010000 		.4byte	.LVL22
 4491 010a 5C010000 		.4byte	.LVL23
 4492 010e 0200     		.2byte	0x2
 4493 0110 30       		.byte	0x30
 4494 0111 9F       		.byte	0x9f
 4495 0112 5C010000 		.4byte	.LVL23
 4496 0116 78010000 		.4byte	.LVL24
 4497 011a 0200     		.2byte	0x2
 4498 011c 31       		.byte	0x31
 4499 011d 9F       		.byte	0x9f
 4500 011e 78010000 		.4byte	.LVL24
 4501 0122 90010000 		.4byte	.LVL25
 4502 0126 0200     		.2byte	0x2
 4503 0128 32       		.byte	0x32
 4504 0129 9F       		.byte	0x9f
 4505 012a 90010000 		.4byte	.LVL25
 4506 012e B6010000 		.4byte	.LVL26
 4507 0132 0200     		.2byte	0x2
 4508 0134 33       		.byte	0x33
 4509 0135 9F       		.byte	0x9f
 4510 0136 B6010000 		.4byte	.LVL26
 4511 013a C4010000 		.4byte	.LVL27
 4512 013e 0200     		.2byte	0x2
 4513 0140 34       		.byte	0x34
 4514 0141 9F       		.byte	0x9f
 4515 0142 C4010000 		.4byte	.LVL27
 4516 0146 E8010000 		.4byte	.LVL28
 4517 014a 0200     		.2byte	0x2
 4518 014c 35       		.byte	0x35
 4519 014d 9F       		.byte	0x9f
 4520 014e E8010000 		.4byte	.LVL28
 4521 0152 00020000 		.4byte	.LVL29
 4522 0156 0200     		.2byte	0x2
 4523 0158 36       		.byte	0x36
 4524 0159 9F       		.byte	0x9f
 4525 015a 00020000 		.4byte	.LVL29
 4526 015e 26020000 		.4byte	.LVL30
 4527 0162 0200     		.2byte	0x2
 4528 0164 37       		.byte	0x37
 4529 0165 9F       		.byte	0x9f
 4530 0166 26020000 		.4byte	.LVL30
 4531 016a 38020000 		.4byte	.LVL33
 4532 016e 0200     		.2byte	0x2
 4533 0170 38       		.byte	0x38
 4534 0171 9F       		.byte	0x9f
 4535 0172 C6020000 		.4byte	.LVL41
 4536 0176 D8020000 		.4byte	.LVL42
 4537 017a 0200     		.2byte	0x2
 4538 017c 31       		.byte	0x31
ARM GAS  C:\Users\Computer\AppData\Local\Temp\ccQy7sfN.s 			page 90


 4539 017d 9F       		.byte	0x9f
 4540 017e D8020000 		.4byte	.LVL42
 4541 0182 EA020000 		.4byte	.LVL43
 4542 0186 0200     		.2byte	0x2
 4543 0188 32       		.byte	0x32
 4544 0189 9F       		.byte	0x9f
 4545 018a EA020000 		.4byte	.LVL43
 4546 018e FC020000 		.4byte	.LVL44
 4547 0192 0200     		.2byte	0x2
 4548 0194 33       		.byte	0x33
 4549 0195 9F       		.byte	0x9f
 4550 0196 FC020000 		.4byte	.LVL44
 4551 019a 10030000 		.4byte	.LVL45
 4552 019e 0200     		.2byte	0x2
 4553 01a0 34       		.byte	0x34
 4554 01a1 9F       		.byte	0x9f
 4555 01a2 10030000 		.4byte	.LVL45
 4556 01a6 24030000 		.4byte	.LVL46
 4557 01aa 0200     		.2byte	0x2
 4558 01ac 35       		.byte	0x35
 4559 01ad 9F       		.byte	0x9f
 4560 01ae 24030000 		.4byte	.LVL46
 4561 01b2 38030000 		.4byte	.LVL47
 4562 01b6 0200     		.2byte	0x2
 4563 01b8 36       		.byte	0x36
 4564 01b9 9F       		.byte	0x9f
 4565 01ba 38030000 		.4byte	.LVL47
 4566 01be 4C030000 		.4byte	.LVL48
 4567 01c2 0200     		.2byte	0x2
 4568 01c4 37       		.byte	0x37
 4569 01c5 9F       		.byte	0x9f
 4570 01c6 4C030000 		.4byte	.LVL48
 4571 01ca 54030000 		.4byte	.LVL49
 4572 01ce 0200     		.2byte	0x2
 4573 01d0 38       		.byte	0x38
 4574 01d1 9F       		.byte	0x9f
 4575 01d2 54030000 		.4byte	.LVL49
 4576 01d6 64030000 		.4byte	.LVL50
 4577 01da 0200     		.2byte	0x2
 4578 01dc 30       		.byte	0x30
 4579 01dd 9F       		.byte	0x9f
 4580 01de 64030000 		.4byte	.LVL50
 4581 01e2 7E030000 		.4byte	.LVL51
 4582 01e6 0200     		.2byte	0x2
 4583 01e8 31       		.byte	0x31
 4584 01e9 9F       		.byte	0x9f
 4585 01ea 7E030000 		.4byte	.LVL51
 4586 01ee 94030000 		.4byte	.LVL52
 4587 01f2 0200     		.2byte	0x2
 4588 01f4 32       		.byte	0x32
 4589 01f5 9F       		.byte	0x9f
 4590 01f6 94030000 		.4byte	.LVL52
 4591 01fa BC030000 		.4byte	.LVL53
 4592 01fe 0200     		.2byte	0x2
 4593 0200 33       		.byte	0x33
 4594 0201 9F       		.byte	0x9f
 4595 0202 BC030000 		.4byte	.LVL53
ARM GAS  C:\Users\Computer\AppData\Local\Temp\ccQy7sfN.s 			page 91


 4596 0206 CA030000 		.4byte	.LVL54
 4597 020a 0200     		.2byte	0x2
 4598 020c 34       		.byte	0x34
 4599 020d 9F       		.byte	0x9f
 4600 020e CA030000 		.4byte	.LVL54
 4601 0212 EE030000 		.4byte	.LVL55
 4602 0216 0200     		.2byte	0x2
 4603 0218 35       		.byte	0x35
 4604 0219 9F       		.byte	0x9f
 4605 021a EE030000 		.4byte	.LVL55
 4606 021e 06040000 		.4byte	.LVL56
 4607 0222 0200     		.2byte	0x2
 4608 0224 36       		.byte	0x36
 4609 0225 9F       		.byte	0x9f
 4610 0226 06040000 		.4byte	.LVL56
 4611 022a 2A040000 		.4byte	.LVL57
 4612 022e 0200     		.2byte	0x2
 4613 0230 37       		.byte	0x37
 4614 0231 9F       		.byte	0x9f
 4615 0232 62040000 		.4byte	.LVL62
 4616 0236 74040000 		.4byte	.LVL63
 4617 023a 0200     		.2byte	0x2
 4618 023c 31       		.byte	0x31
 4619 023d 9F       		.byte	0x9f
 4620 023e 74040000 		.4byte	.LVL63
 4621 0242 86040000 		.4byte	.LVL64
 4622 0246 0200     		.2byte	0x2
 4623 0248 32       		.byte	0x32
 4624 0249 9F       		.byte	0x9f
 4625 024a 86040000 		.4byte	.LVL64
 4626 024e 98040000 		.4byte	.LVL65
 4627 0252 0200     		.2byte	0x2
 4628 0254 33       		.byte	0x33
 4629 0255 9F       		.byte	0x9f
 4630 0256 98040000 		.4byte	.LVL65
 4631 025a AC040000 		.4byte	.LVL66
 4632 025e 0200     		.2byte	0x2
 4633 0260 34       		.byte	0x34
 4634 0261 9F       		.byte	0x9f
 4635 0262 AC040000 		.4byte	.LVL66
 4636 0266 C0040000 		.4byte	.LVL67
 4637 026a 0200     		.2byte	0x2
 4638 026c 35       		.byte	0x35
 4639 026d 9F       		.byte	0x9f
 4640 026e C0040000 		.4byte	.LVL67
 4641 0272 D4040000 		.4byte	.LVL68
 4642 0276 0200     		.2byte	0x2
 4643 0278 36       		.byte	0x36
 4644 0279 9F       		.byte	0x9f
 4645 027a D4040000 		.4byte	.LVL68
 4646 027e E8040000 		.4byte	.LVL69
 4647 0282 0200     		.2byte	0x2
 4648 0284 37       		.byte	0x37
 4649 0285 9F       		.byte	0x9f
 4650 0286 E8040000 		.4byte	.LVL69
 4651 028a F0040000 		.4byte	.LVL70
 4652 028e 0200     		.2byte	0x2
ARM GAS  C:\Users\Computer\AppData\Local\Temp\ccQy7sfN.s 			page 92


 4653 0290 38       		.byte	0x38
 4654 0291 9F       		.byte	0x9f
 4655 0292 F0040000 		.4byte	.LVL70
 4656 0296 14050000 		.4byte	.LVL72
 4657 029a 0200     		.2byte	0x2
 4658 029c 30       		.byte	0x30
 4659 029d 9F       		.byte	0x9f
 4660 029e 14050000 		.4byte	.LVL72
 4661 02a2 52050000 		.4byte	.LVL74
 4662 02a6 0200     		.2byte	0x2
 4663 02a8 31       		.byte	0x31
 4664 02a9 9F       		.byte	0x9f
 4665 02aa 52050000 		.4byte	.LVL74
 4666 02ae 8A050000 		.4byte	.LVL76
 4667 02b2 0200     		.2byte	0x2
 4668 02b4 32       		.byte	0x32
 4669 02b5 9F       		.byte	0x9f
 4670 02b6 8A050000 		.4byte	.LVL76
 4671 02ba DE050000 		.4byte	.LVL78
 4672 02be 0200     		.2byte	0x2
 4673 02c0 33       		.byte	0x33
 4674 02c1 9F       		.byte	0x9f
 4675 02c2 DE050000 		.4byte	.LVL78
 4676 02c6 02060000 		.4byte	.LVL80
 4677 02ca 0200     		.2byte	0x2
 4678 02cc 34       		.byte	0x34
 4679 02cd 9F       		.byte	0x9f
 4680 02ce 02060000 		.4byte	.LVL80
 4681 02d2 52060000 		.4byte	.LVL82
 4682 02d6 0200     		.2byte	0x2
 4683 02d8 35       		.byte	0x35
 4684 02d9 9F       		.byte	0x9f
 4685 02da 52060000 		.4byte	.LVL82
 4686 02de 88060000 		.4byte	.LVL84
 4687 02e2 0200     		.2byte	0x2
 4688 02e4 36       		.byte	0x36
 4689 02e5 9F       		.byte	0x9f
 4690 02e6 88060000 		.4byte	.LVL84
 4691 02ea E0060000 		.4byte	.LVL87
 4692 02ee 0200     		.2byte	0x2
 4693 02f0 37       		.byte	0x37
 4694 02f1 9F       		.byte	0x9f
 4695 02f2 E0060000 		.4byte	.LVL87
 4696 02f6 E4060000 		.4byte	.LVL88
 4697 02fa 0200     		.2byte	0x2
 4698 02fc 36       		.byte	0x36
 4699 02fd 9F       		.byte	0x9f
 4700 02fe E4060000 		.4byte	.LVL88
 4701 0302 E8060000 		.4byte	.LVL89
 4702 0306 0200     		.2byte	0x2
 4703 0308 35       		.byte	0x35
 4704 0309 9F       		.byte	0x9f
 4705 030a E8060000 		.4byte	.LVL89
 4706 030e EC060000 		.4byte	.LVL90
 4707 0312 0200     		.2byte	0x2
 4708 0314 34       		.byte	0x34
 4709 0315 9F       		.byte	0x9f
ARM GAS  C:\Users\Computer\AppData\Local\Temp\ccQy7sfN.s 			page 93


 4710 0316 EC060000 		.4byte	.LVL90
 4711 031a F0060000 		.4byte	.LVL91
 4712 031e 0200     		.2byte	0x2
 4713 0320 33       		.byte	0x33
 4714 0321 9F       		.byte	0x9f
 4715 0322 F0060000 		.4byte	.LVL91
 4716 0326 F4060000 		.4byte	.LVL92
 4717 032a 0200     		.2byte	0x2
 4718 032c 32       		.byte	0x32
 4719 032d 9F       		.byte	0x9f
 4720 032e F4060000 		.4byte	.LVL92
 4721 0332 F8060000 		.4byte	.LVL93
 4722 0336 0200     		.2byte	0x2
 4723 0338 31       		.byte	0x31
 4724 0339 9F       		.byte	0x9f
 4725 033a FC060000 		.4byte	.LVL94
 4726 033e 22070000 		.4byte	.LVL95
 4727 0342 0200     		.2byte	0x2
 4728 0344 37       		.byte	0x37
 4729 0345 9F       		.byte	0x9f
 4730 0346 22070000 		.4byte	.LVL95
 4731 034a 24070000 		.4byte	.LVL96
 4732 034e 0200     		.2byte	0x2
 4733 0350 38       		.byte	0x38
 4734 0351 9F       		.byte	0x9f
 4735 0352 24070000 		.4byte	.LVL96
 4736 0356 3E070000 		.4byte	.LVL98
 4737 035a 0200     		.2byte	0x2
 4738 035c 36       		.byte	0x36
 4739 035d 9F       		.byte	0x9f
 4740 035e 3E070000 		.4byte	.LVL98
 4741 0362 64070000 		.4byte	.LVL100
 4742 0366 0200     		.2byte	0x2
 4743 0368 35       		.byte	0x35
 4744 0369 9F       		.byte	0x9f
 4745 036a 64070000 		.4byte	.LVL100
 4746 036e 74070000 		.4byte	.LVL102
 4747 0372 0200     		.2byte	0x2
 4748 0374 34       		.byte	0x34
 4749 0375 9F       		.byte	0x9f
 4750 0376 74070000 		.4byte	.LVL102
 4751 037a 9C070000 		.4byte	.LVL104
 4752 037e 0200     		.2byte	0x2
 4753 0380 33       		.byte	0x33
 4754 0381 9F       		.byte	0x9f
 4755 0382 9C070000 		.4byte	.LVL104
 4756 0386 B6070000 		.4byte	.LVL106
 4757 038a 0200     		.2byte	0x2
 4758 038c 32       		.byte	0x32
 4759 038d 9F       		.byte	0x9f
 4760 038e B6070000 		.4byte	.LVL106
 4761 0392 D4070000 		.4byte	.LVL108
 4762 0396 0200     		.2byte	0x2
 4763 0398 31       		.byte	0x31
 4764 0399 9F       		.byte	0x9f
 4765 039a D4070000 		.4byte	.LVL108
 4766 039e E4070000 		.4byte	.LVL110
ARM GAS  C:\Users\Computer\AppData\Local\Temp\ccQy7sfN.s 			page 94


 4767 03a2 0200     		.2byte	0x2
 4768 03a4 30       		.byte	0x30
 4769 03a5 9F       		.byte	0x9f
 4770 03a6 E4070000 		.4byte	.LVL110
 4771 03aa E8070000 		.4byte	.LVL111
 4772 03ae 0200     		.2byte	0x2
 4773 03b0 37       		.byte	0x37
 4774 03b1 9F       		.byte	0x9f
 4775 03b2 E8070000 		.4byte	.LVL111
 4776 03b6 EC070000 		.4byte	.LVL112
 4777 03ba 0200     		.2byte	0x2
 4778 03bc 36       		.byte	0x36
 4779 03bd 9F       		.byte	0x9f
 4780 03be EC070000 		.4byte	.LVL112
 4781 03c2 F0070000 		.4byte	.LVL113
 4782 03c6 0200     		.2byte	0x2
 4783 03c8 35       		.byte	0x35
 4784 03c9 9F       		.byte	0x9f
 4785 03ca F0070000 		.4byte	.LVL113
 4786 03ce F4070000 		.4byte	.LVL114
 4787 03d2 0200     		.2byte	0x2
 4788 03d4 34       		.byte	0x34
 4789 03d5 9F       		.byte	0x9f
 4790 03d6 F4070000 		.4byte	.LVL114
 4791 03da F8070000 		.4byte	.LVL115
 4792 03de 0200     		.2byte	0x2
 4793 03e0 33       		.byte	0x33
 4794 03e1 9F       		.byte	0x9f
 4795 03e2 F8070000 		.4byte	.LVL115
 4796 03e6 FC070000 		.4byte	.LVL116
 4797 03ea 0200     		.2byte	0x2
 4798 03ec 32       		.byte	0x32
 4799 03ed 9F       		.byte	0x9f
 4800 03ee FC070000 		.4byte	.LVL116
 4801 03f2 00080000 		.4byte	.LVL117
 4802 03f6 0200     		.2byte	0x2
 4803 03f8 31       		.byte	0x31
 4804 03f9 9F       		.byte	0x9f
 4805 03fa 00000000 		.4byte	0
 4806 03fe 00000000 		.4byte	0
 4807              	.LLST5:
 4808 0402 BE000000 		.4byte	.LVL11
 4809 0406 D4000000 		.4byte	.LVL12
 4810 040a 0200     		.2byte	0x2
 4811 040c 30       		.byte	0x30
 4812 040d 9F       		.byte	0x9f
 4813 040e F0000000 		.4byte	.LVL14
 4814 0412 02010000 		.4byte	.LVL15
 4815 0416 0100     		.2byte	0x1
 4816 0418 50       		.byte	0x50
 4817 0419 A4020000 		.4byte	.LVL39
 4818 041d B8020000 		.4byte	.LVL40
 4819 0421 0100     		.2byte	0x1
 4820 0423 50       		.byte	0x50
 4821 0424 40040000 		.4byte	.LVL60
 4822 0428 58040000 		.4byte	.LVL61
 4823 042c 0100     		.2byte	0x1
ARM GAS  C:\Users\Computer\AppData\Local\Temp\ccQy7sfN.s 			page 95


 4824 042e 50       		.byte	0x50
 4825 042f 00000000 		.4byte	0
 4826 0433 00000000 		.4byte	0
 4827              	.LLST6:
 4828 0437 BE000000 		.4byte	.LVL11
 4829 043b D4000000 		.4byte	.LVL12
 4830 043f 0200     		.2byte	0x2
 4831 0441 30       		.byte	0x30
 4832 0442 9F       		.byte	0x9f
 4833 0443 D4000000 		.4byte	.LVL12
 4834 0447 2C020000 		.4byte	.LVL31
 4835 044b 0100     		.2byte	0x1
 4836 044d 5A       		.byte	0x5a
 4837 044e 2C020000 		.4byte	.LVL31
 4838 0452 2F020000 		.4byte	.LVL32-1
 4839 0456 0100     		.2byte	0x1
 4840 0458 51       		.byte	0x51
 4841 0459 2F020000 		.4byte	.LVL32-1
 4842 045d 70020000 		.4byte	.LVL37
 4843 0461 0100     		.2byte	0x1
 4844 0463 5A       		.byte	0x5a
 4845 0464 70020000 		.4byte	.LVL37
 4846 0468 94020000 		.4byte	.LVL38
 4847 046c 0200     		.2byte	0x2
 4848 046e 30       		.byte	0x30
 4849 046f 9F       		.byte	0x9f
 4850 0470 94020000 		.4byte	.LVL38
 4851 0474 2E040000 		.4byte	.LVL58
 4852 0478 0100     		.2byte	0x1
 4853 047a 5A       		.byte	0x5a
 4854 047b 30040000 		.4byte	.LVL59
 4855 047f 04080000 		.4byte	.LFE36
 4856 0483 0100     		.2byte	0x1
 4857 0485 5A       		.byte	0x5a
 4858 0486 00000000 		.4byte	0
 4859 048a 00000000 		.4byte	0
 4860              		.section	.debug_aranges,"",%progbits
 4861 0000 34000000 		.4byte	0x34
 4862 0004 0200     		.2byte	0x2
 4863 0006 00000000 		.4byte	.Ldebug_info0
 4864 000a 04       		.byte	0x4
 4865 000b 00       		.byte	0
 4866 000c 0000     		.2byte	0
 4867 000e 0000     		.2byte	0
 4868 0010 00000000 		.4byte	.LFB33
 4869 0014 30000000 		.4byte	.LFE33-.LFB33
 4870 0018 00000000 		.4byte	.LFB34
 4871 001c DC010000 		.4byte	.LFE34-.LFB34
 4872 0020 00000000 		.4byte	.LFB35
 4873 0024 38010000 		.4byte	.LFE35-.LFB35
 4874 0028 00000000 		.4byte	.LFB36
 4875 002c 04080000 		.4byte	.LFE36-.LFB36
 4876 0030 00000000 		.4byte	0
 4877 0034 00000000 		.4byte	0
 4878              		.section	.debug_ranges,"",%progbits
 4879              	.Ldebug_ranges0:
 4880 0000 00000000 		.4byte	.LFB33
ARM GAS  C:\Users\Computer\AppData\Local\Temp\ccQy7sfN.s 			page 96


 4881 0004 30000000 		.4byte	.LFE33
 4882 0008 00000000 		.4byte	.LFB34
 4883 000c DC010000 		.4byte	.LFE34
 4884 0010 00000000 		.4byte	.LFB35
 4885 0014 38010000 		.4byte	.LFE35
 4886 0018 00000000 		.4byte	.LFB36
 4887 001c 04080000 		.4byte	.LFE36
 4888 0020 00000000 		.4byte	0
 4889 0024 00000000 		.4byte	0
 4890              		.section	.debug_line,"",%progbits
 4891              	.Ldebug_line0:
 4892 0000 E7020000 		.section	.debug_str,"MS",%progbits,1
 4892      0200B300 
 4892      00000201 
 4892      FB0E0D00 
 4892      01010101 
 4893              	.LASF10:
 4894 0000 75696E74 		.ascii	"uint16\000"
 4894      313600
 4895              	.LASF40:
 4896 0007 6164634D 		.ascii	"adcMax\000"
 4896      617800
 4897              	.LASF49:
 4898 000e 6973725F 		.ascii	"isr_2_StartEx\000"
 4898      325F5374 
 4898      61727445 
 4898      7800
 4899              	.LASF7:
 4900 001c 6C6F6E67 		.ascii	"long long unsigned int\000"
 4900      206C6F6E 
 4900      6720756E 
 4900      7369676E 
 4900      65642069 
 4901              	.LASF63:
 4902 0033 4C45445F 		.ascii	"LED_Matrix_1_Start\000"
 4902      4D617472 
 4902      69785F31 
 4902      5F537461 
 4902      727400
 4903              	.LASF36:
 4904 0046 74726961 		.ascii	"trial\000"
 4904      6C00
 4905              	.LASF52:
 4906 004c 4144435F 		.ascii	"ADC_StartConvert\000"
 4906      53746172 
 4906      74436F6E 
 4906      76657274 
 4906      00
 4907              	.LASF33:
 4908 005d 4932435F 		.ascii	"I2C_Status\000"
 4908      53746174 
 4908      757300
 4909              	.LASF6:
 4910 0068 6C6F6E67 		.ascii	"long long int\000"
 4910      206C6F6E 
 4910      6720696E 
 4910      7400
ARM GAS  C:\Users\Computer\AppData\Local\Temp\ccQy7sfN.s 			page 97


 4911              	.LASF0:
 4912 0076 7369676E 		.ascii	"signed char\000"
 4912      65642063 
 4912      68617200 
 4913              	.LASF66:
 4914 0082 2E5C6D61 		.ascii	".\\main.c\000"
 4914      696E2E63 
 4914      00
 4915              	.LASF50:
 4916 008b 5254435F 		.ascii	"RTC_Start\000"
 4916      53746172 
 4916      7400
 4917              	.LASF25:
 4918 0095 79656172 		.ascii	"year\000"
 4918      00
 4919              	.LASF67:
 4920 009a 433A5C55 		.ascii	"C:\\Users\\Computer\\Documents\\Git\\GlowTime\\RGB_"
 4920      73657273 
 4920      5C436F6D 
 4920      70757465 
 4920      725C446F 
 4921 00c7 4C45445F 		.ascii	"LED_Matrix.cydsn\000"
 4921      4D617472 
 4921      69782E63 
 4921      7964736E 
 4921      00
 4922              	.LASF4:
 4923 00d8 6C6F6E67 		.ascii	"long int\000"
 4923      20696E74 
 4923      00
 4924              	.LASF9:
 4925 00e1 75696E74 		.ascii	"uint8\000"
 4925      3800
 4926              	.LASF46:
 4927 00e7 72656672 		.ascii	"refresh\000"
 4927      65736800 
 4928              	.LASF14:
 4929 00ef 646F7562 		.ascii	"double\000"
 4929      6C6500
 4930              	.LASF11:
 4931 00f6 75696E74 		.ascii	"uint32\000"
 4931      333200
 4932              	.LASF38:
 4933 00fd 70776D5F 		.ascii	"pwm_count\000"
 4933      636F756E 
 4933      7400
 4934              	.LASF53:
 4935 0107 656F635F 		.ascii	"eoc_StartEx\000"
 4935      53746172 
 4935      74457800 
 4936              	.LASF37:
 4937 0113 6D617472 		.ascii	"matrix\000"
 4937      697800
 4938              	.LASF28:
 4939 011a 50425F49 		.ascii	"PB_ISR\000"
 4939      535200
 4940              	.LASF24:
ARM GAS  C:\Users\Computer\AppData\Local\Temp\ccQy7sfN.s 			page 98


 4941 0121 6D6F6E74 		.ascii	"month\000"
 4941      6800
 4942              	.LASF8:
 4943 0127 756E7369 		.ascii	"unsigned int\000"
 4943      676E6564 
 4943      20696E74 
 4943      00
 4944              	.LASF34:
 4945 0134 6C6F7473 		.ascii	"lotsOfColors\000"
 4945      4F66436F 
 4945      6C6F7273 
 4945      00
 4946              	.LASF5:
 4947 0141 6C6F6E67 		.ascii	"long unsigned int\000"
 4947      20756E73 
 4947      69676E65 
 4947      6420696E 
 4947      7400
 4948              	.LASF60:
 4949 0153 5254435F 		.ascii	"RTC_Enable\000"
 4949      456E6162 
 4949      6C6500
 4950              	.LASF3:
 4951 015e 73686F72 		.ascii	"short unsigned int\000"
 4951      7420756E 
 4951      7369676E 
 4951      65642069 
 4951      6E7400
 4952              	.LASF12:
 4953 0171 696E7438 		.ascii	"int8\000"
 4953      00
 4954              	.LASF42:
 4955 0176 64617461 		.ascii	"dataReady\000"
 4955      52656164 
 4955      7900
 4956              	.LASF54:
 4957 0180 50425F53 		.ascii	"PB_StartEx\000"
 4957      74617274 
 4957      457800
 4958              	.LASF62:
 4959 018b 7072696E 		.ascii	"printTime\000"
 4959      7454696D 
 4959      6500
 4960              	.LASF47:
 4961 0195 6C6F6361 		.ascii	"localTimeInit\000"
 4961      6C54696D 
 4961      65496E69 
 4961      7400
 4962              	.LASF48:
 4963 01a3 636C6561 		.ascii	"clearScreen\000"
 4963      72536372 
 4963      65656E00 
 4964              	.LASF17:
 4965 01af 72656733 		.ascii	"reg32\000"
 4965      3200
 4966              	.LASF19:
 4967 01b5 73697A65 		.ascii	"sizetype\000"
ARM GAS  C:\Users\Computer\AppData\Local\Temp\ccQy7sfN.s 			page 99


 4967      74797065 
 4967      00
 4968              	.LASF64:
 4969 01be 64726177 		.ascii	"drawFastHLine\000"
 4969      46617374 
 4969      484C696E 
 4969      6500
 4970              	.LASF29:
 4971 01cc 4649464F 		.ascii	"FIFO_EMPTY\000"
 4971      5F454D50 
 4971      545900
 4972              	.LASF68:
 4973 01d7 50434638 		.ascii	"PCF8583_Tag\000"
 4973      3538335F 
 4973      54616700 
 4974              	.LASF21:
 4975 01e3 686F7572 		.ascii	"hour\000"
 4975      00
 4976              	.LASF32:
 4977 01e8 77686974 		.ascii	"white\000"
 4977      6500
 4978              	.LASF13:
 4979 01ee 666C6F61 		.ascii	"float\000"
 4979      7400
 4980              	.LASF56:
 4981 01f4 69326357 		.ascii	"i2cWrite\000"
 4981      72697465 
 4981      00
 4982              	.LASF65:
 4983 01fd 474E5520 		.ascii	"GNU C 4.7.3 20130312 (release) [ARM/embedded-4_7-br"
 4983      4320342E 
 4983      372E3320 
 4983      32303133 
 4983      30333132 
 4984 0230 616E6368 		.ascii	"anch revision 196615]\000"
 4984      20726576 
 4984      6973696F 
 4984      6E203139 
 4984      36363135 
 4985              	.LASF16:
 4986 0246 72656738 		.ascii	"reg8\000"
 4986      00
 4987              	.LASF1:
 4988 024b 756E7369 		.ascii	"unsigned char\000"
 4988      676E6564 
 4988      20636861 
 4988      7200
 4989              	.LASF2:
 4990 0259 73686F72 		.ascii	"short int\000"
 4990      7420696E 
 4990      7400
 4991              	.LASF26:
 4992 0263 666F726D 		.ascii	"format\000"
 4992      617400
 4993              	.LASF27:
 4994 026a 50434638 		.ascii	"PCF8583\000"
 4994      35383300 
ARM GAS  C:\Users\Computer\AppData\Local\Temp\ccQy7sfN.s 			page 100


 4995              	.LASF20:
 4996 0272 636F6C6F 		.ascii	"color\000"
 4996      7200
 4997              	.LASF15:
 4998 0278 63686172 		.ascii	"char\000"
 4998      00
 4999              	.LASF41:
 5000 027d 6D6F6465 		.ascii	"mode\000"
 5000      00
 5001              	.LASF18:
 5002 0282 63796973 		.ascii	"cyisraddress\000"
 5002      72616464 
 5002      72657373 
 5002      00
 5003              	.LASF23:
 5004 028f 7765656B 		.ascii	"weekday\000"
 5004      64617900 
 5005              	.LASF45:
 5006 0297 7363616C 		.ascii	"scaledResult\000"
 5006      65645265 
 5006      73756C74 
 5006      00
 5007              	.LASF55:
 5008 02a4 43794465 		.ascii	"CyDelay\000"
 5008      6C617900 
 5009              	.LASF51:
 5010 02ac 4144435F 		.ascii	"ADC_Start\000"
 5010      53746172 
 5010      7400
 5011              	.LASF58:
 5012 02b6 7363616C 		.ascii	"scaleResult\000"
 5012      65526573 
 5012      756C7400 
 5013              	.LASF61:
 5014 02c2 67657454 		.ascii	"getTime\000"
 5014      696D6500 
 5015              	.LASF31:
 5016 02ca 626C6163 		.ascii	"black\000"
 5016      6B00
 5017              	.LASF22:
 5018 02d0 6D696E75 		.ascii	"minute\000"
 5018      746500
 5019              	.LASF30:
 5020 02d7 656F635F 		.ascii	"eoc_isr\000"
 5020      69737200 
 5021              	.LASF35:
 5022 02df 64617461 		.ascii	"dataChange\000"
 5022      4368616E 
 5022      676500
 5023              	.LASF59:
 5024 02ea 64726177 		.ascii	"drawblock\000"
 5024      626C6F63 
 5024      6B00
 5025              	.LASF57:
 5026 02f4 69664461 		.ascii	"ifDataChange\000"
 5026      74614368 
 5026      616E6765 
ARM GAS  C:\Users\Computer\AppData\Local\Temp\ccQy7sfN.s 			page 101


 5026      00
 5027              	.LASF39:
 5028 0301 6269745F 		.ascii	"bit_shift\000"
 5028      73686966 
 5028      7400
 5029              	.LASF69:
 5030 030b 6D61696E 		.ascii	"main\000"
 5030      00
 5031              	.LASF44:
 5032 0310 6F6C6452 		.ascii	"oldResult\000"
 5032      6573756C 
 5032      7400
 5033              	.LASF43:
 5034 031a 72657375 		.ascii	"result\000"
 5034      6C7400
 5035              		.ident	"GCC: (GNU Tools for ARM Embedded Processors) 4.7.3 20130312 (release) [ARM/embedded-4_7-br
