ARM GAS  C:\Users\Steve\AppData\Local\Temp\ccEPKYrT.s 			page 1


   1              		.cpu cortex-m0
   2              		.fpu softvfp
   3              		.eabi_attribute 20, 1
   4              		.eabi_attribute 21, 1
   5              		.eabi_attribute 23, 3
   6              		.eabi_attribute 24, 1
   7              		.eabi_attribute 25, 1
   8              		.eabi_attribute 26, 1
   9              		.eabi_attribute 30, 2
  10              		.eabi_attribute 34, 0
  11              		.eabi_attribute 18, 4
  12              		.code	16
  13              		.file	"main.c"
  14              		.text
  15              	.Ltext0:
  16              		.cfi_sections	.debug_frame
  17              		.section	.text.FIFO_EMPTY,"ax",%progbits
  18              		.align	2
  19              		.global	FIFO_EMPTY
  20              		.code	16
  21              		.thumb_func
  22              		.type	FIFO_EMPTY, %function
  23              	FIFO_EMPTY:
  24              	.LFB34:
  25              		.file 1 ".\\main.c"
   1:.\main.c      **** /* ========================================
   2:.\main.c      ****  *
   3:.\main.c      ****  * The following firmware was developed by Cypress Semiconductor
   4:.\main.c      ****  * This work is licensed under a Creative Commons Attribution 3.0 Unported License.
   5:.\main.c      ****  * 
   6:.\main.c      ****  * http://creativecommons.org/licenses/by/3.0/deed.en_US
   7:.\main.c      ****  * 
   8:.\main.c      ****  * You are free to:
   9:.\main.c      ****  * -To Share — to copy, distribute and transmit the work 
  10:.\main.c      ****  * -To Remix — to adapt the work 
  11:.\main.c      ****  * -To make commercial use of the work
  12:.\main.c      ****  *
  13:.\main.c      ****  * ======================================== 
  14:.\main.c      ****  */
  15:.\main.c      ****  
  16:.\main.c      **** /*******************************************************************************
  17:.\main.c      ****  * Pioneer Kit 16x32 RGB LED Matrix Example Project
  18:.\main.c      ****  ********************************************************************************
  19:.\main.c      ****  * This project Displays 5-bit color image at a refresh rate of 360 Hz
  20:.\main.c      ****  * It uses 75% of the UDB datapaths and 50% of the PLDs
  21:.\main.c      ****  * The matrix is constructed as 2 planes of 8 rows each. (R1, G1, B1) write to the first plane
  22:.\main.c      ****  * (R2, G2, B2) are for the second plane. Rows are selected using (A, B, C). Columns are
  23:.\main.c      ****  * written by clocking out 32 (R, G, B) values.
  24:.\main.c      ****  * LAT and OE are active low: i.e. data is latched and output is enabled on logic 0
  25:.\main.c      ****  *
  26:.\main.c      ****  * Expanding the project to 8-bit color is simple - just needs a little more code! This is 
  27:.\main.c      ****  * left to the user to implement. Also TO DO: gamma correction
  28:.\main.c      ****  * 
  29:.\main.c      ****  * To buy or see a tutorial on the RGB LED Matrix, go here: http://www.adafruit.com/products/420
  30:.\main.c      ****  * For more details on the panel itself, see one of the links below
  31:.\main.c      ****  *
  32:.\main.c      ****  * Credit to the following sites/authors:
ARM GAS  C:\Users\Steve\AppData\Local\Temp\ccEPKYrT.s 			page 2


  33:.\main.c      ****  * Reference: Adafruit tutorial and code https://github.com/adafruit/RGB-matrix-Panel
  34:.\main.c      ****  * Ghosting: http://www.rayslogic.com/propeller/Programming/AdafruitRGB/AdafruitRGB.htm 
  35:.\main.c      ****  * Technical: http://www.hobbypcb.com/blog/item/3-16x32-rgb-led-matrix-technical-details.html
  36:.\main.c      ****  * Favicon idea: http://rhb.me/2012/05/led-matrix-bringup/
  37:.\main.c      ****  **************************************************************************************** */
  38:.\main.c      **** 
  39:.\main.c      **** #include <device.h>
  40:.\main.c      **** #include <LED_Matrix.h>
  41:.\main.c      **** #include "I2CDriver.h"
  42:.\main.c      **** 
  43:.\main.c      **** /* j is the row counter (0-7), pwm_count is used for Binary Coded Modulation */
  44:.\main.c      **** uint8 j = 0, pwm_count = 0;
  45:.\main.c      **** /* Tells which bit of color is currently being written */
  46:.\main.c      **** uint8 bit_shift;
  47:.\main.c      **** /* stores the currently displayed image in 5-bit color */
  48:.\main.c      **** color matrix[16*4];
  49:.\main.c      **** 
  50:.\main.c      **** int8 height[]={0,2,4,6,8,10,12,14};
  51:.\main.c      **** 
  52:.\main.c      **** /*******************************************************************************
  53:.\main.c      **** * Function Name: isr_2
  54:.\main.c      **** ********************************************************************************
  55:.\main.c      **** *
  56:.\main.c      **** * Summary:
  57:.\main.c      **** *  ISR that does most of the heavy lifting: 
  58:.\main.c      **** *  - BCM for 5-bit color
  59:.\main.c      **** *  - Writes image in matrix[] to the FIFOs in the LED_Matrix Component
  60:.\main.c      **** *  - Takes about 9.80uS @ 48MHz, the Component then takes ~2.3 uS to shift out data
  61:.\main.c      **** *
  62:.\main.c      **** *
  63:.\main.c      **** * Parameters:  
  64:.\main.c      **** *   None
  65:.\main.c      **** *
  66:.\main.c      **** * Return:
  67:.\main.c      **** *   None
  68:.\main.c      **** *
  69:.\main.c      **** *******************************************************************************/
  70:.\main.c      **** int PB = 0; 
  71:.\main.c      **** CY_ISR(PB_ISR)
  72:.\main.c      **** {
  73:.\main.c      **** 	if(PB==0)
  74:.\main.c      **** 	{
  75:.\main.c      **** 		PB=1;
  76:.\main.c      **** 	}
  77:.\main.c      **** 	else
  78:.\main.c      **** 	{
  79:.\main.c      **** 		PB=0;
  80:.\main.c      **** 	}
  81:.\main.c      **** }
  82:.\main.c      **** 
  83:.\main.c      **** CY_ISR(FIFO_EMPTY)
  84:.\main.c      **** {
  26              		.loc 1 84 0
  27              		.cfi_startproc
  28 0000 F0B5     		push	{r4, r5, r6, r7, lr}
  29              	.LCFI0:
  30              		.cfi_def_cfa_offset 20
ARM GAS  C:\Users\Steve\AppData\Local\Temp\ccEPKYrT.s 			page 3


  31              		.cfi_offset 4, -20
  32              		.cfi_offset 5, -16
  33              		.cfi_offset 6, -12
  34              		.cfi_offset 7, -8
  35              		.cfi_offset 14, -4
  36 0002 5F46     		mov	r7, fp
  37 0004 4D46     		mov	r5, r9
  38 0006 4446     		mov	r4, r8
  39 0008 5646     		mov	r6, sl
  40 000a F0B4     		push	{r4, r5, r6, r7}
  41              	.LCFI1:
  42              		.cfi_def_cfa_offset 36
  43              		.cfi_offset 8, -36
  44              		.cfi_offset 9, -32
  45              		.cfi_offset 10, -28
  46              		.cfi_offset 11, -24
  85:.\main.c      **** 	/* Clear pending interrupts */
  86:.\main.c      **** 	*isr_2_INTC_CLR_PD = isr_2__INTC_MASK;
  47              		.loc 1 86 0
  48 000c 674B     		ldr	r3, .L8
  87:.\main.c      **** 	
  88:.\main.c      **** 	/* Setting the latch passes the value through the LED driver
  89:.\main.c      **** 	 * Clearing the latch then latches this value
  90:.\main.c      **** 	 * See: http://www.bjtopspace.com/ziliao/CYT62726.pdf
  91:.\main.c      **** 	 */
  92:.\main.c      **** //	Set_LAT;				/* Note that this is done in hardware, and these 2 lines have no effect since CR_Add
  93:.\main.c      **** //	Clear_LAT;
  94:.\main.c      **** 
  95:.\main.c      **** 	/* Enable Outputs - OE is control[1], and is active low. 
  96:.\main.c      **** 	 * control[0] is 'enable', so leave it at 1 
  97:.\main.c      **** 	 */ 
  98:.\main.c      **** 	LED_Matrix_1_WriteControl(0x01);
  49              		.loc 1 98 0
  50 000e 6849     		ldr	r1, .L8+4
  99:.\main.c      **** 	
 100:.\main.c      **** 	pwm_count++;
  51              		.loc 1 100 0
  52 0010 684D     		ldr	r5, .L8+8
  86:.\main.c      **** 	*isr_2_INTC_CLR_PD = isr_2__INTC_MASK;
  53              		.loc 1 86 0
  54 0012 0822     		mov	r2, #8
  98:.\main.c      **** 	LED_Matrix_1_WriteControl(0x01);
  55              		.loc 1 98 0
  56 0014 0120     		mov	r0, #1
  86:.\main.c      **** 	*isr_2_INTC_CLR_PD = isr_2__INTC_MASK;
  57              		.loc 1 86 0
  58 0016 1A60     		str	r2, [r3]
  98:.\main.c      **** 	LED_Matrix_1_WriteControl(0x01);
  59              		.loc 1 98 0
  60 0018 0870     		strb	r0, [r1]
  61              		.loc 1 100 0
  62 001a 2C78     		ldrb	r4, [r5]
  84:.\main.c      **** {
  63              		.loc 1 84 0
  64 001c 87B0     		sub	sp, sp, #28
  65              	.LCFI2:
  66              		.cfi_def_cfa_offset 64
ARM GAS  C:\Users\Steve\AppData\Local\Temp\ccEPKYrT.s 			page 4


  67              		.loc 1 100 0
  68 001e 0134     		add	r4, r4, #1
  69 0020 E7B2     		uxtb	r7, r4
  70 0022 2F70     		strb	r7, [r5]
 101:.\main.c      **** 
 102:.\main.c      **** 	/* Binary coded modulation. Read more here: http://www.batsocks.co.uk/readme/art_bcm_1.htm  */
 103:.\main.c      **** 	/*if(pwm_count == 31)
 104:.\main.c      **** 	{
 105:.\main.c      **** 		bit_shift = 0;
 106:.\main.c      **** 		pwm_count = 0;
 107:.\main.c      **** 		j++;
 108:.\main.c      **** 		
 109:.\main.c      **** 		if(j == 8)
 110:.\main.c      **** 		{
 111:.\main.c      **** 			j = 0;
 112:.\main.c      **** 		}
 113:.\main.c      **** 	}*/
 114:.\main.c      **** 	if(pwm_count == 1)
  71              		.loc 1 114 0
  72 0024 012F     		cmp	r7, #1
  73 0026 00D1     		bne	.LCB38
  74 0028 B9E0     		b	.L7	@long jump
  75              	.LCB38:
 115:.\main.c      **** 	{
 116:.\main.c      **** 		bit_shift = 1;
 117:.\main.c      **** 	}
 118:.\main.c      **** 	else if(pwm_count == 3)
  76              		.loc 1 118 0
  77 002a 032F     		cmp	r7, #3
  78 002c 00D1     		bne	.LCB40
  79 002e A5E0     		b	.L4	@long jump
  80              	.LCB40:
  81 0030 614A     		ldr	r2, .L8+12
  82 0032 6E78     		ldrb	r6, [r5, #1]
  83 0034 1478     		ldrb	r4, [r2]
  84 0036 B700     		lsl	r7, r6, #2
  85              	.L3:
 119:.\main.c      **** 	{
 120:.\main.c      **** 		bit_shift = 0;
 121:.\main.c      **** 		pwm_count = 0;
 122:.\main.c      **** 		j++;
 123:.\main.c      **** 		
 124:.\main.c      **** 		if(j == 8)
 125:.\main.c      **** 		{
 126:.\main.c      **** 			j = 0;
 127:.\main.c      **** 		}
 128:.\main.c      **** 	}
 129:.\main.c      **** 	/*else if(pwm_count == 7)
 130:.\main.c      **** 	{
 131:.\main.c      **** 		bit_shift = 3;
 132:.\main.c      **** 	}
 133:.\main.c      **** 	else if(pwm_count == 15)
 134:.\main.c      **** 	{
 135:.\main.c      **** 		bit_shift = 4;
 136:.\main.c      **** 	}*/
 137:.\main.c      **** 
 138:.\main.c      **** 	/* Write the values to the FIFOs. Note that the data is not written to the matrix until all the FI
ARM GAS  C:\Users\Steve\AppData\Local\Temp\ccEPKYrT.s 			page 5


 139:.\main.c      **** 	
 140:.\main.c      **** 	/****************************** Visually mapping out the matrix **********************
 141:.\main.c      **** 	*	A row in Plane1:		0th byte		1st byte		2nd byte		3rd byte
 142:.\main.c      **** 	* 	F0_REG_0 	R1	 	x-x-x-x-x-x-x-x x-x-x-x-x-x-x-x x-x-x-x-x-x-x-x x-x-x-x-x-x-x-x 
 143:.\main.c      **** 	*	F0_REG_1	G1			.												.
 144:.\main.c      **** 	*	F0_REG_2	B1			.												.
 145:.\main.c      **** 	*							.												.
 146:.\main.c      **** 	*	A row in Plane2:		.												.
 147:.\main.c      **** 	*	F1_REG_0 	R2	 	x-x-x-x-x-x-x-x x-x-x-x-x-x-x-x x-x-x-x-x-x-x-x x-x-x-x-x-x-x-x 
 148:.\main.c      **** 	*	F1_REG_1	G2			.												.
 149:.\main.c      **** 	*	F1_REG_2	B2			.												.
 150:.\main.c      **** 	*
 151:.\main.c      **** 	* Note: The 8 rows are selected by (A, B, C)
 152:.\main.c      **** 	*************************************************************************************/
 153:.\main.c      **** 	
 154:.\main.c      **** 	/* These four lines write to the first plane */
 155:.\main.c      **** 	LED_Matrix_1_F0_REG_0 = (uint8)matrix[0 + j*4].r[bit_shift];
  86              		.loc 1 155 0
  87 0038 3801     		lsl	r0, r7, #4
  88 003a 604B     		ldr	r3, .L8+16
  89 003c C11B     		sub	r1, r0, r7
  90 003e 0C19     		add	r4, r1, r4
  91 0040 E75C     		ldrb	r7, [r4, r3]
  92 0042 5F4C     		ldr	r4, .L8+20
  93 0044 2770     		strb	r7, [r4]
 156:.\main.c      **** 	LED_Matrix_1_F0_REG_0 = (uint8)matrix[1 + j*4].r[bit_shift];
  94              		.loc 1 156 0
  95 0046 6978     		ldrb	r1, [r5, #1]
  96 0048 1278     		ldrb	r2, [r2]
  97 004a 8800     		lsl	r0, r1, #2
  98 004c 451C     		add	r5, r0, #1
  99 004e 2E01     		lsl	r6, r5, #4
 100 0050 771B     		sub	r7, r6, r5
 101 0052 B946     		mov	r9, r7
 102 0054 BF18     		add	r7, r7, r2
 103 0056 FD5C     		ldrb	r5, [r7, r3]
 157:.\main.c      **** 	LED_Matrix_1_F0_REG_0 = (uint8)matrix[2 + j*4].r[bit_shift];
 158:.\main.c      **** 	LED_Matrix_1_F0_REG_0 = (uint8)matrix[3 + j*4].r[bit_shift];
 104              		.loc 1 158 0
 105 0058 9346     		mov	fp, r2
 156:.\main.c      **** 	LED_Matrix_1_F0_REG_0 = (uint8)matrix[1 + j*4].r[bit_shift];
 106              		.loc 1 156 0
 107 005a 2570     		strb	r5, [r4]
 157:.\main.c      **** 	LED_Matrix_1_F0_REG_0 = (uint8)matrix[2 + j*4].r[bit_shift];
 108              		.loc 1 157 0
 109 005c 851C     		add	r5, r0, #2
 110 005e 2E01     		lsl	r6, r5, #4
 111 0060 751B     		sub	r5, r6, r5
 112 0062 AE18     		add	r6, r5, r2
 113 0064 0296     		str	r6, [sp, #8]
 114 0066 A846     		mov	r8, r5
 115 0068 F55C     		ldrb	r5, [r6, r3]
 116              		.loc 1 158 0
 117 006a C61C     		add	r6, r0, #3
 157:.\main.c      **** 	LED_Matrix_1_F0_REG_0 = (uint8)matrix[2 + j*4].r[bit_shift];
 118              		.loc 1 157 0
 119 006c 2570     		strb	r5, [r4]
ARM GAS  C:\Users\Steve\AppData\Local\Temp\ccEPKYrT.s 			page 6


 120              		.loc 1 158 0
 121 006e 3501     		lsl	r5, r6, #4
 122 0070 AD1B     		sub	r5, r5, r6
 123 0072 AC46     		mov	ip, r5
 124 0074 E344     		add	fp, fp, ip
 125 0076 5E46     		mov	r6, fp
 126 0078 F55C     		ldrb	r5, [r6, r3]
 159:.\main.c      **** 
 160:.\main.c      **** 	LED_Matrix_1_F0_REG_1 = (uint8)matrix[0 + j*4].g[bit_shift];
 161:.\main.c      **** 	LED_Matrix_1_F0_REG_1 = (uint8)matrix[1 + j*4].g[bit_shift];
 127              		.loc 1 161 0
 128 007a DF19     		add	r7, r3, r7
 158:.\main.c      **** 	LED_Matrix_1_F0_REG_0 = (uint8)matrix[3 + j*4].r[bit_shift];
 129              		.loc 1 158 0
 130 007c 2570     		strb	r5, [r4]
 160:.\main.c      **** 	LED_Matrix_1_F0_REG_1 = (uint8)matrix[0 + j*4].g[bit_shift];
 131              		.loc 1 160 0
 132 007e 8C01     		lsl	r4, r1, #6
 133 0080 201A     		sub	r0, r4, r0
 134 0082 8618     		add	r6, r0, r2
 135 0084 9D19     		add	r5, r3, r6
 136 0086 6C79     		ldrb	r4, [r5, #5]
 137 0088 8246     		mov	sl, r0
 138 008a 4E48     		ldr	r0, .L8+24
 162:.\main.c      **** 	LED_Matrix_1_F0_REG_1 = (uint8)matrix[2 + j*4].g[bit_shift];
 163:.\main.c      **** 	LED_Matrix_1_F0_REG_1 = (uint8)matrix[3 + j*4].g[bit_shift];
 164:.\main.c      **** 	
 165:.\main.c      **** 	/* These four lines write to the second plane */
 166:.\main.c      **** 	LED_Matrix_1_F1_REG_1 = (uint8)matrix[0 + (j+8)*4].g[bit_shift];
 167:.\main.c      **** 	LED_Matrix_1_F1_REG_1 = (uint8)matrix[1 + (j+8)*4].g[bit_shift];
 168:.\main.c      **** 	LED_Matrix_1_F1_REG_1 = (uint8)matrix[2 + (j+8)*4].g[bit_shift];
 169:.\main.c      **** 	LED_Matrix_1_F1_REG_1 = (uint8)matrix[3 + (j+8)*4].g[bit_shift];
 170:.\main.c      **** 	
 171:.\main.c      **** 	LED_Matrix_1_F0_REG_2 = (uint8)matrix[0 + j*4].b[bit_shift];
 172:.\main.c      **** 	LED_Matrix_1_F0_REG_2 = (uint8)matrix[1 + j*4].b[bit_shift];
 139              		.loc 1 172 0
 140 008c 9944     		add	r9, r9, r3
 160:.\main.c      **** 	LED_Matrix_1_F0_REG_1 = (uint8)matrix[0 + j*4].g[bit_shift];
 141              		.loc 1 160 0
 142 008e 0470     		strb	r4, [r0]
 161:.\main.c      **** 	LED_Matrix_1_F0_REG_1 = (uint8)matrix[1 + j*4].g[bit_shift];
 143              		.loc 1 161 0
 144 0090 7E79     		ldrb	r6, [r7, #5]
 145              		.loc 1 172 0
 146 0092 9144     		add	r9, r9, r2
 161:.\main.c      **** 	LED_Matrix_1_F0_REG_1 = (uint8)matrix[1 + j*4].g[bit_shift];
 147              		.loc 1 161 0
 148 0094 0670     		strb	r6, [r0]
 162:.\main.c      **** 	LED_Matrix_1_F0_REG_1 = (uint8)matrix[2 + j*4].g[bit_shift];
 149              		.loc 1 162 0
 150 0096 029D     		ldr	r5, [sp, #8]
 163:.\main.c      **** 	LED_Matrix_1_F0_REG_1 = (uint8)matrix[3 + j*4].g[bit_shift];
 151              		.loc 1 163 0
 152 0098 5E46     		mov	r6, fp
 162:.\main.c      **** 	LED_Matrix_1_F0_REG_1 = (uint8)matrix[2 + j*4].g[bit_shift];
 153              		.loc 1 162 0
 154 009a 5C19     		add	r4, r3, r5
ARM GAS  C:\Users\Steve\AppData\Local\Temp\ccEPKYrT.s 			page 7


 155 009c 6779     		ldrb	r7, [r4, #5]
 163:.\main.c      **** 	LED_Matrix_1_F0_REG_1 = (uint8)matrix[3 + j*4].g[bit_shift];
 156              		.loc 1 163 0
 157 009e 9D19     		add	r5, r3, r6
 162:.\main.c      **** 	LED_Matrix_1_F0_REG_1 = (uint8)matrix[2 + j*4].g[bit_shift];
 158              		.loc 1 162 0
 159 00a0 0770     		strb	r7, [r0]
 163:.\main.c      **** 	LED_Matrix_1_F0_REG_1 = (uint8)matrix[3 + j*4].g[bit_shift];
 160              		.loc 1 163 0
 161 00a2 6C79     		ldrb	r4, [r5, #5]
 173:.\main.c      **** 	LED_Matrix_1_F0_REG_2 = (uint8)matrix[2 + j*4].b[bit_shift];
 162              		.loc 1 173 0
 163 00a4 9844     		add	r8, r8, r3
 163:.\main.c      **** 	LED_Matrix_1_F0_REG_1 = (uint8)matrix[3 + j*4].g[bit_shift];
 164              		.loc 1 163 0
 165 00a6 0470     		strb	r4, [r0]
 166:.\main.c      **** 	LED_Matrix_1_F1_REG_1 = (uint8)matrix[0 + (j+8)*4].g[bit_shift];
 166              		.loc 1 166 0
 167 00a8 081C     		mov	r0, r1
 168 00aa 0830     		add	r0, r0, #8
 169 00ac 8600     		lsl	r6, r0, #2
 170 00ae 8701     		lsl	r7, r0, #6
 171 00b0 BD1B     		sub	r5, r7, r6
 172 00b2 AC18     		add	r4, r5, r2
 173 00b4 0295     		str	r5, [sp, #8]
 174 00b6 0394     		str	r4, [sp, #12]
 175 00b8 1819     		add	r0, r3, r4
 176 00ba 4779     		ldrb	r7, [r0, #5]
 167:.\main.c      **** 	LED_Matrix_1_F1_REG_1 = (uint8)matrix[1 + (j+8)*4].g[bit_shift];
 177              		.loc 1 167 0
 178 00bc 741C     		add	r4, r6, #1
 166:.\main.c      **** 	LED_Matrix_1_F1_REG_1 = (uint8)matrix[0 + (j+8)*4].g[bit_shift];
 179              		.loc 1 166 0
 180 00be 4248     		ldr	r0, .L8+28
 167:.\main.c      **** 	LED_Matrix_1_F1_REG_1 = (uint8)matrix[1 + (j+8)*4].g[bit_shift];
 181              		.loc 1 167 0
 182 00c0 2501     		lsl	r5, r4, #4
 166:.\main.c      **** 	LED_Matrix_1_F1_REG_1 = (uint8)matrix[0 + (j+8)*4].g[bit_shift];
 183              		.loc 1 166 0
 184 00c2 0770     		strb	r7, [r0]
 167:.\main.c      **** 	LED_Matrix_1_F1_REG_1 = (uint8)matrix[1 + (j+8)*4].g[bit_shift];
 185              		.loc 1 167 0
 186 00c4 2F1B     		sub	r7, r5, r4
 187 00c6 BC18     		add	r4, r7, r2
 188 00c8 0594     		str	r4, [sp, #20]
 189 00ca 0497     		str	r7, [sp, #16]
 190 00cc 1D19     		add	r5, r3, r4
 191 00ce 6F79     		ldrb	r7, [r5, #5]
 168:.\main.c      **** 	LED_Matrix_1_F1_REG_1 = (uint8)matrix[2 + (j+8)*4].g[bit_shift];
 192              		.loc 1 168 0
 193 00d0 B41C     		add	r4, r6, #2
 194 00d2 2501     		lsl	r5, r4, #4
 167:.\main.c      **** 	LED_Matrix_1_F1_REG_1 = (uint8)matrix[1 + (j+8)*4].g[bit_shift];
 195              		.loc 1 167 0
 196 00d4 0770     		strb	r7, [r0]
 168:.\main.c      **** 	LED_Matrix_1_F1_REG_1 = (uint8)matrix[2 + (j+8)*4].g[bit_shift];
 197              		.loc 1 168 0
ARM GAS  C:\Users\Steve\AppData\Local\Temp\ccEPKYrT.s 			page 8


 198 00d6 2F1B     		sub	r7, r5, r4
 199 00d8 BD18     		add	r5, r7, r2
 200 00da 0197     		str	r7, [sp, #4]
 201 00dc 5C19     		add	r4, r3, r5
 169:.\main.c      **** 	LED_Matrix_1_F1_REG_1 = (uint8)matrix[3 + (j+8)*4].g[bit_shift];
 202              		.loc 1 169 0
 203 00de 0336     		add	r6, r6, #3
 168:.\main.c      **** 	LED_Matrix_1_F1_REG_1 = (uint8)matrix[2 + (j+8)*4].g[bit_shift];
 204              		.loc 1 168 0
 205 00e0 6779     		ldrb	r7, [r4, #5]
 169:.\main.c      **** 	LED_Matrix_1_F1_REG_1 = (uint8)matrix[3 + (j+8)*4].g[bit_shift];
 206              		.loc 1 169 0
 207 00e2 3401     		lsl	r4, r6, #4
 208 00e4 A61B     		sub	r6, r4, r6
 209 00e6 B418     		add	r4, r6, r2
 168:.\main.c      **** 	LED_Matrix_1_F1_REG_1 = (uint8)matrix[2 + (j+8)*4].g[bit_shift];
 210              		.loc 1 168 0
 211 00e8 0770     		strb	r7, [r0]
 169:.\main.c      **** 	LED_Matrix_1_F1_REG_1 = (uint8)matrix[3 + (j+8)*4].g[bit_shift];
 212              		.loc 1 169 0
 213 00ea 1F19     		add	r7, r3, r4
 214 00ec 7F79     		ldrb	r7, [r7, #5]
 215              		.loc 1 173 0
 216 00ee 9044     		add	r8, r8, r2
 169:.\main.c      **** 	LED_Matrix_1_F1_REG_1 = (uint8)matrix[3 + (j+8)*4].g[bit_shift];
 217              		.loc 1 169 0
 218 00f0 0770     		strb	r7, [r0]
 171:.\main.c      **** 	LED_Matrix_1_F0_REG_2 = (uint8)matrix[0 + j*4].b[bit_shift];
 219              		.loc 1 171 0
 220 00f2 5046     		mov	r0, sl
 221 00f4 1F18     		add	r7, r3, r0
 222 00f6 B818     		add	r0, r7, r2
 223 00f8 877A     		ldrb	r7, [r0, #10]
 224 00fa 3448     		ldr	r0, .L8+32
 174:.\main.c      **** 	LED_Matrix_1_F0_REG_2 = (uint8)matrix[3 + j*4].b[bit_shift];
 225              		.loc 1 174 0
 226 00fc 9C44     		add	ip, ip, r3
 171:.\main.c      **** 	LED_Matrix_1_F0_REG_2 = (uint8)matrix[0 + j*4].b[bit_shift];
 227              		.loc 1 171 0
 228 00fe 0770     		strb	r7, [r0]
 172:.\main.c      **** 	LED_Matrix_1_F0_REG_2 = (uint8)matrix[1 + j*4].b[bit_shift];
 229              		.loc 1 172 0
 230 0100 4F46     		mov	r7, r9
 231 0102 BF7A     		ldrb	r7, [r7, #10]
 232              		.loc 1 174 0
 233 0104 9444     		add	ip, ip, r2
 172:.\main.c      **** 	LED_Matrix_1_F0_REG_2 = (uint8)matrix[1 + j*4].b[bit_shift];
 234              		.loc 1 172 0
 235 0106 0770     		strb	r7, [r0]
 173:.\main.c      **** 	LED_Matrix_1_F0_REG_2 = (uint8)matrix[2 + j*4].b[bit_shift];
 236              		.loc 1 173 0
 237 0108 4746     		mov	r7, r8
 238 010a BF7A     		ldrb	r7, [r7, #10]
 175:.\main.c      **** 
 176:.\main.c      **** 	LED_Matrix_1_F1_REG_2 = (uint8)matrix[0 + (j+8)*4].b[bit_shift];
 177:.\main.c      **** 	LED_Matrix_1_F1_REG_2 = (uint8)matrix[1 + (j+8)*4].b[bit_shift];
 178:.\main.c      **** 	LED_Matrix_1_F1_REG_2 = (uint8)matrix[2 + (j+8)*4].b[bit_shift];
ARM GAS  C:\Users\Steve\AppData\Local\Temp\ccEPKYrT.s 			page 9


 179:.\main.c      **** 	LED_Matrix_1_F1_REG_2 = (uint8)matrix[3 + (j+8)*4].b[bit_shift];
 239              		.loc 1 179 0
 240 010c 9E19     		add	r6, r3, r6
 173:.\main.c      **** 	LED_Matrix_1_F0_REG_2 = (uint8)matrix[2 + j*4].b[bit_shift];
 241              		.loc 1 173 0
 242 010e 0770     		strb	r7, [r0]
 174:.\main.c      **** 	LED_Matrix_1_F0_REG_2 = (uint8)matrix[3 + j*4].b[bit_shift];
 243              		.loc 1 174 0
 244 0110 6746     		mov	r7, ip
 245 0112 BF7A     		ldrb	r7, [r7, #10]
 246 0114 0770     		strb	r7, [r0]
 176:.\main.c      **** 	LED_Matrix_1_F1_REG_2 = (uint8)matrix[0 + (j+8)*4].b[bit_shift];
 247              		.loc 1 176 0
 248 0116 0298     		ldr	r0, [sp, #8]
 249 0118 1F18     		add	r7, r3, r0
 250 011a B818     		add	r0, r7, r2
 251 011c 877A     		ldrb	r7, [r0, #10]
 252 011e 2C48     		ldr	r0, .L8+36
 253 0120 0770     		strb	r7, [r0]
 177:.\main.c      **** 	LED_Matrix_1_F1_REG_2 = (uint8)matrix[1 + (j+8)*4].b[bit_shift];
 254              		.loc 1 177 0
 255 0122 049F     		ldr	r7, [sp, #16]
 256 0124 FF18     		add	r7, r7, r3
 257 0126 B846     		mov	r8, r7
 258 0128 9044     		add	r8, r8, r2
 259 012a 4746     		mov	r7, r8
 260 012c BF7A     		ldrb	r7, [r7, #10]
 261 012e 0770     		strb	r7, [r0]
 178:.\main.c      **** 	LED_Matrix_1_F1_REG_2 = (uint8)matrix[2 + (j+8)*4].b[bit_shift];
 262              		.loc 1 178 0
 263 0130 019F     		ldr	r7, [sp, #4]
 264 0132 FF18     		add	r7, r7, r3
 265 0134 BC46     		mov	ip, r7
 266 0136 9444     		add	ip, ip, r2
 267 0138 6746     		mov	r7, ip
 268 013a BF7A     		ldrb	r7, [r7, #10]
 269              		.loc 1 179 0
 270 013c B218     		add	r2, r6, r2
 178:.\main.c      **** 	LED_Matrix_1_F1_REG_2 = (uint8)matrix[2 + (j+8)*4].b[bit_shift];
 271              		.loc 1 178 0
 272 013e 0770     		strb	r7, [r0]
 273              		.loc 1 179 0
 274 0140 977A     		ldrb	r7, [r2, #10]
 180:.\main.c      **** 	
 181:.\main.c      **** 	LED_Matrix_1_F1_REG_0 = (uint8)matrix[0 + (j+8)*4].r[bit_shift];
 275              		.loc 1 181 0
 276 0142 244A     		ldr	r2, .L8+40
 179:.\main.c      **** 	LED_Matrix_1_F1_REG_2 = (uint8)matrix[3 + (j+8)*4].b[bit_shift];
 277              		.loc 1 179 0
 278 0144 0770     		strb	r7, [r0]
 279              		.loc 1 181 0
 280 0146 0398     		ldr	r0, [sp, #12]
 281 0148 C65C     		ldrb	r6, [r0, r3]
 282 014a 1670     		strb	r6, [r2]
 182:.\main.c      **** 	LED_Matrix_1_F1_REG_0 = (uint8)matrix[1 + (j+8)*4].r[bit_shift];
 283              		.loc 1 182 0
 284 014c 059F     		ldr	r7, [sp, #20]
ARM GAS  C:\Users\Steve\AppData\Local\Temp\ccEPKYrT.s 			page 10


 183:.\main.c      **** 	LED_Matrix_1_F1_REG_0 = (uint8)matrix[2 + (j+8)*4].r[bit_shift];
 184:.\main.c      **** 
 185:.\main.c      **** 	/* Disable outputs */
 186:.\main.c      **** 	LED_Matrix_1_WriteControl(0x03);
 285              		.loc 1 186 0
 286 014e 0326     		mov	r6, #3
 182:.\main.c      **** 	LED_Matrix_1_F1_REG_0 = (uint8)matrix[1 + (j+8)*4].r[bit_shift];
 287              		.loc 1 182 0
 288 0150 F85C     		ldrb	r0, [r7, r3]
 289              		.loc 1 186 0
 290 0152 174F     		ldr	r7, .L8+4
 182:.\main.c      **** 	LED_Matrix_1_F1_REG_0 = (uint8)matrix[1 + (j+8)*4].r[bit_shift];
 291              		.loc 1 182 0
 292 0154 1070     		strb	r0, [r2]
 183:.\main.c      **** 	LED_Matrix_1_F1_REG_0 = (uint8)matrix[2 + (j+8)*4].r[bit_shift];
 293              		.loc 1 183 0
 294 0156 ED5C     		ldrb	r5, [r5, r3]
 187:.\main.c      **** 	
 188:.\main.c      **** 	/* Note that row change occurs at a lower frequency than the BCM because of mystery ghosting */
 189:.\main.c      **** 	Row_Select(j);
 295              		.loc 1 189 0
 296 0158 1F48     		ldr	r0, .L8+44
 183:.\main.c      **** 	LED_Matrix_1_F1_REG_0 = (uint8)matrix[2 + (j+8)*4].r[bit_shift];
 297              		.loc 1 183 0
 298 015a 1570     		strb	r5, [r2]
 186:.\main.c      **** 	LED_Matrix_1_WriteControl(0x03);
 299              		.loc 1 186 0
 300 015c 3E70     		strb	r6, [r7]
 301              		.loc 1 189 0
 302 015e 0678     		ldrb	r6, [r0]
 303 0160 0725     		mov	r5, #7
 304 0162 2940     		and	r1, r5
 305 0164 AE43     		bic	r6, r5
 306 0166 3143     		orr	r1, r6
 307 0168 0170     		strb	r1, [r0]
 190:.\main.c      **** 
 191:.\main.c      **** 	/* Once F1_REG_0 is full (this line does it), the Component will begin shifting out values */
 192:.\main.c      **** 	LED_Matrix_1_F1_REG_0 = (uint8)matrix[3 + (j+8)*4].r[bit_shift];
 308              		.loc 1 192 0
 309 016a E35C     		ldrb	r3, [r4, r3]
 310 016c 1370     		strb	r3, [r2]
 193:.\main.c      **** }
 311              		.loc 1 193 0
 312 016e 07B0     		add	sp, sp, #28
 313              		@ sp needed for prologue
 314 0170 3CBC     		pop	{r2, r3, r4, r5}
 315 0172 9046     		mov	r8, r2
 316 0174 9946     		mov	r9, r3
 317 0176 A246     		mov	sl, r4
 318 0178 AB46     		mov	fp, r5
 319 017a F0BD     		pop	{r4, r5, r6, r7, pc}
 320              	.L4:
 122:.\main.c      **** 		j++;
 321              		.loc 1 122 0
 322 017c 6878     		ldrb	r0, [r5, #1]
 120:.\main.c      **** 		bit_shift = 0;
 323              		.loc 1 120 0
ARM GAS  C:\Users\Steve\AppData\Local\Temp\ccEPKYrT.s 			page 11


 324 017e 0E4A     		ldr	r2, .L8+12
 122:.\main.c      **** 		j++;
 325              		.loc 1 122 0
 326 0180 0130     		add	r0, r0, #1
 120:.\main.c      **** 		bit_shift = 0;
 327              		.loc 1 120 0
 328 0182 0023     		mov	r3, #0
 122:.\main.c      **** 		j++;
 329              		.loc 1 122 0
 330 0184 C1B2     		uxtb	r1, r0
 120:.\main.c      **** 		bit_shift = 0;
 331              		.loc 1 120 0
 332 0186 1370     		strb	r3, [r2]
 121:.\main.c      **** 		pwm_count = 0;
 333              		.loc 1 121 0
 334 0188 2B70     		strb	r3, [r5]
 124:.\main.c      **** 		if(j == 8)
 335              		.loc 1 124 0
 336 018a 0829     		cmp	r1, #8
 337 018c 03D0     		beq	.L5
 122:.\main.c      **** 		j++;
 338              		.loc 1 122 0
 339 018e 6970     		strb	r1, [r5, #1]
 340 0190 8F00     		lsl	r7, r1, #2
 341 0192 0024     		mov	r4, #0
 342 0194 50E7     		b	.L3
 343              	.L5:
 126:.\main.c      **** 			j = 0;
 344              		.loc 1 126 0
 345 0196 6B70     		strb	r3, [r5, #1]
 346 0198 0024     		mov	r4, #0
 347 019a 0027     		mov	r7, #0
 348 019c 4CE7     		b	.L3
 349              	.L7:
 116:.\main.c      **** 		bit_shift = 1;
 350              		.loc 1 116 0
 351 019e 064A     		ldr	r2, .L8+12
 352 01a0 6E78     		ldrb	r6, [r5, #1]
 353 01a2 1770     		strb	r7, [r2]
 354 01a4 0124     		mov	r4, #1
 355 01a6 B700     		lsl	r7, r6, #2
 356 01a8 46E7     		b	.L3
 357              	.L9:
 358 01aa C046     		.align	2
 359              	.L8:
 360 01ac 80E200E0 		.word	-536812928
 361 01b0 71000F40 		.word	1074724977
 362 01b4 00000000 		.word	.LANCHOR0
 363 01b8 00000000 		.word	bit_shift
 364 01bc 00000000 		.word	matrix
 365 01c0 42000F40 		.word	1074724930
 366 01c4 43000F40 		.word	1074724931
 367 01c8 53000F40 		.word	1074724947
 368 01cc 41000F40 		.word	1074724929
 369 01d0 51000F40 		.word	1074724945
 370 01d4 52000F40 		.word	1074724946
 371 01d8 72000F40 		.word	1074724978
ARM GAS  C:\Users\Steve\AppData\Local\Temp\ccEPKYrT.s 			page 12


 372              		.cfi_endproc
 373              	.LFE34:
 374              		.size	FIFO_EMPTY, .-FIFO_EMPTY
 375              		.section	.text.eoc_isr,"ax",%progbits
 376              		.align	2
 377              		.global	eoc_isr
 378              		.code	16
 379              		.thumb_func
 380              		.type	eoc_isr, %function
 381              	eoc_isr:
 382              	.LFB35:
 194:.\main.c      **** uint8 dataReady = 0;
 195:.\main.c      **** uint16 result[8] = {0,0,0,0,0,0,0,0};
 196:.\main.c      **** uint8 oldResult[8] = {0,0,0,0,0,0,0,0};
 197:.\main.c      **** int w = 0;
 198:.\main.c      **** int refresh=0;
 199:.\main.c      **** CY_ISR(eoc_isr)
 200:.\main.c      **** {
 383              		.loc 1 200 0
 384              		.cfi_startproc
 201:.\main.c      **** 	
 202:.\main.c      **** 	result[0] = (uint16)(ADC_SAR_CHAN0_RESULT_REG & ADC_RESULT_MASK);
 385              		.loc 1 202 0
 386 0000 444B     		ldr	r3, .L27
 203:.\main.c      **** 	result[1] = (uint16)(ADC_SAR_CHAN1_RESULT_REG & ADC_RESULT_MASK);
 387              		.loc 1 203 0
 388 0002 454A     		ldr	r2, .L27+4
 202:.\main.c      **** 	result[0] = (uint16)(ADC_SAR_CHAN0_RESULT_REG & ADC_RESULT_MASK);
 389              		.loc 1 202 0
 390 0004 1968     		ldr	r1, [r3]
 391 0006 4548     		ldr	r0, .L27+8
 392              		.loc 1 203 0
 393 0008 1368     		ldr	r3, [r2]
 204:.\main.c      **** 	result[2] = (uint16)(ADC_SAR_CHAN2_RESULT_REG & ADC_RESULT_MASK);
 394              		.loc 1 204 0
 395 000a 454A     		ldr	r2, .L27+12
 200:.\main.c      **** {
 396              		.loc 1 200 0
 397 000c 00B5     		push	{lr}
 398              	.LCFI3:
 399              		.cfi_def_cfa_offset 4
 400              		.cfi_offset 14, -4
 203:.\main.c      **** 	result[1] = (uint16)(ADC_SAR_CHAN1_RESULT_REG & ADC_RESULT_MASK);
 401              		.loc 1 203 0
 402 000e C380     		strh	r3, [r0, #6]
 403              		.loc 1 204 0
 404 0010 1368     		ldr	r3, [r2]
 205:.\main.c      **** 	result[3] = (uint16)(ADC_SAR_CHAN3_RESULT_REG & ADC_RESULT_MASK);
 405              		.loc 1 205 0
 406 0012 444A     		ldr	r2, .L27+16
 204:.\main.c      **** 	result[2] = (uint16)(ADC_SAR_CHAN2_RESULT_REG & ADC_RESULT_MASK);
 407              		.loc 1 204 0
 408 0014 0381     		strh	r3, [r0, #8]
 409              		.loc 1 205 0
 410 0016 1368     		ldr	r3, [r2]
 206:.\main.c      **** 	result[4] = (uint16)(ADC_SAR_CHAN4_RESULT_REG & ADC_RESULT_MASK);
 411              		.loc 1 206 0
ARM GAS  C:\Users\Steve\AppData\Local\Temp\ccEPKYrT.s 			page 13


 412 0018 434A     		ldr	r2, .L27+20
 205:.\main.c      **** 	result[3] = (uint16)(ADC_SAR_CHAN3_RESULT_REG & ADC_RESULT_MASK);
 413              		.loc 1 205 0
 414 001a 4381     		strh	r3, [r0, #10]
 415              		.loc 1 206 0
 416 001c 1368     		ldr	r3, [r2]
 207:.\main.c      **** 	result[5] = (uint16)(ADC_SAR_CHAN5_RESULT_REG & ADC_RESULT_MASK);
 417              		.loc 1 207 0
 418 001e 434A     		ldr	r2, .L27+24
 206:.\main.c      **** 	result[4] = (uint16)(ADC_SAR_CHAN4_RESULT_REG & ADC_RESULT_MASK);
 419              		.loc 1 206 0
 420 0020 8381     		strh	r3, [r0, #12]
 421              		.loc 1 207 0
 422 0022 1368     		ldr	r3, [r2]
 208:.\main.c      **** 	result[6] = (uint16)(ADC_SAR_CHAN6_RESULT_REG & ADC_RESULT_MASK);
 423              		.loc 1 208 0
 424 0024 424A     		ldr	r2, .L27+28
 207:.\main.c      **** 	result[5] = (uint16)(ADC_SAR_CHAN5_RESULT_REG & ADC_RESULT_MASK);
 425              		.loc 1 207 0
 426 0026 C381     		strh	r3, [r0, #14]
 427              		.loc 1 208 0
 428 0028 1368     		ldr	r3, [r2]
 209:.\main.c      **** 	result[7] = (uint16)(ADC_SAR_CHAN7_RESULT_REG & ADC_RESULT_MASK);
 429              		.loc 1 209 0
 430 002a 424A     		ldr	r2, .L27+32
 208:.\main.c      **** 	result[6] = (uint16)(ADC_SAR_CHAN6_RESULT_REG & ADC_RESULT_MASK);
 431              		.loc 1 208 0
 432 002c 0382     		strh	r3, [r0, #16]
 433              		.loc 1 209 0
 434 002e 1368     		ldr	r3, [r2]
 210:.\main.c      **** 	for(w=0;w<8;w++)
 211:.\main.c      **** 	{
 212:.\main.c      **** 		if((result[w] & 0xFF00) == 0xFF00)
 435              		.loc 1 212 0
 436 0030 FF22     		mov	r2, #255
 209:.\main.c      **** 	result[7] = (uint16)(ADC_SAR_CHAN7_RESULT_REG & ADC_RESULT_MASK);
 437              		.loc 1 209 0
 438 0032 4382     		strh	r3, [r0, #18]
 439              		.loc 1 212 0
 440 0034 1302     		lsl	r3, r2, #8
 202:.\main.c      **** 	result[0] = (uint16)(ADC_SAR_CHAN0_RESULT_REG & ADC_RESULT_MASK);
 441              		.loc 1 202 0
 442 0036 8180     		strh	r1, [r0, #4]
 443              		.loc 1 212 0
 444 0038 1940     		and	r1, r3
 445 003a 9942     		cmp	r1, r3
 446 003c 2ED0     		beq	.L19
 447 003e C388     		ldrh	r3, [r0, #6]
 448 0040 FF22     		mov	r2, #255
 449 0042 9343     		bic	r3, r2
 450 0044 1102     		lsl	r1, r2, #8
 451 0046 8B42     		cmp	r3, r1
 452 0048 30D0     		beq	.L20
 453              	.L12:
 454 004a 0189     		ldrh	r1, [r0, #8]
 455 004c FF22     		mov	r2, #255
 456 004e 9143     		bic	r1, r2
ARM GAS  C:\Users\Steve\AppData\Local\Temp\ccEPKYrT.s 			page 14


 457 0050 1302     		lsl	r3, r2, #8
 458 0052 9942     		cmp	r1, r3
 459 0054 32D0     		beq	.L21
 460              	.L13:
 461 0056 4389     		ldrh	r3, [r0, #10]
 462 0058 FF22     		mov	r2, #255
 463 005a 9343     		bic	r3, r2
 464 005c 1102     		lsl	r1, r2, #8
 465 005e 8B42     		cmp	r3, r1
 466 0060 34D0     		beq	.L22
 467              	.L14:
 468 0062 8189     		ldrh	r1, [r0, #12]
 469 0064 FF22     		mov	r2, #255
 470 0066 9143     		bic	r1, r2
 471 0068 1302     		lsl	r3, r2, #8
 472 006a 9942     		cmp	r1, r3
 473 006c 36D0     		beq	.L23
 474              	.L15:
 475 006e C389     		ldrh	r3, [r0, #14]
 476 0070 FF22     		mov	r2, #255
 477 0072 9343     		bic	r3, r2
 478 0074 1102     		lsl	r1, r2, #8
 479 0076 8B42     		cmp	r3, r1
 480 0078 38D0     		beq	.L24
 481              	.L16:
 482 007a 018A     		ldrh	r1, [r0, #16]
 483 007c FF22     		mov	r2, #255
 484 007e 9143     		bic	r1, r2
 485 0080 1302     		lsl	r3, r2, #8
 486 0082 9942     		cmp	r1, r3
 487 0084 3AD0     		beq	.L25
 488              	.L17:
 489 0086 438A     		ldrh	r3, [r0, #18]
 490 0088 FF22     		mov	r2, #255
 491 008a 9343     		bic	r3, r2
 492 008c 1102     		lsl	r1, r2, #8
 493 008e 8B42     		cmp	r3, r1
 494 0090 3CD0     		beq	.L26
 495              	.L18:
 496 0092 0822     		mov	r2, #8
 213:.\main.c      **** 		{
 214:.\main.c      **** 			result[w] = 0;
 215:.\main.c      **** 		}
 216:.\main.c      **** 	}
 217:.\main.c      **** 	dataReady = 1;
 497              		.loc 1 217 0
 498 0094 0121     		mov	r1, #1
 499 0096 4261     		str	r2, [r0, #20]
 500 0098 0176     		strb	r1, [r0, #24]
 218:.\main.c      **** 	
 219:.\main.c      **** }
 501              		.loc 1 219 0
 502              		@ sp needed for prologue
 503 009a 00BD     		pop	{pc}
 504              	.L19:
 212:.\main.c      **** 		if((result[w] & 0xFF00) == 0xFF00)
 505              		.loc 1 212 0
ARM GAS  C:\Users\Steve\AppData\Local\Temp\ccEPKYrT.s 			page 15


 506 009c C388     		ldrh	r3, [r0, #6]
 214:.\main.c      **** 			result[w] = 0;
 507              		.loc 1 214 0
 508 009e 0021     		mov	r1, #0
 212:.\main.c      **** 		if((result[w] & 0xFF00) == 0xFF00)
 509              		.loc 1 212 0
 510 00a0 FF22     		mov	r2, #255
 214:.\main.c      **** 			result[w] = 0;
 511              		.loc 1 214 0
 512 00a2 8180     		strh	r1, [r0, #4]
 212:.\main.c      **** 		if((result[w] & 0xFF00) == 0xFF00)
 513              		.loc 1 212 0
 514 00a4 9343     		bic	r3, r2
 515 00a6 1102     		lsl	r1, r2, #8
 516 00a8 8B42     		cmp	r3, r1
 517 00aa CED1     		bne	.L12
 518              	.L20:
 519 00ac 0189     		ldrh	r1, [r0, #8]
 214:.\main.c      **** 			result[w] = 0;
 520              		.loc 1 214 0
 521 00ae 0023     		mov	r3, #0
 212:.\main.c      **** 		if((result[w] & 0xFF00) == 0xFF00)
 522              		.loc 1 212 0
 523 00b0 FF22     		mov	r2, #255
 214:.\main.c      **** 			result[w] = 0;
 524              		.loc 1 214 0
 525 00b2 C380     		strh	r3, [r0, #6]
 212:.\main.c      **** 		if((result[w] & 0xFF00) == 0xFF00)
 526              		.loc 1 212 0
 527 00b4 9143     		bic	r1, r2
 528 00b6 1302     		lsl	r3, r2, #8
 529 00b8 9942     		cmp	r1, r3
 530 00ba CCD1     		bne	.L13
 531              	.L21:
 532 00bc 4389     		ldrh	r3, [r0, #10]
 214:.\main.c      **** 			result[w] = 0;
 533              		.loc 1 214 0
 534 00be 0021     		mov	r1, #0
 212:.\main.c      **** 		if((result[w] & 0xFF00) == 0xFF00)
 535              		.loc 1 212 0
 536 00c0 FF22     		mov	r2, #255
 214:.\main.c      **** 			result[w] = 0;
 537              		.loc 1 214 0
 538 00c2 0181     		strh	r1, [r0, #8]
 212:.\main.c      **** 		if((result[w] & 0xFF00) == 0xFF00)
 539              		.loc 1 212 0
 540 00c4 9343     		bic	r3, r2
 541 00c6 1102     		lsl	r1, r2, #8
 542 00c8 8B42     		cmp	r3, r1
 543 00ca CAD1     		bne	.L14
 544              	.L22:
 545 00cc 8189     		ldrh	r1, [r0, #12]
 214:.\main.c      **** 			result[w] = 0;
 546              		.loc 1 214 0
 547 00ce 0023     		mov	r3, #0
 212:.\main.c      **** 		if((result[w] & 0xFF00) == 0xFF00)
 548              		.loc 1 212 0
ARM GAS  C:\Users\Steve\AppData\Local\Temp\ccEPKYrT.s 			page 16


 549 00d0 FF22     		mov	r2, #255
 214:.\main.c      **** 			result[w] = 0;
 550              		.loc 1 214 0
 551 00d2 4381     		strh	r3, [r0, #10]
 212:.\main.c      **** 		if((result[w] & 0xFF00) == 0xFF00)
 552              		.loc 1 212 0
 553 00d4 9143     		bic	r1, r2
 554 00d6 1302     		lsl	r3, r2, #8
 555 00d8 9942     		cmp	r1, r3
 556 00da C8D1     		bne	.L15
 557              	.L23:
 558 00dc C389     		ldrh	r3, [r0, #14]
 214:.\main.c      **** 			result[w] = 0;
 559              		.loc 1 214 0
 560 00de 0021     		mov	r1, #0
 212:.\main.c      **** 		if((result[w] & 0xFF00) == 0xFF00)
 561              		.loc 1 212 0
 562 00e0 FF22     		mov	r2, #255
 214:.\main.c      **** 			result[w] = 0;
 563              		.loc 1 214 0
 564 00e2 8181     		strh	r1, [r0, #12]
 212:.\main.c      **** 		if((result[w] & 0xFF00) == 0xFF00)
 565              		.loc 1 212 0
 566 00e4 9343     		bic	r3, r2
 567 00e6 1102     		lsl	r1, r2, #8
 568 00e8 8B42     		cmp	r3, r1
 569 00ea C6D1     		bne	.L16
 570              	.L24:
 571 00ec 018A     		ldrh	r1, [r0, #16]
 214:.\main.c      **** 			result[w] = 0;
 572              		.loc 1 214 0
 573 00ee 0023     		mov	r3, #0
 212:.\main.c      **** 		if((result[w] & 0xFF00) == 0xFF00)
 574              		.loc 1 212 0
 575 00f0 FF22     		mov	r2, #255
 214:.\main.c      **** 			result[w] = 0;
 576              		.loc 1 214 0
 577 00f2 C381     		strh	r3, [r0, #14]
 212:.\main.c      **** 		if((result[w] & 0xFF00) == 0xFF00)
 578              		.loc 1 212 0
 579 00f4 9143     		bic	r1, r2
 580 00f6 1302     		lsl	r3, r2, #8
 581 00f8 9942     		cmp	r1, r3
 582 00fa C4D1     		bne	.L17
 583              	.L25:
 584 00fc 438A     		ldrh	r3, [r0, #18]
 214:.\main.c      **** 			result[w] = 0;
 585              		.loc 1 214 0
 586 00fe 0021     		mov	r1, #0
 212:.\main.c      **** 		if((result[w] & 0xFF00) == 0xFF00)
 587              		.loc 1 212 0
 588 0100 FF22     		mov	r2, #255
 214:.\main.c      **** 			result[w] = 0;
 589              		.loc 1 214 0
 590 0102 0182     		strh	r1, [r0, #16]
 212:.\main.c      **** 		if((result[w] & 0xFF00) == 0xFF00)
 591              		.loc 1 212 0
ARM GAS  C:\Users\Steve\AppData\Local\Temp\ccEPKYrT.s 			page 17


 592 0104 9343     		bic	r3, r2
 593 0106 1102     		lsl	r1, r2, #8
 594 0108 8B42     		cmp	r3, r1
 595 010a C2D1     		bne	.L18
 596              	.L26:
 214:.\main.c      **** 			result[w] = 0;
 597              		.loc 1 214 0
 598 010c 0023     		mov	r3, #0
 599 010e 4382     		strh	r3, [r0, #18]
 600 0110 BFE7     		b	.L18
 601              	.L28:
 602 0112 C046     		.align	2
 603              	.L27:
 604 0114 80011A40 		.word	1075446144
 605 0118 84011A40 		.word	1075446148
 606 011c 00000000 		.word	.LANCHOR0
 607 0120 88011A40 		.word	1075446152
 608 0124 8C011A40 		.word	1075446156
 609 0128 90011A40 		.word	1075446160
 610 012c 94011A40 		.word	1075446164
 611 0130 98011A40 		.word	1075446168
 612 0134 9C011A40 		.word	1075446172
 613              		.cfi_endproc
 614              	.LFE35:
 615              		.size	eoc_isr, .-eoc_isr
 616              		.section	.text.PB_ISR,"ax",%progbits
 617              		.align	2
 618              		.global	PB_ISR
 619              		.code	16
 620              		.thumb_func
 621              		.type	PB_ISR, %function
 622              	PB_ISR:
 623              	.LFB33:
  72:.\main.c      **** {
 624              		.loc 1 72 0
 625              		.cfi_startproc
  73:.\main.c      **** 	if(PB==0)
 626              		.loc 1 73 0
 627 0000 054B     		ldr	r3, .L33
  72:.\main.c      **** {
 628              		.loc 1 72 0
 629 0002 00B5     		push	{lr}
 630              	.LCFI4:
 631              		.cfi_def_cfa_offset 4
 632              		.cfi_offset 14, -4
  73:.\main.c      **** 	if(PB==0)
 633              		.loc 1 73 0
 634 0004 DA69     		ldr	r2, [r3, #28]
 635 0006 002A     		cmp	r2, #0
 636 0008 02D0     		beq	.L32
  79:.\main.c      **** 		PB=0;
 637              		.loc 1 79 0
 638 000a 0020     		mov	r0, #0
 639 000c D861     		str	r0, [r3, #28]
 640              	.L29:
  81:.\main.c      **** }
 641              		.loc 1 81 0
ARM GAS  C:\Users\Steve\AppData\Local\Temp\ccEPKYrT.s 			page 18


 642              		@ sp needed for prologue
 643 000e 00BD     		pop	{pc}
 644              	.L32:
  75:.\main.c      **** 		PB=1;
 645              		.loc 1 75 0
 646 0010 0121     		mov	r1, #1
 647 0012 D961     		str	r1, [r3, #28]
 648 0014 FBE7     		b	.L29
 649              	.L34:
 650 0016 C046     		.align	2
 651              	.L33:
 652 0018 00000000 		.word	.LANCHOR0
 653              		.cfi_endproc
 654              	.LFE33:
 655              		.size	PB_ISR, .-PB_ISR
 656              		.section	.text.startup.main,"ax",%progbits
 657              		.align	2
 658              		.global	main
 659              		.code	16
 660              		.thumb_func
 661              		.type	main, %function
 662              	main:
 663              	.LFB36:
 220:.\main.c      **** 
 221:.\main.c      **** /*******************************************************************************
 222:.\main.c      **** * Function Name: main
 223:.\main.c      **** ********************************************************************************
 224:.\main.c      **** *
 225:.\main.c      **** * Summary:
 226:.\main.c      **** *  Handles UART Comm and updates matrix buffer
 227:.\main.c      **** *
 228:.\main.c      **** * Parameters:  
 229:.\main.c      **** *   None
 230:.\main.c      **** *
 231:.\main.c      **** * Return:
 232:.\main.c      **** *   None
 233:.\main.c      **** *
 234:.\main.c      **** *******************************************************************************/
 235:.\main.c      **** 
 236:.\main.c      **** int main()
 237:.\main.c      **** {	
 664              		.loc 1 237 0
 665              		.cfi_startproc
 666              	.LVL0:
 667 0000 F0B5     		push	{r4, r5, r6, r7, lr}
 668              	.LCFI5:
 669              		.cfi_def_cfa_offset 20
 670              		.cfi_offset 4, -20
 671              		.cfi_offset 5, -16
 672              		.cfi_offset 6, -12
 673              		.cfi_offset 7, -8
 674              		.cfi_offset 14, -4
 675 0002 5646     		mov	r6, sl
 676 0004 4D46     		mov	r5, r9
 677 0006 4446     		mov	r4, r8
 678 0008 5F46     		mov	r7, fp
 679 000a F0B4     		push	{r4, r5, r6, r7}
ARM GAS  C:\Users\Steve\AppData\Local\Temp\ccEPKYrT.s 			page 19


 680              	.LCFI6:
 681              		.cfi_def_cfa_offset 36
 682              		.cfi_offset 8, -36
 683              		.cfi_offset 9, -32
 684              		.cfi_offset 10, -28
 685              		.cfi_offset 11, -24
 238:.\main.c      **** 	int i = 0;
 239:.\main.c      **** 	/* struct that can accomodate 8-bit RGB color */
 240:.\main.c      **** 	RGB white;
 241:.\main.c      **** 	white.r = 31;
 242:.\main.c      **** 	white.g = 31;
 243:.\main.c      **** 	white.b = 31;
 244:.\main.c      **** 	
 245:.\main.c      **** 	RGB lotsOfColors[8];
 246:.\main.c      **** 	lotsOfColors[0].r = 1;
 247:.\main.c      **** 	lotsOfColors[0].g = 0;
 248:.\main.c      **** 	lotsOfColors[0].b = 0;
 249:.\main.c      **** 	
 250:.\main.c      **** 	lotsOfColors[1].r = 1;
 251:.\main.c      **** 	lotsOfColors[1].g = 1;
 252:.\main.c      **** 	lotsOfColors[1].b = 0;
 253:.\main.c      **** 	
 254:.\main.c      **** 	lotsOfColors[2].r = 0;
 255:.\main.c      **** 	lotsOfColors[2].g = 0;
 256:.\main.c      **** 	lotsOfColors[2].b = 1;
 257:.\main.c      **** 	
 258:.\main.c      **** 	lotsOfColors[3].r = 0;
 259:.\main.c      **** 	lotsOfColors[3].g = 1;
 260:.\main.c      **** 	lotsOfColors[3].b = 1;
 261:.\main.c      **** 	
 262:.\main.c      **** 	lotsOfColors[4].r = 1;
 263:.\main.c      **** 	lotsOfColors[4].g = 0;
 264:.\main.c      **** 	lotsOfColors[4].b = 1;
 265:.\main.c      **** 	
 266:.\main.c      **** 	lotsOfColors[5].r = 1;
 267:.\main.c      **** 	lotsOfColors[5].g = 1;
 268:.\main.c      **** 	lotsOfColors[5].b = 1;
 269:.\main.c      **** 	
 270:.\main.c      **** 	lotsOfColors[6].r = 2;
 271:.\main.c      **** 	lotsOfColors[6].g = 1;
 272:.\main.c      **** 	lotsOfColors[6].b = 1;
 273:.\main.c      **** 	
 274:.\main.c      **** 	lotsOfColors[7].r = 2;
 275:.\main.c      **** 	lotsOfColors[7].g = 2;
 276:.\main.c      **** 	lotsOfColors[7].b = 0;
 277:.\main.c      **** 	
 278:.\main.c      **** 	clearScreen(matrix);
 686              		.loc 1 278 0
 687 000c 654C     		ldr	r4, .L42
 237:.\main.c      **** {	
 688              		.loc 1 237 0
 689 000e 87B0     		sub	sp, sp, #28
 690              	.LCFI7:
 691              		.cfi_def_cfa_offset 64
 246:.\main.c      **** 	lotsOfColors[0].r = 1;
 692              		.loc 1 246 0
 693 0010 6846     		mov	r0, sp
ARM GAS  C:\Users\Steve\AppData\Local\Temp\ccEPKYrT.s 			page 20


 694 0012 0123     		mov	r3, #1
 247:.\main.c      **** 	lotsOfColors[0].g = 0;
 695              		.loc 1 247 0
 696 0014 0022     		mov	r2, #0
 270:.\main.c      **** 	lotsOfColors[6].r = 2;
 697              		.loc 1 270 0
 698 0016 0221     		mov	r1, #2
 279:.\main.c      **** 	
 280:.\main.c      **** 	LED_Matrix_1_Start();
 281:.\main.c      **** 	
 282:.\main.c      **** 	LED_Matrix_1_WriteControl(0x03);
 699              		.loc 1 282 0
 700 0018 634E     		ldr	r6, .L42+4
 246:.\main.c      **** 	lotsOfColors[0].r = 1;
 701              		.loc 1 246 0
 702 001a 0370     		strb	r3, [r0]
 247:.\main.c      **** 	lotsOfColors[0].g = 0;
 703              		.loc 1 247 0
 704 001c 4270     		strb	r2, [r0, #1]
 248:.\main.c      **** 	lotsOfColors[0].b = 0;
 705              		.loc 1 248 0
 706 001e 8270     		strb	r2, [r0, #2]
 250:.\main.c      **** 	lotsOfColors[1].r = 1;
 707              		.loc 1 250 0
 708 0020 C370     		strb	r3, [r0, #3]
 251:.\main.c      **** 	lotsOfColors[1].g = 1;
 709              		.loc 1 251 0
 710 0022 0371     		strb	r3, [r0, #4]
 252:.\main.c      **** 	lotsOfColors[1].b = 0;
 711              		.loc 1 252 0
 712 0024 4271     		strb	r2, [r0, #5]
 254:.\main.c      **** 	lotsOfColors[2].r = 0;
 713              		.loc 1 254 0
 714 0026 8271     		strb	r2, [r0, #6]
 255:.\main.c      **** 	lotsOfColors[2].g = 0;
 715              		.loc 1 255 0
 716 0028 C271     		strb	r2, [r0, #7]
 256:.\main.c      **** 	lotsOfColors[2].b = 1;
 717              		.loc 1 256 0
 718 002a 0372     		strb	r3, [r0, #8]
 258:.\main.c      **** 	lotsOfColors[3].r = 0;
 719              		.loc 1 258 0
 720 002c 4272     		strb	r2, [r0, #9]
 259:.\main.c      **** 	lotsOfColors[3].g = 1;
 721              		.loc 1 259 0
 722 002e 8372     		strb	r3, [r0, #10]
 260:.\main.c      **** 	lotsOfColors[3].b = 1;
 723              		.loc 1 260 0
 724 0030 C372     		strb	r3, [r0, #11]
 262:.\main.c      **** 	lotsOfColors[4].r = 1;
 725              		.loc 1 262 0
 726 0032 0373     		strb	r3, [r0, #12]
 263:.\main.c      **** 	lotsOfColors[4].g = 0;
 727              		.loc 1 263 0
 728 0034 4273     		strb	r2, [r0, #13]
 264:.\main.c      **** 	lotsOfColors[4].b = 1;
 729              		.loc 1 264 0
ARM GAS  C:\Users\Steve\AppData\Local\Temp\ccEPKYrT.s 			page 21


 730 0036 8373     		strb	r3, [r0, #14]
 266:.\main.c      **** 	lotsOfColors[5].r = 1;
 731              		.loc 1 266 0
 732 0038 C373     		strb	r3, [r0, #15]
 267:.\main.c      **** 	lotsOfColors[5].g = 1;
 733              		.loc 1 267 0
 734 003a 0374     		strb	r3, [r0, #16]
 268:.\main.c      **** 	lotsOfColors[5].b = 1;
 735              		.loc 1 268 0
 736 003c 4374     		strb	r3, [r0, #17]
 270:.\main.c      **** 	lotsOfColors[6].r = 2;
 737              		.loc 1 270 0
 738 003e 8174     		strb	r1, [r0, #18]
 271:.\main.c      **** 	lotsOfColors[6].g = 1;
 739              		.loc 1 271 0
 740 0040 C374     		strb	r3, [r0, #19]
 272:.\main.c      **** 	lotsOfColors[6].b = 1;
 741              		.loc 1 272 0
 742 0042 0375     		strb	r3, [r0, #20]
 274:.\main.c      **** 	lotsOfColors[7].r = 2;
 743              		.loc 1 274 0
 744 0044 4175     		strb	r1, [r0, #21]
 275:.\main.c      **** 	lotsOfColors[7].g = 2;
 745              		.loc 1 275 0
 746 0046 8175     		strb	r1, [r0, #22]
 276:.\main.c      **** 	lotsOfColors[7].b = 0;
 747              		.loc 1 276 0
 748 0048 C275     		strb	r2, [r0, #23]
 749              		.loc 1 282 0
 750 004a 0325     		mov	r5, #3
 278:.\main.c      **** 	clearScreen(matrix);
 751              		.loc 1 278 0
 752 004c 201C     		mov	r0, r4
 753 004e FFF7FEFF 		bl	clearScreen
 754              	.LVL1:
 280:.\main.c      **** 	LED_Matrix_1_Start();
 755              		.loc 1 280 0
 756 0052 FFF7FEFF 		bl	LED_Matrix_1_Start
 757              	.LVL2:
 283:.\main.c      **** 
 284:.\main.c      **** 	isr_2_StartEx(FIFO_EMPTY);
 758              		.loc 1 284 0
 759 0056 5548     		ldr	r0, .L42+8
 282:.\main.c      **** 	LED_Matrix_1_WriteControl(0x03);
 760              		.loc 1 282 0
 761 0058 3570     		strb	r5, [r6]
 762              		.loc 1 284 0
 763 005a FFF7FEFF 		bl	isr_2_StartEx
 764              	.LVL3:
 285:.\main.c      **** 	ADC_Start();
 765              		.loc 1 285 0
 766 005e FFF7FEFF 		bl	ADC_Start
 767              	.LVL4:
 286:.\main.c      **** 	ADC_StartConvert();
 768              		.loc 1 286 0
 769 0062 FFF7FEFF 		bl	ADC_StartConvert
 770              	.LVL5:
ARM GAS  C:\Users\Steve\AppData\Local\Temp\ccEPKYrT.s 			page 22


 287:.\main.c      **** 	eoc_StartEx(eoc_isr);
 771              		.loc 1 287 0
 772 0066 5248     		ldr	r0, .L42+12
 773 0068 FFF7FEFF 		bl	eoc_StartEx
 774              	.LVL6:
 278:.\main.c      **** 	clearScreen(matrix);
 775              		.loc 1 278 0
 776 006c A046     		mov	r8, r4
 288:.\main.c      **** 	
 289:.\main.c      **** 	
 290:.\main.c      **** 	CyGlobalIntEnable;
 777              		.loc 1 290 0
 778              	@ 290 ".\main.c" 1
 779 006e 62B6     		CPSIE   i
 780              	@ 0 "" 2
 781              	.LVL7:
 782              		.code	16
 783 0070 504E     		ldr	r6, .L42+16
 291:.\main.c      **** 	int dataChange = 0;
 292:.\main.c      **** 	int dataDecrease = 0;
 293:.\main.c      **** 	for(;;)
 294:.\main.c      ****     { 	
 295:.\main.c      **** 		CyDelay(1);
 296:.\main.c      **** 		
 297:.\main.c      **** 		if(dataReady == 1)
 298:.\main.c      **** 		{
 299:.\main.c      **** 			dataChange = ifDataChange(&oldResult[0],&result[0]);
 300:.\main.c      **** 			dataReady = 0;
 784              		.loc 1 300 0
 785 0072 0024     		mov	r4, #0
 299:.\main.c      **** 			dataChange = ifDataChange(&oldResult[0],&result[0]);
 786              		.loc 1 299 0
 787 0074 371C     		mov	r7, r6
 788 0076 2037     		add	r7, r7, #32
 789 0078 351D     		add	r5, r6, #4
 790              	.LVL8:
 791              	.L41:
 295:.\main.c      **** 		CyDelay(1);
 792              		.loc 1 295 0
 793 007a 0120     		mov	r0, #1
 794 007c FFF7FEFF 		bl	CyDelay
 795              	.LVL9:
 297:.\main.c      **** 		if(dataReady == 1)
 796              		.loc 1 297 0
 797 0080 337E     		ldrb	r3, [r6, #24]
 798 0082 012B     		cmp	r3, #1
 799 0084 F9D1     		bne	.L41
 299:.\main.c      **** 			dataChange = ifDataChange(&oldResult[0],&result[0]);
 800              		.loc 1 299 0
 801 0086 381C     		mov	r0, r7
 802 0088 291C     		mov	r1, r5
 803 008a FFF7FEFF 		bl	ifDataChange
 804              	.LVL10:
 805              		.loc 1 300 0
 806 008e 3476     		strb	r4, [r6, #24]
 301:.\main.c      **** 			if(dataChange == 1)
 807              		.loc 1 301 0
ARM GAS  C:\Users\Steve\AppData\Local\Temp\ccEPKYrT.s 			page 23


 808 0090 0128     		cmp	r0, #1
 809 0092 F2D1     		bne	.L41
 302:.\main.c      **** 			{
 303:.\main.c      **** 				for(i=0;i<8;i++)
 304:.\main.c      **** 				{
 305:.\main.c      **** 					oldResult[i] = ((uint8)(result[i]>>7)) & 0x0F;
 810              		.loc 1 305 0
 811 0094 B088     		ldrh	r0, [r6, #4]
 812              	.LVL11:
 813 0096 0F23     		mov	r3, #15
 814 0098 C109     		lsr	r1, r0, #7
 815 009a 1940     		and	r1, r3
 816 009c 2022     		mov	r2, #32
 817 009e B154     		strb	r1, [r6, r2]
 818              	.LVL12:
 819 00a0 F088     		ldrh	r0, [r6, #6]
 820 00a2 C209     		lsr	r2, r0, #7
 821 00a4 1A40     		and	r2, r3
 822 00a6 2120     		mov	r0, #33
 823 00a8 3254     		strb	r2, [r6, r0]
 824              	.LVL13:
 825 00aa 3289     		ldrh	r2, [r6, #8]
 826 00ac 8346     		mov	fp, r0
 827 00ae D209     		lsr	r2, r2, #7
 828 00b0 1A40     		and	r2, r3
 829 00b2 2220     		mov	r0, #34
 830 00b4 3254     		strb	r2, [r6, r0]
 831              	.LVL14:
 832 00b6 7289     		ldrh	r2, [r6, #10]
 833 00b8 8246     		mov	sl, r0
 834 00ba D209     		lsr	r2, r2, #7
 835 00bc 1A40     		and	r2, r3
 836 00be 2320     		mov	r0, #35
 837 00c0 3254     		strb	r2, [r6, r0]
 838              	.LVL15:
 839 00c2 B289     		ldrh	r2, [r6, #12]
 840 00c4 8146     		mov	r9, r0
 841 00c6 D209     		lsr	r2, r2, #7
 842 00c8 1A40     		and	r2, r3
 843 00ca 2420     		mov	r0, #36
 844 00cc 3254     		strb	r2, [r6, r0]
 845              	.LVL16:
 846 00ce F289     		ldrh	r2, [r6, #14]
 847 00d0 2520     		mov	r0, #37
 848 00d2 D209     		lsr	r2, r2, #7
 849 00d4 1A40     		and	r2, r3
 850 00d6 3254     		strb	r2, [r6, r0]
 851              	.LVL17:
 852 00d8 328A     		ldrh	r2, [r6, #16]
 853 00da 2620     		mov	r0, #38
 854 00dc D209     		lsr	r2, r2, #7
 855 00de 1A40     		and	r2, r3
 856 00e0 3254     		strb	r2, [r6, r0]
 857              	.LVL18:
 858 00e2 728A     		ldrh	r2, [r6, #18]
 859 00e4 D009     		lsr	r0, r2, #7
 860 00e6 0340     		and	r3, r0
ARM GAS  C:\Users\Steve\AppData\Local\Temp\ccEPKYrT.s 			page 24


 861 00e8 2722     		mov	r2, #39
 862 00ea B354     		strb	r3, [r6, r2]
 863              	.LVL19:
 306:.\main.c      **** 				}
 307:.\main.c      **** 				for(i=0;i<8;i++)
 308:.\main.c      **** 				{
 309:.\main.c      **** 					drawblock(i,oldResult[i],lotsOfColors[i],matrix);
 864              		.loc 1 309 0
 865 00ec 0020     		mov	r0, #0
 866 00ee 009A     		ldr	r2, [sp]
 867 00f0 4346     		mov	r3, r8
 868 00f2 FFF7FEFF 		bl	drawblock
 869              	.LVL20:
 870 00f6 6846     		mov	r0, sp
 871 00f8 0279     		ldrb	r2, [r0, #4]
 872 00fa C378     		ldrb	r3, [r0, #3]
 873 00fc 4079     		ldrb	r0, [r0, #5]
 874 00fe 1202     		lsl	r2, r2, #8
 875 0100 5946     		mov	r1, fp
 876 0102 1A43     		orr	r2, r3
 877 0104 0304     		lsl	r3, r0, #16
 878 0106 7156     		ldrsb	r1, [r6, r1]
 879 0108 1A43     		orr	r2, r3
 880 010a 0120     		mov	r0, #1
 881 010c 4346     		mov	r3, r8
 882 010e FFF7FEFF 		bl	drawblock
 883              	.LVL21:
 884 0112 6A46     		mov	r2, sp
 885 0114 137A     		ldrb	r3, [r2, #8]
 886 0116 D088     		ldrh	r0, [r2, #6]
 887 0118 5146     		mov	r1, sl
 888 011a 1A04     		lsl	r2, r3, #16
 889 011c 7156     		ldrsb	r1, [r6, r1]
 890 011e 0243     		orr	r2, r0
 891 0120 4346     		mov	r3, r8
 892 0122 0220     		mov	r0, #2
 893 0124 FFF7FEFF 		bl	drawblock
 894              	.LVL22:
 895 0128 6846     		mov	r0, sp
 896 012a 827A     		ldrb	r2, [r0, #10]
 897 012c 437A     		ldrb	r3, [r0, #9]
 898 012e C07A     		ldrb	r0, [r0, #11]
 899 0130 1202     		lsl	r2, r2, #8
 900 0132 4946     		mov	r1, r9
 901 0134 1A43     		orr	r2, r3
 902 0136 0304     		lsl	r3, r0, #16
 903 0138 7156     		ldrsb	r1, [r6, r1]
 904 013a 1A43     		orr	r2, r3
 905 013c 0320     		mov	r0, #3
 906 013e 4346     		mov	r3, r8
 907 0140 FFF7FEFF 		bl	drawblock
 908              	.LVL23:
 909 0144 2421     		mov	r1, #36
 910 0146 7156     		ldrsb	r1, [r6, r1]
 911 0148 039A     		ldr	r2, [sp, #12]
 912 014a 4346     		mov	r3, r8
 913 014c 0420     		mov	r0, #4
ARM GAS  C:\Users\Steve\AppData\Local\Temp\ccEPKYrT.s 			page 25


 914 014e FFF7FEFF 		bl	drawblock
 915              	.LVL24:
 916 0152 6846     		mov	r0, sp
 917 0154 2522     		mov	r2, #37
 918 0156 B156     		ldrsb	r1, [r6, r2]
 919 0158 027C     		ldrb	r2, [r0, #16]
 920 015a C37B     		ldrb	r3, [r0, #15]
 921 015c 407C     		ldrb	r0, [r0, #17]
 922 015e 1202     		lsl	r2, r2, #8
 923 0160 1A43     		orr	r2, r3
 924 0162 0304     		lsl	r3, r0, #16
 925 0164 1A43     		orr	r2, r3
 926 0166 0520     		mov	r0, #5
 927 0168 4346     		mov	r3, r8
 928 016a FFF7FEFF 		bl	drawblock
 929              	.LVL25:
 930 016e 6A46     		mov	r2, sp
 931 0170 137D     		ldrb	r3, [r2, #20]
 932 0172 508A     		ldrh	r0, [r2, #18]
 933 0174 2621     		mov	r1, #38
 934 0176 1A04     		lsl	r2, r3, #16
 935 0178 7156     		ldrsb	r1, [r6, r1]
 936 017a 0243     		orr	r2, r0
 937 017c 4346     		mov	r3, r8
 938 017e 0620     		mov	r0, #6
 939 0180 FFF7FEFF 		bl	drawblock
 940              	.LVL26:
 941 0184 6846     		mov	r0, sp
 942 0186 827D     		ldrb	r2, [r0, #22]
 943 0188 437D     		ldrb	r3, [r0, #21]
 944 018a C07D     		ldrb	r0, [r0, #23]
 945 018c 1202     		lsl	r2, r2, #8
 946 018e 1A43     		orr	r2, r3
 947 0190 2721     		mov	r1, #39
 948 0192 0304     		lsl	r3, r0, #16
 949 0194 1A43     		orr	r2, r3
 950 0196 7156     		ldrsb	r1, [r6, r1]
 951 0198 0720     		mov	r0, #7
 952 019a 4346     		mov	r3, r8
 953 019c FFF7FEFF 		bl	drawblock
 954              	.LVL27:
 955 01a0 6BE7     		b	.L41
 956              	.L43:
 957 01a2 C046     		.align	2
 958              	.L42:
 959 01a4 00000000 		.word	matrix
 960 01a8 71000F40 		.word	1074724977
 961 01ac 00000000 		.word	FIFO_EMPTY
 962 01b0 00000000 		.word	eoc_isr
 963 01b4 00000000 		.word	.LANCHOR0
 964              		.cfi_endproc
 965              	.LFE36:
 966              		.size	main, .-main
 967              		.global	refresh
 968              		.global	w
 969              		.global	oldResult
 970              		.global	result
ARM GAS  C:\Users\Steve\AppData\Local\Temp\ccEPKYrT.s 			page 26


 971              		.global	dataReady
 972              		.global	PB
 973              		.global	height
 974              		.comm	matrix,960,4
 975              		.comm	bit_shift,1,1
 976              		.global	pwm_count
 977              		.global	j
 978              		.data
 979              		.align	2
 980              		.type	height, %object
 981              		.size	height, 8
 982              	height:
 983 0000 00       		.byte	0
 984 0001 02       		.byte	2
 985 0002 04       		.byte	4
 986 0003 06       		.byte	6
 987 0004 08       		.byte	8
 988 0005 0A       		.byte	10
 989 0006 0C       		.byte	12
 990 0007 0E       		.byte	14
 991              		.bss
 992              		.align	2
 993              		.set	.LANCHOR0,. + 0
 994              		.type	pwm_count, %object
 995              		.size	pwm_count, 1
 996              	pwm_count:
 997 0000 00       		.space	1
 998              		.type	j, %object
 999              		.size	j, 1
 1000              	j:
 1001 0001 00       		.space	1
 1002 0002 0000     		.space	2
 1003              		.type	result, %object
 1004              		.size	result, 16
 1005              	result:
 1006 0004 00000000 		.space	16
 1006      00000000 
 1006      00000000 
 1006      00000000 
 1007              		.type	w, %object
 1008              		.size	w, 4
 1009              	w:
 1010 0014 00000000 		.space	4
 1011              		.type	dataReady, %object
 1012              		.size	dataReady, 1
 1013              	dataReady:
 1014 0018 00       		.space	1
 1015 0019 000000   		.space	3
 1016              		.type	PB, %object
 1017              		.size	PB, 4
 1018              	PB:
 1019 001c 00000000 		.space	4
 1020              		.type	oldResult, %object
 1021              		.size	oldResult, 8
 1022              	oldResult:
 1023 0020 00000000 		.space	8
 1023      00000000 
ARM GAS  C:\Users\Steve\AppData\Local\Temp\ccEPKYrT.s 			page 27


 1024              		.type	refresh, %object
 1025              		.size	refresh, 4
 1026              	refresh:
 1027 0028 00000000 		.space	4
 1028              		.text
 1029              	.Letext0:
 1030              		.file 2 "./Generated_Source/PSoC4/cytypes.h"
 1031              		.file 3 "./LED_Matrix.h"
 1032              		.file 4 "./Generated_Source/PSoC4/isr_2.h"
 1033              		.file 5 "./Generated_Source/PSoC4/ADC.h"
 1034              		.file 6 "./Generated_Source/PSoC4/eoc.h"
 1035              		.file 7 "./Generated_Source/PSoC4/CyLib.h"
 1036              		.file 8 "./Generated_Source/PSoC4/LED_Matrix_1.h"