ARM GAS  C:\Users\Steve\AppData\Local\Temp\cc3MKthr.s 			page 1


   1              		.cpu cortex-m0
   2              		.fpu softvfp
   3              		.eabi_attribute 20, 1
   4              		.eabi_attribute 21, 1
   5              		.eabi_attribute 23, 3
   6              		.eabi_attribute 24, 1
   7              		.eabi_attribute 25, 1
   8              		.eabi_attribute 26, 1
   9              		.eabi_attribute 30, 2
  10              		.eabi_attribute 34, 0
  11              		.eabi_attribute 18, 4
  12              		.code	16
  13              		.file	"main.c"
  14              		.text
  15              	.Ltext0:
  16              		.cfi_sections	.debug_frame
  17              		.section	.text.FIFO_EMPTY,"ax",%progbits
  18              		.align	2
  19              		.global	FIFO_EMPTY
  20              		.code	16
  21              		.thumb_func
  22              		.type	FIFO_EMPTY, %function
  23              	FIFO_EMPTY:
  24              	.LFB34:
  25              		.file 1 ".\\main.c"
   1:.\main.c      **** /* ========================================
   2:.\main.c      ****  *
   3:.\main.c      ****  * The following firmware was developed by Cypress Semiconductor
   4:.\main.c      ****  * This work is licensed under a Creative Commons Attribution 3.0 Unported License.
   5:.\main.c      ****  * 
   6:.\main.c      ****  * http://creativecommons.org/licenses/by/3.0/deed.en_US
   7:.\main.c      ****  * 
   8:.\main.c      ****  * You are free to:
   9:.\main.c      ****  * -To Share — to copy, distribute and transmit the work 
  10:.\main.c      ****  * -To Remix — to adapt the work 
  11:.\main.c      ****  * -To make commercial use of the work
  12:.\main.c      ****  *
  13:.\main.c      ****  * ======================================== 
  14:.\main.c      ****  */
  15:.\main.c      ****  
  16:.\main.c      **** /*******************************************************************************
  17:.\main.c      ****  * Pioneer Kit 16x32 RGB LED Matrix Example Project
  18:.\main.c      ****  ********************************************************************************
  19:.\main.c      ****  * This project Displays 5-bit color image at a refresh rate of 360 Hz
  20:.\main.c      ****  * It uses 75% of the UDB datapaths and 50% of the PLDs
  21:.\main.c      ****  * The matrix is constructed as 2 planes of 8 rows each. (R1, G1, B1) write to the first plane
  22:.\main.c      ****  * (R2, G2, B2) are for the second plane. Rows are selected using (A, B, C). Columns are
  23:.\main.c      ****  * written by clocking out 32 (R, G, B) values.
  24:.\main.c      ****  * LAT and OE are active low: i.e. data is latched and output is enabled on logic 0
  25:.\main.c      ****  *
  26:.\main.c      ****  * Expanding the project to 8-bit color is simple - just needs a little more code! This is 
  27:.\main.c      ****  * left to the user to implement. Also TO DO: gamma correction
  28:.\main.c      ****  * 
  29:.\main.c      ****  * To buy or see a tutorial on the RGB LED Matrix, go here: http://www.adafruit.com/products/420
  30:.\main.c      ****  * For more details on the panel itself, see one of the links below
  31:.\main.c      ****  *
  32:.\main.c      ****  * Credit to the following sites/authors:
ARM GAS  C:\Users\Steve\AppData\Local\Temp\cc3MKthr.s 			page 2


  33:.\main.c      ****  * Reference: Adafruit tutorial and code https://github.com/adafruit/RGB-matrix-Panel
  34:.\main.c      ****  * Ghosting: http://www.rayslogic.com/propeller/Programming/AdafruitRGB/AdafruitRGB.htm 
  35:.\main.c      ****  * Technical: http://www.hobbypcb.com/blog/item/3-16x32-rgb-led-matrix-technical-details.html
  36:.\main.c      ****  * Favicon idea: http://rhb.me/2012/05/led-matrix-bringup/
  37:.\main.c      ****  **************************************************************************************** */
  38:.\main.c      **** 
  39:.\main.c      **** #include <device.h>
  40:.\main.c      **** #include <LED_Matrix.h>
  41:.\main.c      **** #include "I2CDriver.h"
  42:.\main.c      **** 
  43:.\main.c      **** /* j is the row counter (0-7), pwm_count is used for Binary Coded Modulation */
  44:.\main.c      **** uint8 j = 0, pwm_count = 0;
  45:.\main.c      **** /* Tells which bit of color is currently being written */
  46:.\main.c      **** uint8 bit_shift;
  47:.\main.c      **** /* stores the currently displayed image in 5-bit color */
  48:.\main.c      **** color matrix[16*4];
  49:.\main.c      **** 
  50:.\main.c      **** int8 height[]={0,2,4,6,8,10,12,14};
  51:.\main.c      **** 
  52:.\main.c      **** /*******************************************************************************
  53:.\main.c      **** * Function Name: isr_2
  54:.\main.c      **** ********************************************************************************
  55:.\main.c      **** *
  56:.\main.c      **** * Summary:
  57:.\main.c      **** *  ISR that does most of the heavy lifting: 
  58:.\main.c      **** *  - BCM for 5-bit color
  59:.\main.c      **** *  - Writes image in matrix[] to the FIFOs in the LED_Matrix Component
  60:.\main.c      **** *  - Takes about 9.80uS @ 48MHz, the Component then takes ~2.3 uS to shift out data
  61:.\main.c      **** *
  62:.\main.c      **** *
  63:.\main.c      **** * Parameters:  
  64:.\main.c      **** *   None
  65:.\main.c      **** *
  66:.\main.c      **** * Return:
  67:.\main.c      **** *   None
  68:.\main.c      **** *
  69:.\main.c      **** *******************************************************************************/
  70:.\main.c      **** int PB = 0; 
  71:.\main.c      **** CY_ISR(PB_ISR)
  72:.\main.c      **** {
  73:.\main.c      **** 	if(PB==0)
  74:.\main.c      **** 	{
  75:.\main.c      **** 		PB=1;
  76:.\main.c      **** 	}
  77:.\main.c      **** 	else
  78:.\main.c      **** 	{
  79:.\main.c      **** 		PB=0;
  80:.\main.c      **** 	}
  81:.\main.c      **** }
  82:.\main.c      **** 
  83:.\main.c      **** CY_ISR(FIFO_EMPTY)
  84:.\main.c      **** {
  26              		.loc 1 84 0
  27              		.cfi_startproc
  28 0000 F0B5     		push	{r4, r5, r6, r7, lr}
  29              	.LCFI0:
  30              		.cfi_def_cfa_offset 20
ARM GAS  C:\Users\Steve\AppData\Local\Temp\cc3MKthr.s 			page 3


  31              		.cfi_offset 4, -20
  32              		.cfi_offset 5, -16
  33              		.cfi_offset 6, -12
  34              		.cfi_offset 7, -8
  35              		.cfi_offset 14, -4
  36 0002 5F46     		mov	r7, fp
  37 0004 4D46     		mov	r5, r9
  38 0006 4446     		mov	r4, r8
  39 0008 5646     		mov	r6, sl
  40 000a F0B4     		push	{r4, r5, r6, r7}
  41              	.LCFI1:
  42              		.cfi_def_cfa_offset 36
  43              		.cfi_offset 8, -36
  44              		.cfi_offset 9, -32
  45              		.cfi_offset 10, -28
  46              		.cfi_offset 11, -24
  85:.\main.c      **** 	/* Clear pending interrupts */
  86:.\main.c      **** 	*isr_2_INTC_CLR_PD = isr_2__INTC_MASK;
  47              		.loc 1 86 0
  48 000c 674B     		ldr	r3, .L8
  87:.\main.c      **** 	
  88:.\main.c      **** 	/* Setting the latch passes the value through the LED driver
  89:.\main.c      **** 	 * Clearing the latch then latches this value
  90:.\main.c      **** 	 * See: http://www.bjtopspace.com/ziliao/CYT62726.pdf
  91:.\main.c      **** 	 */
  92:.\main.c      **** //	Set_LAT;				/* Note that this is done in hardware, and these 2 lines have no effect since CR_Add
  93:.\main.c      **** //	Clear_LAT;
  94:.\main.c      **** 
  95:.\main.c      **** 	/* Enable Outputs - OE is control[1], and is active low. 
  96:.\main.c      **** 	 * control[0] is 'enable', so leave it at 1 
  97:.\main.c      **** 	 */ 
  98:.\main.c      **** 	LED_Matrix_1_WriteControl(0x01);
  49              		.loc 1 98 0
  50 000e 6849     		ldr	r1, .L8+4
  99:.\main.c      **** 	
 100:.\main.c      **** 	pwm_count++;
  51              		.loc 1 100 0
  52 0010 684D     		ldr	r5, .L8+8
  86:.\main.c      **** 	*isr_2_INTC_CLR_PD = isr_2__INTC_MASK;
  53              		.loc 1 86 0
  54 0012 0822     		mov	r2, #8
  98:.\main.c      **** 	LED_Matrix_1_WriteControl(0x01);
  55              		.loc 1 98 0
  56 0014 0120     		mov	r0, #1
  86:.\main.c      **** 	*isr_2_INTC_CLR_PD = isr_2__INTC_MASK;
  57              		.loc 1 86 0
  58 0016 1A60     		str	r2, [r3]
  98:.\main.c      **** 	LED_Matrix_1_WriteControl(0x01);
  59              		.loc 1 98 0
  60 0018 0870     		strb	r0, [r1]
  61              		.loc 1 100 0
  62 001a 2C78     		ldrb	r4, [r5]
  84:.\main.c      **** {
  63              		.loc 1 84 0
  64 001c 87B0     		sub	sp, sp, #28
  65              	.LCFI2:
  66              		.cfi_def_cfa_offset 64
ARM GAS  C:\Users\Steve\AppData\Local\Temp\cc3MKthr.s 			page 4


  67              		.loc 1 100 0
  68 001e 0134     		add	r4, r4, #1
  69 0020 E7B2     		uxtb	r7, r4
  70 0022 2F70     		strb	r7, [r5]
 101:.\main.c      **** 
 102:.\main.c      **** 	/* Binary coded modulation. Read more here: http://www.batsocks.co.uk/readme/art_bcm_1.htm  */
 103:.\main.c      **** 	/*if(pwm_count == 31)
 104:.\main.c      **** 	{
 105:.\main.c      **** 		bit_shift = 0;
 106:.\main.c      **** 		pwm_count = 0;
 107:.\main.c      **** 		j++;
 108:.\main.c      **** 		
 109:.\main.c      **** 		if(j == 8)
 110:.\main.c      **** 		{
 111:.\main.c      **** 			j = 0;
 112:.\main.c      **** 		}
 113:.\main.c      **** 	}*/
 114:.\main.c      **** 	if(pwm_count == 1)
  71              		.loc 1 114 0
  72 0024 012F     		cmp	r7, #1
  73 0026 00D1     		bne	.LCB38
  74 0028 B9E0     		b	.L7	@long jump
  75              	.LCB38:
 115:.\main.c      **** 	{
 116:.\main.c      **** 		bit_shift = 1;
 117:.\main.c      **** 	}
 118:.\main.c      **** 	else if(pwm_count == 3)
  76              		.loc 1 118 0
  77 002a 032F     		cmp	r7, #3
  78 002c 00D1     		bne	.LCB40
  79 002e A5E0     		b	.L4	@long jump
  80              	.LCB40:
  81 0030 614A     		ldr	r2, .L8+12
  82 0032 6E78     		ldrb	r6, [r5, #1]
  83 0034 1478     		ldrb	r4, [r2]
  84 0036 B700     		lsl	r7, r6, #2
  85              	.L3:
 119:.\main.c      **** 	{
 120:.\main.c      **** 		bit_shift = 0;
 121:.\main.c      **** 		pwm_count = 0;
 122:.\main.c      **** 		j++;
 123:.\main.c      **** 		
 124:.\main.c      **** 		if(j == 8)
 125:.\main.c      **** 		{
 126:.\main.c      **** 			j = 0;
 127:.\main.c      **** 		}
 128:.\main.c      **** 	}
 129:.\main.c      **** 	/*else if(pwm_count == 7)
 130:.\main.c      **** 	{
 131:.\main.c      **** 		bit_shift = 3;
 132:.\main.c      **** 	}
 133:.\main.c      **** 	else if(pwm_count == 15)
 134:.\main.c      **** 	{
 135:.\main.c      **** 		bit_shift = 4;
 136:.\main.c      **** 	}*/
 137:.\main.c      **** 
 138:.\main.c      **** 	/* Write the values to the FIFOs. Note that the data is not written to the matrix until all the FI
ARM GAS  C:\Users\Steve\AppData\Local\Temp\cc3MKthr.s 			page 5


 139:.\main.c      **** 	
 140:.\main.c      **** 	/****************************** Visually mapping out the matrix **********************
 141:.\main.c      **** 	*	A row in Plane1:		0th byte		1st byte		2nd byte		3rd byte
 142:.\main.c      **** 	* 	F0_REG_0 	R1	 	x-x-x-x-x-x-x-x x-x-x-x-x-x-x-x x-x-x-x-x-x-x-x x-x-x-x-x-x-x-x 
 143:.\main.c      **** 	*	F0_REG_1	G1			.												.
 144:.\main.c      **** 	*	F0_REG_2	B1			.												.
 145:.\main.c      **** 	*							.												.
 146:.\main.c      **** 	*	A row in Plane2:		.												.
 147:.\main.c      **** 	*	F1_REG_0 	R2	 	x-x-x-x-x-x-x-x x-x-x-x-x-x-x-x x-x-x-x-x-x-x-x x-x-x-x-x-x-x-x 
 148:.\main.c      **** 	*	F1_REG_1	G2			.												.
 149:.\main.c      **** 	*	F1_REG_2	B2			.												.
 150:.\main.c      **** 	*
 151:.\main.c      **** 	* Note: The 8 rows are selected by (A, B, C)
 152:.\main.c      **** 	*************************************************************************************/
 153:.\main.c      **** 	
 154:.\main.c      **** 	/* These four lines write to the first plane */
 155:.\main.c      **** 	LED_Matrix_1_F0_REG_0 = (uint8)matrix[0 + j*4].r[bit_shift];
  86              		.loc 1 155 0
  87 0038 3801     		lsl	r0, r7, #4
  88 003a 604B     		ldr	r3, .L8+16
  89 003c C11B     		sub	r1, r0, r7
  90 003e 0C19     		add	r4, r1, r4
  91 0040 E75C     		ldrb	r7, [r4, r3]
  92 0042 5F4C     		ldr	r4, .L8+20
  93 0044 2770     		strb	r7, [r4]
 156:.\main.c      **** 	LED_Matrix_1_F0_REG_0 = (uint8)matrix[1 + j*4].r[bit_shift];
  94              		.loc 1 156 0
  95 0046 6978     		ldrb	r1, [r5, #1]
  96 0048 1278     		ldrb	r2, [r2]
  97 004a 8800     		lsl	r0, r1, #2
  98 004c 451C     		add	r5, r0, #1
  99 004e 2E01     		lsl	r6, r5, #4
 100 0050 771B     		sub	r7, r6, r5
 101 0052 B946     		mov	r9, r7
 102 0054 BF18     		add	r7, r7, r2
 103 0056 FD5C     		ldrb	r5, [r7, r3]
 157:.\main.c      **** 	LED_Matrix_1_F0_REG_0 = (uint8)matrix[2 + j*4].r[bit_shift];
 158:.\main.c      **** 	LED_Matrix_1_F0_REG_0 = (uint8)matrix[3 + j*4].r[bit_shift];
 104              		.loc 1 158 0
 105 0058 9346     		mov	fp, r2
 156:.\main.c      **** 	LED_Matrix_1_F0_REG_0 = (uint8)matrix[1 + j*4].r[bit_shift];
 106              		.loc 1 156 0
 107 005a 2570     		strb	r5, [r4]
 157:.\main.c      **** 	LED_Matrix_1_F0_REG_0 = (uint8)matrix[2 + j*4].r[bit_shift];
 108              		.loc 1 157 0
 109 005c 851C     		add	r5, r0, #2
 110 005e 2E01     		lsl	r6, r5, #4
 111 0060 751B     		sub	r5, r6, r5
 112 0062 AE18     		add	r6, r5, r2
 113 0064 0296     		str	r6, [sp, #8]
 114 0066 A846     		mov	r8, r5
 115 0068 F55C     		ldrb	r5, [r6, r3]
 116              		.loc 1 158 0
 117 006a C61C     		add	r6, r0, #3
 157:.\main.c      **** 	LED_Matrix_1_F0_REG_0 = (uint8)matrix[2 + j*4].r[bit_shift];
 118              		.loc 1 157 0
 119 006c 2570     		strb	r5, [r4]
ARM GAS  C:\Users\Steve\AppData\Local\Temp\cc3MKthr.s 			page 6


 120              		.loc 1 158 0
 121 006e 3501     		lsl	r5, r6, #4
 122 0070 AD1B     		sub	r5, r5, r6
 123 0072 AC46     		mov	ip, r5
 124 0074 E344     		add	fp, fp, ip
 125 0076 5E46     		mov	r6, fp
 126 0078 F55C     		ldrb	r5, [r6, r3]
 159:.\main.c      **** 
 160:.\main.c      **** 	LED_Matrix_1_F0_REG_1 = (uint8)matrix[0 + j*4].g[bit_shift];
 161:.\main.c      **** 	LED_Matrix_1_F0_REG_1 = (uint8)matrix[1 + j*4].g[bit_shift];
 127              		.loc 1 161 0
 128 007a DF19     		add	r7, r3, r7
 158:.\main.c      **** 	LED_Matrix_1_F0_REG_0 = (uint8)matrix[3 + j*4].r[bit_shift];
 129              		.loc 1 158 0
 130 007c 2570     		strb	r5, [r4]
 160:.\main.c      **** 	LED_Matrix_1_F0_REG_1 = (uint8)matrix[0 + j*4].g[bit_shift];
 131              		.loc 1 160 0
 132 007e 8C01     		lsl	r4, r1, #6
 133 0080 201A     		sub	r0, r4, r0
 134 0082 8618     		add	r6, r0, r2
 135 0084 9D19     		add	r5, r3, r6
 136 0086 6C79     		ldrb	r4, [r5, #5]
 137 0088 8246     		mov	sl, r0
 138 008a 4E48     		ldr	r0, .L8+24
 162:.\main.c      **** 	LED_Matrix_1_F0_REG_1 = (uint8)matrix[2 + j*4].g[bit_shift];
 163:.\main.c      **** 	LED_Matrix_1_F0_REG_1 = (uint8)matrix[3 + j*4].g[bit_shift];
 164:.\main.c      **** 	
 165:.\main.c      **** 	/* These four lines write to the second plane */
 166:.\main.c      **** 	LED_Matrix_1_F1_REG_1 = (uint8)matrix[0 + (j+8)*4].g[bit_shift];
 167:.\main.c      **** 	LED_Matrix_1_F1_REG_1 = (uint8)matrix[1 + (j+8)*4].g[bit_shift];
 168:.\main.c      **** 	LED_Matrix_1_F1_REG_1 = (uint8)matrix[2 + (j+8)*4].g[bit_shift];
 169:.\main.c      **** 	LED_Matrix_1_F1_REG_1 = (uint8)matrix[3 + (j+8)*4].g[bit_shift];
 170:.\main.c      **** 	
 171:.\main.c      **** 	LED_Matrix_1_F0_REG_2 = (uint8)matrix[0 + j*4].b[bit_shift];
 172:.\main.c      **** 	LED_Matrix_1_F0_REG_2 = (uint8)matrix[1 + j*4].b[bit_shift];
 139              		.loc 1 172 0
 140 008c 9944     		add	r9, r9, r3
 160:.\main.c      **** 	LED_Matrix_1_F0_REG_1 = (uint8)matrix[0 + j*4].g[bit_shift];
 141              		.loc 1 160 0
 142 008e 0470     		strb	r4, [r0]
 161:.\main.c      **** 	LED_Matrix_1_F0_REG_1 = (uint8)matrix[1 + j*4].g[bit_shift];
 143              		.loc 1 161 0
 144 0090 7E79     		ldrb	r6, [r7, #5]
 145              		.loc 1 172 0
 146 0092 9144     		add	r9, r9, r2
 161:.\main.c      **** 	LED_Matrix_1_F0_REG_1 = (uint8)matrix[1 + j*4].g[bit_shift];
 147              		.loc 1 161 0
 148 0094 0670     		strb	r6, [r0]
 162:.\main.c      **** 	LED_Matrix_1_F0_REG_1 = (uint8)matrix[2 + j*4].g[bit_shift];
 149              		.loc 1 162 0
 150 0096 029D     		ldr	r5, [sp, #8]
 163:.\main.c      **** 	LED_Matrix_1_F0_REG_1 = (uint8)matrix[3 + j*4].g[bit_shift];
 151              		.loc 1 163 0
 152 0098 5E46     		mov	r6, fp
 162:.\main.c      **** 	LED_Matrix_1_F0_REG_1 = (uint8)matrix[2 + j*4].g[bit_shift];
 153              		.loc 1 162 0
 154 009a 5C19     		add	r4, r3, r5
ARM GAS  C:\Users\Steve\AppData\Local\Temp\cc3MKthr.s 			page 7


 155 009c 6779     		ldrb	r7, [r4, #5]
 163:.\main.c      **** 	LED_Matrix_1_F0_REG_1 = (uint8)matrix[3 + j*4].g[bit_shift];
 156              		.loc 1 163 0
 157 009e 9D19     		add	r5, r3, r6
 162:.\main.c      **** 	LED_Matrix_1_F0_REG_1 = (uint8)matrix[2 + j*4].g[bit_shift];
 158              		.loc 1 162 0
 159 00a0 0770     		strb	r7, [r0]
 163:.\main.c      **** 	LED_Matrix_1_F0_REG_1 = (uint8)matrix[3 + j*4].g[bit_shift];
 160              		.loc 1 163 0
 161 00a2 6C79     		ldrb	r4, [r5, #5]
 173:.\main.c      **** 	LED_Matrix_1_F0_REG_2 = (uint8)matrix[2 + j*4].b[bit_shift];
 162              		.loc 1 173 0
 163 00a4 9844     		add	r8, r8, r3
 163:.\main.c      **** 	LED_Matrix_1_F0_REG_1 = (uint8)matrix[3 + j*4].g[bit_shift];
 164              		.loc 1 163 0
 165 00a6 0470     		strb	r4, [r0]
 166:.\main.c      **** 	LED_Matrix_1_F1_REG_1 = (uint8)matrix[0 + (j+8)*4].g[bit_shift];
 166              		.loc 1 166 0
 167 00a8 081C     		mov	r0, r1
 168 00aa 0830     		add	r0, r0, #8
 169 00ac 8600     		lsl	r6, r0, #2
 170 00ae 8701     		lsl	r7, r0, #6
 171 00b0 BD1B     		sub	r5, r7, r6
 172 00b2 AC18     		add	r4, r5, r2
 173 00b4 0295     		str	r5, [sp, #8]
 174 00b6 0394     		str	r4, [sp, #12]
 175 00b8 1819     		add	r0, r3, r4
 176 00ba 4779     		ldrb	r7, [r0, #5]
 167:.\main.c      **** 	LED_Matrix_1_F1_REG_1 = (uint8)matrix[1 + (j+8)*4].g[bit_shift];
 177              		.loc 1 167 0
 178 00bc 741C     		add	r4, r6, #1
 166:.\main.c      **** 	LED_Matrix_1_F1_REG_1 = (uint8)matrix[0 + (j+8)*4].g[bit_shift];
 179              		.loc 1 166 0
 180 00be 4248     		ldr	r0, .L8+28
 167:.\main.c      **** 	LED_Matrix_1_F1_REG_1 = (uint8)matrix[1 + (j+8)*4].g[bit_shift];
 181              		.loc 1 167 0
 182 00c0 2501     		lsl	r5, r4, #4
 166:.\main.c      **** 	LED_Matrix_1_F1_REG_1 = (uint8)matrix[0 + (j+8)*4].g[bit_shift];
 183              		.loc 1 166 0
 184 00c2 0770     		strb	r7, [r0]
 167:.\main.c      **** 	LED_Matrix_1_F1_REG_1 = (uint8)matrix[1 + (j+8)*4].g[bit_shift];
 185              		.loc 1 167 0
 186 00c4 2F1B     		sub	r7, r5, r4
 187 00c6 BC18     		add	r4, r7, r2
 188 00c8 0594     		str	r4, [sp, #20]
 189 00ca 0497     		str	r7, [sp, #16]
 190 00cc 1D19     		add	r5, r3, r4
 191 00ce 6F79     		ldrb	r7, [r5, #5]
 168:.\main.c      **** 	LED_Matrix_1_F1_REG_1 = (uint8)matrix[2 + (j+8)*4].g[bit_shift];
 192              		.loc 1 168 0
 193 00d0 B41C     		add	r4, r6, #2
 194 00d2 2501     		lsl	r5, r4, #4
 167:.\main.c      **** 	LED_Matrix_1_F1_REG_1 = (uint8)matrix[1 + (j+8)*4].g[bit_shift];
 195              		.loc 1 167 0
 196 00d4 0770     		strb	r7, [r0]
 168:.\main.c      **** 	LED_Matrix_1_F1_REG_1 = (uint8)matrix[2 + (j+8)*4].g[bit_shift];
 197              		.loc 1 168 0
ARM GAS  C:\Users\Steve\AppData\Local\Temp\cc3MKthr.s 			page 8


 198 00d6 2F1B     		sub	r7, r5, r4
 199 00d8 BD18     		add	r5, r7, r2
 200 00da 0197     		str	r7, [sp, #4]
 201 00dc 5C19     		add	r4, r3, r5
 169:.\main.c      **** 	LED_Matrix_1_F1_REG_1 = (uint8)matrix[3 + (j+8)*4].g[bit_shift];
 202              		.loc 1 169 0
 203 00de 0336     		add	r6, r6, #3
 168:.\main.c      **** 	LED_Matrix_1_F1_REG_1 = (uint8)matrix[2 + (j+8)*4].g[bit_shift];
 204              		.loc 1 168 0
 205 00e0 6779     		ldrb	r7, [r4, #5]
 169:.\main.c      **** 	LED_Matrix_1_F1_REG_1 = (uint8)matrix[3 + (j+8)*4].g[bit_shift];
 206              		.loc 1 169 0
 207 00e2 3401     		lsl	r4, r6, #4
 208 00e4 A61B     		sub	r6, r4, r6
 209 00e6 B418     		add	r4, r6, r2
 168:.\main.c      **** 	LED_Matrix_1_F1_REG_1 = (uint8)matrix[2 + (j+8)*4].g[bit_shift];
 210              		.loc 1 168 0
 211 00e8 0770     		strb	r7, [r0]
 169:.\main.c      **** 	LED_Matrix_1_F1_REG_1 = (uint8)matrix[3 + (j+8)*4].g[bit_shift];
 212              		.loc 1 169 0
 213 00ea 1F19     		add	r7, r3, r4
 214 00ec 7F79     		ldrb	r7, [r7, #5]
 215              		.loc 1 173 0
 216 00ee 9044     		add	r8, r8, r2
 169:.\main.c      **** 	LED_Matrix_1_F1_REG_1 = (uint8)matrix[3 + (j+8)*4].g[bit_shift];
 217              		.loc 1 169 0
 218 00f0 0770     		strb	r7, [r0]
 171:.\main.c      **** 	LED_Matrix_1_F0_REG_2 = (uint8)matrix[0 + j*4].b[bit_shift];
 219              		.loc 1 171 0
 220 00f2 5046     		mov	r0, sl
 221 00f4 1F18     		add	r7, r3, r0
 222 00f6 B818     		add	r0, r7, r2
 223 00f8 877A     		ldrb	r7, [r0, #10]
 224 00fa 3448     		ldr	r0, .L8+32
 174:.\main.c      **** 	LED_Matrix_1_F0_REG_2 = (uint8)matrix[3 + j*4].b[bit_shift];
 225              		.loc 1 174 0
 226 00fc 9C44     		add	ip, ip, r3
 171:.\main.c      **** 	LED_Matrix_1_F0_REG_2 = (uint8)matrix[0 + j*4].b[bit_shift];
 227              		.loc 1 171 0
 228 00fe 0770     		strb	r7, [r0]
 172:.\main.c      **** 	LED_Matrix_1_F0_REG_2 = (uint8)matrix[1 + j*4].b[bit_shift];
 229              		.loc 1 172 0
 230 0100 4F46     		mov	r7, r9
 231 0102 BF7A     		ldrb	r7, [r7, #10]
 232              		.loc 1 174 0
 233 0104 9444     		add	ip, ip, r2
 172:.\main.c      **** 	LED_Matrix_1_F0_REG_2 = (uint8)matrix[1 + j*4].b[bit_shift];
 234              		.loc 1 172 0
 235 0106 0770     		strb	r7, [r0]
 173:.\main.c      **** 	LED_Matrix_1_F0_REG_2 = (uint8)matrix[2 + j*4].b[bit_shift];
 236              		.loc 1 173 0
 237 0108 4746     		mov	r7, r8
 238 010a BF7A     		ldrb	r7, [r7, #10]
 175:.\main.c      **** 
 176:.\main.c      **** 	LED_Matrix_1_F1_REG_2 = (uint8)matrix[0 + (j+8)*4].b[bit_shift];
 177:.\main.c      **** 	LED_Matrix_1_F1_REG_2 = (uint8)matrix[1 + (j+8)*4].b[bit_shift];
 178:.\main.c      **** 	LED_Matrix_1_F1_REG_2 = (uint8)matrix[2 + (j+8)*4].b[bit_shift];
ARM GAS  C:\Users\Steve\AppData\Local\Temp\cc3MKthr.s 			page 9


 179:.\main.c      **** 	LED_Matrix_1_F1_REG_2 = (uint8)matrix[3 + (j+8)*4].b[bit_shift];
 239              		.loc 1 179 0
 240 010c 9E19     		add	r6, r3, r6
 173:.\main.c      **** 	LED_Matrix_1_F0_REG_2 = (uint8)matrix[2 + j*4].b[bit_shift];
 241              		.loc 1 173 0
 242 010e 0770     		strb	r7, [r0]
 174:.\main.c      **** 	LED_Matrix_1_F0_REG_2 = (uint8)matrix[3 + j*4].b[bit_shift];
 243              		.loc 1 174 0
 244 0110 6746     		mov	r7, ip
 245 0112 BF7A     		ldrb	r7, [r7, #10]
 246 0114 0770     		strb	r7, [r0]
 176:.\main.c      **** 	LED_Matrix_1_F1_REG_2 = (uint8)matrix[0 + (j+8)*4].b[bit_shift];
 247              		.loc 1 176 0
 248 0116 0298     		ldr	r0, [sp, #8]
 249 0118 1F18     		add	r7, r3, r0
 250 011a B818     		add	r0, r7, r2
 251 011c 877A     		ldrb	r7, [r0, #10]
 252 011e 2C48     		ldr	r0, .L8+36
 253 0120 0770     		strb	r7, [r0]
 177:.\main.c      **** 	LED_Matrix_1_F1_REG_2 = (uint8)matrix[1 + (j+8)*4].b[bit_shift];
 254              		.loc 1 177 0
 255 0122 049F     		ldr	r7, [sp, #16]
 256 0124 FF18     		add	r7, r7, r3
 257 0126 B846     		mov	r8, r7
 258 0128 9044     		add	r8, r8, r2
 259 012a 4746     		mov	r7, r8
 260 012c BF7A     		ldrb	r7, [r7, #10]
 261 012e 0770     		strb	r7, [r0]
 178:.\main.c      **** 	LED_Matrix_1_F1_REG_2 = (uint8)matrix[2 + (j+8)*4].b[bit_shift];
 262              		.loc 1 178 0
 263 0130 019F     		ldr	r7, [sp, #4]
 264 0132 FF18     		add	r7, r7, r3
 265 0134 BC46     		mov	ip, r7
 266 0136 9444     		add	ip, ip, r2
 267 0138 6746     		mov	r7, ip
 268 013a BF7A     		ldrb	r7, [r7, #10]
 269              		.loc 1 179 0
 270 013c B218     		add	r2, r6, r2
 178:.\main.c      **** 	LED_Matrix_1_F1_REG_2 = (uint8)matrix[2 + (j+8)*4].b[bit_shift];
 271              		.loc 1 178 0
 272 013e 0770     		strb	r7, [r0]
 273              		.loc 1 179 0
 274 0140 977A     		ldrb	r7, [r2, #10]
 180:.\main.c      **** 	
 181:.\main.c      **** 	LED_Matrix_1_F1_REG_0 = (uint8)matrix[0 + (j+8)*4].r[bit_shift];
 275              		.loc 1 181 0
 276 0142 244A     		ldr	r2, .L8+40
 179:.\main.c      **** 	LED_Matrix_1_F1_REG_2 = (uint8)matrix[3 + (j+8)*4].b[bit_shift];
 277              		.loc 1 179 0
 278 0144 0770     		strb	r7, [r0]
 279              		.loc 1 181 0
 280 0146 0398     		ldr	r0, [sp, #12]
 281 0148 C65C     		ldrb	r6, [r0, r3]
 282 014a 1670     		strb	r6, [r2]
 182:.\main.c      **** 	LED_Matrix_1_F1_REG_0 = (uint8)matrix[1 + (j+8)*4].r[bit_shift];
 283              		.loc 1 182 0
 284 014c 059F     		ldr	r7, [sp, #20]
ARM GAS  C:\Users\Steve\AppData\Local\Temp\cc3MKthr.s 			page 10


 183:.\main.c      **** 	LED_Matrix_1_F1_REG_0 = (uint8)matrix[2 + (j+8)*4].r[bit_shift];
 184:.\main.c      **** 
 185:.\main.c      **** 	/* Disable outputs */
 186:.\main.c      **** 	LED_Matrix_1_WriteControl(0x03);
 285              		.loc 1 186 0
 286 014e 0326     		mov	r6, #3
 182:.\main.c      **** 	LED_Matrix_1_F1_REG_0 = (uint8)matrix[1 + (j+8)*4].r[bit_shift];
 287              		.loc 1 182 0
 288 0150 F85C     		ldrb	r0, [r7, r3]
 289              		.loc 1 186 0
 290 0152 174F     		ldr	r7, .L8+4
 182:.\main.c      **** 	LED_Matrix_1_F1_REG_0 = (uint8)matrix[1 + (j+8)*4].r[bit_shift];
 291              		.loc 1 182 0
 292 0154 1070     		strb	r0, [r2]
 183:.\main.c      **** 	LED_Matrix_1_F1_REG_0 = (uint8)matrix[2 + (j+8)*4].r[bit_shift];
 293              		.loc 1 183 0
 294 0156 ED5C     		ldrb	r5, [r5, r3]
 187:.\main.c      **** 	
 188:.\main.c      **** 	/* Note that row change occurs at a lower frequency than the BCM because of mystery ghosting */
 189:.\main.c      **** 	Row_Select(j);
 295              		.loc 1 189 0
 296 0158 1F48     		ldr	r0, .L8+44
 183:.\main.c      **** 	LED_Matrix_1_F1_REG_0 = (uint8)matrix[2 + (j+8)*4].r[bit_shift];
 297              		.loc 1 183 0
 298 015a 1570     		strb	r5, [r2]
 186:.\main.c      **** 	LED_Matrix_1_WriteControl(0x03);
 299              		.loc 1 186 0
 300 015c 3E70     		strb	r6, [r7]
 301              		.loc 1 189 0
 302 015e 0678     		ldrb	r6, [r0]
 303 0160 0725     		mov	r5, #7
 304 0162 2940     		and	r1, r5
 305 0164 AE43     		bic	r6, r5
 306 0166 3143     		orr	r1, r6
 307 0168 0170     		strb	r1, [r0]
 190:.\main.c      **** 
 191:.\main.c      **** 	/* Once F1_REG_0 is full (this line does it), the Component will begin shifting out values */
 192:.\main.c      **** 	LED_Matrix_1_F1_REG_0 = (uint8)matrix[3 + (j+8)*4].r[bit_shift];
 308              		.loc 1 192 0
 309 016a E35C     		ldrb	r3, [r4, r3]
 310 016c 1370     		strb	r3, [r2]
 193:.\main.c      **** }
 311              		.loc 1 193 0
 312 016e 07B0     		add	sp, sp, #28
 313              		@ sp needed for prologue
 314 0170 3CBC     		pop	{r2, r3, r4, r5}
 315 0172 9046     		mov	r8, r2
 316 0174 9946     		mov	r9, r3
 317 0176 A246     		mov	sl, r4
 318 0178 AB46     		mov	fp, r5
 319 017a F0BD     		pop	{r4, r5, r6, r7, pc}
 320              	.L4:
 122:.\main.c      **** 		j++;
 321              		.loc 1 122 0
 322 017c 6878     		ldrb	r0, [r5, #1]
 120:.\main.c      **** 		bit_shift = 0;
 323              		.loc 1 120 0
ARM GAS  C:\Users\Steve\AppData\Local\Temp\cc3MKthr.s 			page 11


 324 017e 0E4A     		ldr	r2, .L8+12
 122:.\main.c      **** 		j++;
 325              		.loc 1 122 0
 326 0180 0130     		add	r0, r0, #1
 120:.\main.c      **** 		bit_shift = 0;
 327              		.loc 1 120 0
 328 0182 0023     		mov	r3, #0
 122:.\main.c      **** 		j++;
 329              		.loc 1 122 0
 330 0184 C1B2     		uxtb	r1, r0
 120:.\main.c      **** 		bit_shift = 0;
 331              		.loc 1 120 0
 332 0186 1370     		strb	r3, [r2]
 121:.\main.c      **** 		pwm_count = 0;
 333              		.loc 1 121 0
 334 0188 2B70     		strb	r3, [r5]
 124:.\main.c      **** 		if(j == 8)
 335              		.loc 1 124 0
 336 018a 0829     		cmp	r1, #8
 337 018c 03D0     		beq	.L5
 122:.\main.c      **** 		j++;
 338              		.loc 1 122 0
 339 018e 6970     		strb	r1, [r5, #1]
 340 0190 8F00     		lsl	r7, r1, #2
 341 0192 0024     		mov	r4, #0
 342 0194 50E7     		b	.L3
 343              	.L5:
 126:.\main.c      **** 			j = 0;
 344              		.loc 1 126 0
 345 0196 6B70     		strb	r3, [r5, #1]
 346 0198 0024     		mov	r4, #0
 347 019a 0027     		mov	r7, #0
 348 019c 4CE7     		b	.L3
 349              	.L7:
 116:.\main.c      **** 		bit_shift = 1;
 350              		.loc 1 116 0
 351 019e 064A     		ldr	r2, .L8+12
 352 01a0 6E78     		ldrb	r6, [r5, #1]
 353 01a2 1770     		strb	r7, [r2]
 354 01a4 0124     		mov	r4, #1
 355 01a6 B700     		lsl	r7, r6, #2
 356 01a8 46E7     		b	.L3
 357              	.L9:
 358 01aa C046     		.align	2
 359              	.L8:
 360 01ac 80E200E0 		.word	-536812928
 361 01b0 71000F40 		.word	1074724977
 362 01b4 00000000 		.word	.LANCHOR0
 363 01b8 00000000 		.word	bit_shift
 364 01bc 00000000 		.word	matrix
 365 01c0 42000F40 		.word	1074724930
 366 01c4 43000F40 		.word	1074724931
 367 01c8 53000F40 		.word	1074724947
 368 01cc 41000F40 		.word	1074724929
 369 01d0 51000F40 		.word	1074724945
 370 01d4 52000F40 		.word	1074724946
 371 01d8 72000F40 		.word	1074724978
ARM GAS  C:\Users\Steve\AppData\Local\Temp\cc3MKthr.s 			page 12


 372              		.cfi_endproc
 373              	.LFE34:
 374              		.size	FIFO_EMPTY, .-FIFO_EMPTY
 375              		.section	.text.eoc_isr,"ax",%progbits
 376              		.align	2
 377              		.global	eoc_isr
 378              		.code	16
 379              		.thumb_func
 380              		.type	eoc_isr, %function
 381              	eoc_isr:
 382              	.LFB35:
 194:.\main.c      **** uint8 dataReady = 0;
 195:.\main.c      **** uint16 result[8] = {0,0,0,0,0,0,0,0};
 196:.\main.c      **** uint8 oldResult[8] = {0,0,0,0,0,0,0,0};
 197:.\main.c      **** int w = 0;
 198:.\main.c      **** int refresh=0;
 199:.\main.c      **** CY_ISR(eoc_isr)
 200:.\main.c      **** {
 383              		.loc 1 200 0
 384              		.cfi_startproc
 201:.\main.c      **** 	
 202:.\main.c      **** 	result[0] = (uint16)(ADC_SAR_CHAN0_RESULT_REG & ADC_RESULT_MASK);
 385              		.loc 1 202 0
 386 0000 444B     		ldr	r3, .L27
 203:.\main.c      **** 	result[1] = (uint16)(ADC_SAR_CHAN1_RESULT_REG & ADC_RESULT_MASK);
 387              		.loc 1 203 0
 388 0002 454A     		ldr	r2, .L27+4
 202:.\main.c      **** 	result[0] = (uint16)(ADC_SAR_CHAN0_RESULT_REG & ADC_RESULT_MASK);
 389              		.loc 1 202 0
 390 0004 1968     		ldr	r1, [r3]
 391 0006 4548     		ldr	r0, .L27+8
 392              		.loc 1 203 0
 393 0008 1368     		ldr	r3, [r2]
 204:.\main.c      **** 	result[2] = (uint16)(ADC_SAR_CHAN2_RESULT_REG & ADC_RESULT_MASK);
 394              		.loc 1 204 0
 395 000a 454A     		ldr	r2, .L27+12
 200:.\main.c      **** {
 396              		.loc 1 200 0
 397 000c 00B5     		push	{lr}
 398              	.LCFI3:
 399              		.cfi_def_cfa_offset 4
 400              		.cfi_offset 14, -4
 203:.\main.c      **** 	result[1] = (uint16)(ADC_SAR_CHAN1_RESULT_REG & ADC_RESULT_MASK);
 401              		.loc 1 203 0
 402 000e C380     		strh	r3, [r0, #6]
 403              		.loc 1 204 0
 404 0010 1368     		ldr	r3, [r2]
 205:.\main.c      **** 	result[3] = (uint16)(ADC_SAR_CHAN3_RESULT_REG & ADC_RESULT_MASK);
 405              		.loc 1 205 0
 406 0012 444A     		ldr	r2, .L27+16
 204:.\main.c      **** 	result[2] = (uint16)(ADC_SAR_CHAN2_RESULT_REG & ADC_RESULT_MASK);
 407              		.loc 1 204 0
 408 0014 0381     		strh	r3, [r0, #8]
 409              		.loc 1 205 0
 410 0016 1368     		ldr	r3, [r2]
 206:.\main.c      **** 	result[4] = (uint16)(ADC_SAR_CHAN4_RESULT_REG & ADC_RESULT_MASK);
 411              		.loc 1 206 0
ARM GAS  C:\Users\Steve\AppData\Local\Temp\cc3MKthr.s 			page 13


 412 0018 434A     		ldr	r2, .L27+20
 205:.\main.c      **** 	result[3] = (uint16)(ADC_SAR_CHAN3_RESULT_REG & ADC_RESULT_MASK);
 413              		.loc 1 205 0
 414 001a 4381     		strh	r3, [r0, #10]
 415              		.loc 1 206 0
 416 001c 1368     		ldr	r3, [r2]
 207:.\main.c      **** 	result[5] = (uint16)(ADC_SAR_CHAN5_RESULT_REG & ADC_RESULT_MASK);
 417              		.loc 1 207 0
 418 001e 434A     		ldr	r2, .L27+24
 206:.\main.c      **** 	result[4] = (uint16)(ADC_SAR_CHAN4_RESULT_REG & ADC_RESULT_MASK);
 419              		.loc 1 206 0
 420 0020 8381     		strh	r3, [r0, #12]
 421              		.loc 1 207 0
 422 0022 1368     		ldr	r3, [r2]
 208:.\main.c      **** 	result[6] = (uint16)(ADC_SAR_CHAN6_RESULT_REG & ADC_RESULT_MASK);
 423              		.loc 1 208 0
 424 0024 424A     		ldr	r2, .L27+28
 207:.\main.c      **** 	result[5] = (uint16)(ADC_SAR_CHAN5_RESULT_REG & ADC_RESULT_MASK);
 425              		.loc 1 207 0
 426 0026 C381     		strh	r3, [r0, #14]
 427              		.loc 1 208 0
 428 0028 1368     		ldr	r3, [r2]
 209:.\main.c      **** 	result[7] = (uint16)(ADC_SAR_CHAN7_RESULT_REG & ADC_RESULT_MASK);
 429              		.loc 1 209 0
 430 002a 424A     		ldr	r2, .L27+32
 208:.\main.c      **** 	result[6] = (uint16)(ADC_SAR_CHAN6_RESULT_REG & ADC_RESULT_MASK);
 431              		.loc 1 208 0
 432 002c 0382     		strh	r3, [r0, #16]
 433              		.loc 1 209 0
 434 002e 1368     		ldr	r3, [r2]
 210:.\main.c      **** 	for(w=0;w<8;w++)
 211:.\main.c      **** 	{
 212:.\main.c      **** 		if((result[w] & 0xFF00) == 0xFF00)
 435              		.loc 1 212 0
 436 0030 FF22     		mov	r2, #255
 209:.\main.c      **** 	result[7] = (uint16)(ADC_SAR_CHAN7_RESULT_REG & ADC_RESULT_MASK);
 437              		.loc 1 209 0
 438 0032 4382     		strh	r3, [r0, #18]
 439              		.loc 1 212 0
 440 0034 1302     		lsl	r3, r2, #8
 202:.\main.c      **** 	result[0] = (uint16)(ADC_SAR_CHAN0_RESULT_REG & ADC_RESULT_MASK);
 441              		.loc 1 202 0
 442 0036 8180     		strh	r1, [r0, #4]
 443              		.loc 1 212 0
 444 0038 1940     		and	r1, r3
 445 003a 9942     		cmp	r1, r3
 446 003c 2ED0     		beq	.L19
 447 003e C388     		ldrh	r3, [r0, #6]
 448 0040 FF22     		mov	r2, #255
 449 0042 9343     		bic	r3, r2
 450 0044 1102     		lsl	r1, r2, #8
 451 0046 8B42     		cmp	r3, r1
 452 0048 30D0     		beq	.L20
 453              	.L12:
 454 004a 0189     		ldrh	r1, [r0, #8]
 455 004c FF22     		mov	r2, #255
 456 004e 9143     		bic	r1, r2
ARM GAS  C:\Users\Steve\AppData\Local\Temp\cc3MKthr.s 			page 14


 457 0050 1302     		lsl	r3, r2, #8
 458 0052 9942     		cmp	r1, r3
 459 0054 32D0     		beq	.L21
 460              	.L13:
 461 0056 4389     		ldrh	r3, [r0, #10]
 462 0058 FF22     		mov	r2, #255
 463 005a 9343     		bic	r3, r2
 464 005c 1102     		lsl	r1, r2, #8
 465 005e 8B42     		cmp	r3, r1
 466 0060 34D0     		beq	.L22
 467              	.L14:
 468 0062 8189     		ldrh	r1, [r0, #12]
 469 0064 FF22     		mov	r2, #255
 470 0066 9143     		bic	r1, r2
 471 0068 1302     		lsl	r3, r2, #8
 472 006a 9942     		cmp	r1, r3
 473 006c 36D0     		beq	.L23
 474              	.L15:
 475 006e C389     		ldrh	r3, [r0, #14]
 476 0070 FF22     		mov	r2, #255
 477 0072 9343     		bic	r3, r2
 478 0074 1102     		lsl	r1, r2, #8
 479 0076 8B42     		cmp	r3, r1
 480 0078 38D0     		beq	.L24
 481              	.L16:
 482 007a 018A     		ldrh	r1, [r0, #16]
 483 007c FF22     		mov	r2, #255
 484 007e 9143     		bic	r1, r2
 485 0080 1302     		lsl	r3, r2, #8
 486 0082 9942     		cmp	r1, r3
 487 0084 3AD0     		beq	.L25
 488              	.L17:
 489 0086 438A     		ldrh	r3, [r0, #18]
 490 0088 FF22     		mov	r2, #255
 491 008a 9343     		bic	r3, r2
 492 008c 1102     		lsl	r1, r2, #8
 493 008e 8B42     		cmp	r3, r1
 494 0090 3CD0     		beq	.L26
 495              	.L18:
 496 0092 0822     		mov	r2, #8
 213:.\main.c      **** 		{
 214:.\main.c      **** 			result[w] = 0;
 215:.\main.c      **** 		}
 216:.\main.c      **** 	}
 217:.\main.c      **** 	dataReady = 1;
 497              		.loc 1 217 0
 498 0094 0121     		mov	r1, #1
 499 0096 4261     		str	r2, [r0, #20]
 500 0098 0176     		strb	r1, [r0, #24]
 218:.\main.c      **** 	
 219:.\main.c      **** }
 501              		.loc 1 219 0
 502              		@ sp needed for prologue
 503 009a 00BD     		pop	{pc}
 504              	.L19:
 212:.\main.c      **** 		if((result[w] & 0xFF00) == 0xFF00)
 505              		.loc 1 212 0
ARM GAS  C:\Users\Steve\AppData\Local\Temp\cc3MKthr.s 			page 15


 506 009c C388     		ldrh	r3, [r0, #6]
 214:.\main.c      **** 			result[w] = 0;
 507              		.loc 1 214 0
 508 009e 0021     		mov	r1, #0
 212:.\main.c      **** 		if((result[w] & 0xFF00) == 0xFF00)
 509              		.loc 1 212 0
 510 00a0 FF22     		mov	r2, #255
 214:.\main.c      **** 			result[w] = 0;
 511              		.loc 1 214 0
 512 00a2 8180     		strh	r1, [r0, #4]
 212:.\main.c      **** 		if((result[w] & 0xFF00) == 0xFF00)
 513              		.loc 1 212 0
 514 00a4 9343     		bic	r3, r2
 515 00a6 1102     		lsl	r1, r2, #8
 516 00a8 8B42     		cmp	r3, r1
 517 00aa CED1     		bne	.L12
 518              	.L20:
 519 00ac 0189     		ldrh	r1, [r0, #8]
 214:.\main.c      **** 			result[w] = 0;
 520              		.loc 1 214 0
 521 00ae 0023     		mov	r3, #0
 212:.\main.c      **** 		if((result[w] & 0xFF00) == 0xFF00)
 522              		.loc 1 212 0
 523 00b0 FF22     		mov	r2, #255
 214:.\main.c      **** 			result[w] = 0;
 524              		.loc 1 214 0
 525 00b2 C380     		strh	r3, [r0, #6]
 212:.\main.c      **** 		if((result[w] & 0xFF00) == 0xFF00)
 526              		.loc 1 212 0
 527 00b4 9143     		bic	r1, r2
 528 00b6 1302     		lsl	r3, r2, #8
 529 00b8 9942     		cmp	r1, r3
 530 00ba CCD1     		bne	.L13
 531              	.L21:
 532 00bc 4389     		ldrh	r3, [r0, #10]
 214:.\main.c      **** 			result[w] = 0;
 533              		.loc 1 214 0
 534 00be 0021     		mov	r1, #0
 212:.\main.c      **** 		if((result[w] & 0xFF00) == 0xFF00)
 535              		.loc 1 212 0
 536 00c0 FF22     		mov	r2, #255
 214:.\main.c      **** 			result[w] = 0;
 537              		.loc 1 214 0
 538 00c2 0181     		strh	r1, [r0, #8]
 212:.\main.c      **** 		if((result[w] & 0xFF00) == 0xFF00)
 539              		.loc 1 212 0
 540 00c4 9343     		bic	r3, r2
 541 00c6 1102     		lsl	r1, r2, #8
 542 00c8 8B42     		cmp	r3, r1
 543 00ca CAD1     		bne	.L14
 544              	.L22:
 545 00cc 8189     		ldrh	r1, [r0, #12]
 214:.\main.c      **** 			result[w] = 0;
 546              		.loc 1 214 0
 547 00ce 0023     		mov	r3, #0
 212:.\main.c      **** 		if((result[w] & 0xFF00) == 0xFF00)
 548              		.loc 1 212 0
ARM GAS  C:\Users\Steve\AppData\Local\Temp\cc3MKthr.s 			page 16


 549 00d0 FF22     		mov	r2, #255
 214:.\main.c      **** 			result[w] = 0;
 550              		.loc 1 214 0
 551 00d2 4381     		strh	r3, [r0, #10]
 212:.\main.c      **** 		if((result[w] & 0xFF00) == 0xFF00)
 552              		.loc 1 212 0
 553 00d4 9143     		bic	r1, r2
 554 00d6 1302     		lsl	r3, r2, #8
 555 00d8 9942     		cmp	r1, r3
 556 00da C8D1     		bne	.L15
 557              	.L23:
 558 00dc C389     		ldrh	r3, [r0, #14]
 214:.\main.c      **** 			result[w] = 0;
 559              		.loc 1 214 0
 560 00de 0021     		mov	r1, #0
 212:.\main.c      **** 		if((result[w] & 0xFF00) == 0xFF00)
 561              		.loc 1 212 0
 562 00e0 FF22     		mov	r2, #255
 214:.\main.c      **** 			result[w] = 0;
 563              		.loc 1 214 0
 564 00e2 8181     		strh	r1, [r0, #12]
 212:.\main.c      **** 		if((result[w] & 0xFF00) == 0xFF00)
 565              		.loc 1 212 0
 566 00e4 9343     		bic	r3, r2
 567 00e6 1102     		lsl	r1, r2, #8
 568 00e8 8B42     		cmp	r3, r1
 569 00ea C6D1     		bne	.L16
 570              	.L24:
 571 00ec 018A     		ldrh	r1, [r0, #16]
 214:.\main.c      **** 			result[w] = 0;
 572              		.loc 1 214 0
 573 00ee 0023     		mov	r3, #0
 212:.\main.c      **** 		if((result[w] & 0xFF00) == 0xFF00)
 574              		.loc 1 212 0
 575 00f0 FF22     		mov	r2, #255
 214:.\main.c      **** 			result[w] = 0;
 576              		.loc 1 214 0
 577 00f2 C381     		strh	r3, [r0, #14]
 212:.\main.c      **** 		if((result[w] & 0xFF00) == 0xFF00)
 578              		.loc 1 212 0
 579 00f4 9143     		bic	r1, r2
 580 00f6 1302     		lsl	r3, r2, #8
 581 00f8 9942     		cmp	r1, r3
 582 00fa C4D1     		bne	.L17
 583              	.L25:
 584 00fc 438A     		ldrh	r3, [r0, #18]
 214:.\main.c      **** 			result[w] = 0;
 585              		.loc 1 214 0
 586 00fe 0021     		mov	r1, #0
 212:.\main.c      **** 		if((result[w] & 0xFF00) == 0xFF00)
 587              		.loc 1 212 0
 588 0100 FF22     		mov	r2, #255
 214:.\main.c      **** 			result[w] = 0;
 589              		.loc 1 214 0
 590 0102 0182     		strh	r1, [r0, #16]
 212:.\main.c      **** 		if((result[w] & 0xFF00) == 0xFF00)
 591              		.loc 1 212 0
ARM GAS  C:\Users\Steve\AppData\Local\Temp\cc3MKthr.s 			page 17


 592 0104 9343     		bic	r3, r2
 593 0106 1102     		lsl	r1, r2, #8
 594 0108 8B42     		cmp	r3, r1
 595 010a C2D1     		bne	.L18
 596              	.L26:
 214:.\main.c      **** 			result[w] = 0;
 597              		.loc 1 214 0
 598 010c 0023     		mov	r3, #0
 599 010e 4382     		strh	r3, [r0, #18]
 600 0110 BFE7     		b	.L18
 601              	.L28:
 602 0112 C046     		.align	2
 603              	.L27:
 604 0114 80011A40 		.word	1075446144
 605 0118 84011A40 		.word	1075446148
 606 011c 00000000 		.word	.LANCHOR0
 607 0120 88011A40 		.word	1075446152
 608 0124 8C011A40 		.word	1075446156
 609 0128 90011A40 		.word	1075446160
 610 012c 94011A40 		.word	1075446164
 611 0130 98011A40 		.word	1075446168
 612 0134 9C011A40 		.word	1075446172
 613              		.cfi_endproc
 614              	.LFE35:
 615              		.size	eoc_isr, .-eoc_isr
 616              		.section	.text.PB_ISR,"ax",%progbits
 617              		.align	2
 618              		.global	PB_ISR
 619              		.code	16
 620              		.thumb_func
 621              		.type	PB_ISR, %function
 622              	PB_ISR:
 623              	.LFB33:
  72:.\main.c      **** {
 624              		.loc 1 72 0
 625              		.cfi_startproc
  73:.\main.c      **** 	if(PB==0)
 626              		.loc 1 73 0
 627 0000 054B     		ldr	r3, .L33
  72:.\main.c      **** {
 628              		.loc 1 72 0
 629 0002 00B5     		push	{lr}
 630              	.LCFI4:
 631              		.cfi_def_cfa_offset 4
 632              		.cfi_offset 14, -4
  73:.\main.c      **** 	if(PB==0)
 633              		.loc 1 73 0
 634 0004 DA69     		ldr	r2, [r3, #28]
 635 0006 002A     		cmp	r2, #0
 636 0008 02D0     		beq	.L32
  79:.\main.c      **** 		PB=0;
 637              		.loc 1 79 0
 638 000a 0020     		mov	r0, #0
 639 000c D861     		str	r0, [r3, #28]
 640              	.L29:
  81:.\main.c      **** }
 641              		.loc 1 81 0
ARM GAS  C:\Users\Steve\AppData\Local\Temp\cc3MKthr.s 			page 18


 642              		@ sp needed for prologue
 643 000e 00BD     		pop	{pc}
 644              	.L32:
  75:.\main.c      **** 		PB=1;
 645              		.loc 1 75 0
 646 0010 0121     		mov	r1, #1
 647 0012 D961     		str	r1, [r3, #28]
 648 0014 FBE7     		b	.L29
 649              	.L34:
 650 0016 C046     		.align	2
 651              	.L33:
 652 0018 00000000 		.word	.LANCHOR0
 653              		.cfi_endproc
 654              	.LFE33:
 655              		.size	PB_ISR, .-PB_ISR
 656              		.section	.text.startup.main,"ax",%progbits
 657              		.align	2
 658              		.global	main
 659              		.code	16
 660              		.thumb_func
 661              		.type	main, %function
 662              	main:
 663              	.LFB36:
 220:.\main.c      **** 
 221:.\main.c      **** /*******************************************************************************
 222:.\main.c      **** * Function Name: main
 223:.\main.c      **** ********************************************************************************
 224:.\main.c      **** *
 225:.\main.c      **** * Summary:
 226:.\main.c      **** *  Handles UART Comm and updates matrix buffer
 227:.\main.c      **** *
 228:.\main.c      **** * Parameters:  
 229:.\main.c      **** *   None
 230:.\main.c      **** *
 231:.\main.c      **** * Return:
 232:.\main.c      **** *   None
 233:.\main.c      **** *
 234:.\main.c      **** *******************************************************************************/
 235:.\main.c      **** 
 236:.\main.c      **** int main()
 237:.\main.c      **** {	
 664              		.loc 1 237 0
 665              		.cfi_startproc
 666              	.LVL0:
 667 0000 F0B5     		push	{r4, r5, r6, r7, lr}
 668              	.LCFI5:
 669              		.cfi_def_cfa_offset 20
 670              		.cfi_offset 4, -20
 671              		.cfi_offset 5, -16
 672              		.cfi_offset 6, -12
 673              		.cfi_offset 7, -8
 674              		.cfi_offset 14, -4
 675 0002 5F46     		mov	r7, fp
 676 0004 5646     		mov	r6, sl
 677 0006 4D46     		mov	r5, r9
 678 0008 4446     		mov	r4, r8
 679 000a F0B4     		push	{r4, r5, r6, r7}
ARM GAS  C:\Users\Steve\AppData\Local\Temp\cc3MKthr.s 			page 19


 680              	.LCFI6:
 681              		.cfi_def_cfa_offset 36
 682              		.cfi_offset 8, -36
 683              		.cfi_offset 9, -32
 684              		.cfi_offset 10, -28
 685              		.cfi_offset 11, -24
 238:.\main.c      **** 	int i = 0;
 239:.\main.c      **** 	/* struct that can accomodate 8-bit RGB color */
 240:.\main.c      **** 	RGB white;
 241:.\main.c      **** 	white.r = 31;
 242:.\main.c      **** 	white.g = 31;
 243:.\main.c      **** 	white.b = 31;
 244:.\main.c      **** 	
 245:.\main.c      **** 	RGB lotsOfColors[8];
 246:.\main.c      **** 	lotsOfColors[0].r = 1;
 247:.\main.c      **** 	lotsOfColors[0].g = 0;
 248:.\main.c      **** 	lotsOfColors[0].b = 0;
 249:.\main.c      **** 	
 250:.\main.c      **** 	lotsOfColors[1].r = 1;
 251:.\main.c      **** 	lotsOfColors[1].g = 1;
 252:.\main.c      **** 	lotsOfColors[1].b = 0;
 253:.\main.c      **** 	
 254:.\main.c      **** 	lotsOfColors[2].r = 0;
 255:.\main.c      **** 	lotsOfColors[2].g = 0;
 256:.\main.c      **** 	lotsOfColors[2].b = 1;
 257:.\main.c      **** 	
 258:.\main.c      **** 	lotsOfColors[3].r = 0;
 259:.\main.c      **** 	lotsOfColors[3].g = 1;
 260:.\main.c      **** 	lotsOfColors[3].b = 1;
 261:.\main.c      **** 	
 262:.\main.c      **** 	lotsOfColors[4].r = 1;
 263:.\main.c      **** 	lotsOfColors[4].g = 0;
 264:.\main.c      **** 	lotsOfColors[4].b = 1;
 265:.\main.c      **** 	
 266:.\main.c      **** 	lotsOfColors[5].r = 1;
 267:.\main.c      **** 	lotsOfColors[5].g = 1;
 268:.\main.c      **** 	lotsOfColors[5].b = 1;
 269:.\main.c      **** 	
 270:.\main.c      **** 	lotsOfColors[6].r = 2;
 271:.\main.c      **** 	lotsOfColors[6].g = 1;
 272:.\main.c      **** 	lotsOfColors[6].b = 1;
 273:.\main.c      **** 	
 274:.\main.c      **** 	lotsOfColors[7].r = 2;
 275:.\main.c      **** 	lotsOfColors[7].g = 2;
 276:.\main.c      **** 	lotsOfColors[7].b = 0;
 277:.\main.c      **** 	
 278:.\main.c      **** 	clearScreen(matrix);
 686              		.loc 1 278 0
 687 000c 5E4D     		ldr	r5, .L42
 237:.\main.c      **** {	
 688              		.loc 1 237 0
 689 000e 89B0     		sub	sp, sp, #36
 690              	.LCFI7:
 691              		.cfi_def_cfa_offset 72
 241:.\main.c      **** 	white.r = 31;
 692              		.loc 1 241 0
 693 0010 1F23     		mov	r3, #31
ARM GAS  C:\Users\Steve\AppData\Local\Temp\cc3MKthr.s 			page 20


 694 0012 6846     		mov	r0, sp
 279:.\main.c      **** 	
 280:.\main.c      **** 	LED_Matrix_1_Start();
 281:.\main.c      **** 	
 282:.\main.c      **** 	/* Enable Component */
 283:.\main.c      **** 	LED_Matrix_1_WriteControl(0x03);
 695              		.loc 1 283 0
 696 0014 5D4F     		ldr	r7, .L42+4
 246:.\main.c      **** 	lotsOfColors[0].r = 1;
 697              		.loc 1 246 0
 698 0016 02AC     		add	r4, sp, #8
 699 0018 0121     		mov	r1, #1
 247:.\main.c      **** 	lotsOfColors[0].g = 0;
 700              		.loc 1 247 0
 701 001a 0022     		mov	r2, #0
 241:.\main.c      **** 	white.r = 31;
 702              		.loc 1 241 0
 703 001c 0371     		strb	r3, [r0, #4]
 242:.\main.c      **** 	white.g = 31;
 704              		.loc 1 242 0
 705 001e 4371     		strb	r3, [r0, #5]
 243:.\main.c      **** 	white.b = 31;
 706              		.loc 1 243 0
 707 0020 8371     		strb	r3, [r0, #6]
 708              		.loc 1 283 0
 709 0022 0326     		mov	r6, #3
 278:.\main.c      **** 	clearScreen(matrix);
 710              		.loc 1 278 0
 711 0024 281C     		mov	r0, r5
 246:.\main.c      **** 	lotsOfColors[0].r = 1;
 712              		.loc 1 246 0
 713 0026 2170     		strb	r1, [r4]
 247:.\main.c      **** 	lotsOfColors[0].g = 0;
 714              		.loc 1 247 0
 715 0028 6270     		strb	r2, [r4, #1]
 248:.\main.c      **** 	lotsOfColors[0].b = 0;
 716              		.loc 1 248 0
 717 002a A270     		strb	r2, [r4, #2]
 250:.\main.c      **** 	lotsOfColors[1].r = 1;
 718              		.loc 1 250 0
 719 002c E170     		strb	r1, [r4, #3]
 251:.\main.c      **** 	lotsOfColors[1].g = 1;
 720              		.loc 1 251 0
 721 002e 2171     		strb	r1, [r4, #4]
 252:.\main.c      **** 	lotsOfColors[1].b = 0;
 722              		.loc 1 252 0
 723 0030 6271     		strb	r2, [r4, #5]
 254:.\main.c      **** 	lotsOfColors[2].r = 0;
 724              		.loc 1 254 0
 725 0032 A271     		strb	r2, [r4, #6]
 255:.\main.c      **** 	lotsOfColors[2].g = 0;
 726              		.loc 1 255 0
 727 0034 E271     		strb	r2, [r4, #7]
 256:.\main.c      **** 	lotsOfColors[2].b = 1;
 728              		.loc 1 256 0
 729 0036 2172     		strb	r1, [r4, #8]
 258:.\main.c      **** 	lotsOfColors[3].r = 0;
ARM GAS  C:\Users\Steve\AppData\Local\Temp\cc3MKthr.s 			page 21


 730              		.loc 1 258 0
 731 0038 6272     		strb	r2, [r4, #9]
 259:.\main.c      **** 	lotsOfColors[3].g = 1;
 732              		.loc 1 259 0
 733 003a A172     		strb	r1, [r4, #10]
 260:.\main.c      **** 	lotsOfColors[3].b = 1;
 734              		.loc 1 260 0
 735 003c E172     		strb	r1, [r4, #11]
 262:.\main.c      **** 	lotsOfColors[4].r = 1;
 736              		.loc 1 262 0
 737 003e 2173     		strb	r1, [r4, #12]
 263:.\main.c      **** 	lotsOfColors[4].g = 0;
 738              		.loc 1 263 0
 739 0040 6273     		strb	r2, [r4, #13]
 264:.\main.c      **** 	lotsOfColors[4].b = 1;
 740              		.loc 1 264 0
 741 0042 A173     		strb	r1, [r4, #14]
 266:.\main.c      **** 	lotsOfColors[5].r = 1;
 742              		.loc 1 266 0
 743 0044 E173     		strb	r1, [r4, #15]
 267:.\main.c      **** 	lotsOfColors[5].g = 1;
 744              		.loc 1 267 0
 745 0046 2174     		strb	r1, [r4, #16]
 268:.\main.c      **** 	lotsOfColors[5].b = 1;
 746              		.loc 1 268 0
 747 0048 6174     		strb	r1, [r4, #17]
 278:.\main.c      **** 	clearScreen(matrix);
 748              		.loc 1 278 0
 749 004a FFF7FEFF 		bl	clearScreen
 750              	.LVL1:
 280:.\main.c      **** 	LED_Matrix_1_Start();
 751              		.loc 1 280 0
 752 004e FFF7FEFF 		bl	LED_Matrix_1_Start
 753              	.LVL2:
 284:.\main.c      **** 
 285:.\main.c      **** 	/* Start the isr that is triggered everytime the Component finishes writing to the matrix */
 286:.\main.c      **** 	isr_2_StartEx(FIFO_EMPTY);
 754              		.loc 1 286 0
 755 0052 4F48     		ldr	r0, .L42+8
 283:.\main.c      **** 	LED_Matrix_1_WriteControl(0x03);
 756              		.loc 1 283 0
 757 0054 3E70     		strb	r6, [r7]
 758              		.loc 1 286 0
 759 0056 FFF7FEFF 		bl	isr_2_StartEx
 760              	.LVL3:
 287:.\main.c      **** 	ADC_Start();
 761              		.loc 1 287 0
 762 005a FFF7FEFF 		bl	ADC_Start
 763              	.LVL4:
 288:.\main.c      **** 	ADC_StartConvert();
 764              		.loc 1 288 0
 765 005e FFF7FEFF 		bl	ADC_StartConvert
 766              	.LVL5:
 289:.\main.c      **** 	eoc_StartEx(eoc_isr);
 767              		.loc 1 289 0
 768 0062 4C48     		ldr	r0, .L42+12
 769 0064 FFF7FEFF 		bl	eoc_StartEx
ARM GAS  C:\Users\Steve\AppData\Local\Temp\cc3MKthr.s 			page 22


 770              	.LVL6:
 278:.\main.c      **** 	clearScreen(matrix);
 771              		.loc 1 278 0
 772 0068 A846     		mov	r8, r5
 290:.\main.c      **** 	
 291:.\main.c      **** 	/* Enable interrupts */
 292:.\main.c      **** 	CyGlobalIntEnable;
 773              		.loc 1 292 0
 774              	@ 292 ".\main.c" 1
 775 006a 62B6     		CPSIE   i
 776              	@ 0 "" 2
 777              	.LVL7:
 778              		.code	16
 779 006c 4A4D     		ldr	r5, .L42+16
 293:.\main.c      **** 	int dataChange = 0;
 294:.\main.c      **** 	for(;;)
 295:.\main.c      ****     { 	
 296:.\main.c      **** 		CyDelay(1);
 297:.\main.c      **** 		
 298:.\main.c      **** 		if(dataReady == 1)
 299:.\main.c      **** 		{
 300:.\main.c      **** 			dataChange = ifDataChange(&oldResult[0],&result[0]);
 301:.\main.c      **** 			dataReady = 0;
 780              		.loc 1 301 0
 781 006e 0027     		mov	r7, #0
 300:.\main.c      **** 			dataChange = ifDataChange(&oldResult[0],&result[0]);
 782              		.loc 1 300 0
 783 0070 2E1C     		mov	r6, r5
 784 0072 2036     		add	r6, r6, #32
 785              	.LVL8:
 786              	.L41:
 296:.\main.c      **** 		CyDelay(1);
 787              		.loc 1 296 0
 788 0074 0120     		mov	r0, #1
 789 0076 FFF7FEFF 		bl	CyDelay
 790              	.LVL9:
 298:.\main.c      **** 		if(dataReady == 1)
 791              		.loc 1 298 0
 792 007a 2B7E     		ldrb	r3, [r5, #24]
 793 007c 012B     		cmp	r3, #1
 794 007e F9D1     		bne	.L41
 300:.\main.c      **** 			dataChange = ifDataChange(&oldResult[0],&result[0]);
 795              		.loc 1 300 0
 796 0080 301C     		mov	r0, r6
 797 0082 4649     		ldr	r1, .L42+20
 798 0084 FFF7FEFF 		bl	ifDataChange
 799              	.LVL10:
 800              		.loc 1 301 0
 801 0088 2F76     		strb	r7, [r5, #24]
 302:.\main.c      **** 			if(dataChange == 1)
 802              		.loc 1 302 0
 803 008a 0128     		cmp	r0, #1
 804 008c F2D1     		bne	.L41
 303:.\main.c      **** 			{
 304:.\main.c      **** 				clearScreen(matrix);
 805              		.loc 1 304 0
 806 008e 4046     		mov	r0, r8
ARM GAS  C:\Users\Steve\AppData\Local\Temp\cc3MKthr.s 			page 23


 807              	.LVL11:
 808 0090 FFF7FEFF 		bl	clearScreen
 809              	.LVL12:
 305:.\main.c      **** 				for(i=0;i<8;i++)
 306:.\main.c      **** 				{
 307:.\main.c      **** 					oldResult[i] = ((uint8)(result[i]>>7)) & 0x0F;
 810              		.loc 1 307 0
 811 0094 A888     		ldrh	r0, [r5, #4]
 812 0096 0F23     		mov	r3, #15
 813 0098 C109     		lsr	r1, r0, #7
 814 009a 1940     		and	r1, r3
 815 009c 2022     		mov	r2, #32
 816 009e A954     		strb	r1, [r5, r2]
 817              	.LVL13:
 818 00a0 E888     		ldrh	r0, [r5, #6]
 819 00a2 C209     		lsr	r2, r0, #7
 820 00a4 1A40     		and	r2, r3
 821 00a6 2120     		mov	r0, #33
 822 00a8 2A54     		strb	r2, [r5, r0]
 823              	.LVL14:
 824 00aa 2A89     		ldrh	r2, [r5, #8]
 825 00ac 8346     		mov	fp, r0
 826 00ae D209     		lsr	r2, r2, #7
 827 00b0 1A40     		and	r2, r3
 828 00b2 2220     		mov	r0, #34
 829 00b4 2A54     		strb	r2, [r5, r0]
 830              	.LVL15:
 831 00b6 6A89     		ldrh	r2, [r5, #10]
 832 00b8 8246     		mov	sl, r0
 833 00ba D209     		lsr	r2, r2, #7
 834 00bc 1A40     		and	r2, r3
 835 00be 2320     		mov	r0, #35
 836 00c0 2A54     		strb	r2, [r5, r0]
 837              	.LVL16:
 838 00c2 AA89     		ldrh	r2, [r5, #12]
 839 00c4 8146     		mov	r9, r0
 840 00c6 D209     		lsr	r2, r2, #7
 841 00c8 1A40     		and	r2, r3
 842 00ca 2420     		mov	r0, #36
 843 00cc 2A54     		strb	r2, [r5, r0]
 844              	.LVL17:
 845 00ce EA89     		ldrh	r2, [r5, #14]
 846 00d0 2520     		mov	r0, #37
 847 00d2 D209     		lsr	r2, r2, #7
 848 00d4 1A40     		and	r2, r3
 849 00d6 2A54     		strb	r2, [r5, r0]
 850              	.LVL18:
 851 00d8 2A8A     		ldrh	r2, [r5, #16]
 852 00da D009     		lsr	r0, r2, #7
 853 00dc 1840     		and	r0, r3
 854 00de 2622     		mov	r2, #38
 855 00e0 A854     		strb	r0, [r5, r2]
 856              	.LVL19:
 857 00e2 688A     		ldrh	r0, [r5, #18]
 858 00e4 C209     		lsr	r2, r0, #7
 859 00e6 1340     		and	r3, r2
 860 00e8 2720     		mov	r0, #39
ARM GAS  C:\Users\Steve\AppData\Local\Temp\cc3MKthr.s 			page 24


 861 00ea 2B54     		strb	r3, [r5, r0]
 862              	.LVL20:
 308:.\main.c      **** 				}
 309:.\main.c      **** 				for(i=0;i<6;i++)
 310:.\main.c      **** 				{
 311:.\main.c      **** 					drawblock(i,oldResult[i],lotsOfColors[i],matrix);
 863              		.loc 1 311 0
 864 00ec 2268     		ldr	r2, [r4]
 865 00ee 4346     		mov	r3, r8
 866 00f0 0020     		mov	r0, #0
 867 00f2 FFF7FEFF 		bl	drawblock
 868              	.LVL21:
 869 00f6 6846     		mov	r0, sp
 870 00f8 027B     		ldrb	r2, [r0, #12]
 871 00fa E378     		ldrb	r3, [r4, #3]
 872 00fc 1202     		lsl	r2, r2, #8
 873 00fe 1A43     		orr	r2, r3
 874 0100 437B     		ldrb	r3, [r0, #13]
 875 0102 5946     		mov	r1, fp
 876 0104 1804     		lsl	r0, r3, #16
 877 0106 6956     		ldrsb	r1, [r5, r1]
 878 0108 0243     		orr	r2, r0
 879 010a 4346     		mov	r3, r8
 880 010c 0120     		mov	r0, #1
 881 010e FFF7FEFF 		bl	drawblock
 882              	.LVL22:
 883 0112 6A46     		mov	r2, sp
 884 0114 107C     		ldrb	r0, [r2, #16]
 885 0116 E388     		ldrh	r3, [r4, #6]
 886 0118 5146     		mov	r1, sl
 887 011a 0204     		lsl	r2, r0, #16
 888 011c 6956     		ldrsb	r1, [r5, r1]
 889 011e 1A43     		orr	r2, r3
 890 0120 0220     		mov	r0, #2
 891 0122 4346     		mov	r3, r8
 892 0124 FFF7FEFF 		bl	drawblock
 893              	.LVL23:
 894 0128 6846     		mov	r0, sp
 895 012a 827C     		ldrb	r2, [r0, #18]
 896 012c 637A     		ldrb	r3, [r4, #9]
 897 012e 1202     		lsl	r2, r2, #8
 898 0130 1A43     		orr	r2, r3
 899 0132 C37C     		ldrb	r3, [r0, #19]
 900 0134 4946     		mov	r1, r9
 901 0136 1804     		lsl	r0, r3, #16
 902 0138 6956     		ldrsb	r1, [r5, r1]
 903 013a 0243     		orr	r2, r0
 904 013c 4346     		mov	r3, r8
 905 013e 0320     		mov	r0, #3
 906 0140 FFF7FEFF 		bl	drawblock
 907              	.LVL24:
 908 0144 2421     		mov	r1, #36
 909 0146 6956     		ldrsb	r1, [r5, r1]
 910 0148 E268     		ldr	r2, [r4, #12]
 911 014a 4346     		mov	r3, r8
 912 014c 0420     		mov	r0, #4
 913 014e FFF7FEFF 		bl	drawblock
ARM GAS  C:\Users\Steve\AppData\Local\Temp\cc3MKthr.s 			page 25


 914              	.LVL25:
 915 0152 6846     		mov	r0, sp
 916 0154 2522     		mov	r2, #37
 917 0156 A956     		ldrsb	r1, [r5, r2]
 918 0158 027E     		ldrb	r2, [r0, #24]
 919 015a E37B     		ldrb	r3, [r4, #15]
 920 015c 1202     		lsl	r2, r2, #8
 921 015e 1A43     		orr	r2, r3
 922 0160 437E     		ldrb	r3, [r0, #25]
 923 0162 1804     		lsl	r0, r3, #16
 924 0164 0243     		orr	r2, r0
 925 0166 4346     		mov	r3, r8
 926 0168 0520     		mov	r0, #5
 927 016a FFF7FEFF 		bl	drawblock
 928              	.LVL26:
 312:.\main.c      **** 				}
 313:.\main.c      **** 				drawblock(6,15,white,matrix);
 929              		.loc 1 313 0
 930 016e 019A     		ldr	r2, [sp, #4]
 931 0170 4346     		mov	r3, r8
 932 0172 0620     		mov	r0, #6
 933 0174 0F21     		mov	r1, #15
 934 0176 FFF7FEFF 		bl	drawblock
 935              	.LVL27:
 314:.\main.c      **** 				drawblock(7,15,white,matrix);
 936              		.loc 1 314 0
 937 017a 0720     		mov	r0, #7
 938 017c 0F21     		mov	r1, #15
 939 017e 019A     		ldr	r2, [sp, #4]
 940 0180 4346     		mov	r3, r8
 941 0182 FFF7FEFF 		bl	drawblock
 942              	.LVL28:
 943 0186 75E7     		b	.L41
 944              	.L43:
 945              		.align	2
 946              	.L42:
 947 0188 00000000 		.word	matrix
 948 018c 71000F40 		.word	1074724977
 949 0190 00000000 		.word	FIFO_EMPTY
 950 0194 00000000 		.word	eoc_isr
 951 0198 00000000 		.word	.LANCHOR0
 952 019c 04000000 		.word	.LANCHOR0+4
 953              		.cfi_endproc
 954              	.LFE36:
 955              		.size	main, .-main
 956              		.global	refresh
 957              		.global	w
 958              		.global	oldResult
 959              		.global	result
 960              		.global	dataReady
 961              		.global	PB
 962              		.global	height
 963              		.comm	matrix,960,4
 964              		.comm	bit_shift,1,1
 965              		.global	pwm_count
 966              		.global	j
 967              		.data
ARM GAS  C:\Users\Steve\AppData\Local\Temp\cc3MKthr.s 			page 26


 968              		.align	2
 969              		.type	height, %object
 970              		.size	height, 8
 971              	height:
 972 0000 00       		.byte	0
 973 0001 02       		.byte	2
 974 0002 04       		.byte	4
 975 0003 06       		.byte	6
 976 0004 08       		.byte	8
 977 0005 0A       		.byte	10
 978 0006 0C       		.byte	12
 979 0007 0E       		.byte	14
 980              		.bss
 981              		.align	2
 982              		.set	.LANCHOR0,. + 0
 983              		.type	pwm_count, %object
 984              		.size	pwm_count, 1
 985              	pwm_count:
 986 0000 00       		.space	1
 987              		.type	j, %object
 988              		.size	j, 1
 989              	j:
 990 0001 00       		.space	1
 991 0002 0000     		.space	2
 992              		.type	result, %object
 993              		.size	result, 16
 994              	result:
 995 0004 00000000 		.space	16
 995      00000000 
 995      00000000 
 995      00000000 
 996              		.type	w, %object
 997              		.size	w, 4
 998              	w:
 999 0014 00000000 		.space	4
 1000              		.type	dataReady, %object
 1001              		.size	dataReady, 1
 1002              	dataReady:
 1003 0018 00       		.space	1
 1004 0019 000000   		.space	3
 1005              		.type	PB, %object
 1006              		.size	PB, 4
 1007              	PB:
 1008 001c 00000000 		.space	4
 1009              		.type	oldResult, %object
 1010              		.size	oldResult, 8
 1011              	oldResult:
 1012 0020 00000000 		.space	8
 1012      00000000 
 1013              		.type	refresh, %object
 1014              		.size	refresh, 4
 1015              	refresh:
 1016 0028 00000000 		.space	4
 1017              		.text
 1018              	.Letext0:
 1019              		.file 2 "./Generated_Source/PSoC4/cytypes.h"
 1020              		.file 3 "./LED_Matrix.h"
ARM GAS  C:\Users\Steve\AppData\Local\Temp\cc3MKthr.s 			page 27


 1021              		.file 4 "./Generated_Source/PSoC4/isr_2.h"
 1022              		.file 5 "./Generated_Source/PSoC4/ADC.h"
 1023              		.file 6 "./Generated_Source/PSoC4/eoc.h"
 1024              		.file 7 "./Generated_Source/PSoC4/CyLib.h"
 1025              		.file 8 "./Generated_Source/PSoC4/LED_Matrix_1.h"
 1026              		.section	.debug_info,"",%progbits
 1027              	.Ldebug_info0:
 1028 0000 44050000 		.4byte	0x544
 1029 0004 0200     		.2byte	0x2
 1030 0006 00000000 		.4byte	.Ldebug_abbrev0
 1031 000a 04       		.byte	0x4
 1032 000b 01       		.uleb128 0x1
 1033 000c B7010000 		.4byte	.LASF43
 1034 0010 01       		.byte	0x1
 1035 0011 D4000000 		.4byte	.LASF44
 1036 0015 00020000 		.4byte	.LASF45
 1037 0019 00000000 		.4byte	.Ldebug_ranges0+0
 1038 001d 00000000 		.4byte	0
 1039 0021 00000000 		.4byte	0
 1040 0025 00000000 		.4byte	.Ldebug_line0
 1041 0029 02       		.uleb128 0x2
 1042 002a 01       		.byte	0x1
 1043 002b 06       		.byte	0x6
 1044 002c 44020000 		.4byte	.LASF0
 1045 0030 02       		.uleb128 0x2
 1046 0031 01       		.byte	0x1
 1047 0032 08       		.byte	0x8
 1048 0033 70000000 		.4byte	.LASF1
 1049 0037 02       		.uleb128 0x2
 1050 0038 02       		.byte	0x2
 1051 0039 05       		.byte	0x5
 1052 003a 45000000 		.4byte	.LASF2
 1053 003e 02       		.uleb128 0x2
 1054 003f 02       		.byte	0x2
 1055 0040 07       		.byte	0x7
 1056 0041 32000000 		.4byte	.LASF3
 1057 0045 02       		.uleb128 0x2
 1058 0046 04       		.byte	0x4
 1059 0047 05       		.byte	0x5
 1060 0048 3B020000 		.4byte	.LASF4
 1061 004c 02       		.uleb128 0x2
 1062 004d 04       		.byte	0x4
 1063 004e 07       		.byte	0x7
 1064 004f 91000000 		.4byte	.LASF5
 1065 0053 02       		.uleb128 0x2
 1066 0054 08       		.byte	0x8
 1067 0055 05       		.byte	0x5
 1068 0056 00000000 		.4byte	.LASF6
 1069 005a 02       		.uleb128 0x2
 1070 005b 08       		.byte	0x8
 1071 005c 07       		.byte	0x7
 1072 005d 35010000 		.4byte	.LASF7
 1073 0061 03       		.uleb128 0x3
 1074 0062 04       		.byte	0x4
 1075 0063 05       		.byte	0x5
 1076 0064 696E7400 		.ascii	"int\000"
 1077 0068 02       		.uleb128 0x2
ARM GAS  C:\Users\Steve\AppData\Local\Temp\cc3MKthr.s 			page 28


 1078 0069 04       		.byte	0x4
 1079 006a 07       		.byte	0x7
 1080 006b 11010000 		.4byte	.LASF8
 1081 006f 04       		.uleb128 0x4
 1082 0070 A3000000 		.4byte	.LASF9
 1083 0074 02       		.byte	0x2
 1084 0075 5B       		.byte	0x5b
 1085 0076 30000000 		.4byte	0x30
 1086 007a 04       		.uleb128 0x4
 1087 007b E3000000 		.4byte	.LASF10
 1088 007f 02       		.byte	0x2
 1089 0080 5C       		.byte	0x5c
 1090 0081 3E000000 		.4byte	0x3e
 1091 0085 04       		.uleb128 0x4
 1092 0086 FB000000 		.4byte	.LASF11
 1093 008a 02       		.byte	0x2
 1094 008b 5D       		.byte	0x5d
 1095 008c 4C000000 		.4byte	0x4c
 1096 0090 04       		.uleb128 0x4
 1097 0091 EA000000 		.4byte	.LASF12
 1098 0095 02       		.byte	0x2
 1099 0096 5E       		.byte	0x5e
 1100 0097 29000000 		.4byte	0x29
 1101 009b 02       		.uleb128 0x2
 1102 009c 04       		.byte	0x4
 1103 009d 04       		.byte	0x4
 1104 009e 14000000 		.4byte	.LASF13
 1105 00a2 02       		.uleb128 0x2
 1106 00a3 08       		.byte	0x8
 1107 00a4 04       		.byte	0x4
 1108 00a5 C6000000 		.4byte	.LASF14
 1109 00a9 02       		.uleb128 0x2
 1110 00aa 01       		.byte	0x1
 1111 00ab 08       		.byte	0x8
 1112 00ac 96010000 		.4byte	.LASF15
 1113 00b0 04       		.uleb128 0x4
 1114 00b1 8C000000 		.4byte	.LASF16
 1115 00b5 02       		.byte	0x2
 1116 00b6 F0       		.byte	0xf0
 1117 00b7 BB000000 		.4byte	0xbb
 1118 00bb 05       		.uleb128 0x5
 1119 00bc 6F000000 		.4byte	0x6f
 1120 00c0 04       		.uleb128 0x4
 1121 00c1 0E000000 		.4byte	.LASF17
 1122 00c5 02       		.byte	0x2
 1123 00c6 F2       		.byte	0xf2
 1124 00c7 CB000000 		.4byte	0xcb
 1125 00cb 05       		.uleb128 0x5
 1126 00cc 85000000 		.4byte	0x85
 1127 00d0 06       		.uleb128 0x6
 1128 00d1 5D010000 		.4byte	.LASF18
 1129 00d5 02       		.byte	0x2
 1130 00d6 0201     		.2byte	0x102
 1131 00d8 DC000000 		.4byte	0xdc
 1132 00dc 07       		.uleb128 0x7
 1133 00dd 04       		.byte	0x4
 1134 00de E2000000 		.4byte	0xe2
ARM GAS  C:\Users\Steve\AppData\Local\Temp\cc3MKthr.s 			page 29


 1135 00e2 08       		.uleb128 0x8
 1136 00e3 01       		.byte	0x1
 1137 00e4 02       		.uleb128 0x2
 1138 00e5 04       		.byte	0x4
 1139 00e6 07       		.byte	0x7
 1140 00e7 74010000 		.4byte	.LASF19
 1141 00eb 09       		.uleb128 0x9
 1142 00ec 0F       		.byte	0xf
 1143 00ed 03       		.byte	0x3
 1144 00ee 26       		.byte	0x26
 1145 00ef 18010000 		.4byte	0x118
 1146 00f3 0A       		.uleb128 0xa
 1147 00f4 7200     		.ascii	"r\000"
 1148 00f6 03       		.byte	0x3
 1149 00f7 28       		.byte	0x28
 1150 00f8 18010000 		.4byte	0x118
 1151 00fc 02       		.byte	0x2
 1152 00fd 23       		.byte	0x23
 1153 00fe 00       		.uleb128 0
 1154 00ff 0A       		.uleb128 0xa
 1155 0100 6700     		.ascii	"g\000"
 1156 0102 03       		.byte	0x3
 1157 0103 29       		.byte	0x29
 1158 0104 18010000 		.4byte	0x118
 1159 0108 02       		.byte	0x2
 1160 0109 23       		.byte	0x23
 1161 010a 05       		.uleb128 0x5
 1162 010b 0A       		.uleb128 0xa
 1163 010c 6200     		.ascii	"b\000"
 1164 010e 03       		.byte	0x3
 1165 010f 2A       		.byte	0x2a
 1166 0110 18010000 		.4byte	0x118
 1167 0114 02       		.byte	0x2
 1168 0115 23       		.byte	0x23
 1169 0116 0A       		.uleb128 0xa
 1170 0117 00       		.byte	0
 1171 0118 0B       		.uleb128 0xb
 1172 0119 6F000000 		.4byte	0x6f
 1173 011d 28010000 		.4byte	0x128
 1174 0121 0C       		.uleb128 0xc
 1175 0122 E4000000 		.4byte	0xe4
 1176 0126 04       		.byte	0x4
 1177 0127 00       		.byte	0
 1178 0128 04       		.uleb128 0x4
 1179 0129 DD000000 		.4byte	.LASF20
 1180 012d 03       		.byte	0x3
 1181 012e 2B       		.byte	0x2b
 1182 012f EB000000 		.4byte	0xeb
 1183 0133 09       		.uleb128 0x9
 1184 0134 03       		.byte	0x3
 1185 0135 03       		.byte	0x3
 1186 0136 2E       		.byte	0x2e
 1187 0137 60010000 		.4byte	0x160
 1188 013b 0A       		.uleb128 0xa
 1189 013c 7200     		.ascii	"r\000"
 1190 013e 03       		.byte	0x3
 1191 013f 30       		.byte	0x30
ARM GAS  C:\Users\Steve\AppData\Local\Temp\cc3MKthr.s 			page 30


 1192 0140 6F000000 		.4byte	0x6f
 1193 0144 02       		.byte	0x2
 1194 0145 23       		.byte	0x23
 1195 0146 00       		.uleb128 0
 1196 0147 0A       		.uleb128 0xa
 1197 0148 6700     		.ascii	"g\000"
 1198 014a 03       		.byte	0x3
 1199 014b 31       		.byte	0x31
 1200 014c 6F000000 		.4byte	0x6f
 1201 0150 02       		.byte	0x2
 1202 0151 23       		.byte	0x23
 1203 0152 01       		.uleb128 0x1
 1204 0153 0A       		.uleb128 0xa
 1205 0154 6200     		.ascii	"b\000"
 1206 0156 03       		.byte	0x3
 1207 0157 32       		.byte	0x32
 1208 0158 6F000000 		.4byte	0x6f
 1209 015c 02       		.byte	0x2
 1210 015d 23       		.byte	0x23
 1211 015e 02       		.uleb128 0x2
 1212 015f 00       		.byte	0
 1213 0160 0D       		.uleb128 0xd
 1214 0161 52474200 		.ascii	"RGB\000"
 1215 0165 03       		.byte	0x3
 1216 0166 33       		.byte	0x33
 1217 0167 33010000 		.4byte	0x133
 1218 016b 0E       		.uleb128 0xe
 1219 016c 01       		.byte	0x1
 1220 016d AC010000 		.4byte	.LASF21
 1221 0171 01       		.byte	0x1
 1222 0172 53       		.byte	0x53
 1223 0173 01       		.byte	0x1
 1224 0174 00000000 		.4byte	.LFB34
 1225 0178 DC010000 		.4byte	.LFE34
 1226 017c 00000000 		.4byte	.LLST0
 1227 0180 01       		.byte	0x1
 1228 0181 0E       		.uleb128 0xe
 1229 0182 01       		.byte	0x1
 1230 0183 62000000 		.4byte	.LASF22
 1231 0187 01       		.byte	0x1
 1232 0188 C7       		.byte	0xc7
 1233 0189 01       		.byte	0x1
 1234 018a 00000000 		.4byte	.LFB35
 1235 018e 38010000 		.4byte	.LFE35
 1236 0192 39000000 		.4byte	.LLST1
 1237 0196 01       		.byte	0x1
 1238 0197 0E       		.uleb128 0xe
 1239 0198 01       		.byte	0x1
 1240 0199 CD000000 		.4byte	.LASF23
 1241 019d 01       		.byte	0x1
 1242 019e 47       		.byte	0x47
 1243 019f 01       		.byte	0x1
 1244 01a0 00000000 		.4byte	.LFB33
 1245 01a4 1C000000 		.4byte	.LFE33
 1246 01a8 59000000 		.4byte	.LLST2
 1247 01ac 01       		.byte	0x1
 1248 01ad 0F       		.uleb128 0xf
ARM GAS  C:\Users\Steve\AppData\Local\Temp\cc3MKthr.s 			page 31


 1249 01ae 01       		.byte	0x1
 1250 01af 02010000 		.4byte	.LASF46
 1251 01b3 01       		.byte	0x1
 1252 01b4 EC       		.byte	0xec
 1253 01b5 61000000 		.4byte	0x61
 1254 01b9 00000000 		.4byte	.LFB36
 1255 01bd A0010000 		.4byte	.LFE36
 1256 01c1 79000000 		.4byte	.LLST3
 1257 01c5 01       		.byte	0x1
 1258 01c6 75030000 		.4byte	0x375
 1259 01ca 10       		.uleb128 0x10
 1260 01cb 6900     		.ascii	"i\000"
 1261 01cd 01       		.byte	0x1
 1262 01ce EE       		.byte	0xee
 1263 01cf 61000000 		.4byte	0x61
 1264 01d3 B2000000 		.4byte	.LLST4
 1265 01d7 11       		.uleb128 0x11
 1266 01d8 6A000000 		.4byte	.LASF24
 1267 01dc 01       		.byte	0x1
 1268 01dd F0       		.byte	0xf0
 1269 01de 60010000 		.4byte	0x160
 1270 01e2 03       		.byte	0x3
 1271 01e3 91       		.byte	0x91
 1272 01e4 BC7F     		.sleb128 -68
 1273 01e6 11       		.uleb128 0x11
 1274 01e7 25000000 		.4byte	.LASF25
 1275 01eb 01       		.byte	0x1
 1276 01ec F5       		.byte	0xf5
 1277 01ed 75030000 		.4byte	0x375
 1278 01f1 02       		.byte	0x2
 1279 01f2 91       		.byte	0x91
 1280 01f3 40       		.sleb128 -64
 1281 01f4 12       		.uleb128 0x12
 1282 01f5 1A000000 		.4byte	.LASF26
 1283 01f9 01       		.byte	0x1
 1284 01fa 2501     		.2byte	0x125
 1285 01fc 61000000 		.4byte	0x61
 1286 0200 7A010000 		.4byte	.LLST5
 1287 0204 13       		.uleb128 0x13
 1288 0205 4E000000 		.4byte	.LVL1
 1289 0209 86040000 		.4byte	0x486
 1290 020d 18020000 		.4byte	0x218
 1291 0211 14       		.uleb128 0x14
 1292 0212 01       		.byte	0x1
 1293 0213 50       		.byte	0x50
 1294 0214 02       		.byte	0x2
 1295 0215 75       		.byte	0x75
 1296 0216 00       		.sleb128 0
 1297 0217 00       		.byte	0
 1298 0218 15       		.uleb128 0x15
 1299 0219 52000000 		.4byte	.LVL2
 1300 021d A0040000 		.4byte	0x4a0
 1301 0221 13       		.uleb128 0x13
 1302 0222 5A000000 		.4byte	.LVL3
 1303 0226 AF040000 		.4byte	0x4af
 1304 022a 38020000 		.4byte	0x238
 1305 022e 14       		.uleb128 0x14
ARM GAS  C:\Users\Steve\AppData\Local\Temp\cc3MKthr.s 			page 32


 1306 022f 01       		.byte	0x1
 1307 0230 50       		.byte	0x50
 1308 0231 05       		.byte	0x5
 1309 0232 03       		.byte	0x3
 1310 0233 00000000 		.4byte	FIFO_EMPTY
 1311 0237 00       		.byte	0
 1312 0238 15       		.uleb128 0x15
 1313 0239 5E000000 		.4byte	.LVL4
 1314 023d C3040000 		.4byte	0x4c3
 1315 0241 15       		.uleb128 0x15
 1316 0242 62000000 		.4byte	.LVL5
 1317 0246 CD040000 		.4byte	0x4cd
 1318 024a 13       		.uleb128 0x13
 1319 024b 68000000 		.4byte	.LVL6
 1320 024f D7040000 		.4byte	0x4d7
 1321 0253 61020000 		.4byte	0x261
 1322 0257 14       		.uleb128 0x14
 1323 0258 01       		.byte	0x1
 1324 0259 50       		.byte	0x50
 1325 025a 05       		.byte	0x5
 1326 025b 03       		.byte	0x3
 1327 025c 00000000 		.4byte	eoc_isr
 1328 0260 00       		.byte	0
 1329 0261 13       		.uleb128 0x13
 1330 0262 7A000000 		.4byte	.LVL9
 1331 0266 EB040000 		.4byte	0x4eb
 1332 026a 74020000 		.4byte	0x274
 1333 026e 14       		.uleb128 0x14
 1334 026f 01       		.byte	0x1
 1335 0270 50       		.byte	0x50
 1336 0271 01       		.byte	0x1
 1337 0272 31       		.byte	0x31
 1338 0273 00       		.byte	0
 1339 0274 13       		.uleb128 0x13
 1340 0275 88000000 		.4byte	.LVL10
 1341 0279 FF040000 		.4byte	0x4ff
 1342 027d 91020000 		.4byte	0x291
 1343 0281 14       		.uleb128 0x14
 1344 0282 01       		.byte	0x1
 1345 0283 51       		.byte	0x51
 1346 0284 05       		.byte	0x5
 1347 0285 03       		.byte	0x3
 1348 0286 04000000 		.4byte	.LANCHOR0+4
 1349 028a 14       		.uleb128 0x14
 1350 028b 01       		.byte	0x1
 1351 028c 50       		.byte	0x50
 1352 028d 02       		.byte	0x2
 1353 028e 76       		.byte	0x76
 1354 028f 00       		.sleb128 0
 1355 0290 00       		.byte	0
 1356 0291 13       		.uleb128 0x13
 1357 0292 94000000 		.4byte	.LVL12
 1358 0296 86040000 		.4byte	0x486
 1359 029a A5020000 		.4byte	0x2a5
 1360 029e 14       		.uleb128 0x14
 1361 029f 01       		.byte	0x1
 1362 02a0 50       		.byte	0x50
ARM GAS  C:\Users\Steve\AppData\Local\Temp\cc3MKthr.s 			page 33


 1363 02a1 02       		.byte	0x2
 1364 02a2 78       		.byte	0x78
 1365 02a3 00       		.sleb128 0
 1366 02a4 00       		.byte	0
 1367 02a5 13       		.uleb128 0x13
 1368 02a6 F6000000 		.4byte	.LVL21
 1369 02aa 28050000 		.4byte	0x528
 1370 02ae BF020000 		.4byte	0x2bf
 1371 02b2 14       		.uleb128 0x14
 1372 02b3 01       		.byte	0x1
 1373 02b4 53       		.byte	0x53
 1374 02b5 02       		.byte	0x2
 1375 02b6 78       		.byte	0x78
 1376 02b7 00       		.sleb128 0
 1377 02b8 14       		.uleb128 0x14
 1378 02b9 01       		.byte	0x1
 1379 02ba 50       		.byte	0x50
 1380 02bb 02       		.byte	0x2
 1381 02bc 77       		.byte	0x77
 1382 02bd 00       		.sleb128 0
 1383 02be 00       		.byte	0
 1384 02bf 13       		.uleb128 0x13
 1385 02c0 12010000 		.4byte	.LVL22
 1386 02c4 28050000 		.4byte	0x528
 1387 02c8 D8020000 		.4byte	0x2d8
 1388 02cc 14       		.uleb128 0x14
 1389 02cd 01       		.byte	0x1
 1390 02ce 53       		.byte	0x53
 1391 02cf 02       		.byte	0x2
 1392 02d0 78       		.byte	0x78
 1393 02d1 00       		.sleb128 0
 1394 02d2 14       		.uleb128 0x14
 1395 02d3 01       		.byte	0x1
 1396 02d4 50       		.byte	0x50
 1397 02d5 01       		.byte	0x1
 1398 02d6 31       		.byte	0x31
 1399 02d7 00       		.byte	0
 1400 02d8 13       		.uleb128 0x13
 1401 02d9 28010000 		.4byte	.LVL23
 1402 02dd 28050000 		.4byte	0x528
 1403 02e1 F1020000 		.4byte	0x2f1
 1404 02e5 14       		.uleb128 0x14
 1405 02e6 01       		.byte	0x1
 1406 02e7 53       		.byte	0x53
 1407 02e8 02       		.byte	0x2
 1408 02e9 78       		.byte	0x78
 1409 02ea 00       		.sleb128 0
 1410 02eb 14       		.uleb128 0x14
 1411 02ec 01       		.byte	0x1
 1412 02ed 50       		.byte	0x50
 1413 02ee 01       		.byte	0x1
 1414 02ef 32       		.byte	0x32
 1415 02f0 00       		.byte	0
 1416 02f1 13       		.uleb128 0x13
 1417 02f2 44010000 		.4byte	.LVL24
 1418 02f6 28050000 		.4byte	0x528
 1419 02fa 0A030000 		.4byte	0x30a
ARM GAS  C:\Users\Steve\AppData\Local\Temp\cc3MKthr.s 			page 34


 1420 02fe 14       		.uleb128 0x14
 1421 02ff 01       		.byte	0x1
 1422 0300 53       		.byte	0x53
 1423 0301 02       		.byte	0x2
 1424 0302 78       		.byte	0x78
 1425 0303 00       		.sleb128 0
 1426 0304 14       		.uleb128 0x14
 1427 0305 01       		.byte	0x1
 1428 0306 50       		.byte	0x50
 1429 0307 01       		.byte	0x1
 1430 0308 33       		.byte	0x33
 1431 0309 00       		.byte	0
 1432 030a 13       		.uleb128 0x13
 1433 030b 52010000 		.4byte	.LVL25
 1434 030f 28050000 		.4byte	0x528
 1435 0313 23030000 		.4byte	0x323
 1436 0317 14       		.uleb128 0x14
 1437 0318 01       		.byte	0x1
 1438 0319 53       		.byte	0x53
 1439 031a 02       		.byte	0x2
 1440 031b 78       		.byte	0x78
 1441 031c 00       		.sleb128 0
 1442 031d 14       		.uleb128 0x14
 1443 031e 01       		.byte	0x1
 1444 031f 50       		.byte	0x50
 1445 0320 01       		.byte	0x1
 1446 0321 34       		.byte	0x34
 1447 0322 00       		.byte	0
 1448 0323 13       		.uleb128 0x13
 1449 0324 6E010000 		.4byte	.LVL26
 1450 0328 28050000 		.4byte	0x528
 1451 032c 3C030000 		.4byte	0x33c
 1452 0330 14       		.uleb128 0x14
 1453 0331 01       		.byte	0x1
 1454 0332 53       		.byte	0x53
 1455 0333 02       		.byte	0x2
 1456 0334 78       		.byte	0x78
 1457 0335 00       		.sleb128 0
 1458 0336 14       		.uleb128 0x14
 1459 0337 01       		.byte	0x1
 1460 0338 50       		.byte	0x50
 1461 0339 01       		.byte	0x1
 1462 033a 35       		.byte	0x35
 1463 033b 00       		.byte	0
 1464 033c 13       		.uleb128 0x13
 1465 033d 7A010000 		.4byte	.LVL27
 1466 0341 28050000 		.4byte	0x528
 1467 0345 5A030000 		.4byte	0x35a
 1468 0349 14       		.uleb128 0x14
 1469 034a 01       		.byte	0x1
 1470 034b 53       		.byte	0x53
 1471 034c 02       		.byte	0x2
 1472 034d 78       		.byte	0x78
 1473 034e 00       		.sleb128 0
 1474 034f 14       		.uleb128 0x14
 1475 0350 01       		.byte	0x1
 1476 0351 51       		.byte	0x51
ARM GAS  C:\Users\Steve\AppData\Local\Temp\cc3MKthr.s 			page 35


 1477 0352 01       		.byte	0x1
 1478 0353 3F       		.byte	0x3f
 1479 0354 14       		.uleb128 0x14
 1480 0355 01       		.byte	0x1
 1481 0356 50       		.byte	0x50
 1482 0357 01       		.byte	0x1
 1483 0358 36       		.byte	0x36
 1484 0359 00       		.byte	0
 1485 035a 16       		.uleb128 0x16
 1486 035b 86010000 		.4byte	.LVL28
 1487 035f 28050000 		.4byte	0x528
 1488 0363 14       		.uleb128 0x14
 1489 0364 01       		.byte	0x1
 1490 0365 53       		.byte	0x53
 1491 0366 02       		.byte	0x2
 1492 0367 78       		.byte	0x78
 1493 0368 00       		.sleb128 0
 1494 0369 14       		.uleb128 0x14
 1495 036a 01       		.byte	0x1
 1496 036b 51       		.byte	0x51
 1497 036c 01       		.byte	0x1
 1498 036d 3F       		.byte	0x3f
 1499 036e 14       		.uleb128 0x14
 1500 036f 01       		.byte	0x1
 1501 0370 50       		.byte	0x50
 1502 0371 01       		.byte	0x1
 1503 0372 37       		.byte	0x37
 1504 0373 00       		.byte	0
 1505 0374 00       		.byte	0
 1506 0375 0B       		.uleb128 0xb
 1507 0376 60010000 		.4byte	0x160
 1508 037a 85030000 		.4byte	0x385
 1509 037e 0C       		.uleb128 0xc
 1510 037f E4000000 		.4byte	0xe4
 1511 0383 07       		.byte	0x7
 1512 0384 00       		.byte	0
 1513 0385 0B       		.uleb128 0xb
 1514 0386 28010000 		.4byte	0x128
 1515 038a 95030000 		.4byte	0x395
 1516 038e 0C       		.uleb128 0xc
 1517 038f E4000000 		.4byte	0xe4
 1518 0393 3F       		.byte	0x3f
 1519 0394 00       		.byte	0
 1520 0395 17       		.uleb128 0x17
 1521 0396 9B010000 		.4byte	.LASF27
 1522 039a 01       		.byte	0x1
 1523 039b 30       		.byte	0x30
 1524 039c 85030000 		.4byte	0x385
 1525 03a0 01       		.byte	0x1
 1526 03a1 05       		.byte	0x5
 1527 03a2 03       		.byte	0x3
 1528 03a3 00000000 		.4byte	matrix
 1529 03a7 18       		.uleb128 0x18
 1530 03a8 6A00     		.ascii	"j\000"
 1531 03aa 01       		.byte	0x1
 1532 03ab 2C       		.byte	0x2c
 1533 03ac 6F000000 		.4byte	0x6f
ARM GAS  C:\Users\Steve\AppData\Local\Temp\cc3MKthr.s 			page 36


 1534 03b0 01       		.byte	0x1
 1535 03b1 05       		.byte	0x5
 1536 03b2 03       		.byte	0x3
 1537 03b3 00000000 		.4byte	j
 1538 03b7 17       		.uleb128 0x17
 1539 03b8 07010000 		.4byte	.LASF28
 1540 03bc 01       		.byte	0x1
 1541 03bd 2C       		.byte	0x2c
 1542 03be 6F000000 		.4byte	0x6f
 1543 03c2 01       		.byte	0x1
 1544 03c3 05       		.byte	0x5
 1545 03c4 03       		.byte	0x3
 1546 03c5 00000000 		.4byte	pwm_count
 1547 03c9 17       		.uleb128 0x17
 1548 03ca B5000000 		.4byte	.LASF29
 1549 03ce 01       		.byte	0x1
 1550 03cf 2E       		.byte	0x2e
 1551 03d0 6F000000 		.4byte	0x6f
 1552 03d4 01       		.byte	0x1
 1553 03d5 05       		.byte	0x5
 1554 03d6 03       		.byte	0x3
 1555 03d7 00000000 		.4byte	bit_shift
 1556 03db 0B       		.uleb128 0xb
 1557 03dc 90000000 		.4byte	0x90
 1558 03e0 EB030000 		.4byte	0x3eb
 1559 03e4 0C       		.uleb128 0xc
 1560 03e5 E4000000 		.4byte	0xe4
 1561 03e9 07       		.byte	0x7
 1562 03ea 00       		.byte	0
 1563 03eb 17       		.uleb128 0x17
 1564 03ec BF000000 		.4byte	.LASF30
 1565 03f0 01       		.byte	0x1
 1566 03f1 32       		.byte	0x32
 1567 03f2 DB030000 		.4byte	0x3db
 1568 03f6 01       		.byte	0x1
 1569 03f7 05       		.byte	0x5
 1570 03f8 03       		.byte	0x3
 1571 03f9 00000000 		.4byte	height
 1572 03fd 18       		.uleb128 0x18
 1573 03fe 504200   		.ascii	"PB\000"
 1574 0401 01       		.byte	0x1
 1575 0402 46       		.byte	0x46
 1576 0403 61000000 		.4byte	0x61
 1577 0407 01       		.byte	0x1
 1578 0408 05       		.byte	0x5
 1579 0409 03       		.byte	0x3
 1580 040a 00000000 		.4byte	PB
 1581 040e 17       		.uleb128 0x17
 1582 040f A2010000 		.4byte	.LASF31
 1583 0413 01       		.byte	0x1
 1584 0414 C2       		.byte	0xc2
 1585 0415 6F000000 		.4byte	0x6f
 1586 0419 01       		.byte	0x1
 1587 041a 05       		.byte	0x5
 1588 041b 03       		.byte	0x3
 1589 041c 00000000 		.4byte	dataReady
 1590 0420 0B       		.uleb128 0xb
ARM GAS  C:\Users\Steve\AppData\Local\Temp\cc3MKthr.s 			page 37


 1591 0421 7A000000 		.4byte	0x7a
 1592 0425 30040000 		.4byte	0x430
 1593 0429 0C       		.uleb128 0xc
 1594 042a E4000000 		.4byte	0xe4
 1595 042e 07       		.byte	0x7
 1596 042f 00       		.byte	0
 1597 0430 17       		.uleb128 0x17
 1598 0431 4C010000 		.4byte	.LASF32
 1599 0435 01       		.byte	0x1
 1600 0436 C3       		.byte	0xc3
 1601 0437 20040000 		.4byte	0x420
 1602 043b 01       		.byte	0x1
 1603 043c 05       		.byte	0x5
 1604 043d 03       		.byte	0x3
 1605 043e 00000000 		.4byte	result
 1606 0442 0B       		.uleb128 0xb
 1607 0443 6F000000 		.4byte	0x6f
 1608 0447 52040000 		.4byte	0x452
 1609 044b 0C       		.uleb128 0xc
 1610 044c E4000000 		.4byte	0xe4
 1611 0450 07       		.byte	0x7
 1612 0451 00       		.byte	0
 1613 0452 17       		.uleb128 0x17
 1614 0453 6A010000 		.4byte	.LASF33
 1615 0457 01       		.byte	0x1
 1616 0458 C4       		.byte	0xc4
 1617 0459 42040000 		.4byte	0x442
 1618 045d 01       		.byte	0x1
 1619 045e 05       		.byte	0x5
 1620 045f 03       		.byte	0x3
 1621 0460 00000000 		.4byte	oldResult
 1622 0464 18       		.uleb128 0x18
 1623 0465 7700     		.ascii	"w\000"
 1624 0467 01       		.byte	0x1
 1625 0468 C5       		.byte	0xc5
 1626 0469 61000000 		.4byte	0x61
 1627 046d 01       		.byte	0x1
 1628 046e 05       		.byte	0x5
 1629 046f 03       		.byte	0x3
 1630 0470 00000000 		.4byte	w
 1631 0474 17       		.uleb128 0x17
 1632 0475 7D010000 		.4byte	.LASF34
 1633 0479 01       		.byte	0x1
 1634 047a C6       		.byte	0xc6
 1635 047b 61000000 		.4byte	0x61
 1636 047f 01       		.byte	0x1
 1637 0480 05       		.byte	0x5
 1638 0481 03       		.byte	0x3
 1639 0482 00000000 		.4byte	refresh
 1640 0486 19       		.uleb128 0x19
 1641 0487 01       		.byte	0x1
 1642 0488 A9000000 		.4byte	.LASF35
 1643 048c 03       		.byte	0x3
 1644 048d 3F       		.byte	0x3f
 1645 048e 01       		.byte	0x1
 1646 048f 01       		.byte	0x1
 1647 0490 9A040000 		.4byte	0x49a
ARM GAS  C:\Users\Steve\AppData\Local\Temp\cc3MKthr.s 			page 38


 1648 0494 1A       		.uleb128 0x1a
 1649 0495 9A040000 		.4byte	0x49a
 1650 0499 00       		.byte	0
 1651 049a 07       		.uleb128 0x7
 1652 049b 04       		.byte	0x4
 1653 049c 28010000 		.4byte	0x128
 1654 04a0 1B       		.uleb128 0x1b
 1655 04a1 01       		.byte	0x1
 1656 04a2 4F000000 		.4byte	.LASF41
 1657 04a6 08       		.byte	0x8
 1658 04a7 4E       		.byte	0x4e
 1659 04a8 01       		.byte	0x1
 1660 04a9 AF040000 		.4byte	0x4af
 1661 04ad 1C       		.uleb128 0x1c
 1662 04ae 00       		.byte	0
 1663 04af 19       		.uleb128 0x19
 1664 04b0 01       		.byte	0x1
 1665 04b1 7E000000 		.4byte	.LASF36
 1666 04b5 04       		.byte	0x4
 1667 04b6 18       		.byte	0x18
 1668 04b7 01       		.byte	0x1
 1669 04b8 01       		.byte	0x1
 1670 04b9 C3040000 		.4byte	0x4c3
 1671 04bd 1A       		.uleb128 0x1a
 1672 04be D0000000 		.4byte	0xd0
 1673 04c2 00       		.byte	0
 1674 04c3 1D       		.uleb128 0x1d
 1675 04c4 01       		.byte	0x1
 1676 04c5 53010000 		.4byte	.LASF37
 1677 04c9 05       		.byte	0x5
 1678 04ca 87       		.byte	0x87
 1679 04cb 01       		.byte	0x1
 1680 04cc 01       		.byte	0x1
 1681 04cd 1D       		.uleb128 0x1d
 1682 04ce 01       		.byte	0x1
 1683 04cf 85010000 		.4byte	.LASF38
 1684 04d3 05       		.byte	0x5
 1685 04d4 8B       		.byte	0x8b
 1686 04d5 01       		.byte	0x1
 1687 04d6 01       		.byte	0x1
 1688 04d7 19       		.uleb128 0x19
 1689 04d8 01       		.byte	0x1
 1690 04d9 EF000000 		.4byte	.LASF39
 1691 04dd 06       		.byte	0x6
 1692 04de 18       		.byte	0x18
 1693 04df 01       		.byte	0x1
 1694 04e0 01       		.byte	0x1
 1695 04e1 EB040000 		.4byte	0x4eb
 1696 04e5 1A       		.uleb128 0x1a
 1697 04e6 D0000000 		.4byte	0xd0
 1698 04ea 00       		.byte	0
 1699 04eb 19       		.uleb128 0x19
 1700 04ec 01       		.byte	0x1
 1701 04ed 50020000 		.4byte	.LASF40
 1702 04f1 07       		.byte	0x7
 1703 04f2 69       		.byte	0x69
 1704 04f3 01       		.byte	0x1
ARM GAS  C:\Users\Steve\AppData\Local\Temp\cc3MKthr.s 			page 39


 1705 04f4 01       		.byte	0x1
 1706 04f5 FF040000 		.4byte	0x4ff
 1707 04f9 1A       		.uleb128 0x1a
 1708 04fa 85000000 		.4byte	0x85
 1709 04fe 00       		.byte	0
 1710 04ff 1E       		.uleb128 0x1e
 1711 0500 01       		.byte	0x1
 1712 0501 28010000 		.4byte	.LASF47
 1713 0505 03       		.byte	0x3
 1714 0506 5D       		.byte	0x5d
 1715 0507 01       		.byte	0x1
 1716 0508 61000000 		.4byte	0x61
 1717 050c 01       		.byte	0x1
 1718 050d 1C050000 		.4byte	0x51c
 1719 0511 1A       		.uleb128 0x1a
 1720 0512 1C050000 		.4byte	0x51c
 1721 0516 1A       		.uleb128 0x1a
 1722 0517 22050000 		.4byte	0x522
 1723 051b 00       		.byte	0
 1724 051c 07       		.uleb128 0x7
 1725 051d 04       		.byte	0x4
 1726 051e 6F000000 		.4byte	0x6f
 1727 0522 07       		.uleb128 0x7
 1728 0523 04       		.byte	0x4
 1729 0524 7A000000 		.4byte	0x7a
 1730 0528 1F       		.uleb128 0x1f
 1731 0529 01       		.byte	0x1
 1732 052a 1E010000 		.4byte	.LASF42
 1733 052e 03       		.byte	0x3
 1734 052f 5C       		.byte	0x5c
 1735 0530 01       		.byte	0x1
 1736 0531 01       		.byte	0x1
 1737 0532 1A       		.uleb128 0x1a
 1738 0533 90000000 		.4byte	0x90
 1739 0537 1A       		.uleb128 0x1a
 1740 0538 90000000 		.4byte	0x90
 1741 053c 1A       		.uleb128 0x1a
 1742 053d 60010000 		.4byte	0x160
 1743 0541 1A       		.uleb128 0x1a
 1744 0542 9A040000 		.4byte	0x49a
 1745 0546 00       		.byte	0
 1746 0547 00       		.byte	0
 1747              		.section	.debug_abbrev,"",%progbits
 1748              	.Ldebug_abbrev0:
 1749 0000 01       		.uleb128 0x1
 1750 0001 11       		.uleb128 0x11
 1751 0002 01       		.byte	0x1
 1752 0003 25       		.uleb128 0x25
 1753 0004 0E       		.uleb128 0xe
 1754 0005 13       		.uleb128 0x13
 1755 0006 0B       		.uleb128 0xb
 1756 0007 03       		.uleb128 0x3
 1757 0008 0E       		.uleb128 0xe
 1758 0009 1B       		.uleb128 0x1b
 1759 000a 0E       		.uleb128 0xe
 1760 000b 55       		.uleb128 0x55
 1761 000c 06       		.uleb128 0x6
ARM GAS  C:\Users\Steve\AppData\Local\Temp\cc3MKthr.s 			page 40


 1762 000d 11       		.uleb128 0x11
 1763 000e 01       		.uleb128 0x1
 1764 000f 52       		.uleb128 0x52
 1765 0010 01       		.uleb128 0x1
 1766 0011 10       		.uleb128 0x10
 1767 0012 06       		.uleb128 0x6
 1768 0013 00       		.byte	0
 1769 0014 00       		.byte	0
 1770 0015 02       		.uleb128 0x2
 1771 0016 24       		.uleb128 0x24
 1772 0017 00       		.byte	0
 1773 0018 0B       		.uleb128 0xb
 1774 0019 0B       		.uleb128 0xb
 1775 001a 3E       		.uleb128 0x3e
 1776 001b 0B       		.uleb128 0xb
 1777 001c 03       		.uleb128 0x3
 1778 001d 0E       		.uleb128 0xe
 1779 001e 00       		.byte	0
 1780 001f 00       		.byte	0
 1781 0020 03       		.uleb128 0x3
 1782 0021 24       		.uleb128 0x24
 1783 0022 00       		.byte	0
 1784 0023 0B       		.uleb128 0xb
 1785 0024 0B       		.uleb128 0xb
 1786 0025 3E       		.uleb128 0x3e
 1787 0026 0B       		.uleb128 0xb
 1788 0027 03       		.uleb128 0x3
 1789 0028 08       		.uleb128 0x8
 1790 0029 00       		.byte	0
 1791 002a 00       		.byte	0
 1792 002b 04       		.uleb128 0x4
 1793 002c 16       		.uleb128 0x16
 1794 002d 00       		.byte	0
 1795 002e 03       		.uleb128 0x3
 1796 002f 0E       		.uleb128 0xe
 1797 0030 3A       		.uleb128 0x3a
 1798 0031 0B       		.uleb128 0xb
 1799 0032 3B       		.uleb128 0x3b
 1800 0033 0B       		.uleb128 0xb
 1801 0034 49       		.uleb128 0x49
 1802 0035 13       		.uleb128 0x13
 1803 0036 00       		.byte	0
 1804 0037 00       		.byte	0
 1805 0038 05       		.uleb128 0x5
 1806 0039 35       		.uleb128 0x35
 1807 003a 00       		.byte	0
 1808 003b 49       		.uleb128 0x49
 1809 003c 13       		.uleb128 0x13
 1810 003d 00       		.byte	0
 1811 003e 00       		.byte	0
 1812 003f 06       		.uleb128 0x6
 1813 0040 16       		.uleb128 0x16
 1814 0041 00       		.byte	0
 1815 0042 03       		.uleb128 0x3
 1816 0043 0E       		.uleb128 0xe
 1817 0044 3A       		.uleb128 0x3a
 1818 0045 0B       		.uleb128 0xb
ARM GAS  C:\Users\Steve\AppData\Local\Temp\cc3MKthr.s 			page 41


 1819 0046 3B       		.uleb128 0x3b
 1820 0047 05       		.uleb128 0x5
 1821 0048 49       		.uleb128 0x49
 1822 0049 13       		.uleb128 0x13
 1823 004a 00       		.byte	0
 1824 004b 00       		.byte	0
 1825 004c 07       		.uleb128 0x7
 1826 004d 0F       		.uleb128 0xf
 1827 004e 00       		.byte	0
 1828 004f 0B       		.uleb128 0xb
 1829 0050 0B       		.uleb128 0xb
 1830 0051 49       		.uleb128 0x49
 1831 0052 13       		.uleb128 0x13
 1832 0053 00       		.byte	0
 1833 0054 00       		.byte	0
 1834 0055 08       		.uleb128 0x8
 1835 0056 15       		.uleb128 0x15
 1836 0057 00       		.byte	0
 1837 0058 27       		.uleb128 0x27
 1838 0059 0C       		.uleb128 0xc
 1839 005a 00       		.byte	0
 1840 005b 00       		.byte	0
 1841 005c 09       		.uleb128 0x9
 1842 005d 13       		.uleb128 0x13
 1843 005e 01       		.byte	0x1
 1844 005f 0B       		.uleb128 0xb
 1845 0060 0B       		.uleb128 0xb
 1846 0061 3A       		.uleb128 0x3a
 1847 0062 0B       		.uleb128 0xb
 1848 0063 3B       		.uleb128 0x3b
 1849 0064 0B       		.uleb128 0xb
 1850 0065 01       		.uleb128 0x1
 1851 0066 13       		.uleb128 0x13
 1852 0067 00       		.byte	0
 1853 0068 00       		.byte	0
 1854 0069 0A       		.uleb128 0xa
 1855 006a 0D       		.uleb128 0xd
 1856 006b 00       		.byte	0
 1857 006c 03       		.uleb128 0x3
 1858 006d 08       		.uleb128 0x8
 1859 006e 3A       		.uleb128 0x3a
 1860 006f 0B       		.uleb128 0xb
 1861 0070 3B       		.uleb128 0x3b
 1862 0071 0B       		.uleb128 0xb
 1863 0072 49       		.uleb128 0x49
 1864 0073 13       		.uleb128 0x13
 1865 0074 38       		.uleb128 0x38
 1866 0075 0A       		.uleb128 0xa
 1867 0076 00       		.byte	0
 1868 0077 00       		.byte	0
 1869 0078 0B       		.uleb128 0xb
 1870 0079 01       		.uleb128 0x1
 1871 007a 01       		.byte	0x1
 1872 007b 49       		.uleb128 0x49
 1873 007c 13       		.uleb128 0x13
 1874 007d 01       		.uleb128 0x1
 1875 007e 13       		.uleb128 0x13
ARM GAS  C:\Users\Steve\AppData\Local\Temp\cc3MKthr.s 			page 42


 1876 007f 00       		.byte	0
 1877 0080 00       		.byte	0
 1878 0081 0C       		.uleb128 0xc
 1879 0082 21       		.uleb128 0x21
 1880 0083 00       		.byte	0
 1881 0084 49       		.uleb128 0x49
 1882 0085 13       		.uleb128 0x13
 1883 0086 2F       		.uleb128 0x2f
 1884 0087 0B       		.uleb128 0xb
 1885 0088 00       		.byte	0
 1886 0089 00       		.byte	0
 1887 008a 0D       		.uleb128 0xd
 1888 008b 16       		.uleb128 0x16
 1889 008c 00       		.byte	0
 1890 008d 03       		.uleb128 0x3
 1891 008e 08       		.uleb128 0x8
 1892 008f 3A       		.uleb128 0x3a
 1893 0090 0B       		.uleb128 0xb
 1894 0091 3B       		.uleb128 0x3b
 1895 0092 0B       		.uleb128 0xb
 1896 0093 49       		.uleb128 0x49
 1897 0094 13       		.uleb128 0x13
 1898 0095 00       		.byte	0
 1899 0096 00       		.byte	0
 1900 0097 0E       		.uleb128 0xe
 1901 0098 2E       		.uleb128 0x2e
 1902 0099 00       		.byte	0
 1903 009a 3F       		.uleb128 0x3f
 1904 009b 0C       		.uleb128 0xc
 1905 009c 03       		.uleb128 0x3
 1906 009d 0E       		.uleb128 0xe
 1907 009e 3A       		.uleb128 0x3a
 1908 009f 0B       		.uleb128 0xb
 1909 00a0 3B       		.uleb128 0x3b
 1910 00a1 0B       		.uleb128 0xb
 1911 00a2 27       		.uleb128 0x27
 1912 00a3 0C       		.uleb128 0xc
 1913 00a4 11       		.uleb128 0x11
 1914 00a5 01       		.uleb128 0x1
 1915 00a6 12       		.uleb128 0x12
 1916 00a7 01       		.uleb128 0x1
 1917 00a8 40       		.uleb128 0x40
 1918 00a9 06       		.uleb128 0x6
 1919 00aa 9742     		.uleb128 0x2117
 1920 00ac 0C       		.uleb128 0xc
 1921 00ad 00       		.byte	0
 1922 00ae 00       		.byte	0
 1923 00af 0F       		.uleb128 0xf
 1924 00b0 2E       		.uleb128 0x2e
 1925 00b1 01       		.byte	0x1
 1926 00b2 3F       		.uleb128 0x3f
 1927 00b3 0C       		.uleb128 0xc
 1928 00b4 03       		.uleb128 0x3
 1929 00b5 0E       		.uleb128 0xe
 1930 00b6 3A       		.uleb128 0x3a
 1931 00b7 0B       		.uleb128 0xb
 1932 00b8 3B       		.uleb128 0x3b
ARM GAS  C:\Users\Steve\AppData\Local\Temp\cc3MKthr.s 			page 43


 1933 00b9 0B       		.uleb128 0xb
 1934 00ba 49       		.uleb128 0x49
 1935 00bb 13       		.uleb128 0x13
 1936 00bc 11       		.uleb128 0x11
 1937 00bd 01       		.uleb128 0x1
 1938 00be 12       		.uleb128 0x12
 1939 00bf 01       		.uleb128 0x1
 1940 00c0 40       		.uleb128 0x40
 1941 00c1 06       		.uleb128 0x6
 1942 00c2 9742     		.uleb128 0x2117
 1943 00c4 0C       		.uleb128 0xc
 1944 00c5 01       		.uleb128 0x1
 1945 00c6 13       		.uleb128 0x13
 1946 00c7 00       		.byte	0
 1947 00c8 00       		.byte	0
 1948 00c9 10       		.uleb128 0x10
 1949 00ca 34       		.uleb128 0x34
 1950 00cb 00       		.byte	0
 1951 00cc 03       		.uleb128 0x3
 1952 00cd 08       		.uleb128 0x8
 1953 00ce 3A       		.uleb128 0x3a
 1954 00cf 0B       		.uleb128 0xb
 1955 00d0 3B       		.uleb128 0x3b
 1956 00d1 0B       		.uleb128 0xb
 1957 00d2 49       		.uleb128 0x49
 1958 00d3 13       		.uleb128 0x13
 1959 00d4 02       		.uleb128 0x2
 1960 00d5 06       		.uleb128 0x6
 1961 00d6 00       		.byte	0
 1962 00d7 00       		.byte	0
 1963 00d8 11       		.uleb128 0x11
 1964 00d9 34       		.uleb128 0x34
 1965 00da 00       		.byte	0
 1966 00db 03       		.uleb128 0x3
 1967 00dc 0E       		.uleb128 0xe
 1968 00dd 3A       		.uleb128 0x3a
 1969 00de 0B       		.uleb128 0xb
 1970 00df 3B       		.uleb128 0x3b
 1971 00e0 0B       		.uleb128 0xb
 1972 00e1 49       		.uleb128 0x49
 1973 00e2 13       		.uleb128 0x13
 1974 00e3 02       		.uleb128 0x2
 1975 00e4 0A       		.uleb128 0xa
 1976 00e5 00       		.byte	0
 1977 00e6 00       		.byte	0
 1978 00e7 12       		.uleb128 0x12
 1979 00e8 34       		.uleb128 0x34
 1980 00e9 00       		.byte	0
 1981 00ea 03       		.uleb128 0x3
 1982 00eb 0E       		.uleb128 0xe
 1983 00ec 3A       		.uleb128 0x3a
 1984 00ed 0B       		.uleb128 0xb
 1985 00ee 3B       		.uleb128 0x3b
 1986 00ef 05       		.uleb128 0x5
 1987 00f0 49       		.uleb128 0x49
 1988 00f1 13       		.uleb128 0x13
 1989 00f2 02       		.uleb128 0x2
ARM GAS  C:\Users\Steve\AppData\Local\Temp\cc3MKthr.s 			page 44


 1990 00f3 06       		.uleb128 0x6
 1991 00f4 00       		.byte	0
 1992 00f5 00       		.byte	0
 1993 00f6 13       		.uleb128 0x13
 1994 00f7 898201   		.uleb128 0x4109
 1995 00fa 01       		.byte	0x1
 1996 00fb 11       		.uleb128 0x11
 1997 00fc 01       		.uleb128 0x1
 1998 00fd 31       		.uleb128 0x31
 1999 00fe 13       		.uleb128 0x13
 2000 00ff 01       		.uleb128 0x1
 2001 0100 13       		.uleb128 0x13
 2002 0101 00       		.byte	0
 2003 0102 00       		.byte	0
 2004 0103 14       		.uleb128 0x14
 2005 0104 8A8201   		.uleb128 0x410a
 2006 0107 00       		.byte	0
 2007 0108 02       		.uleb128 0x2
 2008 0109 0A       		.uleb128 0xa
 2009 010a 9142     		.uleb128 0x2111
 2010 010c 0A       		.uleb128 0xa
 2011 010d 00       		.byte	0
 2012 010e 00       		.byte	0
 2013 010f 15       		.uleb128 0x15
 2014 0110 898201   		.uleb128 0x4109
 2015 0113 00       		.byte	0
 2016 0114 11       		.uleb128 0x11
 2017 0115 01       		.uleb128 0x1
 2018 0116 31       		.uleb128 0x31
 2019 0117 13       		.uleb128 0x13
 2020 0118 00       		.byte	0
 2021 0119 00       		.byte	0
 2022 011a 16       		.uleb128 0x16
 2023 011b 898201   		.uleb128 0x4109
 2024 011e 01       		.byte	0x1
 2025 011f 11       		.uleb128 0x11
 2026 0120 01       		.uleb128 0x1
 2027 0121 31       		.uleb128 0x31
 2028 0122 13       		.uleb128 0x13
 2029 0123 00       		.byte	0
 2030 0124 00       		.byte	0
 2031 0125 17       		.uleb128 0x17
 2032 0126 34       		.uleb128 0x34
 2033 0127 00       		.byte	0
 2034 0128 03       		.uleb128 0x3
 2035 0129 0E       		.uleb128 0xe
 2036 012a 3A       		.uleb128 0x3a
 2037 012b 0B       		.uleb128 0xb
 2038 012c 3B       		.uleb128 0x3b
 2039 012d 0B       		.uleb128 0xb
 2040 012e 49       		.uleb128 0x49
 2041 012f 13       		.uleb128 0x13
 2042 0130 3F       		.uleb128 0x3f
 2043 0131 0C       		.uleb128 0xc
 2044 0132 02       		.uleb128 0x2
 2045 0133 0A       		.uleb128 0xa
 2046 0134 00       		.byte	0
ARM GAS  C:\Users\Steve\AppData\Local\Temp\cc3MKthr.s 			page 45


 2047 0135 00       		.byte	0
 2048 0136 18       		.uleb128 0x18
 2049 0137 34       		.uleb128 0x34
 2050 0138 00       		.byte	0
 2051 0139 03       		.uleb128 0x3
 2052 013a 08       		.uleb128 0x8
 2053 013b 3A       		.uleb128 0x3a
 2054 013c 0B       		.uleb128 0xb
 2055 013d 3B       		.uleb128 0x3b
 2056 013e 0B       		.uleb128 0xb
 2057 013f 49       		.uleb128 0x49
 2058 0140 13       		.uleb128 0x13
 2059 0141 3F       		.uleb128 0x3f
 2060 0142 0C       		.uleb128 0xc
 2061 0143 02       		.uleb128 0x2
 2062 0144 0A       		.uleb128 0xa
 2063 0145 00       		.byte	0
 2064 0146 00       		.byte	0
 2065 0147 19       		.uleb128 0x19
 2066 0148 2E       		.uleb128 0x2e
 2067 0149 01       		.byte	0x1
 2068 014a 3F       		.uleb128 0x3f
 2069 014b 0C       		.uleb128 0xc
 2070 014c 03       		.uleb128 0x3
 2071 014d 0E       		.uleb128 0xe
 2072 014e 3A       		.uleb128 0x3a
 2073 014f 0B       		.uleb128 0xb
 2074 0150 3B       		.uleb128 0x3b
 2075 0151 0B       		.uleb128 0xb
 2076 0152 27       		.uleb128 0x27
 2077 0153 0C       		.uleb128 0xc
 2078 0154 3C       		.uleb128 0x3c
 2079 0155 0C       		.uleb128 0xc
 2080 0156 01       		.uleb128 0x1
 2081 0157 13       		.uleb128 0x13
 2082 0158 00       		.byte	0
 2083 0159 00       		.byte	0
 2084 015a 1A       		.uleb128 0x1a
 2085 015b 05       		.uleb128 0x5
 2086 015c 00       		.byte	0
 2087 015d 49       		.uleb128 0x49
 2088 015e 13       		.uleb128 0x13
 2089 015f 00       		.byte	0
 2090 0160 00       		.byte	0
 2091 0161 1B       		.uleb128 0x1b
 2092 0162 2E       		.uleb128 0x2e
 2093 0163 01       		.byte	0x1
 2094 0164 3F       		.uleb128 0x3f
 2095 0165 0C       		.uleb128 0xc
 2096 0166 03       		.uleb128 0x3
 2097 0167 0E       		.uleb128 0xe
 2098 0168 3A       		.uleb128 0x3a
 2099 0169 0B       		.uleb128 0xb
 2100 016a 3B       		.uleb128 0x3b
 2101 016b 0B       		.uleb128 0xb
 2102 016c 3C       		.uleb128 0x3c
 2103 016d 0C       		.uleb128 0xc
ARM GAS  C:\Users\Steve\AppData\Local\Temp\cc3MKthr.s 			page 46


 2104 016e 01       		.uleb128 0x1
 2105 016f 13       		.uleb128 0x13
 2106 0170 00       		.byte	0
 2107 0171 00       		.byte	0
 2108 0172 1C       		.uleb128 0x1c
 2109 0173 18       		.uleb128 0x18
 2110 0174 00       		.byte	0
 2111 0175 00       		.byte	0
 2112 0176 00       		.byte	0
 2113 0177 1D       		.uleb128 0x1d
 2114 0178 2E       		.uleb128 0x2e
 2115 0179 00       		.byte	0
 2116 017a 3F       		.uleb128 0x3f
 2117 017b 0C       		.uleb128 0xc
 2118 017c 03       		.uleb128 0x3
 2119 017d 0E       		.uleb128 0xe
 2120 017e 3A       		.uleb128 0x3a
 2121 017f 0B       		.uleb128 0xb
 2122 0180 3B       		.uleb128 0x3b
 2123 0181 0B       		.uleb128 0xb
 2124 0182 27       		.uleb128 0x27
 2125 0183 0C       		.uleb128 0xc
 2126 0184 3C       		.uleb128 0x3c
 2127 0185 0C       		.uleb128 0xc
 2128 0186 00       		.byte	0
 2129 0187 00       		.byte	0
 2130 0188 1E       		.uleb128 0x1e
 2131 0189 2E       		.uleb128 0x2e
 2132 018a 01       		.byte	0x1
 2133 018b 3F       		.uleb128 0x3f
 2134 018c 0C       		.uleb128 0xc
 2135 018d 03       		.uleb128 0x3
 2136 018e 0E       		.uleb128 0xe
 2137 018f 3A       		.uleb128 0x3a
 2138 0190 0B       		.uleb128 0xb
 2139 0191 3B       		.uleb128 0x3b
 2140 0192 0B       		.uleb128 0xb
 2141 0193 27       		.uleb128 0x27
 2142 0194 0C       		.uleb128 0xc
 2143 0195 49       		.uleb128 0x49
 2144 0196 13       		.uleb128 0x13
 2145 0197 3C       		.uleb128 0x3c
 2146 0198 0C       		.uleb128 0xc
 2147 0199 01       		.uleb128 0x1
 2148 019a 13       		.uleb128 0x13
 2149 019b 00       		.byte	0
 2150 019c 00       		.byte	0
 2151 019d 1F       		.uleb128 0x1f
 2152 019e 2E       		.uleb128 0x2e
 2153 019f 01       		.byte	0x1
 2154 01a0 3F       		.uleb128 0x3f
 2155 01a1 0C       		.uleb128 0xc
 2156 01a2 03       		.uleb128 0x3
 2157 01a3 0E       		.uleb128 0xe
 2158 01a4 3A       		.uleb128 0x3a
 2159 01a5 0B       		.uleb128 0xb
 2160 01a6 3B       		.uleb128 0x3b
ARM GAS  C:\Users\Steve\AppData\Local\Temp\cc3MKthr.s 			page 47


 2161 01a7 0B       		.uleb128 0xb
 2162 01a8 27       		.uleb128 0x27
 2163 01a9 0C       		.uleb128 0xc
 2164 01aa 3C       		.uleb128 0x3c
 2165 01ab 0C       		.uleb128 0xc
 2166 01ac 00       		.byte	0
 2167 01ad 00       		.byte	0
 2168 01ae 00       		.byte	0
 2169              		.section	.debug_loc,"",%progbits
 2170              	.Ldebug_loc0:
 2171              	.LLST0:
 2172 0000 00000000 		.4byte	.LFB34
 2173 0004 02000000 		.4byte	.LCFI0
 2174 0008 0200     		.2byte	0x2
 2175 000a 7D       		.byte	0x7d
 2176 000b 00       		.sleb128 0
 2177 000c 02000000 		.4byte	.LCFI0
 2178 0010 0C000000 		.4byte	.LCFI1
 2179 0014 0200     		.2byte	0x2
 2180 0016 7D       		.byte	0x7d
 2181 0017 14       		.sleb128 20
 2182 0018 0C000000 		.4byte	.LCFI1
 2183 001c 1E000000 		.4byte	.LCFI2
 2184 0020 0200     		.2byte	0x2
 2185 0022 7D       		.byte	0x7d
 2186 0023 24       		.sleb128 36
 2187 0024 1E000000 		.4byte	.LCFI2
 2188 0028 DC010000 		.4byte	.LFE34
 2189 002c 0300     		.2byte	0x3
 2190 002e 7D       		.byte	0x7d
 2191 002f C000     		.sleb128 64
 2192 0031 00000000 		.4byte	0
 2193 0035 00000000 		.4byte	0
 2194              	.LLST1:
 2195 0039 00000000 		.4byte	.LFB35
 2196 003d 0E000000 		.4byte	.LCFI3
 2197 0041 0200     		.2byte	0x2
 2198 0043 7D       		.byte	0x7d
 2199 0044 00       		.sleb128 0
 2200 0045 0E000000 		.4byte	.LCFI3
 2201 0049 38010000 		.4byte	.LFE35
 2202 004d 0200     		.2byte	0x2
 2203 004f 7D       		.byte	0x7d
 2204 0050 04       		.sleb128 4
 2205 0051 00000000 		.4byte	0
 2206 0055 00000000 		.4byte	0
 2207              	.LLST2:
 2208 0059 00000000 		.4byte	.LFB33
 2209 005d 04000000 		.4byte	.LCFI4
 2210 0061 0200     		.2byte	0x2
 2211 0063 7D       		.byte	0x7d
 2212 0064 00       		.sleb128 0
 2213 0065 04000000 		.4byte	.LCFI4
 2214 0069 1C000000 		.4byte	.LFE33
 2215 006d 0200     		.2byte	0x2
 2216 006f 7D       		.byte	0x7d
 2217 0070 04       		.sleb128 4
ARM GAS  C:\Users\Steve\AppData\Local\Temp\cc3MKthr.s 			page 48


 2218 0071 00000000 		.4byte	0
 2219 0075 00000000 		.4byte	0
 2220              	.LLST3:
 2221 0079 00000000 		.4byte	.LFB36
 2222 007d 02000000 		.4byte	.LCFI5
 2223 0081 0200     		.2byte	0x2
 2224 0083 7D       		.byte	0x7d
 2225 0084 00       		.sleb128 0
 2226 0085 02000000 		.4byte	.LCFI5
 2227 0089 0C000000 		.4byte	.LCFI6
 2228 008d 0200     		.2byte	0x2
 2229 008f 7D       		.byte	0x7d
 2230 0090 14       		.sleb128 20
 2231 0091 0C000000 		.4byte	.LCFI6
 2232 0095 10000000 		.4byte	.LCFI7
 2233 0099 0200     		.2byte	0x2
 2234 009b 7D       		.byte	0x7d
 2235 009c 24       		.sleb128 36
 2236 009d 10000000 		.4byte	.LCFI7
 2237 00a1 A0010000 		.4byte	.LFE36
 2238 00a5 0300     		.2byte	0x3
 2239 00a7 7D       		.byte	0x7d
 2240 00a8 C800     		.sleb128 72
 2241 00aa 00000000 		.4byte	0
 2242 00ae 00000000 		.4byte	0
 2243              	.LLST4:
 2244 00b2 00000000 		.4byte	.LVL0
 2245 00b6 74000000 		.4byte	.LVL8
 2246 00ba 0200     		.2byte	0x2
 2247 00bc 30       		.byte	0x30
 2248 00bd 9F       		.byte	0x9f
 2249 00be 94000000 		.4byte	.LVL12
 2250 00c2 A0000000 		.4byte	.LVL13
 2251 00c6 0200     		.2byte	0x2
 2252 00c8 30       		.byte	0x30
 2253 00c9 9F       		.byte	0x9f
 2254 00ca A0000000 		.4byte	.LVL13
 2255 00ce AA000000 		.4byte	.LVL14
 2256 00d2 0200     		.2byte	0x2
 2257 00d4 31       		.byte	0x31
 2258 00d5 9F       		.byte	0x9f
 2259 00d6 AA000000 		.4byte	.LVL14
 2260 00da B6000000 		.4byte	.LVL15
 2261 00de 0200     		.2byte	0x2
 2262 00e0 32       		.byte	0x32
 2263 00e1 9F       		.byte	0x9f
 2264 00e2 B6000000 		.4byte	.LVL15
 2265 00e6 C2000000 		.4byte	.LVL16
 2266 00ea 0200     		.2byte	0x2
 2267 00ec 33       		.byte	0x33
 2268 00ed 9F       		.byte	0x9f
 2269 00ee C2000000 		.4byte	.LVL16
 2270 00f2 CE000000 		.4byte	.LVL17
 2271 00f6 0200     		.2byte	0x2
 2272 00f8 34       		.byte	0x34
 2273 00f9 9F       		.byte	0x9f
 2274 00fa CE000000 		.4byte	.LVL17
ARM GAS  C:\Users\Steve\AppData\Local\Temp\cc3MKthr.s 			page 49


 2275 00fe D8000000 		.4byte	.LVL18
 2276 0102 0200     		.2byte	0x2
 2277 0104 35       		.byte	0x35
 2278 0105 9F       		.byte	0x9f
 2279 0106 D8000000 		.4byte	.LVL18
 2280 010a E2000000 		.4byte	.LVL19
 2281 010e 0200     		.2byte	0x2
 2282 0110 36       		.byte	0x36
 2283 0111 9F       		.byte	0x9f
 2284 0112 E2000000 		.4byte	.LVL19
 2285 0116 EC000000 		.4byte	.LVL20
 2286 011a 0200     		.2byte	0x2
 2287 011c 37       		.byte	0x37
 2288 011d 9F       		.byte	0x9f
 2289 011e EC000000 		.4byte	.LVL20
 2290 0122 F6000000 		.4byte	.LVL21
 2291 0126 0200     		.2byte	0x2
 2292 0128 38       		.byte	0x38
 2293 0129 9F       		.byte	0x9f
 2294 012a F6000000 		.4byte	.LVL21
 2295 012e 12010000 		.4byte	.LVL22
 2296 0132 0200     		.2byte	0x2
 2297 0134 31       		.byte	0x31
 2298 0135 9F       		.byte	0x9f
 2299 0136 12010000 		.4byte	.LVL22
 2300 013a 28010000 		.4byte	.LVL23
 2301 013e 0200     		.2byte	0x2
 2302 0140 32       		.byte	0x32
 2303 0141 9F       		.byte	0x9f
 2304 0142 28010000 		.4byte	.LVL23
 2305 0146 44010000 		.4byte	.LVL24
 2306 014a 0200     		.2byte	0x2
 2307 014c 33       		.byte	0x33
 2308 014d 9F       		.byte	0x9f
 2309 014e 44010000 		.4byte	.LVL24
 2310 0152 52010000 		.4byte	.LVL25
 2311 0156 0200     		.2byte	0x2
 2312 0158 34       		.byte	0x34
 2313 0159 9F       		.byte	0x9f
 2314 015a 52010000 		.4byte	.LVL25
 2315 015e 6E010000 		.4byte	.LVL26
 2316 0162 0200     		.2byte	0x2
 2317 0164 35       		.byte	0x35
 2318 0165 9F       		.byte	0x9f
 2319 0166 6E010000 		.4byte	.LVL26
 2320 016a A0010000 		.4byte	.LFE36
 2321 016e 0200     		.2byte	0x2
 2322 0170 36       		.byte	0x36
 2323 0171 9F       		.byte	0x9f
 2324 0172 00000000 		.4byte	0
 2325 0176 00000000 		.4byte	0
 2326              	.LLST5:
 2327 017a 6C000000 		.4byte	.LVL7
 2328 017e 74000000 		.4byte	.LVL8
 2329 0182 0200     		.2byte	0x2
 2330 0184 30       		.byte	0x30
 2331 0185 9F       		.byte	0x9f
ARM GAS  C:\Users\Steve\AppData\Local\Temp\cc3MKthr.s 			page 50


 2332 0186 88000000 		.4byte	.LVL10
 2333 018a 90000000 		.4byte	.LVL11
 2334 018e 0100     		.2byte	0x1
 2335 0190 50       		.byte	0x50
 2336 0191 00000000 		.4byte	0
 2337 0195 00000000 		.4byte	0
 2338              		.section	.debug_aranges,"",%progbits
 2339 0000 34000000 		.4byte	0x34
 2340 0004 0200     		.2byte	0x2
 2341 0006 00000000 		.4byte	.Ldebug_info0
 2342 000a 04       		.byte	0x4
 2343 000b 00       		.byte	0
 2344 000c 0000     		.2byte	0
 2345 000e 0000     		.2byte	0
 2346 0010 00000000 		.4byte	.LFB34
 2347 0014 DC010000 		.4byte	.LFE34-.LFB34
 2348 0018 00000000 		.4byte	.LFB35
 2349 001c 38010000 		.4byte	.LFE35-.LFB35
 2350 0020 00000000 		.4byte	.LFB33
 2351 0024 1C000000 		.4byte	.LFE33-.LFB33
 2352 0028 00000000 		.4byte	.LFB36
 2353 002c A0010000 		.4byte	.LFE36-.LFB36
 2354 0030 00000000 		.4byte	0
 2355 0034 00000000 		.4byte	0
 2356              		.section	.debug_ranges,"",%progbits
 2357              	.Ldebug_ranges0:
 2358 0000 00000000 		.4byte	.LFB34
 2359 0004 DC010000 		.4byte	.LFE34
 2360 0008 00000000 		.4byte	.LFB35
 2361 000c 38010000 		.4byte	.LFE35
 2362 0010 00000000 		.4byte	.LFB33
 2363 0014 1C000000 		.4byte	.LFE33
 2364 0018 00000000 		.4byte	.LFB36
 2365 001c A0010000 		.4byte	.LFE36
 2366 0020 00000000 		.4byte	0
 2367 0024 00000000 		.4byte	0
 2368              		.section	.debug_line,"",%progbits
 2369              	.Ldebug_line0:
 2370 0000 F5010000 		.section	.debug_str,"MS",%progbits,1
 2370      02009100 
 2370      00000201 
 2370      FB0E0D00 
 2370      01010101 
 2371              	.LASF6:
 2372 0000 6C6F6E67 		.ascii	"long long int\000"
 2372      206C6F6E 
 2372      6720696E 
 2372      7400
 2373              	.LASF17:
 2374 000e 72656733 		.ascii	"reg32\000"
 2374      3200
 2375              	.LASF13:
 2376 0014 666C6F61 		.ascii	"float\000"
 2376      7400
 2377              	.LASF26:
 2378 001a 64617461 		.ascii	"dataChange\000"
 2378      4368616E 
ARM GAS  C:\Users\Steve\AppData\Local\Temp\cc3MKthr.s 			page 51


 2378      676500
 2379              	.LASF25:
 2380 0025 6C6F7473 		.ascii	"lotsOfColors\000"
 2380      4F66436F 
 2380      6C6F7273 
 2380      00
 2381              	.LASF3:
 2382 0032 73686F72 		.ascii	"short unsigned int\000"
 2382      7420756E 
 2382      7369676E 
 2382      65642069 
 2382      6E7400
 2383              	.LASF2:
 2384 0045 73686F72 		.ascii	"short int\000"
 2384      7420696E 
 2384      7400
 2385              	.LASF41:
 2386 004f 4C45445F 		.ascii	"LED_Matrix_1_Start\000"
 2386      4D617472 
 2386      69785F31 
 2386      5F537461 
 2386      727400
 2387              	.LASF22:
 2388 0062 656F635F 		.ascii	"eoc_isr\000"
 2388      69737200 
 2389              	.LASF24:
 2390 006a 77686974 		.ascii	"white\000"
 2390      6500
 2391              	.LASF1:
 2392 0070 756E7369 		.ascii	"unsigned char\000"
 2392      676E6564 
 2392      20636861 
 2392      7200
 2393              	.LASF36:
 2394 007e 6973725F 		.ascii	"isr_2_StartEx\000"
 2394      325F5374 
 2394      61727445 
 2394      7800
 2395              	.LASF16:
 2396 008c 72656738 		.ascii	"reg8\000"
 2396      00
 2397              	.LASF5:
 2398 0091 6C6F6E67 		.ascii	"long unsigned int\000"
 2398      20756E73 
 2398      69676E65 
 2398      6420696E 
 2398      7400
 2399              	.LASF9:
 2400 00a3 75696E74 		.ascii	"uint8\000"
 2400      3800
 2401              	.LASF35:
 2402 00a9 636C6561 		.ascii	"clearScreen\000"
 2402      72536372 
 2402      65656E00 
 2403              	.LASF29:
 2404 00b5 6269745F 		.ascii	"bit_shift\000"
 2404      73686966 
ARM GAS  C:\Users\Steve\AppData\Local\Temp\cc3MKthr.s 			page 52


 2404      7400
 2405              	.LASF30:
 2406 00bf 68656967 		.ascii	"height\000"
 2406      687400
 2407              	.LASF14:
 2408 00c6 646F7562 		.ascii	"double\000"
 2408      6C6500
 2409              	.LASF23:
 2410 00cd 50425F49 		.ascii	"PB_ISR\000"
 2410      535200
 2411              	.LASF44:
 2412 00d4 2E5C6D61 		.ascii	".\\main.c\000"
 2412      696E2E63 
 2412      00
 2413              	.LASF20:
 2414 00dd 636F6C6F 		.ascii	"color\000"
 2414      7200
 2415              	.LASF10:
 2416 00e3 75696E74 		.ascii	"uint16\000"
 2416      313600
 2417              	.LASF12:
 2418 00ea 696E7438 		.ascii	"int8\000"
 2418      00
 2419              	.LASF39:
 2420 00ef 656F635F 		.ascii	"eoc_StartEx\000"
 2420      53746172 
 2420      74457800 
 2421              	.LASF11:
 2422 00fb 75696E74 		.ascii	"uint32\000"
 2422      333200
 2423              	.LASF46:
 2424 0102 6D61696E 		.ascii	"main\000"
 2424      00
 2425              	.LASF28:
 2426 0107 70776D5F 		.ascii	"pwm_count\000"
 2426      636F756E 
 2426      7400
 2427              	.LASF8:
 2428 0111 756E7369 		.ascii	"unsigned int\000"
 2428      676E6564 
 2428      20696E74 
 2428      00
 2429              	.LASF42:
 2430 011e 64726177 		.ascii	"drawblock\000"
 2430      626C6F63 
 2430      6B00
 2431              	.LASF47:
 2432 0128 69664461 		.ascii	"ifDataChange\000"
 2432      74614368 
 2432      616E6765 
 2432      00
 2433              	.LASF7:
 2434 0135 6C6F6E67 		.ascii	"long long unsigned int\000"
 2434      206C6F6E 
 2434      6720756E 
 2434      7369676E 
 2434      65642069 
ARM GAS  C:\Users\Steve\AppData\Local\Temp\cc3MKthr.s 			page 53


 2435              	.LASF32:
 2436 014c 72657375 		.ascii	"result\000"
 2436      6C7400
 2437              	.LASF37:
 2438 0153 4144435F 		.ascii	"ADC_Start\000"
 2438      53746172 
 2438      7400
 2439              	.LASF18:
 2440 015d 63796973 		.ascii	"cyisraddress\000"
 2440      72616464 
 2440      72657373 
 2440      00
 2441              	.LASF33:
 2442 016a 6F6C6452 		.ascii	"oldResult\000"
 2442      6573756C 
 2442      7400
 2443              	.LASF19:
 2444 0174 73697A65 		.ascii	"sizetype\000"
 2444      74797065 
 2444      00
 2445              	.LASF34:
 2446 017d 72656672 		.ascii	"refresh\000"
 2446      65736800 
 2447              	.LASF38:
 2448 0185 4144435F 		.ascii	"ADC_StartConvert\000"
 2448      53746172 
 2448      74436F6E 
 2448      76657274 
 2448      00
 2449              	.LASF15:
 2450 0196 63686172 		.ascii	"char\000"
 2450      00
 2451              	.LASF27:
 2452 019b 6D617472 		.ascii	"matrix\000"
 2452      697800
 2453              	.LASF31:
 2454 01a2 64617461 		.ascii	"dataReady\000"
 2454      52656164 
 2454      7900
 2455              	.LASF21:
 2456 01ac 4649464F 		.ascii	"FIFO_EMPTY\000"
 2456      5F454D50 
 2456      545900
 2457              	.LASF43:
 2458 01b7 474E5520 		.ascii	"GNU C 4.7.3 20130312 (release) [ARM/embedded-4_7-br"
 2458      4320342E 
 2458      372E3320 
 2458      32303133 
 2458      30333132 
 2459 01ea 616E6368 		.ascii	"anch revision 196615]\000"
 2459      20726576 
 2459      6973696F 
 2459      6E203139 
 2459      36363135 
 2460              	.LASF45:
 2461 0200 433A5C55 		.ascii	"C:\\Users\\Steve\\Documents\\Git\\GlowTime\\RGB_LED"
 2461      73657273 
ARM GAS  C:\Users\Steve\AppData\Local\Temp\cc3MKthr.s 			page 54


 2461      5C537465 
 2461      76655C44 
 2461      6F63756D 
 2462 022d 5F4D6174 		.ascii	"_Matrix.cydsn\000"
 2462      7269782E 
 2462      63796473 
 2462      6E00
 2463              	.LASF4:
 2464 023b 6C6F6E67 		.ascii	"long int\000"
 2464      20696E74 
 2464      00
 2465              	.LASF0:
 2466 0244 7369676E 		.ascii	"signed char\000"
 2466      65642063 
 2466      68617200 
 2467              	.LASF40:
 2468 0250 43794465 		.ascii	"CyDelay\000"
 2468      6C617900 
 2469              		.ident	"GCC: (GNU Tools for ARM Embedded Processors) 4.7.3 20130312 (release) [ARM/embedded-4_7-br
