ARM GAS  C:\Users\Steve\AppData\Local\Temp\ccrtyi4m.s 			page 1


   1              		.cpu cortex-m0
   2              		.fpu softvfp
   3              		.eabi_attribute 20, 1
   4              		.eabi_attribute 21, 1
   5              		.eabi_attribute 23, 3
   6              		.eabi_attribute 24, 1
   7              		.eabi_attribute 25, 1
   8              		.eabi_attribute 26, 1
   9              		.eabi_attribute 30, 2
  10              		.eabi_attribute 34, 0
  11              		.eabi_attribute 18, 4
  12              		.code	16
  13              		.file	"RTC.c"
  14              		.text
  15              	.Ltext0:
  16              		.cfi_sections	.debug_frame
  17              		.section	.text.RTC_Init,"ax",%progbits
  18              		.align	2
  19              		.global	RTC_Init
  20              		.code	16
  21              		.thumb_func
  22              		.type	RTC_Init, %function
  23              	RTC_Init:
  24              	.LFB0:
  25              		.file 1 ".\\Generated_Source\\PSoC4\\RTC.c"
   1:.\Generated_Source\PSoC4/RTC.c **** /*******************************************************************************
   2:.\Generated_Source\PSoC4/RTC.c **** * File Name: RTC.c
   3:.\Generated_Source\PSoC4/RTC.c **** * Version 1.10
   4:.\Generated_Source\PSoC4/RTC.c **** *
   5:.\Generated_Source\PSoC4/RTC.c **** * Description:
   6:.\Generated_Source\PSoC4/RTC.c **** *  This file provides the source code to the API for the SCB Component.
   7:.\Generated_Source\PSoC4/RTC.c **** *
   8:.\Generated_Source\PSoC4/RTC.c **** * Note:
   9:.\Generated_Source\PSoC4/RTC.c **** *
  10:.\Generated_Source\PSoC4/RTC.c **** *******************************************************************************
  11:.\Generated_Source\PSoC4/RTC.c **** * Copyright 2013, Cypress Semiconductor Corporation.  All rights reserved.
  12:.\Generated_Source\PSoC4/RTC.c **** * You may use this file only in accordance with the license, terms, conditions,
  13:.\Generated_Source\PSoC4/RTC.c **** * disclaimers, and limitations in the end user license agreement accompanying
  14:.\Generated_Source\PSoC4/RTC.c **** * the software package with which this file was provided.
  15:.\Generated_Source\PSoC4/RTC.c **** *******************************************************************************/
  16:.\Generated_Source\PSoC4/RTC.c **** 
  17:.\Generated_Source\PSoC4/RTC.c **** #include "RTC_PVT.h"
  18:.\Generated_Source\PSoC4/RTC.c **** 
  19:.\Generated_Source\PSoC4/RTC.c **** #if(RTC_SCB_MODE_I2C_INC)
  20:.\Generated_Source\PSoC4/RTC.c ****     #include "RTC_I2C_PVT.h"
  21:.\Generated_Source\PSoC4/RTC.c **** #endif /* (RTC_SCB_MODE_I2C_INC) */
  22:.\Generated_Source\PSoC4/RTC.c **** 
  23:.\Generated_Source\PSoC4/RTC.c **** #if(RTC_SCB_MODE_EZI2C_INC)
  24:.\Generated_Source\PSoC4/RTC.c ****     #include "RTC_EZI2C_PVT.h"
  25:.\Generated_Source\PSoC4/RTC.c **** #endif /* (RTC_SCB_MODE_EZI2C_INC) */
  26:.\Generated_Source\PSoC4/RTC.c **** 
  27:.\Generated_Source\PSoC4/RTC.c **** #if(RTC_SCB_MODE_SPI_INC || RTC_SCB_MODE_UART_INC)
  28:.\Generated_Source\PSoC4/RTC.c ****     #include "RTC_SPI_UART_PVT.h"
  29:.\Generated_Source\PSoC4/RTC.c **** #endif /* (RTC_SCB_MODE_SPI_INC || RTC_SCB_MODE_UART_INC) */
  30:.\Generated_Source\PSoC4/RTC.c **** 
  31:.\Generated_Source\PSoC4/RTC.c **** 
  32:.\Generated_Source\PSoC4/RTC.c **** /**********************************
ARM GAS  C:\Users\Steve\AppData\Local\Temp\ccrtyi4m.s 			page 2


  33:.\Generated_Source\PSoC4/RTC.c **** *    Run Time Configuration Vars
  34:.\Generated_Source\PSoC4/RTC.c **** **********************************/
  35:.\Generated_Source\PSoC4/RTC.c **** 
  36:.\Generated_Source\PSoC4/RTC.c **** /* Stores internal component configuration for unconfigured mode */
  37:.\Generated_Source\PSoC4/RTC.c **** #if(RTC_SCB_MODE_UNCONFIG_CONST_CFG)
  38:.\Generated_Source\PSoC4/RTC.c ****     /* Common config vars */
  39:.\Generated_Source\PSoC4/RTC.c ****     uint8 RTC_scbMode = RTC_SCB_MODE_UNCONFIG;
  40:.\Generated_Source\PSoC4/RTC.c ****     uint8 RTC_scbEnableWake;
  41:.\Generated_Source\PSoC4/RTC.c ****     uint8 RTC_scbEnableIntr;
  42:.\Generated_Source\PSoC4/RTC.c **** 
  43:.\Generated_Source\PSoC4/RTC.c ****     /* I2C config vars */
  44:.\Generated_Source\PSoC4/RTC.c ****     uint8 RTC_mode;
  45:.\Generated_Source\PSoC4/RTC.c ****     uint8 RTC_acceptAddr;
  46:.\Generated_Source\PSoC4/RTC.c **** 
  47:.\Generated_Source\PSoC4/RTC.c ****     /* SPI/UART config vars */
  48:.\Generated_Source\PSoC4/RTC.c ****     volatile uint8 * RTC_rxBuffer;
  49:.\Generated_Source\PSoC4/RTC.c ****     uint8  RTC_rxDataBits;
  50:.\Generated_Source\PSoC4/RTC.c ****     uint32 RTC_rxBufferSize;
  51:.\Generated_Source\PSoC4/RTC.c **** 
  52:.\Generated_Source\PSoC4/RTC.c ****     volatile uint8 * RTC_txBuffer;
  53:.\Generated_Source\PSoC4/RTC.c ****     uint8  RTC_txDataBits;
  54:.\Generated_Source\PSoC4/RTC.c ****     uint32 RTC_txBufferSize;
  55:.\Generated_Source\PSoC4/RTC.c **** 
  56:.\Generated_Source\PSoC4/RTC.c ****     /* EZI2C config vars */
  57:.\Generated_Source\PSoC4/RTC.c ****     uint8 RTC_numberOfAddr;
  58:.\Generated_Source\PSoC4/RTC.c ****     uint8 RTC_subAddrSize;
  59:.\Generated_Source\PSoC4/RTC.c **** #endif /* (RTC_SCB_MODE_UNCONFIG_CONST_CFG) */
  60:.\Generated_Source\PSoC4/RTC.c **** 
  61:.\Generated_Source\PSoC4/RTC.c **** 
  62:.\Generated_Source\PSoC4/RTC.c **** /**********************************
  63:.\Generated_Source\PSoC4/RTC.c **** *     Common SCB Vars
  64:.\Generated_Source\PSoC4/RTC.c **** **********************************/
  65:.\Generated_Source\PSoC4/RTC.c **** 
  66:.\Generated_Source\PSoC4/RTC.c **** uint8 RTC_initVar = 0u;
  67:.\Generated_Source\PSoC4/RTC.c **** cyisraddress RTC_customIntrHandler = NULL;
  68:.\Generated_Source\PSoC4/RTC.c **** 
  69:.\Generated_Source\PSoC4/RTC.c **** 
  70:.\Generated_Source\PSoC4/RTC.c **** /***************************************
  71:.\Generated_Source\PSoC4/RTC.c **** *    Private Function Prototypes
  72:.\Generated_Source\PSoC4/RTC.c **** ***************************************/
  73:.\Generated_Source\PSoC4/RTC.c **** 
  74:.\Generated_Source\PSoC4/RTC.c **** static void RTC_ScbEnableIntr(void);
  75:.\Generated_Source\PSoC4/RTC.c **** static void RTC_ScbModeStop(void);
  76:.\Generated_Source\PSoC4/RTC.c **** 
  77:.\Generated_Source\PSoC4/RTC.c **** 
  78:.\Generated_Source\PSoC4/RTC.c **** /*******************************************************************************
  79:.\Generated_Source\PSoC4/RTC.c **** * Function Name: RTC_Init
  80:.\Generated_Source\PSoC4/RTC.c **** ********************************************************************************
  81:.\Generated_Source\PSoC4/RTC.c **** *
  82:.\Generated_Source\PSoC4/RTC.c **** * Summary:
  83:.\Generated_Source\PSoC4/RTC.c **** *  Initializes SCB component to operate in one of selected configurations:
  84:.\Generated_Source\PSoC4/RTC.c **** *  I2C, SPI, UART, EZI2C or EZSPI.
  85:.\Generated_Source\PSoC4/RTC.c **** *  This function does not do any initialization when configuration is set to
  86:.\Generated_Source\PSoC4/RTC.c **** *  Unconfigured SCB.
  87:.\Generated_Source\PSoC4/RTC.c **** *
  88:.\Generated_Source\PSoC4/RTC.c **** * Parameters:
  89:.\Generated_Source\PSoC4/RTC.c **** *  None
ARM GAS  C:\Users\Steve\AppData\Local\Temp\ccrtyi4m.s 			page 3


  90:.\Generated_Source\PSoC4/RTC.c **** *
  91:.\Generated_Source\PSoC4/RTC.c **** * Return:
  92:.\Generated_Source\PSoC4/RTC.c **** *  None
  93:.\Generated_Source\PSoC4/RTC.c **** *
  94:.\Generated_Source\PSoC4/RTC.c **** *******************************************************************************/
  95:.\Generated_Source\PSoC4/RTC.c **** void RTC_Init(void)
  96:.\Generated_Source\PSoC4/RTC.c **** {
  26              		.loc 1 96 0
  27              		.cfi_startproc
  28 0000 08B5     		push	{r3, lr}
  29              	.LCFI0:
  30              		.cfi_def_cfa_offset 8
  31              		.cfi_offset 3, -8
  32              		.cfi_offset 14, -4
  97:.\Generated_Source\PSoC4/RTC.c **** #if(RTC_SCB_MODE_UNCONFIG_CONST_CFG)
  98:.\Generated_Source\PSoC4/RTC.c ****     if(RTC_SCB_MODE_UNCONFIG_RUNTM_CFG)
  99:.\Generated_Source\PSoC4/RTC.c ****     {
 100:.\Generated_Source\PSoC4/RTC.c ****         RTC_initVar = 0u; /* Clear init var */
 101:.\Generated_Source\PSoC4/RTC.c ****     }
 102:.\Generated_Source\PSoC4/RTC.c ****     else
 103:.\Generated_Source\PSoC4/RTC.c ****     {
 104:.\Generated_Source\PSoC4/RTC.c ****         /* Initialization was done before call */
 105:.\Generated_Source\PSoC4/RTC.c ****     }
 106:.\Generated_Source\PSoC4/RTC.c **** 
 107:.\Generated_Source\PSoC4/RTC.c **** #elif(RTC_SCB_MODE_I2C_CONST_CFG)
 108:.\Generated_Source\PSoC4/RTC.c ****     RTC_I2CInit();
  33              		.loc 1 108 0
  34 0002 FFF7FEFF 		bl	RTC_I2CInit
  35              	.LVL0:
 109:.\Generated_Source\PSoC4/RTC.c **** 
 110:.\Generated_Source\PSoC4/RTC.c **** #elif(RTC_SCB_MODE_SPI_CONST_CFG)
 111:.\Generated_Source\PSoC4/RTC.c ****     RTC_SpiInit();
 112:.\Generated_Source\PSoC4/RTC.c **** 
 113:.\Generated_Source\PSoC4/RTC.c **** #elif(RTC_SCB_MODE_UART_CONST_CFG)
 114:.\Generated_Source\PSoC4/RTC.c ****     RTC_UartInit();
 115:.\Generated_Source\PSoC4/RTC.c **** 
 116:.\Generated_Source\PSoC4/RTC.c **** #elif(RTC_SCB_MODE_EZI2C_CONST_CFG)
 117:.\Generated_Source\PSoC4/RTC.c ****     RTC_EzI2CInit();
 118:.\Generated_Source\PSoC4/RTC.c **** 
 119:.\Generated_Source\PSoC4/RTC.c **** #endif /* (RTC_SCB_MODE_UNCONFIG_CONST_CFG) */
 120:.\Generated_Source\PSoC4/RTC.c **** }
  36              		.loc 1 120 0
  37              		@ sp needed for prologue
  38 0006 08BD     		pop	{r3, pc}
  39              		.cfi_endproc
  40              	.LFE0:
  41              		.size	RTC_Init, .-RTC_Init
  42              		.section	.text.RTC_Enable,"ax",%progbits
  43              		.align	2
  44              		.global	RTC_Enable
  45              		.code	16
  46              		.thumb_func
  47              		.type	RTC_Enable, %function
  48              	RTC_Enable:
  49              	.LFB1:
 121:.\Generated_Source\PSoC4/RTC.c **** 
 122:.\Generated_Source\PSoC4/RTC.c **** 
ARM GAS  C:\Users\Steve\AppData\Local\Temp\ccrtyi4m.s 			page 4


 123:.\Generated_Source\PSoC4/RTC.c **** /*******************************************************************************
 124:.\Generated_Source\PSoC4/RTC.c **** * Function Name: RTC_Enable
 125:.\Generated_Source\PSoC4/RTC.c **** ********************************************************************************
 126:.\Generated_Source\PSoC4/RTC.c **** *
 127:.\Generated_Source\PSoC4/RTC.c **** * Summary:
 128:.\Generated_Source\PSoC4/RTC.c **** *  Enables SCB component operation.
 129:.\Generated_Source\PSoC4/RTC.c **** *  The SCB configuration should be not changed when the component is enabled.
 130:.\Generated_Source\PSoC4/RTC.c **** *  Any configuration changes should be made after disabling the component.
 131:.\Generated_Source\PSoC4/RTC.c **** *
 132:.\Generated_Source\PSoC4/RTC.c **** * Parameters:
 133:.\Generated_Source\PSoC4/RTC.c **** *  None
 134:.\Generated_Source\PSoC4/RTC.c **** *
 135:.\Generated_Source\PSoC4/RTC.c **** * Return:
 136:.\Generated_Source\PSoC4/RTC.c **** *  None
 137:.\Generated_Source\PSoC4/RTC.c **** *
 138:.\Generated_Source\PSoC4/RTC.c **** *******************************************************************************/
 139:.\Generated_Source\PSoC4/RTC.c **** void RTC_Enable(void)
 140:.\Generated_Source\PSoC4/RTC.c **** {
  50              		.loc 1 140 0
  51              		.cfi_startproc
  52 0000 08B5     		push	{r3, lr}
  53              	.LCFI1:
  54              		.cfi_def_cfa_offset 8
  55              		.cfi_offset 3, -8
  56              		.cfi_offset 14, -4
 141:.\Generated_Source\PSoC4/RTC.c **** #if(RTC_SCB_MODE_UNCONFIG_CONST_CFG)
 142:.\Generated_Source\PSoC4/RTC.c ****     if(!RTC_SCB_MODE_UNCONFIG_RUNTM_CFG)
 143:.\Generated_Source\PSoC4/RTC.c ****     {
 144:.\Generated_Source\PSoC4/RTC.c ****         /* Enable SCB block, only if already configured */
 145:.\Generated_Source\PSoC4/RTC.c ****         RTC_CTRL_REG |= RTC_CTRL_ENABLED;
 146:.\Generated_Source\PSoC4/RTC.c ****         
 147:.\Generated_Source\PSoC4/RTC.c ****         /* Enable interrupt */
 148:.\Generated_Source\PSoC4/RTC.c ****         RTC_ScbEnableIntr();
 149:.\Generated_Source\PSoC4/RTC.c ****     }
 150:.\Generated_Source\PSoC4/RTC.c **** #else
 151:.\Generated_Source\PSoC4/RTC.c ****     RTC_CTRL_REG |= RTC_CTRL_ENABLED; /* Enable SCB block */
  57              		.loc 1 151 0
  58 0002 044B     		ldr	r3, .L3
  59 0004 8022     		mov	r2, #128
  60 0006 1968     		ldr	r1, [r3]
  61 0008 1006     		lsl	r0, r2, #24
  62 000a 0843     		orr	r0, r1
  63 000c 1860     		str	r0, [r3]
  64              	.LBB8:
  65              	.LBB9:
 152:.\Generated_Source\PSoC4/RTC.c ****     
 153:.\Generated_Source\PSoC4/RTC.c ****     RTC_ScbEnableIntr();
 154:.\Generated_Source\PSoC4/RTC.c **** #endif /* (RTC_SCB_MODE_UNCONFIG_CONST_CFG) */
 155:.\Generated_Source\PSoC4/RTC.c **** }
 156:.\Generated_Source\PSoC4/RTC.c **** 
 157:.\Generated_Source\PSoC4/RTC.c **** 
 158:.\Generated_Source\PSoC4/RTC.c **** /*******************************************************************************
 159:.\Generated_Source\PSoC4/RTC.c **** * Function Name: RTC_Start
 160:.\Generated_Source\PSoC4/RTC.c **** ********************************************************************************
 161:.\Generated_Source\PSoC4/RTC.c **** *
 162:.\Generated_Source\PSoC4/RTC.c **** * Summary:
 163:.\Generated_Source\PSoC4/RTC.c **** *  Invokes SCB_Init() and SCB_Enable().
ARM GAS  C:\Users\Steve\AppData\Local\Temp\ccrtyi4m.s 			page 5


 164:.\Generated_Source\PSoC4/RTC.c **** *  After this function call the component is enabled and ready for operation.
 165:.\Generated_Source\PSoC4/RTC.c **** *
 166:.\Generated_Source\PSoC4/RTC.c **** * Parameters:
 167:.\Generated_Source\PSoC4/RTC.c **** *  None
 168:.\Generated_Source\PSoC4/RTC.c **** *
 169:.\Generated_Source\PSoC4/RTC.c **** * Return:
 170:.\Generated_Source\PSoC4/RTC.c **** *  None
 171:.\Generated_Source\PSoC4/RTC.c **** *
 172:.\Generated_Source\PSoC4/RTC.c **** * Global variables:
 173:.\Generated_Source\PSoC4/RTC.c **** *  RTC_initVar - used to check initial configuration, modified
 174:.\Generated_Source\PSoC4/RTC.c **** *  on first function call.
 175:.\Generated_Source\PSoC4/RTC.c **** *
 176:.\Generated_Source\PSoC4/RTC.c **** *******************************************************************************/
 177:.\Generated_Source\PSoC4/RTC.c **** void RTC_Start(void)
 178:.\Generated_Source\PSoC4/RTC.c **** {
 179:.\Generated_Source\PSoC4/RTC.c ****     if(0u == RTC_initVar)
 180:.\Generated_Source\PSoC4/RTC.c ****     {
 181:.\Generated_Source\PSoC4/RTC.c ****         RTC_initVar = 1u; /* Component was initialized */
 182:.\Generated_Source\PSoC4/RTC.c ****         RTC_Init();       /* Initialize component      */
 183:.\Generated_Source\PSoC4/RTC.c ****     }
 184:.\Generated_Source\PSoC4/RTC.c **** 
 185:.\Generated_Source\PSoC4/RTC.c ****     RTC_Enable();
 186:.\Generated_Source\PSoC4/RTC.c **** }
 187:.\Generated_Source\PSoC4/RTC.c **** 
 188:.\Generated_Source\PSoC4/RTC.c **** 
 189:.\Generated_Source\PSoC4/RTC.c **** /*******************************************************************************
 190:.\Generated_Source\PSoC4/RTC.c **** * Function Name: RTC_Stop
 191:.\Generated_Source\PSoC4/RTC.c **** ********************************************************************************
 192:.\Generated_Source\PSoC4/RTC.c **** *
 193:.\Generated_Source\PSoC4/RTC.c **** * Summary:
 194:.\Generated_Source\PSoC4/RTC.c **** *  Disables the SCB component.
 195:.\Generated_Source\PSoC4/RTC.c **** *
 196:.\Generated_Source\PSoC4/RTC.c **** * Parameters:
 197:.\Generated_Source\PSoC4/RTC.c **** *  None
 198:.\Generated_Source\PSoC4/RTC.c **** *
 199:.\Generated_Source\PSoC4/RTC.c **** * Return:
 200:.\Generated_Source\PSoC4/RTC.c **** *  None
 201:.\Generated_Source\PSoC4/RTC.c **** *
 202:.\Generated_Source\PSoC4/RTC.c **** *******************************************************************************/
 203:.\Generated_Source\PSoC4/RTC.c **** void RTC_Stop(void)
 204:.\Generated_Source\PSoC4/RTC.c **** {
 205:.\Generated_Source\PSoC4/RTC.c **** #if(RTC_SCB_IRQ_INTERNAL)
 206:.\Generated_Source\PSoC4/RTC.c ****     RTC_SCB_IRQ_Disable();     /* Disable interrupt before block */
 207:.\Generated_Source\PSoC4/RTC.c **** #endif /* (RTC_SCB_IRQ_INTERNAL) */
 208:.\Generated_Source\PSoC4/RTC.c **** 
 209:.\Generated_Source\PSoC4/RTC.c ****     RTC_CTRL_REG &= (uint32) ~RTC_CTRL_ENABLED;  /* Disable SCB block */
 210:.\Generated_Source\PSoC4/RTC.c **** 
 211:.\Generated_Source\PSoC4/RTC.c **** #if(RTC_SCB_IRQ_INTERNAL)
 212:.\Generated_Source\PSoC4/RTC.c ****     RTC_SCB_IRQ_ClearPending(); /* Clear pending interrupt */
 213:.\Generated_Source\PSoC4/RTC.c **** #endif /* (RTC_SCB_IRQ_INTERNAL) */
 214:.\Generated_Source\PSoC4/RTC.c ****     
 215:.\Generated_Source\PSoC4/RTC.c ****     RTC_ScbModeStop(); /* Calls scbMode specific Stop function */
 216:.\Generated_Source\PSoC4/RTC.c **** }
 217:.\Generated_Source\PSoC4/RTC.c **** 
 218:.\Generated_Source\PSoC4/RTC.c **** 
 219:.\Generated_Source\PSoC4/RTC.c **** /*******************************************************************************
 220:.\Generated_Source\PSoC4/RTC.c **** * Function Name: RTC_SetCustomInterruptHandler
ARM GAS  C:\Users\Steve\AppData\Local\Temp\ccrtyi4m.s 			page 6


 221:.\Generated_Source\PSoC4/RTC.c **** ********************************************************************************
 222:.\Generated_Source\PSoC4/RTC.c **** *
 223:.\Generated_Source\PSoC4/RTC.c **** * Summary:
 224:.\Generated_Source\PSoC4/RTC.c **** *  Registers a function to be called by the internal interrupt handler.
 225:.\Generated_Source\PSoC4/RTC.c **** *  First the function that is registered is called, then the internal interrupt
 226:.\Generated_Source\PSoC4/RTC.c **** *  handler performs any operations such as software buffer management functions
 227:.\Generated_Source\PSoC4/RTC.c **** *  before the interrupt returns.  It is user's responsibility to not break the
 228:.\Generated_Source\PSoC4/RTC.c **** *  software buffer operations. Only one custom handler is supported, which is
 229:.\Generated_Source\PSoC4/RTC.c **** *  the function provided by the most recent call.
 230:.\Generated_Source\PSoC4/RTC.c **** *  At initialization time no custom handler is registered.
 231:.\Generated_Source\PSoC4/RTC.c **** *
 232:.\Generated_Source\PSoC4/RTC.c **** * Parameters:
 233:.\Generated_Source\PSoC4/RTC.c **** *  func: Pointer to the function to register.
 234:.\Generated_Source\PSoC4/RTC.c **** *        The value NULL indicates to remove the current custom interrupt
 235:.\Generated_Source\PSoC4/RTC.c **** *        handler.
 236:.\Generated_Source\PSoC4/RTC.c **** *
 237:.\Generated_Source\PSoC4/RTC.c **** * Return:
 238:.\Generated_Source\PSoC4/RTC.c **** *  None
 239:.\Generated_Source\PSoC4/RTC.c **** *
 240:.\Generated_Source\PSoC4/RTC.c **** *******************************************************************************/
 241:.\Generated_Source\PSoC4/RTC.c **** void RTC_SetCustomInterruptHandler(cyisraddress func)
 242:.\Generated_Source\PSoC4/RTC.c **** {
 243:.\Generated_Source\PSoC4/RTC.c ****     RTC_customIntrHandler = func; /* Register interrupt handler */
 244:.\Generated_Source\PSoC4/RTC.c **** }
 245:.\Generated_Source\PSoC4/RTC.c **** 
 246:.\Generated_Source\PSoC4/RTC.c **** 
 247:.\Generated_Source\PSoC4/RTC.c **** /*******************************************************************************
 248:.\Generated_Source\PSoC4/RTC.c **** * Function Name: RTC_ScbModeEnableIntr
 249:.\Generated_Source\PSoC4/RTC.c **** ********************************************************************************
 250:.\Generated_Source\PSoC4/RTC.c **** *
 251:.\Generated_Source\PSoC4/RTC.c **** * Summary:
 252:.\Generated_Source\PSoC4/RTC.c **** *  Enables interrupt for specific mode.
 253:.\Generated_Source\PSoC4/RTC.c **** *
 254:.\Generated_Source\PSoC4/RTC.c **** * Parameters:
 255:.\Generated_Source\PSoC4/RTC.c **** *  None
 256:.\Generated_Source\PSoC4/RTC.c **** *
 257:.\Generated_Source\PSoC4/RTC.c **** * Return:
 258:.\Generated_Source\PSoC4/RTC.c **** *  None
 259:.\Generated_Source\PSoC4/RTC.c **** *
 260:.\Generated_Source\PSoC4/RTC.c **** *******************************************************************************/
 261:.\Generated_Source\PSoC4/RTC.c **** static void RTC_ScbEnableIntr(void)
 262:.\Generated_Source\PSoC4/RTC.c **** {
 263:.\Generated_Source\PSoC4/RTC.c **** #if(RTC_SCB_IRQ_INTERNAL)
 264:.\Generated_Source\PSoC4/RTC.c ****     #if(RTC_SCB_MODE_UNCONFIG_CONST_CFG)
 265:.\Generated_Source\PSoC4/RTC.c ****         /* Enable interrupt source */
 266:.\Generated_Source\PSoC4/RTC.c ****         if(0u != RTC_scbEnableIntr)
 267:.\Generated_Source\PSoC4/RTC.c ****         {
 268:.\Generated_Source\PSoC4/RTC.c ****             RTC_SCB_IRQ_Enable();
 269:.\Generated_Source\PSoC4/RTC.c ****         }
 270:.\Generated_Source\PSoC4/RTC.c ****     #else
 271:.\Generated_Source\PSoC4/RTC.c ****         RTC_SCB_IRQ_Enable();
  66              		.loc 1 271 0
  67 000e FFF7FEFF 		bl	RTC_SCB_IRQ_Enable
  68              	.LVL1:
  69              	.LBE9:
  70              	.LBE8:
 155:.\Generated_Source\PSoC4/RTC.c **** }
ARM GAS  C:\Users\Steve\AppData\Local\Temp\ccrtyi4m.s 			page 7


  71              		.loc 1 155 0
  72              		@ sp needed for prologue
  73 0012 08BD     		pop	{r3, pc}
  74              	.L4:
  75              		.align	2
  76              	.L3:
  77 0014 00000640 		.word	1074135040
  78              		.cfi_endproc
  79              	.LFE1:
  80              		.size	RTC_Enable, .-RTC_Enable
  81              		.section	.text.RTC_Start,"ax",%progbits
  82              		.align	2
  83              		.global	RTC_Start
  84              		.code	16
  85              		.thumb_func
  86              		.type	RTC_Start, %function
  87              	RTC_Start:
  88              	.LFB2:
 178:.\Generated_Source\PSoC4/RTC.c **** {
  89              		.loc 1 178 0
  90              		.cfi_startproc
  91 0000 08B5     		push	{r3, lr}
  92              	.LCFI2:
  93              		.cfi_def_cfa_offset 8
  94              		.cfi_offset 3, -8
  95              		.cfi_offset 14, -4
 179:.\Generated_Source\PSoC4/RTC.c ****     if(0u == RTC_initVar)
  96              		.loc 1 179 0
  97 0002 054B     		ldr	r3, .L8
  98 0004 1A78     		ldrb	r2, [r3]
  99 0006 002A     		cmp	r2, #0
 100 0008 03D1     		bne	.L6
 181:.\Generated_Source\PSoC4/RTC.c ****         RTC_initVar = 1u; /* Component was initialized */
 101              		.loc 1 181 0
 102 000a 0120     		mov	r0, #1
 103 000c 1870     		strb	r0, [r3]
 104              	.LBB10:
 105              	.LBB11:
 108:.\Generated_Source\PSoC4/RTC.c ****     RTC_I2CInit();
 106              		.loc 1 108 0
 107 000e FFF7FEFF 		bl	RTC_I2CInit
 108              	.LVL2:
 109              	.L6:
 110              	.LBE11:
 111              	.LBE10:
 185:.\Generated_Source\PSoC4/RTC.c ****     RTC_Enable();
 112              		.loc 1 185 0
 113 0012 FFF7FEFF 		bl	RTC_Enable
 114              	.LVL3:
 186:.\Generated_Source\PSoC4/RTC.c **** }
 115              		.loc 1 186 0
 116              		@ sp needed for prologue
 117 0016 08BD     		pop	{r3, pc}
 118              	.L9:
 119              		.align	2
 120              	.L8:
 121 0018 00000000 		.word	.LANCHOR0
ARM GAS  C:\Users\Steve\AppData\Local\Temp\ccrtyi4m.s 			page 8


 122              		.cfi_endproc
 123              	.LFE2:
 124              		.size	RTC_Start, .-RTC_Start
 125              		.section	.text.RTC_Stop,"ax",%progbits
 126              		.align	2
 127              		.global	RTC_Stop
 128              		.code	16
 129              		.thumb_func
 130              		.type	RTC_Stop, %function
 131              	RTC_Stop:
 132              	.LFB3:
 204:.\Generated_Source\PSoC4/RTC.c **** {
 133              		.loc 1 204 0
 134              		.cfi_startproc
 135 0000 08B5     		push	{r3, lr}
 136              	.LCFI3:
 137              		.cfi_def_cfa_offset 8
 138              		.cfi_offset 3, -8
 139              		.cfi_offset 14, -4
 206:.\Generated_Source\PSoC4/RTC.c ****     RTC_SCB_IRQ_Disable();     /* Disable interrupt before block */
 140              		.loc 1 206 0
 141 0002 FFF7FEFF 		bl	RTC_SCB_IRQ_Disable
 142              	.LVL4:
 209:.\Generated_Source\PSoC4/RTC.c ****     RTC_CTRL_REG &= (uint32) ~RTC_CTRL_ENABLED;  /* Disable SCB block */
 143              		.loc 1 209 0
 144 0006 054B     		ldr	r3, .L11
 216:.\Generated_Source\PSoC4/RTC.c **** }
 145              		.loc 1 216 0
 146              		@ sp needed for prologue
 209:.\Generated_Source\PSoC4/RTC.c ****     RTC_CTRL_REG &= (uint32) ~RTC_CTRL_ENABLED;  /* Disable SCB block */
 147              		.loc 1 209 0
 148 0008 1A68     		ldr	r2, [r3]
 149 000a 5000     		lsl	r0, r2, #1
 150 000c 4108     		lsr	r1, r0, #1
 151 000e 1960     		str	r1, [r3]
 212:.\Generated_Source\PSoC4/RTC.c ****     RTC_SCB_IRQ_ClearPending(); /* Clear pending interrupt */
 152              		.loc 1 212 0
 153 0010 FFF7FEFF 		bl	RTC_SCB_IRQ_ClearPending
 154              	.LVL5:
 155              	.LBB12:
 156              	.LBB13:
 272:.\Generated_Source\PSoC4/RTC.c ****         
 273:.\Generated_Source\PSoC4/RTC.c ****     #endif /* (RTC_SCB_MODE_UNCONFIG_CONST_CFG) */
 274:.\Generated_Source\PSoC4/RTC.c **** #endif /* (RTC_SCB_IRQ_INTERNAL) */
 275:.\Generated_Source\PSoC4/RTC.c **** }
 276:.\Generated_Source\PSoC4/RTC.c **** 
 277:.\Generated_Source\PSoC4/RTC.c **** 
 278:.\Generated_Source\PSoC4/RTC.c **** /*******************************************************************************
 279:.\Generated_Source\PSoC4/RTC.c **** * Function Name: RTC_ScbModeEnableIntr
 280:.\Generated_Source\PSoC4/RTC.c **** ********************************************************************************
 281:.\Generated_Source\PSoC4/RTC.c **** *
 282:.\Generated_Source\PSoC4/RTC.c **** * Summary:
 283:.\Generated_Source\PSoC4/RTC.c **** *  Calls Stop function for specific operation mode.
 284:.\Generated_Source\PSoC4/RTC.c **** *
 285:.\Generated_Source\PSoC4/RTC.c **** * Parameters:
 286:.\Generated_Source\PSoC4/RTC.c **** *  None
 287:.\Generated_Source\PSoC4/RTC.c **** *
ARM GAS  C:\Users\Steve\AppData\Local\Temp\ccrtyi4m.s 			page 9


 288:.\Generated_Source\PSoC4/RTC.c **** * Return:
 289:.\Generated_Source\PSoC4/RTC.c **** *  None
 290:.\Generated_Source\PSoC4/RTC.c **** *
 291:.\Generated_Source\PSoC4/RTC.c **** *******************************************************************************/
 292:.\Generated_Source\PSoC4/RTC.c **** static void RTC_ScbModeStop(void)
 293:.\Generated_Source\PSoC4/RTC.c **** {
 294:.\Generated_Source\PSoC4/RTC.c **** #if(RTC_SCB_MODE_UNCONFIG_CONST_CFG)
 295:.\Generated_Source\PSoC4/RTC.c ****     if(RTC_SCB_MODE_I2C_RUNTM_CFG)
 296:.\Generated_Source\PSoC4/RTC.c ****     {
 297:.\Generated_Source\PSoC4/RTC.c ****         RTC_I2CStop();
 298:.\Generated_Source\PSoC4/RTC.c ****     }
 299:.\Generated_Source\PSoC4/RTC.c ****     else if(RTC_SCB_MODE_EZI2C_RUNTM_CFG)
 300:.\Generated_Source\PSoC4/RTC.c ****     {
 301:.\Generated_Source\PSoC4/RTC.c ****         RTC_EzI2CStop();
 302:.\Generated_Source\PSoC4/RTC.c ****     }
 303:.\Generated_Source\PSoC4/RTC.c ****     else
 304:.\Generated_Source\PSoC4/RTC.c ****     {
 305:.\Generated_Source\PSoC4/RTC.c ****         /* None of modes above */
 306:.\Generated_Source\PSoC4/RTC.c ****     }
 307:.\Generated_Source\PSoC4/RTC.c **** #elif(RTC_SCB_MODE_I2C_CONST_CFG)
 308:.\Generated_Source\PSoC4/RTC.c ****     RTC_I2CStop();
 157              		.loc 1 308 0
 158 0014 FFF7FEFF 		bl	RTC_I2CStop
 159              	.LVL6:
 160              	.LBE13:
 161              	.LBE12:
 216:.\Generated_Source\PSoC4/RTC.c **** }
 162              		.loc 1 216 0
 163 0018 08BD     		pop	{r3, pc}
 164              	.L12:
 165 001a C046     		.align	2
 166              	.L11:
 167 001c 00000640 		.word	1074135040
 168              		.cfi_endproc
 169              	.LFE3:
 170              		.size	RTC_Stop, .-RTC_Stop
 171              		.section	.text.RTC_SetCustomInterruptHandler,"ax",%progbits
 172              		.align	2
 173              		.global	RTC_SetCustomInterruptHandler
 174              		.code	16
 175              		.thumb_func
 176              		.type	RTC_SetCustomInterruptHandler, %function
 177              	RTC_SetCustomInterruptHandler:
 178              	.LFB4:
 242:.\Generated_Source\PSoC4/RTC.c **** {
 179              		.loc 1 242 0
 180              		.cfi_startproc
 181              	.LVL7:
 243:.\Generated_Source\PSoC4/RTC.c ****     RTC_customIntrHandler = func; /* Register interrupt handler */
 182              		.loc 1 243 0
 183 0000 014B     		ldr	r3, .L14
 244:.\Generated_Source\PSoC4/RTC.c **** }
 184              		.loc 1 244 0
 185              		@ sp needed for prologue
 243:.\Generated_Source\PSoC4/RTC.c ****     RTC_customIntrHandler = func; /* Register interrupt handler */
 186              		.loc 1 243 0
 187 0002 5860     		str	r0, [r3, #4]
ARM GAS  C:\Users\Steve\AppData\Local\Temp\ccrtyi4m.s 			page 10


 244:.\Generated_Source\PSoC4/RTC.c **** }
 188              		.loc 1 244 0
 189 0004 7047     		bx	lr
 190              	.L15:
 191 0006 C046     		.align	2
 192              	.L14:
 193 0008 00000000 		.word	.LANCHOR0
 194              		.cfi_endproc
 195              	.LFE4:
 196              		.size	RTC_SetCustomInterruptHandler, .-RTC_SetCustomInterruptHandler
 197              		.global	RTC_customIntrHandler
 198              		.global	RTC_initVar
 199              		.bss
 200              		.align	2
 201              		.set	.LANCHOR0,. + 0
 202              		.type	RTC_initVar, %object
 203              		.size	RTC_initVar, 1
 204              	RTC_initVar:
 205 0000 00       		.space	1
 206 0001 000000   		.space	3
 207              		.type	RTC_customIntrHandler, %object
 208              		.size	RTC_customIntrHandler, 4
 209              	RTC_customIntrHandler:
 210 0004 00000000 		.space	4
 211              		.text
 212              	.Letext0:
 213              		.file 2 ".\\Generated_Source\\PSoC4\\cytypes.h"
 214              		.file 3 ".\\Generated_Source\\PSoC4\\RTC_I2C_PVT.h"
 215              		.file 4 ".\\Generated_Source\\PSoC4\\RTC_SCB_IRQ.h"