ARM GAS  C:\Users\Steve\AppData\Local\Temp\cc0mdPHY.s 			page 1


   1              		.cpu cortex-m0
   2              		.fpu softvfp
   3              		.eabi_attribute 20, 1
   4              		.eabi_attribute 21, 1
   5              		.eabi_attribute 23, 3
   6              		.eabi_attribute 24, 1
   7              		.eabi_attribute 25, 1
   8              		.eabi_attribute 26, 1
   9              		.eabi_attribute 30, 2
  10              		.eabi_attribute 34, 0
  11              		.eabi_attribute 18, 4
  12              		.code	16
  13              		.file	"RTC_PM.c"
  14              		.text
  15              	.Ltext0:
  16              		.cfi_sections	.debug_frame
  17              		.section	.text.RTC_Sleep,"ax",%progbits
  18              		.align	2
  19              		.global	RTC_Sleep
  20              		.code	16
  21              		.thumb_func
  22              		.type	RTC_Sleep, %function
  23              	RTC_Sleep:
  24              	.LFB0:
  25              		.file 1 ".\\Generated_Source\\PSoC4\\RTC_PM.c"
   1:.\Generated_Source\PSoC4/RTC_PM.c **** /*******************************************************************************
   2:.\Generated_Source\PSoC4/RTC_PM.c **** * File Name: RTC_PM.c
   3:.\Generated_Source\PSoC4/RTC_PM.c **** * Version 1.10
   4:.\Generated_Source\PSoC4/RTC_PM.c **** *
   5:.\Generated_Source\PSoC4/RTC_PM.c **** * Description:
   6:.\Generated_Source\PSoC4/RTC_PM.c **** *  This file provides the source code to the Power Management support for
   7:.\Generated_Source\PSoC4/RTC_PM.c **** *  the SCB Component.
   8:.\Generated_Source\PSoC4/RTC_PM.c **** *
   9:.\Generated_Source\PSoC4/RTC_PM.c **** * Note:
  10:.\Generated_Source\PSoC4/RTC_PM.c **** *
  11:.\Generated_Source\PSoC4/RTC_PM.c **** ********************************************************************************
  12:.\Generated_Source\PSoC4/RTC_PM.c **** * Copyright 2013, Cypress Semiconductor Corporation.  All rights reserved.
  13:.\Generated_Source\PSoC4/RTC_PM.c **** * You may use this file only in accordance with the license, terms, conditions,
  14:.\Generated_Source\PSoC4/RTC_PM.c **** * disclaimers, and limitations in the end user license agreement accompanying
  15:.\Generated_Source\PSoC4/RTC_PM.c **** * the software package with which this file was provided.
  16:.\Generated_Source\PSoC4/RTC_PM.c **** *******************************************************************************/
  17:.\Generated_Source\PSoC4/RTC_PM.c **** 
  18:.\Generated_Source\PSoC4/RTC_PM.c **** #include "RTC.h"
  19:.\Generated_Source\PSoC4/RTC_PM.c **** #include "RTC_PVT.h"
  20:.\Generated_Source\PSoC4/RTC_PM.c **** 
  21:.\Generated_Source\PSoC4/RTC_PM.c **** #if(RTC_SCB_MODE_I2C_INC)
  22:.\Generated_Source\PSoC4/RTC_PM.c ****     #include "RTC_I2C_PVT.h"
  23:.\Generated_Source\PSoC4/RTC_PM.c **** #endif /* (RTC_SCB_MODE_I2C_INC) */
  24:.\Generated_Source\PSoC4/RTC_PM.c **** 
  25:.\Generated_Source\PSoC4/RTC_PM.c **** #if(RTC_SCB_MODE_EZI2C_INC)
  26:.\Generated_Source\PSoC4/RTC_PM.c ****     #include "RTC_EZI2C_PVT.h"
  27:.\Generated_Source\PSoC4/RTC_PM.c **** #endif /* (RTC_SCB_MODE_EZI2C_INC) */
  28:.\Generated_Source\PSoC4/RTC_PM.c **** 
  29:.\Generated_Source\PSoC4/RTC_PM.c **** #if(RTC_SCB_MODE_SPI_INC || RTC_SCB_MODE_UART_INC)
  30:.\Generated_Source\PSoC4/RTC_PM.c ****     #include "RTC_SPI_UART_PVT.h"
  31:.\Generated_Source\PSoC4/RTC_PM.c **** #endif /* (RTC_SCB_MODE_SPI_INC || RTC_SCB_MODE_UART_INC) */
  32:.\Generated_Source\PSoC4/RTC_PM.c **** 
ARM GAS  C:\Users\Steve\AppData\Local\Temp\cc0mdPHY.s 			page 2


  33:.\Generated_Source\PSoC4/RTC_PM.c **** 
  34:.\Generated_Source\PSoC4/RTC_PM.c **** /***************************************
  35:.\Generated_Source\PSoC4/RTC_PM.c **** *   Backup Structure declaration
  36:.\Generated_Source\PSoC4/RTC_PM.c **** ***************************************/
  37:.\Generated_Source\PSoC4/RTC_PM.c **** 
  38:.\Generated_Source\PSoC4/RTC_PM.c **** RTC_BACKUP_STRUCT RTC_backup =
  39:.\Generated_Source\PSoC4/RTC_PM.c **** {
  40:.\Generated_Source\PSoC4/RTC_PM.c ****     0u, /* enableState */
  41:.\Generated_Source\PSoC4/RTC_PM.c **** };
  42:.\Generated_Source\PSoC4/RTC_PM.c **** 
  43:.\Generated_Source\PSoC4/RTC_PM.c **** 
  44:.\Generated_Source\PSoC4/RTC_PM.c **** /*******************************************************************************
  45:.\Generated_Source\PSoC4/RTC_PM.c **** * Function Name: RTC_Sleep
  46:.\Generated_Source\PSoC4/RTC_PM.c **** ********************************************************************************
  47:.\Generated_Source\PSoC4/RTC_PM.c **** *
  48:.\Generated_Source\PSoC4/RTC_PM.c **** * Summary:
  49:.\Generated_Source\PSoC4/RTC_PM.c **** *  Calls SaveConfig function fucntion for selected mode.
  50:.\Generated_Source\PSoC4/RTC_PM.c **** *
  51:.\Generated_Source\PSoC4/RTC_PM.c **** * Parameters:
  52:.\Generated_Source\PSoC4/RTC_PM.c **** *  None
  53:.\Generated_Source\PSoC4/RTC_PM.c **** *
  54:.\Generated_Source\PSoC4/RTC_PM.c **** * Return:
  55:.\Generated_Source\PSoC4/RTC_PM.c **** *  None
  56:.\Generated_Source\PSoC4/RTC_PM.c **** *
  57:.\Generated_Source\PSoC4/RTC_PM.c **** *******************************************************************************/
  58:.\Generated_Source\PSoC4/RTC_PM.c **** void RTC_Sleep(void)
  59:.\Generated_Source\PSoC4/RTC_PM.c **** {
  26              		.loc 1 59 0
  27              		.cfi_startproc
  28 0000 08B5     		push	{r3, lr}
  29              	.LCFI0:
  30              		.cfi_def_cfa_offset 8
  31              		.cfi_offset 3, -8
  32              		.cfi_offset 14, -4
  60:.\Generated_Source\PSoC4/RTC_PM.c **** #if(RTC_SCB_MODE_UNCONFIG_CONST_CFG)
  61:.\Generated_Source\PSoC4/RTC_PM.c **** 
  62:.\Generated_Source\PSoC4/RTC_PM.c ****     if(0u != RTC_scbEnableWake)
  63:.\Generated_Source\PSoC4/RTC_PM.c ****     {
  64:.\Generated_Source\PSoC4/RTC_PM.c ****         if(RTC_SCB_MODE_I2C_RUNTM_CFG)
  65:.\Generated_Source\PSoC4/RTC_PM.c ****         {
  66:.\Generated_Source\PSoC4/RTC_PM.c ****             RTC_I2CSaveConfig();
  67:.\Generated_Source\PSoC4/RTC_PM.c ****         }
  68:.\Generated_Source\PSoC4/RTC_PM.c ****         else if(RTC_SCB_MODE_SPI_RUNTM_CFG)
  69:.\Generated_Source\PSoC4/RTC_PM.c ****         {
  70:.\Generated_Source\PSoC4/RTC_PM.c ****             RTC_SpiSaveConfig();
  71:.\Generated_Source\PSoC4/RTC_PM.c ****         }
  72:.\Generated_Source\PSoC4/RTC_PM.c ****         else if(RTC_SCB_MODE_UART_RUNTM_CFG)
  73:.\Generated_Source\PSoC4/RTC_PM.c ****         {
  74:.\Generated_Source\PSoC4/RTC_PM.c ****             RTC_UartSaveConfig();
  75:.\Generated_Source\PSoC4/RTC_PM.c ****         }
  76:.\Generated_Source\PSoC4/RTC_PM.c ****         else if(RTC_SCB_MODE_EZI2C_RUNTM_CFG)
  77:.\Generated_Source\PSoC4/RTC_PM.c ****         {
  78:.\Generated_Source\PSoC4/RTC_PM.c ****             RTC_EzI2CSaveConfig();
  79:.\Generated_Source\PSoC4/RTC_PM.c ****         }
  80:.\Generated_Source\PSoC4/RTC_PM.c ****         else
  81:.\Generated_Source\PSoC4/RTC_PM.c ****         {
  82:.\Generated_Source\PSoC4/RTC_PM.c ****             /* Unknown mode: do nothing */
ARM GAS  C:\Users\Steve\AppData\Local\Temp\cc0mdPHY.s 			page 3


  83:.\Generated_Source\PSoC4/RTC_PM.c ****         }
  84:.\Generated_Source\PSoC4/RTC_PM.c ****     }
  85:.\Generated_Source\PSoC4/RTC_PM.c ****     else
  86:.\Generated_Source\PSoC4/RTC_PM.c ****     {
  87:.\Generated_Source\PSoC4/RTC_PM.c ****         RTC_backup.enableState = (uint8) RTC_GET_CTRL_ENABLED;
  88:.\Generated_Source\PSoC4/RTC_PM.c ****         
  89:.\Generated_Source\PSoC4/RTC_PM.c ****         if(0u != RTC_backup.enableState)
  90:.\Generated_Source\PSoC4/RTC_PM.c ****         {
  91:.\Generated_Source\PSoC4/RTC_PM.c ****             RTC_Stop();
  92:.\Generated_Source\PSoC4/RTC_PM.c ****         }
  93:.\Generated_Source\PSoC4/RTC_PM.c ****     }
  94:.\Generated_Source\PSoC4/RTC_PM.c ****     
  95:.\Generated_Source\PSoC4/RTC_PM.c ****     RTC_DisableTxPinsInputBuffer();
  96:.\Generated_Source\PSoC4/RTC_PM.c ****     
  97:.\Generated_Source\PSoC4/RTC_PM.c **** #else
  98:.\Generated_Source\PSoC4/RTC_PM.c ****     
  99:.\Generated_Source\PSoC4/RTC_PM.c ****     #if defined (RTC_I2C_WAKE_ENABLE_CONST) && (RTC_I2C_WAKE_ENABLE_CONST)
 100:.\Generated_Source\PSoC4/RTC_PM.c ****         RTC_I2CSaveConfig();
 101:.\Generated_Source\PSoC4/RTC_PM.c ****         
 102:.\Generated_Source\PSoC4/RTC_PM.c ****     #elif defined (RTC_SPI_WAKE_ENABLE_CONST) && (RTC_SPI_WAKE_ENABLE_CONST)
 103:.\Generated_Source\PSoC4/RTC_PM.c ****         RTC_SpiSaveConfig();
 104:.\Generated_Source\PSoC4/RTC_PM.c ****         
 105:.\Generated_Source\PSoC4/RTC_PM.c ****     #elif defined (RTC_UART_WAKE_ENABLE_CONST) && (RTC_UART_WAKE_ENABLE_CONST)
 106:.\Generated_Source\PSoC4/RTC_PM.c ****         RTC_UartSaveConfig();
 107:.\Generated_Source\PSoC4/RTC_PM.c ****         
 108:.\Generated_Source\PSoC4/RTC_PM.c ****     #elif defined (RTC_EZI2C_WAKE_ENABLE_CONST) && (RTC_EZI2C_WAKE_ENABLE_CONST)
 109:.\Generated_Source\PSoC4/RTC_PM.c ****         RTC_EzI2CSaveConfig();
 110:.\Generated_Source\PSoC4/RTC_PM.c ****     
 111:.\Generated_Source\PSoC4/RTC_PM.c ****     #else
 112:.\Generated_Source\PSoC4/RTC_PM.c ****         
 113:.\Generated_Source\PSoC4/RTC_PM.c ****         RTC_backup.enableState = (uint8) RTC_GET_CTRL_ENABLED;
  33              		.loc 1 113 0
  34 0002 044B     		ldr	r3, .L7
  35 0004 044A     		ldr	r2, .L7+4
  36 0006 1868     		ldr	r0, [r3]
  37 0008 C10F     		lsr	r1, r0, #31
  38 000a 1170     		strb	r1, [r2]
 114:.\Generated_Source\PSoC4/RTC_PM.c ****         
 115:.\Generated_Source\PSoC4/RTC_PM.c ****         /* Check enable state */
 116:.\Generated_Source\PSoC4/RTC_PM.c ****         if(0u != RTC_backup.enableState)
  39              		.loc 1 116 0
  40 000c 01D0     		beq	.L1
 117:.\Generated_Source\PSoC4/RTC_PM.c ****         {
 118:.\Generated_Source\PSoC4/RTC_PM.c ****             RTC_Stop();
  41              		.loc 1 118 0
  42 000e FFF7FEFF 		bl	RTC_Stop
  43              	.LVL0:
  44              	.L1:
 119:.\Generated_Source\PSoC4/RTC_PM.c ****         }
 120:.\Generated_Source\PSoC4/RTC_PM.c ****         
 121:.\Generated_Source\PSoC4/RTC_PM.c ****     #endif /* defined (RTC_SCB_MODE_I2C_CONST_CFG) && (RTC_I2C_WAKE_ENABLE_CONST) */
 122:.\Generated_Source\PSoC4/RTC_PM.c ****     
 123:.\Generated_Source\PSoC4/RTC_PM.c ****     RTC_DisableTxPinsInputBuffer();
 124:.\Generated_Source\PSoC4/RTC_PM.c ****     
 125:.\Generated_Source\PSoC4/RTC_PM.c **** #endif /* (RTC_SCB_MODE_UNCONFIG_CONST_CFG) */
 126:.\Generated_Source\PSoC4/RTC_PM.c **** }
  45              		.loc 1 126 0
ARM GAS  C:\Users\Steve\AppData\Local\Temp\cc0mdPHY.s 			page 4


  46              		@ sp needed for prologue
  47 0012 08BD     		pop	{r3, pc}
  48              	.L8:
  49              		.align	2
  50              	.L7:
  51 0014 00000640 		.word	1074135040
  52 0018 00000000 		.word	.LANCHOR0
  53              		.cfi_endproc
  54              	.LFE0:
  55              		.size	RTC_Sleep, .-RTC_Sleep
  56              		.section	.text.RTC_Wakeup,"ax",%progbits
  57              		.align	2
  58              		.global	RTC_Wakeup
  59              		.code	16
  60              		.thumb_func
  61              		.type	RTC_Wakeup, %function
  62              	RTC_Wakeup:
  63              	.LFB1:
 127:.\Generated_Source\PSoC4/RTC_PM.c **** 
 128:.\Generated_Source\PSoC4/RTC_PM.c **** 
 129:.\Generated_Source\PSoC4/RTC_PM.c **** /*******************************************************************************
 130:.\Generated_Source\PSoC4/RTC_PM.c **** * Function Name: RTC_Wakeup
 131:.\Generated_Source\PSoC4/RTC_PM.c **** ********************************************************************************
 132:.\Generated_Source\PSoC4/RTC_PM.c **** *
 133:.\Generated_Source\PSoC4/RTC_PM.c **** * Summary:
 134:.\Generated_Source\PSoC4/RTC_PM.c **** *  Calls RestoreConfig function fucntion for selected mode.
 135:.\Generated_Source\PSoC4/RTC_PM.c **** *
 136:.\Generated_Source\PSoC4/RTC_PM.c **** * Parameters:
 137:.\Generated_Source\PSoC4/RTC_PM.c **** *  None
 138:.\Generated_Source\PSoC4/RTC_PM.c **** *
 139:.\Generated_Source\PSoC4/RTC_PM.c **** * Return:
 140:.\Generated_Source\PSoC4/RTC_PM.c **** *  None
 141:.\Generated_Source\PSoC4/RTC_PM.c **** *
 142:.\Generated_Source\PSoC4/RTC_PM.c **** *******************************************************************************/
 143:.\Generated_Source\PSoC4/RTC_PM.c **** void RTC_Wakeup(void)
 144:.\Generated_Source\PSoC4/RTC_PM.c **** {
  64              		.loc 1 144 0
  65              		.cfi_startproc
  66 0000 08B5     		push	{r3, lr}
  67              	.LCFI1:
  68              		.cfi_def_cfa_offset 8
  69              		.cfi_offset 3, -8
  70              		.cfi_offset 14, -4
 145:.\Generated_Source\PSoC4/RTC_PM.c **** #if(RTC_SCB_MODE_UNCONFIG_CONST_CFG)
 146:.\Generated_Source\PSoC4/RTC_PM.c **** 
 147:.\Generated_Source\PSoC4/RTC_PM.c ****     RTC_EnableTxPinsInputBuffer();
 148:.\Generated_Source\PSoC4/RTC_PM.c ****         
 149:.\Generated_Source\PSoC4/RTC_PM.c ****     if(0u != RTC_scbEnableWake)
 150:.\Generated_Source\PSoC4/RTC_PM.c ****     {
 151:.\Generated_Source\PSoC4/RTC_PM.c ****         if(RTC_SCB_MODE_I2C_RUNTM_CFG)
 152:.\Generated_Source\PSoC4/RTC_PM.c ****         {
 153:.\Generated_Source\PSoC4/RTC_PM.c ****             RTC_I2CRestoreConfig();
 154:.\Generated_Source\PSoC4/RTC_PM.c ****         }
 155:.\Generated_Source\PSoC4/RTC_PM.c ****         else if(RTC_SCB_MODE_SPI_RUNTM_CFG)
 156:.\Generated_Source\PSoC4/RTC_PM.c ****         {
 157:.\Generated_Source\PSoC4/RTC_PM.c ****             RTC_SpiRestoreConfig();
 158:.\Generated_Source\PSoC4/RTC_PM.c ****         }
ARM GAS  C:\Users\Steve\AppData\Local\Temp\cc0mdPHY.s 			page 5


 159:.\Generated_Source\PSoC4/RTC_PM.c ****         else if(RTC_SCB_MODE_UART_RUNTM_CFG)
 160:.\Generated_Source\PSoC4/RTC_PM.c ****         {
 161:.\Generated_Source\PSoC4/RTC_PM.c ****             RTC_UartRestoreConfig();
 162:.\Generated_Source\PSoC4/RTC_PM.c ****         }
 163:.\Generated_Source\PSoC4/RTC_PM.c ****         else if(RTC_SCB_MODE_EZI2C_RUNTM_CFG)
 164:.\Generated_Source\PSoC4/RTC_PM.c ****         {
 165:.\Generated_Source\PSoC4/RTC_PM.c ****             RTC_EzI2CRestoreConfig();
 166:.\Generated_Source\PSoC4/RTC_PM.c ****         }
 167:.\Generated_Source\PSoC4/RTC_PM.c ****         else
 168:.\Generated_Source\PSoC4/RTC_PM.c ****         {
 169:.\Generated_Source\PSoC4/RTC_PM.c ****             /* Unknown mode: do nothing */
 170:.\Generated_Source\PSoC4/RTC_PM.c ****         }
 171:.\Generated_Source\PSoC4/RTC_PM.c ****     }
 172:.\Generated_Source\PSoC4/RTC_PM.c ****     else
 173:.\Generated_Source\PSoC4/RTC_PM.c ****     {    
 174:.\Generated_Source\PSoC4/RTC_PM.c ****         /* Restore enable state */
 175:.\Generated_Source\PSoC4/RTC_PM.c ****         if(0u != RTC_backup.enableState)
 176:.\Generated_Source\PSoC4/RTC_PM.c ****         {
 177:.\Generated_Source\PSoC4/RTC_PM.c ****             RTC_Enable();
 178:.\Generated_Source\PSoC4/RTC_PM.c ****         }
 179:.\Generated_Source\PSoC4/RTC_PM.c ****     }
 180:.\Generated_Source\PSoC4/RTC_PM.c **** 
 181:.\Generated_Source\PSoC4/RTC_PM.c **** #else
 182:.\Generated_Source\PSoC4/RTC_PM.c ****     
 183:.\Generated_Source\PSoC4/RTC_PM.c ****     RTC_EnableTxPinsInputBuffer();
 184:.\Generated_Source\PSoC4/RTC_PM.c ****         
 185:.\Generated_Source\PSoC4/RTC_PM.c ****     #if defined (RTC_I2C_WAKE_ENABLE_CONST) && (RTC_I2C_WAKE_ENABLE_CONST)
 186:.\Generated_Source\PSoC4/RTC_PM.c ****         RTC_I2CRestoreConfig();
 187:.\Generated_Source\PSoC4/RTC_PM.c ****         
 188:.\Generated_Source\PSoC4/RTC_PM.c ****     #elif defined (RTC_SPI_WAKE_ENABLE_CONST) && (RTC_SPI_WAKE_ENABLE_CONST)
 189:.\Generated_Source\PSoC4/RTC_PM.c ****         RTC_SpiRestoreConfig();
 190:.\Generated_Source\PSoC4/RTC_PM.c ****         
 191:.\Generated_Source\PSoC4/RTC_PM.c ****     #elif defined (RTC_UART_WAKE_ENABLE_CONST) && (RTC_UART_WAKE_ENABLE_CONST)
 192:.\Generated_Source\PSoC4/RTC_PM.c ****         RTC_UartRestoreConfig();
 193:.\Generated_Source\PSoC4/RTC_PM.c ****         
 194:.\Generated_Source\PSoC4/RTC_PM.c ****     #elif defined (RTC_EZI2C_WAKE_ENABLE_CONST) && (RTC_EZI2C_WAKE_ENABLE_CONST)
 195:.\Generated_Source\PSoC4/RTC_PM.c ****         RTC_EzI2CRestoreConfig();
 196:.\Generated_Source\PSoC4/RTC_PM.c ****     
 197:.\Generated_Source\PSoC4/RTC_PM.c ****     #else
 198:.\Generated_Source\PSoC4/RTC_PM.c ****         /* Check enable state */
 199:.\Generated_Source\PSoC4/RTC_PM.c ****         if(0u != RTC_backup.enableState)
  71              		.loc 1 199 0
  72 0002 034B     		ldr	r3, .L14
  73 0004 1878     		ldrb	r0, [r3]
  74 0006 0028     		cmp	r0, #0
  75 0008 01D0     		beq	.L9
 200:.\Generated_Source\PSoC4/RTC_PM.c ****         {
 201:.\Generated_Source\PSoC4/RTC_PM.c ****             RTC_Enable();
  76              		.loc 1 201 0
  77 000a FFF7FEFF 		bl	RTC_Enable
  78              	.LVL1:
  79              	.L9:
 202:.\Generated_Source\PSoC4/RTC_PM.c ****         }
 203:.\Generated_Source\PSoC4/RTC_PM.c ****         
 204:.\Generated_Source\PSoC4/RTC_PM.c ****     #endif /* (RTC_I2C_WAKE_ENABLE_CONST) */
 205:.\Generated_Source\PSoC4/RTC_PM.c **** 
 206:.\Generated_Source\PSoC4/RTC_PM.c **** #endif /* (RTC_SCB_MODE_UNCONFIG_CONST_CFG) */
ARM GAS  C:\Users\Steve\AppData\Local\Temp\cc0mdPHY.s 			page 6


 207:.\Generated_Source\PSoC4/RTC_PM.c **** }
  80              		.loc 1 207 0
  81              		@ sp needed for prologue
  82 000e 08BD     		pop	{r3, pc}
  83              	.L15:
  84              		.align	2
  85              	.L14:
  86 0010 00000000 		.word	.LANCHOR0
  87              		.cfi_endproc
  88              	.LFE1:
  89              		.size	RTC_Wakeup, .-RTC_Wakeup
  90              		.section	.text.RTC_DisableTxPinsInputBuffer,"ax",%progbits
  91              		.align	2
  92              		.global	RTC_DisableTxPinsInputBuffer
  93              		.code	16
  94              		.thumb_func
  95              		.type	RTC_DisableTxPinsInputBuffer, %function
  96              	RTC_DisableTxPinsInputBuffer:
  97              	.LFB2:
 208:.\Generated_Source\PSoC4/RTC_PM.c **** 
 209:.\Generated_Source\PSoC4/RTC_PM.c **** 
 210:.\Generated_Source\PSoC4/RTC_PM.c **** /*******************************************************************************
 211:.\Generated_Source\PSoC4/RTC_PM.c **** * Function Name: RTC_DisableTxPinsInputBuffer
 212:.\Generated_Source\PSoC4/RTC_PM.c **** ********************************************************************************
 213:.\Generated_Source\PSoC4/RTC_PM.c **** *
 214:.\Generated_Source\PSoC4/RTC_PM.c **** * Summary:
 215:.\Generated_Source\PSoC4/RTC_PM.c **** *  Disables input buffers for TX pins. This action removes leakage current while
 216:.\Generated_Source\PSoC4/RTC_PM.c **** *  low power mode (Cypress ID 149635).
 217:.\Generated_Source\PSoC4/RTC_PM.c **** *   SCB mode is I2C and EZI2C: bus is pulled-up. Leave pins as it is.
 218:.\Generated_Source\PSoC4/RTC_PM.c **** *   SCB mode SPI:
 219:.\Generated_Source\PSoC4/RTC_PM.c **** *     Slave  - disable input buffer for MISO pin.
 220:.\Generated_Source\PSoC4/RTC_PM.c **** *     Master - disable input buffer for all pins.
 221:.\Generated_Source\PSoC4/RTC_PM.c **** *   SCB mode SmartCard: 
 222:.\Generated_Source\PSoC4/RTC_PM.c **** *     Standard and IrDA - disable input buffer for TX pin.
 223:.\Generated_Source\PSoC4/RTC_PM.c **** *     SmartCard - RX_TX pin is pulled-up. Leave pin as it is.
 224:.\Generated_Source\PSoC4/RTC_PM.c **** *
 225:.\Generated_Source\PSoC4/RTC_PM.c **** * Parameters:
 226:.\Generated_Source\PSoC4/RTC_PM.c **** *  None
 227:.\Generated_Source\PSoC4/RTC_PM.c **** *
 228:.\Generated_Source\PSoC4/RTC_PM.c **** * Return:
 229:.\Generated_Source\PSoC4/RTC_PM.c **** *  None
 230:.\Generated_Source\PSoC4/RTC_PM.c **** *
 231:.\Generated_Source\PSoC4/RTC_PM.c **** *******************************************************************************/
 232:.\Generated_Source\PSoC4/RTC_PM.c **** void RTC_DisableTxPinsInputBuffer(void)
 233:.\Generated_Source\PSoC4/RTC_PM.c **** {
  98              		.loc 1 233 0
  99              		.cfi_startproc
 234:.\Generated_Source\PSoC4/RTC_PM.c **** #if(RTC_SCB_MODE_UNCONFIG_CONST_CFG)
 235:.\Generated_Source\PSoC4/RTC_PM.c ****     
 236:.\Generated_Source\PSoC4/RTC_PM.c ****     /* SCB mode is I2C and EZI2C: bus is pulled-up. Does nothing */
 237:.\Generated_Source\PSoC4/RTC_PM.c ****        
 238:.\Generated_Source\PSoC4/RTC_PM.c ****     if(RTC_SCB_MODE_SPI_RUNTM_CFG)
 239:.\Generated_Source\PSoC4/RTC_PM.c ****     {
 240:.\Generated_Source\PSoC4/RTC_PM.c ****         if(0u != (RTC_SPI_CTRL_REG & RTC_SPI_CTRL_MASTER))
 241:.\Generated_Source\PSoC4/RTC_PM.c ****         /* SPI Master */
 242:.\Generated_Source\PSoC4/RTC_PM.c ****         {
 243:.\Generated_Source\PSoC4/RTC_PM.c ****         #if(RTC_MOSI_SCL_RX_WAKE_PIN)
ARM GAS  C:\Users\Steve\AppData\Local\Temp\cc0mdPHY.s 			page 7


 244:.\Generated_Source\PSoC4/RTC_PM.c ****             RTC_spi_mosi_i2c_scl_uart_rx_wake_INP_DIS |= \
 245:.\Generated_Source\PSoC4/RTC_PM.c ****                                                                 RTC_spi_mosi_i2c_scl_uart_rx_wake_M
 246:.\Generated_Source\PSoC4/RTC_PM.c ****         #endif /* (RTC_MOSI_SCL_RX_WAKE_PIN) */
 247:.\Generated_Source\PSoC4/RTC_PM.c **** 
 248:.\Generated_Source\PSoC4/RTC_PM.c ****         #if(RTC_MOSI_SCL_RX_PIN)
 249:.\Generated_Source\PSoC4/RTC_PM.c ****             RTC_spi_mosi_i2c_scl_uart_rx_INP_DIS |= RTC_spi_mosi_i2c_scl_uart_rx_MASK;
 250:.\Generated_Source\PSoC4/RTC_PM.c ****         #endif /* (RTC_MOSI_SCL_RX_PIN) */
 251:.\Generated_Source\PSoC4/RTC_PM.c **** 
 252:.\Generated_Source\PSoC4/RTC_PM.c ****         #if(RTC_MISO_SDA_TX_PIN)
 253:.\Generated_Source\PSoC4/RTC_PM.c ****             RTC_spi_miso_i2c_sda_uart_tx_INP_DIS |= RTC_spi_miso_i2c_sda_uart_tx_MASK;
 254:.\Generated_Source\PSoC4/RTC_PM.c ****         #endif /* (RTC_MISO_SDA_TX_PIN_PIN) */
 255:.\Generated_Source\PSoC4/RTC_PM.c **** 
 256:.\Generated_Source\PSoC4/RTC_PM.c ****         #if(RTC_SCLK_PIN)
 257:.\Generated_Source\PSoC4/RTC_PM.c ****             RTC_spi_sclk_INP_DIS |= RTC_spi_sclk_MASK;
 258:.\Generated_Source\PSoC4/RTC_PM.c ****         #endif /* (RTC_SCLK_PIN) */
 259:.\Generated_Source\PSoC4/RTC_PM.c **** 
 260:.\Generated_Source\PSoC4/RTC_PM.c ****         #if(RTC_SS0_PIN)
 261:.\Generated_Source\PSoC4/RTC_PM.c ****             RTC_spi_ss0_INP_DIS |= RTC_spi_ss0_MASK;
 262:.\Generated_Source\PSoC4/RTC_PM.c ****         #endif /* (RTC_SS1_PIN) */
 263:.\Generated_Source\PSoC4/RTC_PM.c **** 
 264:.\Generated_Source\PSoC4/RTC_PM.c ****         #if(RTC_SS1_PIN)
 265:.\Generated_Source\PSoC4/RTC_PM.c ****             RTC_spi_ss1_INP_DIS |= RTC_spi_ss1_MASK;
 266:.\Generated_Source\PSoC4/RTC_PM.c ****         #endif /* (RTC_SS1_PIN) */
 267:.\Generated_Source\PSoC4/RTC_PM.c **** 
 268:.\Generated_Source\PSoC4/RTC_PM.c ****         #if(RTC_SS2_PIN)
 269:.\Generated_Source\PSoC4/RTC_PM.c ****             RTC_spi_ss2_INP_DIS |= RTC_spi_ss2_MASK;
 270:.\Generated_Source\PSoC4/RTC_PM.c ****         #endif /* (RTC_SS2_PIN) */
 271:.\Generated_Source\PSoC4/RTC_PM.c **** 
 272:.\Generated_Source\PSoC4/RTC_PM.c ****         #if(RTC_SS3_PIN)
 273:.\Generated_Source\PSoC4/RTC_PM.c ****             RTC_spi_ss3_INP_DIS |= RTC_spi_ss3_MASK;
 274:.\Generated_Source\PSoC4/RTC_PM.c ****         #endif /* (RTC_SS3_PIN) */
 275:.\Generated_Source\PSoC4/RTC_PM.c ****         }
 276:.\Generated_Source\PSoC4/RTC_PM.c ****         else
 277:.\Generated_Source\PSoC4/RTC_PM.c ****         /* SPI Slave */
 278:.\Generated_Source\PSoC4/RTC_PM.c ****         {
 279:.\Generated_Source\PSoC4/RTC_PM.c ****         #if(RTC_MISO_SDA_TX_PIN)
 280:.\Generated_Source\PSoC4/RTC_PM.c ****             RTC_spi_miso_i2c_sda_uart_tx_INP_DIS |= RTC_spi_miso_i2c_sda_uart_tx_MASK;
 281:.\Generated_Source\PSoC4/RTC_PM.c ****         #endif /* (RTC_MISO_SDA_TX_PIN_PIN) */
 282:.\Generated_Source\PSoC4/RTC_PM.c ****         }
 283:.\Generated_Source\PSoC4/RTC_PM.c ****     }
 284:.\Generated_Source\PSoC4/RTC_PM.c ****     else if (RTC_SCB_MODE_UART_RUNTM_CFG)
 285:.\Generated_Source\PSoC4/RTC_PM.c ****     {
 286:.\Generated_Source\PSoC4/RTC_PM.c ****         if(RTC_UART_CTRL_MODE_UART_SMARTCARD != 
 287:.\Generated_Source\PSoC4/RTC_PM.c ****             (RTC_UART_CTRL_REG & RTC_UART_CTRL_MODE_MASK))
 288:.\Generated_Source\PSoC4/RTC_PM.c ****         /* UART Standard or IrDA */
 289:.\Generated_Source\PSoC4/RTC_PM.c ****         {
 290:.\Generated_Source\PSoC4/RTC_PM.c ****         #if(RTC_MISO_SDA_TX_PIN)
 291:.\Generated_Source\PSoC4/RTC_PM.c ****             RTC_spi_miso_i2c_sda_uart_tx_INP_DIS |= RTC_spi_miso_i2c_sda_uart_tx_MASK;
 292:.\Generated_Source\PSoC4/RTC_PM.c ****         #endif /* (RTC_MISO_SDA_TX_PIN_PIN) */
 293:.\Generated_Source\PSoC4/RTC_PM.c ****         }
 294:.\Generated_Source\PSoC4/RTC_PM.c ****     }
 295:.\Generated_Source\PSoC4/RTC_PM.c ****     else
 296:.\Generated_Source\PSoC4/RTC_PM.c ****     {
 297:.\Generated_Source\PSoC4/RTC_PM.c ****         /* Does nothing */
 298:.\Generated_Source\PSoC4/RTC_PM.c ****     }
 299:.\Generated_Source\PSoC4/RTC_PM.c ****     
 300:.\Generated_Source\PSoC4/RTC_PM.c **** #else
ARM GAS  C:\Users\Steve\AppData\Local\Temp\cc0mdPHY.s 			page 8


 301:.\Generated_Source\PSoC4/RTC_PM.c ****     
 302:.\Generated_Source\PSoC4/RTC_PM.c ****     /* SCB mode is I2C and EZI2C: bus is pulled-up. Does nothing */
 303:.\Generated_Source\PSoC4/RTC_PM.c ****         
 304:.\Generated_Source\PSoC4/RTC_PM.c ****     /* SCB mode is SPI Master */
 305:.\Generated_Source\PSoC4/RTC_PM.c ****     #if(RTC_SPI_MASTER_PINS)
 306:.\Generated_Source\PSoC4/RTC_PM.c ****         RTC_sclk_m_INP_DIS |= RTC_sclk_m_MASK;
 307:.\Generated_Source\PSoC4/RTC_PM.c ****         RTC_mosi_m_INP_DIS |= RTC_mosi_m_MASK;
 308:.\Generated_Source\PSoC4/RTC_PM.c ****         RTC_miso_m_INP_DIS |= RTC_miso_m_MASK;
 309:.\Generated_Source\PSoC4/RTC_PM.c ****     #endif /* (RTC_SPI_MASTER_PINS) */
 310:.\Generated_Source\PSoC4/RTC_PM.c **** 
 311:.\Generated_Source\PSoC4/RTC_PM.c ****     #if(RTC_SPI_MASTER_SS0_PIN)
 312:.\Generated_Source\PSoC4/RTC_PM.c ****         RTC_ss0_m_INP_DIS |= RTC_ss0_m_MASK;
 313:.\Generated_Source\PSoC4/RTC_PM.c ****     #endif /* (RTC_SPI_MASTER_SS0_PIN) */
 314:.\Generated_Source\PSoC4/RTC_PM.c **** 
 315:.\Generated_Source\PSoC4/RTC_PM.c ****     #if(RTC_SPI_MASTER_SS1_PIN)
 316:.\Generated_Source\PSoC4/RTC_PM.c ****         RTC_ss1_m_INP_DIS |= RTC_ss1_m_MASK;
 317:.\Generated_Source\PSoC4/RTC_PM.c ****     #endif /* (RTC_SPI_MASTER_SS1_PIN) */
 318:.\Generated_Source\PSoC4/RTC_PM.c **** 
 319:.\Generated_Source\PSoC4/RTC_PM.c ****     #if(RTC_SPI_MASTER_SS2_PIN)
 320:.\Generated_Source\PSoC4/RTC_PM.c ****         RTC_ss2_m_INP_DIS |= RTC_ss2_m_MASK;
 321:.\Generated_Source\PSoC4/RTC_PM.c ****     #endif /* (RTC_SPI_MASTER_SS2_PIN) */
 322:.\Generated_Source\PSoC4/RTC_PM.c **** 
 323:.\Generated_Source\PSoC4/RTC_PM.c ****     #if(RTC_SPI_MASTER_SS3_PIN)
 324:.\Generated_Source\PSoC4/RTC_PM.c ****         RTC_ss3_m_INP_DIS |= RTC_ss3_m_MASK;
 325:.\Generated_Source\PSoC4/RTC_PM.c ****     #endif /* (RTC_SPI_MASTER_SS3_PIN) */
 326:.\Generated_Source\PSoC4/RTC_PM.c ****     
 327:.\Generated_Source\PSoC4/RTC_PM.c ****     /* SCB mode is SPI Slave */
 328:.\Generated_Source\PSoC4/RTC_PM.c ****     #if(RTC_SPI_SLAVE_PINS)
 329:.\Generated_Source\PSoC4/RTC_PM.c ****         RTC_miso_s_INP_DIS |= RTC_miso_s_MASK;
 330:.\Generated_Source\PSoC4/RTC_PM.c ****     #endif /* (RTC_SPI_SLAVE_PINS) */
 331:.\Generated_Source\PSoC4/RTC_PM.c **** 
 332:.\Generated_Source\PSoC4/RTC_PM.c ****     /* SCB mode is UART */
 333:.\Generated_Source\PSoC4/RTC_PM.c ****     #if(RTC_UART_TX_PIN)
 334:.\Generated_Source\PSoC4/RTC_PM.c ****         RTC_tx_INP_DIS |= RTC_tx_MASK;
 335:.\Generated_Source\PSoC4/RTC_PM.c ****     #endif /* (RTC_UART_TX_PIN) */
 336:.\Generated_Source\PSoC4/RTC_PM.c **** 
 337:.\Generated_Source\PSoC4/RTC_PM.c **** #endif /* (RTC_SCB_MODE_UNCONFIG_CONST_CFG) */
 338:.\Generated_Source\PSoC4/RTC_PM.c **** }
 100              		.loc 1 338 0
 101              		@ sp needed for prologue
 102 0000 7047     		bx	lr
 103              		.cfi_endproc
 104              	.LFE2:
 105              		.size	RTC_DisableTxPinsInputBuffer, .-RTC_DisableTxPinsInputBuffer
 106 0002 C046     		.section	.text.RTC_EnableTxPinsInputBuffer,"ax",%progbits
 107              		.align	2
 108              		.global	RTC_EnableTxPinsInputBuffer
 109              		.code	16
 110              		.thumb_func
 111              		.type	RTC_EnableTxPinsInputBuffer, %function
 112              	RTC_EnableTxPinsInputBuffer:
 113              	.LFB3:
 339:.\Generated_Source\PSoC4/RTC_PM.c **** 
 340:.\Generated_Source\PSoC4/RTC_PM.c **** 
 341:.\Generated_Source\PSoC4/RTC_PM.c **** /*******************************************************************************
 342:.\Generated_Source\PSoC4/RTC_PM.c **** * Function Name: RTC_EnableTxPinsInputBuffer
 343:.\Generated_Source\PSoC4/RTC_PM.c **** ********************************************************************************
ARM GAS  C:\Users\Steve\AppData\Local\Temp\cc0mdPHY.s 			page 9


 344:.\Generated_Source\PSoC4/RTC_PM.c **** *
 345:.\Generated_Source\PSoC4/RTC_PM.c **** * Summary:
 346:.\Generated_Source\PSoC4/RTC_PM.c **** *  Enables input buffers for TX pins. Restore changes done byte
 347:.\Generated_Source\PSoC4/RTC_PM.c **** *RTC_DisableTxPinsInputBuffer.
 348:.\Generated_Source\PSoC4/RTC_PM.c **** *
 349:.\Generated_Source\PSoC4/RTC_PM.c **** * Parameters:
 350:.\Generated_Source\PSoC4/RTC_PM.c **** *  None
 351:.\Generated_Source\PSoC4/RTC_PM.c **** *
 352:.\Generated_Source\PSoC4/RTC_PM.c **** * Return:
 353:.\Generated_Source\PSoC4/RTC_PM.c **** *  None
 354:.\Generated_Source\PSoC4/RTC_PM.c **** *
 355:.\Generated_Source\PSoC4/RTC_PM.c **** *******************************************************************************/
 356:.\Generated_Source\PSoC4/RTC_PM.c **** void RTC_EnableTxPinsInputBuffer(void)
 357:.\Generated_Source\PSoC4/RTC_PM.c **** {
 114              		.loc 1 357 0
 115              		.cfi_startproc
 358:.\Generated_Source\PSoC4/RTC_PM.c **** #if(RTC_SCB_MODE_UNCONFIG_CONST_CFG)
 359:.\Generated_Source\PSoC4/RTC_PM.c ****     if(RTC_SCB_MODE_SPI_RUNTM_CFG)
 360:.\Generated_Source\PSoC4/RTC_PM.c ****     {
 361:.\Generated_Source\PSoC4/RTC_PM.c ****         if(0u != (RTC_SPI_CTRL_REG & RTC_SPI_CTRL_MASTER))
 362:.\Generated_Source\PSoC4/RTC_PM.c ****         /* SPI Master */
 363:.\Generated_Source\PSoC4/RTC_PM.c ****         {
 364:.\Generated_Source\PSoC4/RTC_PM.c ****         #if(RTC_MOSI_SCL_RX_WAKE_PIN)
 365:.\Generated_Source\PSoC4/RTC_PM.c ****             RTC_spi_mosi_i2c_scl_uart_rx_wake_INP_DIS &= \
 366:.\Generated_Source\PSoC4/RTC_PM.c ****                                             (uint32) ~((uint32) RTC_spi_mosi_i2c_scl_uart_rx_wake_M
 367:.\Generated_Source\PSoC4/RTC_PM.c ****         #endif /* (RTC_MOSI_SCL_RX_WAKE_PIN) */
 368:.\Generated_Source\PSoC4/RTC_PM.c **** 
 369:.\Generated_Source\PSoC4/RTC_PM.c ****         #if(RTC_MOSI_SCL_RX_PIN)
 370:.\Generated_Source\PSoC4/RTC_PM.c ****             RTC_spi_mosi_i2c_scl_uart_rx_INP_DIS &= \
 371:.\Generated_Source\PSoC4/RTC_PM.c ****                                             (uint32) ~((uint32) RTC_spi_mosi_i2c_scl_uart_rx_MASK);
 372:.\Generated_Source\PSoC4/RTC_PM.c ****         #endif /* (RTC_MOSI_SCL_RX_PIN) */
 373:.\Generated_Source\PSoC4/RTC_PM.c **** 
 374:.\Generated_Source\PSoC4/RTC_PM.c ****         #if(RTC_MISO_SDA_TX_PIN)
 375:.\Generated_Source\PSoC4/RTC_PM.c ****             RTC_spi_miso_i2c_sda_uart_tx_INP_DIS &= \
 376:.\Generated_Source\PSoC4/RTC_PM.c ****                                             (uint32) ~((uint32) RTC_spi_miso_i2c_sda_uart_tx_MASK);
 377:.\Generated_Source\PSoC4/RTC_PM.c ****         #endif /* (RTC_MISO_SDA_TX_PIN_PIN) */
 378:.\Generated_Source\PSoC4/RTC_PM.c **** 
 379:.\Generated_Source\PSoC4/RTC_PM.c ****         #if(RTC_SCLK_PIN)
 380:.\Generated_Source\PSoC4/RTC_PM.c ****             RTC_spi_sclk_INP_DIS &= (uint32) ~((uint32) RTC_spi_sclk_MASK);
 381:.\Generated_Source\PSoC4/RTC_PM.c ****         #endif /* (RTC_SCLK_PIN) */
 382:.\Generated_Source\PSoC4/RTC_PM.c **** 
 383:.\Generated_Source\PSoC4/RTC_PM.c ****         #if(RTC_SS0_PIN)
 384:.\Generated_Source\PSoC4/RTC_PM.c ****             RTC_spi_ss0_INP_DIS &= (uint32) ~((uint32) RTC_spi_ss0_MASK);
 385:.\Generated_Source\PSoC4/RTC_PM.c ****         #endif /* (RTC_SS1_PIN) */
 386:.\Generated_Source\PSoC4/RTC_PM.c **** 
 387:.\Generated_Source\PSoC4/RTC_PM.c ****         #if(RTC_SS1_PIN)
 388:.\Generated_Source\PSoC4/RTC_PM.c ****             RTC_spi_ss1_INP_DIS &= (uint32) ~((uint32) RTC_spi_ss1_MASK);
 389:.\Generated_Source\PSoC4/RTC_PM.c ****         #endif /* (RTC_SS1_PIN) */
 390:.\Generated_Source\PSoC4/RTC_PM.c **** 
 391:.\Generated_Source\PSoC4/RTC_PM.c ****         #if(RTC_SS2_PIN)
 392:.\Generated_Source\PSoC4/RTC_PM.c ****             RTC_spi_ss2_INP_DIS &= (uint32) ~((uint32) RTC_spi_ss2_MASK);
 393:.\Generated_Source\PSoC4/RTC_PM.c ****         #endif /* (RTC_SS2_PIN) */
 394:.\Generated_Source\PSoC4/RTC_PM.c **** 
 395:.\Generated_Source\PSoC4/RTC_PM.c ****         #if(RTC_SS3_PIN)
 396:.\Generated_Source\PSoC4/RTC_PM.c ****             RTC_spi_ss3_INP_DIS &= (uint32) ~((uint32) RTC_spi_ss3_MASK);
 397:.\Generated_Source\PSoC4/RTC_PM.c ****         #endif /* (RTC_SS3_PIN) */
 398:.\Generated_Source\PSoC4/RTC_PM.c ****         }
ARM GAS  C:\Users\Steve\AppData\Local\Temp\cc0mdPHY.s 			page 10


 399:.\Generated_Source\PSoC4/RTC_PM.c ****         else
 400:.\Generated_Source\PSoC4/RTC_PM.c ****         /* SPI Slave */
 401:.\Generated_Source\PSoC4/RTC_PM.c ****         {
 402:.\Generated_Source\PSoC4/RTC_PM.c ****         #if(RTC_MISO_SDA_TX_PIN)
 403:.\Generated_Source\PSoC4/RTC_PM.c ****             RTC_spi_miso_i2c_sda_uart_tx_INP_DIS &= \
 404:.\Generated_Source\PSoC4/RTC_PM.c ****                                                 (uint32) ~((uint32) RTC_spi_miso_i2c_sda_uart_tx_MA
 405:.\Generated_Source\PSoC4/RTC_PM.c ****         #endif /* (RTC_MISO_SDA_TX_PIN_PIN) */
 406:.\Generated_Source\PSoC4/RTC_PM.c ****         }
 407:.\Generated_Source\PSoC4/RTC_PM.c ****     }
 408:.\Generated_Source\PSoC4/RTC_PM.c ****     else if (RTC_SCB_MODE_UART_RUNTM_CFG)
 409:.\Generated_Source\PSoC4/RTC_PM.c ****     {
 410:.\Generated_Source\PSoC4/RTC_PM.c ****         if(RTC_UART_CTRL_MODE_UART_SMARTCARD != 
 411:.\Generated_Source\PSoC4/RTC_PM.c ****                 (RTC_UART_CTRL_REG & RTC_UART_CTRL_MODE_MASK))
 412:.\Generated_Source\PSoC4/RTC_PM.c ****         /* UART Standard or IrDA */
 413:.\Generated_Source\PSoC4/RTC_PM.c ****         {
 414:.\Generated_Source\PSoC4/RTC_PM.c ****         #if(RTC_MISO_SDA_TX_PIN)
 415:.\Generated_Source\PSoC4/RTC_PM.c ****             RTC_spi_miso_i2c_sda_uart_tx_INP_DIS &= \
 416:.\Generated_Source\PSoC4/RTC_PM.c ****                                                 (uint32) ~((uint32) RTC_spi_miso_i2c_sda_uart_tx_MA
 417:.\Generated_Source\PSoC4/RTC_PM.c ****         #endif /* (RTC_MISO_SDA_TX_PIN_PIN) */
 418:.\Generated_Source\PSoC4/RTC_PM.c ****         }
 419:.\Generated_Source\PSoC4/RTC_PM.c ****     }
 420:.\Generated_Source\PSoC4/RTC_PM.c ****     else
 421:.\Generated_Source\PSoC4/RTC_PM.c ****     {
 422:.\Generated_Source\PSoC4/RTC_PM.c ****         /* Does nothing */
 423:.\Generated_Source\PSoC4/RTC_PM.c ****     }
 424:.\Generated_Source\PSoC4/RTC_PM.c ****     
 425:.\Generated_Source\PSoC4/RTC_PM.c **** #else
 426:.\Generated_Source\PSoC4/RTC_PM.c ****         
 427:.\Generated_Source\PSoC4/RTC_PM.c ****     /* SCB mode is SPI Master */
 428:.\Generated_Source\PSoC4/RTC_PM.c ****     #if(RTC_SPI_MASTER_PINS)
 429:.\Generated_Source\PSoC4/RTC_PM.c ****         RTC_sclk_m_INP_DIS &= (uint32) ~((uint32) RTC_sclk_m_MASK);
 430:.\Generated_Source\PSoC4/RTC_PM.c ****         RTC_mosi_m_INP_DIS &= (uint32) ~((uint32) RTC_mosi_m_MASK);
 431:.\Generated_Source\PSoC4/RTC_PM.c ****         RTC_miso_m_INP_DIS &= (uint32) ~((uint32) RTC_miso_m_MASK);
 432:.\Generated_Source\PSoC4/RTC_PM.c ****     #endif /* (RTC_SPI_MASTER_PINS) */
 433:.\Generated_Source\PSoC4/RTC_PM.c **** 
 434:.\Generated_Source\PSoC4/RTC_PM.c ****     #if(RTC_SPI_MASTER_SS0_PIN)
 435:.\Generated_Source\PSoC4/RTC_PM.c ****         RTC_ss0_m_INP_DIS &= (uint32) ~((uint32) RTC_ss0_m_MASK);
 436:.\Generated_Source\PSoC4/RTC_PM.c ****     #endif /* (RTC_SPI_MASTER_SS0_PIN) */
 437:.\Generated_Source\PSoC4/RTC_PM.c **** 
 438:.\Generated_Source\PSoC4/RTC_PM.c ****     #if(RTC_SPI_MASTER_SS1_PIN)
 439:.\Generated_Source\PSoC4/RTC_PM.c ****         RTC_ss1_m_INP_DIS &= (uint32) ~((uint32) RTC_ss1_m_MASK);
 440:.\Generated_Source\PSoC4/RTC_PM.c ****     #endif /* (RTC_SPI_MASTER_SS1_PIN) */
 441:.\Generated_Source\PSoC4/RTC_PM.c **** 
 442:.\Generated_Source\PSoC4/RTC_PM.c ****     #if(RTC_SPI_MASTER_SS2_PIN)
 443:.\Generated_Source\PSoC4/RTC_PM.c ****         RTC_ss2_m_INP_DIS &= (uint32) ~((uint32) RTC_ss2_m_MASK);
 444:.\Generated_Source\PSoC4/RTC_PM.c ****     #endif /* (RTC_SPI_MASTER_SS2_PIN) */
 445:.\Generated_Source\PSoC4/RTC_PM.c **** 
 446:.\Generated_Source\PSoC4/RTC_PM.c ****     #if(RTC_SPI_MASTER_SS3_PIN)
 447:.\Generated_Source\PSoC4/RTC_PM.c ****         RTC_ss3_m_INP_DIS &= (uint32) ~((uint32) RTC_ss3_m_MASK);
 448:.\Generated_Source\PSoC4/RTC_PM.c ****     #endif /* (RTC_SPI_MASTER_SS3_PIN) */
 449:.\Generated_Source\PSoC4/RTC_PM.c ****     
 450:.\Generated_Source\PSoC4/RTC_PM.c ****     /* SCB mode is SPI Slave */
 451:.\Generated_Source\PSoC4/RTC_PM.c ****     #if(RTC_SPI_SLAVE_PINS)
 452:.\Generated_Source\PSoC4/RTC_PM.c ****         RTC_miso_s_INP_DIS &= (uint32) ~((uint32) RTC_miso_s_MASK);
 453:.\Generated_Source\PSoC4/RTC_PM.c ****     #endif /* (RTC_SPI_SLAVE_PINS) */
 454:.\Generated_Source\PSoC4/RTC_PM.c **** 
 455:.\Generated_Source\PSoC4/RTC_PM.c ****     /* SCB mode is UART */
ARM GAS  C:\Users\Steve\AppData\Local\Temp\cc0mdPHY.s 			page 11


 456:.\Generated_Source\PSoC4/RTC_PM.c ****     #if(RTC_UART_TX_PIN)
 457:.\Generated_Source\PSoC4/RTC_PM.c ****         RTC_tx_INP_DIS &= (uint32) ~((uint32) RTC_tx_MASK);
 458:.\Generated_Source\PSoC4/RTC_PM.c ****     #endif /* (RTC_UART_TX_PIN) */
 459:.\Generated_Source\PSoC4/RTC_PM.c **** 
 460:.\Generated_Source\PSoC4/RTC_PM.c **** #endif /* (RTC_SCB_MODE_UNCONFIG_CONST_CFG) */
 461:.\Generated_Source\PSoC4/RTC_PM.c **** }
 116              		.loc 1 461 0
 117              		@ sp needed for prologue
 118 0000 7047     		bx	lr
 119              		.cfi_endproc
 120              	.LFE3:
 121              		.size	RTC_EnableTxPinsInputBuffer, .-RTC_EnableTxPinsInputBuffer
 122              		.global	RTC_backup
 123 0002 C046     		.bss
 124              		.align	2
 125              		.set	.LANCHOR0,. + 0
 126              		.type	RTC_backup, %object
 127              		.size	RTC_backup, 1
 128              	RTC_backup:
 129 0000 00       		.space	1
 130 0001 000000   		.text
 131              	.Letext0:
 132              		.file 2 ".\\Generated_Source\\PSoC4\\cytypes.h"
 133              		.file 3 ".\\Generated_Source\\PSoC4\\RTC.h"