ARM GAS  C:\Users\Computer\AppData\Local\Temp\cc3MlAIb.s 			page 1


   1              		.cpu cortex-m0
   2              		.fpu softvfp
   3              		.eabi_attribute 20, 1
   4              		.eabi_attribute 21, 1
   5              		.eabi_attribute 23, 3
   6              		.eabi_attribute 24, 1
   7              		.eabi_attribute 25, 1
   8              		.eabi_attribute 26, 1
   9              		.eabi_attribute 30, 2
  10              		.eabi_attribute 34, 0
  11              		.eabi_attribute 18, 4
  12              		.code	16
  13              		.file	"RTC_I2C_MASTER.c"
  14              		.text
  15              	.Ltext0:
  16              		.cfi_sections	.debug_frame
  17              		.section	.text.RTC_I2CMasterSendStart,"ax",%progbits
  18              		.align	2
  19              		.global	RTC_I2CMasterSendStart
  20              		.code	16
  21              		.thumb_func
  22              		.type	RTC_I2CMasterSendStart, %function
  23              	RTC_I2CMasterSendStart:
  24              	.LFB2:
  25              		.file 1 ".\\Generated_Source\\PSoC4\\RTC_I2C_MASTER.c"
   1:.\Generated_Source\PSoC4/RTC_I2C_MASTER.c **** /*******************************************************************************
   2:.\Generated_Source\PSoC4/RTC_I2C_MASTER.c **** * File Name: RTC_I2C_MASTER.c
   3:.\Generated_Source\PSoC4/RTC_I2C_MASTER.c **** * Version 1.10
   4:.\Generated_Source\PSoC4/RTC_I2C_MASTER.c **** *
   5:.\Generated_Source\PSoC4/RTC_I2C_MASTER.c **** * Description:
   6:.\Generated_Source\PSoC4/RTC_I2C_MASTER.c **** *  This file provides the source code to the API for the SCB Component in
   7:.\Generated_Source\PSoC4/RTC_I2C_MASTER.c **** *  I2C Master mode.
   8:.\Generated_Source\PSoC4/RTC_I2C_MASTER.c **** *
   9:.\Generated_Source\PSoC4/RTC_I2C_MASTER.c **** * Note:
  10:.\Generated_Source\PSoC4/RTC_I2C_MASTER.c **** *
  11:.\Generated_Source\PSoC4/RTC_I2C_MASTER.c **** *******************************************************************************
  12:.\Generated_Source\PSoC4/RTC_I2C_MASTER.c **** * Copyright 2013, Cypress Semiconductor Corporation.  All rights reserved.
  13:.\Generated_Source\PSoC4/RTC_I2C_MASTER.c **** * You may use this file only in accordance with the license, terms, conditions,
  14:.\Generated_Source\PSoC4/RTC_I2C_MASTER.c **** * disclaimers, and limitations in the end user license agreement accompanying
  15:.\Generated_Source\PSoC4/RTC_I2C_MASTER.c **** * the software package with which this file was provided.
  16:.\Generated_Source\PSoC4/RTC_I2C_MASTER.c **** *******************************************************************************/
  17:.\Generated_Source\PSoC4/RTC_I2C_MASTER.c **** 
  18:.\Generated_Source\PSoC4/RTC_I2C_MASTER.c **** #include "RTC_PVT.h"
  19:.\Generated_Source\PSoC4/RTC_I2C_MASTER.c **** #include "RTC_I2C_PVT.h"
  20:.\Generated_Source\PSoC4/RTC_I2C_MASTER.c **** 
  21:.\Generated_Source\PSoC4/RTC_I2C_MASTER.c **** #if(RTC_I2C_MASTER_CONST)
  22:.\Generated_Source\PSoC4/RTC_I2C_MASTER.c **** 
  23:.\Generated_Source\PSoC4/RTC_I2C_MASTER.c **** /***************************************
  24:.\Generated_Source\PSoC4/RTC_I2C_MASTER.c **** *      I2C Master Private Vars
  25:.\Generated_Source\PSoC4/RTC_I2C_MASTER.c **** ***************************************/
  26:.\Generated_Source\PSoC4/RTC_I2C_MASTER.c **** 
  27:.\Generated_Source\PSoC4/RTC_I2C_MASTER.c **** /* Master variables */
  28:.\Generated_Source\PSoC4/RTC_I2C_MASTER.c **** volatile uint16 RTC_mstrStatus;      /* Master Status byte  */
  29:.\Generated_Source\PSoC4/RTC_I2C_MASTER.c **** volatile uint8  RTC_mstrControl;     /* Master Control byte */
  30:.\Generated_Source\PSoC4/RTC_I2C_MASTER.c **** 
  31:.\Generated_Source\PSoC4/RTC_I2C_MASTER.c **** /* Receive buffer variables */
  32:.\Generated_Source\PSoC4/RTC_I2C_MASTER.c **** volatile uint8 * RTC_mstrRdBufPtr;   /* Pointer to Master Read buffer */
ARM GAS  C:\Users\Computer\AppData\Local\Temp\cc3MlAIb.s 			page 2


  33:.\Generated_Source\PSoC4/RTC_I2C_MASTER.c **** volatile uint32  RTC_mstrRdBufSize;  /* Master Read buffer size       */
  34:.\Generated_Source\PSoC4/RTC_I2C_MASTER.c **** volatile uint32  RTC_mstrRdBufIndex; /* Master Read buffer Index      */
  35:.\Generated_Source\PSoC4/RTC_I2C_MASTER.c **** 
  36:.\Generated_Source\PSoC4/RTC_I2C_MASTER.c **** /* Transmit buffer variables */
  37:.\Generated_Source\PSoC4/RTC_I2C_MASTER.c **** volatile uint8 * RTC_mstrWrBufPtr;   /* Pointer to Master Write buffer */
  38:.\Generated_Source\PSoC4/RTC_I2C_MASTER.c **** volatile uint32  RTC_mstrWrBufSize;  /* Master Write buffer size       */
  39:.\Generated_Source\PSoC4/RTC_I2C_MASTER.c **** volatile uint32  RTC_mstrWrBufIndex; /* Master Write buffer Index      */
  40:.\Generated_Source\PSoC4/RTC_I2C_MASTER.c **** volatile uint32  RTC_mstrWrBufIndexTmp; /* Master Write buffer Index Tmp */
  41:.\Generated_Source\PSoC4/RTC_I2C_MASTER.c **** 
  42:.\Generated_Source\PSoC4/RTC_I2C_MASTER.c **** 
  43:.\Generated_Source\PSoC4/RTC_I2C_MASTER.c **** /*******************************************************************************
  44:.\Generated_Source\PSoC4/RTC_I2C_MASTER.c **** * Function Name: RTC_I2CMasterWriteBuf
  45:.\Generated_Source\PSoC4/RTC_I2C_MASTER.c **** ********************************************************************************
  46:.\Generated_Source\PSoC4/RTC_I2C_MASTER.c **** *
  47:.\Generated_Source\PSoC4/RTC_I2C_MASTER.c **** * Summary:
  48:.\Generated_Source\PSoC4/RTC_I2C_MASTER.c **** *  Automatically writes an entire buffer of data to a slave device. Once the
  49:.\Generated_Source\PSoC4/RTC_I2C_MASTER.c **** *  data transfer is initiated by this function, further data transfer is handled
  50:.\Generated_Source\PSoC4/RTC_I2C_MASTER.c **** *  by the included ISR in byte by byte mode.
  51:.\Generated_Source\PSoC4/RTC_I2C_MASTER.c **** *
  52:.\Generated_Source\PSoC4/RTC_I2C_MASTER.c **** * Parameters:
  53:.\Generated_Source\PSoC4/RTC_I2C_MASTER.c **** *  slaveAddr: 7-bit slave address.
  54:.\Generated_Source\PSoC4/RTC_I2C_MASTER.c **** *  xferData:  Pointer to buffer of data to be sent.
  55:.\Generated_Source\PSoC4/RTC_I2C_MASTER.c **** *  cnt:       Size of buffer to send.
  56:.\Generated_Source\PSoC4/RTC_I2C_MASTER.c **** *  mode:      Transfer mode defines: start or restart condition generation at
  57:.\Generated_Source\PSoC4/RTC_I2C_MASTER.c **** *             begin of the transfer and complete the transfer or halt before
  58:.\Generated_Source\PSoC4/RTC_I2C_MASTER.c **** *             generating a stop.
  59:.\Generated_Source\PSoC4/RTC_I2C_MASTER.c **** *
  60:.\Generated_Source\PSoC4/RTC_I2C_MASTER.c **** * Return:
  61:.\Generated_Source\PSoC4/RTC_I2C_MASTER.c **** *  Status error - zero means no errors.
  62:.\Generated_Source\PSoC4/RTC_I2C_MASTER.c **** *
  63:.\Generated_Source\PSoC4/RTC_I2C_MASTER.c **** * Global variables:
  64:.\Generated_Source\PSoC4/RTC_I2C_MASTER.c **** *  RTC_mstrStatus  - used to store current status of I2C Master.
  65:.\Generated_Source\PSoC4/RTC_I2C_MASTER.c **** *  RTC_state       - used to store current state of software FSM.
  66:.\Generated_Source\PSoC4/RTC_I2C_MASTER.c **** *  RTC_mstrControl - used to control master end of transaction with
  67:.\Generated_Source\PSoC4/RTC_I2C_MASTER.c **** *  or without the Stop generation.
  68:.\Generated_Source\PSoC4/RTC_I2C_MASTER.c **** *  RTC_mstrWrBufPtr - used to store pointer to master write buffer.
  69:.\Generated_Source\PSoC4/RTC_I2C_MASTER.c **** *  RTC_mstrWrBufIndex - used to current index within master write
  70:.\Generated_Source\PSoC4/RTC_I2C_MASTER.c **** *  buffer.
  71:.\Generated_Source\PSoC4/RTC_I2C_MASTER.c **** *  RTC_mstrWrBufSize - used to store master write buffer size.
  72:.\Generated_Source\PSoC4/RTC_I2C_MASTER.c **** *
  73:.\Generated_Source\PSoC4/RTC_I2C_MASTER.c **** *******************************************************************************/
  74:.\Generated_Source\PSoC4/RTC_I2C_MASTER.c **** uint32 RTC_I2CMasterWriteBuf(uint32 slaveAddress, uint8 * wrData, uint32 cnt, uint32 mode)
  75:.\Generated_Source\PSoC4/RTC_I2C_MASTER.c **** {
  76:.\Generated_Source\PSoC4/RTC_I2C_MASTER.c ****     uint32 errStatus;
  77:.\Generated_Source\PSoC4/RTC_I2C_MASTER.c **** 
  78:.\Generated_Source\PSoC4/RTC_I2C_MASTER.c ****     errStatus = RTC_I2C_MSTR_NOT_READY;
  79:.\Generated_Source\PSoC4/RTC_I2C_MASTER.c **** 
  80:.\Generated_Source\PSoC4/RTC_I2C_MASTER.c ****     if(NULL != wrData)  /* Check buffer pointer */
  81:.\Generated_Source\PSoC4/RTC_I2C_MASTER.c ****     {
  82:.\Generated_Source\PSoC4/RTC_I2C_MASTER.c ****         /* Check FSM state and bus before generate Start/ReStart condition */
  83:.\Generated_Source\PSoC4/RTC_I2C_MASTER.c ****         if(RTC_CHECK_I2C_FSM_IDLE)
  84:.\Generated_Source\PSoC4/RTC_I2C_MASTER.c ****         {
  85:.\Generated_Source\PSoC4/RTC_I2C_MASTER.c ****             RTC_SCB_IRQ_Disable();
  86:.\Generated_Source\PSoC4/RTC_I2C_MASTER.c **** 
  87:.\Generated_Source\PSoC4/RTC_I2C_MASTER.c ****             /* Check the bus state */
  88:.\Generated_Source\PSoC4/RTC_I2C_MASTER.c ****             errStatus = RTC_CHECK_I2C_STATUS(RTC_I2C_STATUS_BUS_BUSY) ?
  89:.\Generated_Source\PSoC4/RTC_I2C_MASTER.c ****                             RTC_I2C_MSTR_BUS_BUSY : RTC_I2C_MSTR_NO_ERROR;
ARM GAS  C:\Users\Computer\AppData\Local\Temp\cc3MlAIb.s 			page 3


  90:.\Generated_Source\PSoC4/RTC_I2C_MASTER.c ****         }
  91:.\Generated_Source\PSoC4/RTC_I2C_MASTER.c ****         else if(RTC_CHECK_I2C_FSM_HALT)
  92:.\Generated_Source\PSoC4/RTC_I2C_MASTER.c ****         {
  93:.\Generated_Source\PSoC4/RTC_I2C_MASTER.c ****             RTC_mstrStatus &= (uint16) ~RTC_I2C_MSTAT_XFER_HALT;
  94:.\Generated_Source\PSoC4/RTC_I2C_MASTER.c ****                               errStatus  = RTC_I2C_MSTR_NO_ERROR;
  95:.\Generated_Source\PSoC4/RTC_I2C_MASTER.c ****         }
  96:.\Generated_Source\PSoC4/RTC_I2C_MASTER.c ****         else
  97:.\Generated_Source\PSoC4/RTC_I2C_MASTER.c ****         {
  98:.\Generated_Source\PSoC4/RTC_I2C_MASTER.c ****             /* Unexpected FSM state: exit */
  99:.\Generated_Source\PSoC4/RTC_I2C_MASTER.c ****         }
 100:.\Generated_Source\PSoC4/RTC_I2C_MASTER.c ****     }
 101:.\Generated_Source\PSoC4/RTC_I2C_MASTER.c **** 
 102:.\Generated_Source\PSoC4/RTC_I2C_MASTER.c **** 
 103:.\Generated_Source\PSoC4/RTC_I2C_MASTER.c ****     /* Check if the Master is ready to start  */
 104:.\Generated_Source\PSoC4/RTC_I2C_MASTER.c ****     if(RTC_I2C_MSTR_NO_ERROR == errStatus) /* No error proceed */
 105:.\Generated_Source\PSoC4/RTC_I2C_MASTER.c ****     {
 106:.\Generated_Source\PSoC4/RTC_I2C_MASTER.c ****         /* Setup write transcation */
 107:.\Generated_Source\PSoC4/RTC_I2C_MASTER.c ****         RTC_state = RTC_I2C_FSM_MSTR_WR_ADDR;
 108:.\Generated_Source\PSoC4/RTC_I2C_MASTER.c ****         RTC_mstrWrBufIndexTmp = 0u;
 109:.\Generated_Source\PSoC4/RTC_I2C_MASTER.c ****         RTC_mstrWrBufIndex    = 0u;
 110:.\Generated_Source\PSoC4/RTC_I2C_MASTER.c ****         RTC_mstrWrBufSize     = cnt;
 111:.\Generated_Source\PSoC4/RTC_I2C_MASTER.c ****         RTC_mstrWrBufPtr      = (volatile uint8 *) wrData;
 112:.\Generated_Source\PSoC4/RTC_I2C_MASTER.c ****         RTC_mstrControl       = (uint8) mode;
 113:.\Generated_Source\PSoC4/RTC_I2C_MASTER.c **** 
 114:.\Generated_Source\PSoC4/RTC_I2C_MASTER.c ****         slaveAddress = RTC_GET_I2C_8BIT_ADDRESS(slaveAddress);
 115:.\Generated_Source\PSoC4/RTC_I2C_MASTER.c **** 
 116:.\Generated_Source\PSoC4/RTC_I2C_MASTER.c ****         RTC_mstrStatus &= (uint16) ~RTC_I2C_MSTAT_WR_CMPLT;
 117:.\Generated_Source\PSoC4/RTC_I2C_MASTER.c **** 
 118:.\Generated_Source\PSoC4/RTC_I2C_MASTER.c ****         RTC_ClearMasterInterruptSource(RTC_INTR_MASTER_ALL);
 119:.\Generated_Source\PSoC4/RTC_I2C_MASTER.c ****         RTC_ClearTxInterruptSource(RTC_INTR_TX_UNDERFLOW);
 120:.\Generated_Source\PSoC4/RTC_I2C_MASTER.c ****         /* The TX and RX FIFO have to be EMPTY */
 121:.\Generated_Source\PSoC4/RTC_I2C_MASTER.c **** 
 122:.\Generated_Source\PSoC4/RTC_I2C_MASTER.c ****         /* Generate Start or ReStart */
 123:.\Generated_Source\PSoC4/RTC_I2C_MASTER.c ****         if(RTC_CHECK_I2C_MODE_RESTART(mode))
 124:.\Generated_Source\PSoC4/RTC_I2C_MASTER.c ****         {
 125:.\Generated_Source\PSoC4/RTC_I2C_MASTER.c ****             RTC_I2C_MASTER_GENERATE_RESTART;
 126:.\Generated_Source\PSoC4/RTC_I2C_MASTER.c ****             RTC_TX_FIFO_WR_REG = slaveAddress;
 127:.\Generated_Source\PSoC4/RTC_I2C_MASTER.c ****         }
 128:.\Generated_Source\PSoC4/RTC_I2C_MASTER.c ****         else
 129:.\Generated_Source\PSoC4/RTC_I2C_MASTER.c ****         {
 130:.\Generated_Source\PSoC4/RTC_I2C_MASTER.c ****             RTC_TX_FIFO_WR_REG = slaveAddress;
 131:.\Generated_Source\PSoC4/RTC_I2C_MASTER.c ****             RTC_I2C_MASTER_GENERATE_START;
 132:.\Generated_Source\PSoC4/RTC_I2C_MASTER.c ****         }
 133:.\Generated_Source\PSoC4/RTC_I2C_MASTER.c **** 
 134:.\Generated_Source\PSoC4/RTC_I2C_MASTER.c ****          /* Catch when address will be sent */
 135:.\Generated_Source\PSoC4/RTC_I2C_MASTER.c ****         RTC_SetTxInterruptMode(RTC_INTR_TX_UNDERFLOW);
 136:.\Generated_Source\PSoC4/RTC_I2C_MASTER.c ****     }
 137:.\Generated_Source\PSoC4/RTC_I2C_MASTER.c **** 
 138:.\Generated_Source\PSoC4/RTC_I2C_MASTER.c ****     RTC_SCB_IRQ_Enable();
 139:.\Generated_Source\PSoC4/RTC_I2C_MASTER.c **** 
 140:.\Generated_Source\PSoC4/RTC_I2C_MASTER.c ****     return(errStatus);
 141:.\Generated_Source\PSoC4/RTC_I2C_MASTER.c **** }
 142:.\Generated_Source\PSoC4/RTC_I2C_MASTER.c **** 
 143:.\Generated_Source\PSoC4/RTC_I2C_MASTER.c **** 
 144:.\Generated_Source\PSoC4/RTC_I2C_MASTER.c **** /*******************************************************************************
 145:.\Generated_Source\PSoC4/RTC_I2C_MASTER.c **** * Function Name: RTC_I2CMasterReadBuf
 146:.\Generated_Source\PSoC4/RTC_I2C_MASTER.c **** ********************************************************************************
ARM GAS  C:\Users\Computer\AppData\Local\Temp\cc3MlAIb.s 			page 4


 147:.\Generated_Source\PSoC4/RTC_I2C_MASTER.c **** *
 148:.\Generated_Source\PSoC4/RTC_I2C_MASTER.c **** * Summary:
 149:.\Generated_Source\PSoC4/RTC_I2C_MASTER.c **** *  Automatically writes an entire buffer of data to a slave device. Once the
 150:.\Generated_Source\PSoC4/RTC_I2C_MASTER.c **** *  data transfer is initiated by this function, further data transfer is handled
 151:.\Generated_Source\PSoC4/RTC_I2C_MASTER.c **** *  by the included ISR in byte by byte mode.
 152:.\Generated_Source\PSoC4/RTC_I2C_MASTER.c **** *
 153:.\Generated_Source\PSoC4/RTC_I2C_MASTER.c **** * Parameters:
 154:.\Generated_Source\PSoC4/RTC_I2C_MASTER.c **** *  slaveAddr: 7-bit slave address.
 155:.\Generated_Source\PSoC4/RTC_I2C_MASTER.c **** *  xferData:  Pointer to buffer where to put data from slave.
 156:.\Generated_Source\PSoC4/RTC_I2C_MASTER.c **** *  cnt:       Size of buffer to read.
 157:.\Generated_Source\PSoC4/RTC_I2C_MASTER.c **** *  mode:      Transfer mode defines: start or restart condition generation at
 158:.\Generated_Source\PSoC4/RTC_I2C_MASTER.c **** *             begin of the transfer and complete the transfer or halt before
 159:.\Generated_Source\PSoC4/RTC_I2C_MASTER.c **** *             generating a stop.
 160:.\Generated_Source\PSoC4/RTC_I2C_MASTER.c **** *
 161:.\Generated_Source\PSoC4/RTC_I2C_MASTER.c **** * Return:
 162:.\Generated_Source\PSoC4/RTC_I2C_MASTER.c **** *  Status error - zero means no errors.
 163:.\Generated_Source\PSoC4/RTC_I2C_MASTER.c **** *
 164:.\Generated_Source\PSoC4/RTC_I2C_MASTER.c **** * Global variables:
 165:.\Generated_Source\PSoC4/RTC_I2C_MASTER.c **** *  RTC_mstrStatus  - used to store current status of I2C Master.
 166:.\Generated_Source\PSoC4/RTC_I2C_MASTER.c **** *  RTC_state       - used to store current state of software FSM.
 167:.\Generated_Source\PSoC4/RTC_I2C_MASTER.c **** *  RTC_mstrControl - used to control master end of transaction with
 168:.\Generated_Source\PSoC4/RTC_I2C_MASTER.c **** *  or without the Stop generation.
 169:.\Generated_Source\PSoC4/RTC_I2C_MASTER.c **** *  RTC_mstrRdBufPtr - used to store pointer to master write buffer.
 170:.\Generated_Source\PSoC4/RTC_I2C_MASTER.c **** *  RTC_mstrRdBufIndex - used to current index within master write
 171:.\Generated_Source\PSoC4/RTC_I2C_MASTER.c **** *  buffer.
 172:.\Generated_Source\PSoC4/RTC_I2C_MASTER.c **** *  RTC_mstrRdBufSize - used to store master write buffer size.
 173:.\Generated_Source\PSoC4/RTC_I2C_MASTER.c **** *
 174:.\Generated_Source\PSoC4/RTC_I2C_MASTER.c **** *******************************************************************************/
 175:.\Generated_Source\PSoC4/RTC_I2C_MASTER.c **** uint32 RTC_I2CMasterReadBuf(uint32 slaveAddress, uint8 * rdData, uint32 cnt, uint32 mode)
 176:.\Generated_Source\PSoC4/RTC_I2C_MASTER.c **** {
 177:.\Generated_Source\PSoC4/RTC_I2C_MASTER.c ****     uint32 errStatus;
 178:.\Generated_Source\PSoC4/RTC_I2C_MASTER.c **** 
 179:.\Generated_Source\PSoC4/RTC_I2C_MASTER.c ****     errStatus = RTC_I2C_MSTR_NOT_READY;
 180:.\Generated_Source\PSoC4/RTC_I2C_MASTER.c **** 
 181:.\Generated_Source\PSoC4/RTC_I2C_MASTER.c ****     if(NULL != rdData)
 182:.\Generated_Source\PSoC4/RTC_I2C_MASTER.c ****     {
 183:.\Generated_Source\PSoC4/RTC_I2C_MASTER.c ****         /* Check FSM state and bus before generate Start/ReStart condition */
 184:.\Generated_Source\PSoC4/RTC_I2C_MASTER.c ****         if(RTC_CHECK_I2C_FSM_IDLE)
 185:.\Generated_Source\PSoC4/RTC_I2C_MASTER.c ****         {
 186:.\Generated_Source\PSoC4/RTC_I2C_MASTER.c ****             RTC_SCB_IRQ_Disable();
 187:.\Generated_Source\PSoC4/RTC_I2C_MASTER.c **** 
 188:.\Generated_Source\PSoC4/RTC_I2C_MASTER.c ****             /* Check the bus state */
 189:.\Generated_Source\PSoC4/RTC_I2C_MASTER.c ****             errStatus = RTC_CHECK_I2C_STATUS(RTC_I2C_STATUS_BUS_BUSY) ?
 190:.\Generated_Source\PSoC4/RTC_I2C_MASTER.c ****                             RTC_I2C_MSTR_BUS_BUSY : RTC_I2C_MSTR_NO_ERROR;
 191:.\Generated_Source\PSoC4/RTC_I2C_MASTER.c ****         }
 192:.\Generated_Source\PSoC4/RTC_I2C_MASTER.c ****         else if(RTC_CHECK_I2C_FSM_HALT)
 193:.\Generated_Source\PSoC4/RTC_I2C_MASTER.c ****         {
 194:.\Generated_Source\PSoC4/RTC_I2C_MASTER.c ****             RTC_mstrStatus &= (uint16) ~RTC_I2C_MSTAT_XFER_HALT;
 195:.\Generated_Source\PSoC4/RTC_I2C_MASTER.c ****                               errStatus  =  RTC_I2C_MSTR_NO_ERROR;
 196:.\Generated_Source\PSoC4/RTC_I2C_MASTER.c ****         }
 197:.\Generated_Source\PSoC4/RTC_I2C_MASTER.c ****         else
 198:.\Generated_Source\PSoC4/RTC_I2C_MASTER.c ****         {
 199:.\Generated_Source\PSoC4/RTC_I2C_MASTER.c ****             /* Unexpected FSM state: exit */
 200:.\Generated_Source\PSoC4/RTC_I2C_MASTER.c ****         }
 201:.\Generated_Source\PSoC4/RTC_I2C_MASTER.c ****     }
 202:.\Generated_Source\PSoC4/RTC_I2C_MASTER.c **** 
 203:.\Generated_Source\PSoC4/RTC_I2C_MASTER.c ****     /* Check the Master ready to proceed */
ARM GAS  C:\Users\Computer\AppData\Local\Temp\cc3MlAIb.s 			page 5


 204:.\Generated_Source\PSoC4/RTC_I2C_MASTER.c ****     if(RTC_I2C_MSTR_NO_ERROR == errStatus) /* No error proceed */
 205:.\Generated_Source\PSoC4/RTC_I2C_MASTER.c ****     {
 206:.\Generated_Source\PSoC4/RTC_I2C_MASTER.c ****         /* Setup read transfer */
 207:.\Generated_Source\PSoC4/RTC_I2C_MASTER.c ****         RTC_state = RTC_I2C_FSM_MSTR_RD_ADDR;
 208:.\Generated_Source\PSoC4/RTC_I2C_MASTER.c ****         RTC_mstrRdBufIndex = 0u;
 209:.\Generated_Source\PSoC4/RTC_I2C_MASTER.c ****         RTC_mstrRdBufSize  = cnt;
 210:.\Generated_Source\PSoC4/RTC_I2C_MASTER.c ****         RTC_mstrRdBufPtr   = (volatile uint8 *) rdData;
 211:.\Generated_Source\PSoC4/RTC_I2C_MASTER.c ****         RTC_mstrControl    = (uint8) mode;
 212:.\Generated_Source\PSoC4/RTC_I2C_MASTER.c **** 
 213:.\Generated_Source\PSoC4/RTC_I2C_MASTER.c ****         slaveAddress = (RTC_GET_I2C_8BIT_ADDRESS(slaveAddress) | RTC_I2C_READ_FLAG);
 214:.\Generated_Source\PSoC4/RTC_I2C_MASTER.c **** 
 215:.\Generated_Source\PSoC4/RTC_I2C_MASTER.c ****         RTC_mstrStatus &= (uint16) ~RTC_I2C_MSTAT_RD_CMPLT;
 216:.\Generated_Source\PSoC4/RTC_I2C_MASTER.c **** 
 217:.\Generated_Source\PSoC4/RTC_I2C_MASTER.c ****         RTC_ClearMasterInterruptSource(RTC_INTR_MASTER_ALL);
 218:.\Generated_Source\PSoC4/RTC_I2C_MASTER.c **** 
 219:.\Generated_Source\PSoC4/RTC_I2C_MASTER.c ****         /* The TX and RX FIFO have to be EMPTY */
 220:.\Generated_Source\PSoC4/RTC_I2C_MASTER.c **** 
 221:.\Generated_Source\PSoC4/RTC_I2C_MASTER.c ****         /* Generate Start or ReStart */
 222:.\Generated_Source\PSoC4/RTC_I2C_MASTER.c ****         if(RTC_CHECK_I2C_MODE_RESTART(mode))
 223:.\Generated_Source\PSoC4/RTC_I2C_MASTER.c ****         {
 224:.\Generated_Source\PSoC4/RTC_I2C_MASTER.c ****             RTC_I2C_MASTER_GENERATE_RESTART;
 225:.\Generated_Source\PSoC4/RTC_I2C_MASTER.c ****             RTC_TX_FIFO_WR_REG = (slaveAddress);
 226:.\Generated_Source\PSoC4/RTC_I2C_MASTER.c ****         }
 227:.\Generated_Source\PSoC4/RTC_I2C_MASTER.c ****         else
 228:.\Generated_Source\PSoC4/RTC_I2C_MASTER.c ****         {
 229:.\Generated_Source\PSoC4/RTC_I2C_MASTER.c ****             RTC_TX_FIFO_WR_REG = (slaveAddress);
 230:.\Generated_Source\PSoC4/RTC_I2C_MASTER.c ****             RTC_I2C_MASTER_GENERATE_START;
 231:.\Generated_Source\PSoC4/RTC_I2C_MASTER.c ****         }
 232:.\Generated_Source\PSoC4/RTC_I2C_MASTER.c **** 
 233:.\Generated_Source\PSoC4/RTC_I2C_MASTER.c ****         /* Prepare reaing */
 234:.\Generated_Source\PSoC4/RTC_I2C_MASTER.c ****         if(RTC_mstrRdBufSize < RTC_I2C_FIFO_SIZE) /* Reading byte-by-byte */
 235:.\Generated_Source\PSoC4/RTC_I2C_MASTER.c ****         {
 236:.\Generated_Source\PSoC4/RTC_I2C_MASTER.c ****             RTC_SetRxInterruptMode(RTC_INTR_RX_NOT_EMPTY);
 237:.\Generated_Source\PSoC4/RTC_I2C_MASTER.c ****         }
 238:.\Generated_Source\PSoC4/RTC_I2C_MASTER.c ****         else /* Reading use RX FIFO */
 239:.\Generated_Source\PSoC4/RTC_I2C_MASTER.c ****         {
 240:.\Generated_Source\PSoC4/RTC_I2C_MASTER.c ****             RTC_ENABLE_MASTER_AUTO_DATA_ACK;
 241:.\Generated_Source\PSoC4/RTC_I2C_MASTER.c ****             RTC_SetRxInterruptMode(RTC_INTR_RX_FULL);
 242:.\Generated_Source\PSoC4/RTC_I2C_MASTER.c ****         }
 243:.\Generated_Source\PSoC4/RTC_I2C_MASTER.c ****     }
 244:.\Generated_Source\PSoC4/RTC_I2C_MASTER.c **** 
 245:.\Generated_Source\PSoC4/RTC_I2C_MASTER.c ****     RTC_SCB_IRQ_Enable();
 246:.\Generated_Source\PSoC4/RTC_I2C_MASTER.c **** 
 247:.\Generated_Source\PSoC4/RTC_I2C_MASTER.c ****     return(errStatus);
 248:.\Generated_Source\PSoC4/RTC_I2C_MASTER.c **** }
 249:.\Generated_Source\PSoC4/RTC_I2C_MASTER.c **** 
 250:.\Generated_Source\PSoC4/RTC_I2C_MASTER.c **** 
 251:.\Generated_Source\PSoC4/RTC_I2C_MASTER.c **** /*******************************************************************************
 252:.\Generated_Source\PSoC4/RTC_I2C_MASTER.c **** * Function Name: RTC_I2CMasterSendStart
 253:.\Generated_Source\PSoC4/RTC_I2C_MASTER.c **** ********************************************************************************
 254:.\Generated_Source\PSoC4/RTC_I2C_MASTER.c **** *
 255:.\Generated_Source\PSoC4/RTC_I2C_MASTER.c **** * Summary:
 256:.\Generated_Source\PSoC4/RTC_I2C_MASTER.c **** *  Generates Start condition and sends slave address with read/write bit.
 257:.\Generated_Source\PSoC4/RTC_I2C_MASTER.c **** *
 258:.\Generated_Source\PSoC4/RTC_I2C_MASTER.c **** * Parameters:
 259:.\Generated_Source\PSoC4/RTC_I2C_MASTER.c **** *  slaveAddress:  7-bit slave address.
 260:.\Generated_Source\PSoC4/RTC_I2C_MASTER.c **** *  bitRnW:        Zero, send write command, non-zero send read command.
ARM GAS  C:\Users\Computer\AppData\Local\Temp\cc3MlAIb.s 			page 6


 261:.\Generated_Source\PSoC4/RTC_I2C_MASTER.c **** *
 262:.\Generated_Source\PSoC4/RTC_I2C_MASTER.c **** * Return:
 263:.\Generated_Source\PSoC4/RTC_I2C_MASTER.c **** *  Status error - zero means no errors.
 264:.\Generated_Source\PSoC4/RTC_I2C_MASTER.c **** *
 265:.\Generated_Source\PSoC4/RTC_I2C_MASTER.c **** * Side Effects:
 266:.\Generated_Source\PSoC4/RTC_I2C_MASTER.c **** *  This function is entered without a 'byte complete' bit set in the I2C_CSR
 267:.\Generated_Source\PSoC4/RTC_I2C_MASTER.c **** *  register. It does not exit until it will be set.
 268:.\Generated_Source\PSoC4/RTC_I2C_MASTER.c **** *
 269:.\Generated_Source\PSoC4/RTC_I2C_MASTER.c **** * Global variables:
 270:.\Generated_Source\PSoC4/RTC_I2C_MASTER.c **** *  RTC_state - used to store current state of software FSM.
 271:.\Generated_Source\PSoC4/RTC_I2C_MASTER.c **** *
 272:.\Generated_Source\PSoC4/RTC_I2C_MASTER.c **** *******************************************************************************/
 273:.\Generated_Source\PSoC4/RTC_I2C_MASTER.c **** uint32 RTC_I2CMasterSendStart(uint32 slaveAddress, uint32 bitRnW)
 274:.\Generated_Source\PSoC4/RTC_I2C_MASTER.c **** {
  26              		.loc 1 274 0
  27              		.cfi_startproc
  28              	.LVL0:
  29 0000 F0B5     		push	{r4, r5, r6, r7, lr}
  30              	.LCFI0:
  31              		.cfi_def_cfa_offset 20
  32              		.cfi_offset 4, -20
  33              		.cfi_offset 5, -16
  34              		.cfi_offset 6, -12
  35              		.cfi_offset 7, -8
  36              		.cfi_offset 14, -4
  37 0002 4746     		mov	r7, r8
  38 0004 80B4     		push	{r7}
  39              	.LCFI1:
  40              		.cfi_def_cfa_offset 24
  41              		.cfi_offset 8, -24
 275:.\Generated_Source\PSoC4/RTC_I2C_MASTER.c ****     uint32 errStatus;
 276:.\Generated_Source\PSoC4/RTC_I2C_MASTER.c ****     uint8  enableInterrupts;
 277:.\Generated_Source\PSoC4/RTC_I2C_MASTER.c **** 
 278:.\Generated_Source\PSoC4/RTC_I2C_MASTER.c ****     errStatus        = RTC_I2C_MSTR_NOT_READY;
 279:.\Generated_Source\PSoC4/RTC_I2C_MASTER.c ****     enableInterrupts = 0u;
 280:.\Generated_Source\PSoC4/RTC_I2C_MASTER.c **** 
 281:.\Generated_Source\PSoC4/RTC_I2C_MASTER.c ****     /* Check FSM state before generate Start condition */
 282:.\Generated_Source\PSoC4/RTC_I2C_MASTER.c ****     if(RTC_CHECK_I2C_FSM_IDLE)
  42              		.loc 1 282 0
  43 0006 2B4D     		ldr	r5, .L20
 274:.\Generated_Source\PSoC4/RTC_I2C_MASTER.c **** {
  44              		.loc 1 274 0
  45 0008 071C     		mov	r7, r0
  46              		.loc 1 282 0
  47 000a 2B78     		ldrb	r3, [r5]
 274:.\Generated_Source\PSoC4/RTC_I2C_MASTER.c **** {
  48              		.loc 1 274 0
  49 000c 0E1C     		mov	r6, r1
 278:.\Generated_Source\PSoC4/RTC_I2C_MASTER.c ****     errStatus        = RTC_I2C_MSTR_NOT_READY;
  50              		.loc 1 278 0
  51 000e 0424     		mov	r4, #4
  52              		.loc 1 282 0
  53 0010 102B     		cmp	r3, #16
  54 0012 03D0     		beq	.L19
  55              	.LVL1:
  56              	.L15:
 283:.\Generated_Source\PSoC4/RTC_I2C_MASTER.c ****     {
ARM GAS  C:\Users\Computer\AppData\Local\Temp\cc3MlAIb.s 			page 7


 284:.\Generated_Source\PSoC4/RTC_I2C_MASTER.c ****         /* If bus is free, generate Start condition */
 285:.\Generated_Source\PSoC4/RTC_I2C_MASTER.c ****         if(RTC_CHECK_I2C_STATUS(RTC_I2C_STATUS_BUS_BUSY))
 286:.\Generated_Source\PSoC4/RTC_I2C_MASTER.c ****         {
 287:.\Generated_Source\PSoC4/RTC_I2C_MASTER.c ****             errStatus = RTC_I2C_MSTR_BUS_BUSY;
 288:.\Generated_Source\PSoC4/RTC_I2C_MASTER.c ****         }
 289:.\Generated_Source\PSoC4/RTC_I2C_MASTER.c ****         else
 290:.\Generated_Source\PSoC4/RTC_I2C_MASTER.c ****         {
 291:.\Generated_Source\PSoC4/RTC_I2C_MASTER.c ****             RTC_SCB_IRQ_Disable(); /* Disable interrupt: the manual APIs don't require it */
 292:.\Generated_Source\PSoC4/RTC_I2C_MASTER.c **** 
 293:.\Generated_Source\PSoC4/RTC_I2C_MASTER.c ****             slaveAddress = RTC_GET_I2C_8BIT_ADDRESS(slaveAddress);
 294:.\Generated_Source\PSoC4/RTC_I2C_MASTER.c **** 
 295:.\Generated_Source\PSoC4/RTC_I2C_MASTER.c ****             if(0u == bitRnW) /* Write direction */
 296:.\Generated_Source\PSoC4/RTC_I2C_MASTER.c ****             {
 297:.\Generated_Source\PSoC4/RTC_I2C_MASTER.c ****                 RTC_state = RTC_I2C_FSM_MSTR_WR_DATA;
 298:.\Generated_Source\PSoC4/RTC_I2C_MASTER.c ****             }
 299:.\Generated_Source\PSoC4/RTC_I2C_MASTER.c ****             else /* Read direction */
 300:.\Generated_Source\PSoC4/RTC_I2C_MASTER.c ****             {
 301:.\Generated_Source\PSoC4/RTC_I2C_MASTER.c ****                 RTC_state = RTC_I2C_FSM_MSTR_RD_DATA;
 302:.\Generated_Source\PSoC4/RTC_I2C_MASTER.c ****                          slaveAddress |= RTC_I2C_READ_FLAG;
 303:.\Generated_Source\PSoC4/RTC_I2C_MASTER.c ****             }
 304:.\Generated_Source\PSoC4/RTC_I2C_MASTER.c **** 
 305:.\Generated_Source\PSoC4/RTC_I2C_MASTER.c ****             /* The TX and RX FIFO have to be EMPTY */
 306:.\Generated_Source\PSoC4/RTC_I2C_MASTER.c **** 
 307:.\Generated_Source\PSoC4/RTC_I2C_MASTER.c ****             RTC_TX_FIFO_WR_REG = slaveAddress; /* Put address in TX FIFO */
 308:.\Generated_Source\PSoC4/RTC_I2C_MASTER.c ****             RTC_ClearMasterInterruptSource(RTC_INTR_MASTER_ALL);
 309:.\Generated_Source\PSoC4/RTC_I2C_MASTER.c **** 
 310:.\Generated_Source\PSoC4/RTC_I2C_MASTER.c ****             RTC_I2C_MASTER_GENERATE_START;
 311:.\Generated_Source\PSoC4/RTC_I2C_MASTER.c **** 
 312:.\Generated_Source\PSoC4/RTC_I2C_MASTER.c **** 
 313:.\Generated_Source\PSoC4/RTC_I2C_MASTER.c ****             while(!RTC_CHECK_INTR_MASTER(RTC_INTR_MASTER_I2C_ACK      |
 314:.\Generated_Source\PSoC4/RTC_I2C_MASTER.c ****                                                       RTC_INTR_MASTER_I2C_NACK     |
 315:.\Generated_Source\PSoC4/RTC_I2C_MASTER.c ****                                                       RTC_INTR_MASTER_I2C_ARB_LOST |
 316:.\Generated_Source\PSoC4/RTC_I2C_MASTER.c ****                                                       RTC_INTR_MASTER_I2C_BUS_ERROR))
 317:.\Generated_Source\PSoC4/RTC_I2C_MASTER.c ****             {
 318:.\Generated_Source\PSoC4/RTC_I2C_MASTER.c ****                 /*
 319:.\Generated_Source\PSoC4/RTC_I2C_MASTER.c ****                 * Write: wait until address will be transfered
 320:.\Generated_Source\PSoC4/RTC_I2C_MASTER.c ****                 * Read : wait until address will be tranfered, the data byte is going to RX FIFO as
 321:.\Generated_Source\PSoC4/RTC_I2C_MASTER.c ****                 */
 322:.\Generated_Source\PSoC4/RTC_I2C_MASTER.c ****             }
 323:.\Generated_Source\PSoC4/RTC_I2C_MASTER.c **** 
 324:.\Generated_Source\PSoC4/RTC_I2C_MASTER.c ****             /*
 325:.\Generated_Source\PSoC4/RTC_I2C_MASTER.c ****             * Check results of address phase:
 326:.\Generated_Source\PSoC4/RTC_I2C_MASTER.c ****             *  ACK  - address was ACKed continue.
 327:.\Generated_Source\PSoC4/RTC_I2C_MASTER.c ****             *  NACK - address was NACKed continue.
 328:.\Generated_Source\PSoC4/RTC_I2C_MASTER.c ****             *  LOST_ARB - SDA line is not match to what master drives:
 329:.\Generated_Source\PSoC4/RTC_I2C_MASTER.c ****             *  lost arbitration or misplaced Start. Place: 7-bits address and RnW bit.
 330:.\Generated_Source\PSoC4/RTC_I2C_MASTER.c ****             *  The misplaced Start is possible when SCB drives SDA 1 and it changes to 0, when SCL 
 331:.\Generated_Source\PSoC4/RTC_I2C_MASTER.c ****             *  BUS_ERR - misplaced Start or Stop when Slave drives. Place: ACK/NACK bit.
 332:.\Generated_Source\PSoC4/RTC_I2C_MASTER.c ****             *  The misplaced Start or Stop causes the bus idle status to get stuck to busy.
 333:.\Generated_Source\PSoC4/RTC_I2C_MASTER.c ****             *  The misplaced Start is possible when SCB drives SCL 1 and it changes
 334:.\Generated_Source\PSoC4/RTC_I2C_MASTER.c ****             *  from 1 to 0 (Start) or 0 to 1 (Stop).
 335:.\Generated_Source\PSoC4/RTC_I2C_MASTER.c ****             *  Reset SCB on either LOST_ARB or BUS_ERR as both could be caused by
 336:.\Generated_Source\PSoC4/RTC_I2C_MASTER.c ****             *  misplaced Start event to reset bus busy.
 337:.\Generated_Source\PSoC4/RTC_I2C_MASTER.c ****             */
 338:.\Generated_Source\PSoC4/RTC_I2C_MASTER.c ****             if(RTC_CHECK_INTR_MASTER(RTC_INTR_MASTER_I2C_ACK))
 339:.\Generated_Source\PSoC4/RTC_I2C_MASTER.c ****             {
 340:.\Generated_Source\PSoC4/RTC_I2C_MASTER.c ****                 errStatus = RTC_I2C_MSTR_NO_ERROR;
ARM GAS  C:\Users\Computer\AppData\Local\Temp\cc3MlAIb.s 			page 8


 341:.\Generated_Source\PSoC4/RTC_I2C_MASTER.c ****             }
 342:.\Generated_Source\PSoC4/RTC_I2C_MASTER.c ****             else if(RTC_CHECK_INTR_MASTER(RTC_INTR_MASTER_I2C_NACK))
 343:.\Generated_Source\PSoC4/RTC_I2C_MASTER.c ****             {
 344:.\Generated_Source\PSoC4/RTC_I2C_MASTER.c ****                 errStatus = RTC_I2C_MSTR_ERR_LB_NAK;
 345:.\Generated_Source\PSoC4/RTC_I2C_MASTER.c ****             }
 346:.\Generated_Source\PSoC4/RTC_I2C_MASTER.c ****             else if(RTC_CHECK_INTR_MASTER(RTC_INTR_MASTER_I2C_ARB_LOST))
 347:.\Generated_Source\PSoC4/RTC_I2C_MASTER.c ****             {
 348:.\Generated_Source\PSoC4/RTC_I2C_MASTER.c ****                 RTC_state = RTC_I2C_FSM_IDLE;
 349:.\Generated_Source\PSoC4/RTC_I2C_MASTER.c ****                              errStatus = RTC_I2C_MSTR_ERR_ARB_LOST;
 350:.\Generated_Source\PSoC4/RTC_I2C_MASTER.c ****                       enableInterrupts = RTC_I2C_RESET_ERROR;
 351:.\Generated_Source\PSoC4/RTC_I2C_MASTER.c ****             }
 352:.\Generated_Source\PSoC4/RTC_I2C_MASTER.c ****             else /* RTC_INTR_MASTER_I2C_BUS_ERROR set is else condition */
 353:.\Generated_Source\PSoC4/RTC_I2C_MASTER.c ****             {
 354:.\Generated_Source\PSoC4/RTC_I2C_MASTER.c ****                 RTC_state = RTC_I2C_FSM_IDLE;
 355:.\Generated_Source\PSoC4/RTC_I2C_MASTER.c ****                              errStatus = RTC_I2C_MSTR_ERR_BUS_ERR;
 356:.\Generated_Source\PSoC4/RTC_I2C_MASTER.c ****                       enableInterrupts = RTC_I2C_RESET_ERROR;
 357:.\Generated_Source\PSoC4/RTC_I2C_MASTER.c ****             }
 358:.\Generated_Source\PSoC4/RTC_I2C_MASTER.c **** 
 359:.\Generated_Source\PSoC4/RTC_I2C_MASTER.c ****             RTC_ClearMasterInterruptSource(RTC_INTR_MASTER_I2C_ACK      |
 360:.\Generated_Source\PSoC4/RTC_I2C_MASTER.c ****                                                         RTC_INTR_MASTER_I2C_NACK     |
 361:.\Generated_Source\PSoC4/RTC_I2C_MASTER.c ****                                                         RTC_INTR_MASTER_I2C_ARB_LOST |
 362:.\Generated_Source\PSoC4/RTC_I2C_MASTER.c ****                                                         RTC_INTR_MASTER_I2C_BUS_ERROR);
 363:.\Generated_Source\PSoC4/RTC_I2C_MASTER.c **** 
 364:.\Generated_Source\PSoC4/RTC_I2C_MASTER.c ****             /* Reset block in case of: LOST_ARB or BUS_ERR */
 365:.\Generated_Source\PSoC4/RTC_I2C_MASTER.c ****             if(0u != enableInterrupts)
 366:.\Generated_Source\PSoC4/RTC_I2C_MASTER.c ****             {
 367:.\Generated_Source\PSoC4/RTC_I2C_MASTER.c ****                 enableInterrupts = CyEnterCriticalSection();
 368:.\Generated_Source\PSoC4/RTC_I2C_MASTER.c ****                 RTC_SCB_SW_RESET;
 369:.\Generated_Source\PSoC4/RTC_I2C_MASTER.c ****                 CyExitCriticalSection(enableInterrupts);
 370:.\Generated_Source\PSoC4/RTC_I2C_MASTER.c ****             }
 371:.\Generated_Source\PSoC4/RTC_I2C_MASTER.c ****         }
 372:.\Generated_Source\PSoC4/RTC_I2C_MASTER.c ****     }
 373:.\Generated_Source\PSoC4/RTC_I2C_MASTER.c **** 
 374:.\Generated_Source\PSoC4/RTC_I2C_MASTER.c ****     return(errStatus);
 375:.\Generated_Source\PSoC4/RTC_I2C_MASTER.c **** }
  57              		.loc 1 375 0
  58 0014 201C     		mov	r0, r4
  59              		@ sp needed for prologue
  60 0016 04BC     		pop	{r2}
  61 0018 9046     		mov	r8, r2
  62 001a F0BD     		pop	{r4, r5, r6, r7, pc}
  63              	.LVL2:
  64              	.L19:
 285:.\Generated_Source\PSoC4/RTC_I2C_MASTER.c ****         if(RTC_CHECK_I2C_STATUS(RTC_I2C_STATUS_BUS_BUSY))
  65              		.loc 1 285 0
  66 001c 2648     		ldr	r0, .L20+4
  67              	.LVL3:
  68 001e 0121     		mov	r1, #1
  69              	.LVL4:
  70 0020 0368     		ldr	r3, [r0]
  71 0022 8846     		mov	r8, r1
 287:.\Generated_Source\PSoC4/RTC_I2C_MASTER.c ****             errStatus = RTC_I2C_MSTR_BUS_BUSY;
  72              		.loc 1 287 0
  73 0024 0824     		mov	r4, #8
 285:.\Generated_Source\PSoC4/RTC_I2C_MASTER.c ****         if(RTC_CHECK_I2C_STATUS(RTC_I2C_STATUS_BUS_BUSY))
  74              		.loc 1 285 0
  75 0026 1942     		tst	r1, r3
ARM GAS  C:\Users\Computer\AppData\Local\Temp\cc3MlAIb.s 			page 9


  76 0028 F4D1     		bne	.L15
 293:.\Generated_Source\PSoC4/RTC_I2C_MASTER.c ****             slaveAddress = RTC_GET_I2C_8BIT_ADDRESS(slaveAddress);
  77              		.loc 1 293 0
  78 002a 7C00     		lsl	r4, r7, #1
  79 002c FF27     		mov	r7, #255
  80              	.LVL5:
 291:.\Generated_Source\PSoC4/RTC_I2C_MASTER.c ****             RTC_SCB_IRQ_Disable(); /* Disable interrupt: the manual APIs don't require it */
  81              		.loc 1 291 0
  82 002e FFF7FEFF 		bl	RTC_SCB_IRQ_Disable
  83              	.LVL6:
 293:.\Generated_Source\PSoC4/RTC_I2C_MASTER.c ****             slaveAddress = RTC_GET_I2C_8BIT_ADDRESS(slaveAddress);
  84              		.loc 1 293 0
  85 0032 3C40     		and	r4, r7
  86              	.LVL7:
 295:.\Generated_Source\PSoC4/RTC_I2C_MASTER.c ****             if(0u == bitRnW) /* Write direction */
  87              		.loc 1 295 0
  88 0034 002E     		cmp	r6, #0
  89 0036 2CD1     		bne	.L3
 297:.\Generated_Source\PSoC4/RTC_I2C_MASTER.c ****                 RTC_state = RTC_I2C_FSM_MSTR_WR_DATA;
  90              		.loc 1 297 0
  91 0038 2423     		mov	r3, #36
  92 003a 2B70     		strb	r3, [r5]
  93              	.LVL8:
  94              	.L4:
 307:.\Generated_Source\PSoC4/RTC_I2C_MASTER.c ****             RTC_TX_FIFO_WR_REG = slaveAddress; /* Put address in TX FIFO */
  95              		.loc 1 307 0
  96 003c 1F49     		ldr	r1, .L20+8
 308:.\Generated_Source\PSoC4/RTC_I2C_MASTER.c ****             RTC_ClearMasterInterruptSource(RTC_INTR_MASTER_ALL);
  97              		.loc 1 308 0
  98 003e 204A     		ldr	r2, .L20+12
 307:.\Generated_Source\PSoC4/RTC_I2C_MASTER.c ****             RTC_TX_FIFO_WR_REG = slaveAddress; /* Put address in TX FIFO */
  99              		.loc 1 307 0
 100 0040 0C60     		str	r4, [r1]
 310:.\Generated_Source\PSoC4/RTC_I2C_MASTER.c ****             RTC_I2C_MASTER_GENERATE_START;
 101              		.loc 1 310 0
 102 0042 204E     		ldr	r6, .L20+16
 308:.\Generated_Source\PSoC4/RTC_I2C_MASTER.c ****             RTC_ClearMasterInterruptSource(RTC_INTR_MASTER_ALL);
 103              		.loc 1 308 0
 104 0044 204C     		ldr	r4, .L20+20
 105              	.LVL9:
 310:.\Generated_Source\PSoC4/RTC_I2C_MASTER.c ****             RTC_I2C_MASTER_GENERATE_START;
 106              		.loc 1 310 0
 107 0046 0227     		mov	r7, #2
 313:.\Generated_Source\PSoC4/RTC_I2C_MASTER.c ****             while(!RTC_CHECK_INTR_MASTER(RTC_INTR_MASTER_I2C_ACK      |
 108              		.loc 1 313 0
 109 0048 2048     		ldr	r0, .L20+24
 308:.\Generated_Source\PSoC4/RTC_I2C_MASTER.c ****             RTC_ClearMasterInterruptSource(RTC_INTR_MASTER_ALL);
 110              		.loc 1 308 0
 111 004a 2260     		str	r2, [r4]
 310:.\Generated_Source\PSoC4/RTC_I2C_MASTER.c ****             RTC_I2C_MASTER_GENERATE_START;
 112              		.loc 1 310 0
 113 004c 3760     		str	r7, [r6]
 114              	.L5:
 313:.\Generated_Source\PSoC4/RTC_I2C_MASTER.c ****             while(!RTC_CHECK_INTR_MASTER(RTC_INTR_MASTER_I2C_ACK      |
 115              		.loc 1 313 0 discriminator 1
 116 004e 2368     		ldr	r3, [r4]
 117 0050 1D4A     		ldr	r2, .L20+20
ARM GAS  C:\Users\Computer\AppData\Local\Temp\cc3MlAIb.s 			page 10


 118 0052 0342     		tst	r3, r0
 119 0054 FBD0     		beq	.L5
 338:.\Generated_Source\PSoC4/RTC_I2C_MASTER.c ****             if(RTC_CHECK_INTR_MASTER(RTC_INTR_MASTER_I2C_ACK))
 120              		.loc 1 338 0
 121 0056 1168     		ldr	r1, [r2]
 122              	.LVL10:
 123 0058 4907     		lsl	r1, r1, #29
 124 005a 1FD4     		bmi	.L11
 342:.\Generated_Source\PSoC4/RTC_I2C_MASTER.c ****             else if(RTC_CHECK_INTR_MASTER(RTC_INTR_MASTER_I2C_NACK))
 125              		.loc 1 342 0
 126 005c 1468     		ldr	r4, [r2]
 127 005e A107     		lsl	r1, r4, #30
 128 0060 21D4     		bmi	.L12
 346:.\Generated_Source\PSoC4/RTC_I2C_MASTER.c ****             else if(RTC_CHECK_INTR_MASTER(RTC_INTR_MASTER_I2C_ARB_LOST))
 129              		.loc 1 346 0
 130 0062 1768     		ldr	r7, [r2]
 131 0064 FA07     		lsl	r2, r7, #31
 132 0066 20D5     		bpl	.L7
 348:.\Generated_Source\PSoC4/RTC_I2C_MASTER.c ****                 RTC_state = RTC_I2C_FSM_IDLE;
 133              		.loc 1 348 0
 134 0068 1020     		mov	r0, #16
 135 006a 2870     		strb	r0, [r5]
 136              	.LVL11:
 349:.\Generated_Source\PSoC4/RTC_I2C_MASTER.c ****                              errStatus = RTC_I2C_MSTR_ERR_ARB_LOST;
 137              		.loc 1 349 0
 138 006c 0124     		mov	r4, #1
 139              	.LVL12:
 140              	.L8:
 359:.\Generated_Source\PSoC4/RTC_I2C_MASTER.c ****             RTC_ClearMasterInterruptSource(RTC_INTR_MASTER_I2C_ACK      |
 141              		.loc 1 359 0
 142 006e 174A     		ldr	r2, .L20+24
 143 0070 154B     		ldr	r3, .L20+20
 368:.\Generated_Source\PSoC4/RTC_I2C_MASTER.c ****                 RTC_SCB_SW_RESET;
 144              		.loc 1 368 0
 145 0072 174F     		ldr	r7, .L20+28
 359:.\Generated_Source\PSoC4/RTC_I2C_MASTER.c ****             RTC_ClearMasterInterruptSource(RTC_INTR_MASTER_I2C_ACK      |
 146              		.loc 1 359 0
 147 0074 1A60     		str	r2, [r3]
 367:.\Generated_Source\PSoC4/RTC_I2C_MASTER.c ****                 enableInterrupts = CyEnterCriticalSection();
 148              		.loc 1 367 0
 149 0076 FFF7FEFF 		bl	CyEnterCriticalSection
 150              	.LVL13:
 368:.\Generated_Source\PSoC4/RTC_I2C_MASTER.c ****                 RTC_SCB_SW_RESET;
 151              		.loc 1 368 0
 152 007a 3968     		ldr	r1, [r7]
 153 007c 8022     		mov	r2, #128
 154 007e 4E00     		lsl	r6, r1, #1
 155 0080 7508     		lsr	r5, r6, #1
 156 0082 3D60     		str	r5, [r7]
 157 0084 3B68     		ldr	r3, [r7]
 158 0086 1106     		lsl	r1, r2, #24
 159 0088 1943     		orr	r1, r3
 160 008a 3960     		str	r1, [r7]
 369:.\Generated_Source\PSoC4/RTC_I2C_MASTER.c ****                 CyExitCriticalSection(enableInterrupts);
 161              		.loc 1 369 0
 162 008c FFF7FEFF 		bl	CyExitCriticalSection
 163              	.LVL14:
ARM GAS  C:\Users\Computer\AppData\Local\Temp\cc3MlAIb.s 			page 11


 164 0090 C0E7     		b	.L15
 165              	.LVL15:
 166              	.L3:
 301:.\Generated_Source\PSoC4/RTC_I2C_MASTER.c ****                 RTC_state = RTC_I2C_FSM_MSTR_RD_DATA;
 167              		.loc 1 301 0
 168 0092 2526     		mov	r6, #37
 169              	.LVL16:
 302:.\Generated_Source\PSoC4/RTC_I2C_MASTER.c ****                          slaveAddress |= RTC_I2C_READ_FLAG;
 170              		.loc 1 302 0
 171 0094 4046     		mov	r0, r8
 301:.\Generated_Source\PSoC4/RTC_I2C_MASTER.c ****                 RTC_state = RTC_I2C_FSM_MSTR_RD_DATA;
 172              		.loc 1 301 0
 173 0096 2E70     		strb	r6, [r5]
 302:.\Generated_Source\PSoC4/RTC_I2C_MASTER.c ****                          slaveAddress |= RTC_I2C_READ_FLAG;
 174              		.loc 1 302 0
 175 0098 0443     		orr	r4, r0
 176              	.LVL17:
 177 009a CFE7     		b	.L4
 178              	.LVL18:
 179              	.L11:
 340:.\Generated_Source\PSoC4/RTC_I2C_MASTER.c ****                 errStatus = RTC_I2C_MSTR_NO_ERROR;
 180              		.loc 1 340 0
 181 009c 0024     		mov	r4, #0
 182              	.L6:
 183              	.LVL19:
 359:.\Generated_Source\PSoC4/RTC_I2C_MASTER.c ****             RTC_ClearMasterInterruptSource(RTC_INTR_MASTER_I2C_ACK      |
 184              		.loc 1 359 0
 185 009e 0B48     		ldr	r0, .L20+24
 186 00a0 094F     		ldr	r7, .L20+20
 187 00a2 3860     		str	r0, [r7]
 188 00a4 B6E7     		b	.L15
 189              	.LVL20:
 190              	.L12:
 344:.\Generated_Source\PSoC4/RTC_I2C_MASTER.c ****                 errStatus = RTC_I2C_MSTR_ERR_LB_NAK;
 191              		.loc 1 344 0
 192 00a6 0224     		mov	r4, #2
 193 00a8 F9E7     		b	.L6
 194              	.L7:
 354:.\Generated_Source\PSoC4/RTC_I2C_MASTER.c ****                 RTC_state = RTC_I2C_FSM_IDLE;
 195              		.loc 1 354 0
 196 00aa 1026     		mov	r6, #16
 197 00ac 2E70     		strb	r6, [r5]
 198              	.LVL21:
 355:.\Generated_Source\PSoC4/RTC_I2C_MASTER.c ****                              errStatus = RTC_I2C_MSTR_ERR_BUS_ERR;
 199              		.loc 1 355 0
 200 00ae 8025     		mov	r5, #128
 201 00b0 6C00     		lsl	r4, r5, #1
 202 00b2 DCE7     		b	.L8
 203              	.L21:
 204              		.align	2
 205              	.L20:
 206 00b4 00000000 		.word	RTC_state
 207 00b8 64000640 		.word	1074135140
 208 00bc 40020640 		.word	1074135616
 209 00c0 17030000 		.word	791
 210 00c4 68000640 		.word	1074135144
 211 00c8 000F0640 		.word	1074138880
ARM GAS  C:\Users\Computer\AppData\Local\Temp\cc3MlAIb.s 			page 12


 212 00cc 07010000 		.word	263
 213 00d0 00000640 		.word	1074135040
 214              		.cfi_endproc
 215              	.LFE2:
 216              		.size	RTC_I2CMasterSendStart, .-RTC_I2CMasterSendStart
 217              		.section	.text.RTC_I2CMasterSendStop,"ax",%progbits
 218              		.align	2
 219              		.global	RTC_I2CMasterSendStop
 220              		.code	16
 221              		.thumb_func
 222              		.type	RTC_I2CMasterSendStop, %function
 223              	RTC_I2CMasterSendStop:
 224              	.LFB4:
 376:.\Generated_Source\PSoC4/RTC_I2C_MASTER.c **** 
 377:.\Generated_Source\PSoC4/RTC_I2C_MASTER.c **** 
 378:.\Generated_Source\PSoC4/RTC_I2C_MASTER.c **** /*******************************************************************************
 379:.\Generated_Source\PSoC4/RTC_I2C_MASTER.c **** * Function Name: RTC_I2CMasterSendRestart
 380:.\Generated_Source\PSoC4/RTC_I2C_MASTER.c **** ********************************************************************************
 381:.\Generated_Source\PSoC4/RTC_I2C_MASTER.c **** *
 382:.\Generated_Source\PSoC4/RTC_I2C_MASTER.c **** * Summary:
 383:.\Generated_Source\PSoC4/RTC_I2C_MASTER.c **** *  Generates ReStart condition and sends slave address with read/write bit.
 384:.\Generated_Source\PSoC4/RTC_I2C_MASTER.c **** *
 385:.\Generated_Source\PSoC4/RTC_I2C_MASTER.c **** * Parameters:
 386:.\Generated_Source\PSoC4/RTC_I2C_MASTER.c **** *  slaveAddress:  7-bit slave address.
 387:.\Generated_Source\PSoC4/RTC_I2C_MASTER.c **** *  bitRnW:        Zero, send write command, non-zero send read command.
 388:.\Generated_Source\PSoC4/RTC_I2C_MASTER.c **** *
 389:.\Generated_Source\PSoC4/RTC_I2C_MASTER.c **** * Return:
 390:.\Generated_Source\PSoC4/RTC_I2C_MASTER.c **** *  Status error - zero means no errors.
 391:.\Generated_Source\PSoC4/RTC_I2C_MASTER.c **** *
 392:.\Generated_Source\PSoC4/RTC_I2C_MASTER.c **** * Side Effects:
 393:.\Generated_Source\PSoC4/RTC_I2C_MASTER.c **** *  This function is entered without a 'byte complete' bit set in the I2C_CSR
 394:.\Generated_Source\PSoC4/RTC_I2C_MASTER.c **** *  register. It does not exit until it will be set.
 395:.\Generated_Source\PSoC4/RTC_I2C_MASTER.c **** *
 396:.\Generated_Source\PSoC4/RTC_I2C_MASTER.c **** * Global variables:
 397:.\Generated_Source\PSoC4/RTC_I2C_MASTER.c **** *  RTC_state - used to store current state of software FSM.
 398:.\Generated_Source\PSoC4/RTC_I2C_MASTER.c **** *
 399:.\Generated_Source\PSoC4/RTC_I2C_MASTER.c **** *******************************************************************************/
 400:.\Generated_Source\PSoC4/RTC_I2C_MASTER.c **** uint32 RTC_I2CMasterSendRestart(uint32 slaveAddress, uint32 bitRnW)
 401:.\Generated_Source\PSoC4/RTC_I2C_MASTER.c **** {
 402:.\Generated_Source\PSoC4/RTC_I2C_MASTER.c ****     uint32 errStatus;
 403:.\Generated_Source\PSoC4/RTC_I2C_MASTER.c ****     uint8  enableInterrupts;
 404:.\Generated_Source\PSoC4/RTC_I2C_MASTER.c **** 
 405:.\Generated_Source\PSoC4/RTC_I2C_MASTER.c ****     errStatus        = RTC_I2C_MSTR_NOT_READY;
 406:.\Generated_Source\PSoC4/RTC_I2C_MASTER.c ****     enableInterrupts = 0u;
 407:.\Generated_Source\PSoC4/RTC_I2C_MASTER.c **** 
 408:.\Generated_Source\PSoC4/RTC_I2C_MASTER.c ****     /* Check FSM state before generate ReStart condition */
 409:.\Generated_Source\PSoC4/RTC_I2C_MASTER.c ****     if(RTC_CHECK_I2C_MASTER_ACTIVE)
 410:.\Generated_Source\PSoC4/RTC_I2C_MASTER.c ****     {
 411:.\Generated_Source\PSoC4/RTC_I2C_MASTER.c ****         slaveAddress = RTC_GET_I2C_8BIT_ADDRESS(slaveAddress);
 412:.\Generated_Source\PSoC4/RTC_I2C_MASTER.c **** 
 413:.\Generated_Source\PSoC4/RTC_I2C_MASTER.c ****         if(0u == bitRnW) /* Write direction */
 414:.\Generated_Source\PSoC4/RTC_I2C_MASTER.c ****         {
 415:.\Generated_Source\PSoC4/RTC_I2C_MASTER.c ****             RTC_state = RTC_I2C_FSM_MSTR_WR_DATA;
 416:.\Generated_Source\PSoC4/RTC_I2C_MASTER.c ****         }
 417:.\Generated_Source\PSoC4/RTC_I2C_MASTER.c ****         else  /* Read direction */
 418:.\Generated_Source\PSoC4/RTC_I2C_MASTER.c ****         {
 419:.\Generated_Source\PSoC4/RTC_I2C_MASTER.c ****             RTC_state  = RTC_I2C_FSM_MSTR_RD_DATA;
ARM GAS  C:\Users\Computer\AppData\Local\Temp\cc3MlAIb.s 			page 13


 420:.\Generated_Source\PSoC4/RTC_I2C_MASTER.c ****                       slaveAddress |= RTC_I2C_READ_FLAG;
 421:.\Generated_Source\PSoC4/RTC_I2C_MASTER.c ****         }
 422:.\Generated_Source\PSoC4/RTC_I2C_MASTER.c **** 
 423:.\Generated_Source\PSoC4/RTC_I2C_MASTER.c ****         /* The TX and RX FIFO have to be EMPTY */
 424:.\Generated_Source\PSoC4/RTC_I2C_MASTER.c **** 
 425:.\Generated_Source\PSoC4/RTC_I2C_MASTER.c ****         /* Clean-up interrupt status */
 426:.\Generated_Source\PSoC4/RTC_I2C_MASTER.c ****         RTC_ClearMasterInterruptSource(RTC_INTR_MASTER_ALL);
 427:.\Generated_Source\PSoC4/RTC_I2C_MASTER.c **** 
 428:.\Generated_Source\PSoC4/RTC_I2C_MASTER.c ****         /*
 429:.\Generated_Source\PSoC4/RTC_I2C_MASTER.c ****         * Generates a START - the restart should be set first and then address need to be put,
 430:.\Generated_Source\PSoC4/RTC_I2C_MASTER.c ****         * Because on write the byte in TX FIFO treated as DATA byte. ReStart will not be generated
 431:.\Generated_Source\PSoC4/RTC_I2C_MASTER.c ****         */
 432:.\Generated_Source\PSoC4/RTC_I2C_MASTER.c ****         RTC_I2C_MASTER_GENERATE_RESTART;
 433:.\Generated_Source\PSoC4/RTC_I2C_MASTER.c **** 
 434:.\Generated_Source\PSoC4/RTC_I2C_MASTER.c ****         while(RTC_CHECK_I2C_MASTER_CMD(RTC_I2C_MASTER_CMD_M_START))
 435:.\Generated_Source\PSoC4/RTC_I2C_MASTER.c ****         {
 436:.\Generated_Source\PSoC4/RTC_I2C_MASTER.c ****             /* Wait until ReStart will be generated */
 437:.\Generated_Source\PSoC4/RTC_I2C_MASTER.c ****         }
 438:.\Generated_Source\PSoC4/RTC_I2C_MASTER.c **** 
 439:.\Generated_Source\PSoC4/RTC_I2C_MASTER.c ****         /* Put address into TX FIFO */
 440:.\Generated_Source\PSoC4/RTC_I2C_MASTER.c ****         RTC_TX_FIFO_WR_REG = slaveAddress;
 441:.\Generated_Source\PSoC4/RTC_I2C_MASTER.c **** 
 442:.\Generated_Source\PSoC4/RTC_I2C_MASTER.c ****         /* Wait for the address to be transfered */
 443:.\Generated_Source\PSoC4/RTC_I2C_MASTER.c ****         while(!RTC_CHECK_INTR_MASTER(RTC_INTR_MASTER_I2C_ACK      |
 444:.\Generated_Source\PSoC4/RTC_I2C_MASTER.c ****                                                   RTC_INTR_MASTER_I2C_NACK     |
 445:.\Generated_Source\PSoC4/RTC_I2C_MASTER.c ****                                                   RTC_INTR_MASTER_I2C_ARB_LOST |
 446:.\Generated_Source\PSoC4/RTC_I2C_MASTER.c ****                                                   RTC_INTR_MASTER_I2C_BUS_ERROR))
 447:.\Generated_Source\PSoC4/RTC_I2C_MASTER.c ****         {
 448:.\Generated_Source\PSoC4/RTC_I2C_MASTER.c ****             /* Wait until address will be transfered */
 449:.\Generated_Source\PSoC4/RTC_I2C_MASTER.c ****         }
 450:.\Generated_Source\PSoC4/RTC_I2C_MASTER.c **** 
 451:.\Generated_Source\PSoC4/RTC_I2C_MASTER.c ****         /* Check results of address phase: look into RTC_I2CMasterSendStart for description */
 452:.\Generated_Source\PSoC4/RTC_I2C_MASTER.c ****         if(RTC_CHECK_INTR_MASTER(RTC_INTR_MASTER_I2C_ACK))
 453:.\Generated_Source\PSoC4/RTC_I2C_MASTER.c ****         {
 454:.\Generated_Source\PSoC4/RTC_I2C_MASTER.c ****             errStatus = RTC_I2C_MSTR_NO_ERROR;
 455:.\Generated_Source\PSoC4/RTC_I2C_MASTER.c ****         }
 456:.\Generated_Source\PSoC4/RTC_I2C_MASTER.c ****         else if(RTC_CHECK_INTR_MASTER(RTC_INTR_MASTER_I2C_NACK))
 457:.\Generated_Source\PSoC4/RTC_I2C_MASTER.c ****         {
 458:.\Generated_Source\PSoC4/RTC_I2C_MASTER.c ****              errStatus = RTC_I2C_MSTR_ERR_LB_NAK;
 459:.\Generated_Source\PSoC4/RTC_I2C_MASTER.c ****         }
 460:.\Generated_Source\PSoC4/RTC_I2C_MASTER.c ****         else if(RTC_CHECK_INTR_MASTER(RTC_INTR_MASTER_I2C_ARB_LOST))
 461:.\Generated_Source\PSoC4/RTC_I2C_MASTER.c ****         {
 462:.\Generated_Source\PSoC4/RTC_I2C_MASTER.c ****             RTC_state = RTC_I2C_FSM_IDLE;
 463:.\Generated_Source\PSoC4/RTC_I2C_MASTER.c ****                          errStatus = RTC_I2C_MSTR_ERR_ARB_LOST;
 464:.\Generated_Source\PSoC4/RTC_I2C_MASTER.c ****                   enableInterrupts = RTC_I2C_RESET_ERROR;
 465:.\Generated_Source\PSoC4/RTC_I2C_MASTER.c ****         }
 466:.\Generated_Source\PSoC4/RTC_I2C_MASTER.c ****         else /* RTC_INTR_MASTER_I2C_BUS_ERROR set is else condition */
 467:.\Generated_Source\PSoC4/RTC_I2C_MASTER.c ****         {
 468:.\Generated_Source\PSoC4/RTC_I2C_MASTER.c ****             RTC_state = RTC_I2C_FSM_IDLE;
 469:.\Generated_Source\PSoC4/RTC_I2C_MASTER.c ****                          errStatus = RTC_I2C_MSTR_ERR_BUS_ERR;
 470:.\Generated_Source\PSoC4/RTC_I2C_MASTER.c ****                   enableInterrupts = RTC_I2C_RESET_ERROR;
 471:.\Generated_Source\PSoC4/RTC_I2C_MASTER.c ****         }
 472:.\Generated_Source\PSoC4/RTC_I2C_MASTER.c **** 
 473:.\Generated_Source\PSoC4/RTC_I2C_MASTER.c ****         RTC_ClearMasterInterruptSource(RTC_INTR_MASTER_I2C_ACK      |
 474:.\Generated_Source\PSoC4/RTC_I2C_MASTER.c ****                                                     RTC_INTR_MASTER_I2C_NACK     |
 475:.\Generated_Source\PSoC4/RTC_I2C_MASTER.c ****                                                     RTC_INTR_MASTER_I2C_ARB_LOST |
 476:.\Generated_Source\PSoC4/RTC_I2C_MASTER.c ****                                                     RTC_INTR_MASTER_I2C_BUS_ERROR);
ARM GAS  C:\Users\Computer\AppData\Local\Temp\cc3MlAIb.s 			page 14


 477:.\Generated_Source\PSoC4/RTC_I2C_MASTER.c **** 
 478:.\Generated_Source\PSoC4/RTC_I2C_MASTER.c ****         /* Reset block in case of: LOST_ARB or BUS_ERR */
 479:.\Generated_Source\PSoC4/RTC_I2C_MASTER.c ****         if(0u != enableInterrupts)
 480:.\Generated_Source\PSoC4/RTC_I2C_MASTER.c ****         {
 481:.\Generated_Source\PSoC4/RTC_I2C_MASTER.c ****             enableInterrupts = CyEnterCriticalSection();
 482:.\Generated_Source\PSoC4/RTC_I2C_MASTER.c ****             RTC_SCB_SW_RESET;
 483:.\Generated_Source\PSoC4/RTC_I2C_MASTER.c ****             CyExitCriticalSection(enableInterrupts);
 484:.\Generated_Source\PSoC4/RTC_I2C_MASTER.c ****         }
 485:.\Generated_Source\PSoC4/RTC_I2C_MASTER.c ****     }
 486:.\Generated_Source\PSoC4/RTC_I2C_MASTER.c **** 
 487:.\Generated_Source\PSoC4/RTC_I2C_MASTER.c ****     return(errStatus);
 488:.\Generated_Source\PSoC4/RTC_I2C_MASTER.c **** }
 489:.\Generated_Source\PSoC4/RTC_I2C_MASTER.c **** 
 490:.\Generated_Source\PSoC4/RTC_I2C_MASTER.c **** 
 491:.\Generated_Source\PSoC4/RTC_I2C_MASTER.c **** /*******************************************************************************
 492:.\Generated_Source\PSoC4/RTC_I2C_MASTER.c **** * Function Name: RTC_I2CMasterSendStop
 493:.\Generated_Source\PSoC4/RTC_I2C_MASTER.c **** ********************************************************************************
 494:.\Generated_Source\PSoC4/RTC_I2C_MASTER.c **** *
 495:.\Generated_Source\PSoC4/RTC_I2C_MASTER.c **** * Summary:
 496:.\Generated_Source\PSoC4/RTC_I2C_MASTER.c **** *  Generates I2C Stop condition on bus. Function do nothing if Start or Restart
 497:.\Generated_Source\PSoC4/RTC_I2C_MASTER.c **** *  condition was failed before call this function.
 498:.\Generated_Source\PSoC4/RTC_I2C_MASTER.c **** *
 499:.\Generated_Source\PSoC4/RTC_I2C_MASTER.c **** * Parameters:
 500:.\Generated_Source\PSoC4/RTC_I2C_MASTER.c **** *  None
 501:.\Generated_Source\PSoC4/RTC_I2C_MASTER.c **** *
 502:.\Generated_Source\PSoC4/RTC_I2C_MASTER.c **** * Return:
 503:.\Generated_Source\PSoC4/RTC_I2C_MASTER.c **** *  Status error - zero means no errors.
 504:.\Generated_Source\PSoC4/RTC_I2C_MASTER.c **** *
 505:.\Generated_Source\PSoC4/RTC_I2C_MASTER.c **** * Side Effects:
 506:.\Generated_Source\PSoC4/RTC_I2C_MASTER.c **** *  The Stop generation is required to complete transaction.
 507:.\Generated_Source\PSoC4/RTC_I2C_MASTER.c **** *  This function does not wait while Stop condition will be generated.
 508:.\Generated_Source\PSoC4/RTC_I2C_MASTER.c **** *
 509:.\Generated_Source\PSoC4/RTC_I2C_MASTER.c **** * Global variables:
 510:.\Generated_Source\PSoC4/RTC_I2C_MASTER.c **** *  RTC_state - used to store current state of software FSM.
 511:.\Generated_Source\PSoC4/RTC_I2C_MASTER.c **** *
 512:.\Generated_Source\PSoC4/RTC_I2C_MASTER.c **** *******************************************************************************/
 513:.\Generated_Source\PSoC4/RTC_I2C_MASTER.c **** uint32 RTC_I2CMasterSendStop(void)
 514:.\Generated_Source\PSoC4/RTC_I2C_MASTER.c **** {
 225              		.loc 1 514 0
 226              		.cfi_startproc
 227              	.LVL22:
 228 0000 38B5     		push	{r3, r4, r5, lr}
 229              	.LCFI2:
 230              		.cfi_def_cfa_offset 16
 231              		.cfi_offset 3, -16
 232              		.cfi_offset 4, -12
 233              		.cfi_offset 5, -8
 234              		.cfi_offset 14, -4
 515:.\Generated_Source\PSoC4/RTC_I2C_MASTER.c ****     uint32 errStatus;
 516:.\Generated_Source\PSoC4/RTC_I2C_MASTER.c ****     uint8  enableInterrupts;
 517:.\Generated_Source\PSoC4/RTC_I2C_MASTER.c **** 
 518:.\Generated_Source\PSoC4/RTC_I2C_MASTER.c ****     errStatus        = RTC_I2C_MSTR_NOT_READY;
 519:.\Generated_Source\PSoC4/RTC_I2C_MASTER.c ****     enableInterrupts = 0u;
 520:.\Generated_Source\PSoC4/RTC_I2C_MASTER.c **** 
 521:.\Generated_Source\PSoC4/RTC_I2C_MASTER.c ****     /* Check FSM state before generate Stop condition */
 522:.\Generated_Source\PSoC4/RTC_I2C_MASTER.c ****     if(RTC_CHECK_I2C_MASTER_ACTIVE)
 235              		.loc 1 522 0
ARM GAS  C:\Users\Computer\AppData\Local\Temp\cc3MlAIb.s 			page 15


 236 0002 1C4D     		ldr	r5, .L41
 237 0004 2023     		mov	r3, #32
 238 0006 2A78     		ldrb	r2, [r5]
 518:.\Generated_Source\PSoC4/RTC_I2C_MASTER.c ****     errStatus        = RTC_I2C_MSTR_NOT_READY;
 239              		.loc 1 518 0
 240 0008 0424     		mov	r4, #4
 241              		.loc 1 522 0
 242 000a 1342     		tst	r3, r2
 243 000c 01D1     		bne	.L39
 244              	.LVL23:
 245              	.L34:
 523:.\Generated_Source\PSoC4/RTC_I2C_MASTER.c ****     {
 524:.\Generated_Source\PSoC4/RTC_I2C_MASTER.c ****         /*
 525:.\Generated_Source\PSoC4/RTC_I2C_MASTER.c ****         * Write direction: generates Stop
 526:.\Generated_Source\PSoC4/RTC_I2C_MASTER.c ****         * Read  direction: generates NACK and Stop
 527:.\Generated_Source\PSoC4/RTC_I2C_MASTER.c ****         */
 528:.\Generated_Source\PSoC4/RTC_I2C_MASTER.c ****         RTC_I2C_MASTER_GENERATE_STOP;
 529:.\Generated_Source\PSoC4/RTC_I2C_MASTER.c **** 
 530:.\Generated_Source\PSoC4/RTC_I2C_MASTER.c ****         while(!RTC_CHECK_INTR_MASTER(RTC_INTR_MASTER_I2C_STOP     |
 531:.\Generated_Source\PSoC4/RTC_I2C_MASTER.c ****                                                   RTC_INTR_MASTER_I2C_ARB_LOST |
 532:.\Generated_Source\PSoC4/RTC_I2C_MASTER.c ****                                                   RTC_INTR_MASTER_I2C_BUS_ERROR))
 533:.\Generated_Source\PSoC4/RTC_I2C_MASTER.c ****         {
 534:.\Generated_Source\PSoC4/RTC_I2C_MASTER.c ****             /* Wait until Stop will be generated */
 535:.\Generated_Source\PSoC4/RTC_I2C_MASTER.c ****         }
 536:.\Generated_Source\PSoC4/RTC_I2C_MASTER.c **** 
 537:.\Generated_Source\PSoC4/RTC_I2C_MASTER.c ****         /*
 538:.\Generated_Source\PSoC4/RTC_I2C_MASTER.c ****         * Check what was actually generated.
 539:.\Generated_Source\PSoC4/RTC_I2C_MASTER.c ****         *  LOST_ARB - NACK generation: the other master can drive ACK.
 540:.\Generated_Source\PSoC4/RTC_I2C_MASTER.c ****         *           - Misplaced Start while NACK generation.
 541:.\Generated_Source\PSoC4/RTC_I2C_MASTER.c ****         *           - Undefiend lost arbitration conditions.
 542:.\Generated_Source\PSoC4/RTC_I2C_MASTER.c ****         *  BUS_ERR  - added just in case undefined lost arbitration.
 543:.\Generated_Source\PSoC4/RTC_I2C_MASTER.c ****         *  Reset SCB on either LOST_ARB or BUS_ERR as both could be caused by
 544:.\Generated_Source\PSoC4/RTC_I2C_MASTER.c ****         *  misplaced Start event to reset bus busy.
 545:.\Generated_Source\PSoC4/RTC_I2C_MASTER.c ****         */
 546:.\Generated_Source\PSoC4/RTC_I2C_MASTER.c ****         if(RTC_CHECK_INTR_MASTER(RTC_INTR_MASTER_I2C_STOP))
 547:.\Generated_Source\PSoC4/RTC_I2C_MASTER.c ****         {
 548:.\Generated_Source\PSoC4/RTC_I2C_MASTER.c ****             errStatus = RTC_I2C_MSTR_NO_ERROR;
 549:.\Generated_Source\PSoC4/RTC_I2C_MASTER.c ****         }
 550:.\Generated_Source\PSoC4/RTC_I2C_MASTER.c ****         else if(RTC_CHECK_INTR_MASTER(RTC_INTR_MASTER_I2C_ARB_LOST))
 551:.\Generated_Source\PSoC4/RTC_I2C_MASTER.c ****         {
 552:.\Generated_Source\PSoC4/RTC_I2C_MASTER.c ****                          errStatus = RTC_I2C_MSTR_ERR_ARB_LOST;
 553:.\Generated_Source\PSoC4/RTC_I2C_MASTER.c ****                   enableInterrupts = RTC_I2C_RESET_ERROR;
 554:.\Generated_Source\PSoC4/RTC_I2C_MASTER.c ****         }
 555:.\Generated_Source\PSoC4/RTC_I2C_MASTER.c ****         else /* RTC_INTR_MASTER_I2C_BUS_ERROR set is else condition */
 556:.\Generated_Source\PSoC4/RTC_I2C_MASTER.c ****         {
 557:.\Generated_Source\PSoC4/RTC_I2C_MASTER.c ****                          errStatus = RTC_I2C_MSTR_ERR_BUS_ERR;
 558:.\Generated_Source\PSoC4/RTC_I2C_MASTER.c ****                   enableInterrupts = RTC_I2C_RESET_ERROR;
 559:.\Generated_Source\PSoC4/RTC_I2C_MASTER.c ****         }
 560:.\Generated_Source\PSoC4/RTC_I2C_MASTER.c **** 
 561:.\Generated_Source\PSoC4/RTC_I2C_MASTER.c ****         RTC_ClearMasterInterruptSource(RTC_INTR_MASTER_I2C_STOP     |
 562:.\Generated_Source\PSoC4/RTC_I2C_MASTER.c ****                                                     RTC_INTR_MASTER_I2C_ARB_LOST |
 563:.\Generated_Source\PSoC4/RTC_I2C_MASTER.c ****                                                     RTC_INTR_MASTER_I2C_BUS_ERROR);
 564:.\Generated_Source\PSoC4/RTC_I2C_MASTER.c **** 
 565:.\Generated_Source\PSoC4/RTC_I2C_MASTER.c ****         /* Reset block in case of: LOST_ARB or BUS_ERR */
 566:.\Generated_Source\PSoC4/RTC_I2C_MASTER.c ****         if(0u != enableInterrupts)
 567:.\Generated_Source\PSoC4/RTC_I2C_MASTER.c ****         {
 568:.\Generated_Source\PSoC4/RTC_I2C_MASTER.c ****             enableInterrupts = CyEnterCriticalSection();
ARM GAS  C:\Users\Computer\AppData\Local\Temp\cc3MlAIb.s 			page 16


 569:.\Generated_Source\PSoC4/RTC_I2C_MASTER.c ****             RTC_SCB_SW_RESET;
 570:.\Generated_Source\PSoC4/RTC_I2C_MASTER.c ****             CyExitCriticalSection(enableInterrupts);
 571:.\Generated_Source\PSoC4/RTC_I2C_MASTER.c ****         }
 572:.\Generated_Source\PSoC4/RTC_I2C_MASTER.c **** 
 573:.\Generated_Source\PSoC4/RTC_I2C_MASTER.c ****         RTC_state = RTC_I2C_FSM_IDLE;
 574:.\Generated_Source\PSoC4/RTC_I2C_MASTER.c ****     }
 575:.\Generated_Source\PSoC4/RTC_I2C_MASTER.c **** 
 576:.\Generated_Source\PSoC4/RTC_I2C_MASTER.c ****     return(errStatus);
 577:.\Generated_Source\PSoC4/RTC_I2C_MASTER.c **** }
 246              		.loc 1 577 0
 247 000e 201C     		mov	r0, r4
 248              		@ sp needed for prologue
 249 0010 38BD     		pop	{r3, r4, r5, pc}
 250              	.LVL24:
 251              	.L39:
 528:.\Generated_Source\PSoC4/RTC_I2C_MASTER.c ****         RTC_I2C_MASTER_GENERATE_STOP;
 252              		.loc 1 528 0
 253 0012 1948     		ldr	r0, .L41+4
 254 0014 1024     		mov	r4, #16
 255 0016 0168     		ldr	r1, [r0]
 256 0018 0B42     		tst	r3, r1
 257 001a 28D1     		bne	.L40
 258              	.L24:
 528:.\Generated_Source\PSoC4/RTC_I2C_MASTER.c ****         RTC_I2C_MASTER_GENERATE_STOP;
 259              		.loc 1 528 0 is_stmt 0 discriminator 3
 260 001c 174A     		ldr	r2, .L41+8
 530:.\Generated_Source\PSoC4/RTC_I2C_MASTER.c ****         while(!RTC_CHECK_INTR_MASTER(RTC_INTR_MASTER_I2C_STOP     |
 261              		.loc 1 530 0 is_stmt 1 discriminator 3
 262 001e 1848     		ldr	r0, .L41+12
 263 0020 1849     		ldr	r1, .L41+16
 528:.\Generated_Source\PSoC4/RTC_I2C_MASTER.c ****         RTC_I2C_MASTER_GENERATE_STOP;
 264              		.loc 1 528 0 discriminator 3
 265 0022 1460     		str	r4, [r2]
 266              	.L25:
 530:.\Generated_Source\PSoC4/RTC_I2C_MASTER.c ****         while(!RTC_CHECK_INTR_MASTER(RTC_INTR_MASTER_I2C_STOP     |
 267              		.loc 1 530 0 discriminator 1
 268 0024 0368     		ldr	r3, [r0]
 269 0026 164C     		ldr	r4, .L41+12
 270 0028 0B42     		tst	r3, r1
 271 002a FBD0     		beq	.L25
 546:.\Generated_Source\PSoC4/RTC_I2C_MASTER.c ****         if(RTC_CHECK_INTR_MASTER(RTC_INTR_MASTER_I2C_STOP))
 272              		.loc 1 546 0
 273 002c 2268     		ldr	r2, [r4]
 274 002e D106     		lsl	r1, r2, #27
 275 0030 19D4     		bmi	.L26
 550:.\Generated_Source\PSoC4/RTC_I2C_MASTER.c ****         else if(RTC_CHECK_INTR_MASTER(RTC_INTR_MASTER_I2C_ARB_LOST))
 276              		.loc 1 550 0
 277 0032 2068     		ldr	r0, [r4]
 552:.\Generated_Source\PSoC4/RTC_I2C_MASTER.c ****                          errStatus = RTC_I2C_MSTR_ERR_ARB_LOST;
 278              		.loc 1 552 0
 279 0034 0124     		mov	r4, #1
 550:.\Generated_Source\PSoC4/RTC_I2C_MASTER.c ****         else if(RTC_CHECK_INTR_MASTER(RTC_INTR_MASTER_I2C_ARB_LOST))
 280              		.loc 1 550 0
 281 0036 C207     		lsl	r2, r0, #31
 282 0038 01D4     		bmi	.L28
 557:.\Generated_Source\PSoC4/RTC_I2C_MASTER.c ****                          errStatus = RTC_I2C_MSTR_ERR_BUS_ERR;
 283              		.loc 1 557 0
ARM GAS  C:\Users\Computer\AppData\Local\Temp\cc3MlAIb.s 			page 17


 284 003a 8021     		mov	r1, #128
 285 003c 4C00     		lsl	r4, r1, #1
 286              	.L28:
 287              	.LVL25:
 561:.\Generated_Source\PSoC4/RTC_I2C_MASTER.c ****         RTC_ClearMasterInterruptSource(RTC_INTR_MASTER_I2C_STOP     |
 288              		.loc 1 561 0
 289 003e 114A     		ldr	r2, .L41+16
 290 0040 0F4B     		ldr	r3, .L41+12
 291 0042 1A60     		str	r2, [r3]
 568:.\Generated_Source\PSoC4/RTC_I2C_MASTER.c ****             enableInterrupts = CyEnterCriticalSection();
 292              		.loc 1 568 0
 293 0044 FFF7FEFF 		bl	CyEnterCriticalSection
 294              	.LVL26:
 569:.\Generated_Source\PSoC4/RTC_I2C_MASTER.c ****             RTC_SCB_SW_RESET;
 295              		.loc 1 569 0
 296 0048 0F4B     		ldr	r3, .L41+20
 297 004a 1968     		ldr	r1, [r3]
 298 004c 4A00     		lsl	r2, r1, #1
 299 004e 5108     		lsr	r1, r2, #1
 300 0050 1960     		str	r1, [r3]
 301 0052 1968     		ldr	r1, [r3]
 302 0054 8022     		mov	r2, #128
 303 0056 1206     		lsl	r2, r2, #24
 304 0058 0A43     		orr	r2, r1
 305 005a 1A60     		str	r2, [r3]
 570:.\Generated_Source\PSoC4/RTC_I2C_MASTER.c ****             CyExitCriticalSection(enableInterrupts);
 306              		.loc 1 570 0
 307 005c FFF7FEFF 		bl	CyExitCriticalSection
 308              	.LVL27:
 309              	.L29:
 573:.\Generated_Source\PSoC4/RTC_I2C_MASTER.c ****         RTC_state = RTC_I2C_FSM_IDLE;
 310              		.loc 1 573 0
 311 0060 1023     		mov	r3, #16
 312 0062 2B70     		strb	r3, [r5]
 313 0064 D3E7     		b	.L34
 314              	.LVL28:
 315              	.L26:
 561:.\Generated_Source\PSoC4/RTC_I2C_MASTER.c ****         RTC_ClearMasterInterruptSource(RTC_INTR_MASTER_I2C_STOP     |
 316              		.loc 1 561 0
 317 0066 0748     		ldr	r0, .L41+16
 318 0068 2060     		str	r0, [r4]
 548:.\Generated_Source\PSoC4/RTC_I2C_MASTER.c ****             errStatus = RTC_I2C_MSTR_NO_ERROR;
 319              		.loc 1 548 0
 320 006a 0024     		mov	r4, #0
 321 006c F8E7     		b	.L29
 322              	.LVL29:
 323              	.L40:
 528:.\Generated_Source\PSoC4/RTC_I2C_MASTER.c ****         RTC_I2C_MASTER_GENERATE_STOP;
 324              		.loc 1 528 0
 325 006e 1824     		mov	r4, #24
 326 0070 D4E7     		b	.L24
 327              	.L42:
 328 0072 C046     		.align	2
 329              	.L41:
 330 0074 00000000 		.word	RTC_state
 331 0078 64000640 		.word	1074135140
 332 007c 68000640 		.word	1074135144
ARM GAS  C:\Users\Computer\AppData\Local\Temp\cc3MlAIb.s 			page 18


 333 0080 000F0640 		.word	1074138880
 334 0084 11010000 		.word	273
 335 0088 00000640 		.word	1074135040
 336              		.cfi_endproc
 337              	.LFE4:
 338              		.size	RTC_I2CMasterSendStop, .-RTC_I2CMasterSendStop
 339              		.section	.text.RTC_I2CMasterWriteByte,"ax",%progbits
 340              		.align	2
 341              		.global	RTC_I2CMasterWriteByte
 342              		.code	16
 343              		.thumb_func
 344              		.type	RTC_I2CMasterWriteByte, %function
 345              	RTC_I2CMasterWriteByte:
 346              	.LFB5:
 578:.\Generated_Source\PSoC4/RTC_I2C_MASTER.c **** 
 579:.\Generated_Source\PSoC4/RTC_I2C_MASTER.c **** 
 580:.\Generated_Source\PSoC4/RTC_I2C_MASTER.c **** /*******************************************************************************
 581:.\Generated_Source\PSoC4/RTC_I2C_MASTER.c **** * Function Name: RTC_I2CMasterWriteByte
 582:.\Generated_Source\PSoC4/RTC_I2C_MASTER.c **** ********************************************************************************
 583:.\Generated_Source\PSoC4/RTC_I2C_MASTER.c **** *
 584:.\Generated_Source\PSoC4/RTC_I2C_MASTER.c **** * Summary:
 585:.\Generated_Source\PSoC4/RTC_I2C_MASTER.c **** *  Sends one byte to a slave. A valid Start or ReStart condition must be
 586:.\Generated_Source\PSoC4/RTC_I2C_MASTER.c **** *  generated before this call this function. Function do nothing if Start or
 587:.\Generated_Source\PSoC4/RTC_I2C_MASTER.c **** *  Restart condition was failed before call this function.
 588:.\Generated_Source\PSoC4/RTC_I2C_MASTER.c **** *
 589:.\Generated_Source\PSoC4/RTC_I2C_MASTER.c **** * Parameters:
 590:.\Generated_Source\PSoC4/RTC_I2C_MASTER.c **** *  data:  The data byte to send to the slave.
 591:.\Generated_Source\PSoC4/RTC_I2C_MASTER.c **** *
 592:.\Generated_Source\PSoC4/RTC_I2C_MASTER.c **** * Return:
 593:.\Generated_Source\PSoC4/RTC_I2C_MASTER.c **** *  Status error - zero means no errors.
 594:.\Generated_Source\PSoC4/RTC_I2C_MASTER.c **** *
 595:.\Generated_Source\PSoC4/RTC_I2C_MASTER.c **** * Side Effects:
 596:.\Generated_Source\PSoC4/RTC_I2C_MASTER.c **** *  This function is entered without a 'byte complete' bit set in the I2C_CSR
 597:.\Generated_Source\PSoC4/RTC_I2C_MASTER.c **** *  register. It does not exit until it will be set.
 598:.\Generated_Source\PSoC4/RTC_I2C_MASTER.c **** *
 599:.\Generated_Source\PSoC4/RTC_I2C_MASTER.c **** * Global variables:
 600:.\Generated_Source\PSoC4/RTC_I2C_MASTER.c **** *  RTC_state - used to store current state of software FSM.
 601:.\Generated_Source\PSoC4/RTC_I2C_MASTER.c **** *
 602:.\Generated_Source\PSoC4/RTC_I2C_MASTER.c **** *******************************************************************************/
 603:.\Generated_Source\PSoC4/RTC_I2C_MASTER.c **** uint32 RTC_I2CMasterWriteByte(uint32 theByte)
 604:.\Generated_Source\PSoC4/RTC_I2C_MASTER.c **** {
 347              		.loc 1 604 0
 348              		.cfi_startproc
 349              	.LVL30:
 350 0000 38B5     		push	{r3, r4, r5, lr}
 351              	.LCFI3:
 352              		.cfi_def_cfa_offset 16
 353              		.cfi_offset 3, -16
 354              		.cfi_offset 4, -12
 355              		.cfi_offset 5, -8
 356              		.cfi_offset 14, -4
 605:.\Generated_Source\PSoC4/RTC_I2C_MASTER.c ****     uint32 errStatus;
 606:.\Generated_Source\PSoC4/RTC_I2C_MASTER.c ****     uint8  enableInterrupts;
 607:.\Generated_Source\PSoC4/RTC_I2C_MASTER.c **** 
 608:.\Generated_Source\PSoC4/RTC_I2C_MASTER.c ****     errStatus        = RTC_I2C_MSTR_NOT_READY;
 609:.\Generated_Source\PSoC4/RTC_I2C_MASTER.c ****     enableInterrupts = 0u;
 610:.\Generated_Source\PSoC4/RTC_I2C_MASTER.c **** 
ARM GAS  C:\Users\Computer\AppData\Local\Temp\cc3MlAIb.s 			page 19


 611:.\Generated_Source\PSoC4/RTC_I2C_MASTER.c ****     /* Check FSM state before write byte */
 612:.\Generated_Source\PSoC4/RTC_I2C_MASTER.c ****     if(RTC_CHECK_I2C_MASTER_ACTIVE)
 357              		.loc 1 612 0
 358 0002 1E4D     		ldr	r5, .L61
 608:.\Generated_Source\PSoC4/RTC_I2C_MASTER.c ****     errStatus        = RTC_I2C_MSTR_NOT_READY;
 359              		.loc 1 608 0
 360 0004 0424     		mov	r4, #4
 361              		.loc 1 612 0
 362 0006 2B78     		ldrb	r3, [r5]
 363 0008 9906     		lsl	r1, r3, #26
 364 000a 01D4     		bmi	.L58
 365              	.LVL31:
 366              	.L54:
 613:.\Generated_Source\PSoC4/RTC_I2C_MASTER.c ****     {
 614:.\Generated_Source\PSoC4/RTC_I2C_MASTER.c ****         RTC_TX_FIFO_WR_REG = theByte;
 615:.\Generated_Source\PSoC4/RTC_I2C_MASTER.c **** 
 616:.\Generated_Source\PSoC4/RTC_I2C_MASTER.c ****         while(!RTC_CHECK_INTR_MASTER(RTC_INTR_MASTER_I2C_ACK      |
 617:.\Generated_Source\PSoC4/RTC_I2C_MASTER.c ****                                                   RTC_INTR_MASTER_I2C_NACK     |
 618:.\Generated_Source\PSoC4/RTC_I2C_MASTER.c ****                                                   RTC_INTR_MASTER_I2C_ARB_LOST |
 619:.\Generated_Source\PSoC4/RTC_I2C_MASTER.c ****                                                   RTC_INTR_MASTER_I2C_BUS_ERROR))
 620:.\Generated_Source\PSoC4/RTC_I2C_MASTER.c ****         {
 621:.\Generated_Source\PSoC4/RTC_I2C_MASTER.c ****             /* Wait until byte will be transfered */
 622:.\Generated_Source\PSoC4/RTC_I2C_MASTER.c ****         }
 623:.\Generated_Source\PSoC4/RTC_I2C_MASTER.c **** 
 624:.\Generated_Source\PSoC4/RTC_I2C_MASTER.c ****         /*
 625:.\Generated_Source\PSoC4/RTC_I2C_MASTER.c ****         * Check results after byte was sent.
 626:.\Generated_Source\PSoC4/RTC_I2C_MASTER.c ****         *  LOST_ARB - SDA line is not match to what master drives:
 627:.\Generated_Source\PSoC4/RTC_I2C_MASTER.c ****         *  lost arbitration or misplaced Start. Place: 8-bits of data.
 628:.\Generated_Source\PSoC4/RTC_I2C_MASTER.c ****         *  The misplaced Start is possible when SCB drives SDA 1 and it changes to 0, when SCL is 1
 629:.\Generated_Source\PSoC4/RTC_I2C_MASTER.c ****         *  BUS_ERR - misplaced Start or Stop when Slave drives. Place: ACK/NACK bit.
 630:.\Generated_Source\PSoC4/RTC_I2C_MASTER.c ****         *  The misplaced Start or Stop causes the bus idle status to get stuck to busy.
 631:.\Generated_Source\PSoC4/RTC_I2C_MASTER.c ****         *  The misplaced Start is possible when SCB drives SCL 1 and it changes
 632:.\Generated_Source\PSoC4/RTC_I2C_MASTER.c ****         *  from 1 to 0 (Start) or 0 to 1 (Stop).
 633:.\Generated_Source\PSoC4/RTC_I2C_MASTER.c ****         *  Reset SCB on either LOST_ARB or BUS_ERR as both could be caused by
 634:.\Generated_Source\PSoC4/RTC_I2C_MASTER.c ****         *  misplaced Start event to reset bus busy.
 635:.\Generated_Source\PSoC4/RTC_I2C_MASTER.c ****         */
 636:.\Generated_Source\PSoC4/RTC_I2C_MASTER.c ****         if(RTC_CHECK_INTR_MASTER(RTC_INTR_MASTER_I2C_ACK))
 637:.\Generated_Source\PSoC4/RTC_I2C_MASTER.c ****         {
 638:.\Generated_Source\PSoC4/RTC_I2C_MASTER.c ****             RTC_state = RTC_I2C_FSM_MSTR_HALT;
 639:.\Generated_Source\PSoC4/RTC_I2C_MASTER.c ****                          errStatus = RTC_I2C_MSTR_NO_ERROR;
 640:.\Generated_Source\PSoC4/RTC_I2C_MASTER.c ****         }
 641:.\Generated_Source\PSoC4/RTC_I2C_MASTER.c ****         else if(RTC_CHECK_INTR_MASTER(RTC_INTR_MASTER_I2C_NACK))
 642:.\Generated_Source\PSoC4/RTC_I2C_MASTER.c ****         {
 643:.\Generated_Source\PSoC4/RTC_I2C_MASTER.c ****             RTC_state = RTC_I2C_FSM_MSTR_HALT;
 644:.\Generated_Source\PSoC4/RTC_I2C_MASTER.c ****                          errStatus = RTC_I2C_MSTR_ERR_LB_NAK;
 645:.\Generated_Source\PSoC4/RTC_I2C_MASTER.c ****         }
 646:.\Generated_Source\PSoC4/RTC_I2C_MASTER.c ****         else if(RTC_CHECK_INTR_MASTER(RTC_INTR_MASTER_I2C_ARB_LOST))
 647:.\Generated_Source\PSoC4/RTC_I2C_MASTER.c ****         {
 648:.\Generated_Source\PSoC4/RTC_I2C_MASTER.c ****             RTC_state = RTC_I2C_FSM_IDLE;
 649:.\Generated_Source\PSoC4/RTC_I2C_MASTER.c ****                          errStatus = RTC_I2C_MSTR_ERR_ARB_LOST;
 650:.\Generated_Source\PSoC4/RTC_I2C_MASTER.c ****                   enableInterrupts = RTC_I2C_RESET_ERROR;
 651:.\Generated_Source\PSoC4/RTC_I2C_MASTER.c ****         }
 652:.\Generated_Source\PSoC4/RTC_I2C_MASTER.c ****         else /* RTC_INTR_MASTER_I2C_BUS_ERROR set is else condition */
 653:.\Generated_Source\PSoC4/RTC_I2C_MASTER.c ****         {
 654:.\Generated_Source\PSoC4/RTC_I2C_MASTER.c ****             RTC_state = RTC_I2C_FSM_IDLE;
 655:.\Generated_Source\PSoC4/RTC_I2C_MASTER.c ****                          errStatus = RTC_I2C_MSTR_ERR_BUS_ERR;
 656:.\Generated_Source\PSoC4/RTC_I2C_MASTER.c ****                   enableInterrupts = RTC_I2C_RESET_ERROR;
ARM GAS  C:\Users\Computer\AppData\Local\Temp\cc3MlAIb.s 			page 20


 657:.\Generated_Source\PSoC4/RTC_I2C_MASTER.c ****         }
 658:.\Generated_Source\PSoC4/RTC_I2C_MASTER.c **** 
 659:.\Generated_Source\PSoC4/RTC_I2C_MASTER.c ****         RTC_ClearMasterInterruptSource(RTC_INTR_MASTER_I2C_ACK      |
 660:.\Generated_Source\PSoC4/RTC_I2C_MASTER.c ****                                                     RTC_INTR_MASTER_I2C_NACK     |
 661:.\Generated_Source\PSoC4/RTC_I2C_MASTER.c ****                                                     RTC_INTR_MASTER_I2C_ARB_LOST |
 662:.\Generated_Source\PSoC4/RTC_I2C_MASTER.c ****                                                     RTC_INTR_MASTER_I2C_BUS_ERROR);
 663:.\Generated_Source\PSoC4/RTC_I2C_MASTER.c **** 
 664:.\Generated_Source\PSoC4/RTC_I2C_MASTER.c ****         /* Reset block in case of: LOST_ARB or BUS_ERR */
 665:.\Generated_Source\PSoC4/RTC_I2C_MASTER.c ****         if(0u != enableInterrupts)
 666:.\Generated_Source\PSoC4/RTC_I2C_MASTER.c ****         {
 667:.\Generated_Source\PSoC4/RTC_I2C_MASTER.c ****             enableInterrupts = CyEnterCriticalSection();
 668:.\Generated_Source\PSoC4/RTC_I2C_MASTER.c ****             RTC_SCB_SW_RESET;
 669:.\Generated_Source\PSoC4/RTC_I2C_MASTER.c ****             CyExitCriticalSection(enableInterrupts);
 670:.\Generated_Source\PSoC4/RTC_I2C_MASTER.c ****         }
 671:.\Generated_Source\PSoC4/RTC_I2C_MASTER.c ****     }
 672:.\Generated_Source\PSoC4/RTC_I2C_MASTER.c **** 
 673:.\Generated_Source\PSoC4/RTC_I2C_MASTER.c ****     return(errStatus);
 674:.\Generated_Source\PSoC4/RTC_I2C_MASTER.c **** }
 367              		.loc 1 674 0
 368 000c 201C     		mov	r0, r4
 369              		@ sp needed for prologue
 370 000e 38BD     		pop	{r3, r4, r5, pc}
 371              	.LVL32:
 372              	.L58:
 614:.\Generated_Source\PSoC4/RTC_I2C_MASTER.c ****         RTC_TX_FIFO_WR_REG = theByte;
 373              		.loc 1 614 0
 374 0010 1B49     		ldr	r1, .L61+4
 616:.\Generated_Source\PSoC4/RTC_I2C_MASTER.c ****         while(!RTC_CHECK_INTR_MASTER(RTC_INTR_MASTER_I2C_ACK      |
 375              		.loc 1 616 0
 376 0012 1C4C     		ldr	r4, .L61+8
 614:.\Generated_Source\PSoC4/RTC_I2C_MASTER.c ****         RTC_TX_FIFO_WR_REG = theByte;
 377              		.loc 1 614 0
 378 0014 0860     		str	r0, [r1]
 616:.\Generated_Source\PSoC4/RTC_I2C_MASTER.c ****         while(!RTC_CHECK_INTR_MASTER(RTC_INTR_MASTER_I2C_ACK      |
 379              		.loc 1 616 0
 380 0016 1C48     		ldr	r0, .L61+12
 381              	.LVL33:
 382              	.L45:
 616:.\Generated_Source\PSoC4/RTC_I2C_MASTER.c ****         while(!RTC_CHECK_INTR_MASTER(RTC_INTR_MASTER_I2C_ACK      |
 383              		.loc 1 616 0 is_stmt 0 discriminator 1
 384 0018 0368     		ldr	r3, [r0]
 385 001a 1B4A     		ldr	r2, .L61+12
 386 001c 2342     		tst	r3, r4
 387 001e FBD0     		beq	.L45
 636:.\Generated_Source\PSoC4/RTC_I2C_MASTER.c ****         if(RTC_CHECK_INTR_MASTER(RTC_INTR_MASTER_I2C_ACK))
 388              		.loc 1 636 0 is_stmt 1
 389 0020 1168     		ldr	r1, [r2]
 390              	.LVL34:
 391 0022 4907     		lsl	r1, r1, #29
 392 0024 09D4     		bmi	.L59
 641:.\Generated_Source\PSoC4/RTC_I2C_MASTER.c ****         else if(RTC_CHECK_INTR_MASTER(RTC_INTR_MASTER_I2C_NACK))
 393              		.loc 1 641 0
 394 0026 1068     		ldr	r0, [r2]
 395 0028 8107     		lsl	r1, r0, #30
 396 002a 0AD5     		bpl	.L48
 643:.\Generated_Source\PSoC4/RTC_I2C_MASTER.c ****             RTC_state = RTC_I2C_FSM_MSTR_HALT;
 397              		.loc 1 643 0
ARM GAS  C:\Users\Computer\AppData\Local\Temp\cc3MlAIb.s 			page 21


 398 002c 6024     		mov	r4, #96
 399 002e 2C70     		strb	r4, [r5]
 400              	.LVL35:
 644:.\Generated_Source\PSoC4/RTC_I2C_MASTER.c ****                          errStatus = RTC_I2C_MSTR_ERR_LB_NAK;
 401              		.loc 1 644 0
 402 0030 0224     		mov	r4, #2
 403              	.LVL36:
 404              	.L47:
 659:.\Generated_Source\PSoC4/RTC_I2C_MASTER.c ****         RTC_ClearMasterInterruptSource(RTC_INTR_MASTER_I2C_ACK      |
 405              		.loc 1 659 0
 406 0032 144D     		ldr	r5, .L61+8
 407 0034 144B     		ldr	r3, .L61+12
 408 0036 1D60     		str	r5, [r3]
 409 0038 E8E7     		b	.L54
 410              	.LVL37:
 411              	.L59:
 638:.\Generated_Source\PSoC4/RTC_I2C_MASTER.c ****             RTC_state = RTC_I2C_FSM_MSTR_HALT;
 412              		.loc 1 638 0
 413 003a 6020     		mov	r0, #96
 414 003c 2870     		strb	r0, [r5]
 415              	.LVL38:
 639:.\Generated_Source\PSoC4/RTC_I2C_MASTER.c ****                          errStatus = RTC_I2C_MSTR_NO_ERROR;
 416              		.loc 1 639 0
 417 003e 0024     		mov	r4, #0
 418 0040 F7E7     		b	.L47
 419              	.LVL39:
 420              	.L48:
 646:.\Generated_Source\PSoC4/RTC_I2C_MASTER.c ****         else if(RTC_CHECK_INTR_MASTER(RTC_INTR_MASTER_I2C_ARB_LOST))
 421              		.loc 1 646 0
 422 0042 1468     		ldr	r4, [r2]
 423 0044 E207     		lsl	r2, r4, #31
 424 0046 15D4     		bmi	.L60
 654:.\Generated_Source\PSoC4/RTC_I2C_MASTER.c ****             RTC_state = RTC_I2C_FSM_IDLE;
 425              		.loc 1 654 0
 426 0048 1022     		mov	r2, #16
 427 004a 2A70     		strb	r2, [r5]
 428              	.LVL40:
 655:.\Generated_Source\PSoC4/RTC_I2C_MASTER.c ****                          errStatus = RTC_I2C_MSTR_ERR_BUS_ERR;
 429              		.loc 1 655 0
 430 004c 8025     		mov	r5, #128
 431 004e 6C00     		lsl	r4, r5, #1
 432              	.LVL41:
 433              	.L50:
 659:.\Generated_Source\PSoC4/RTC_I2C_MASTER.c ****         RTC_ClearMasterInterruptSource(RTC_INTR_MASTER_I2C_ACK      |
 434              		.loc 1 659 0
 435 0050 0C49     		ldr	r1, .L61+8
 436 0052 0D48     		ldr	r0, .L61+12
 668:.\Generated_Source\PSoC4/RTC_I2C_MASTER.c ****             RTC_SCB_SW_RESET;
 437              		.loc 1 668 0
 438 0054 0D4D     		ldr	r5, .L61+16
 659:.\Generated_Source\PSoC4/RTC_I2C_MASTER.c ****         RTC_ClearMasterInterruptSource(RTC_INTR_MASTER_I2C_ACK      |
 439              		.loc 1 659 0
 440 0056 0160     		str	r1, [r0]
 667:.\Generated_Source\PSoC4/RTC_I2C_MASTER.c ****             enableInterrupts = CyEnterCriticalSection();
 441              		.loc 1 667 0
 442 0058 FFF7FEFF 		bl	CyEnterCriticalSection
 443              	.LVL42:
ARM GAS  C:\Users\Computer\AppData\Local\Temp\cc3MlAIb.s 			page 22


 668:.\Generated_Source\PSoC4/RTC_I2C_MASTER.c ****             RTC_SCB_SW_RESET;
 444              		.loc 1 668 0
 445 005c 2A68     		ldr	r2, [r5]
 446 005e 5300     		lsl	r3, r2, #1
 447 0060 5908     		lsr	r1, r3, #1
 448 0062 2960     		str	r1, [r5]
 449 0064 2B68     		ldr	r3, [r5]
 450 0066 8022     		mov	r2, #128
 451 0068 1106     		lsl	r1, r2, #24
 452 006a 1943     		orr	r1, r3
 453 006c 2960     		str	r1, [r5]
 669:.\Generated_Source\PSoC4/RTC_I2C_MASTER.c ****             CyExitCriticalSection(enableInterrupts);
 454              		.loc 1 669 0
 455 006e FFF7FEFF 		bl	CyExitCriticalSection
 456              	.LVL43:
 457 0072 CBE7     		b	.L54
 458              	.LVL44:
 459              	.L60:
 648:.\Generated_Source\PSoC4/RTC_I2C_MASTER.c ****             RTC_state = RTC_I2C_FSM_IDLE;
 460              		.loc 1 648 0
 461 0074 1023     		mov	r3, #16
 462 0076 2B70     		strb	r3, [r5]
 463              	.LVL45:
 649:.\Generated_Source\PSoC4/RTC_I2C_MASTER.c ****                          errStatus = RTC_I2C_MSTR_ERR_ARB_LOST;
 464              		.loc 1 649 0
 465 0078 0124     		mov	r4, #1
 466 007a E9E7     		b	.L50
 467              	.L62:
 468              		.align	2
 469              	.L61:
 470 007c 00000000 		.word	RTC_state
 471 0080 40020640 		.word	1074135616
 472 0084 07010000 		.word	263
 473 0088 000F0640 		.word	1074138880
 474 008c 00000640 		.word	1074135040
 475              		.cfi_endproc
 476              	.LFE5:
 477              		.size	RTC_I2CMasterWriteByte, .-RTC_I2CMasterWriteByte
 478              		.section	.text.RTC_I2CMasterReadByte,"ax",%progbits
 479              		.align	2
 480              		.global	RTC_I2CMasterReadByte
 481              		.code	16
 482              		.thumb_func
 483              		.type	RTC_I2CMasterReadByte, %function
 484              	RTC_I2CMasterReadByte:
 485              	.LFB6:
 675:.\Generated_Source\PSoC4/RTC_I2C_MASTER.c **** 
 676:.\Generated_Source\PSoC4/RTC_I2C_MASTER.c **** 
 677:.\Generated_Source\PSoC4/RTC_I2C_MASTER.c **** /*******************************************************************************
 678:.\Generated_Source\PSoC4/RTC_I2C_MASTER.c **** * Function Name: RTC_I2CMasterReadByte
 679:.\Generated_Source\PSoC4/RTC_I2C_MASTER.c **** ********************************************************************************
 680:.\Generated_Source\PSoC4/RTC_I2C_MASTER.c **** *
 681:.\Generated_Source\PSoC4/RTC_I2C_MASTER.c **** * Summary:
 682:.\Generated_Source\PSoC4/RTC_I2C_MASTER.c **** *  Reads one byte from a slave and ACK or NACK the transfer. A valid Start or
 683:.\Generated_Source\PSoC4/RTC_I2C_MASTER.c **** *  ReStart condition must be generated before this call this function. Function
 684:.\Generated_Source\PSoC4/RTC_I2C_MASTER.c **** *  do nothing if Start or Restart condition was failed before call this
 685:.\Generated_Source\PSoC4/RTC_I2C_MASTER.c **** *  function.
ARM GAS  C:\Users\Computer\AppData\Local\Temp\cc3MlAIb.s 			page 23


 686:.\Generated_Source\PSoC4/RTC_I2C_MASTER.c **** *
 687:.\Generated_Source\PSoC4/RTC_I2C_MASTER.c **** * Parameters:
 688:.\Generated_Source\PSoC4/RTC_I2C_MASTER.c **** *  acknNack:  Zero, response with NACK, if non-zero response with ACK.
 689:.\Generated_Source\PSoC4/RTC_I2C_MASTER.c **** *
 690:.\Generated_Source\PSoC4/RTC_I2C_MASTER.c **** * Return:
 691:.\Generated_Source\PSoC4/RTC_I2C_MASTER.c **** *  Byte read from slave.
 692:.\Generated_Source\PSoC4/RTC_I2C_MASTER.c **** *
 693:.\Generated_Source\PSoC4/RTC_I2C_MASTER.c **** * Side Effects:
 694:.\Generated_Source\PSoC4/RTC_I2C_MASTER.c **** *  This function is entered without a 'byte complete' bit set in the I2C_CSR
 695:.\Generated_Source\PSoC4/RTC_I2C_MASTER.c **** *  register. It does not exit until it will be set.
 696:.\Generated_Source\PSoC4/RTC_I2C_MASTER.c **** *
 697:.\Generated_Source\PSoC4/RTC_I2C_MASTER.c **** * Global variables:
 698:.\Generated_Source\PSoC4/RTC_I2C_MASTER.c **** *  RTC_state - used to store current state of software FSM.
 699:.\Generated_Source\PSoC4/RTC_I2C_MASTER.c **** *
 700:.\Generated_Source\PSoC4/RTC_I2C_MASTER.c **** *******************************************************************************/
 701:.\Generated_Source\PSoC4/RTC_I2C_MASTER.c **** uint32 RTC_I2CMasterReadByte(uint32 ackNack)
 702:.\Generated_Source\PSoC4/RTC_I2C_MASTER.c **** {
 486              		.loc 1 702 0
 487              		.cfi_startproc
 488              	.LVL46:
 489 0000 F8B5     		push	{r3, r4, r5, r6, r7, lr}
 490              	.LCFI4:
 491              		.cfi_def_cfa_offset 24
 492              		.cfi_offset 3, -24
 493              		.cfi_offset 4, -20
 494              		.cfi_offset 5, -16
 495              		.cfi_offset 6, -12
 496              		.cfi_offset 7, -8
 497              		.cfi_offset 14, -4
 703:.\Generated_Source\PSoC4/RTC_I2C_MASTER.c ****     uint32 theByte;
 704:.\Generated_Source\PSoC4/RTC_I2C_MASTER.c ****     uint8 enableInterrupts;
 705:.\Generated_Source\PSoC4/RTC_I2C_MASTER.c **** 
 706:.\Generated_Source\PSoC4/RTC_I2C_MASTER.c ****     /* Return invelid byte in case BUS_ERR was happen while receiving */
 707:.\Generated_Source\PSoC4/RTC_I2C_MASTER.c ****     theByte = RTC_I2C_INVALID_BYTE;
 708:.\Generated_Source\PSoC4/RTC_I2C_MASTER.c **** 
 709:.\Generated_Source\PSoC4/RTC_I2C_MASTER.c ****     /* Check FSM state before read byte */
 710:.\Generated_Source\PSoC4/RTC_I2C_MASTER.c ****     if(RTC_CHECK_I2C_MASTER_ACTIVE)
 498              		.loc 1 710 0
 499 0002 1B4E     		ldr	r6, .L77
 702:.\Generated_Source\PSoC4/RTC_I2C_MASTER.c **** {
 500              		.loc 1 702 0
 501 0004 071C     		mov	r7, r0
 502              		.loc 1 710 0
 503 0006 3378     		ldrb	r3, [r6]
 504 0008 9A06     		lsl	r2, r3, #26
 505 000a 02D4     		bmi	.L75
 707:.\Generated_Source\PSoC4/RTC_I2C_MASTER.c ****     theByte = RTC_I2C_INVALID_BYTE;
 506              		.loc 1 707 0
 507 000c 0120     		mov	r0, #1
 508              	.LVL47:
 509 000e 4042     		neg	r0, r0
 510              	.LVL48:
 511              	.L64:
 711:.\Generated_Source\PSoC4/RTC_I2C_MASTER.c ****     {
 712:.\Generated_Source\PSoC4/RTC_I2C_MASTER.c ****         while((!RTC_CHECK_INTR_RX(RTC_INTR_RX_NOT_EMPTY)) &&
 713:.\Generated_Source\PSoC4/RTC_I2C_MASTER.c ****               (!RTC_CHECK_INTR_MASTER(RTC_INTR_MASTER_I2C_ARB_LOST |
 714:.\Generated_Source\PSoC4/RTC_I2C_MASTER.c ****                                                   RTC_INTR_MASTER_I2C_BUS_ERROR)))
ARM GAS  C:\Users\Computer\AppData\Local\Temp\cc3MlAIb.s 			page 24


 715:.\Generated_Source\PSoC4/RTC_I2C_MASTER.c ****         {
 716:.\Generated_Source\PSoC4/RTC_I2C_MASTER.c ****             /* Wait until byte will be received */
 717:.\Generated_Source\PSoC4/RTC_I2C_MASTER.c ****         }
 718:.\Generated_Source\PSoC4/RTC_I2C_MASTER.c **** 
 719:.\Generated_Source\PSoC4/RTC_I2C_MASTER.c ****         /*
 720:.\Generated_Source\PSoC4/RTC_I2C_MASTER.c ****         * Check results after byte was sent.
 721:.\Generated_Source\PSoC4/RTC_I2C_MASTER.c ****         *  RX_NOT_EMPTY - the one byte is succesfully received.
 722:.\Generated_Source\PSoC4/RTC_I2C_MASTER.c ****         *  LOST_ARB - added just in case because master drives ACK only: level 0 on the bus.
 723:.\Generated_Source\PSoC4/RTC_I2C_MASTER.c ****         *  NACK is driven by separate API.
 724:.\Generated_Source\PSoC4/RTC_I2C_MASTER.c ****         *  BUS_ERR - misplaced Start or Stop when Slave drives. Place: 8 data bits.
 725:.\Generated_Source\PSoC4/RTC_I2C_MASTER.c ****         *  The misplaced Start or Stop causes the bus idle status to get stuck to busy.
 726:.\Generated_Source\PSoC4/RTC_I2C_MASTER.c ****         *  The misplaced Start is possible when SCB drives SCL 1 and it changes
 727:.\Generated_Source\PSoC4/RTC_I2C_MASTER.c ****         *  from 1 to 0 (Start) or 0 to 1 (Stop).
 728:.\Generated_Source\PSoC4/RTC_I2C_MASTER.c ****         *  Reset SCB on either LOST_ARB or BUS_ERR as both could be caused by
 729:.\Generated_Source\PSoC4/RTC_I2C_MASTER.c ****         *  misplaced Start event to reset bus busy.
 730:.\Generated_Source\PSoC4/RTC_I2C_MASTER.c ****         */
 731:.\Generated_Source\PSoC4/RTC_I2C_MASTER.c ****         if(RTC_CHECK_INTR_RX(RTC_INTR_RX_NOT_EMPTY))
 732:.\Generated_Source\PSoC4/RTC_I2C_MASTER.c ****         {
 733:.\Generated_Source\PSoC4/RTC_I2C_MASTER.c ****             theByte = RTC_RX_FIFO_RD_REG;
 734:.\Generated_Source\PSoC4/RTC_I2C_MASTER.c **** 
 735:.\Generated_Source\PSoC4/RTC_I2C_MASTER.c ****             RTC_ClearRxInterruptSource(RTC_INTR_RX_NOT_EMPTY);
 736:.\Generated_Source\PSoC4/RTC_I2C_MASTER.c **** 
 737:.\Generated_Source\PSoC4/RTC_I2C_MASTER.c ****             /*
 738:.\Generated_Source\PSoC4/RTC_I2C_MASTER.c ****             * ACK  - generates directly by master CMD.
 739:.\Generated_Source\PSoC4/RTC_I2C_MASTER.c ****             * NACK - does nothing. The NACK and STOP are generated by RTC_MasterSendStop()
 740:.\Generated_Source\PSoC4/RTC_I2C_MASTER.c ****             */
 741:.\Generated_Source\PSoC4/RTC_I2C_MASTER.c ****             if(0u == ackNack)  /* Do ACK */
 742:.\Generated_Source\PSoC4/RTC_I2C_MASTER.c ****             {
 743:.\Generated_Source\PSoC4/RTC_I2C_MASTER.c ****                 RTC_I2C_MASTER_GENERATE_ACK;
 744:.\Generated_Source\PSoC4/RTC_I2C_MASTER.c ****             }
 745:.\Generated_Source\PSoC4/RTC_I2C_MASTER.c ****             else /* Do nothing */
 746:.\Generated_Source\PSoC4/RTC_I2C_MASTER.c ****             {
 747:.\Generated_Source\PSoC4/RTC_I2C_MASTER.c ****                 RTC_state = RTC_I2C_FSM_MSTR_HALT;
 748:.\Generated_Source\PSoC4/RTC_I2C_MASTER.c ****             }
 749:.\Generated_Source\PSoC4/RTC_I2C_MASTER.c ****         }
 750:.\Generated_Source\PSoC4/RTC_I2C_MASTER.c ****         else
 751:.\Generated_Source\PSoC4/RTC_I2C_MASTER.c ****         {
 752:.\Generated_Source\PSoC4/RTC_I2C_MASTER.c ****             RTC_ClearMasterInterruptSource(RTC_INTR_MASTER_ALL);
 753:.\Generated_Source\PSoC4/RTC_I2C_MASTER.c **** 
 754:.\Generated_Source\PSoC4/RTC_I2C_MASTER.c ****             /* Reset block in case of: LOST_ARB or BUS_ERR */
 755:.\Generated_Source\PSoC4/RTC_I2C_MASTER.c ****             enableInterrupts = CyEnterCriticalSection();
 756:.\Generated_Source\PSoC4/RTC_I2C_MASTER.c ****             RTC_SCB_SW_RESET;
 757:.\Generated_Source\PSoC4/RTC_I2C_MASTER.c ****             CyExitCriticalSection(enableInterrupts);
 758:.\Generated_Source\PSoC4/RTC_I2C_MASTER.c ****         }
 759:.\Generated_Source\PSoC4/RTC_I2C_MASTER.c ****     }
 760:.\Generated_Source\PSoC4/RTC_I2C_MASTER.c **** 
 761:.\Generated_Source\PSoC4/RTC_I2C_MASTER.c ****     return(theByte);
 762:.\Generated_Source\PSoC4/RTC_I2C_MASTER.c **** }
 512              		.loc 1 762 0
 513              		@ sp needed for prologue
 514 0010 F8BD     		pop	{r3, r4, r5, r6, r7, pc}
 515              	.LVL49:
 516              	.L75:
 712:.\Generated_Source\PSoC4/RTC_I2C_MASTER.c ****         while((!RTC_CHECK_INTR_RX(RTC_INTR_RX_NOT_EMPTY)) &&
 517              		.loc 1 712 0
 518 0012 1849     		ldr	r1, .L77+4
 519 0014 0422     		mov	r2, #4
ARM GAS  C:\Users\Computer\AppData\Local\Temp\cc3MlAIb.s 			page 25


 713:.\Generated_Source\PSoC4/RTC_I2C_MASTER.c ****               (!RTC_CHECK_INTR_MASTER(RTC_INTR_MASTER_I2C_ARB_LOST |
 520              		.loc 1 713 0
 521 0016 184D     		ldr	r5, .L77+8
 522 0018 184C     		ldr	r4, .L77+12
 523 001a 02E0     		b	.L72
 524              	.LVL50:
 525              	.L76:
 713:.\Generated_Source\PSoC4/RTC_I2C_MASTER.c ****               (!RTC_CHECK_INTR_MASTER(RTC_INTR_MASTER_I2C_ARB_LOST |
 526              		.loc 1 713 0 is_stmt 0 discriminator 2
 527 001c 2868     		ldr	r0, [r5]
 712:.\Generated_Source\PSoC4/RTC_I2C_MASTER.c ****         while((!RTC_CHECK_INTR_RX(RTC_INTR_RX_NOT_EMPTY)) &&
 528              		.loc 1 712 0 is_stmt 1 discriminator 2
 529 001e 2042     		tst	r0, r4
 530 0020 02D1     		bne	.L65
 531              	.L72:
 712:.\Generated_Source\PSoC4/RTC_I2C_MASTER.c ****         while((!RTC_CHECK_INTR_RX(RTC_INTR_RX_NOT_EMPTY)) &&
 532              		.loc 1 712 0 is_stmt 0
 533 0022 0B68     		ldr	r3, [r1]
 534 0024 1A42     		tst	r2, r3
 535 0026 F9D0     		beq	.L76
 536              	.L65:
 731:.\Generated_Source\PSoC4/RTC_I2C_MASTER.c ****         if(RTC_CHECK_INTR_RX(RTC_INTR_RX_NOT_EMPTY))
 537              		.loc 1 731 0 is_stmt 1
 538 0028 124A     		ldr	r2, .L77+4
 539 002a 0425     		mov	r5, #4
 540 002c 1168     		ldr	r1, [r2]
 541 002e 0D42     		tst	r5, r1
 542 0030 07D0     		beq	.L67
 733:.\Generated_Source\PSoC4/RTC_I2C_MASTER.c ****             theByte = RTC_RX_FIFO_RD_REG;
 543              		.loc 1 733 0
 544 0032 134C     		ldr	r4, .L77+16
 545 0034 2068     		ldr	r0, [r4]
 546              	.LVL51:
 735:.\Generated_Source\PSoC4/RTC_I2C_MASTER.c ****             RTC_ClearRxInterruptSource(RTC_INTR_RX_NOT_EMPTY);
 547              		.loc 1 735 0
 548 0036 1560     		str	r5, [r2]
 741:.\Generated_Source\PSoC4/RTC_I2C_MASTER.c ****             if(0u == ackNack)  /* Do ACK */
 549              		.loc 1 741 0
 550 0038 002F     		cmp	r7, #0
 551 003a 16D1     		bne	.L68
 743:.\Generated_Source\PSoC4/RTC_I2C_MASTER.c ****                 RTC_I2C_MASTER_GENERATE_ACK;
 552              		.loc 1 743 0
 553 003c 114A     		ldr	r2, .L77+20
 554 003e 1560     		str	r5, [r2]
 555 0040 E6E7     		b	.L64
 556              	.LVL52:
 557              	.L67:
 752:.\Generated_Source\PSoC4/RTC_I2C_MASTER.c ****             RTC_ClearMasterInterruptSource(RTC_INTR_MASTER_ALL);
 558              		.loc 1 752 0
 559 0042 114F     		ldr	r7, .L77+24
 560              	.LVL53:
 561 0044 0C4E     		ldr	r6, .L77+8
 756:.\Generated_Source\PSoC4/RTC_I2C_MASTER.c ****             RTC_SCB_SW_RESET;
 562              		.loc 1 756 0
 563 0046 114C     		ldr	r4, .L77+28
 752:.\Generated_Source\PSoC4/RTC_I2C_MASTER.c ****             RTC_ClearMasterInterruptSource(RTC_INTR_MASTER_ALL);
 564              		.loc 1 752 0
ARM GAS  C:\Users\Computer\AppData\Local\Temp\cc3MlAIb.s 			page 26


 565 0048 3760     		str	r7, [r6]
 755:.\Generated_Source\PSoC4/RTC_I2C_MASTER.c ****             enableInterrupts = CyEnterCriticalSection();
 566              		.loc 1 755 0
 567 004a FFF7FEFF 		bl	CyEnterCriticalSection
 568              	.LVL54:
 756:.\Generated_Source\PSoC4/RTC_I2C_MASTER.c ****             RTC_SCB_SW_RESET;
 569              		.loc 1 756 0
 570 004e 2368     		ldr	r3, [r4]
 571 0050 8027     		mov	r7, #128
 572 0052 5A00     		lsl	r2, r3, #1
 573 0054 5108     		lsr	r1, r2, #1
 574 0056 2160     		str	r1, [r4]
 575 0058 2568     		ldr	r5, [r4]
 576 005a 3E06     		lsl	r6, r7, #24
 577 005c 2E43     		orr	r6, r5
 578 005e 2660     		str	r6, [r4]
 757:.\Generated_Source\PSoC4/RTC_I2C_MASTER.c ****             CyExitCriticalSection(enableInterrupts);
 579              		.loc 1 757 0
 580 0060 FFF7FEFF 		bl	CyExitCriticalSection
 581              	.LVL55:
 707:.\Generated_Source\PSoC4/RTC_I2C_MASTER.c ****     theByte = RTC_I2C_INVALID_BYTE;
 582              		.loc 1 707 0
 583 0064 0120     		mov	r0, #1
 584 0066 4042     		neg	r0, r0
 585 0068 D2E7     		b	.L64
 586              	.LVL56:
 587              	.L68:
 747:.\Generated_Source\PSoC4/RTC_I2C_MASTER.c ****                 RTC_state = RTC_I2C_FSM_MSTR_HALT;
 588              		.loc 1 747 0
 589 006a 6023     		mov	r3, #96
 590 006c 3370     		strb	r3, [r6]
 591 006e CFE7     		b	.L64
 592              	.L78:
 593              		.align	2
 594              	.L77:
 595 0070 00000000 		.word	RTC_state
 596 0074 C00F0640 		.word	1074139072
 597 0078 000F0640 		.word	1074138880
 598 007c 01010000 		.word	257
 599 0080 40030640 		.word	1074135872
 600 0084 68000640 		.word	1074135144
 601 0088 17030000 		.word	791
 602 008c 00000640 		.word	1074135040
 603              		.cfi_endproc
 604              	.LFE6:
 605              		.size	RTC_I2CMasterReadByte, .-RTC_I2CMasterReadByte
 606              		.section	.text.RTC_I2CMasterGetReadBufSize,"ax",%progbits
 607              		.align	2
 608              		.global	RTC_I2CMasterGetReadBufSize
 609              		.code	16
 610              		.thumb_func
 611              		.type	RTC_I2CMasterGetReadBufSize, %function
 612              	RTC_I2CMasterGetReadBufSize:
 613              	.LFB7:
 763:.\Generated_Source\PSoC4/RTC_I2C_MASTER.c **** 
 764:.\Generated_Source\PSoC4/RTC_I2C_MASTER.c **** 
 765:.\Generated_Source\PSoC4/RTC_I2C_MASTER.c **** /*******************************************************************************
ARM GAS  C:\Users\Computer\AppData\Local\Temp\cc3MlAIb.s 			page 27


 766:.\Generated_Source\PSoC4/RTC_I2C_MASTER.c **** * Function Name: RTC_I2CMasterGetReadBufSize
 767:.\Generated_Source\PSoC4/RTC_I2C_MASTER.c **** ********************************************************************************
 768:.\Generated_Source\PSoC4/RTC_I2C_MASTER.c **** *
 769:.\Generated_Source\PSoC4/RTC_I2C_MASTER.c **** * Summary:
 770:.\Generated_Source\PSoC4/RTC_I2C_MASTER.c **** *  Returns the amount of bytes that has been transferred with an
 771:.\Generated_Source\PSoC4/RTC_I2C_MASTER.c **** *  I2C_MasterReadBuf command.
 772:.\Generated_Source\PSoC4/RTC_I2C_MASTER.c **** *
 773:.\Generated_Source\PSoC4/RTC_I2C_MASTER.c **** * Parameters:
 774:.\Generated_Source\PSoC4/RTC_I2C_MASTER.c **** *  None
 775:.\Generated_Source\PSoC4/RTC_I2C_MASTER.c **** *
 776:.\Generated_Source\PSoC4/RTC_I2C_MASTER.c **** * Return:
 777:.\Generated_Source\PSoC4/RTC_I2C_MASTER.c **** *  Byte count of transfer. If the transfer is not yet complete, it will return
 778:.\Generated_Source\PSoC4/RTC_I2C_MASTER.c **** *  the byte count transferred so far.
 779:.\Generated_Source\PSoC4/RTC_I2C_MASTER.c **** *
 780:.\Generated_Source\PSoC4/RTC_I2C_MASTER.c **** * Global variables:
 781:.\Generated_Source\PSoC4/RTC_I2C_MASTER.c **** *  RTC_mstrRdBufIndex - used to current index within master read
 782:.\Generated_Source\PSoC4/RTC_I2C_MASTER.c **** *  buffer.
 783:.\Generated_Source\PSoC4/RTC_I2C_MASTER.c **** *
 784:.\Generated_Source\PSoC4/RTC_I2C_MASTER.c **** *******************************************************************************/
 785:.\Generated_Source\PSoC4/RTC_I2C_MASTER.c **** uint32 RTC_I2CMasterGetReadBufSize(void)
 786:.\Generated_Source\PSoC4/RTC_I2C_MASTER.c **** {
 614              		.loc 1 786 0
 615              		.cfi_startproc
 787:.\Generated_Source\PSoC4/RTC_I2C_MASTER.c ****     return(RTC_mstrRdBufIndex);
 616              		.loc 1 787 0
 617 0000 014B     		ldr	r3, .L80
 788:.\Generated_Source\PSoC4/RTC_I2C_MASTER.c **** }
 618              		.loc 1 788 0
 619              		@ sp needed for prologue
 787:.\Generated_Source\PSoC4/RTC_I2C_MASTER.c ****     return(RTC_mstrRdBufIndex);
 620              		.loc 1 787 0
 621 0002 1868     		ldr	r0, [r3]
 622              		.loc 1 788 0
 623 0004 7047     		bx	lr
 624              	.L81:
 625 0006 C046     		.align	2
 626              	.L80:
 627 0008 00000000 		.word	RTC_mstrRdBufIndex
 628              		.cfi_endproc
 629              	.LFE7:
 630              		.size	RTC_I2CMasterGetReadBufSize, .-RTC_I2CMasterGetReadBufSize
 631              		.section	.text.RTC_I2CMasterGetWriteBufSize,"ax",%progbits
 632              		.align	2
 633              		.global	RTC_I2CMasterGetWriteBufSize
 634              		.code	16
 635              		.thumb_func
 636              		.type	RTC_I2CMasterGetWriteBufSize, %function
 637              	RTC_I2CMasterGetWriteBufSize:
 638              	.LFB8:
 789:.\Generated_Source\PSoC4/RTC_I2C_MASTER.c **** 
 790:.\Generated_Source\PSoC4/RTC_I2C_MASTER.c **** 
 791:.\Generated_Source\PSoC4/RTC_I2C_MASTER.c **** /*******************************************************************************
 792:.\Generated_Source\PSoC4/RTC_I2C_MASTER.c **** * Function Name: RTC_I2CMasterGetWriteBufSize
 793:.\Generated_Source\PSoC4/RTC_I2C_MASTER.c **** ********************************************************************************
 794:.\Generated_Source\PSoC4/RTC_I2C_MASTER.c **** *
 795:.\Generated_Source\PSoC4/RTC_I2C_MASTER.c **** * Summary:
 796:.\Generated_Source\PSoC4/RTC_I2C_MASTER.c **** *  Returns the amount of bytes that has been transferred with an
ARM GAS  C:\Users\Computer\AppData\Local\Temp\cc3MlAIb.s 			page 28


 797:.\Generated_Source\PSoC4/RTC_I2C_MASTER.c **** *  I2C_MasterWriteBuf command.
 798:.\Generated_Source\PSoC4/RTC_I2C_MASTER.c **** *
 799:.\Generated_Source\PSoC4/RTC_I2C_MASTER.c **** * Parameters:
 800:.\Generated_Source\PSoC4/RTC_I2C_MASTER.c **** *  None
 801:.\Generated_Source\PSoC4/RTC_I2C_MASTER.c **** *
 802:.\Generated_Source\PSoC4/RTC_I2C_MASTER.c **** * Return:
 803:.\Generated_Source\PSoC4/RTC_I2C_MASTER.c **** *  Byte count of transfer. If the transfer is not yet complete, it will return
 804:.\Generated_Source\PSoC4/RTC_I2C_MASTER.c **** *  the byte count transferred so far.
 805:.\Generated_Source\PSoC4/RTC_I2C_MASTER.c **** *
 806:.\Generated_Source\PSoC4/RTC_I2C_MASTER.c **** * Global variables:
 807:.\Generated_Source\PSoC4/RTC_I2C_MASTER.c **** *  RTC_mstrWrBufIndex - used to current index within master write
 808:.\Generated_Source\PSoC4/RTC_I2C_MASTER.c **** *  buffer.
 809:.\Generated_Source\PSoC4/RTC_I2C_MASTER.c **** *
 810:.\Generated_Source\PSoC4/RTC_I2C_MASTER.c **** *******************************************************************************/
 811:.\Generated_Source\PSoC4/RTC_I2C_MASTER.c **** uint32 RTC_I2CMasterGetWriteBufSize(void)
 812:.\Generated_Source\PSoC4/RTC_I2C_MASTER.c **** {
 639              		.loc 1 812 0
 640              		.cfi_startproc
 813:.\Generated_Source\PSoC4/RTC_I2C_MASTER.c ****     return(RTC_mstrWrBufIndex);
 641              		.loc 1 813 0
 642 0000 014B     		ldr	r3, .L83
 814:.\Generated_Source\PSoC4/RTC_I2C_MASTER.c **** }
 643              		.loc 1 814 0
 644              		@ sp needed for prologue
 813:.\Generated_Source\PSoC4/RTC_I2C_MASTER.c ****     return(RTC_mstrWrBufIndex);
 645              		.loc 1 813 0
 646 0002 1868     		ldr	r0, [r3]
 647              		.loc 1 814 0
 648 0004 7047     		bx	lr
 649              	.L84:
 650 0006 C046     		.align	2
 651              	.L83:
 652 0008 00000000 		.word	RTC_mstrWrBufIndex
 653              		.cfi_endproc
 654              	.LFE8:
 655              		.size	RTC_I2CMasterGetWriteBufSize, .-RTC_I2CMasterGetWriteBufSize
 656              		.section	.text.RTC_I2CMasterClearReadBuf,"ax",%progbits
 657              		.align	2
 658              		.global	RTC_I2CMasterClearReadBuf
 659              		.code	16
 660              		.thumb_func
 661              		.type	RTC_I2CMasterClearReadBuf, %function
 662              	RTC_I2CMasterClearReadBuf:
 663              	.LFB9:
 815:.\Generated_Source\PSoC4/RTC_I2C_MASTER.c **** 
 816:.\Generated_Source\PSoC4/RTC_I2C_MASTER.c **** 
 817:.\Generated_Source\PSoC4/RTC_I2C_MASTER.c **** /*******************************************************************************
 818:.\Generated_Source\PSoC4/RTC_I2C_MASTER.c **** * Function Name: RTC_I2CMasterClearReadBuf
 819:.\Generated_Source\PSoC4/RTC_I2C_MASTER.c **** ********************************************************************************
 820:.\Generated_Source\PSoC4/RTC_I2C_MASTER.c **** *
 821:.\Generated_Source\PSoC4/RTC_I2C_MASTER.c **** * Summary:
 822:.\Generated_Source\PSoC4/RTC_I2C_MASTER.c **** *  Resets the read buffer pointer back to the first byte in the buffer.
 823:.\Generated_Source\PSoC4/RTC_I2C_MASTER.c **** *
 824:.\Generated_Source\PSoC4/RTC_I2C_MASTER.c **** * Parameters:
 825:.\Generated_Source\PSoC4/RTC_I2C_MASTER.c **** *  None
 826:.\Generated_Source\PSoC4/RTC_I2C_MASTER.c **** *
 827:.\Generated_Source\PSoC4/RTC_I2C_MASTER.c **** * Return:
ARM GAS  C:\Users\Computer\AppData\Local\Temp\cc3MlAIb.s 			page 29


 828:.\Generated_Source\PSoC4/RTC_I2C_MASTER.c **** *  None
 829:.\Generated_Source\PSoC4/RTC_I2C_MASTER.c **** *
 830:.\Generated_Source\PSoC4/RTC_I2C_MASTER.c **** * Global variables:
 831:.\Generated_Source\PSoC4/RTC_I2C_MASTER.c **** *  RTC_mstrRdBufIndex - used to current index within master read
 832:.\Generated_Source\PSoC4/RTC_I2C_MASTER.c **** *   buffer.
 833:.\Generated_Source\PSoC4/RTC_I2C_MASTER.c **** *  RTC_mstrStatus - used to store current status of I2C Master.
 834:.\Generated_Source\PSoC4/RTC_I2C_MASTER.c **** *
 835:.\Generated_Source\PSoC4/RTC_I2C_MASTER.c **** *******************************************************************************/
 836:.\Generated_Source\PSoC4/RTC_I2C_MASTER.c **** void RTC_I2CMasterClearReadBuf(void)
 837:.\Generated_Source\PSoC4/RTC_I2C_MASTER.c **** {
 664              		.loc 1 837 0
 665              		.cfi_startproc
 838:.\Generated_Source\PSoC4/RTC_I2C_MASTER.c ****     RTC_mstrRdBufIndex = 0u;
 666              		.loc 1 838 0
 667 0000 044B     		ldr	r3, .L86
 839:.\Generated_Source\PSoC4/RTC_I2C_MASTER.c ****     RTC_mstrStatus    &= (uint16) ~RTC_I2C_MSTAT_RD_CMPLT;
 668              		.loc 1 839 0
 669 0002 0548     		ldr	r0, .L86+4
 838:.\Generated_Source\PSoC4/RTC_I2C_MASTER.c ****     RTC_mstrRdBufIndex = 0u;
 670              		.loc 1 838 0
 671 0004 0022     		mov	r2, #0
 672 0006 1A60     		str	r2, [r3]
 673              		.loc 1 839 0
 674 0008 0288     		ldrh	r2, [r0]
 675 000a 0121     		mov	r1, #1
 676 000c 8A43     		bic	r2, r1
 677 000e 0280     		strh	r2, [r0]
 840:.\Generated_Source\PSoC4/RTC_I2C_MASTER.c **** }
 678              		.loc 1 840 0
 679              		@ sp needed for prologue
 680 0010 7047     		bx	lr
 681              	.L87:
 682 0012 C046     		.align	2
 683              	.L86:
 684 0014 00000000 		.word	RTC_mstrRdBufIndex
 685 0018 00000000 		.word	RTC_mstrStatus
 686              		.cfi_endproc
 687              	.LFE9:
 688              		.size	RTC_I2CMasterClearReadBuf, .-RTC_I2CMasterClearReadBuf
 689              		.section	.text.RTC_I2CMasterClearWriteBuf,"ax",%progbits
 690              		.align	2
 691              		.global	RTC_I2CMasterClearWriteBuf
 692              		.code	16
 693              		.thumb_func
 694              		.type	RTC_I2CMasterClearWriteBuf, %function
 695              	RTC_I2CMasterClearWriteBuf:
 696              	.LFB10:
 841:.\Generated_Source\PSoC4/RTC_I2C_MASTER.c **** 
 842:.\Generated_Source\PSoC4/RTC_I2C_MASTER.c **** 
 843:.\Generated_Source\PSoC4/RTC_I2C_MASTER.c **** /*******************************************************************************
 844:.\Generated_Source\PSoC4/RTC_I2C_MASTER.c **** * Function Name: RTC_I2CMasterClearWriteBuf
 845:.\Generated_Source\PSoC4/RTC_I2C_MASTER.c **** ********************************************************************************
 846:.\Generated_Source\PSoC4/RTC_I2C_MASTER.c **** *
 847:.\Generated_Source\PSoC4/RTC_I2C_MASTER.c **** * Summary:
 848:.\Generated_Source\PSoC4/RTC_I2C_MASTER.c **** *  Resets the write buffer pointer back to the first byte in the buffer.
 849:.\Generated_Source\PSoC4/RTC_I2C_MASTER.c **** *
 850:.\Generated_Source\PSoC4/RTC_I2C_MASTER.c **** * Parameters:
ARM GAS  C:\Users\Computer\AppData\Local\Temp\cc3MlAIb.s 			page 30


 851:.\Generated_Source\PSoC4/RTC_I2C_MASTER.c **** *  None
 852:.\Generated_Source\PSoC4/RTC_I2C_MASTER.c **** *
 853:.\Generated_Source\PSoC4/RTC_I2C_MASTER.c **** * Return:
 854:.\Generated_Source\PSoC4/RTC_I2C_MASTER.c **** *  None
 855:.\Generated_Source\PSoC4/RTC_I2C_MASTER.c **** *
 856:.\Generated_Source\PSoC4/RTC_I2C_MASTER.c **** * Global variables:
 857:.\Generated_Source\PSoC4/RTC_I2C_MASTER.c **** *  RTC_mstrRdBufIndex - used to current index within master read
 858:.\Generated_Source\PSoC4/RTC_I2C_MASTER.c **** *   buffer.
 859:.\Generated_Source\PSoC4/RTC_I2C_MASTER.c **** *  RTC_mstrStatus - used to store current status of I2C Master.
 860:.\Generated_Source\PSoC4/RTC_I2C_MASTER.c **** *
 861:.\Generated_Source\PSoC4/RTC_I2C_MASTER.c **** *******************************************************************************/
 862:.\Generated_Source\PSoC4/RTC_I2C_MASTER.c **** void RTC_I2CMasterClearWriteBuf(void)
 863:.\Generated_Source\PSoC4/RTC_I2C_MASTER.c **** {
 697              		.loc 1 863 0
 698              		.cfi_startproc
 864:.\Generated_Source\PSoC4/RTC_I2C_MASTER.c ****     RTC_mstrWrBufIndex = 0u;
 699              		.loc 1 864 0
 700 0000 044B     		ldr	r3, .L89
 865:.\Generated_Source\PSoC4/RTC_I2C_MASTER.c ****     RTC_mstrStatus    &= (uint16) ~RTC_I2C_MSTAT_WR_CMPLT;
 701              		.loc 1 865 0
 702 0002 0548     		ldr	r0, .L89+4
 864:.\Generated_Source\PSoC4/RTC_I2C_MASTER.c ****     RTC_mstrWrBufIndex = 0u;
 703              		.loc 1 864 0
 704 0004 0022     		mov	r2, #0
 705 0006 1A60     		str	r2, [r3]
 706              		.loc 1 865 0
 707 0008 0288     		ldrh	r2, [r0]
 708 000a 0221     		mov	r1, #2
 709 000c 8A43     		bic	r2, r1
 710 000e 0280     		strh	r2, [r0]
 866:.\Generated_Source\PSoC4/RTC_I2C_MASTER.c **** }
 711              		.loc 1 866 0
 712              		@ sp needed for prologue
 713 0010 7047     		bx	lr
 714              	.L90:
 715 0012 C046     		.align	2
 716              	.L89:
 717 0014 00000000 		.word	RTC_mstrWrBufIndex
 718 0018 00000000 		.word	RTC_mstrStatus
 719              		.cfi_endproc
 720              	.LFE10:
 721              		.size	RTC_I2CMasterClearWriteBuf, .-RTC_I2CMasterClearWriteBuf
 722              		.section	.text.RTC_I2CMasterStatus,"ax",%progbits
 723              		.align	2
 724              		.global	RTC_I2CMasterStatus
 725              		.code	16
 726              		.thumb_func
 727              		.type	RTC_I2CMasterStatus, %function
 728              	RTC_I2CMasterStatus:
 729              	.LFB11:
 867:.\Generated_Source\PSoC4/RTC_I2C_MASTER.c **** 
 868:.\Generated_Source\PSoC4/RTC_I2C_MASTER.c **** 
 869:.\Generated_Source\PSoC4/RTC_I2C_MASTER.c **** /*******************************************************************************
 870:.\Generated_Source\PSoC4/RTC_I2C_MASTER.c **** * Function Name: RTC_I2CMasterStatus
 871:.\Generated_Source\PSoC4/RTC_I2C_MASTER.c **** ********************************************************************************
 872:.\Generated_Source\PSoC4/RTC_I2C_MASTER.c **** *
 873:.\Generated_Source\PSoC4/RTC_I2C_MASTER.c **** * Summary:
ARM GAS  C:\Users\Computer\AppData\Local\Temp\cc3MlAIb.s 			page 31


 874:.\Generated_Source\PSoC4/RTC_I2C_MASTER.c **** *  Returns the master's communication status.
 875:.\Generated_Source\PSoC4/RTC_I2C_MASTER.c **** *
 876:.\Generated_Source\PSoC4/RTC_I2C_MASTER.c **** * Parameters:
 877:.\Generated_Source\PSoC4/RTC_I2C_MASTER.c **** *  None
 878:.\Generated_Source\PSoC4/RTC_I2C_MASTER.c **** *
 879:.\Generated_Source\PSoC4/RTC_I2C_MASTER.c **** * Return:
 880:.\Generated_Source\PSoC4/RTC_I2C_MASTER.c **** *  Current status of I2C master.
 881:.\Generated_Source\PSoC4/RTC_I2C_MASTER.c **** *
 882:.\Generated_Source\PSoC4/RTC_I2C_MASTER.c **** * Global variables:
 883:.\Generated_Source\PSoC4/RTC_I2C_MASTER.c **** *  RTC_mstrStatus - used to store current status of I2C Master.
 884:.\Generated_Source\PSoC4/RTC_I2C_MASTER.c **** *
 885:.\Generated_Source\PSoC4/RTC_I2C_MASTER.c **** *******************************************************************************/
 886:.\Generated_Source\PSoC4/RTC_I2C_MASTER.c **** uint32 RTC_I2CMasterStatus(void)
 887:.\Generated_Source\PSoC4/RTC_I2C_MASTER.c **** {
 730              		.loc 1 887 0
 731              		.cfi_startproc
 732 0000 00B5     		push	{lr}
 733              	.LCFI5:
 734              		.cfi_def_cfa_offset 4
 735              		.cfi_offset 14, -4
 888:.\Generated_Source\PSoC4/RTC_I2C_MASTER.c ****     uint32 status;
 889:.\Generated_Source\PSoC4/RTC_I2C_MASTER.c **** 
 890:.\Generated_Source\PSoC4/RTC_I2C_MASTER.c ****     status = (uint32) RTC_mstrStatus;
 736              		.loc 1 890 0
 737 0002 044B     		ldr	r3, .L94
 891:.\Generated_Source\PSoC4/RTC_I2C_MASTER.c **** 
 892:.\Generated_Source\PSoC4/RTC_I2C_MASTER.c ****     if(RTC_CHECK_I2C_MASTER_ACTIVE)
 738              		.loc 1 892 0
 739 0004 0449     		ldr	r1, .L94+4
 890:.\Generated_Source\PSoC4/RTC_I2C_MASTER.c ****     status = (uint32) RTC_mstrStatus;
 740              		.loc 1 890 0
 741 0006 1888     		ldrh	r0, [r3]
 742              	.LVL57:
 743              		.loc 1 892 0
 744 0008 0A78     		ldrb	r2, [r1]
 745 000a 9206     		lsl	r2, r2, #26
 746 000c 01D5     		bpl	.L93
 893:.\Generated_Source\PSoC4/RTC_I2C_MASTER.c ****     {
 894:.\Generated_Source\PSoC4/RTC_I2C_MASTER.c ****         /* Add status of master pending tranaction: MSTAT_XFER_INP */
 895:.\Generated_Source\PSoC4/RTC_I2C_MASTER.c ****         status |= (uint32) RTC_I2C_MSTAT_XFER_INP;
 747              		.loc 1 895 0
 748 000e 0423     		mov	r3, #4
 749 0010 1843     		orr	r0, r3
 750              	.LVL58:
 751              	.L93:
 896:.\Generated_Source\PSoC4/RTC_I2C_MASTER.c ****     }
 897:.\Generated_Source\PSoC4/RTC_I2C_MASTER.c **** 
 898:.\Generated_Source\PSoC4/RTC_I2C_MASTER.c ****     return(status);
 899:.\Generated_Source\PSoC4/RTC_I2C_MASTER.c **** }
 752              		.loc 1 899 0
 753              		@ sp needed for prologue
 754 0012 00BD     		pop	{pc}
 755              	.L95:
 756              		.align	2
 757              	.L94:
 758 0014 00000000 		.word	RTC_mstrStatus
 759 0018 00000000 		.word	RTC_state
ARM GAS  C:\Users\Computer\AppData\Local\Temp\cc3MlAIb.s 			page 32


 760              		.cfi_endproc
 761              	.LFE11:
 762              		.size	RTC_I2CMasterStatus, .-RTC_I2CMasterStatus
 763              		.section	.text.RTC_I2CMasterClearStatus,"ax",%progbits
 764              		.align	2
 765              		.global	RTC_I2CMasterClearStatus
 766              		.code	16
 767              		.thumb_func
 768              		.type	RTC_I2CMasterClearStatus, %function
 769              	RTC_I2CMasterClearStatus:
 770              	.LFB12:
 900:.\Generated_Source\PSoC4/RTC_I2C_MASTER.c **** 
 901:.\Generated_Source\PSoC4/RTC_I2C_MASTER.c **** 
 902:.\Generated_Source\PSoC4/RTC_I2C_MASTER.c **** /*******************************************************************************
 903:.\Generated_Source\PSoC4/RTC_I2C_MASTER.c **** * Function Name: RTC_I2CMasterClearStatus
 904:.\Generated_Source\PSoC4/RTC_I2C_MASTER.c **** ********************************************************************************
 905:.\Generated_Source\PSoC4/RTC_I2C_MASTER.c **** *
 906:.\Generated_Source\PSoC4/RTC_I2C_MASTER.c **** * Summary:
 907:.\Generated_Source\PSoC4/RTC_I2C_MASTER.c **** *  Clears all status flags and returns the master status.
 908:.\Generated_Source\PSoC4/RTC_I2C_MASTER.c **** *
 909:.\Generated_Source\PSoC4/RTC_I2C_MASTER.c **** * Parameters:
 910:.\Generated_Source\PSoC4/RTC_I2C_MASTER.c **** *  None
 911:.\Generated_Source\PSoC4/RTC_I2C_MASTER.c **** *
 912:.\Generated_Source\PSoC4/RTC_I2C_MASTER.c **** * Return:
 913:.\Generated_Source\PSoC4/RTC_I2C_MASTER.c **** *  Current status of I2C master.
 914:.\Generated_Source\PSoC4/RTC_I2C_MASTER.c **** *
 915:.\Generated_Source\PSoC4/RTC_I2C_MASTER.c **** * Global variables:
 916:.\Generated_Source\PSoC4/RTC_I2C_MASTER.c **** *  RTC_mstrStatus - used to store current status of I2C Master.
 917:.\Generated_Source\PSoC4/RTC_I2C_MASTER.c **** *
 918:.\Generated_Source\PSoC4/RTC_I2C_MASTER.c **** *******************************************************************************/
 919:.\Generated_Source\PSoC4/RTC_I2C_MASTER.c **** uint32 RTC_I2CMasterClearStatus(void)
 920:.\Generated_Source\PSoC4/RTC_I2C_MASTER.c **** {
 771              		.loc 1 920 0
 772              		.cfi_startproc
 921:.\Generated_Source\PSoC4/RTC_I2C_MASTER.c ****     uint32 status;
 922:.\Generated_Source\PSoC4/RTC_I2C_MASTER.c **** 
 923:.\Generated_Source\PSoC4/RTC_I2C_MASTER.c ****     /* Read and clear master status */
 924:.\Generated_Source\PSoC4/RTC_I2C_MASTER.c ****     status = (uint32) RTC_mstrStatus;
 773              		.loc 1 924 0
 774 0000 024B     		ldr	r3, .L97
 925:.\Generated_Source\PSoC4/RTC_I2C_MASTER.c ****     RTC_mstrStatus = RTC_I2C_MSTAT_CLEAR;
 775              		.loc 1 925 0
 776 0002 0022     		mov	r2, #0
 924:.\Generated_Source\PSoC4/RTC_I2C_MASTER.c ****     status = (uint32) RTC_mstrStatus;
 777              		.loc 1 924 0
 778 0004 1888     		ldrh	r0, [r3]
 779              	.LVL59:
 926:.\Generated_Source\PSoC4/RTC_I2C_MASTER.c **** 
 927:.\Generated_Source\PSoC4/RTC_I2C_MASTER.c ****     return(status);
 928:.\Generated_Source\PSoC4/RTC_I2C_MASTER.c **** }
 780              		.loc 1 928 0
 781              		@ sp needed for prologue
 925:.\Generated_Source\PSoC4/RTC_I2C_MASTER.c ****     RTC_mstrStatus = RTC_I2C_MSTAT_CLEAR;
 782              		.loc 1 925 0
 783 0006 1A80     		strh	r2, [r3]
 784              		.loc 1 928 0
 785 0008 7047     		bx	lr
ARM GAS  C:\Users\Computer\AppData\Local\Temp\cc3MlAIb.s 			page 33


 786              	.L98:
 787 000a C046     		.align	2
 788              	.L97:
 789 000c 00000000 		.word	RTC_mstrStatus
 790              		.cfi_endproc
 791              	.LFE12:
 792              		.size	RTC_I2CMasterClearStatus, .-RTC_I2CMasterClearStatus
 793              		.section	.text.RTC_I2CReStartGeneration,"ax",%progbits
 794              		.align	2
 795              		.global	RTC_I2CReStartGeneration
 796              		.code	16
 797              		.thumb_func
 798              		.type	RTC_I2CReStartGeneration, %function
 799              	RTC_I2CReStartGeneration:
 800              	.LFB13:
 929:.\Generated_Source\PSoC4/RTC_I2C_MASTER.c **** 
 930:.\Generated_Source\PSoC4/RTC_I2C_MASTER.c **** 
 931:.\Generated_Source\PSoC4/RTC_I2C_MASTER.c **** 
 932:.\Generated_Source\PSoC4/RTC_I2C_MASTER.c **** /*******************************************************************************
 933:.\Generated_Source\PSoC4/RTC_I2C_MASTER.c **** * Function Name: RTC_I2CReStartWorkaround
 934:.\Generated_Source\PSoC4/RTC_I2C_MASTER.c **** ********************************************************************************
 935:.\Generated_Source\PSoC4/RTC_I2C_MASTER.c **** *
 936:.\Generated_Source\PSoC4/RTC_I2C_MASTER.c **** * Summary:
 937:.\Generated_Source\PSoC4/RTC_I2C_MASTER.c **** *  Generates ReStart condition:
 938:.\Generated_Source\PSoC4/RTC_I2C_MASTER.c **** *   1. write, Restart: when txfifo empty (use the INTR_TX.UNDERFLOW interrupt
 939:.\Generated_Source\PSoC4/RTC_I2C_MASTER.c **** *      to trigger), slave stretch SCL re-enable SCB and set I2C_M_CMD.START
 940:.\Generated_Source\PSoC4/RTC_I2C_MASTER.c **** *      (for SCB FSM, it is START; for external I2C bus, it is RESTART).
 941:.\Generated_Source\PSoC4/RTC_I2C_MASTER.c **** *
 942:.\Generated_Source\PSoC4/RTC_I2C_MASTER.c **** *   2. read, Restart: when expected data bytes received, SCL drives NACK
 943:.\Generated_Source\PSoC4/RTC_I2C_MASTER.c **** *      use GPIO mode of the pin. The SCL remain low while block re-enable
 944:.\Generated_Source\PSoC4/RTC_I2C_MASTER.c **** *      and set I2C_M_CMD.START. The SCL data register is chnged to 1 at the
 945:.\Generated_Source\PSoC4/RTC_I2C_MASTER.c **** *      end. (for SCB FSM, it is START; for external I2C bus, it is RESTART).
 946:.\Generated_Source\PSoC4/RTC_I2C_MASTER.c **** *
 947:.\Generated_Source\PSoC4/RTC_I2C_MASTER.c **** * Parameters:
 948:.\Generated_Source\PSoC4/RTC_I2C_MASTER.c **** *  None
 949:.\Generated_Source\PSoC4/RTC_I2C_MASTER.c **** *
 950:.\Generated_Source\PSoC4/RTC_I2C_MASTER.c **** * Return:
 951:.\Generated_Source\PSoC4/RTC_I2C_MASTER.c **** *  None
 952:.\Generated_Source\PSoC4/RTC_I2C_MASTER.c **** *
 953:.\Generated_Source\PSoC4/RTC_I2C_MASTER.c **** * Side Effects:
 954:.\Generated_Source\PSoC4/RTC_I2C_MASTER.c **** *  The NACK generation by GPIO causes greater SCL period.
 955:.\Generated_Source\PSoC4/RTC_I2C_MASTER.c **** *
 956:.\Generated_Source\PSoC4/RTC_I2C_MASTER.c **** * Note:
 957:.\Generated_Source\PSoC4/RTC_I2C_MASTER.c **** *  The SCB IP re-enable has no effect on master CMD_M_START.
 958:.\Generated_Source\PSoC4/RTC_I2C_MASTER.c **** *
 959:.\Generated_Source\PSoC4/RTC_I2C_MASTER.c **** *******************************************************************************/
 960:.\Generated_Source\PSoC4/RTC_I2C_MASTER.c **** void RTC_I2CReStartGeneration(void)
 961:.\Generated_Source\PSoC4/RTC_I2C_MASTER.c **** {
 801              		.loc 1 961 0
 802              		.cfi_startproc
 962:.\Generated_Source\PSoC4/RTC_I2C_MASTER.c ****     if(RTC_CHECK_I2C_STATUS(RTC_I2C_STATUS_M_READ))
 803              		.loc 1 962 0
 804 0000 234B     		ldr	r3, .L103
 961:.\Generated_Source\PSoC4/RTC_I2C_MASTER.c **** {
 805              		.loc 1 961 0
 806 0002 70B5     		push	{r4, r5, r6, lr}
 807              	.LCFI6:
ARM GAS  C:\Users\Computer\AppData\Local\Temp\cc3MlAIb.s 			page 34


 808              		.cfi_def_cfa_offset 16
 809              		.cfi_offset 4, -16
 810              		.cfi_offset 5, -12
 811              		.cfi_offset 6, -8
 812              		.cfi_offset 14, -4
 813              		.loc 1 962 0
 814 0004 1968     		ldr	r1, [r3]
 815              	.LBB4:
 816              	.LBB5:
 963:.\Generated_Source\PSoC4/RTC_I2C_MASTER.c ****     {
 964:.\Generated_Source\PSoC4/RTC_I2C_MASTER.c ****         RTC_SET_I2C_SCL_DR(RTC_I2C_SCL_LOW);
 817              		.loc 1 964 0
 818 0006 0020     		mov	r0, #0
 819              	.LBE5:
 820              	.LBE4:
 962:.\Generated_Source\PSoC4/RTC_I2C_MASTER.c ****     if(RTC_CHECK_I2C_STATUS(RTC_I2C_STATUS_M_READ))
 821              		.loc 1 962 0
 822 0008 8A06     		lsl	r2, r1, #26
 823 000a 12D4     		bmi	.L102
 965:.\Generated_Source\PSoC4/RTC_I2C_MASTER.c **** 
 966:.\Generated_Source\PSoC4/RTC_I2C_MASTER.c ****         /* Switch HSIOM to GPIO */
 967:.\Generated_Source\PSoC4/RTC_I2C_MASTER.c ****         RTC_SET_I2C_SCL_HSIOM_SEL(RTC_HSIOM_GPIO_SEL);
 968:.\Generated_Source\PSoC4/RTC_I2C_MASTER.c **** 
 969:.\Generated_Source\PSoC4/RTC_I2C_MASTER.c ****         /* Disable SCB block */
 970:.\Generated_Source\PSoC4/RTC_I2C_MASTER.c ****         RTC_CTRL_REG &= (uint32) ~RTC_CTRL_ENABLED;
 971:.\Generated_Source\PSoC4/RTC_I2C_MASTER.c **** 
 972:.\Generated_Source\PSoC4/RTC_I2C_MASTER.c ****         RTC_SET_I2C_SCL_DR(RTC_I2C_SCL_LOW);
 973:.\Generated_Source\PSoC4/RTC_I2C_MASTER.c ****         CyDelayUs(RTC_I2C_TLOW_TIME);  /* Count tHIGH */
 974:.\Generated_Source\PSoC4/RTC_I2C_MASTER.c **** 
 975:.\Generated_Source\PSoC4/RTC_I2C_MASTER.c ****         RTC_SET_I2C_SCL_DR(RTC_I2C_SCL_HIGH);
 976:.\Generated_Source\PSoC4/RTC_I2C_MASTER.c ****         CyDelayUs(RTC_I2C_THIGH_TIME); /* Count tHIGH */
 977:.\Generated_Source\PSoC4/RTC_I2C_MASTER.c **** 
 978:.\Generated_Source\PSoC4/RTC_I2C_MASTER.c ****         RTC_SET_I2C_SCL_DR(RTC_I2C_SCL_LOW);
 979:.\Generated_Source\PSoC4/RTC_I2C_MASTER.c ****         CyDelayUs(RTC_I2C_TLOW_TIME);  /* Count tLOW */
 980:.\Generated_Source\PSoC4/RTC_I2C_MASTER.c **** 
 981:.\Generated_Source\PSoC4/RTC_I2C_MASTER.c ****         /* Enable SCB block */
 982:.\Generated_Source\PSoC4/RTC_I2C_MASTER.c ****         RTC_CTRL_REG |= (uint32) RTC_CTRL_ENABLED;
 983:.\Generated_Source\PSoC4/RTC_I2C_MASTER.c **** 
 984:.\Generated_Source\PSoC4/RTC_I2C_MASTER.c ****         /* Switch HSIOM to I2C */
 985:.\Generated_Source\PSoC4/RTC_I2C_MASTER.c ****         RTC_SET_I2C_SCL_HSIOM_SEL(RTC_HSIOM_I2C_SEL);
 986:.\Generated_Source\PSoC4/RTC_I2C_MASTER.c **** 
 987:.\Generated_Source\PSoC4/RTC_I2C_MASTER.c ****         /* Set command for Start generation */
 988:.\Generated_Source\PSoC4/RTC_I2C_MASTER.c ****         RTC_I2C_MASTER_CMD_REG = RTC_I2C_MASTER_CMD_M_START;
 989:.\Generated_Source\PSoC4/RTC_I2C_MASTER.c **** 
 990:.\Generated_Source\PSoC4/RTC_I2C_MASTER.c ****         RTC_SET_I2C_SCL_DR(RTC_I2C_SCL_LOW);
 991:.\Generated_Source\PSoC4/RTC_I2C_MASTER.c ****     }
 992:.\Generated_Source\PSoC4/RTC_I2C_MASTER.c ****     else
 993:.\Generated_Source\PSoC4/RTC_I2C_MASTER.c ****     {
 994:.\Generated_Source\PSoC4/RTC_I2C_MASTER.c ****         RTC_SET_I2C_SCL_DR(RTC_I2C_SCL_LOW);
 824              		.loc 1 994 0
 825 000c FFF7FEFF 		bl	RTC_scl_Write
 826              	.LVL60:
 995:.\Generated_Source\PSoC4/RTC_I2C_MASTER.c **** 
 996:.\Generated_Source\PSoC4/RTC_I2C_MASTER.c ****         /* Re-enable SCB block: this resets part of functions */
 997:.\Generated_Source\PSoC4/RTC_I2C_MASTER.c ****         RTC_SCB_SW_RESET;
 827              		.loc 1 997 0
 828 0010 2048     		ldr	r0, .L103+4
ARM GAS  C:\Users\Computer\AppData\Local\Temp\cc3MlAIb.s 			page 35


 829 0012 8023     		mov	r3, #128
 830 0014 0268     		ldr	r2, [r0]
 831 0016 1906     		lsl	r1, r3, #24
 832 0018 5400     		lsl	r4, r2, #1
 833 001a 6508     		lsr	r5, r4, #1
 834 001c 0560     		str	r5, [r0]
 835 001e 0668     		ldr	r6, [r0]
 998:.\Generated_Source\PSoC4/RTC_I2C_MASTER.c **** 
 999:.\Generated_Source\PSoC4/RTC_I2C_MASTER.c ****         /* Generate ReStart when bus becomes IDLE: the SCB waits in HW until IDLE.
1000:.\Generated_Source\PSoC4/RTC_I2C_MASTER.c ****         * The START CMD is not effected by SCB IP re-enable.
1001:.\Generated_Source\PSoC4/RTC_I2C_MASTER.c ****         */
1002:.\Generated_Source\PSoC4/RTC_I2C_MASTER.c ****         RTC_I2C_MASTER_CMD_REG = RTC_I2C_MASTER_CMD_M_START;
 836              		.loc 1 1002 0
 837 0020 1D4A     		ldr	r2, .L103+8
 997:.\Generated_Source\PSoC4/RTC_I2C_MASTER.c ****         RTC_SCB_SW_RESET;
 838              		.loc 1 997 0
 839 0022 3143     		orr	r1, r6
 840 0024 0160     		str	r1, [r0]
 841              		.loc 1 1002 0
 842 0026 0120     		mov	r0, #1
 843 0028 1060     		str	r0, [r2]
1003:.\Generated_Source\PSoC4/RTC_I2C_MASTER.c **** 
1004:.\Generated_Source\PSoC4/RTC_I2C_MASTER.c ****         RTC_SET_I2C_SCL_DR(RTC_I2C_SCL_HIGH);
 844              		.loc 1 1004 0
 845 002a 0120     		mov	r0, #1
 846 002c FFF7FEFF 		bl	RTC_scl_Write
 847              	.LVL61:
 848              	.L99:
1005:.\Generated_Source\PSoC4/RTC_I2C_MASTER.c ****     }
1006:.\Generated_Source\PSoC4/RTC_I2C_MASTER.c **** }
 849              		.loc 1 1006 0
 850              		@ sp needed for prologue
 851 0030 70BD     		pop	{r4, r5, r6, pc}
 852              	.L102:
 853              	.LBB7:
 854              	.LBB6:
 967:.\Generated_Source\PSoC4/RTC_I2C_MASTER.c ****         RTC_SET_I2C_SCL_HSIOM_SEL(RTC_HSIOM_GPIO_SEL);
 855              		.loc 1 967 0
 856 0032 1A4C     		ldr	r4, .L103+12
 964:.\Generated_Source\PSoC4/RTC_I2C_MASTER.c ****         RTC_SET_I2C_SCL_DR(RTC_I2C_SCL_LOW);
 857              		.loc 1 964 0
 858 0034 FFF7FEFF 		bl	RTC_scl_Write
 859              	.LVL62:
 967:.\Generated_Source\PSoC4/RTC_I2C_MASTER.c ****         RTC_SET_I2C_SCL_HSIOM_SEL(RTC_HSIOM_GPIO_SEL);
 860              		.loc 1 967 0
 861 0038 2568     		ldr	r5, [r4]
 862 003a 0F26     		mov	r6, #15
 863 003c B543     		bic	r5, r6
 864 003e 2560     		str	r5, [r4]
 970:.\Generated_Source\PSoC4/RTC_I2C_MASTER.c ****         RTC_CTRL_REG &= (uint32) ~RTC_CTRL_ENABLED;
 865              		.loc 1 970 0
 866 0040 144D     		ldr	r5, .L103+4
 867 0042 2B68     		ldr	r3, [r5]
 868 0044 5900     		lsl	r1, r3, #1
 869 0046 4808     		lsr	r0, r1, #1
 870 0048 2860     		str	r0, [r5]
 972:.\Generated_Source\PSoC4/RTC_I2C_MASTER.c ****         RTC_SET_I2C_SCL_DR(RTC_I2C_SCL_LOW);
ARM GAS  C:\Users\Computer\AppData\Local\Temp\cc3MlAIb.s 			page 36


 871              		.loc 1 972 0
 872 004a 0020     		mov	r0, #0
 873 004c FFF7FEFF 		bl	RTC_scl_Write
 874              	.LVL63:
 973:.\Generated_Source\PSoC4/RTC_I2C_MASTER.c ****         CyDelayUs(RTC_I2C_TLOW_TIME);  /* Count tHIGH */
 875              		.loc 1 973 0
 876 0050 0A20     		mov	r0, #10
 877 0052 FFF7FEFF 		bl	CyDelayUs
 878              	.LVL64:
 975:.\Generated_Source\PSoC4/RTC_I2C_MASTER.c ****         RTC_SET_I2C_SCL_DR(RTC_I2C_SCL_HIGH);
 879              		.loc 1 975 0
 880 0056 0120     		mov	r0, #1
 881 0058 FFF7FEFF 		bl	RTC_scl_Write
 882              	.LVL65:
 976:.\Generated_Source\PSoC4/RTC_I2C_MASTER.c ****         CyDelayUs(RTC_I2C_THIGH_TIME); /* Count tHIGH */
 883              		.loc 1 976 0
 884 005c 0A20     		mov	r0, #10
 885 005e FFF7FEFF 		bl	CyDelayUs
 886              	.LVL66:
 978:.\Generated_Source\PSoC4/RTC_I2C_MASTER.c ****         RTC_SET_I2C_SCL_DR(RTC_I2C_SCL_LOW);
 887              		.loc 1 978 0
 888 0062 0020     		mov	r0, #0
 889 0064 FFF7FEFF 		bl	RTC_scl_Write
 890              	.LVL67:
 979:.\Generated_Source\PSoC4/RTC_I2C_MASTER.c ****         CyDelayUs(RTC_I2C_TLOW_TIME);  /* Count tLOW */
 891              		.loc 1 979 0
 892 0068 0A20     		mov	r0, #10
 893 006a FFF7FEFF 		bl	CyDelayUs
 894              	.LVL68:
 982:.\Generated_Source\PSoC4/RTC_I2C_MASTER.c ****         RTC_CTRL_REG |= (uint32) RTC_CTRL_ENABLED;
 895              		.loc 1 982 0
 896 006e 2A68     		ldr	r2, [r5]
 897 0070 8023     		mov	r3, #128
 898 0072 1906     		lsl	r1, r3, #24
 899 0074 1143     		orr	r1, r2
 900 0076 2960     		str	r1, [r5]
 985:.\Generated_Source\PSoC4/RTC_I2C_MASTER.c ****         RTC_SET_I2C_SCL_HSIOM_SEL(RTC_HSIOM_I2C_SEL);
 901              		.loc 1 985 0
 902 0078 2568     		ldr	r5, [r4]
 988:.\Generated_Source\PSoC4/RTC_I2C_MASTER.c ****         RTC_I2C_MASTER_CMD_REG = RTC_I2C_MASTER_CMD_M_START;
 903              		.loc 1 988 0
 904 007a 0748     		ldr	r0, .L103+8
 985:.\Generated_Source\PSoC4/RTC_I2C_MASTER.c ****         RTC_SET_I2C_SCL_HSIOM_SEL(RTC_HSIOM_I2C_SEL);
 905              		.loc 1 985 0
 906 007c B543     		bic	r5, r6
 907 007e 0E26     		mov	r6, #14
 908 0080 3543     		orr	r5, r6
 909 0082 2560     		str	r5, [r4]
 988:.\Generated_Source\PSoC4/RTC_I2C_MASTER.c ****         RTC_I2C_MASTER_CMD_REG = RTC_I2C_MASTER_CMD_M_START;
 910              		.loc 1 988 0
 911 0084 0124     		mov	r4, #1
 912 0086 0460     		str	r4, [r0]
 990:.\Generated_Source\PSoC4/RTC_I2C_MASTER.c ****         RTC_SET_I2C_SCL_DR(RTC_I2C_SCL_LOW);
 913              		.loc 1 990 0
 914 0088 0020     		mov	r0, #0
 915 008a FFF7FEFF 		bl	RTC_scl_Write
 916              	.LVL69:
ARM GAS  C:\Users\Computer\AppData\Local\Temp\cc3MlAIb.s 			page 37


 917 008e CFE7     		b	.L99
 918              	.L104:
 919              		.align	2
 920              	.L103:
 921 0090 64000640 		.word	1074135140
 922 0094 00000640 		.word	1074135040
 923 0098 68000640 		.word	1074135144
 924 009c 10000140 		.word	1073807376
 925              	.LBE6:
 926              	.LBE7:
 927              		.cfi_endproc
 928              	.LFE13:
 929              		.size	RTC_I2CReStartGeneration, .-RTC_I2CReStartGeneration
 930              		.section	.text.RTC_I2CMasterSendRestart,"ax",%progbits
 931              		.align	2
 932              		.global	RTC_I2CMasterSendRestart
 933              		.code	16
 934              		.thumb_func
 935              		.type	RTC_I2CMasterSendRestart, %function
 936              	RTC_I2CMasterSendRestart:
 937              	.LFB3:
 401:.\Generated_Source\PSoC4/RTC_I2C_MASTER.c **** {
 938              		.loc 1 401 0
 939              		.cfi_startproc
 940              	.LVL70:
 941 0000 38B5     		push	{r3, r4, r5, lr}
 942              	.LCFI7:
 943              		.cfi_def_cfa_offset 16
 944              		.cfi_offset 3, -16
 945              		.cfi_offset 4, -12
 946              		.cfi_offset 5, -8
 947              		.cfi_offset 14, -4
 409:.\Generated_Source\PSoC4/RTC_I2C_MASTER.c ****     if(RTC_CHECK_I2C_MASTER_ACTIVE)
 948              		.loc 1 409 0
 949 0002 274C     		ldr	r4, .L127
 405:.\Generated_Source\PSoC4/RTC_I2C_MASTER.c ****     errStatus        = RTC_I2C_MSTR_NOT_READY;
 950              		.loc 1 405 0
 951 0004 0425     		mov	r5, #4
 409:.\Generated_Source\PSoC4/RTC_I2C_MASTER.c ****     if(RTC_CHECK_I2C_MASTER_ACTIVE)
 952              		.loc 1 409 0
 953 0006 2378     		ldrb	r3, [r4]
 954 0008 9A06     		lsl	r2, r3, #26
 955 000a 01D4     		bmi	.L124
 956              	.LVL71:
 957              	.L119:
 488:.\Generated_Source\PSoC4/RTC_I2C_MASTER.c **** }
 958              		.loc 1 488 0
 959 000c 281C     		mov	r0, r5
 960              		@ sp needed for prologue
 961 000e 38BD     		pop	{r3, r4, r5, pc}
 962              	.LVL72:
 963              	.L124:
 411:.\Generated_Source\PSoC4/RTC_I2C_MASTER.c ****         slaveAddress = RTC_GET_I2C_8BIT_ADDRESS(slaveAddress);
 964              		.loc 1 411 0
 965 0010 4000     		lsl	r0, r0, #1
 966              	.LVL73:
 967 0012 FF25     		mov	r5, #255
ARM GAS  C:\Users\Computer\AppData\Local\Temp\cc3MlAIb.s 			page 38


 968 0014 0540     		and	r5, r0
 969              	.LVL74:
 413:.\Generated_Source\PSoC4/RTC_I2C_MASTER.c ****         if(0u == bitRnW) /* Write direction */
 970              		.loc 1 413 0
 971 0016 0029     		cmp	r1, #0
 972 0018 34D0     		beq	.L125
 419:.\Generated_Source\PSoC4/RTC_I2C_MASTER.c ****             RTC_state  = RTC_I2C_FSM_MSTR_RD_DATA;
 973              		.loc 1 419 0
 974 001a 2521     		mov	r1, #37
 975              	.LVL75:
 420:.\Generated_Source\PSoC4/RTC_I2C_MASTER.c ****                       slaveAddress |= RTC_I2C_READ_FLAG;
 976              		.loc 1 420 0
 977 001c 0122     		mov	r2, #1
 419:.\Generated_Source\PSoC4/RTC_I2C_MASTER.c ****             RTC_state  = RTC_I2C_FSM_MSTR_RD_DATA;
 978              		.loc 1 419 0
 979 001e 2170     		strb	r1, [r4]
 420:.\Generated_Source\PSoC4/RTC_I2C_MASTER.c ****                       slaveAddress |= RTC_I2C_READ_FLAG;
 980              		.loc 1 420 0
 981 0020 1543     		orr	r5, r2
 982              	.LVL76:
 983              	.L108:
 426:.\Generated_Source\PSoC4/RTC_I2C_MASTER.c ****         RTC_ClearMasterInterruptSource(RTC_INTR_MASTER_ALL);
 984              		.loc 1 426 0
 985 0022 2048     		ldr	r0, .L127+4
 986 0024 2049     		ldr	r1, .L127+8
 987 0026 0860     		str	r0, [r1]
 432:.\Generated_Source\PSoC4/RTC_I2C_MASTER.c ****         RTC_I2C_MASTER_GENERATE_RESTART;
 988              		.loc 1 432 0
 989 0028 FFF7FEFF 		bl	RTC_I2CReStartGeneration
 990              	.LVL77:
 434:.\Generated_Source\PSoC4/RTC_I2C_MASTER.c ****         while(RTC_CHECK_I2C_MASTER_CMD(RTC_I2C_MASTER_CMD_M_START))
 991              		.loc 1 434 0
 992 002c 1F48     		ldr	r0, .L127+12
 993 002e 0122     		mov	r2, #1
 994              	.L109:
 434:.\Generated_Source\PSoC4/RTC_I2C_MASTER.c ****         while(RTC_CHECK_I2C_MASTER_CMD(RTC_I2C_MASTER_CMD_M_START))
 995              		.loc 1 434 0 is_stmt 0 discriminator 1
 996 0030 0368     		ldr	r3, [r0]
 997 0032 1A42     		tst	r2, r3
 998 0034 FCD1     		bne	.L109
 440:.\Generated_Source\PSoC4/RTC_I2C_MASTER.c ****         RTC_TX_FIFO_WR_REG = slaveAddress;
 999              		.loc 1 440 0 is_stmt 1
 1000 0036 1E49     		ldr	r1, .L127+16
 443:.\Generated_Source\PSoC4/RTC_I2C_MASTER.c ****         while(!RTC_CHECK_INTR_MASTER(RTC_INTR_MASTER_I2C_ACK      |
 1001              		.loc 1 443 0
 1002 0038 1E48     		ldr	r0, .L127+20
 440:.\Generated_Source\PSoC4/RTC_I2C_MASTER.c ****         RTC_TX_FIFO_WR_REG = slaveAddress;
 1003              		.loc 1 440 0
 1004 003a 0D60     		str	r5, [r1]
 443:.\Generated_Source\PSoC4/RTC_I2C_MASTER.c ****         while(!RTC_CHECK_INTR_MASTER(RTC_INTR_MASTER_I2C_ACK      |
 1005              		.loc 1 443 0
 1006 003c 1A4D     		ldr	r5, .L127+8
 1007              	.LVL78:
 1008              	.L110:
 443:.\Generated_Source\PSoC4/RTC_I2C_MASTER.c ****         while(!RTC_CHECK_INTR_MASTER(RTC_INTR_MASTER_I2C_ACK      |
 1009              		.loc 1 443 0 is_stmt 0 discriminator 1
 1010 003e 2B68     		ldr	r3, [r5]
ARM GAS  C:\Users\Computer\AppData\Local\Temp\cc3MlAIb.s 			page 39


 1011 0040 194A     		ldr	r2, .L127+8
 1012 0042 0342     		tst	r3, r0
 1013 0044 FBD0     		beq	.L110
 452:.\Generated_Source\PSoC4/RTC_I2C_MASTER.c ****         if(RTC_CHECK_INTR_MASTER(RTC_INTR_MASTER_I2C_ACK))
 1014              		.loc 1 452 0 is_stmt 1
 1015 0046 1168     		ldr	r1, [r2]
 1016              	.LVL79:
 1017 0048 4907     		lsl	r1, r1, #29
 1018 004a 1ED4     		bmi	.L115
 456:.\Generated_Source\PSoC4/RTC_I2C_MASTER.c ****         else if(RTC_CHECK_INTR_MASTER(RTC_INTR_MASTER_I2C_NACK))
 1019              		.loc 1 456 0
 1020 004c 1568     		ldr	r5, [r2]
 1021 004e A907     		lsl	r1, r5, #30
 1022 0050 20D4     		bmi	.L116
 460:.\Generated_Source\PSoC4/RTC_I2C_MASTER.c ****         else if(RTC_CHECK_INTR_MASTER(RTC_INTR_MASTER_I2C_ARB_LOST))
 1023              		.loc 1 460 0
 1024 0052 1068     		ldr	r0, [r2]
 1025 0054 C207     		lsl	r2, r0, #31
 1026 0056 1FD4     		bmi	.L126
 468:.\Generated_Source\PSoC4/RTC_I2C_MASTER.c ****             RTC_state = RTC_I2C_FSM_IDLE;
 1027              		.loc 1 468 0
 1028 0058 1022     		mov	r2, #16
 1029 005a 2270     		strb	r2, [r4]
 1030              	.LVL80:
 469:.\Generated_Source\PSoC4/RTC_I2C_MASTER.c ****                          errStatus = RTC_I2C_MSTR_ERR_BUS_ERR;
 1031              		.loc 1 469 0
 1032 005c 8024     		mov	r4, #128
 1033 005e 6500     		lsl	r5, r4, #1
 1034              	.LVL81:
 1035              	.L113:
 473:.\Generated_Source\PSoC4/RTC_I2C_MASTER.c ****         RTC_ClearMasterInterruptSource(RTC_INTR_MASTER_I2C_ACK      |
 1036              		.loc 1 473 0
 1037 0060 1449     		ldr	r1, .L127+20
 1038 0062 1148     		ldr	r0, .L127+8
 482:.\Generated_Source\PSoC4/RTC_I2C_MASTER.c ****             RTC_SCB_SW_RESET;
 1039              		.loc 1 482 0
 1040 0064 144C     		ldr	r4, .L127+24
 473:.\Generated_Source\PSoC4/RTC_I2C_MASTER.c ****         RTC_ClearMasterInterruptSource(RTC_INTR_MASTER_I2C_ACK      |
 1041              		.loc 1 473 0
 1042 0066 0160     		str	r1, [r0]
 481:.\Generated_Source\PSoC4/RTC_I2C_MASTER.c ****             enableInterrupts = CyEnterCriticalSection();
 1043              		.loc 1 481 0
 1044 0068 FFF7FEFF 		bl	CyEnterCriticalSection
 1045              	.LVL82:
 482:.\Generated_Source\PSoC4/RTC_I2C_MASTER.c ****             RTC_SCB_SW_RESET;
 1046              		.loc 1 482 0
 1047 006c 2268     		ldr	r2, [r4]
 1048 006e 5300     		lsl	r3, r2, #1
 1049 0070 5908     		lsr	r1, r3, #1
 1050 0072 2160     		str	r1, [r4]
 1051 0074 2368     		ldr	r3, [r4]
 1052 0076 8022     		mov	r2, #128
 1053 0078 1106     		lsl	r1, r2, #24
 1054 007a 1943     		orr	r1, r3
 1055 007c 2160     		str	r1, [r4]
 483:.\Generated_Source\PSoC4/RTC_I2C_MASTER.c ****             CyExitCriticalSection(enableInterrupts);
 1056              		.loc 1 483 0
ARM GAS  C:\Users\Computer\AppData\Local\Temp\cc3MlAIb.s 			page 40


 1057 007e FFF7FEFF 		bl	CyExitCriticalSection
 1058              	.LVL83:
 1059 0082 C3E7     		b	.L119
 1060              	.LVL84:
 1061              	.L125:
 415:.\Generated_Source\PSoC4/RTC_I2C_MASTER.c ****             RTC_state = RTC_I2C_FSM_MSTR_WR_DATA;
 1062              		.loc 1 415 0
 1063 0084 2423     		mov	r3, #36
 1064 0086 2370     		strb	r3, [r4]
 1065 0088 CBE7     		b	.L108
 1066              	.LVL85:
 1067              	.L115:
 454:.\Generated_Source\PSoC4/RTC_I2C_MASTER.c ****             errStatus = RTC_I2C_MSTR_NO_ERROR;
 1068              		.loc 1 454 0
 1069 008a 0025     		mov	r5, #0
 1070              	.L111:
 1071              	.LVL86:
 473:.\Generated_Source\PSoC4/RTC_I2C_MASTER.c ****         RTC_ClearMasterInterruptSource(RTC_INTR_MASTER_I2C_ACK      |
 1072              		.loc 1 473 0
 1073 008c 0948     		ldr	r0, .L127+20
 1074 008e 064C     		ldr	r4, .L127+8
 1075 0090 2060     		str	r0, [r4]
 1076 0092 BBE7     		b	.L119
 1077              	.LVL87:
 1078              	.L116:
 458:.\Generated_Source\PSoC4/RTC_I2C_MASTER.c ****              errStatus = RTC_I2C_MSTR_ERR_LB_NAK;
 1079              		.loc 1 458 0
 1080 0094 0225     		mov	r5, #2
 1081 0096 F9E7     		b	.L111
 1082              	.L126:
 462:.\Generated_Source\PSoC4/RTC_I2C_MASTER.c ****             RTC_state = RTC_I2C_FSM_IDLE;
 1083              		.loc 1 462 0
 1084 0098 1023     		mov	r3, #16
 1085 009a 2370     		strb	r3, [r4]
 1086              	.LVL88:
 463:.\Generated_Source\PSoC4/RTC_I2C_MASTER.c ****                          errStatus = RTC_I2C_MSTR_ERR_ARB_LOST;
 1087              		.loc 1 463 0
 1088 009c 0125     		mov	r5, #1
 1089 009e DFE7     		b	.L113
 1090              	.L128:
 1091              		.align	2
 1092              	.L127:
 1093 00a0 00000000 		.word	RTC_state
 1094 00a4 17030000 		.word	791
 1095 00a8 000F0640 		.word	1074138880
 1096 00ac 68000640 		.word	1074135144
 1097 00b0 40020640 		.word	1074135616
 1098 00b4 07010000 		.word	263
 1099 00b8 00000640 		.word	1074135040
 1100              		.cfi_endproc
 1101              	.LFE3:
 1102              		.size	RTC_I2CMasterSendRestart, .-RTC_I2CMasterSendRestart
 1103              		.section	.text.RTC_I2CMasterReadBuf,"ax",%progbits
 1104              		.align	2
 1105              		.global	RTC_I2CMasterReadBuf
 1106              		.code	16
 1107              		.thumb_func
ARM GAS  C:\Users\Computer\AppData\Local\Temp\cc3MlAIb.s 			page 41


 1108              		.type	RTC_I2CMasterReadBuf, %function
 1109              	RTC_I2CMasterReadBuf:
 1110              	.LFB1:
 176:.\Generated_Source\PSoC4/RTC_I2C_MASTER.c **** {
 1111              		.loc 1 176 0
 1112              		.cfi_startproc
 1113              	.LVL89:
 1114 0000 F8B5     		push	{r3, r4, r5, r6, r7, lr}
 1115              	.LCFI8:
 1116              		.cfi_def_cfa_offset 24
 1117              		.cfi_offset 3, -24
 1118              		.cfi_offset 4, -20
 1119              		.cfi_offset 5, -16
 1120              		.cfi_offset 6, -12
 1121              		.cfi_offset 7, -8
 1122              		.cfi_offset 14, -4
 1123 0002 4F46     		mov	r7, r9
 1124 0004 4646     		mov	r6, r8
 1125 0006 C0B4     		push	{r6, r7}
 1126              	.LCFI9:
 1127              		.cfi_def_cfa_offset 32
 1128              		.cfi_offset 8, -32
 1129              		.cfi_offset 9, -28
 176:.\Generated_Source\PSoC4/RTC_I2C_MASTER.c **** {
 1130              		.loc 1 176 0
 1131 0008 8046     		mov	r8, r0
 1132 000a 0E1C     		mov	r6, r1
 1133 000c 9146     		mov	r9, r2
 1134 000e 1F1C     		mov	r7, r3
 181:.\Generated_Source\PSoC4/RTC_I2C_MASTER.c ****     if(NULL != rdData)
 1135              		.loc 1 181 0
 1136 0010 0029     		cmp	r1, #0
 1137 0012 0ED0     		beq	.L138
 184:.\Generated_Source\PSoC4/RTC_I2C_MASTER.c ****         if(RTC_CHECK_I2C_FSM_IDLE)
 1138              		.loc 1 184 0
 1139 0014 2B4D     		ldr	r5, .L147
 1140 0016 2978     		ldrb	r1, [r5]
 1141              	.LVL90:
 1142 0018 1029     		cmp	r1, #16
 1143 001a 49D0     		beq	.L143
 192:.\Generated_Source\PSoC4/RTC_I2C_MASTER.c ****         else if(RTC_CHECK_I2C_FSM_HALT)
 1144              		.loc 1 192 0
 1145 001c 2B78     		ldrb	r3, [r5]
 1146              	.LVL91:
 179:.\Generated_Source\PSoC4/RTC_I2C_MASTER.c ****     errStatus = RTC_I2C_MSTR_NOT_READY;
 1147              		.loc 1 179 0
 1148 001e 0424     		mov	r4, #4
 192:.\Generated_Source\PSoC4/RTC_I2C_MASTER.c ****         else if(RTC_CHECK_I2C_FSM_HALT)
 1149              		.loc 1 192 0
 1150 0020 602B     		cmp	r3, #96
 1151 0022 08D0     		beq	.L144
 1152              	.LVL92:
 1153              	.L135:
 245:.\Generated_Source\PSoC4/RTC_I2C_MASTER.c ****     RTC_SCB_IRQ_Enable();
 1154              		.loc 1 245 0
 1155 0024 FFF7FEFF 		bl	RTC_SCB_IRQ_Enable
 1156              	.LVL93:
ARM GAS  C:\Users\Computer\AppData\Local\Temp\cc3MlAIb.s 			page 42


 248:.\Generated_Source\PSoC4/RTC_I2C_MASTER.c **** }
 1157              		.loc 1 248 0
 1158              		@ sp needed for prologue
 1159 0028 201C     		mov	r0, r4
 1160              	.LVL94:
 1161 002a 0CBC     		pop	{r2, r3}
 1162 002c 9046     		mov	r8, r2
 1163 002e 9946     		mov	r9, r3
 1164 0030 F8BD     		pop	{r3, r4, r5, r6, r7, pc}
 1165              	.LVL95:
 1166              	.L138:
 179:.\Generated_Source\PSoC4/RTC_I2C_MASTER.c ****     errStatus = RTC_I2C_MSTR_NOT_READY;
 1167              		.loc 1 179 0
 1168 0032 0424     		mov	r4, #4
 1169 0034 F6E7     		b	.L135
 1170              	.LVL96:
 1171              	.L144:
 194:.\Generated_Source\PSoC4/RTC_I2C_MASTER.c ****             RTC_mstrStatus &= (uint16) ~RTC_I2C_MSTAT_XFER_HALT;
 1172              		.loc 1 194 0
 1173 0036 2448     		ldr	r0, .L147+4
 1174              	.LVL97:
 1175 0038 0824     		mov	r4, #8
 1176 003a 0288     		ldrh	r2, [r0]
 1177              	.LVL98:
 1178 003c A243     		bic	r2, r4
 1179 003e 0280     		strh	r2, [r0]
 1180              	.LVL99:
 1181              	.L132:
 207:.\Generated_Source\PSoC4/RTC_I2C_MASTER.c ****         RTC_state = RTC_I2C_FSM_MSTR_RD_ADDR;
 1182              		.loc 1 207 0
 1183 0040 2922     		mov	r2, #41
 208:.\Generated_Source\PSoC4/RTC_I2C_MASTER.c ****         RTC_mstrRdBufIndex = 0u;
 1184              		.loc 1 208 0
 1185 0042 224C     		ldr	r4, .L147+8
 207:.\Generated_Source\PSoC4/RTC_I2C_MASTER.c ****         RTC_state = RTC_I2C_FSM_MSTR_RD_ADDR;
 1186              		.loc 1 207 0
 1187 0044 2A70     		strb	r2, [r5]
 210:.\Generated_Source\PSoC4/RTC_I2C_MASTER.c ****         RTC_mstrRdBufPtr   = (volatile uint8 *) rdData;
 1188              		.loc 1 210 0
 1189 0046 224B     		ldr	r3, .L147+12
 208:.\Generated_Source\PSoC4/RTC_I2C_MASTER.c ****         RTC_mstrRdBufIndex = 0u;
 1190              		.loc 1 208 0
 1191 0048 0025     		mov	r5, #0
 1192 004a 2560     		str	r5, [r4]
 211:.\Generated_Source\PSoC4/RTC_I2C_MASTER.c ****         RTC_mstrControl    = (uint8) mode;
 1193              		.loc 1 211 0
 1194 004c 214A     		ldr	r2, .L147+16
 209:.\Generated_Source\PSoC4/RTC_I2C_MASTER.c ****         RTC_mstrRdBufSize  = cnt;
 1195              		.loc 1 209 0
 1196 004e 224C     		ldr	r4, .L147+20
 210:.\Generated_Source\PSoC4/RTC_I2C_MASTER.c ****         RTC_mstrRdBufPtr   = (volatile uint8 *) rdData;
 1197              		.loc 1 210 0
 1198 0050 1E60     		str	r6, [r3]
 209:.\Generated_Source\PSoC4/RTC_I2C_MASTER.c ****         RTC_mstrRdBufSize  = cnt;
 1199              		.loc 1 209 0
 1200 0052 4946     		mov	r1, r9
 211:.\Generated_Source\PSoC4/RTC_I2C_MASTER.c ****         RTC_mstrControl    = (uint8) mode;
ARM GAS  C:\Users\Computer\AppData\Local\Temp\cc3MlAIb.s 			page 43


 1201              		.loc 1 211 0
 1202 0054 FEB2     		uxtb	r6, r7
 1203              	.LVL100:
 209:.\Generated_Source\PSoC4/RTC_I2C_MASTER.c ****         RTC_mstrRdBufSize  = cnt;
 1204              		.loc 1 209 0
 1205 0056 2160     		str	r1, [r4]
 211:.\Generated_Source\PSoC4/RTC_I2C_MASTER.c ****         RTC_mstrControl    = (uint8) mode;
 1206              		.loc 1 211 0
 1207 0058 1670     		strb	r6, [r2]
 215:.\Generated_Source\PSoC4/RTC_I2C_MASTER.c ****         RTC_mstrStatus &= (uint16) ~RTC_I2C_MSTAT_RD_CMPLT;
 1208              		.loc 1 215 0
 1209 005a 0388     		ldrh	r3, [r0]
 213:.\Generated_Source\PSoC4/RTC_I2C_MASTER.c ****         slaveAddress = (RTC_GET_I2C_8BIT_ADDRESS(slaveAddress) | RTC_I2C_READ_FLAG);
 1210              		.loc 1 213 0
 1211 005c 0122     		mov	r2, #1
 1212 005e 4546     		mov	r5, r8
 215:.\Generated_Source\PSoC4/RTC_I2C_MASTER.c ****         RTC_mstrStatus &= (uint16) ~RTC_I2C_MSTAT_RD_CMPLT;
 1213              		.loc 1 215 0
 1214 0060 9343     		bic	r3, r2
 213:.\Generated_Source\PSoC4/RTC_I2C_MASTER.c ****         slaveAddress = (RTC_GET_I2C_8BIT_ADDRESS(slaveAddress) | RTC_I2C_READ_FLAG);
 1215              		.loc 1 213 0
 1216 0062 6900     		lsl	r1, r5, #1
 215:.\Generated_Source\PSoC4/RTC_I2C_MASTER.c ****         RTC_mstrStatus &= (uint16) ~RTC_I2C_MSTAT_RD_CMPLT;
 1217              		.loc 1 215 0
 1218 0064 0380     		strh	r3, [r0]
 213:.\Generated_Source\PSoC4/RTC_I2C_MASTER.c ****         slaveAddress = (RTC_GET_I2C_8BIT_ADDRESS(slaveAddress) | RTC_I2C_READ_FLAG);
 1219              		.loc 1 213 0
 1220 0066 FF26     		mov	r6, #255
 217:.\Generated_Source\PSoC4/RTC_I2C_MASTER.c ****         RTC_ClearMasterInterruptSource(RTC_INTR_MASTER_ALL);
 1221              		.loc 1 217 0
 1222 0068 1C48     		ldr	r0, .L147+24
 1223 006a 1D4D     		ldr	r5, .L147+28
 213:.\Generated_Source\PSoC4/RTC_I2C_MASTER.c ****         slaveAddress = (RTC_GET_I2C_8BIT_ADDRESS(slaveAddress) | RTC_I2C_READ_FLAG);
 1224              		.loc 1 213 0
 1225 006c 0E40     		and	r6, r1
 1226 006e 1643     		orr	r6, r2
 1227              	.LVL101:
 217:.\Generated_Source\PSoC4/RTC_I2C_MASTER.c ****         RTC_ClearMasterInterruptSource(RTC_INTR_MASTER_ALL);
 1228              		.loc 1 217 0
 1229 0070 2860     		str	r0, [r5]
 222:.\Generated_Source\PSoC4/RTC_I2C_MASTER.c ****         if(RTC_CHECK_I2C_MODE_RESTART(mode))
 1230              		.loc 1 222 0
 1231 0072 3A42     		tst	r2, r7
 1232 0074 17D1     		bne	.L145
 229:.\Generated_Source\PSoC4/RTC_I2C_MASTER.c ****             RTC_TX_FIFO_WR_REG = (slaveAddress);
 1233              		.loc 1 229 0
 1234 0076 1B4F     		ldr	r7, .L147+32
 1235              	.LVL102:
 230:.\Generated_Source\PSoC4/RTC_I2C_MASTER.c ****             RTC_I2C_MASTER_GENERATE_START;
 1236              		.loc 1 230 0
 1237 0078 0221     		mov	r1, #2
 229:.\Generated_Source\PSoC4/RTC_I2C_MASTER.c ****             RTC_TX_FIFO_WR_REG = (slaveAddress);
 1238              		.loc 1 229 0
 1239 007a 3E60     		str	r6, [r7]
 230:.\Generated_Source\PSoC4/RTC_I2C_MASTER.c ****             RTC_I2C_MASTER_GENERATE_START;
 1240              		.loc 1 230 0
 1241 007c 1A4E     		ldr	r6, .L147+36
ARM GAS  C:\Users\Computer\AppData\Local\Temp\cc3MlAIb.s 			page 44


 1242              	.LVL103:
 1243 007e 3160     		str	r1, [r6]
 1244              	.LVL104:
 1245              	.L133:
 234:.\Generated_Source\PSoC4/RTC_I2C_MASTER.c ****         if(RTC_mstrRdBufSize < RTC_I2C_FIFO_SIZE) /* Reading byte-by-byte */
 1246              		.loc 1 234 0
 1247 0080 2468     		ldr	r4, [r4]
 1248 0082 072C     		cmp	r4, #7
 1249 0084 0AD9     		bls	.L146
 240:.\Generated_Source\PSoC4/RTC_I2C_MASTER.c ****             RTC_ENABLE_MASTER_AUTO_DATA_ACK;
 1250              		.loc 1 240 0
 1251 0086 194B     		ldr	r3, .L147+40
 1252 0088 8025     		mov	r5, #128
 1253 008a 1868     		ldr	r0, [r3]
 1254 008c 6F00     		lsl	r7, r5, #1
 241:.\Generated_Source\PSoC4/RTC_I2C_MASTER.c ****             RTC_SetRxInterruptMode(RTC_INTR_RX_FULL);
 1255              		.loc 1 241 0
 1256 008e 184E     		ldr	r6, .L147+44
 240:.\Generated_Source\PSoC4/RTC_I2C_MASTER.c ****             RTC_ENABLE_MASTER_AUTO_DATA_ACK;
 1257              		.loc 1 240 0
 1258 0090 0743     		orr	r7, r0
 241:.\Generated_Source\PSoC4/RTC_I2C_MASTER.c ****             RTC_SetRxInterruptMode(RTC_INTR_RX_FULL);
 1259              		.loc 1 241 0
 1260 0092 0821     		mov	r1, #8
 240:.\Generated_Source\PSoC4/RTC_I2C_MASTER.c ****             RTC_ENABLE_MASTER_AUTO_DATA_ACK;
 1261              		.loc 1 240 0
 1262 0094 1F60     		str	r7, [r3]
 241:.\Generated_Source\PSoC4/RTC_I2C_MASTER.c ****             RTC_SetRxInterruptMode(RTC_INTR_RX_FULL);
 1263              		.loc 1 241 0
 1264 0096 0024     		mov	r4, #0
 1265 0098 3160     		str	r1, [r6]
 1266 009a C3E7     		b	.L135
 1267              	.L146:
 236:.\Generated_Source\PSoC4/RTC_I2C_MASTER.c ****             RTC_SetRxInterruptMode(RTC_INTR_RX_NOT_EMPTY);
 1268              		.loc 1 236 0
 1269 009c 144C     		ldr	r4, .L147+44
 1270 009e 0422     		mov	r2, #4
 1271 00a0 2260     		str	r2, [r4]
 1272 00a2 0024     		mov	r4, #0
 1273 00a4 BEE7     		b	.L135
 1274              	.LVL105:
 1275              	.L145:
 224:.\Generated_Source\PSoC4/RTC_I2C_MASTER.c ****             RTC_I2C_MASTER_GENERATE_RESTART;
 1276              		.loc 1 224 0
 1277 00a6 FFF7FEFF 		bl	RTC_I2CReStartGeneration
 1278              	.LVL106:
 225:.\Generated_Source\PSoC4/RTC_I2C_MASTER.c ****             RTC_TX_FIFO_WR_REG = (slaveAddress);
 1279              		.loc 1 225 0
 1280 00aa 0E4A     		ldr	r2, .L147+32
 1281 00ac 1660     		str	r6, [r2]
 1282 00ae E7E7     		b	.L133
 1283              	.LVL107:
 1284              	.L143:
 186:.\Generated_Source\PSoC4/RTC_I2C_MASTER.c ****             RTC_SCB_IRQ_Disable();
 1285              		.loc 1 186 0
 1286 00b0 FFF7FEFF 		bl	RTC_SCB_IRQ_Disable
 1287              	.LVL108:
ARM GAS  C:\Users\Computer\AppData\Local\Temp\cc3MlAIb.s 			page 45


 189:.\Generated_Source\PSoC4/RTC_I2C_MASTER.c ****             errStatus = RTC_CHECK_I2C_STATUS(RTC_I2C_STATUS_BUS_BUSY) ?
 1288              		.loc 1 189 0
 1289 00b4 0F49     		ldr	r1, .L147+48
 1290 00b6 0824     		mov	r4, #8
 1291 00b8 0B68     		ldr	r3, [r1]
 1292 00ba D907     		lsl	r1, r3, #31
 1293 00bc B2D4     		bmi	.L135
 1294 00be 0248     		ldr	r0, .L147+4
 1295 00c0 BEE7     		b	.L132
 1296              	.L148:
 1297 00c2 C046     		.align	2
 1298              	.L147:
 1299 00c4 00000000 		.word	RTC_state
 1300 00c8 00000000 		.word	RTC_mstrStatus
 1301 00cc 00000000 		.word	RTC_mstrRdBufIndex
 1302 00d0 00000000 		.word	RTC_mstrRdBufPtr
 1303 00d4 00000000 		.word	RTC_mstrControl
 1304 00d8 00000000 		.word	RTC_mstrRdBufSize
 1305 00dc 17030000 		.word	791
 1306 00e0 000F0640 		.word	1074138880
 1307 00e4 40020640 		.word	1074135616
 1308 00e8 68000640 		.word	1074135144
 1309 00ec 60000640 		.word	1074135136
 1310 00f0 C80F0640 		.word	1074139080
 1311 00f4 64000640 		.word	1074135140
 1312              		.cfi_endproc
 1313              	.LFE1:
 1314              		.size	RTC_I2CMasterReadBuf, .-RTC_I2CMasterReadBuf
 1315              		.section	.text.RTC_I2CMasterWriteBuf,"ax",%progbits
 1316              		.align	2
 1317              		.global	RTC_I2CMasterWriteBuf
 1318              		.code	16
 1319              		.thumb_func
 1320              		.type	RTC_I2CMasterWriteBuf, %function
 1321              	RTC_I2CMasterWriteBuf:
 1322              	.LFB0:
  75:.\Generated_Source\PSoC4/RTC_I2C_MASTER.c **** {
 1323              		.loc 1 75 0
 1324              		.cfi_startproc
 1325              	.LVL109:
 1326 0000 F8B5     		push	{r3, r4, r5, r6, r7, lr}
 1327              	.LCFI10:
 1328              		.cfi_def_cfa_offset 24
 1329              		.cfi_offset 3, -24
 1330              		.cfi_offset 4, -20
 1331              		.cfi_offset 5, -16
 1332              		.cfi_offset 6, -12
 1333              		.cfi_offset 7, -8
 1334              		.cfi_offset 14, -4
 1335 0002 4F46     		mov	r7, r9
 1336 0004 4646     		mov	r6, r8
 1337 0006 C0B4     		push	{r6, r7}
 1338              	.LCFI11:
 1339              		.cfi_def_cfa_offset 32
 1340              		.cfi_offset 8, -32
 1341              		.cfi_offset 9, -28
  75:.\Generated_Source\PSoC4/RTC_I2C_MASTER.c **** {
ARM GAS  C:\Users\Computer\AppData\Local\Temp\cc3MlAIb.s 			page 46


 1342              		.loc 1 75 0
 1343 0008 8046     		mov	r8, r0
 1344 000a 0E1C     		mov	r6, r1
 1345 000c 9146     		mov	r9, r2
 1346 000e 1F1C     		mov	r7, r3
  80:.\Generated_Source\PSoC4/RTC_I2C_MASTER.c ****     if(NULL != wrData)  /* Check buffer pointer */
 1347              		.loc 1 80 0
 1348 0010 0029     		cmp	r1, #0
 1349 0012 0ED0     		beq	.L157
  83:.\Generated_Source\PSoC4/RTC_I2C_MASTER.c ****         if(RTC_CHECK_I2C_FSM_IDLE)
 1350              		.loc 1 83 0
 1351 0014 254D     		ldr	r5, .L165
 1352 0016 2978     		ldrb	r1, [r5]
 1353              	.LVL110:
 1354 0018 1029     		cmp	r1, #16
 1355 001a 3ED0     		beq	.L162
  91:.\Generated_Source\PSoC4/RTC_I2C_MASTER.c ****         else if(RTC_CHECK_I2C_FSM_HALT)
 1356              		.loc 1 91 0
 1357 001c 2B78     		ldrb	r3, [r5]
 1358              	.LVL111:
  78:.\Generated_Source\PSoC4/RTC_I2C_MASTER.c ****     errStatus = RTC_I2C_MSTR_NOT_READY;
 1359              		.loc 1 78 0
 1360 001e 0424     		mov	r4, #4
  91:.\Generated_Source\PSoC4/RTC_I2C_MASTER.c ****         else if(RTC_CHECK_I2C_FSM_HALT)
 1361              		.loc 1 91 0
 1362 0020 602B     		cmp	r3, #96
 1363 0022 08D0     		beq	.L163
 1364              	.LVL112:
 1365              	.L154:
 138:.\Generated_Source\PSoC4/RTC_I2C_MASTER.c ****     RTC_SCB_IRQ_Enable();
 1366              		.loc 1 138 0
 1367 0024 FFF7FEFF 		bl	RTC_SCB_IRQ_Enable
 1368              	.LVL113:
 141:.\Generated_Source\PSoC4/RTC_I2C_MASTER.c **** }
 1369              		.loc 1 141 0
 1370              		@ sp needed for prologue
 1371 0028 201C     		mov	r0, r4
 1372              	.LVL114:
 1373 002a 0CBC     		pop	{r2, r3}
 1374 002c 9046     		mov	r8, r2
 1375 002e 9946     		mov	r9, r3
 1376 0030 F8BD     		pop	{r3, r4, r5, r6, r7, pc}
 1377              	.LVL115:
 1378              	.L157:
  78:.\Generated_Source\PSoC4/RTC_I2C_MASTER.c ****     errStatus = RTC_I2C_MSTR_NOT_READY;
 1379              		.loc 1 78 0
 1380 0032 0424     		mov	r4, #4
 1381 0034 F6E7     		b	.L154
 1382              	.LVL116:
 1383              	.L163:
  93:.\Generated_Source\PSoC4/RTC_I2C_MASTER.c ****             RTC_mstrStatus &= (uint16) ~RTC_I2C_MSTAT_XFER_HALT;
 1384              		.loc 1 93 0
 1385 0036 1E48     		ldr	r0, .L165+4
 1386              	.LVL117:
 1387 0038 0824     		mov	r4, #8
 1388 003a 0288     		ldrh	r2, [r0]
 1389              	.LVL118:
ARM GAS  C:\Users\Computer\AppData\Local\Temp\cc3MlAIb.s 			page 47


 1390 003c A243     		bic	r2, r4
 1391 003e 0280     		strh	r2, [r0]
 1392              	.LVL119:
 1393              	.L152:
 107:.\Generated_Source\PSoC4/RTC_I2C_MASTER.c ****         RTC_state = RTC_I2C_FSM_MSTR_WR_ADDR;
 1394              		.loc 1 107 0
 1395 0040 2822     		mov	r2, #40
 108:.\Generated_Source\PSoC4/RTC_I2C_MASTER.c ****         RTC_mstrWrBufIndexTmp = 0u;
 1396              		.loc 1 108 0
 1397 0042 1C4C     		ldr	r4, .L165+8
 109:.\Generated_Source\PSoC4/RTC_I2C_MASTER.c ****         RTC_mstrWrBufIndex    = 0u;
 1398              		.loc 1 109 0
 1399 0044 1C49     		ldr	r1, .L165+12
 107:.\Generated_Source\PSoC4/RTC_I2C_MASTER.c ****         RTC_state = RTC_I2C_FSM_MSTR_WR_ADDR;
 1400              		.loc 1 107 0
 1401 0046 2A70     		strb	r2, [r5]
 108:.\Generated_Source\PSoC4/RTC_I2C_MASTER.c ****         RTC_mstrWrBufIndexTmp = 0u;
 1402              		.loc 1 108 0
 1403 0048 0025     		mov	r5, #0
 1404 004a 2560     		str	r5, [r4]
 109:.\Generated_Source\PSoC4/RTC_I2C_MASTER.c ****         RTC_mstrWrBufIndex    = 0u;
 1405              		.loc 1 109 0
 1406 004c 0D60     		str	r5, [r1]
 111:.\Generated_Source\PSoC4/RTC_I2C_MASTER.c ****         RTC_mstrWrBufPtr      = (volatile uint8 *) wrData;
 1407              		.loc 1 111 0
 1408 004e 1B4D     		ldr	r5, .L165+16
 110:.\Generated_Source\PSoC4/RTC_I2C_MASTER.c ****         RTC_mstrWrBufSize     = cnt;
 1409              		.loc 1 110 0
 1410 0050 1B4B     		ldr	r3, .L165+20
 112:.\Generated_Source\PSoC4/RTC_I2C_MASTER.c ****         RTC_mstrControl       = (uint8) mode;
 1411              		.loc 1 112 0
 1412 0052 1C4C     		ldr	r4, .L165+24
 111:.\Generated_Source\PSoC4/RTC_I2C_MASTER.c ****         RTC_mstrWrBufPtr      = (volatile uint8 *) wrData;
 1413              		.loc 1 111 0
 1414 0054 2E60     		str	r6, [r5]
 110:.\Generated_Source\PSoC4/RTC_I2C_MASTER.c ****         RTC_mstrWrBufSize     = cnt;
 1415              		.loc 1 110 0
 1416 0056 4A46     		mov	r2, r9
 112:.\Generated_Source\PSoC4/RTC_I2C_MASTER.c ****         RTC_mstrControl       = (uint8) mode;
 1417              		.loc 1 112 0
 1418 0058 FEB2     		uxtb	r6, r7
 1419              	.LVL120:
 110:.\Generated_Source\PSoC4/RTC_I2C_MASTER.c ****         RTC_mstrWrBufSize     = cnt;
 1420              		.loc 1 110 0
 1421 005a 1A60     		str	r2, [r3]
 112:.\Generated_Source\PSoC4/RTC_I2C_MASTER.c ****         RTC_mstrControl       = (uint8) mode;
 1422              		.loc 1 112 0
 1423 005c 2670     		strb	r6, [r4]
 116:.\Generated_Source\PSoC4/RTC_I2C_MASTER.c ****         RTC_mstrStatus &= (uint16) ~RTC_I2C_MSTAT_WR_CMPLT;
 1424              		.loc 1 116 0
 1425 005e 0688     		ldrh	r6, [r0]
 114:.\Generated_Source\PSoC4/RTC_I2C_MASTER.c ****         slaveAddress = RTC_GET_I2C_8BIT_ADDRESS(slaveAddress);
 1426              		.loc 1 114 0
 1427 0060 4146     		mov	r1, r8
 116:.\Generated_Source\PSoC4/RTC_I2C_MASTER.c ****         RTC_mstrStatus &= (uint16) ~RTC_I2C_MSTAT_WR_CMPLT;
 1428              		.loc 1 116 0
 1429 0062 0222     		mov	r2, #2
ARM GAS  C:\Users\Computer\AppData\Local\Temp\cc3MlAIb.s 			page 48


 114:.\Generated_Source\PSoC4/RTC_I2C_MASTER.c ****         slaveAddress = RTC_GET_I2C_8BIT_ADDRESS(slaveAddress);
 1430              		.loc 1 114 0
 1431 0064 4B00     		lsl	r3, r1, #1
 1432 0066 FF25     		mov	r5, #255
 116:.\Generated_Source\PSoC4/RTC_I2C_MASTER.c ****         RTC_mstrStatus &= (uint16) ~RTC_I2C_MSTAT_WR_CMPLT;
 1433              		.loc 1 116 0
 1434 0068 9643     		bic	r6, r2
 1435 006a 0680     		strh	r6, [r0]
 114:.\Generated_Source\PSoC4/RTC_I2C_MASTER.c ****         slaveAddress = RTC_GET_I2C_8BIT_ADDRESS(slaveAddress);
 1436              		.loc 1 114 0
 1437 006c 1D40     		and	r5, r3
 1438              	.LVL121:
 118:.\Generated_Source\PSoC4/RTC_I2C_MASTER.c ****         RTC_ClearMasterInterruptSource(RTC_INTR_MASTER_ALL);
 1439              		.loc 1 118 0
 1440 006e 1648     		ldr	r0, .L165+28
 1441 0070 164C     		ldr	r4, .L165+32
 119:.\Generated_Source\PSoC4/RTC_I2C_MASTER.c ****         RTC_ClearTxInterruptSource(RTC_INTR_TX_UNDERFLOW);
 1442              		.loc 1 119 0
 1443 0072 174B     		ldr	r3, .L165+36
 1444 0074 4021     		mov	r1, #64
 118:.\Generated_Source\PSoC4/RTC_I2C_MASTER.c ****         RTC_ClearMasterInterruptSource(RTC_INTR_MASTER_ALL);
 1445              		.loc 1 118 0
 1446 0076 2060     		str	r0, [r4]
 119:.\Generated_Source\PSoC4/RTC_I2C_MASTER.c ****         RTC_ClearTxInterruptSource(RTC_INTR_TX_UNDERFLOW);
 1447              		.loc 1 119 0
 1448 0078 1960     		str	r1, [r3]
 123:.\Generated_Source\PSoC4/RTC_I2C_MASTER.c ****         if(RTC_CHECK_I2C_MODE_RESTART(mode))
 1449              		.loc 1 123 0
 1450 007a FB07     		lsl	r3, r7, #31
 1451 007c 08D4     		bmi	.L164
 130:.\Generated_Source\PSoC4/RTC_I2C_MASTER.c ****             RTC_TX_FIFO_WR_REG = slaveAddress;
 1452              		.loc 1 130 0
 1453 007e 154F     		ldr	r7, .L165+40
 1454              	.LVL122:
 1455 0080 3D60     		str	r5, [r7]
 131:.\Generated_Source\PSoC4/RTC_I2C_MASTER.c ****             RTC_I2C_MASTER_GENERATE_START;
 1456              		.loc 1 131 0
 1457 0082 154D     		ldr	r5, .L165+44
 1458              	.LVL123:
 1459 0084 2A60     		str	r2, [r5]
 1460              	.LVL124:
 1461              	.L153:
 135:.\Generated_Source\PSoC4/RTC_I2C_MASTER.c ****         RTC_SetTxInterruptMode(RTC_INTR_TX_UNDERFLOW);
 1462              		.loc 1 135 0
 1463 0086 1548     		ldr	r0, .L165+48
 1464 0088 4022     		mov	r2, #64
 1465 008a 0260     		str	r2, [r0]
 1466 008c 0024     		mov	r4, #0
 1467 008e C9E7     		b	.L154
 1468              	.LVL125:
 1469              	.L164:
 126:.\Generated_Source\PSoC4/RTC_I2C_MASTER.c ****             RTC_TX_FIFO_WR_REG = slaveAddress;
 1470              		.loc 1 126 0
 1471 0090 104E     		ldr	r6, .L165+40
 125:.\Generated_Source\PSoC4/RTC_I2C_MASTER.c ****             RTC_I2C_MASTER_GENERATE_RESTART;
 1472              		.loc 1 125 0
 1473 0092 FFF7FEFF 		bl	RTC_I2CReStartGeneration
ARM GAS  C:\Users\Computer\AppData\Local\Temp\cc3MlAIb.s 			page 49


 1474              	.LVL126:
 126:.\Generated_Source\PSoC4/RTC_I2C_MASTER.c ****             RTC_TX_FIFO_WR_REG = slaveAddress;
 1475              		.loc 1 126 0
 1476 0096 3560     		str	r5, [r6]
 1477 0098 F5E7     		b	.L153
 1478              	.LVL127:
 1479              	.L162:
  85:.\Generated_Source\PSoC4/RTC_I2C_MASTER.c ****             RTC_SCB_IRQ_Disable();
 1480              		.loc 1 85 0
 1481 009a FFF7FEFF 		bl	RTC_SCB_IRQ_Disable
 1482              	.LVL128:
  88:.\Generated_Source\PSoC4/RTC_I2C_MASTER.c ****             errStatus = RTC_CHECK_I2C_STATUS(RTC_I2C_STATUS_BUS_BUSY) ?
 1483              		.loc 1 88 0
 1484 009e 1049     		ldr	r1, .L165+52
 1485 00a0 0824     		mov	r4, #8
 1486 00a2 0B68     		ldr	r3, [r1]
 1487 00a4 D907     		lsl	r1, r3, #31
 1488 00a6 BDD4     		bmi	.L154
 1489 00a8 0148     		ldr	r0, .L165+4
 1490 00aa C9E7     		b	.L152
 1491              	.L166:
 1492              		.align	2
 1493              	.L165:
 1494 00ac 00000000 		.word	RTC_state
 1495 00b0 00000000 		.word	RTC_mstrStatus
 1496 00b4 00000000 		.word	RTC_mstrWrBufIndexTmp
 1497 00b8 00000000 		.word	RTC_mstrWrBufIndex
 1498 00bc 00000000 		.word	RTC_mstrWrBufPtr
 1499 00c0 00000000 		.word	RTC_mstrWrBufSize
 1500 00c4 00000000 		.word	RTC_mstrControl
 1501 00c8 17030000 		.word	791
 1502 00cc 000F0640 		.word	1074138880
 1503 00d0 800F0640 		.word	1074139008
 1504 00d4 40020640 		.word	1074135616
 1505 00d8 68000640 		.word	1074135144
 1506 00dc 880F0640 		.word	1074139016
 1507 00e0 64000640 		.word	1074135140
 1508              		.cfi_endproc
 1509              	.LFE0:
 1510              		.size	RTC_I2CMasterWriteBuf, .-RTC_I2CMasterWriteBuf
 1511              		.comm	RTC_mstrWrBufIndexTmp,4,4
 1512              		.comm	RTC_mstrWrBufIndex,4,4
 1513              		.comm	RTC_mstrWrBufSize,4,4
 1514              		.comm	RTC_mstrWrBufPtr,4,4
 1515              		.comm	RTC_mstrRdBufIndex,4,4
 1516              		.comm	RTC_mstrRdBufSize,4,4
 1517              		.comm	RTC_mstrRdBufPtr,4,4
 1518              		.comm	RTC_mstrControl,1,1
 1519              		.comm	RTC_mstrStatus,2,2
 1520              		.text
 1521              	.Letext0:
 1522              		.file 2 ".\\Generated_Source\\PSoC4\\cytypes.h"
 1523              		.file 3 ".\\Generated_Source\\PSoC4\\RTC_I2C_PVT.h"
 1524              		.file 4 ".\\Generated_Source\\PSoC4\\RTC_SCB_IRQ.h"
 1525              		.file 5 ".\\Generated_Source\\PSoC4\\CyLib.h"
 1526              		.file 6 ".\\Generated_Source\\PSoC4\\RTC_scl.h"
 1527              		.section	.debug_info,"",%progbits
ARM GAS  C:\Users\Computer\AppData\Local\Temp\cc3MlAIb.s 			page 50


 1528              	.Ldebug_info0:
 1529 0000 98060000 		.4byte	0x698
 1530 0004 0200     		.2byte	0x2
 1531 0006 00000000 		.4byte	.Ldebug_abbrev0
 1532 000a 04       		.byte	0x4
 1533 000b 01       		.uleb128 0x1
 1534 000c 8A030000 		.4byte	.LASF56
 1535 0010 01       		.byte	0x1
 1536 0011 50010000 		.4byte	.LASF57
 1537 0015 1A020000 		.4byte	.LASF58
 1538 0019 18000000 		.4byte	.Ldebug_ranges0+0x18
 1539 001d 00000000 		.4byte	0
 1540 0021 00000000 		.4byte	0
 1541 0025 00000000 		.4byte	.Ldebug_line0
 1542 0029 02       		.uleb128 0x2
 1543 002a 01       		.byte	0x1
 1544 002b 06       		.byte	0x6
 1545 002c 03040000 		.4byte	.LASF0
 1546 0030 02       		.uleb128 0x2
 1547 0031 01       		.byte	0x1
 1548 0032 08       		.byte	0x8
 1549 0033 F7000000 		.4byte	.LASF1
 1550 0037 02       		.uleb128 0x2
 1551 0038 02       		.byte	0x2
 1552 0039 05       		.byte	0x5
 1553 003a 64030000 		.4byte	.LASF2
 1554 003e 02       		.uleb128 0x2
 1555 003f 02       		.byte	0x2
 1556 0040 07       		.byte	0x7
 1557 0041 65000000 		.4byte	.LASF3
 1558 0045 02       		.uleb128 0x2
 1559 0046 04       		.byte	0x4
 1560 0047 05       		.byte	0x5
 1561 0048 E5030000 		.4byte	.LASF4
 1562 004c 02       		.uleb128 0x2
 1563 004d 04       		.byte	0x4
 1564 004e 07       		.byte	0x7
 1565 004f 38010000 		.4byte	.LASF5
 1566 0053 02       		.uleb128 0x2
 1567 0054 08       		.byte	0x8
 1568 0055 05       		.byte	0x5
 1569 0056 0E030000 		.4byte	.LASF6
 1570 005a 02       		.uleb128 0x2
 1571 005b 08       		.byte	0x8
 1572 005c 07       		.byte	0x7
 1573 005d C5000000 		.4byte	.LASF7
 1574 0061 03       		.uleb128 0x3
 1575 0062 04       		.byte	0x4
 1576 0063 05       		.byte	0x5
 1577 0064 696E7400 		.ascii	"int\000"
 1578 0068 02       		.uleb128 0x2
 1579 0069 04       		.byte	0x4
 1580 006a 07       		.byte	0x7
 1581 006b 6F020000 		.4byte	.LASF8
 1582 006f 04       		.uleb128 0x4
 1583 0070 4A010000 		.4byte	.LASF9
 1584 0074 02       		.byte	0x2
ARM GAS  C:\Users\Computer\AppData\Local\Temp\cc3MlAIb.s 			page 51


 1585 0075 5B       		.byte	0x5b
 1586 0076 30000000 		.4byte	0x30
 1587 007a 04       		.uleb128 0x4
 1588 007b 05020000 		.4byte	.LASF10
 1589 007f 02       		.byte	0x2
 1590 0080 5C       		.byte	0x5c
 1591 0081 3E000000 		.4byte	0x3e
 1592 0085 04       		.uleb128 0x4
 1593 0086 13020000 		.4byte	.LASF11
 1594 008a 02       		.byte	0x2
 1595 008b 5D       		.byte	0x5d
 1596 008c 4C000000 		.4byte	0x4c
 1597 0090 02       		.uleb128 0x2
 1598 0091 04       		.byte	0x4
 1599 0092 04       		.byte	0x4
 1600 0093 AB000000 		.4byte	.LASF12
 1601 0097 02       		.uleb128 0x2
 1602 0098 08       		.byte	0x8
 1603 0099 04       		.byte	0x4
 1604 009a E5010000 		.4byte	.LASF13
 1605 009e 02       		.uleb128 0x2
 1606 009f 01       		.byte	0x1
 1607 00a0 08       		.byte	0x8
 1608 00a1 26030000 		.4byte	.LASF14
 1609 00a5 05       		.uleb128 0x5
 1610 00a6 6F000000 		.4byte	0x6f
 1611 00aa 05       		.uleb128 0x5
 1612 00ab 7A000000 		.4byte	0x7a
 1613 00af 04       		.uleb128 0x4
 1614 00b0 EE030000 		.4byte	.LASF15
 1615 00b4 02       		.byte	0x2
 1616 00b5 F2       		.byte	0xf2
 1617 00b6 BA000000 		.4byte	0xba
 1618 00ba 05       		.uleb128 0x5
 1619 00bb 85000000 		.4byte	0x85
 1620 00bf 02       		.uleb128 0x2
 1621 00c0 04       		.byte	0x4
 1622 00c1 07       		.byte	0x7
 1623 00c2 05030000 		.4byte	.LASF16
 1624 00c6 06       		.uleb128 0x6
 1625 00c7 01       		.byte	0x1
 1626 00c8 CC010000 		.4byte	.LASF50
 1627 00cc 01       		.byte	0x1
 1628 00cd C003     		.2byte	0x3c0
 1629 00cf 01       		.byte	0x1
 1630 00d0 01       		.byte	0x1
 1631 00d1 07       		.uleb128 0x7
 1632 00d2 01       		.byte	0x1
 1633 00d3 58020000 		.4byte	.LASF21
 1634 00d7 01       		.byte	0x1
 1635 00d8 1101     		.2byte	0x111
 1636 00da 01       		.byte	0x1
 1637 00db 85000000 		.4byte	0x85
 1638 00df 00000000 		.4byte	.LFB2
 1639 00e3 D4000000 		.4byte	.LFE2
 1640 00e7 00000000 		.4byte	.LLST0
 1641 00eb 01       		.byte	0x1
ARM GAS  C:\Users\Computer\AppData\Local\Temp\cc3MlAIb.s 			page 52


 1642 00ec 4C010000 		.4byte	0x14c
 1643 00f0 08       		.uleb128 0x8
 1644 00f1 3E030000 		.4byte	.LASF17
 1645 00f5 01       		.byte	0x1
 1646 00f6 1101     		.2byte	0x111
 1647 00f8 85000000 		.4byte	0x85
 1648 00fc 2C000000 		.4byte	.LLST1
 1649 0100 08       		.uleb128 0x8
 1650 0101 EC010000 		.4byte	.LASF18
 1651 0105 01       		.byte	0x1
 1652 0106 1101     		.2byte	0x111
 1653 0108 85000000 		.4byte	0x85
 1654 010c A3000000 		.4byte	.LLST2
 1655 0110 09       		.uleb128 0x9
 1656 0111 AB010000 		.4byte	.LASF19
 1657 0115 01       		.byte	0x1
 1658 0116 1301     		.2byte	0x113
 1659 0118 85000000 		.4byte	0x85
 1660 011c 01010000 		.4byte	.LLST3
 1661 0120 09       		.uleb128 0x9
 1662 0121 00000000 		.4byte	.LASF20
 1663 0125 01       		.byte	0x1
 1664 0126 1401     		.2byte	0x114
 1665 0128 6F000000 		.4byte	0x6f
 1666 012c 69010000 		.4byte	.LLST4
 1667 0130 0A       		.uleb128 0xa
 1668 0131 32000000 		.4byte	.LVL6
 1669 0135 3D060000 		.4byte	0x63d
 1670 0139 0A       		.uleb128 0xa
 1671 013a 7A000000 		.4byte	.LVL13
 1672 013e 47060000 		.4byte	0x647
 1673 0142 0A       		.uleb128 0xa
 1674 0143 90000000 		.4byte	.LVL14
 1675 0147 55060000 		.4byte	0x655
 1676 014b 00       		.byte	0
 1677 014c 07       		.uleb128 0x7
 1678 014d 01       		.byte	0x1
 1679 014e 7A010000 		.4byte	.LASF22
 1680 0152 01       		.byte	0x1
 1681 0153 0102     		.2byte	0x201
 1682 0155 01       		.byte	0x1
 1683 0156 85000000 		.4byte	0x85
 1684 015a 00000000 		.4byte	.LFB4
 1685 015e 8C000000 		.4byte	.LFE4
 1686 0162 B8010000 		.4byte	.LLST5
 1687 0166 01       		.byte	0x1
 1688 0167 9E010000 		.4byte	0x19e
 1689 016b 09       		.uleb128 0x9
 1690 016c AB010000 		.4byte	.LASF19
 1691 0170 01       		.byte	0x1
 1692 0171 0302     		.2byte	0x203
 1693 0173 85000000 		.4byte	0x85
 1694 0177 D8010000 		.4byte	.LLST6
 1695 017b 09       		.uleb128 0x9
 1696 017c 00000000 		.4byte	.LASF20
 1697 0180 01       		.byte	0x1
 1698 0181 0402     		.2byte	0x204
ARM GAS  C:\Users\Computer\AppData\Local\Temp\cc3MlAIb.s 			page 53


 1699 0183 6F000000 		.4byte	0x6f
 1700 0187 1B020000 		.4byte	.LLST7
 1701 018b 0A       		.uleb128 0xa
 1702 018c 48000000 		.4byte	.LVL26
 1703 0190 47060000 		.4byte	0x647
 1704 0194 0A       		.uleb128 0xa
 1705 0195 60000000 		.4byte	.LVL27
 1706 0199 55060000 		.4byte	0x655
 1707 019d 00       		.byte	0
 1708 019e 07       		.uleb128 0x7
 1709 019f 01       		.byte	0x1
 1710 01a0 B5010000 		.4byte	.LASF23
 1711 01a4 01       		.byte	0x1
 1712 01a5 5B02     		.2byte	0x25b
 1713 01a7 01       		.byte	0x1
 1714 01a8 85000000 		.4byte	0x85
 1715 01ac 00000000 		.4byte	.LFB5
 1716 01b0 90000000 		.4byte	.LFE5
 1717 01b4 5E020000 		.4byte	.LLST8
 1718 01b8 01       		.byte	0x1
 1719 01b9 00020000 		.4byte	0x200
 1720 01bd 08       		.uleb128 0x8
 1721 01be 6E030000 		.4byte	.LASF24
 1722 01c2 01       		.byte	0x1
 1723 01c3 5B02     		.2byte	0x25b
 1724 01c5 85000000 		.4byte	0x85
 1725 01c9 7E020000 		.4byte	.LLST9
 1726 01cd 09       		.uleb128 0x9
 1727 01ce AB010000 		.4byte	.LASF19
 1728 01d2 01       		.byte	0x1
 1729 01d3 5D02     		.2byte	0x25d
 1730 01d5 85000000 		.4byte	0x85
 1731 01d9 E2020000 		.4byte	.LLST10
 1732 01dd 09       		.uleb128 0x9
 1733 01de 00000000 		.4byte	.LASF20
 1734 01e2 01       		.byte	0x1
 1735 01e3 5E02     		.2byte	0x25e
 1736 01e5 6F000000 		.4byte	0x6f
 1737 01e9 6E030000 		.4byte	.LLST11
 1738 01ed 0A       		.uleb128 0xa
 1739 01ee 5C000000 		.4byte	.LVL42
 1740 01f2 47060000 		.4byte	0x647
 1741 01f6 0A       		.uleb128 0xa
 1742 01f7 72000000 		.4byte	.LVL43
 1743 01fb 55060000 		.4byte	0x655
 1744 01ff 00       		.byte	0
 1745 0200 07       		.uleb128 0x7
 1746 0201 01       		.byte	0x1
 1747 0202 4F000000 		.4byte	.LASF25
 1748 0206 01       		.byte	0x1
 1749 0207 BD02     		.2byte	0x2bd
 1750 0209 01       		.byte	0x1
 1751 020a 85000000 		.4byte	0x85
 1752 020e 00000000 		.4byte	.LFB6
 1753 0212 90000000 		.4byte	.LFE6
 1754 0216 BD030000 		.4byte	.LLST12
 1755 021a 01       		.byte	0x1
ARM GAS  C:\Users\Computer\AppData\Local\Temp\cc3MlAIb.s 			page 54


 1756 021b 62020000 		.4byte	0x262
 1757 021f 08       		.uleb128 0x8
 1758 0220 90010000 		.4byte	.LASF26
 1759 0224 01       		.byte	0x1
 1760 0225 BD02     		.2byte	0x2bd
 1761 0227 85000000 		.4byte	0x85
 1762 022b DD030000 		.4byte	.LLST13
 1763 022f 09       		.uleb128 0x9
 1764 0230 6E030000 		.4byte	.LASF24
 1765 0234 01       		.byte	0x1
 1766 0235 BF02     		.2byte	0x2bf
 1767 0237 85000000 		.4byte	0x85
 1768 023b 38040000 		.4byte	.LLST14
 1769 023f 09       		.uleb128 0x9
 1770 0240 00000000 		.4byte	.LASF20
 1771 0244 01       		.byte	0x1
 1772 0245 C002     		.2byte	0x2c0
 1773 0247 6F000000 		.4byte	0x6f
 1774 024b 88040000 		.4byte	.LLST15
 1775 024f 0A       		.uleb128 0xa
 1776 0250 4E000000 		.4byte	.LVL54
 1777 0254 47060000 		.4byte	0x647
 1778 0258 0A       		.uleb128 0xa
 1779 0259 64000000 		.4byte	.LVL55
 1780 025d 55060000 		.4byte	0x655
 1781 0261 00       		.byte	0
 1782 0262 0B       		.uleb128 0xb
 1783 0263 01       		.byte	0x1
 1784 0264 E4020000 		.4byte	.LASF27
 1785 0268 01       		.byte	0x1
 1786 0269 1103     		.2byte	0x311
 1787 026b 01       		.byte	0x1
 1788 026c 85000000 		.4byte	0x85
 1789 0270 00000000 		.4byte	.LFB7
 1790 0274 0C000000 		.4byte	.LFE7
 1791 0278 02       		.byte	0x2
 1792 0279 7D       		.byte	0x7d
 1793 027a 00       		.sleb128 0
 1794 027b 01       		.byte	0x1
 1795 027c 0B       		.uleb128 0xb
 1796 027d 01       		.byte	0x1
 1797 027e 8E000000 		.4byte	.LASF28
 1798 0282 01       		.byte	0x1
 1799 0283 2B03     		.2byte	0x32b
 1800 0285 01       		.byte	0x1
 1801 0286 85000000 		.4byte	0x85
 1802 028a 00000000 		.4byte	.LFB8
 1803 028e 0C000000 		.4byte	.LFE8
 1804 0292 02       		.byte	0x2
 1805 0293 7D       		.byte	0x7d
 1806 0294 00       		.sleb128 0
 1807 0295 01       		.byte	0x1
 1808 0296 0C       		.uleb128 0xc
 1809 0297 01       		.byte	0x1
 1810 0298 1E010000 		.4byte	.LASF29
 1811 029c 01       		.byte	0x1
 1812 029d 4403     		.2byte	0x344
ARM GAS  C:\Users\Computer\AppData\Local\Temp\cc3MlAIb.s 			page 55


 1813 029f 01       		.byte	0x1
 1814 02a0 00000000 		.4byte	.LFB9
 1815 02a4 1C000000 		.4byte	.LFE9
 1816 02a8 02       		.byte	0x2
 1817 02a9 7D       		.byte	0x7d
 1818 02aa 00       		.sleb128 0
 1819 02ab 01       		.byte	0x1
 1820 02ac 0C       		.uleb128 0xc
 1821 02ad 01       		.byte	0x1
 1822 02ae DC000000 		.4byte	.LASF30
 1823 02b2 01       		.byte	0x1
 1824 02b3 5E03     		.2byte	0x35e
 1825 02b5 01       		.byte	0x1
 1826 02b6 00000000 		.4byte	.LFB10
 1827 02ba 1C000000 		.4byte	.LFE10
 1828 02be 02       		.byte	0x2
 1829 02bf 7D       		.byte	0x7d
 1830 02c0 00       		.sleb128 0
 1831 02c1 01       		.byte	0x1
 1832 02c2 07       		.uleb128 0x7
 1833 02c3 01       		.byte	0x1
 1834 02c4 B1000000 		.4byte	.LASF31
 1835 02c8 01       		.byte	0x1
 1836 02c9 7603     		.2byte	0x376
 1837 02cb 01       		.byte	0x1
 1838 02cc 85000000 		.4byte	0x85
 1839 02d0 00000000 		.4byte	.LFB11
 1840 02d4 1C000000 		.4byte	.LFE11
 1841 02d8 9B040000 		.4byte	.LLST16
 1842 02dc 01       		.byte	0x1
 1843 02dd F2020000 		.4byte	0x2f2
 1844 02e1 09       		.uleb128 0x9
 1845 02e2 26000000 		.4byte	.LASF32
 1846 02e6 01       		.byte	0x1
 1847 02e7 7803     		.2byte	0x378
 1848 02e9 85000000 		.4byte	0x85
 1849 02ed BB040000 		.4byte	.LLST17
 1850 02f1 00       		.byte	0
 1851 02f2 0D       		.uleb128 0xd
 1852 02f3 01       		.byte	0x1
 1853 02f4 05010000 		.4byte	.LASF33
 1854 02f8 01       		.byte	0x1
 1855 02f9 9703     		.2byte	0x397
 1856 02fb 01       		.byte	0x1
 1857 02fc 85000000 		.4byte	0x85
 1858 0300 00000000 		.4byte	.LFB12
 1859 0304 10000000 		.4byte	.LFE12
 1860 0308 02       		.byte	0x2
 1861 0309 7D       		.byte	0x7d
 1862 030a 00       		.sleb128 0
 1863 030b 01       		.byte	0x1
 1864 030c 25030000 		.4byte	0x325
 1865 0310 0E       		.uleb128 0xe
 1866 0311 26000000 		.4byte	.LASF32
 1867 0315 01       		.byte	0x1
 1868 0316 9903     		.2byte	0x399
 1869 0318 85000000 		.4byte	0x85
ARM GAS  C:\Users\Computer\AppData\Local\Temp\cc3MlAIb.s 			page 56


 1870 031c 07       		.byte	0x7
 1871 031d 70       		.byte	0x70
 1872 031e 00       		.sleb128 0
 1873 031f 0A       		.byte	0xa
 1874 0320 FFFF     		.2byte	0xffff
 1875 0322 1A       		.byte	0x1a
 1876 0323 9F       		.byte	0x9f
 1877 0324 00       		.byte	0
 1878 0325 0F       		.uleb128 0xf
 1879 0326 C6000000 		.4byte	0xc6
 1880 032a 00000000 		.4byte	.LFB13
 1881 032e A0000000 		.4byte	.LFE13
 1882 0332 DF040000 		.4byte	.LLST18
 1883 0336 01       		.byte	0x1
 1884 0337 FD030000 		.4byte	0x3fd
 1885 033b 10       		.uleb128 0x10
 1886 033c C6000000 		.4byte	0xc6
 1887 0340 06000000 		.4byte	.LBB4
 1888 0344 00000000 		.4byte	.Ldebug_ranges0+0
 1889 0348 01       		.byte	0x1
 1890 0349 C003     		.2byte	0x3c0
 1891 034b DA030000 		.4byte	0x3da
 1892 034f 0A       		.uleb128 0xa
 1893 0350 38000000 		.4byte	.LVL62
 1894 0354 69060000 		.4byte	0x669
 1895 0358 11       		.uleb128 0x11
 1896 0359 50000000 		.4byte	.LVL63
 1897 035d 69060000 		.4byte	0x669
 1898 0361 6B030000 		.4byte	0x36b
 1899 0365 12       		.uleb128 0x12
 1900 0366 01       		.byte	0x1
 1901 0367 50       		.byte	0x50
 1902 0368 01       		.byte	0x1
 1903 0369 30       		.byte	0x30
 1904 036a 00       		.byte	0
 1905 036b 11       		.uleb128 0x11
 1906 036c 56000000 		.4byte	.LVL64
 1907 0370 7D060000 		.4byte	0x67d
 1908 0374 7E030000 		.4byte	0x37e
 1909 0378 12       		.uleb128 0x12
 1910 0379 01       		.byte	0x1
 1911 037a 50       		.byte	0x50
 1912 037b 01       		.byte	0x1
 1913 037c 3A       		.byte	0x3a
 1914 037d 00       		.byte	0
 1915 037e 11       		.uleb128 0x11
 1916 037f 5C000000 		.4byte	.LVL65
 1917 0383 69060000 		.4byte	0x669
 1918 0387 91030000 		.4byte	0x391
 1919 038b 12       		.uleb128 0x12
 1920 038c 01       		.byte	0x1
 1921 038d 50       		.byte	0x50
 1922 038e 01       		.byte	0x1
 1923 038f 31       		.byte	0x31
 1924 0390 00       		.byte	0
 1925 0391 11       		.uleb128 0x11
 1926 0392 62000000 		.4byte	.LVL66
ARM GAS  C:\Users\Computer\AppData\Local\Temp\cc3MlAIb.s 			page 57


 1927 0396 7D060000 		.4byte	0x67d
 1928 039a A4030000 		.4byte	0x3a4
 1929 039e 12       		.uleb128 0x12
 1930 039f 01       		.byte	0x1
 1931 03a0 50       		.byte	0x50
 1932 03a1 01       		.byte	0x1
 1933 03a2 3A       		.byte	0x3a
 1934 03a3 00       		.byte	0
 1935 03a4 11       		.uleb128 0x11
 1936 03a5 68000000 		.4byte	.LVL67
 1937 03a9 69060000 		.4byte	0x669
 1938 03ad B7030000 		.4byte	0x3b7
 1939 03b1 12       		.uleb128 0x12
 1940 03b2 01       		.byte	0x1
 1941 03b3 50       		.byte	0x50
 1942 03b4 01       		.byte	0x1
 1943 03b5 30       		.byte	0x30
 1944 03b6 00       		.byte	0
 1945 03b7 11       		.uleb128 0x11
 1946 03b8 6E000000 		.4byte	.LVL68
 1947 03bc 7D060000 		.4byte	0x67d
 1948 03c0 CA030000 		.4byte	0x3ca
 1949 03c4 12       		.uleb128 0x12
 1950 03c5 01       		.byte	0x1
 1951 03c6 50       		.byte	0x50
 1952 03c7 01       		.byte	0x1
 1953 03c8 3A       		.byte	0x3a
 1954 03c9 00       		.byte	0
 1955 03ca 13       		.uleb128 0x13
 1956 03cb 8E000000 		.4byte	.LVL69
 1957 03cf 69060000 		.4byte	0x669
 1958 03d3 12       		.uleb128 0x12
 1959 03d4 01       		.byte	0x1
 1960 03d5 50       		.byte	0x50
 1961 03d6 01       		.byte	0x1
 1962 03d7 30       		.byte	0x30
 1963 03d8 00       		.byte	0
 1964 03d9 00       		.byte	0
 1965 03da 11       		.uleb128 0x11
 1966 03db 10000000 		.4byte	.LVL60
 1967 03df 69060000 		.4byte	0x669
 1968 03e3 ED030000 		.4byte	0x3ed
 1969 03e7 12       		.uleb128 0x12
 1970 03e8 01       		.byte	0x1
 1971 03e9 50       		.byte	0x50
 1972 03ea 01       		.byte	0x1
 1973 03eb 30       		.byte	0x30
 1974 03ec 00       		.byte	0
 1975 03ed 13       		.uleb128 0x13
 1976 03ee 30000000 		.4byte	.LVL61
 1977 03f2 69060000 		.4byte	0x669
 1978 03f6 12       		.uleb128 0x12
 1979 03f7 01       		.byte	0x1
 1980 03f8 50       		.byte	0x50
 1981 03f9 01       		.byte	0x1
 1982 03fa 31       		.byte	0x31
 1983 03fb 00       		.byte	0
ARM GAS  C:\Users\Computer\AppData\Local\Temp\cc3MlAIb.s 			page 58


 1984 03fc 00       		.byte	0
 1985 03fd 07       		.uleb128 0x7
 1986 03fe 01       		.byte	0x1
 1987 03ff 4B030000 		.4byte	.LASF34
 1988 0403 01       		.byte	0x1
 1989 0404 9001     		.2byte	0x190
 1990 0406 01       		.byte	0x1
 1991 0407 85000000 		.4byte	0x85
 1992 040b 00000000 		.4byte	.LFB3
 1993 040f BC000000 		.4byte	.LFE3
 1994 0413 FF040000 		.4byte	.LLST19
 1995 0417 01       		.byte	0x1
 1996 0418 78040000 		.4byte	0x478
 1997 041c 08       		.uleb128 0x8
 1998 041d 3E030000 		.4byte	.LASF17
 1999 0421 01       		.byte	0x1
 2000 0422 9001     		.2byte	0x190
 2001 0424 85000000 		.4byte	0x85
 2002 0428 1F050000 		.4byte	.LLST20
 2003 042c 08       		.uleb128 0x8
 2004 042d EC010000 		.4byte	.LASF18
 2005 0431 01       		.byte	0x1
 2006 0432 9001     		.2byte	0x190
 2007 0434 85000000 		.4byte	0x85
 2008 0438 8B050000 		.4byte	.LLST21
 2009 043c 09       		.uleb128 0x9
 2010 043d AB010000 		.4byte	.LASF19
 2011 0441 01       		.byte	0x1
 2012 0442 9201     		.2byte	0x192
 2013 0444 85000000 		.4byte	0x85
 2014 0448 DE050000 		.4byte	.LLST22
 2015 044c 09       		.uleb128 0x9
 2016 044d 00000000 		.4byte	.LASF20
 2017 0451 01       		.byte	0x1
 2018 0452 9301     		.2byte	0x193
 2019 0454 6F000000 		.4byte	0x6f
 2020 0458 46060000 		.4byte	.LLST23
 2021 045c 0A       		.uleb128 0xa
 2022 045d 2C000000 		.4byte	.LVL77
 2023 0461 C6000000 		.4byte	0xc6
 2024 0465 0A       		.uleb128 0xa
 2025 0466 6C000000 		.4byte	.LVL82
 2026 046a 47060000 		.4byte	0x647
 2027 046e 0A       		.uleb128 0xa
 2028 046f 82000000 		.4byte	.LVL83
 2029 0473 55060000 		.4byte	0x655
 2030 0477 00       		.byte	0
 2031 0478 14       		.uleb128 0x14
 2032 0479 01       		.byte	0x1
 2033 047a 11000000 		.4byte	.LASF35
 2034 047e 01       		.byte	0x1
 2035 047f AF       		.byte	0xaf
 2036 0480 01       		.byte	0x1
 2037 0481 85000000 		.4byte	0x85
 2038 0485 00000000 		.4byte	.LFB1
 2039 0489 F8000000 		.4byte	.LFE1
 2040 048d 95060000 		.4byte	.LLST24
ARM GAS  C:\Users\Computer\AppData\Local\Temp\cc3MlAIb.s 			page 59


 2041 0491 01       		.byte	0x1
 2042 0492 FD040000 		.4byte	0x4fd
 2043 0496 15       		.uleb128 0x15
 2044 0497 3E030000 		.4byte	.LASF17
 2045 049b 01       		.byte	0x1
 2046 049c AF       		.byte	0xaf
 2047 049d 85000000 		.4byte	0x85
 2048 04a1 C1060000 		.4byte	.LLST25
 2049 04a5 15       		.uleb128 0x15
 2050 04a6 0C020000 		.4byte	.LASF36
 2051 04aa 01       		.byte	0x1
 2052 04ab AF       		.byte	0xaf
 2053 04ac FD040000 		.4byte	0x4fd
 2054 04b0 31070000 		.4byte	.LLST26
 2055 04b4 16       		.uleb128 0x16
 2056 04b5 636E7400 		.ascii	"cnt\000"
 2057 04b9 01       		.byte	0x1
 2058 04ba AF       		.byte	0xaf
 2059 04bb 85000000 		.4byte	0x85
 2060 04bf B8070000 		.4byte	.LLST27
 2061 04c3 15       		.uleb128 0x15
 2062 04c4 00030000 		.4byte	.LASF37
 2063 04c8 01       		.byte	0x1
 2064 04c9 AF       		.byte	0xaf
 2065 04ca 85000000 		.4byte	0x85
 2066 04ce 10080000 		.4byte	.LLST28
 2067 04d2 17       		.uleb128 0x17
 2068 04d3 AB010000 		.4byte	.LASF19
 2069 04d7 01       		.byte	0x1
 2070 04d8 B1       		.byte	0xb1
 2071 04d9 85000000 		.4byte	0x85
 2072 04dd 81080000 		.4byte	.LLST29
 2073 04e1 0A       		.uleb128 0xa
 2074 04e2 28000000 		.4byte	.LVL93
 2075 04e6 91060000 		.4byte	0x691
 2076 04ea 0A       		.uleb128 0xa
 2077 04eb AA000000 		.4byte	.LVL106
 2078 04ef C6000000 		.4byte	0xc6
 2079 04f3 0A       		.uleb128 0xa
 2080 04f4 B4000000 		.4byte	.LVL108
 2081 04f8 3D060000 		.4byte	0x63d
 2082 04fc 00       		.byte	0
 2083 04fd 18       		.uleb128 0x18
 2084 04fe 04       		.byte	0x4
 2085 04ff 6F000000 		.4byte	0x6f
 2086 0503 14       		.uleb128 0x14
 2087 0504 01       		.byte	0x1
 2088 0505 C0020000 		.4byte	.LASF38
 2089 0509 01       		.byte	0x1
 2090 050a 4A       		.byte	0x4a
 2091 050b 01       		.byte	0x1
 2092 050c 85000000 		.4byte	0x85
 2093 0510 00000000 		.4byte	.LFB0
 2094 0514 E4000000 		.4byte	.LFE0
 2095 0518 B9080000 		.4byte	.LLST30
 2096 051c 01       		.byte	0x1
 2097 051d 88050000 		.4byte	0x588
ARM GAS  C:\Users\Computer\AppData\Local\Temp\cc3MlAIb.s 			page 60


 2098 0521 15       		.uleb128 0x15
 2099 0522 3E030000 		.4byte	.LASF17
 2100 0526 01       		.byte	0x1
 2101 0527 4A       		.byte	0x4a
 2102 0528 85000000 		.4byte	0x85
 2103 052c E5080000 		.4byte	.LLST31
 2104 0530 15       		.uleb128 0x15
 2105 0531 7C020000 		.4byte	.LASF39
 2106 0535 01       		.byte	0x1
 2107 0536 4A       		.byte	0x4a
 2108 0537 FD040000 		.4byte	0x4fd
 2109 053b 55090000 		.4byte	.LLST32
 2110 053f 16       		.uleb128 0x16
 2111 0540 636E7400 		.ascii	"cnt\000"
 2112 0544 01       		.byte	0x1
 2113 0545 4A       		.byte	0x4a
 2114 0546 85000000 		.4byte	0x85
 2115 054a DC090000 		.4byte	.LLST33
 2116 054e 15       		.uleb128 0x15
 2117 054f 00030000 		.4byte	.LASF37
 2118 0553 01       		.byte	0x1
 2119 0554 4A       		.byte	0x4a
 2120 0555 85000000 		.4byte	0x85
 2121 0559 340A0000 		.4byte	.LLST34
 2122 055d 17       		.uleb128 0x17
 2123 055e AB010000 		.4byte	.LASF19
 2124 0562 01       		.byte	0x1
 2125 0563 4C       		.byte	0x4c
 2126 0564 85000000 		.4byte	0x85
 2127 0568 A50A0000 		.4byte	.LLST35
 2128 056c 0A       		.uleb128 0xa
 2129 056d 28000000 		.4byte	.LVL113
 2130 0571 91060000 		.4byte	0x691
 2131 0575 0A       		.uleb128 0xa
 2132 0576 96000000 		.4byte	.LVL126
 2133 057a C6000000 		.4byte	0xc6
 2134 057e 0A       		.uleb128 0xa
 2135 057f 9E000000 		.4byte	.LVL128
 2136 0583 3D060000 		.4byte	0x63d
 2137 0587 00       		.byte	0
 2138 0588 19       		.uleb128 0x19
 2139 0589 0F040000 		.4byte	.LASF40
 2140 058d 03       		.byte	0x3
 2141 058e 1D       		.byte	0x1d
 2142 058f A5000000 		.4byte	0xa5
 2143 0593 01       		.byte	0x1
 2144 0594 01       		.byte	0x1
 2145 0595 1A       		.uleb128 0x1a
 2146 0596 F4030000 		.4byte	.LASF41
 2147 059a 01       		.byte	0x1
 2148 059b 1C       		.byte	0x1c
 2149 059c AA000000 		.4byte	0xaa
 2150 05a0 01       		.byte	0x1
 2151 05a1 05       		.byte	0x5
 2152 05a2 03       		.byte	0x3
 2153 05a3 00000000 		.4byte	RTC_mstrStatus
 2154 05a7 1A       		.uleb128 0x1a
ARM GAS  C:\Users\Computer\AppData\Local\Temp\cc3MlAIb.s 			page 61


 2155 05a8 99020000 		.4byte	.LASF42
 2156 05ac 01       		.byte	0x1
 2157 05ad 1D       		.byte	0x1d
 2158 05ae A5000000 		.4byte	0xa5
 2159 05b2 01       		.byte	0x1
 2160 05b3 05       		.byte	0x5
 2161 05b4 03       		.byte	0x3
 2162 05b5 00000000 		.4byte	RTC_mstrControl
 2163 05b9 1A       		.uleb128 0x1a
 2164 05ba 2D000000 		.4byte	.LASF43
 2165 05be 01       		.byte	0x1
 2166 05bf 20       		.byte	0x20
 2167 05c0 CB050000 		.4byte	0x5cb
 2168 05c4 01       		.byte	0x1
 2169 05c5 05       		.byte	0x5
 2170 05c6 03       		.byte	0x3
 2171 05c7 00000000 		.4byte	RTC_mstrRdBufPtr
 2172 05cb 18       		.uleb128 0x18
 2173 05cc 04       		.byte	0x4
 2174 05cd A5000000 		.4byte	0xa5
 2175 05d1 1A       		.uleb128 0x1a
 2176 05d2 F3010000 		.4byte	.LASF44
 2177 05d6 01       		.byte	0x1
 2178 05d7 21       		.byte	0x21
 2179 05d8 BA000000 		.4byte	0xba
 2180 05dc 01       		.byte	0x1
 2181 05dd 05       		.byte	0x5
 2182 05de 03       		.byte	0x3
 2183 05df 00000000 		.4byte	RTC_mstrRdBufSize
 2184 05e3 1A       		.uleb128 0x1a
 2185 05e4 19040000 		.4byte	.LASF45
 2186 05e8 01       		.byte	0x1
 2187 05e9 22       		.byte	0x22
 2188 05ea BA000000 		.4byte	0xba
 2189 05ee 01       		.byte	0x1
 2190 05ef 05       		.byte	0x5
 2191 05f0 03       		.byte	0x3
 2192 05f1 00000000 		.4byte	RTC_mstrRdBufIndex
 2193 05f5 1A       		.uleb128 0x1a
 2194 05f6 3E000000 		.4byte	.LASF46
 2195 05fa 01       		.byte	0x1
 2196 05fb 25       		.byte	0x25
 2197 05fc CB050000 		.4byte	0x5cb
 2198 0600 01       		.byte	0x1
 2199 0601 05       		.byte	0x5
 2200 0602 03       		.byte	0x3
 2201 0603 00000000 		.4byte	RTC_mstrWrBufPtr
 2202 0607 1A       		.uleb128 0x1a
 2203 0608 D3030000 		.4byte	.LASF47
 2204 060c 01       		.byte	0x1
 2205 060d 26       		.byte	0x26
 2206 060e BA000000 		.4byte	0xba
 2207 0612 01       		.byte	0x1
 2208 0613 05       		.byte	0x5
 2209 0614 03       		.byte	0x3
 2210 0615 00000000 		.4byte	RTC_mstrWrBufSize
 2211 0619 1A       		.uleb128 0x1a
ARM GAS  C:\Users\Computer\AppData\Local\Temp\cc3MlAIb.s 			page 62


 2212 061a 2B030000 		.4byte	.LASF48
 2213 061e 01       		.byte	0x1
 2214 061f 27       		.byte	0x27
 2215 0620 BA000000 		.4byte	0xba
 2216 0624 01       		.byte	0x1
 2217 0625 05       		.byte	0x5
 2218 0626 03       		.byte	0x3
 2219 0627 00000000 		.4byte	RTC_mstrWrBufIndex
 2220 062b 1A       		.uleb128 0x1a
 2221 062c 78000000 		.4byte	.LASF49
 2222 0630 01       		.byte	0x1
 2223 0631 28       		.byte	0x28
 2224 0632 BA000000 		.4byte	0xba
 2225 0636 01       		.byte	0x1
 2226 0637 05       		.byte	0x5
 2227 0638 03       		.byte	0x3
 2228 0639 00000000 		.4byte	RTC_mstrWrBufIndexTmp
 2229 063d 1B       		.uleb128 0x1b
 2230 063e 01       		.byte	0x1
 2231 063f 76030000 		.4byte	.LASF51
 2232 0643 04       		.byte	0x4
 2233 0644 25       		.byte	0x25
 2234 0645 01       		.byte	0x1
 2235 0646 01       		.byte	0x1
 2236 0647 1C       		.uleb128 0x1c
 2237 0648 01       		.byte	0x1
 2238 0649 A9020000 		.4byte	.LASF59
 2239 064d 05       		.byte	0x5
 2240 064e 70       		.byte	0x70
 2241 064f 01       		.byte	0x1
 2242 0650 6F000000 		.4byte	0x6f
 2243 0654 01       		.byte	0x1
 2244 0655 1D       		.uleb128 0x1d
 2245 0656 01       		.byte	0x1
 2246 0657 83020000 		.4byte	.LASF52
 2247 065b 05       		.byte	0x5
 2248 065c 71       		.byte	0x71
 2249 065d 01       		.byte	0x1
 2250 065e 01       		.byte	0x1
 2251 065f 69060000 		.4byte	0x669
 2252 0663 1E       		.uleb128 0x1e
 2253 0664 6F000000 		.4byte	0x6f
 2254 0668 00       		.byte	0
 2255 0669 1D       		.uleb128 0x1d
 2256 066a 01       		.byte	0x1
 2257 066b D6020000 		.4byte	.LASF53
 2258 066f 06       		.byte	0x6
 2259 0670 1D       		.byte	0x1d
 2260 0671 01       		.byte	0x1
 2261 0672 01       		.byte	0x1
 2262 0673 7D060000 		.4byte	0x67d
 2263 0677 1E       		.uleb128 0x1e
 2264 0678 6F000000 		.4byte	0x6f
 2265 067c 00       		.byte	0
 2266 067d 1D       		.uleb128 0x1d
 2267 067e 01       		.byte	0x1
 2268 067f 1C030000 		.4byte	.LASF54
ARM GAS  C:\Users\Computer\AppData\Local\Temp\cc3MlAIb.s 			page 63


 2269 0683 05       		.byte	0x5
 2270 0684 6A       		.byte	0x6a
 2271 0685 01       		.byte	0x1
 2272 0686 01       		.byte	0x1
 2273 0687 91060000 		.4byte	0x691
 2274 068b 1E       		.uleb128 0x1e
 2275 068c 7A000000 		.4byte	0x7a
 2276 0690 00       		.byte	0
 2277 0691 1B       		.uleb128 0x1b
 2278 0692 01       		.byte	0x1
 2279 0693 98010000 		.4byte	.LASF55
 2280 0697 04       		.byte	0x4
 2281 0698 23       		.byte	0x23
 2282 0699 01       		.byte	0x1
 2283 069a 01       		.byte	0x1
 2284 069b 00       		.byte	0
 2285              		.section	.debug_abbrev,"",%progbits
 2286              	.Ldebug_abbrev0:
 2287 0000 01       		.uleb128 0x1
 2288 0001 11       		.uleb128 0x11
 2289 0002 01       		.byte	0x1
 2290 0003 25       		.uleb128 0x25
 2291 0004 0E       		.uleb128 0xe
 2292 0005 13       		.uleb128 0x13
 2293 0006 0B       		.uleb128 0xb
 2294 0007 03       		.uleb128 0x3
 2295 0008 0E       		.uleb128 0xe
 2296 0009 1B       		.uleb128 0x1b
 2297 000a 0E       		.uleb128 0xe
 2298 000b 55       		.uleb128 0x55
 2299 000c 06       		.uleb128 0x6
 2300 000d 11       		.uleb128 0x11
 2301 000e 01       		.uleb128 0x1
 2302 000f 52       		.uleb128 0x52
 2303 0010 01       		.uleb128 0x1
 2304 0011 10       		.uleb128 0x10
 2305 0012 06       		.uleb128 0x6
 2306 0013 00       		.byte	0
 2307 0014 00       		.byte	0
 2308 0015 02       		.uleb128 0x2
 2309 0016 24       		.uleb128 0x24
 2310 0017 00       		.byte	0
 2311 0018 0B       		.uleb128 0xb
 2312 0019 0B       		.uleb128 0xb
 2313 001a 3E       		.uleb128 0x3e
 2314 001b 0B       		.uleb128 0xb
 2315 001c 03       		.uleb128 0x3
 2316 001d 0E       		.uleb128 0xe
 2317 001e 00       		.byte	0
 2318 001f 00       		.byte	0
 2319 0020 03       		.uleb128 0x3
 2320 0021 24       		.uleb128 0x24
 2321 0022 00       		.byte	0
 2322 0023 0B       		.uleb128 0xb
 2323 0024 0B       		.uleb128 0xb
 2324 0025 3E       		.uleb128 0x3e
 2325 0026 0B       		.uleb128 0xb
ARM GAS  C:\Users\Computer\AppData\Local\Temp\cc3MlAIb.s 			page 64


 2326 0027 03       		.uleb128 0x3
 2327 0028 08       		.uleb128 0x8
 2328 0029 00       		.byte	0
 2329 002a 00       		.byte	0
 2330 002b 04       		.uleb128 0x4
 2331 002c 16       		.uleb128 0x16
 2332 002d 00       		.byte	0
 2333 002e 03       		.uleb128 0x3
 2334 002f 0E       		.uleb128 0xe
 2335 0030 3A       		.uleb128 0x3a
 2336 0031 0B       		.uleb128 0xb
 2337 0032 3B       		.uleb128 0x3b
 2338 0033 0B       		.uleb128 0xb
 2339 0034 49       		.uleb128 0x49
 2340 0035 13       		.uleb128 0x13
 2341 0036 00       		.byte	0
 2342 0037 00       		.byte	0
 2343 0038 05       		.uleb128 0x5
 2344 0039 35       		.uleb128 0x35
 2345 003a 00       		.byte	0
 2346 003b 49       		.uleb128 0x49
 2347 003c 13       		.uleb128 0x13
 2348 003d 00       		.byte	0
 2349 003e 00       		.byte	0
 2350 003f 06       		.uleb128 0x6
 2351 0040 2E       		.uleb128 0x2e
 2352 0041 00       		.byte	0
 2353 0042 3F       		.uleb128 0x3f
 2354 0043 0C       		.uleb128 0xc
 2355 0044 03       		.uleb128 0x3
 2356 0045 0E       		.uleb128 0xe
 2357 0046 3A       		.uleb128 0x3a
 2358 0047 0B       		.uleb128 0xb
 2359 0048 3B       		.uleb128 0x3b
 2360 0049 05       		.uleb128 0x5
 2361 004a 27       		.uleb128 0x27
 2362 004b 0C       		.uleb128 0xc
 2363 004c 20       		.uleb128 0x20
 2364 004d 0B       		.uleb128 0xb
 2365 004e 00       		.byte	0
 2366 004f 00       		.byte	0
 2367 0050 07       		.uleb128 0x7
 2368 0051 2E       		.uleb128 0x2e
 2369 0052 01       		.byte	0x1
 2370 0053 3F       		.uleb128 0x3f
 2371 0054 0C       		.uleb128 0xc
 2372 0055 03       		.uleb128 0x3
 2373 0056 0E       		.uleb128 0xe
 2374 0057 3A       		.uleb128 0x3a
 2375 0058 0B       		.uleb128 0xb
 2376 0059 3B       		.uleb128 0x3b
 2377 005a 05       		.uleb128 0x5
 2378 005b 27       		.uleb128 0x27
 2379 005c 0C       		.uleb128 0xc
 2380 005d 49       		.uleb128 0x49
 2381 005e 13       		.uleb128 0x13
 2382 005f 11       		.uleb128 0x11
ARM GAS  C:\Users\Computer\AppData\Local\Temp\cc3MlAIb.s 			page 65


 2383 0060 01       		.uleb128 0x1
 2384 0061 12       		.uleb128 0x12
 2385 0062 01       		.uleb128 0x1
 2386 0063 40       		.uleb128 0x40
 2387 0064 06       		.uleb128 0x6
 2388 0065 9742     		.uleb128 0x2117
 2389 0067 0C       		.uleb128 0xc
 2390 0068 01       		.uleb128 0x1
 2391 0069 13       		.uleb128 0x13
 2392 006a 00       		.byte	0
 2393 006b 00       		.byte	0
 2394 006c 08       		.uleb128 0x8
 2395 006d 05       		.uleb128 0x5
 2396 006e 00       		.byte	0
 2397 006f 03       		.uleb128 0x3
 2398 0070 0E       		.uleb128 0xe
 2399 0071 3A       		.uleb128 0x3a
 2400 0072 0B       		.uleb128 0xb
 2401 0073 3B       		.uleb128 0x3b
 2402 0074 05       		.uleb128 0x5
 2403 0075 49       		.uleb128 0x49
 2404 0076 13       		.uleb128 0x13
 2405 0077 02       		.uleb128 0x2
 2406 0078 06       		.uleb128 0x6
 2407 0079 00       		.byte	0
 2408 007a 00       		.byte	0
 2409 007b 09       		.uleb128 0x9
 2410 007c 34       		.uleb128 0x34
 2411 007d 00       		.byte	0
 2412 007e 03       		.uleb128 0x3
 2413 007f 0E       		.uleb128 0xe
 2414 0080 3A       		.uleb128 0x3a
 2415 0081 0B       		.uleb128 0xb
 2416 0082 3B       		.uleb128 0x3b
 2417 0083 05       		.uleb128 0x5
 2418 0084 49       		.uleb128 0x49
 2419 0085 13       		.uleb128 0x13
 2420 0086 02       		.uleb128 0x2
 2421 0087 06       		.uleb128 0x6
 2422 0088 00       		.byte	0
 2423 0089 00       		.byte	0
 2424 008a 0A       		.uleb128 0xa
 2425 008b 898201   		.uleb128 0x4109
 2426 008e 00       		.byte	0
 2427 008f 11       		.uleb128 0x11
 2428 0090 01       		.uleb128 0x1
 2429 0091 31       		.uleb128 0x31
 2430 0092 13       		.uleb128 0x13
 2431 0093 00       		.byte	0
 2432 0094 00       		.byte	0
 2433 0095 0B       		.uleb128 0xb
 2434 0096 2E       		.uleb128 0x2e
 2435 0097 00       		.byte	0
 2436 0098 3F       		.uleb128 0x3f
 2437 0099 0C       		.uleb128 0xc
 2438 009a 03       		.uleb128 0x3
 2439 009b 0E       		.uleb128 0xe
ARM GAS  C:\Users\Computer\AppData\Local\Temp\cc3MlAIb.s 			page 66


 2440 009c 3A       		.uleb128 0x3a
 2441 009d 0B       		.uleb128 0xb
 2442 009e 3B       		.uleb128 0x3b
 2443 009f 05       		.uleb128 0x5
 2444 00a0 27       		.uleb128 0x27
 2445 00a1 0C       		.uleb128 0xc
 2446 00a2 49       		.uleb128 0x49
 2447 00a3 13       		.uleb128 0x13
 2448 00a4 11       		.uleb128 0x11
 2449 00a5 01       		.uleb128 0x1
 2450 00a6 12       		.uleb128 0x12
 2451 00a7 01       		.uleb128 0x1
 2452 00a8 40       		.uleb128 0x40
 2453 00a9 0A       		.uleb128 0xa
 2454 00aa 9742     		.uleb128 0x2117
 2455 00ac 0C       		.uleb128 0xc
 2456 00ad 00       		.byte	0
 2457 00ae 00       		.byte	0
 2458 00af 0C       		.uleb128 0xc
 2459 00b0 2E       		.uleb128 0x2e
 2460 00b1 00       		.byte	0
 2461 00b2 3F       		.uleb128 0x3f
 2462 00b3 0C       		.uleb128 0xc
 2463 00b4 03       		.uleb128 0x3
 2464 00b5 0E       		.uleb128 0xe
 2465 00b6 3A       		.uleb128 0x3a
 2466 00b7 0B       		.uleb128 0xb
 2467 00b8 3B       		.uleb128 0x3b
 2468 00b9 05       		.uleb128 0x5
 2469 00ba 27       		.uleb128 0x27
 2470 00bb 0C       		.uleb128 0xc
 2471 00bc 11       		.uleb128 0x11
 2472 00bd 01       		.uleb128 0x1
 2473 00be 12       		.uleb128 0x12
 2474 00bf 01       		.uleb128 0x1
 2475 00c0 40       		.uleb128 0x40
 2476 00c1 0A       		.uleb128 0xa
 2477 00c2 9742     		.uleb128 0x2117
 2478 00c4 0C       		.uleb128 0xc
 2479 00c5 00       		.byte	0
 2480 00c6 00       		.byte	0
 2481 00c7 0D       		.uleb128 0xd
 2482 00c8 2E       		.uleb128 0x2e
 2483 00c9 01       		.byte	0x1
 2484 00ca 3F       		.uleb128 0x3f
 2485 00cb 0C       		.uleb128 0xc
 2486 00cc 03       		.uleb128 0x3
 2487 00cd 0E       		.uleb128 0xe
 2488 00ce 3A       		.uleb128 0x3a
 2489 00cf 0B       		.uleb128 0xb
 2490 00d0 3B       		.uleb128 0x3b
 2491 00d1 05       		.uleb128 0x5
 2492 00d2 27       		.uleb128 0x27
 2493 00d3 0C       		.uleb128 0xc
 2494 00d4 49       		.uleb128 0x49
 2495 00d5 13       		.uleb128 0x13
 2496 00d6 11       		.uleb128 0x11
ARM GAS  C:\Users\Computer\AppData\Local\Temp\cc3MlAIb.s 			page 67


 2497 00d7 01       		.uleb128 0x1
 2498 00d8 12       		.uleb128 0x12
 2499 00d9 01       		.uleb128 0x1
 2500 00da 40       		.uleb128 0x40
 2501 00db 0A       		.uleb128 0xa
 2502 00dc 9742     		.uleb128 0x2117
 2503 00de 0C       		.uleb128 0xc
 2504 00df 01       		.uleb128 0x1
 2505 00e0 13       		.uleb128 0x13
 2506 00e1 00       		.byte	0
 2507 00e2 00       		.byte	0
 2508 00e3 0E       		.uleb128 0xe
 2509 00e4 34       		.uleb128 0x34
 2510 00e5 00       		.byte	0
 2511 00e6 03       		.uleb128 0x3
 2512 00e7 0E       		.uleb128 0xe
 2513 00e8 3A       		.uleb128 0x3a
 2514 00e9 0B       		.uleb128 0xb
 2515 00ea 3B       		.uleb128 0x3b
 2516 00eb 05       		.uleb128 0x5
 2517 00ec 49       		.uleb128 0x49
 2518 00ed 13       		.uleb128 0x13
 2519 00ee 02       		.uleb128 0x2
 2520 00ef 0A       		.uleb128 0xa
 2521 00f0 00       		.byte	0
 2522 00f1 00       		.byte	0
 2523 00f2 0F       		.uleb128 0xf
 2524 00f3 2E       		.uleb128 0x2e
 2525 00f4 01       		.byte	0x1
 2526 00f5 31       		.uleb128 0x31
 2527 00f6 13       		.uleb128 0x13
 2528 00f7 11       		.uleb128 0x11
 2529 00f8 01       		.uleb128 0x1
 2530 00f9 12       		.uleb128 0x12
 2531 00fa 01       		.uleb128 0x1
 2532 00fb 40       		.uleb128 0x40
 2533 00fc 06       		.uleb128 0x6
 2534 00fd 9742     		.uleb128 0x2117
 2535 00ff 0C       		.uleb128 0xc
 2536 0100 01       		.uleb128 0x1
 2537 0101 13       		.uleb128 0x13
 2538 0102 00       		.byte	0
 2539 0103 00       		.byte	0
 2540 0104 10       		.uleb128 0x10
 2541 0105 1D       		.uleb128 0x1d
 2542 0106 01       		.byte	0x1
 2543 0107 31       		.uleb128 0x31
 2544 0108 13       		.uleb128 0x13
 2545 0109 52       		.uleb128 0x52
 2546 010a 01       		.uleb128 0x1
 2547 010b 55       		.uleb128 0x55
 2548 010c 06       		.uleb128 0x6
 2549 010d 58       		.uleb128 0x58
 2550 010e 0B       		.uleb128 0xb
 2551 010f 59       		.uleb128 0x59
 2552 0110 05       		.uleb128 0x5
 2553 0111 01       		.uleb128 0x1
ARM GAS  C:\Users\Computer\AppData\Local\Temp\cc3MlAIb.s 			page 68


 2554 0112 13       		.uleb128 0x13
 2555 0113 00       		.byte	0
 2556 0114 00       		.byte	0
 2557 0115 11       		.uleb128 0x11
 2558 0116 898201   		.uleb128 0x4109
 2559 0119 01       		.byte	0x1
 2560 011a 11       		.uleb128 0x11
 2561 011b 01       		.uleb128 0x1
 2562 011c 31       		.uleb128 0x31
 2563 011d 13       		.uleb128 0x13
 2564 011e 01       		.uleb128 0x1
 2565 011f 13       		.uleb128 0x13
 2566 0120 00       		.byte	0
 2567 0121 00       		.byte	0
 2568 0122 12       		.uleb128 0x12
 2569 0123 8A8201   		.uleb128 0x410a
 2570 0126 00       		.byte	0
 2571 0127 02       		.uleb128 0x2
 2572 0128 0A       		.uleb128 0xa
 2573 0129 9142     		.uleb128 0x2111
 2574 012b 0A       		.uleb128 0xa
 2575 012c 00       		.byte	0
 2576 012d 00       		.byte	0
 2577 012e 13       		.uleb128 0x13
 2578 012f 898201   		.uleb128 0x4109
 2579 0132 01       		.byte	0x1
 2580 0133 11       		.uleb128 0x11
 2581 0134 01       		.uleb128 0x1
 2582 0135 31       		.uleb128 0x31
 2583 0136 13       		.uleb128 0x13
 2584 0137 00       		.byte	0
 2585 0138 00       		.byte	0
 2586 0139 14       		.uleb128 0x14
 2587 013a 2E       		.uleb128 0x2e
 2588 013b 01       		.byte	0x1
 2589 013c 3F       		.uleb128 0x3f
 2590 013d 0C       		.uleb128 0xc
 2591 013e 03       		.uleb128 0x3
 2592 013f 0E       		.uleb128 0xe
 2593 0140 3A       		.uleb128 0x3a
 2594 0141 0B       		.uleb128 0xb
 2595 0142 3B       		.uleb128 0x3b
 2596 0143 0B       		.uleb128 0xb
 2597 0144 27       		.uleb128 0x27
 2598 0145 0C       		.uleb128 0xc
 2599 0146 49       		.uleb128 0x49
 2600 0147 13       		.uleb128 0x13
 2601 0148 11       		.uleb128 0x11
 2602 0149 01       		.uleb128 0x1
 2603 014a 12       		.uleb128 0x12
 2604 014b 01       		.uleb128 0x1
 2605 014c 40       		.uleb128 0x40
 2606 014d 06       		.uleb128 0x6
 2607 014e 9742     		.uleb128 0x2117
 2608 0150 0C       		.uleb128 0xc
 2609 0151 01       		.uleb128 0x1
 2610 0152 13       		.uleb128 0x13
ARM GAS  C:\Users\Computer\AppData\Local\Temp\cc3MlAIb.s 			page 69


 2611 0153 00       		.byte	0
 2612 0154 00       		.byte	0
 2613 0155 15       		.uleb128 0x15
 2614 0156 05       		.uleb128 0x5
 2615 0157 00       		.byte	0
 2616 0158 03       		.uleb128 0x3
 2617 0159 0E       		.uleb128 0xe
 2618 015a 3A       		.uleb128 0x3a
 2619 015b 0B       		.uleb128 0xb
 2620 015c 3B       		.uleb128 0x3b
 2621 015d 0B       		.uleb128 0xb
 2622 015e 49       		.uleb128 0x49
 2623 015f 13       		.uleb128 0x13
 2624 0160 02       		.uleb128 0x2
 2625 0161 06       		.uleb128 0x6
 2626 0162 00       		.byte	0
 2627 0163 00       		.byte	0
 2628 0164 16       		.uleb128 0x16
 2629 0165 05       		.uleb128 0x5
 2630 0166 00       		.byte	0
 2631 0167 03       		.uleb128 0x3
 2632 0168 08       		.uleb128 0x8
 2633 0169 3A       		.uleb128 0x3a
 2634 016a 0B       		.uleb128 0xb
 2635 016b 3B       		.uleb128 0x3b
 2636 016c 0B       		.uleb128 0xb
 2637 016d 49       		.uleb128 0x49
 2638 016e 13       		.uleb128 0x13
 2639 016f 02       		.uleb128 0x2
 2640 0170 06       		.uleb128 0x6
 2641 0171 00       		.byte	0
 2642 0172 00       		.byte	0
 2643 0173 17       		.uleb128 0x17
 2644 0174 34       		.uleb128 0x34
 2645 0175 00       		.byte	0
 2646 0176 03       		.uleb128 0x3
 2647 0177 0E       		.uleb128 0xe
 2648 0178 3A       		.uleb128 0x3a
 2649 0179 0B       		.uleb128 0xb
 2650 017a 3B       		.uleb128 0x3b
 2651 017b 0B       		.uleb128 0xb
 2652 017c 49       		.uleb128 0x49
 2653 017d 13       		.uleb128 0x13
 2654 017e 02       		.uleb128 0x2
 2655 017f 06       		.uleb128 0x6
 2656 0180 00       		.byte	0
 2657 0181 00       		.byte	0
 2658 0182 18       		.uleb128 0x18
 2659 0183 0F       		.uleb128 0xf
 2660 0184 00       		.byte	0
 2661 0185 0B       		.uleb128 0xb
 2662 0186 0B       		.uleb128 0xb
 2663 0187 49       		.uleb128 0x49
 2664 0188 13       		.uleb128 0x13
 2665 0189 00       		.byte	0
 2666 018a 00       		.byte	0
 2667 018b 19       		.uleb128 0x19
ARM GAS  C:\Users\Computer\AppData\Local\Temp\cc3MlAIb.s 			page 70


 2668 018c 34       		.uleb128 0x34
 2669 018d 00       		.byte	0
 2670 018e 03       		.uleb128 0x3
 2671 018f 0E       		.uleb128 0xe
 2672 0190 3A       		.uleb128 0x3a
 2673 0191 0B       		.uleb128 0xb
 2674 0192 3B       		.uleb128 0x3b
 2675 0193 0B       		.uleb128 0xb
 2676 0194 49       		.uleb128 0x49
 2677 0195 13       		.uleb128 0x13
 2678 0196 3F       		.uleb128 0x3f
 2679 0197 0C       		.uleb128 0xc
 2680 0198 3C       		.uleb128 0x3c
 2681 0199 0C       		.uleb128 0xc
 2682 019a 00       		.byte	0
 2683 019b 00       		.byte	0
 2684 019c 1A       		.uleb128 0x1a
 2685 019d 34       		.uleb128 0x34
 2686 019e 00       		.byte	0
 2687 019f 03       		.uleb128 0x3
 2688 01a0 0E       		.uleb128 0xe
 2689 01a1 3A       		.uleb128 0x3a
 2690 01a2 0B       		.uleb128 0xb
 2691 01a3 3B       		.uleb128 0x3b
 2692 01a4 0B       		.uleb128 0xb
 2693 01a5 49       		.uleb128 0x49
 2694 01a6 13       		.uleb128 0x13
 2695 01a7 3F       		.uleb128 0x3f
 2696 01a8 0C       		.uleb128 0xc
 2697 01a9 02       		.uleb128 0x2
 2698 01aa 0A       		.uleb128 0xa
 2699 01ab 00       		.byte	0
 2700 01ac 00       		.byte	0
 2701 01ad 1B       		.uleb128 0x1b
 2702 01ae 2E       		.uleb128 0x2e
 2703 01af 00       		.byte	0
 2704 01b0 3F       		.uleb128 0x3f
 2705 01b1 0C       		.uleb128 0xc
 2706 01b2 03       		.uleb128 0x3
 2707 01b3 0E       		.uleb128 0xe
 2708 01b4 3A       		.uleb128 0x3a
 2709 01b5 0B       		.uleb128 0xb
 2710 01b6 3B       		.uleb128 0x3b
 2711 01b7 0B       		.uleb128 0xb
 2712 01b8 27       		.uleb128 0x27
 2713 01b9 0C       		.uleb128 0xc
 2714 01ba 3C       		.uleb128 0x3c
 2715 01bb 0C       		.uleb128 0xc
 2716 01bc 00       		.byte	0
 2717 01bd 00       		.byte	0
 2718 01be 1C       		.uleb128 0x1c
 2719 01bf 2E       		.uleb128 0x2e
 2720 01c0 00       		.byte	0
 2721 01c1 3F       		.uleb128 0x3f
 2722 01c2 0C       		.uleb128 0xc
 2723 01c3 03       		.uleb128 0x3
 2724 01c4 0E       		.uleb128 0xe
ARM GAS  C:\Users\Computer\AppData\Local\Temp\cc3MlAIb.s 			page 71


 2725 01c5 3A       		.uleb128 0x3a
 2726 01c6 0B       		.uleb128 0xb
 2727 01c7 3B       		.uleb128 0x3b
 2728 01c8 0B       		.uleb128 0xb
 2729 01c9 27       		.uleb128 0x27
 2730 01ca 0C       		.uleb128 0xc
 2731 01cb 49       		.uleb128 0x49
 2732 01cc 13       		.uleb128 0x13
 2733 01cd 3C       		.uleb128 0x3c
 2734 01ce 0C       		.uleb128 0xc
 2735 01cf 00       		.byte	0
 2736 01d0 00       		.byte	0
 2737 01d1 1D       		.uleb128 0x1d
 2738 01d2 2E       		.uleb128 0x2e
 2739 01d3 01       		.byte	0x1
 2740 01d4 3F       		.uleb128 0x3f
 2741 01d5 0C       		.uleb128 0xc
 2742 01d6 03       		.uleb128 0x3
 2743 01d7 0E       		.uleb128 0xe
 2744 01d8 3A       		.uleb128 0x3a
 2745 01d9 0B       		.uleb128 0xb
 2746 01da 3B       		.uleb128 0x3b
 2747 01db 0B       		.uleb128 0xb
 2748 01dc 27       		.uleb128 0x27
 2749 01dd 0C       		.uleb128 0xc
 2750 01de 3C       		.uleb128 0x3c
 2751 01df 0C       		.uleb128 0xc
 2752 01e0 01       		.uleb128 0x1
 2753 01e1 13       		.uleb128 0x13
 2754 01e2 00       		.byte	0
 2755 01e3 00       		.byte	0
 2756 01e4 1E       		.uleb128 0x1e
 2757 01e5 05       		.uleb128 0x5
 2758 01e6 00       		.byte	0
 2759 01e7 49       		.uleb128 0x49
 2760 01e8 13       		.uleb128 0x13
 2761 01e9 00       		.byte	0
 2762 01ea 00       		.byte	0
 2763 01eb 00       		.byte	0
 2764              		.section	.debug_loc,"",%progbits
 2765              	.Ldebug_loc0:
 2766              	.LLST0:
 2767 0000 00000000 		.4byte	.LFB2
 2768 0004 02000000 		.4byte	.LCFI0
 2769 0008 0200     		.2byte	0x2
 2770 000a 7D       		.byte	0x7d
 2771 000b 00       		.sleb128 0
 2772 000c 02000000 		.4byte	.LCFI0
 2773 0010 06000000 		.4byte	.LCFI1
 2774 0014 0200     		.2byte	0x2
 2775 0016 7D       		.byte	0x7d
 2776 0017 14       		.sleb128 20
 2777 0018 06000000 		.4byte	.LCFI1
 2778 001c D4000000 		.4byte	.LFE2
 2779 0020 0200     		.2byte	0x2
 2780 0022 7D       		.byte	0x7d
 2781 0023 18       		.sleb128 24
ARM GAS  C:\Users\Computer\AppData\Local\Temp\cc3MlAIb.s 			page 72


 2782 0024 00000000 		.4byte	0
 2783 0028 00000000 		.4byte	0
 2784              	.LLST1:
 2785 002c 00000000 		.4byte	.LVL0
 2786 0030 14000000 		.4byte	.LVL1
 2787 0034 0100     		.2byte	0x1
 2788 0036 50       		.byte	0x50
 2789 0037 1C000000 		.4byte	.LVL2
 2790 003b 1E000000 		.4byte	.LVL3
 2791 003f 0100     		.2byte	0x1
 2792 0041 50       		.byte	0x50
 2793 0042 1E000000 		.4byte	.LVL3
 2794 0046 2E000000 		.4byte	.LVL5
 2795 004a 0100     		.2byte	0x1
 2796 004c 57       		.byte	0x57
 2797 004d 2E000000 		.4byte	.LVL5
 2798 0051 34000000 		.4byte	.LVL7
 2799 0055 0400     		.2byte	0x4
 2800 0057 F3       		.byte	0xf3
 2801 0058 01       		.uleb128 0x1
 2802 0059 50       		.byte	0x50
 2803 005a 9F       		.byte	0x9f
 2804 005b 34000000 		.4byte	.LVL7
 2805 005f 46000000 		.4byte	.LVL9
 2806 0063 0100     		.2byte	0x1
 2807 0065 54       		.byte	0x54
 2808 0066 46000000 		.4byte	.LVL9
 2809 006a 58000000 		.4byte	.LVL10
 2810 006e 0200     		.2byte	0x2
 2811 0070 71       		.byte	0x71
 2812 0071 00       		.sleb128 0
 2813 0072 58000000 		.4byte	.LVL10
 2814 0076 79000000 		.4byte	.LVL13-1
 2815 007a 0500     		.2byte	0x5
 2816 007c 0C       		.byte	0xc
 2817 007d 40020640 		.4byte	0x40060240
 2818 0081 92000000 		.4byte	.LVL15
 2819 0085 9C000000 		.4byte	.LVL18
 2820 0089 0100     		.2byte	0x1
 2821 008b 54       		.byte	0x54
 2822 008c 9C000000 		.4byte	.LVL18
 2823 0090 D4000000 		.4byte	.LFE2
 2824 0094 0500     		.2byte	0x5
 2825 0096 0C       		.byte	0xc
 2826 0097 40020640 		.4byte	0x40060240
 2827 009b 00000000 		.4byte	0
 2828 009f 00000000 		.4byte	0
 2829              	.LLST2:
 2830 00a3 00000000 		.4byte	.LVL0
 2831 00a7 14000000 		.4byte	.LVL1
 2832 00ab 0100     		.2byte	0x1
 2833 00ad 51       		.byte	0x51
 2834 00ae 14000000 		.4byte	.LVL1
 2835 00b2 1C000000 		.4byte	.LVL2
 2836 00b6 0400     		.2byte	0x4
 2837 00b8 F3       		.byte	0xf3
 2838 00b9 01       		.uleb128 0x1
ARM GAS  C:\Users\Computer\AppData\Local\Temp\cc3MlAIb.s 			page 73


 2839 00ba 51       		.byte	0x51
 2840 00bb 9F       		.byte	0x9f
 2841 00bc 1C000000 		.4byte	.LVL2
 2842 00c0 20000000 		.4byte	.LVL4
 2843 00c4 0100     		.2byte	0x1
 2844 00c6 51       		.byte	0x51
 2845 00c7 20000000 		.4byte	.LVL4
 2846 00cb 3C000000 		.4byte	.LVL8
 2847 00cf 0100     		.2byte	0x1
 2848 00d1 56       		.byte	0x56
 2849 00d2 3C000000 		.4byte	.LVL8
 2850 00d6 92000000 		.4byte	.LVL15
 2851 00da 0400     		.2byte	0x4
 2852 00dc F3       		.byte	0xf3
 2853 00dd 01       		.uleb128 0x1
 2854 00de 51       		.byte	0x51
 2855 00df 9F       		.byte	0x9f
 2856 00e0 92000000 		.4byte	.LVL15
 2857 00e4 94000000 		.4byte	.LVL16
 2858 00e8 0100     		.2byte	0x1
 2859 00ea 56       		.byte	0x56
 2860 00eb 94000000 		.4byte	.LVL16
 2861 00ef D4000000 		.4byte	.LFE2
 2862 00f3 0400     		.2byte	0x4
 2863 00f5 F3       		.byte	0xf3
 2864 00f6 01       		.uleb128 0x1
 2865 00f7 51       		.byte	0x51
 2866 00f8 9F       		.byte	0x9f
 2867 00f9 00000000 		.4byte	0
 2868 00fd 00000000 		.4byte	0
 2869              	.LLST3:
 2870 0101 00000000 		.4byte	.LVL0
 2871 0105 14000000 		.4byte	.LVL1
 2872 0109 0200     		.2byte	0x2
 2873 010b 34       		.byte	0x34
 2874 010c 9F       		.byte	0x9f
 2875 010d 1C000000 		.4byte	.LVL2
 2876 0111 6C000000 		.4byte	.LVL11
 2877 0115 0200     		.2byte	0x2
 2878 0117 34       		.byte	0x34
 2879 0118 9F       		.byte	0x9f
 2880 0119 6C000000 		.4byte	.LVL11
 2881 011d 6E000000 		.4byte	.LVL12
 2882 0121 0200     		.2byte	0x2
 2883 0123 31       		.byte	0x31
 2884 0124 9F       		.byte	0x9f
 2885 0125 6E000000 		.4byte	.LVL12
 2886 0129 92000000 		.4byte	.LVL15
 2887 012d 0100     		.2byte	0x1
 2888 012f 54       		.byte	0x54
 2889 0130 92000000 		.4byte	.LVL15
 2890 0134 9E000000 		.4byte	.LVL19
 2891 0138 0200     		.2byte	0x2
 2892 013a 34       		.byte	0x34
 2893 013b 9F       		.byte	0x9f
 2894 013c 9E000000 		.4byte	.LVL19
 2895 0140 A6000000 		.4byte	.LVL20
ARM GAS  C:\Users\Computer\AppData\Local\Temp\cc3MlAIb.s 			page 74


 2896 0144 0100     		.2byte	0x1
 2897 0146 54       		.byte	0x54
 2898 0147 A6000000 		.4byte	.LVL20
 2899 014b AE000000 		.4byte	.LVL21
 2900 014f 0200     		.2byte	0x2
 2901 0151 34       		.byte	0x34
 2902 0152 9F       		.byte	0x9f
 2903 0153 AE000000 		.4byte	.LVL21
 2904 0157 D4000000 		.4byte	.LFE2
 2905 015b 0400     		.2byte	0x4
 2906 015d 0A       		.byte	0xa
 2907 015e 0001     		.2byte	0x100
 2908 0160 9F       		.byte	0x9f
 2909 0161 00000000 		.4byte	0
 2910 0165 00000000 		.4byte	0
 2911              	.LLST4:
 2912 0169 00000000 		.4byte	.LVL0
 2913 016d 14000000 		.4byte	.LVL1
 2914 0171 0200     		.2byte	0x2
 2915 0173 30       		.byte	0x30
 2916 0174 9F       		.byte	0x9f
 2917 0175 1C000000 		.4byte	.LVL2
 2918 0179 6C000000 		.4byte	.LVL11
 2919 017d 0200     		.2byte	0x2
 2920 017f 30       		.byte	0x30
 2921 0180 9F       		.byte	0x9f
 2922 0181 6C000000 		.4byte	.LVL11
 2923 0185 7A000000 		.4byte	.LVL13
 2924 0189 0200     		.2byte	0x2
 2925 018b 31       		.byte	0x31
 2926 018c 9F       		.byte	0x9f
 2927 018d 7A000000 		.4byte	.LVL13
 2928 0191 8F000000 		.4byte	.LVL14-1
 2929 0195 0100     		.2byte	0x1
 2930 0197 50       		.byte	0x50
 2931 0198 92000000 		.4byte	.LVL15
 2932 019c AE000000 		.4byte	.LVL21
 2933 01a0 0200     		.2byte	0x2
 2934 01a2 30       		.byte	0x30
 2935 01a3 9F       		.byte	0x9f
 2936 01a4 AE000000 		.4byte	.LVL21
 2937 01a8 D4000000 		.4byte	.LFE2
 2938 01ac 0200     		.2byte	0x2
 2939 01ae 31       		.byte	0x31
 2940 01af 9F       		.byte	0x9f
 2941 01b0 00000000 		.4byte	0
 2942 01b4 00000000 		.4byte	0
 2943              	.LLST5:
 2944 01b8 00000000 		.4byte	.LFB4
 2945 01bc 02000000 		.4byte	.LCFI2
 2946 01c0 0200     		.2byte	0x2
 2947 01c2 7D       		.byte	0x7d
 2948 01c3 00       		.sleb128 0
 2949 01c4 02000000 		.4byte	.LCFI2
 2950 01c8 8C000000 		.4byte	.LFE4
 2951 01cc 0200     		.2byte	0x2
 2952 01ce 7D       		.byte	0x7d
ARM GAS  C:\Users\Computer\AppData\Local\Temp\cc3MlAIb.s 			page 75


 2953 01cf 10       		.sleb128 16
 2954 01d0 00000000 		.4byte	0
 2955 01d4 00000000 		.4byte	0
 2956              	.LLST6:
 2957 01d8 00000000 		.4byte	.LVL22
 2958 01dc 0E000000 		.4byte	.LVL23
 2959 01e0 0200     		.2byte	0x2
 2960 01e2 34       		.byte	0x34
 2961 01e3 9F       		.byte	0x9f
 2962 01e4 12000000 		.4byte	.LVL24
 2963 01e8 3E000000 		.4byte	.LVL25
 2964 01ec 0200     		.2byte	0x2
 2965 01ee 34       		.byte	0x34
 2966 01ef 9F       		.byte	0x9f
 2967 01f0 3E000000 		.4byte	.LVL25
 2968 01f4 60000000 		.4byte	.LVL27
 2969 01f8 0100     		.2byte	0x1
 2970 01fa 54       		.byte	0x54
 2971 01fb 66000000 		.4byte	.LVL28
 2972 01ff 6E000000 		.4byte	.LVL29
 2973 0203 0200     		.2byte	0x2
 2974 0205 30       		.byte	0x30
 2975 0206 9F       		.byte	0x9f
 2976 0207 6E000000 		.4byte	.LVL29
 2977 020b 8C000000 		.4byte	.LFE4
 2978 020f 0200     		.2byte	0x2
 2979 0211 34       		.byte	0x34
 2980 0212 9F       		.byte	0x9f
 2981 0213 00000000 		.4byte	0
 2982 0217 00000000 		.4byte	0
 2983              	.LLST7:
 2984 021b 00000000 		.4byte	.LVL22
 2985 021f 0E000000 		.4byte	.LVL23
 2986 0223 0200     		.2byte	0x2
 2987 0225 30       		.byte	0x30
 2988 0226 9F       		.byte	0x9f
 2989 0227 12000000 		.4byte	.LVL24
 2990 022b 3E000000 		.4byte	.LVL25
 2991 022f 0200     		.2byte	0x2
 2992 0231 30       		.byte	0x30
 2993 0232 9F       		.byte	0x9f
 2994 0233 3E000000 		.4byte	.LVL25
 2995 0237 48000000 		.4byte	.LVL26
 2996 023b 0200     		.2byte	0x2
 2997 023d 31       		.byte	0x31
 2998 023e 9F       		.byte	0x9f
 2999 023f 48000000 		.4byte	.LVL26
 3000 0243 5F000000 		.4byte	.LVL27-1
 3001 0247 0100     		.2byte	0x1
 3002 0249 50       		.byte	0x50
 3003 024a 66000000 		.4byte	.LVL28
 3004 024e 8C000000 		.4byte	.LFE4
 3005 0252 0200     		.2byte	0x2
 3006 0254 30       		.byte	0x30
 3007 0255 9F       		.byte	0x9f
 3008 0256 00000000 		.4byte	0
 3009 025a 00000000 		.4byte	0
ARM GAS  C:\Users\Computer\AppData\Local\Temp\cc3MlAIb.s 			page 76


 3010              	.LLST8:
 3011 025e 00000000 		.4byte	.LFB5
 3012 0262 02000000 		.4byte	.LCFI3
 3013 0266 0200     		.2byte	0x2
 3014 0268 7D       		.byte	0x7d
 3015 0269 00       		.sleb128 0
 3016 026a 02000000 		.4byte	.LCFI3
 3017 026e 90000000 		.4byte	.LFE5
 3018 0272 0200     		.2byte	0x2
 3019 0274 7D       		.byte	0x7d
 3020 0275 10       		.sleb128 16
 3021 0276 00000000 		.4byte	0
 3022 027a 00000000 		.4byte	0
 3023              	.LLST9:
 3024 027e 00000000 		.4byte	.LVL30
 3025 0282 0C000000 		.4byte	.LVL31
 3026 0286 0100     		.2byte	0x1
 3027 0288 50       		.byte	0x50
 3028 0289 0C000000 		.4byte	.LVL31
 3029 028d 10000000 		.4byte	.LVL32
 3030 0291 0400     		.2byte	0x4
 3031 0293 F3       		.byte	0xf3
 3032 0294 01       		.uleb128 0x1
 3033 0295 50       		.byte	0x50
 3034 0296 9F       		.byte	0x9f
 3035 0297 10000000 		.4byte	.LVL32
 3036 029b 18000000 		.4byte	.LVL33
 3037 029f 0100     		.2byte	0x1
 3038 02a1 50       		.byte	0x50
 3039 02a2 18000000 		.4byte	.LVL33
 3040 02a6 22000000 		.4byte	.LVL34
 3041 02aa 0200     		.2byte	0x2
 3042 02ac 71       		.byte	0x71
 3043 02ad 00       		.sleb128 0
 3044 02ae 22000000 		.4byte	.LVL34
 3045 02b2 5B000000 		.4byte	.LVL42-1
 3046 02b6 0500     		.2byte	0x5
 3047 02b8 0C       		.byte	0xc
 3048 02b9 40020640 		.4byte	0x40060240
 3049 02bd 5B000000 		.4byte	.LVL42-1
 3050 02c1 74000000 		.4byte	.LVL44
 3051 02c5 0400     		.2byte	0x4
 3052 02c7 F3       		.byte	0xf3
 3053 02c8 01       		.uleb128 0x1
 3054 02c9 50       		.byte	0x50
 3055 02ca 9F       		.byte	0x9f
 3056 02cb 74000000 		.4byte	.LVL44
 3057 02cf 90000000 		.4byte	.LFE5
 3058 02d3 0500     		.2byte	0x5
 3059 02d5 0C       		.byte	0xc
 3060 02d6 40020640 		.4byte	0x40060240
 3061 02da 00000000 		.4byte	0
 3062 02de 00000000 		.4byte	0
 3063              	.LLST10:
 3064 02e2 00000000 		.4byte	.LVL30
 3065 02e6 0C000000 		.4byte	.LVL31
 3066 02ea 0200     		.2byte	0x2
ARM GAS  C:\Users\Computer\AppData\Local\Temp\cc3MlAIb.s 			page 77


 3067 02ec 34       		.byte	0x34
 3068 02ed 9F       		.byte	0x9f
 3069 02ee 10000000 		.4byte	.LVL32
 3070 02f2 30000000 		.4byte	.LVL35
 3071 02f6 0200     		.2byte	0x2
 3072 02f8 34       		.byte	0x34
 3073 02f9 9F       		.byte	0x9f
 3074 02fa 30000000 		.4byte	.LVL35
 3075 02fe 32000000 		.4byte	.LVL36
 3076 0302 0200     		.2byte	0x2
 3077 0304 32       		.byte	0x32
 3078 0305 9F       		.byte	0x9f
 3079 0306 32000000 		.4byte	.LVL36
 3080 030a 3A000000 		.4byte	.LVL37
 3081 030e 0100     		.2byte	0x1
 3082 0310 54       		.byte	0x54
 3083 0311 3A000000 		.4byte	.LVL37
 3084 0315 3E000000 		.4byte	.LVL38
 3085 0319 0200     		.2byte	0x2
 3086 031b 34       		.byte	0x34
 3087 031c 9F       		.byte	0x9f
 3088 031d 3E000000 		.4byte	.LVL38
 3089 0321 42000000 		.4byte	.LVL39
 3090 0325 0200     		.2byte	0x2
 3091 0327 30       		.byte	0x30
 3092 0328 9F       		.byte	0x9f
 3093 0329 42000000 		.4byte	.LVL39
 3094 032d 4C000000 		.4byte	.LVL40
 3095 0331 0200     		.2byte	0x2
 3096 0333 34       		.byte	0x34
 3097 0334 9F       		.byte	0x9f
 3098 0335 4C000000 		.4byte	.LVL40
 3099 0339 50000000 		.4byte	.LVL41
 3100 033d 0400     		.2byte	0x4
 3101 033f 0A       		.byte	0xa
 3102 0340 0001     		.2byte	0x100
 3103 0342 9F       		.byte	0x9f
 3104 0343 50000000 		.4byte	.LVL41
 3105 0347 74000000 		.4byte	.LVL44
 3106 034b 0100     		.2byte	0x1
 3107 034d 54       		.byte	0x54
 3108 034e 74000000 		.4byte	.LVL44
 3109 0352 78000000 		.4byte	.LVL45
 3110 0356 0200     		.2byte	0x2
 3111 0358 34       		.byte	0x34
 3112 0359 9F       		.byte	0x9f
 3113 035a 78000000 		.4byte	.LVL45
 3114 035e 90000000 		.4byte	.LFE5
 3115 0362 0200     		.2byte	0x2
 3116 0364 31       		.byte	0x31
 3117 0365 9F       		.byte	0x9f
 3118 0366 00000000 		.4byte	0
 3119 036a 00000000 		.4byte	0
 3120              	.LLST11:
 3121 036e 00000000 		.4byte	.LVL30
 3122 0372 0C000000 		.4byte	.LVL31
 3123 0376 0200     		.2byte	0x2
ARM GAS  C:\Users\Computer\AppData\Local\Temp\cc3MlAIb.s 			page 78


 3124 0378 30       		.byte	0x30
 3125 0379 9F       		.byte	0x9f
 3126 037a 10000000 		.4byte	.LVL32
 3127 037e 4C000000 		.4byte	.LVL40
 3128 0382 0200     		.2byte	0x2
 3129 0384 30       		.byte	0x30
 3130 0385 9F       		.byte	0x9f
 3131 0386 4C000000 		.4byte	.LVL40
 3132 038a 5C000000 		.4byte	.LVL42
 3133 038e 0200     		.2byte	0x2
 3134 0390 31       		.byte	0x31
 3135 0391 9F       		.byte	0x9f
 3136 0392 5C000000 		.4byte	.LVL42
 3137 0396 71000000 		.4byte	.LVL43-1
 3138 039a 0100     		.2byte	0x1
 3139 039c 50       		.byte	0x50
 3140 039d 74000000 		.4byte	.LVL44
 3141 03a1 78000000 		.4byte	.LVL45
 3142 03a5 0200     		.2byte	0x2
 3143 03a7 30       		.byte	0x30
 3144 03a8 9F       		.byte	0x9f
 3145 03a9 78000000 		.4byte	.LVL45
 3146 03ad 90000000 		.4byte	.LFE5
 3147 03b1 0200     		.2byte	0x2
 3148 03b3 31       		.byte	0x31
 3149 03b4 9F       		.byte	0x9f
 3150 03b5 00000000 		.4byte	0
 3151 03b9 00000000 		.4byte	0
 3152              	.LLST12:
 3153 03bd 00000000 		.4byte	.LFB6
 3154 03c1 02000000 		.4byte	.LCFI4
 3155 03c5 0200     		.2byte	0x2
 3156 03c7 7D       		.byte	0x7d
 3157 03c8 00       		.sleb128 0
 3158 03c9 02000000 		.4byte	.LCFI4
 3159 03cd 90000000 		.4byte	.LFE6
 3160 03d1 0200     		.2byte	0x2
 3161 03d3 7D       		.byte	0x7d
 3162 03d4 18       		.sleb128 24
 3163 03d5 00000000 		.4byte	0
 3164 03d9 00000000 		.4byte	0
 3165              	.LLST13:
 3166 03dd 00000000 		.4byte	.LVL46
 3167 03e1 0E000000 		.4byte	.LVL47
 3168 03e5 0100     		.2byte	0x1
 3169 03e7 50       		.byte	0x50
 3170 03e8 0E000000 		.4byte	.LVL47
 3171 03ec 10000000 		.4byte	.LVL48
 3172 03f0 0100     		.2byte	0x1
 3173 03f2 57       		.byte	0x57
 3174 03f3 10000000 		.4byte	.LVL48
 3175 03f7 12000000 		.4byte	.LVL49
 3176 03fb 0400     		.2byte	0x4
 3177 03fd F3       		.byte	0xf3
 3178 03fe 01       		.uleb128 0x1
 3179 03ff 50       		.byte	0x50
 3180 0400 9F       		.byte	0x9f
ARM GAS  C:\Users\Computer\AppData\Local\Temp\cc3MlAIb.s 			page 79


 3181 0401 12000000 		.4byte	.LVL49
 3182 0405 1C000000 		.4byte	.LVL50
 3183 0409 0100     		.2byte	0x1
 3184 040b 50       		.byte	0x50
 3185 040c 1C000000 		.4byte	.LVL50
 3186 0410 44000000 		.4byte	.LVL53
 3187 0414 0100     		.2byte	0x1
 3188 0416 57       		.byte	0x57
 3189 0417 44000000 		.4byte	.LVL53
 3190 041b 6A000000 		.4byte	.LVL56
 3191 041f 0400     		.2byte	0x4
 3192 0421 F3       		.byte	0xf3
 3193 0422 01       		.uleb128 0x1
 3194 0423 50       		.byte	0x50
 3195 0424 9F       		.byte	0x9f
 3196 0425 6A000000 		.4byte	.LVL56
 3197 0429 90000000 		.4byte	.LFE6
 3198 042d 0100     		.2byte	0x1
 3199 042f 57       		.byte	0x57
 3200 0430 00000000 		.4byte	0
 3201 0434 00000000 		.4byte	0
 3202              	.LLST14:
 3203 0438 00000000 		.4byte	.LVL46
 3204 043c 10000000 		.4byte	.LVL48
 3205 0440 0300     		.2byte	0x3
 3206 0442 09       		.byte	0x9
 3207 0443 FF       		.byte	0xff
 3208 0444 9F       		.byte	0x9f
 3209 0445 10000000 		.4byte	.LVL48
 3210 0449 12000000 		.4byte	.LVL49
 3211 044d 0100     		.2byte	0x1
 3212 044f 50       		.byte	0x50
 3213 0450 12000000 		.4byte	.LVL49
 3214 0454 36000000 		.4byte	.LVL51
 3215 0458 0300     		.2byte	0x3
 3216 045a 09       		.byte	0x9
 3217 045b FF       		.byte	0xff
 3218 045c 9F       		.byte	0x9f
 3219 045d 36000000 		.4byte	.LVL51
 3220 0461 42000000 		.4byte	.LVL52
 3221 0465 0100     		.2byte	0x1
 3222 0467 50       		.byte	0x50
 3223 0468 42000000 		.4byte	.LVL52
 3224 046c 6A000000 		.4byte	.LVL56
 3225 0470 0300     		.2byte	0x3
 3226 0472 09       		.byte	0x9
 3227 0473 FF       		.byte	0xff
 3228 0474 9F       		.byte	0x9f
 3229 0475 6A000000 		.4byte	.LVL56
 3230 0479 90000000 		.4byte	.LFE6
 3231 047d 0100     		.2byte	0x1
 3232 047f 50       		.byte	0x50
 3233 0480 00000000 		.4byte	0
 3234 0484 00000000 		.4byte	0
 3235              	.LLST15:
 3236 0488 4E000000 		.4byte	.LVL54
 3237 048c 63000000 		.4byte	.LVL55-1
ARM GAS  C:\Users\Computer\AppData\Local\Temp\cc3MlAIb.s 			page 80


 3238 0490 0100     		.2byte	0x1
 3239 0492 50       		.byte	0x50
 3240 0493 00000000 		.4byte	0
 3241 0497 00000000 		.4byte	0
 3242              	.LLST16:
 3243 049b 00000000 		.4byte	.LFB11
 3244 049f 02000000 		.4byte	.LCFI5
 3245 04a3 0200     		.2byte	0x2
 3246 04a5 7D       		.byte	0x7d
 3247 04a6 00       		.sleb128 0
 3248 04a7 02000000 		.4byte	.LCFI5
 3249 04ab 1C000000 		.4byte	.LFE11
 3250 04af 0200     		.2byte	0x2
 3251 04b1 7D       		.byte	0x7d
 3252 04b2 04       		.sleb128 4
 3253 04b3 00000000 		.4byte	0
 3254 04b7 00000000 		.4byte	0
 3255              	.LLST17:
 3256 04bb 08000000 		.4byte	.LVL57
 3257 04bf 12000000 		.4byte	.LVL58
 3258 04c3 0700     		.2byte	0x7
 3259 04c5 70       		.byte	0x70
 3260 04c6 00       		.sleb128 0
 3261 04c7 0A       		.byte	0xa
 3262 04c8 FFFF     		.2byte	0xffff
 3263 04ca 1A       		.byte	0x1a
 3264 04cb 9F       		.byte	0x9f
 3265 04cc 12000000 		.4byte	.LVL58
 3266 04d0 1C000000 		.4byte	.LFE11
 3267 04d4 0100     		.2byte	0x1
 3268 04d6 50       		.byte	0x50
 3269 04d7 00000000 		.4byte	0
 3270 04db 00000000 		.4byte	0
 3271              	.LLST18:
 3272 04df 00000000 		.4byte	.LFB13
 3273 04e3 04000000 		.4byte	.LCFI6
 3274 04e7 0200     		.2byte	0x2
 3275 04e9 7D       		.byte	0x7d
 3276 04ea 00       		.sleb128 0
 3277 04eb 04000000 		.4byte	.LCFI6
 3278 04ef A0000000 		.4byte	.LFE13
 3279 04f3 0200     		.2byte	0x2
 3280 04f5 7D       		.byte	0x7d
 3281 04f6 10       		.sleb128 16
 3282 04f7 00000000 		.4byte	0
 3283 04fb 00000000 		.4byte	0
 3284              	.LLST19:
 3285 04ff 00000000 		.4byte	.LFB3
 3286 0503 02000000 		.4byte	.LCFI7
 3287 0507 0200     		.2byte	0x2
 3288 0509 7D       		.byte	0x7d
 3289 050a 00       		.sleb128 0
 3290 050b 02000000 		.4byte	.LCFI7
 3291 050f BC000000 		.4byte	.LFE3
 3292 0513 0200     		.2byte	0x2
 3293 0515 7D       		.byte	0x7d
 3294 0516 10       		.sleb128 16
ARM GAS  C:\Users\Computer\AppData\Local\Temp\cc3MlAIb.s 			page 81


 3295 0517 00000000 		.4byte	0
 3296 051b 00000000 		.4byte	0
 3297              	.LLST20:
 3298 051f 00000000 		.4byte	.LVL70
 3299 0523 0C000000 		.4byte	.LVL71
 3300 0527 0100     		.2byte	0x1
 3301 0529 50       		.byte	0x50
 3302 052a 10000000 		.4byte	.LVL72
 3303 052e 12000000 		.4byte	.LVL73
 3304 0532 0100     		.2byte	0x1
 3305 0534 50       		.byte	0x50
 3306 0535 12000000 		.4byte	.LVL73
 3307 0539 16000000 		.4byte	.LVL74
 3308 053d 0400     		.2byte	0x4
 3309 053f F3       		.byte	0xf3
 3310 0540 01       		.uleb128 0x1
 3311 0541 50       		.byte	0x50
 3312 0542 9F       		.byte	0x9f
 3313 0543 16000000 		.4byte	.LVL74
 3314 0547 3E000000 		.4byte	.LVL78
 3315 054b 0100     		.2byte	0x1
 3316 054d 55       		.byte	0x55
 3317 054e 3E000000 		.4byte	.LVL78
 3318 0552 48000000 		.4byte	.LVL79
 3319 0556 0200     		.2byte	0x2
 3320 0558 71       		.byte	0x71
 3321 0559 00       		.sleb128 0
 3322 055a 48000000 		.4byte	.LVL79
 3323 055e 6B000000 		.4byte	.LVL82-1
 3324 0562 0500     		.2byte	0x5
 3325 0564 0C       		.byte	0xc
 3326 0565 40020640 		.4byte	0x40060240
 3327 0569 84000000 		.4byte	.LVL84
 3328 056d 8A000000 		.4byte	.LVL85
 3329 0571 0100     		.2byte	0x1
 3330 0573 55       		.byte	0x55
 3331 0574 8A000000 		.4byte	.LVL85
 3332 0578 BC000000 		.4byte	.LFE3
 3333 057c 0500     		.2byte	0x5
 3334 057e 0C       		.byte	0xc
 3335 057f 40020640 		.4byte	0x40060240
 3336 0583 00000000 		.4byte	0
 3337 0587 00000000 		.4byte	0
 3338              	.LLST21:
 3339 058b 00000000 		.4byte	.LVL70
 3340 058f 0C000000 		.4byte	.LVL71
 3341 0593 0100     		.2byte	0x1
 3342 0595 51       		.byte	0x51
 3343 0596 0C000000 		.4byte	.LVL71
 3344 059a 10000000 		.4byte	.LVL72
 3345 059e 0400     		.2byte	0x4
 3346 05a0 F3       		.byte	0xf3
 3347 05a1 01       		.uleb128 0x1
 3348 05a2 51       		.byte	0x51
 3349 05a3 9F       		.byte	0x9f
 3350 05a4 10000000 		.4byte	.LVL72
 3351 05a8 1C000000 		.4byte	.LVL75
ARM GAS  C:\Users\Computer\AppData\Local\Temp\cc3MlAIb.s 			page 82


 3352 05ac 0100     		.2byte	0x1
 3353 05ae 51       		.byte	0x51
 3354 05af 1C000000 		.4byte	.LVL75
 3355 05b3 84000000 		.4byte	.LVL84
 3356 05b7 0400     		.2byte	0x4
 3357 05b9 F3       		.byte	0xf3
 3358 05ba 01       		.uleb128 0x1
 3359 05bb 51       		.byte	0x51
 3360 05bc 9F       		.byte	0x9f
 3361 05bd 84000000 		.4byte	.LVL84
 3362 05c1 8A000000 		.4byte	.LVL85
 3363 05c5 0100     		.2byte	0x1
 3364 05c7 51       		.byte	0x51
 3365 05c8 8A000000 		.4byte	.LVL85
 3366 05cc BC000000 		.4byte	.LFE3
 3367 05d0 0400     		.2byte	0x4
 3368 05d2 F3       		.byte	0xf3
 3369 05d3 01       		.uleb128 0x1
 3370 05d4 51       		.byte	0x51
 3371 05d5 9F       		.byte	0x9f
 3372 05d6 00000000 		.4byte	0
 3373 05da 00000000 		.4byte	0
 3374              	.LLST22:
 3375 05de 00000000 		.4byte	.LVL70
 3376 05e2 0C000000 		.4byte	.LVL71
 3377 05e6 0200     		.2byte	0x2
 3378 05e8 34       		.byte	0x34
 3379 05e9 9F       		.byte	0x9f
 3380 05ea 10000000 		.4byte	.LVL72
 3381 05ee 5C000000 		.4byte	.LVL80
 3382 05f2 0200     		.2byte	0x2
 3383 05f4 34       		.byte	0x34
 3384 05f5 9F       		.byte	0x9f
 3385 05f6 5C000000 		.4byte	.LVL80
 3386 05fa 60000000 		.4byte	.LVL81
 3387 05fe 0400     		.2byte	0x4
 3388 0600 0A       		.byte	0xa
 3389 0601 0001     		.2byte	0x100
 3390 0603 9F       		.byte	0x9f
 3391 0604 60000000 		.4byte	.LVL81
 3392 0608 84000000 		.4byte	.LVL84
 3393 060c 0100     		.2byte	0x1
 3394 060e 55       		.byte	0x55
 3395 060f 84000000 		.4byte	.LVL84
 3396 0613 8C000000 		.4byte	.LVL86
 3397 0617 0200     		.2byte	0x2
 3398 0619 34       		.byte	0x34
 3399 061a 9F       		.byte	0x9f
 3400 061b 8C000000 		.4byte	.LVL86
 3401 061f 94000000 		.4byte	.LVL87
 3402 0623 0100     		.2byte	0x1
 3403 0625 55       		.byte	0x55
 3404 0626 94000000 		.4byte	.LVL87
 3405 062a 9C000000 		.4byte	.LVL88
 3406 062e 0200     		.2byte	0x2
 3407 0630 34       		.byte	0x34
 3408 0631 9F       		.byte	0x9f
ARM GAS  C:\Users\Computer\AppData\Local\Temp\cc3MlAIb.s 			page 83


 3409 0632 9C000000 		.4byte	.LVL88
 3410 0636 BC000000 		.4byte	.LFE3
 3411 063a 0200     		.2byte	0x2
 3412 063c 31       		.byte	0x31
 3413 063d 9F       		.byte	0x9f
 3414 063e 00000000 		.4byte	0
 3415 0642 00000000 		.4byte	0
 3416              	.LLST23:
 3417 0646 00000000 		.4byte	.LVL70
 3418 064a 0C000000 		.4byte	.LVL71
 3419 064e 0200     		.2byte	0x2
 3420 0650 30       		.byte	0x30
 3421 0651 9F       		.byte	0x9f
 3422 0652 10000000 		.4byte	.LVL72
 3423 0656 5C000000 		.4byte	.LVL80
 3424 065a 0200     		.2byte	0x2
 3425 065c 30       		.byte	0x30
 3426 065d 9F       		.byte	0x9f
 3427 065e 5C000000 		.4byte	.LVL80
 3428 0662 6C000000 		.4byte	.LVL82
 3429 0666 0200     		.2byte	0x2
 3430 0668 31       		.byte	0x31
 3431 0669 9F       		.byte	0x9f
 3432 066a 6C000000 		.4byte	.LVL82
 3433 066e 81000000 		.4byte	.LVL83-1
 3434 0672 0100     		.2byte	0x1
 3435 0674 50       		.byte	0x50
 3436 0675 84000000 		.4byte	.LVL84
 3437 0679 9C000000 		.4byte	.LVL88
 3438 067d 0200     		.2byte	0x2
 3439 067f 30       		.byte	0x30
 3440 0680 9F       		.byte	0x9f
 3441 0681 9C000000 		.4byte	.LVL88
 3442 0685 BC000000 		.4byte	.LFE3
 3443 0689 0200     		.2byte	0x2
 3444 068b 31       		.byte	0x31
 3445 068c 9F       		.byte	0x9f
 3446 068d 00000000 		.4byte	0
 3447 0691 00000000 		.4byte	0
 3448              	.LLST24:
 3449 0695 00000000 		.4byte	.LFB1
 3450 0699 02000000 		.4byte	.LCFI8
 3451 069d 0200     		.2byte	0x2
 3452 069f 7D       		.byte	0x7d
 3453 06a0 00       		.sleb128 0
 3454 06a1 02000000 		.4byte	.LCFI8
 3455 06a5 08000000 		.4byte	.LCFI9
 3456 06a9 0200     		.2byte	0x2
 3457 06ab 7D       		.byte	0x7d
 3458 06ac 18       		.sleb128 24
 3459 06ad 08000000 		.4byte	.LCFI9
 3460 06b1 F8000000 		.4byte	.LFE1
 3461 06b5 0200     		.2byte	0x2
 3462 06b7 7D       		.byte	0x7d
 3463 06b8 20       		.sleb128 32
 3464 06b9 00000000 		.4byte	0
 3465 06bd 00000000 		.4byte	0
ARM GAS  C:\Users\Computer\AppData\Local\Temp\cc3MlAIb.s 			page 84


 3466              	.LLST25:
 3467 06c1 00000000 		.4byte	.LVL89
 3468 06c5 24000000 		.4byte	.LVL92
 3469 06c9 0100     		.2byte	0x1
 3470 06cb 50       		.byte	0x50
 3471 06cc 32000000 		.4byte	.LVL95
 3472 06d0 38000000 		.4byte	.LVL97
 3473 06d4 0100     		.2byte	0x1
 3474 06d6 50       		.byte	0x50
 3475 06d7 38000000 		.4byte	.LVL97
 3476 06db 70000000 		.4byte	.LVL101
 3477 06df 0100     		.2byte	0x1
 3478 06e1 58       		.byte	0x58
 3479 06e2 70000000 		.4byte	.LVL101
 3480 06e6 7E000000 		.4byte	.LVL103
 3481 06ea 0100     		.2byte	0x1
 3482 06ec 56       		.byte	0x56
 3483 06ed 7E000000 		.4byte	.LVL103
 3484 06f1 80000000 		.4byte	.LVL104
 3485 06f5 0200     		.2byte	0x2
 3486 06f7 77       		.byte	0x77
 3487 06f8 00       		.sleb128 0
 3488 06f9 80000000 		.4byte	.LVL104
 3489 06fd A6000000 		.4byte	.LVL105
 3490 0701 0500     		.2byte	0x5
 3491 0703 0C       		.byte	0xc
 3492 0704 40020640 		.4byte	0x40060240
 3493 0708 A6000000 		.4byte	.LVL105
 3494 070c B0000000 		.4byte	.LVL107
 3495 0710 0100     		.2byte	0x1
 3496 0712 56       		.byte	0x56
 3497 0713 B0000000 		.4byte	.LVL107
 3498 0717 B3000000 		.4byte	.LVL108-1
 3499 071b 0100     		.2byte	0x1
 3500 071d 50       		.byte	0x50
 3501 071e B3000000 		.4byte	.LVL108-1
 3502 0722 F8000000 		.4byte	.LFE1
 3503 0726 0100     		.2byte	0x1
 3504 0728 58       		.byte	0x58
 3505 0729 00000000 		.4byte	0
 3506 072d 00000000 		.4byte	0
 3507              	.LLST26:
 3508 0731 00000000 		.4byte	.LVL89
 3509 0735 18000000 		.4byte	.LVL90
 3510 0739 0100     		.2byte	0x1
 3511 073b 51       		.byte	0x51
 3512 073c 18000000 		.4byte	.LVL90
 3513 0740 24000000 		.4byte	.LVL92
 3514 0744 0100     		.2byte	0x1
 3515 0746 56       		.byte	0x56
 3516 0747 24000000 		.4byte	.LVL92
 3517 074b 32000000 		.4byte	.LVL95
 3518 074f 0400     		.2byte	0x4
 3519 0751 F3       		.byte	0xf3
 3520 0752 01       		.uleb128 0x1
 3521 0753 51       		.byte	0x51
 3522 0754 9F       		.byte	0x9f
ARM GAS  C:\Users\Computer\AppData\Local\Temp\cc3MlAIb.s 			page 85


 3523 0755 32000000 		.4byte	.LVL95
 3524 0759 36000000 		.4byte	.LVL96
 3525 075d 0100     		.2byte	0x1
 3526 075f 51       		.byte	0x51
 3527 0760 36000000 		.4byte	.LVL96
 3528 0764 56000000 		.4byte	.LVL100
 3529 0768 0100     		.2byte	0x1
 3530 076a 56       		.byte	0x56
 3531 076b 56000000 		.4byte	.LVL100
 3532 076f 80000000 		.4byte	.LVL104
 3533 0773 0500     		.2byte	0x5
 3534 0775 03       		.byte	0x3
 3535 0776 00000000 		.4byte	RTC_mstrRdBufPtr
 3536 077a 80000000 		.4byte	.LVL104
 3537 077e A6000000 		.4byte	.LVL105
 3538 0782 0400     		.2byte	0x4
 3539 0784 F3       		.byte	0xf3
 3540 0785 01       		.uleb128 0x1
 3541 0786 51       		.byte	0x51
 3542 0787 9F       		.byte	0x9f
 3543 0788 A6000000 		.4byte	.LVL105
 3544 078c A9000000 		.4byte	.LVL106-1
 3545 0790 0500     		.2byte	0x5
 3546 0792 03       		.byte	0x3
 3547 0793 00000000 		.4byte	RTC_mstrRdBufPtr
 3548 0797 A9000000 		.4byte	.LVL106-1
 3549 079b B0000000 		.4byte	.LVL107
 3550 079f 0400     		.2byte	0x4
 3551 07a1 F3       		.byte	0xf3
 3552 07a2 01       		.uleb128 0x1
 3553 07a3 51       		.byte	0x51
 3554 07a4 9F       		.byte	0x9f
 3555 07a5 B0000000 		.4byte	.LVL107
 3556 07a9 F8000000 		.4byte	.LFE1
 3557 07ad 0100     		.2byte	0x1
 3558 07af 56       		.byte	0x56
 3559 07b0 00000000 		.4byte	0
 3560 07b4 00000000 		.4byte	0
 3561              	.LLST27:
 3562 07b8 00000000 		.4byte	.LVL89
 3563 07bc 24000000 		.4byte	.LVL92
 3564 07c0 0100     		.2byte	0x1
 3565 07c2 52       		.byte	0x52
 3566 07c3 24000000 		.4byte	.LVL92
 3567 07c7 2A000000 		.4byte	.LVL94
 3568 07cb 0100     		.2byte	0x1
 3569 07cd 59       		.byte	0x59
 3570 07ce 2A000000 		.4byte	.LVL94
 3571 07d2 32000000 		.4byte	.LVL95
 3572 07d6 0400     		.2byte	0x4
 3573 07d8 F3       		.byte	0xf3
 3574 07d9 01       		.uleb128 0x1
 3575 07da 52       		.byte	0x52
 3576 07db 9F       		.byte	0x9f
 3577 07dc 32000000 		.4byte	.LVL95
 3578 07e0 3C000000 		.4byte	.LVL98
 3579 07e4 0100     		.2byte	0x1
ARM GAS  C:\Users\Computer\AppData\Local\Temp\cc3MlAIb.s 			page 86


 3580 07e6 52       		.byte	0x52
 3581 07e7 3C000000 		.4byte	.LVL98
 3582 07eb B0000000 		.4byte	.LVL107
 3583 07ef 0100     		.2byte	0x1
 3584 07f1 59       		.byte	0x59
 3585 07f2 B0000000 		.4byte	.LVL107
 3586 07f6 B3000000 		.4byte	.LVL108-1
 3587 07fa 0100     		.2byte	0x1
 3588 07fc 52       		.byte	0x52
 3589 07fd B3000000 		.4byte	.LVL108-1
 3590 0801 F8000000 		.4byte	.LFE1
 3591 0805 0100     		.2byte	0x1
 3592 0807 59       		.byte	0x59
 3593 0808 00000000 		.4byte	0
 3594 080c 00000000 		.4byte	0
 3595              	.LLST28:
 3596 0810 00000000 		.4byte	.LVL89
 3597 0814 1E000000 		.4byte	.LVL91
 3598 0818 0100     		.2byte	0x1
 3599 081a 53       		.byte	0x53
 3600 081b 1E000000 		.4byte	.LVL91
 3601 081f 24000000 		.4byte	.LVL92
 3602 0823 0100     		.2byte	0x1
 3603 0825 57       		.byte	0x57
 3604 0826 24000000 		.4byte	.LVL92
 3605 082a 32000000 		.4byte	.LVL95
 3606 082e 0400     		.2byte	0x4
 3607 0830 F3       		.byte	0xf3
 3608 0831 01       		.uleb128 0x1
 3609 0832 53       		.byte	0x53
 3610 0833 9F       		.byte	0x9f
 3611 0834 32000000 		.4byte	.LVL95
 3612 0838 36000000 		.4byte	.LVL96
 3613 083c 0100     		.2byte	0x1
 3614 083e 53       		.byte	0x53
 3615 083f 36000000 		.4byte	.LVL96
 3616 0843 78000000 		.4byte	.LVL102
 3617 0847 0100     		.2byte	0x1
 3618 0849 57       		.byte	0x57
 3619 084a 78000000 		.4byte	.LVL102
 3620 084e A6000000 		.4byte	.LVL105
 3621 0852 0400     		.2byte	0x4
 3622 0854 F3       		.byte	0xf3
 3623 0855 01       		.uleb128 0x1
 3624 0856 53       		.byte	0x53
 3625 0857 9F       		.byte	0x9f
 3626 0858 A6000000 		.4byte	.LVL105
 3627 085c B0000000 		.4byte	.LVL107
 3628 0860 0100     		.2byte	0x1
 3629 0862 57       		.byte	0x57
 3630 0863 B0000000 		.4byte	.LVL107
 3631 0867 B3000000 		.4byte	.LVL108-1
 3632 086b 0100     		.2byte	0x1
 3633 086d 53       		.byte	0x53
 3634 086e B3000000 		.4byte	.LVL108-1
 3635 0872 F8000000 		.4byte	.LFE1
 3636 0876 0100     		.2byte	0x1
ARM GAS  C:\Users\Computer\AppData\Local\Temp\cc3MlAIb.s 			page 87


 3637 0878 57       		.byte	0x57
 3638 0879 00000000 		.4byte	0
 3639 087d 00000000 		.4byte	0
 3640              	.LLST29:
 3641 0881 00000000 		.4byte	.LVL89
 3642 0885 24000000 		.4byte	.LVL92
 3643 0889 0200     		.2byte	0x2
 3644 088b 34       		.byte	0x34
 3645 088c 9F       		.byte	0x9f
 3646 088d 32000000 		.4byte	.LVL95
 3647 0891 40000000 		.4byte	.LVL99
 3648 0895 0200     		.2byte	0x2
 3649 0897 34       		.byte	0x34
 3650 0898 9F       		.byte	0x9f
 3651 0899 40000000 		.4byte	.LVL99
 3652 089d B0000000 		.4byte	.LVL107
 3653 08a1 0200     		.2byte	0x2
 3654 08a3 30       		.byte	0x30
 3655 08a4 9F       		.byte	0x9f
 3656 08a5 B0000000 		.4byte	.LVL107
 3657 08a9 F8000000 		.4byte	.LFE1
 3658 08ad 0200     		.2byte	0x2
 3659 08af 34       		.byte	0x34
 3660 08b0 9F       		.byte	0x9f
 3661 08b1 00000000 		.4byte	0
 3662 08b5 00000000 		.4byte	0
 3663              	.LLST30:
 3664 08b9 00000000 		.4byte	.LFB0
 3665 08bd 02000000 		.4byte	.LCFI10
 3666 08c1 0200     		.2byte	0x2
 3667 08c3 7D       		.byte	0x7d
 3668 08c4 00       		.sleb128 0
 3669 08c5 02000000 		.4byte	.LCFI10
 3670 08c9 08000000 		.4byte	.LCFI11
 3671 08cd 0200     		.2byte	0x2
 3672 08cf 7D       		.byte	0x7d
 3673 08d0 18       		.sleb128 24
 3674 08d1 08000000 		.4byte	.LCFI11
 3675 08d5 E4000000 		.4byte	.LFE0
 3676 08d9 0200     		.2byte	0x2
 3677 08db 7D       		.byte	0x7d
 3678 08dc 20       		.sleb128 32
 3679 08dd 00000000 		.4byte	0
 3680 08e1 00000000 		.4byte	0
 3681              	.LLST31:
 3682 08e5 00000000 		.4byte	.LVL109
 3683 08e9 24000000 		.4byte	.LVL112
 3684 08ed 0100     		.2byte	0x1
 3685 08ef 50       		.byte	0x50
 3686 08f0 32000000 		.4byte	.LVL115
 3687 08f4 38000000 		.4byte	.LVL117
 3688 08f8 0100     		.2byte	0x1
 3689 08fa 50       		.byte	0x50
 3690 08fb 38000000 		.4byte	.LVL117
 3691 08ff 6E000000 		.4byte	.LVL121
 3692 0903 0100     		.2byte	0x1
 3693 0905 58       		.byte	0x58
ARM GAS  C:\Users\Computer\AppData\Local\Temp\cc3MlAIb.s 			page 88


 3694 0906 6E000000 		.4byte	.LVL121
 3695 090a 84000000 		.4byte	.LVL123
 3696 090e 0100     		.2byte	0x1
 3697 0910 55       		.byte	0x55
 3698 0911 84000000 		.4byte	.LVL123
 3699 0915 86000000 		.4byte	.LVL124
 3700 0919 0200     		.2byte	0x2
 3701 091b 77       		.byte	0x77
 3702 091c 00       		.sleb128 0
 3703 091d 86000000 		.4byte	.LVL124
 3704 0921 90000000 		.4byte	.LVL125
 3705 0925 0500     		.2byte	0x5
 3706 0927 0C       		.byte	0xc
 3707 0928 40020640 		.4byte	0x40060240
 3708 092c 90000000 		.4byte	.LVL125
 3709 0930 9A000000 		.4byte	.LVL127
 3710 0934 0100     		.2byte	0x1
 3711 0936 55       		.byte	0x55
 3712 0937 9A000000 		.4byte	.LVL127
 3713 093b 9D000000 		.4byte	.LVL128-1
 3714 093f 0100     		.2byte	0x1
 3715 0941 50       		.byte	0x50
 3716 0942 9D000000 		.4byte	.LVL128-1
 3717 0946 E4000000 		.4byte	.LFE0
 3718 094a 0100     		.2byte	0x1
 3719 094c 58       		.byte	0x58
 3720 094d 00000000 		.4byte	0
 3721 0951 00000000 		.4byte	0
 3722              	.LLST32:
 3723 0955 00000000 		.4byte	.LVL109
 3724 0959 18000000 		.4byte	.LVL110
 3725 095d 0100     		.2byte	0x1
 3726 095f 51       		.byte	0x51
 3727 0960 18000000 		.4byte	.LVL110
 3728 0964 24000000 		.4byte	.LVL112
 3729 0968 0100     		.2byte	0x1
 3730 096a 56       		.byte	0x56
 3731 096b 24000000 		.4byte	.LVL112
 3732 096f 32000000 		.4byte	.LVL115
 3733 0973 0400     		.2byte	0x4
 3734 0975 F3       		.byte	0xf3
 3735 0976 01       		.uleb128 0x1
 3736 0977 51       		.byte	0x51
 3737 0978 9F       		.byte	0x9f
 3738 0979 32000000 		.4byte	.LVL115
 3739 097d 36000000 		.4byte	.LVL116
 3740 0981 0100     		.2byte	0x1
 3741 0983 51       		.byte	0x51
 3742 0984 36000000 		.4byte	.LVL116
 3743 0988 5A000000 		.4byte	.LVL120
 3744 098c 0100     		.2byte	0x1
 3745 098e 56       		.byte	0x56
 3746 098f 5A000000 		.4byte	.LVL120
 3747 0993 86000000 		.4byte	.LVL124
 3748 0997 0500     		.2byte	0x5
 3749 0999 03       		.byte	0x3
 3750 099a 00000000 		.4byte	RTC_mstrWrBufPtr
ARM GAS  C:\Users\Computer\AppData\Local\Temp\cc3MlAIb.s 			page 89


 3751 099e 86000000 		.4byte	.LVL124
 3752 09a2 90000000 		.4byte	.LVL125
 3753 09a6 0400     		.2byte	0x4
 3754 09a8 F3       		.byte	0xf3
 3755 09a9 01       		.uleb128 0x1
 3756 09aa 51       		.byte	0x51
 3757 09ab 9F       		.byte	0x9f
 3758 09ac 90000000 		.4byte	.LVL125
 3759 09b0 95000000 		.4byte	.LVL126-1
 3760 09b4 0500     		.2byte	0x5
 3761 09b6 03       		.byte	0x3
 3762 09b7 00000000 		.4byte	RTC_mstrWrBufPtr
 3763 09bb 95000000 		.4byte	.LVL126-1
 3764 09bf 9A000000 		.4byte	.LVL127
 3765 09c3 0400     		.2byte	0x4
 3766 09c5 F3       		.byte	0xf3
 3767 09c6 01       		.uleb128 0x1
 3768 09c7 51       		.byte	0x51
 3769 09c8 9F       		.byte	0x9f
 3770 09c9 9A000000 		.4byte	.LVL127
 3771 09cd E4000000 		.4byte	.LFE0
 3772 09d1 0100     		.2byte	0x1
 3773 09d3 56       		.byte	0x56
 3774 09d4 00000000 		.4byte	0
 3775 09d8 00000000 		.4byte	0
 3776              	.LLST33:
 3777 09dc 00000000 		.4byte	.LVL109
 3778 09e0 24000000 		.4byte	.LVL112
 3779 09e4 0100     		.2byte	0x1
 3780 09e6 52       		.byte	0x52
 3781 09e7 24000000 		.4byte	.LVL112
 3782 09eb 2A000000 		.4byte	.LVL114
 3783 09ef 0100     		.2byte	0x1
 3784 09f1 59       		.byte	0x59
 3785 09f2 2A000000 		.4byte	.LVL114
 3786 09f6 32000000 		.4byte	.LVL115
 3787 09fa 0400     		.2byte	0x4
 3788 09fc F3       		.byte	0xf3
 3789 09fd 01       		.uleb128 0x1
 3790 09fe 52       		.byte	0x52
 3791 09ff 9F       		.byte	0x9f
 3792 0a00 32000000 		.4byte	.LVL115
 3793 0a04 3C000000 		.4byte	.LVL118
 3794 0a08 0100     		.2byte	0x1
 3795 0a0a 52       		.byte	0x52
 3796 0a0b 3C000000 		.4byte	.LVL118
 3797 0a0f 9A000000 		.4byte	.LVL127
 3798 0a13 0100     		.2byte	0x1
 3799 0a15 59       		.byte	0x59
 3800 0a16 9A000000 		.4byte	.LVL127
 3801 0a1a 9D000000 		.4byte	.LVL128-1
 3802 0a1e 0100     		.2byte	0x1
 3803 0a20 52       		.byte	0x52
 3804 0a21 9D000000 		.4byte	.LVL128-1
 3805 0a25 E4000000 		.4byte	.LFE0
 3806 0a29 0100     		.2byte	0x1
 3807 0a2b 59       		.byte	0x59
ARM GAS  C:\Users\Computer\AppData\Local\Temp\cc3MlAIb.s 			page 90


 3808 0a2c 00000000 		.4byte	0
 3809 0a30 00000000 		.4byte	0
 3810              	.LLST34:
 3811 0a34 00000000 		.4byte	.LVL109
 3812 0a38 1E000000 		.4byte	.LVL111
 3813 0a3c 0100     		.2byte	0x1
 3814 0a3e 53       		.byte	0x53
 3815 0a3f 1E000000 		.4byte	.LVL111
 3816 0a43 24000000 		.4byte	.LVL112
 3817 0a47 0100     		.2byte	0x1
 3818 0a49 57       		.byte	0x57
 3819 0a4a 24000000 		.4byte	.LVL112
 3820 0a4e 32000000 		.4byte	.LVL115
 3821 0a52 0400     		.2byte	0x4
 3822 0a54 F3       		.byte	0xf3
 3823 0a55 01       		.uleb128 0x1
 3824 0a56 53       		.byte	0x53
 3825 0a57 9F       		.byte	0x9f
 3826 0a58 32000000 		.4byte	.LVL115
 3827 0a5c 36000000 		.4byte	.LVL116
 3828 0a60 0100     		.2byte	0x1
 3829 0a62 53       		.byte	0x53
 3830 0a63 36000000 		.4byte	.LVL116
 3831 0a67 80000000 		.4byte	.LVL122
 3832 0a6b 0100     		.2byte	0x1
 3833 0a6d 57       		.byte	0x57
 3834 0a6e 80000000 		.4byte	.LVL122
 3835 0a72 90000000 		.4byte	.LVL125
 3836 0a76 0400     		.2byte	0x4
 3837 0a78 F3       		.byte	0xf3
 3838 0a79 01       		.uleb128 0x1
 3839 0a7a 53       		.byte	0x53
 3840 0a7b 9F       		.byte	0x9f
 3841 0a7c 90000000 		.4byte	.LVL125
 3842 0a80 9A000000 		.4byte	.LVL127
 3843 0a84 0100     		.2byte	0x1
 3844 0a86 57       		.byte	0x57
 3845 0a87 9A000000 		.4byte	.LVL127
 3846 0a8b 9D000000 		.4byte	.LVL128-1
 3847 0a8f 0100     		.2byte	0x1
 3848 0a91 53       		.byte	0x53
 3849 0a92 9D000000 		.4byte	.LVL128-1
 3850 0a96 E4000000 		.4byte	.LFE0
 3851 0a9a 0100     		.2byte	0x1
 3852 0a9c 57       		.byte	0x57
 3853 0a9d 00000000 		.4byte	0
 3854 0aa1 00000000 		.4byte	0
 3855              	.LLST35:
 3856 0aa5 00000000 		.4byte	.LVL109
 3857 0aa9 24000000 		.4byte	.LVL112
 3858 0aad 0200     		.2byte	0x2
 3859 0aaf 34       		.byte	0x34
 3860 0ab0 9F       		.byte	0x9f
 3861 0ab1 32000000 		.4byte	.LVL115
 3862 0ab5 40000000 		.4byte	.LVL119
 3863 0ab9 0200     		.2byte	0x2
 3864 0abb 34       		.byte	0x34
ARM GAS  C:\Users\Computer\AppData\Local\Temp\cc3MlAIb.s 			page 91


 3865 0abc 9F       		.byte	0x9f
 3866 0abd 40000000 		.4byte	.LVL119
 3867 0ac1 9A000000 		.4byte	.LVL127
 3868 0ac5 0200     		.2byte	0x2
 3869 0ac7 30       		.byte	0x30
 3870 0ac8 9F       		.byte	0x9f
 3871 0ac9 9A000000 		.4byte	.LVL127
 3872 0acd E4000000 		.4byte	.LFE0
 3873 0ad1 0200     		.2byte	0x2
 3874 0ad3 34       		.byte	0x34
 3875 0ad4 9F       		.byte	0x9f
 3876 0ad5 00000000 		.4byte	0
 3877 0ad9 00000000 		.4byte	0
 3878              		.section	.debug_aranges,"",%progbits
 3879 0000 84000000 		.4byte	0x84
 3880 0004 0200     		.2byte	0x2
 3881 0006 00000000 		.4byte	.Ldebug_info0
 3882 000a 04       		.byte	0x4
 3883 000b 00       		.byte	0
 3884 000c 0000     		.2byte	0
 3885 000e 0000     		.2byte	0
 3886 0010 00000000 		.4byte	.LFB2
 3887 0014 D4000000 		.4byte	.LFE2-.LFB2
 3888 0018 00000000 		.4byte	.LFB4
 3889 001c 8C000000 		.4byte	.LFE4-.LFB4
 3890 0020 00000000 		.4byte	.LFB5
 3891 0024 90000000 		.4byte	.LFE5-.LFB5
 3892 0028 00000000 		.4byte	.LFB6
 3893 002c 90000000 		.4byte	.LFE6-.LFB6
 3894 0030 00000000 		.4byte	.LFB7
 3895 0034 0C000000 		.4byte	.LFE7-.LFB7
 3896 0038 00000000 		.4byte	.LFB8
 3897 003c 0C000000 		.4byte	.LFE8-.LFB8
 3898 0040 00000000 		.4byte	.LFB9
 3899 0044 1C000000 		.4byte	.LFE9-.LFB9
 3900 0048 00000000 		.4byte	.LFB10
 3901 004c 1C000000 		.4byte	.LFE10-.LFB10
 3902 0050 00000000 		.4byte	.LFB11
 3903 0054 1C000000 		.4byte	.LFE11-.LFB11
 3904 0058 00000000 		.4byte	.LFB12
 3905 005c 10000000 		.4byte	.LFE12-.LFB12
 3906 0060 00000000 		.4byte	.LFB13
 3907 0064 A0000000 		.4byte	.LFE13-.LFB13
 3908 0068 00000000 		.4byte	.LFB3
 3909 006c BC000000 		.4byte	.LFE3-.LFB3
 3910 0070 00000000 		.4byte	.LFB1
 3911 0074 F8000000 		.4byte	.LFE1-.LFB1
 3912 0078 00000000 		.4byte	.LFB0
 3913 007c E4000000 		.4byte	.LFE0-.LFB0
 3914 0080 00000000 		.4byte	0
 3915 0084 00000000 		.4byte	0
 3916              		.section	.debug_ranges,"",%progbits
 3917              	.Ldebug_ranges0:
 3918 0000 06000000 		.4byte	.LBB4
 3919 0004 08000000 		.4byte	.LBE4
 3920 0008 32000000 		.4byte	.LBB7
 3921 000c A0000000 		.4byte	.LBE7
ARM GAS  C:\Users\Computer\AppData\Local\Temp\cc3MlAIb.s 			page 92


 3922 0010 00000000 		.4byte	0
 3923 0014 00000000 		.4byte	0
 3924 0018 00000000 		.4byte	.LFB2
 3925 001c D4000000 		.4byte	.LFE2
 3926 0020 00000000 		.4byte	.LFB4
 3927 0024 8C000000 		.4byte	.LFE4
 3928 0028 00000000 		.4byte	.LFB5
 3929 002c 90000000 		.4byte	.LFE5
 3930 0030 00000000 		.4byte	.LFB6
 3931 0034 90000000 		.4byte	.LFE6
 3932 0038 00000000 		.4byte	.LFB7
 3933 003c 0C000000 		.4byte	.LFE7
 3934 0040 00000000 		.4byte	.LFB8
 3935 0044 0C000000 		.4byte	.LFE8
 3936 0048 00000000 		.4byte	.LFB9
 3937 004c 1C000000 		.4byte	.LFE9
 3938 0050 00000000 		.4byte	.LFB10
 3939 0054 1C000000 		.4byte	.LFE10
 3940 0058 00000000 		.4byte	.LFB11
 3941 005c 1C000000 		.4byte	.LFE11
 3942 0060 00000000 		.4byte	.LFB12
 3943 0064 10000000 		.4byte	.LFE12
 3944 0068 00000000 		.4byte	.LFB13
 3945 006c A0000000 		.4byte	.LFE13
 3946 0070 00000000 		.4byte	.LFB3
 3947 0074 BC000000 		.4byte	.LFE3
 3948 0078 00000000 		.4byte	.LFB1
 3949 007c F8000000 		.4byte	.LFE1
 3950 0080 00000000 		.4byte	.LFB0
 3951 0084 E4000000 		.4byte	.LFE0
 3952 0088 00000000 		.4byte	0
 3953 008c 00000000 		.4byte	0
 3954              		.section	.debug_line,"",%progbits
 3955              	.Ldebug_line0:
 3956 0000 52030000 		.section	.debug_str,"MS",%progbits,1
 3956      02008700 
 3956      00000201 
 3956      FB0E0D00 
 3956      01010101 
 3957              	.LASF20:
 3958 0000 656E6162 		.ascii	"enableInterrupts\000"
 3958      6C65496E 
 3958      74657272 
 3958      75707473 
 3958      00
 3959              	.LASF35:
 3960 0011 5254435F 		.ascii	"RTC_I2CMasterReadBuf\000"
 3960      4932434D 
 3960      61737465 
 3960      72526561 
 3960      64427566 
 3961              	.LASF32:
 3962 0026 73746174 		.ascii	"status\000"
 3962      757300
 3963              	.LASF43:
 3964 002d 5254435F 		.ascii	"RTC_mstrRdBufPtr\000"
 3964      6D737472 
ARM GAS  C:\Users\Computer\AppData\Local\Temp\cc3MlAIb.s 			page 93


 3964      52644275 
 3964      66507472 
 3964      00
 3965              	.LASF46:
 3966 003e 5254435F 		.ascii	"RTC_mstrWrBufPtr\000"
 3966      6D737472 
 3966      57724275 
 3966      66507472 
 3966      00
 3967              	.LASF25:
 3968 004f 5254435F 		.ascii	"RTC_I2CMasterReadByte\000"
 3968      4932434D 
 3968      61737465 
 3968      72526561 
 3968      64427974 
 3969              	.LASF3:
 3970 0065 73686F72 		.ascii	"short unsigned int\000"
 3970      7420756E 
 3970      7369676E 
 3970      65642069 
 3970      6E7400
 3971              	.LASF49:
 3972 0078 5254435F 		.ascii	"RTC_mstrWrBufIndexTmp\000"
 3972      6D737472 
 3972      57724275 
 3972      66496E64 
 3972      6578546D 
 3973              	.LASF28:
 3974 008e 5254435F 		.ascii	"RTC_I2CMasterGetWriteBufSize\000"
 3974      4932434D 
 3974      61737465 
 3974      72476574 
 3974      57726974 
 3975              	.LASF12:
 3976 00ab 666C6F61 		.ascii	"float\000"
 3976      7400
 3977              	.LASF31:
 3978 00b1 5254435F 		.ascii	"RTC_I2CMasterStatus\000"
 3978      4932434D 
 3978      61737465 
 3978      72537461 
 3978      74757300 
 3979              	.LASF7:
 3980 00c5 6C6F6E67 		.ascii	"long long unsigned int\000"
 3980      206C6F6E 
 3980      6720756E 
 3980      7369676E 
 3980      65642069 
 3981              	.LASF30:
 3982 00dc 5254435F 		.ascii	"RTC_I2CMasterClearWriteBuf\000"
 3982      4932434D 
 3982      61737465 
 3982      72436C65 
 3982      61725772 
 3983              	.LASF1:
 3984 00f7 756E7369 		.ascii	"unsigned char\000"
 3984      676E6564 
ARM GAS  C:\Users\Computer\AppData\Local\Temp\cc3MlAIb.s 			page 94


 3984      20636861 
 3984      7200
 3985              	.LASF33:
 3986 0105 5254435F 		.ascii	"RTC_I2CMasterClearStatus\000"
 3986      4932434D 
 3986      61737465 
 3986      72436C65 
 3986      61725374 
 3987              	.LASF29:
 3988 011e 5254435F 		.ascii	"RTC_I2CMasterClearReadBuf\000"
 3988      4932434D 
 3988      61737465 
 3988      72436C65 
 3988      61725265 
 3989              	.LASF5:
 3990 0138 6C6F6E67 		.ascii	"long unsigned int\000"
 3990      20756E73 
 3990      69676E65 
 3990      6420696E 
 3990      7400
 3991              	.LASF9:
 3992 014a 75696E74 		.ascii	"uint8\000"
 3992      3800
 3993              	.LASF57:
 3994 0150 2E5C4765 		.ascii	".\\Generated_Source\\PSoC4\\RTC_I2C_MASTER.c\000"
 3994      6E657261 
 3994      7465645F 
 3994      536F7572 
 3994      63655C50 
 3995              	.LASF22:
 3996 017a 5254435F 		.ascii	"RTC_I2CMasterSendStop\000"
 3996      4932434D 
 3996      61737465 
 3996      7253656E 
 3996      6453746F 
 3997              	.LASF26:
 3998 0190 61636B4E 		.ascii	"ackNack\000"
 3998      61636B00 
 3999              	.LASF55:
 4000 0198 5254435F 		.ascii	"RTC_SCB_IRQ_Enable\000"
 4000      5343425F 
 4000      4952515F 
 4000      456E6162 
 4000      6C6500
 4001              	.LASF19:
 4002 01ab 65727253 		.ascii	"errStatus\000"
 4002      74617475 
 4002      7300
 4003              	.LASF23:
 4004 01b5 5254435F 		.ascii	"RTC_I2CMasterWriteByte\000"
 4004      4932434D 
 4004      61737465 
 4004      72577269 
 4004      74654279 
 4005              	.LASF50:
 4006 01cc 5254435F 		.ascii	"RTC_I2CReStartGeneration\000"
 4006      49324352 
ARM GAS  C:\Users\Computer\AppData\Local\Temp\cc3MlAIb.s 			page 95


 4006      65537461 
 4006      72744765 
 4006      6E657261 
 4007              	.LASF13:
 4008 01e5 646F7562 		.ascii	"double\000"
 4008      6C6500
 4009              	.LASF18:
 4010 01ec 62697452 		.ascii	"bitRnW\000"
 4010      6E5700
 4011              	.LASF44:
 4012 01f3 5254435F 		.ascii	"RTC_mstrRdBufSize\000"
 4012      6D737472 
 4012      52644275 
 4012      6653697A 
 4012      6500
 4013              	.LASF10:
 4014 0205 75696E74 		.ascii	"uint16\000"
 4014      313600
 4015              	.LASF36:
 4016 020c 72644461 		.ascii	"rdData\000"
 4016      746100
 4017              	.LASF11:
 4018 0213 75696E74 		.ascii	"uint32\000"
 4018      333200
 4019              	.LASF58:
 4020 021a 433A5C55 		.ascii	"C:\\Users\\Computer\\Documents\\Git\\GlowTime\\RGB_"
 4020      73657273 
 4020      5C436F6D 
 4020      70757465 
 4020      725C446F 
 4021 0247 4C45445F 		.ascii	"LED_Matrix.cydsn\000"
 4021      4D617472 
 4021      69782E63 
 4021      7964736E 
 4021      00
 4022              	.LASF21:
 4023 0258 5254435F 		.ascii	"RTC_I2CMasterSendStart\000"
 4023      4932434D 
 4023      61737465 
 4023      7253656E 
 4023      64537461 
 4024              	.LASF8:
 4025 026f 756E7369 		.ascii	"unsigned int\000"
 4025      676E6564 
 4025      20696E74 
 4025      00
 4026              	.LASF39:
 4027 027c 77724461 		.ascii	"wrData\000"
 4027      746100
 4028              	.LASF52:
 4029 0283 43794578 		.ascii	"CyExitCriticalSection\000"
 4029      69744372 
 4029      69746963 
 4029      616C5365 
 4029      6374696F 
 4030              	.LASF42:
 4031 0299 5254435F 		.ascii	"RTC_mstrControl\000"
ARM GAS  C:\Users\Computer\AppData\Local\Temp\cc3MlAIb.s 			page 96


 4031      6D737472 
 4031      436F6E74 
 4031      726F6C00 
 4032              	.LASF59:
 4033 02a9 4379456E 		.ascii	"CyEnterCriticalSection\000"
 4033      74657243 
 4033      72697469 
 4033      63616C53 
 4033      65637469 
 4034              	.LASF38:
 4035 02c0 5254435F 		.ascii	"RTC_I2CMasterWriteBuf\000"
 4035      4932434D 
 4035      61737465 
 4035      72577269 
 4035      74654275 
 4036              	.LASF53:
 4037 02d6 5254435F 		.ascii	"RTC_scl_Write\000"
 4037      73636C5F 
 4037      57726974 
 4037      6500
 4038              	.LASF27:
 4039 02e4 5254435F 		.ascii	"RTC_I2CMasterGetReadBufSize\000"
 4039      4932434D 
 4039      61737465 
 4039      72476574 
 4039      52656164 
 4040              	.LASF37:
 4041 0300 6D6F6465 		.ascii	"mode\000"
 4041      00
 4042              	.LASF16:
 4043 0305 73697A65 		.ascii	"sizetype\000"
 4043      74797065 
 4043      00
 4044              	.LASF6:
 4045 030e 6C6F6E67 		.ascii	"long long int\000"
 4045      206C6F6E 
 4045      6720696E 
 4045      7400
 4046              	.LASF54:
 4047 031c 43794465 		.ascii	"CyDelayUs\000"
 4047      6C617955 
 4047      7300
 4048              	.LASF14:
 4049 0326 63686172 		.ascii	"char\000"
 4049      00
 4050              	.LASF48:
 4051 032b 5254435F 		.ascii	"RTC_mstrWrBufIndex\000"
 4051      6D737472 
 4051      57724275 
 4051      66496E64 
 4051      657800
 4052              	.LASF17:
 4053 033e 736C6176 		.ascii	"slaveAddress\000"
 4053      65416464 
 4053      72657373 
 4053      00
 4054              	.LASF34:
ARM GAS  C:\Users\Computer\AppData\Local\Temp\cc3MlAIb.s 			page 97


 4055 034b 5254435F 		.ascii	"RTC_I2CMasterSendRestart\000"
 4055      4932434D 
 4055      61737465 
 4055      7253656E 
 4055      64526573 
 4056              	.LASF2:
 4057 0364 73686F72 		.ascii	"short int\000"
 4057      7420696E 
 4057      7400
 4058              	.LASF24:
 4059 036e 74686542 		.ascii	"theByte\000"
 4059      79746500 
 4060              	.LASF51:
 4061 0376 5254435F 		.ascii	"RTC_SCB_IRQ_Disable\000"
 4061      5343425F 
 4061      4952515F 
 4061      44697361 
 4061      626C6500 
 4062              	.LASF56:
 4063 038a 474E5520 		.ascii	"GNU C 4.7.3 20130312 (release) [ARM/embedded-4_7-br"
 4063      4320342E 
 4063      372E3320 
 4063      32303133 
 4063      30333132 
 4064 03bd 616E6368 		.ascii	"anch revision 196615]\000"
 4064      20726576 
 4064      6973696F 
 4064      6E203139 
 4064      36363135 
 4065              	.LASF47:
 4066 03d3 5254435F 		.ascii	"RTC_mstrWrBufSize\000"
 4066      6D737472 
 4066      57724275 
 4066      6653697A 
 4066      6500
 4067              	.LASF4:
 4068 03e5 6C6F6E67 		.ascii	"long int\000"
 4068      20696E74 
 4068      00
 4069              	.LASF15:
 4070 03ee 72656733 		.ascii	"reg32\000"
 4070      3200
 4071              	.LASF41:
 4072 03f4 5254435F 		.ascii	"RTC_mstrStatus\000"
 4072      6D737472 
 4072      53746174 
 4072      757300
 4073              	.LASF0:
 4074 0403 7369676E 		.ascii	"signed char\000"
 4074      65642063 
 4074      68617200 
 4075              	.LASF40:
 4076 040f 5254435F 		.ascii	"RTC_state\000"
 4076      73746174 
 4076      6500
 4077              	.LASF45:
 4078 0419 5254435F 		.ascii	"RTC_mstrRdBufIndex\000"
ARM GAS  C:\Users\Computer\AppData\Local\Temp\cc3MlAIb.s 			page 98


 4078      6D737472 
 4078      52644275 
 4078      66496E64 
 4078      657800
 4079              		.ident	"GCC: (GNU Tools for ARM Embedded Processors) 4.7.3 20130312 (release) [ARM/embedded-4_7-br
