ARM GAS  C:\Users\Computer\AppData\Local\Temp\cc3MlAIb.s 			page 1


   1              		.cpu cortex-m0
   2              		.fpu softvfp
   3              		.eabi_attribute 20, 1
   4              		.eabi_attribute 21, 1
   5              		.eabi_attribute 23, 3
   6              		.eabi_attribute 24, 1
   7              		.eabi_attribute 25, 1
   8              		.eabi_attribute 26, 1
   9              		.eabi_attribute 30, 2
  10              		.eabi_attribute 34, 0
  11              		.eabi_attribute 18, 4
  12              		.code	16
  13              		.file	"RTC_I2C_MASTER.c"
  14              		.text
  15              	.Ltext0:
  16              		.cfi_sections	.debug_frame
  17              		.section	.text.RTC_I2CMasterSendStart,"ax",%progbits
  18              		.align	2
  19              		.global	RTC_I2CMasterSendStart
  20              		.code	16
  21              		.thumb_func
  22              		.type	RTC_I2CMasterSendStart, %function
  23              	RTC_I2CMasterSendStart:
  24              	.LFB2:
  25              		.file 1 ".\\Generated_Source\\PSoC4\\RTC_I2C_MASTER.c"
   1:.\Generated_Source\PSoC4/RTC_I2C_MASTER.c **** /*******************************************************************************
   2:.\Generated_Source\PSoC4/RTC_I2C_MASTER.c **** * File Name: RTC_I2C_MASTER.c
   3:.\Generated_Source\PSoC4/RTC_I2C_MASTER.c **** * Version 1.10
   4:.\Generated_Source\PSoC4/RTC_I2C_MASTER.c **** *
   5:.\Generated_Source\PSoC4/RTC_I2C_MASTER.c **** * Description:
   6:.\Generated_Source\PSoC4/RTC_I2C_MASTER.c **** *  This file provides the source code to the API for the SCB Component in
   7:.\Generated_Source\PSoC4/RTC_I2C_MASTER.c **** *  I2C Master mode.
   8:.\Generated_Source\PSoC4/RTC_I2C_MASTER.c **** *
   9:.\Generated_Source\PSoC4/RTC_I2C_MASTER.c **** * Note:
  10:.\Generated_Source\PSoC4/RTC_I2C_MASTER.c **** *
  11:.\Generated_Source\PSoC4/RTC_I2C_MASTER.c **** *******************************************************************************
  12:.\Generated_Source\PSoC4/RTC_I2C_MASTER.c **** * Copyright 2013, Cypress Semiconductor Corporation.  All rights reserved.
  13:.\Generated_Source\PSoC4/RTC_I2C_MASTER.c **** * You may use this file only in accordance with the license, terms, conditions,
  14:.\Generated_Source\PSoC4/RTC_I2C_MASTER.c **** * disclaimers, and limitations in the end user license agreement accompanying
  15:.\Generated_Source\PSoC4/RTC_I2C_MASTER.c **** * the software package with which this file was provided.
  16:.\Generated_Source\PSoC4/RTC_I2C_MASTER.c **** *******************************************************************************/
  17:.\Generated_Source\PSoC4/RTC_I2C_MASTER.c **** 
  18:.\Generated_Source\PSoC4/RTC_I2C_MASTER.c **** #include "RTC_PVT.h"
  19:.\Generated_Source\PSoC4/RTC_I2C_MASTER.c **** #include "RTC_I2C_PVT.h"
  20:.\Generated_Source\PSoC4/RTC_I2C_MASTER.c **** 
  21:.\Generated_Source\PSoC4/RTC_I2C_MASTER.c **** #if(RTC_I2C_MASTER_CONST)
  22:.\Generated_Source\PSoC4/RTC_I2C_MASTER.c **** 
  23:.\Generated_Source\PSoC4/RTC_I2C_MASTER.c **** /***************************************
  24:.\Generated_Source\PSoC4/RTC_I2C_MASTER.c **** *      I2C Master Private Vars
  25:.\Generated_Source\PSoC4/RTC_I2C_MASTER.c **** ***************************************/
  26:.\Generated_Source\PSoC4/RTC_I2C_MASTER.c **** 
  27:.\Generated_Source\PSoC4/RTC_I2C_MASTER.c **** /* Master variables */
  28:.\Generated_Source\PSoC4/RTC_I2C_MASTER.c **** volatile uint16 RTC_mstrStatus;      /* Master Status byte  */
  29:.\Generated_Source\PSoC4/RTC_I2C_MASTER.c **** volatile uint8  RTC_mstrControl;     /* Master Control byte */
  30:.\Generated_Source\PSoC4/RTC_I2C_MASTER.c **** 
  31:.\Generated_Source\PSoC4/RTC_I2C_MASTER.c **** /* Receive buffer variables */
  32:.\Generated_Source\PSoC4/RTC_I2C_MASTER.c **** volatile uint8 * RTC_mstrRdBufPtr;   /* Pointer to Master Read buffer */
ARM GAS  C:\Users\Computer\AppData\Local\Temp\cc3MlAIb.s 			page 2


  33:.\Generated_Source\PSoC4/RTC_I2C_MASTER.c **** volatile uint32  RTC_mstrRdBufSize;  /* Master Read buffer size       */
  34:.\Generated_Source\PSoC4/RTC_I2C_MASTER.c **** volatile uint32  RTC_mstrRdBufIndex; /* Master Read buffer Index      */
  35:.\Generated_Source\PSoC4/RTC_I2C_MASTER.c **** 
  36:.\Generated_Source\PSoC4/RTC_I2C_MASTER.c **** /* Transmit buffer variables */
  37:.\Generated_Source\PSoC4/RTC_I2C_MASTER.c **** volatile uint8 * RTC_mstrWrBufPtr;   /* Pointer to Master Write buffer */
  38:.\Generated_Source\PSoC4/RTC_I2C_MASTER.c **** volatile uint32  RTC_mstrWrBufSize;  /* Master Write buffer size       */
  39:.\Generated_Source\PSoC4/RTC_I2C_MASTER.c **** volatile uint32  RTC_mstrWrBufIndex; /* Master Write buffer Index      */
  40:.\Generated_Source\PSoC4/RTC_I2C_MASTER.c **** volatile uint32  RTC_mstrWrBufIndexTmp; /* Master Write buffer Index Tmp */
  41:.\Generated_Source\PSoC4/RTC_I2C_MASTER.c **** 
  42:.\Generated_Source\PSoC4/RTC_I2C_MASTER.c **** 
  43:.\Generated_Source\PSoC4/RTC_I2C_MASTER.c **** /*******************************************************************************
  44:.\Generated_Source\PSoC4/RTC_I2C_MASTER.c **** * Function Name: RTC_I2CMasterWriteBuf
  45:.\Generated_Source\PSoC4/RTC_I2C_MASTER.c **** ********************************************************************************
  46:.\Generated_Source\PSoC4/RTC_I2C_MASTER.c **** *
  47:.\Generated_Source\PSoC4/RTC_I2C_MASTER.c **** * Summary:
  48:.\Generated_Source\PSoC4/RTC_I2C_MASTER.c **** *  Automatically writes an entire buffer of data to a slave device. Once the
  49:.\Generated_Source\PSoC4/RTC_I2C_MASTER.c **** *  data transfer is initiated by this function, further data transfer is handled
  50:.\Generated_Source\PSoC4/RTC_I2C_MASTER.c **** *  by the included ISR in byte by byte mode.
  51:.\Generated_Source\PSoC4/RTC_I2C_MASTER.c **** *
  52:.\Generated_Source\PSoC4/RTC_I2C_MASTER.c **** * Parameters:
  53:.\Generated_Source\PSoC4/RTC_I2C_MASTER.c **** *  slaveAddr: 7-bit slave address.
  54:.\Generated_Source\PSoC4/RTC_I2C_MASTER.c **** *  xferData:  Pointer to buffer of data to be sent.
  55:.\Generated_Source\PSoC4/RTC_I2C_MASTER.c **** *  cnt:       Size of buffer to send.
  56:.\Generated_Source\PSoC4/RTC_I2C_MASTER.c **** *  mode:      Transfer mode defines: start or restart condition generation at
  57:.\Generated_Source\PSoC4/RTC_I2C_MASTER.c **** *             begin of the transfer and complete the transfer or halt before
  58:.\Generated_Source\PSoC4/RTC_I2C_MASTER.c **** *             generating a stop.
  59:.\Generated_Source\PSoC4/RTC_I2C_MASTER.c **** *
  60:.\Generated_Source\PSoC4/RTC_I2C_MASTER.c **** * Return:
  61:.\Generated_Source\PSoC4/RTC_I2C_MASTER.c **** *  Status error - zero means no errors.
  62:.\Generated_Source\PSoC4/RTC_I2C_MASTER.c **** *
  63:.\Generated_Source\PSoC4/RTC_I2C_MASTER.c **** * Global variables:
  64:.\Generated_Source\PSoC4/RTC_I2C_MASTER.c **** *  RTC_mstrStatus  - used to store current status of I2C Master.
  65:.\Generated_Source\PSoC4/RTC_I2C_MASTER.c **** *  RTC_state       - used to store current state of software FSM.
  66:.\Generated_Source\PSoC4/RTC_I2C_MASTER.c **** *  RTC_mstrControl - used to control master end of transaction with
  67:.\Generated_Source\PSoC4/RTC_I2C_MASTER.c **** *  or without the Stop generation.
  68:.\Generated_Source\PSoC4/RTC_I2C_MASTER.c **** *  RTC_mstrWrBufPtr - used to store pointer to master write buffer.
  69:.\Generated_Source\PSoC4/RTC_I2C_MASTER.c **** *  RTC_mstrWrBufIndex - used to current index within master write
  70:.\Generated_Source\PSoC4/RTC_I2C_MASTER.c **** *  buffer.
  71:.\Generated_Source\PSoC4/RTC_I2C_MASTER.c **** *  RTC_mstrWrBufSize - used to store master write buffer size.
  72:.\Generated_Source\PSoC4/RTC_I2C_MASTER.c **** *
  73:.\Generated_Source\PSoC4/RTC_I2C_MASTER.c **** *******************************************************************************/
  74:.\Generated_Source\PSoC4/RTC_I2C_MASTER.c **** uint32 RTC_I2CMasterWriteBuf(uint32 slaveAddress, uint8 * wrData, uint32 cnt, uint32 mode)
  75:.\Generated_Source\PSoC4/RTC_I2C_MASTER.c **** {
  76:.\Generated_Source\PSoC4/RTC_I2C_MASTER.c ****     uint32 errStatus;
  77:.\Generated_Source\PSoC4/RTC_I2C_MASTER.c **** 
  78:.\Generated_Source\PSoC4/RTC_I2C_MASTER.c ****     errStatus = RTC_I2C_MSTR_NOT_READY;
  79:.\Generated_Source\PSoC4/RTC_I2C_MASTER.c **** 
  80:.\Generated_Source\PSoC4/RTC_I2C_MASTER.c ****     if(NULL != wrData)  /* Check buffer pointer */
  81:.\Generated_Source\PSoC4/RTC_I2C_MASTER.c ****     {
  82:.\Generated_Source\PSoC4/RTC_I2C_MASTER.c ****         /* Check FSM state and bus before generate Start/ReStart condition */
  83:.\Generated_Source\PSoC4/RTC_I2C_MASTER.c ****         if(RTC_CHECK_I2C_FSM_IDLE)
  84:.\Generated_Source\PSoC4/RTC_I2C_MASTER.c ****         {
  85:.\Generated_Source\PSoC4/RTC_I2C_MASTER.c ****             RTC_SCB_IRQ_Disable();
  86:.\Generated_Source\PSoC4/RTC_I2C_MASTER.c **** 
  87:.\Generated_Source\PSoC4/RTC_I2C_MASTER.c ****             /* Check the bus state */
  88:.\Generated_Source\PSoC4/RTC_I2C_MASTER.c ****             errStatus = RTC_CHECK_I2C_STATUS(RTC_I2C_STATUS_BUS_BUSY) ?
  89:.\Generated_Source\PSoC4/RTC_I2C_MASTER.c ****                             RTC_I2C_MSTR_BUS_BUSY : RTC_I2C_MSTR_NO_ERROR;
ARM GAS  C:\Users\Computer\AppData\Local\Temp\cc3MlAIb.s 			page 3


  90:.\Generated_Source\PSoC4/RTC_I2C_MASTER.c ****         }
  91:.\Generated_Source\PSoC4/RTC_I2C_MASTER.c ****         else if(RTC_CHECK_I2C_FSM_HALT)
  92:.\Generated_Source\PSoC4/RTC_I2C_MASTER.c ****         {
  93:.\Generated_Source\PSoC4/RTC_I2C_MASTER.c ****             RTC_mstrStatus &= (uint16) ~RTC_I2C_MSTAT_XFER_HALT;
  94:.\Generated_Source\PSoC4/RTC_I2C_MASTER.c ****                               errStatus  = RTC_I2C_MSTR_NO_ERROR;
  95:.\Generated_Source\PSoC4/RTC_I2C_MASTER.c ****         }
  96:.\Generated_Source\PSoC4/RTC_I2C_MASTER.c ****         else
  97:.\Generated_Source\PSoC4/RTC_I2C_MASTER.c ****         {
  98:.\Generated_Source\PSoC4/RTC_I2C_MASTER.c ****             /* Unexpected FSM state: exit */
  99:.\Generated_Source\PSoC4/RTC_I2C_MASTER.c ****         }
 100:.\Generated_Source\PSoC4/RTC_I2C_MASTER.c ****     }
 101:.\Generated_Source\PSoC4/RTC_I2C_MASTER.c **** 
 102:.\Generated_Source\PSoC4/RTC_I2C_MASTER.c **** 
 103:.\Generated_Source\PSoC4/RTC_I2C_MASTER.c ****     /* Check if the Master is ready to start  */
 104:.\Generated_Source\PSoC4/RTC_I2C_MASTER.c ****     if(RTC_I2C_MSTR_NO_ERROR == errStatus) /* No error proceed */
 105:.\Generated_Source\PSoC4/RTC_I2C_MASTER.c ****     {
 106:.\Generated_Source\PSoC4/RTC_I2C_MASTER.c ****         /* Setup write transcation */
 107:.\Generated_Source\PSoC4/RTC_I2C_MASTER.c ****         RTC_state = RTC_I2C_FSM_MSTR_WR_ADDR;
 108:.\Generated_Source\PSoC4/RTC_I2C_MASTER.c ****         RTC_mstrWrBufIndexTmp = 0u;
 109:.\Generated_Source\PSoC4/RTC_I2C_MASTER.c ****         RTC_mstrWrBufIndex    = 0u;
 110:.\Generated_Source\PSoC4/RTC_I2C_MASTER.c ****         RTC_mstrWrBufSize     = cnt;
 111:.\Generated_Source\PSoC4/RTC_I2C_MASTER.c ****         RTC_mstrWrBufPtr      = (volatile uint8 *) wrData;
 112:.\Generated_Source\PSoC4/RTC_I2C_MASTER.c ****         RTC_mstrControl       = (uint8) mode;
 113:.\Generated_Source\PSoC4/RTC_I2C_MASTER.c **** 
 114:.\Generated_Source\PSoC4/RTC_I2C_MASTER.c ****         slaveAddress = RTC_GET_I2C_8BIT_ADDRESS(slaveAddress);
 115:.\Generated_Source\PSoC4/RTC_I2C_MASTER.c **** 
 116:.\Generated_Source\PSoC4/RTC_I2C_MASTER.c ****         RTC_mstrStatus &= (uint16) ~RTC_I2C_MSTAT_WR_CMPLT;
 117:.\Generated_Source\PSoC4/RTC_I2C_MASTER.c **** 
 118:.\Generated_Source\PSoC4/RTC_I2C_MASTER.c ****         RTC_ClearMasterInterruptSource(RTC_INTR_MASTER_ALL);
 119:.\Generated_Source\PSoC4/RTC_I2C_MASTER.c ****         RTC_ClearTxInterruptSource(RTC_INTR_TX_UNDERFLOW);
 120:.\Generated_Source\PSoC4/RTC_I2C_MASTER.c ****         /* The TX and RX FIFO have to be EMPTY */
 121:.\Generated_Source\PSoC4/RTC_I2C_MASTER.c **** 
 122:.\Generated_Source\PSoC4/RTC_I2C_MASTER.c ****         /* Generate Start or ReStart */
 123:.\Generated_Source\PSoC4/RTC_I2C_MASTER.c ****         if(RTC_CHECK_I2C_MODE_RESTART(mode))
 124:.\Generated_Source\PSoC4/RTC_I2C_MASTER.c ****         {
 125:.\Generated_Source\PSoC4/RTC_I2C_MASTER.c ****             RTC_I2C_MASTER_GENERATE_RESTART;
 126:.\Generated_Source\PSoC4/RTC_I2C_MASTER.c ****             RTC_TX_FIFO_WR_REG = slaveAddress;
 127:.\Generated_Source\PSoC4/RTC_I2C_MASTER.c ****         }
 128:.\Generated_Source\PSoC4/RTC_I2C_MASTER.c ****         else
 129:.\Generated_Source\PSoC4/RTC_I2C_MASTER.c ****         {
 130:.\Generated_Source\PSoC4/RTC_I2C_MASTER.c ****             RTC_TX_FIFO_WR_REG = slaveAddress;
 131:.\Generated_Source\PSoC4/RTC_I2C_MASTER.c ****             RTC_I2C_MASTER_GENERATE_START;
 132:.\Generated_Source\PSoC4/RTC_I2C_MASTER.c ****         }
 133:.\Generated_Source\PSoC4/RTC_I2C_MASTER.c **** 
 134:.\Generated_Source\PSoC4/RTC_I2C_MASTER.c ****          /* Catch when address will be sent */
 135:.\Generated_Source\PSoC4/RTC_I2C_MASTER.c ****         RTC_SetTxInterruptMode(RTC_INTR_TX_UNDERFLOW);
 136:.\Generated_Source\PSoC4/RTC_I2C_MASTER.c ****     }
 137:.\Generated_Source\PSoC4/RTC_I2C_MASTER.c **** 
 138:.\Generated_Source\PSoC4/RTC_I2C_MASTER.c ****     RTC_SCB_IRQ_Enable();
 139:.\Generated_Source\PSoC4/RTC_I2C_MASTER.c **** 
 140:.\Generated_Source\PSoC4/RTC_I2C_MASTER.c ****     return(errStatus);
 141:.\Generated_Source\PSoC4/RTC_I2C_MASTER.c **** }
 142:.\Generated_Source\PSoC4/RTC_I2C_MASTER.c **** 
 143:.\Generated_Source\PSoC4/RTC_I2C_MASTER.c **** 
 144:.\Generated_Source\PSoC4/RTC_I2C_MASTER.c **** /*******************************************************************************
 145:.\Generated_Source\PSoC4/RTC_I2C_MASTER.c **** * Function Name: RTC_I2CMasterReadBuf
 146:.\Generated_Source\PSoC4/RTC_I2C_MASTER.c **** ********************************************************************************
ARM GAS  C:\Users\Computer\AppData\Local\Temp\cc3MlAIb.s 			page 4


 147:.\Generated_Source\PSoC4/RTC_I2C_MASTER.c **** *
 148:.\Generated_Source\PSoC4/RTC_I2C_MASTER.c **** * Summary:
 149:.\Generated_Source\PSoC4/RTC_I2C_MASTER.c **** *  Automatically writes an entire buffer of data to a slave device. Once the
 150:.\Generated_Source\PSoC4/RTC_I2C_MASTER.c **** *  data transfer is initiated by this function, further data transfer is handled
 151:.\Generated_Source\PSoC4/RTC_I2C_MASTER.c **** *  by the included ISR in byte by byte mode.
 152:.\Generated_Source\PSoC4/RTC_I2C_MASTER.c **** *
 153:.\Generated_Source\PSoC4/RTC_I2C_MASTER.c **** * Parameters:
 154:.\Generated_Source\PSoC4/RTC_I2C_MASTER.c **** *  slaveAddr: 7-bit slave address.
 155:.\Generated_Source\PSoC4/RTC_I2C_MASTER.c **** *  xferData:  Pointer to buffer where to put data from slave.
 156:.\Generated_Source\PSoC4/RTC_I2C_MASTER.c **** *  cnt:       Size of buffer to read.
 157:.\Generated_Source\PSoC4/RTC_I2C_MASTER.c **** *  mode:      Transfer mode defines: start or restart condition generation at
 158:.\Generated_Source\PSoC4/RTC_I2C_MASTER.c **** *             begin of the transfer and complete the transfer or halt before
 159:.\Generated_Source\PSoC4/RTC_I2C_MASTER.c **** *             generating a stop.
 160:.\Generated_Source\PSoC4/RTC_I2C_MASTER.c **** *
 161:.\Generated_Source\PSoC4/RTC_I2C_MASTER.c **** * Return:
 162:.\Generated_Source\PSoC4/RTC_I2C_MASTER.c **** *  Status error - zero means no errors.
 163:.\Generated_Source\PSoC4/RTC_I2C_MASTER.c **** *
 164:.\Generated_Source\PSoC4/RTC_I2C_MASTER.c **** * Global variables:
 165:.\Generated_Source\PSoC4/RTC_I2C_MASTER.c **** *  RTC_mstrStatus  - used to store current status of I2C Master.
 166:.\Generated_Source\PSoC4/RTC_I2C_MASTER.c **** *  RTC_state       - used to store current state of software FSM.
 167:.\Generated_Source\PSoC4/RTC_I2C_MASTER.c **** *  RTC_mstrControl - used to control master end of transaction with
 168:.\Generated_Source\PSoC4/RTC_I2C_MASTER.c **** *  or without the Stop generation.
 169:.\Generated_Source\PSoC4/RTC_I2C_MASTER.c **** *  RTC_mstrRdBufPtr - used to store pointer to master write buffer.
 170:.\Generated_Source\PSoC4/RTC_I2C_MASTER.c **** *  RTC_mstrRdBufIndex - used to current index within master write
 171:.\Generated_Source\PSoC4/RTC_I2C_MASTER.c **** *  buffer.
 172:.\Generated_Source\PSoC4/RTC_I2C_MASTER.c **** *  RTC_mstrRdBufSize - used to store master write buffer size.
 173:.\Generated_Source\PSoC4/RTC_I2C_MASTER.c **** *
 174:.\Generated_Source\PSoC4/RTC_I2C_MASTER.c **** *******************************************************************************/
 175:.\Generated_Source\PSoC4/RTC_I2C_MASTER.c **** uint32 RTC_I2CMasterReadBuf(uint32 slaveAddress, uint8 * rdData, uint32 cnt, uint32 mode)
 176:.\Generated_Source\PSoC4/RTC_I2C_MASTER.c **** {
 177:.\Generated_Source\PSoC4/RTC_I2C_MASTER.c ****     uint32 errStatus;
 178:.\Generated_Source\PSoC4/RTC_I2C_MASTER.c **** 
 179:.\Generated_Source\PSoC4/RTC_I2C_MASTER.c ****     errStatus = RTC_I2C_MSTR_NOT_READY;
 180:.\Generated_Source\PSoC4/RTC_I2C_MASTER.c **** 
 181:.\Generated_Source\PSoC4/RTC_I2C_MASTER.c ****     if(NULL != rdData)
 182:.\Generated_Source\PSoC4/RTC_I2C_MASTER.c ****     {
 183:.\Generated_Source\PSoC4/RTC_I2C_MASTER.c ****         /* Check FSM state and bus before generate Start/ReStart condition */
 184:.\Generated_Source\PSoC4/RTC_I2C_MASTER.c ****         if(RTC_CHECK_I2C_FSM_IDLE)
 185:.\Generated_Source\PSoC4/RTC_I2C_MASTER.c ****         {
 186:.\Generated_Source\PSoC4/RTC_I2C_MASTER.c ****             RTC_SCB_IRQ_Disable();
 187:.\Generated_Source\PSoC4/RTC_I2C_MASTER.c **** 
 188:.\Generated_Source\PSoC4/RTC_I2C_MASTER.c ****             /* Check the bus state */
 189:.\Generated_Source\PSoC4/RTC_I2C_MASTER.c ****             errStatus = RTC_CHECK_I2C_STATUS(RTC_I2C_STATUS_BUS_BUSY) ?
 190:.\Generated_Source\PSoC4/RTC_I2C_MASTER.c ****                             RTC_I2C_MSTR_BUS_BUSY : RTC_I2C_MSTR_NO_ERROR;
 191:.\Generated_Source\PSoC4/RTC_I2C_MASTER.c ****         }
 192:.\Generated_Source\PSoC4/RTC_I2C_MASTER.c ****         else if(RTC_CHECK_I2C_FSM_HALT)
 193:.\Generated_Source\PSoC4/RTC_I2C_MASTER.c ****         {
 194:.\Generated_Source\PSoC4/RTC_I2C_MASTER.c ****             RTC_mstrStatus &= (uint16) ~RTC_I2C_MSTAT_XFER_HALT;
 195:.\Generated_Source\PSoC4/RTC_I2C_MASTER.c ****                               errStatus  =  RTC_I2C_MSTR_NO_ERROR;
 196:.\Generated_Source\PSoC4/RTC_I2C_MASTER.c ****         }
 197:.\Generated_Source\PSoC4/RTC_I2C_MASTER.c ****         else
 198:.\Generated_Source\PSoC4/RTC_I2C_MASTER.c ****         {
 199:.\Generated_Source\PSoC4/RTC_I2C_MASTER.c ****             /* Unexpected FSM state: exit */
 200:.\Generated_Source\PSoC4/RTC_I2C_MASTER.c ****         }
 201:.\Generated_Source\PSoC4/RTC_I2C_MASTER.c ****     }
 202:.\Generated_Source\PSoC4/RTC_I2C_MASTER.c **** 
 203:.\Generated_Source\PSoC4/RTC_I2C_MASTER.c ****     /* Check the Master ready to proceed */
ARM GAS  C:\Users\Computer\AppData\Local\Temp\cc3MlAIb.s 			page 5


 204:.\Generated_Source\PSoC4/RTC_I2C_MASTER.c ****     if(RTC_I2C_MSTR_NO_ERROR == errStatus) /* No error proceed */
 205:.\Generated_Source\PSoC4/RTC_I2C_MASTER.c ****     {
 206:.\Generated_Source\PSoC4/RTC_I2C_MASTER.c ****         /* Setup read transfer */
 207:.\Generated_Source\PSoC4/RTC_I2C_MASTER.c ****         RTC_state = RTC_I2C_FSM_MSTR_RD_ADDR;
 208:.\Generated_Source\PSoC4/RTC_I2C_MASTER.c ****         RTC_mstrRdBufIndex = 0u;
 209:.\Generated_Source\PSoC4/RTC_I2C_MASTER.c ****         RTC_mstrRdBufSize  = cnt;
 210:.\Generated_Source\PSoC4/RTC_I2C_MASTER.c ****         RTC_mstrRdBufPtr   = (volatile uint8 *) rdData;
 211:.\Generated_Source\PSoC4/RTC_I2C_MASTER.c ****         RTC_mstrControl    = (uint8) mode;
 212:.\Generated_Source\PSoC4/RTC_I2C_MASTER.c **** 
 213:.\Generated_Source\PSoC4/RTC_I2C_MASTER.c ****         slaveAddress = (RTC_GET_I2C_8BIT_ADDRESS(slaveAddress) | RTC_I2C_READ_FLAG);
 214:.\Generated_Source\PSoC4/RTC_I2C_MASTER.c **** 
 215:.\Generated_Source\PSoC4/RTC_I2C_MASTER.c ****         RTC_mstrStatus &= (uint16) ~RTC_I2C_MSTAT_RD_CMPLT;
 216:.\Generated_Source\PSoC4/RTC_I2C_MASTER.c **** 
 217:.\Generated_Source\PSoC4/RTC_I2C_MASTER.c ****         RTC_ClearMasterInterruptSource(RTC_INTR_MASTER_ALL);
 218:.\Generated_Source\PSoC4/RTC_I2C_MASTER.c **** 
 219:.\Generated_Source\PSoC4/RTC_I2C_MASTER.c ****         /* The TX and RX FIFO have to be EMPTY */
 220:.\Generated_Source\PSoC4/RTC_I2C_MASTER.c **** 
 221:.\Generated_Source\PSoC4/RTC_I2C_MASTER.c ****         /* Generate Start or ReStart */
 222:.\Generated_Source\PSoC4/RTC_I2C_MASTER.c ****         if(RTC_CHECK_I2C_MODE_RESTART(mode))
 223:.\Generated_Source\PSoC4/RTC_I2C_MASTER.c ****         {
 224:.\Generated_Source\PSoC4/RTC_I2C_MASTER.c ****             RTC_I2C_MASTER_GENERATE_RESTART;
 225:.\Generated_Source\PSoC4/RTC_I2C_MASTER.c ****             RTC_TX_FIFO_WR_REG = (slaveAddress);
 226:.\Generated_Source\PSoC4/RTC_I2C_MASTER.c ****         }
 227:.\Generated_Source\PSoC4/RTC_I2C_MASTER.c ****         else
 228:.\Generated_Source\PSoC4/RTC_I2C_MASTER.c ****         {
 229:.\Generated_Source\PSoC4/RTC_I2C_MASTER.c ****             RTC_TX_FIFO_WR_REG = (slaveAddress);
 230:.\Generated_Source\PSoC4/RTC_I2C_MASTER.c ****             RTC_I2C_MASTER_GENERATE_START;
 231:.\Generated_Source\PSoC4/RTC_I2C_MASTER.c ****         }
 232:.\Generated_Source\PSoC4/RTC_I2C_MASTER.c **** 
 233:.\Generated_Source\PSoC4/RTC_I2C_MASTER.c ****         /* Prepare reaing */
 234:.\Generated_Source\PSoC4/RTC_I2C_MASTER.c ****         if(RTC_mstrRdBufSize < RTC_I2C_FIFO_SIZE) /* Reading byte-by-byte */
 235:.\Generated_Source\PSoC4/RTC_I2C_MASTER.c ****         {
 236:.\Generated_Source\PSoC4/RTC_I2C_MASTER.c ****             RTC_SetRxInterruptMode(RTC_INTR_RX_NOT_EMPTY);
 237:.\Generated_Source\PSoC4/RTC_I2C_MASTER.c ****         }
 238:.\Generated_Source\PSoC4/RTC_I2C_MASTER.c ****         else /* Reading use RX FIFO */
 239:.\Generated_Source\PSoC4/RTC_I2C_MASTER.c ****         {
 240:.\Generated_Source\PSoC4/RTC_I2C_MASTER.c ****             RTC_ENABLE_MASTER_AUTO_DATA_ACK;
 241:.\Generated_Source\PSoC4/RTC_I2C_MASTER.c ****             RTC_SetRxInterruptMode(RTC_INTR_RX_FULL);
 242:.\Generated_Source\PSoC4/RTC_I2C_MASTER.c ****         }
 243:.\Generated_Source\PSoC4/RTC_I2C_MASTER.c ****     }
 244:.\Generated_Source\PSoC4/RTC_I2C_MASTER.c **** 
 245:.\Generated_Source\PSoC4/RTC_I2C_MASTER.c ****     RTC_SCB_IRQ_Enable();
 246:.\Generated_Source\PSoC4/RTC_I2C_MASTER.c **** 
 247:.\Generated_Source\PSoC4/RTC_I2C_MASTER.c ****     return(errStatus);
 248:.\Generated_Source\PSoC4/RTC_I2C_MASTER.c **** }
 249:.\Generated_Source\PSoC4/RTC_I2C_MASTER.c **** 
 250:.\Generated_Source\PSoC4/RTC_I2C_MASTER.c **** 
 251:.\Generated_Source\PSoC4/RTC_I2C_MASTER.c **** /*******************************************************************************
 252:.\Generated_Source\PSoC4/RTC_I2C_MASTER.c **** * Function Name: RTC_I2CMasterSendStart
 253:.\Generated_Source\PSoC4/RTC_I2C_MASTER.c **** ********************************************************************************
 254:.\Generated_Source\PSoC4/RTC_I2C_MASTER.c **** *
 255:.\Generated_Source\PSoC4/RTC_I2C_MASTER.c **** * Summary:
 256:.\Generated_Source\PSoC4/RTC_I2C_MASTER.c **** *  Generates Start condition and sends slave address with read/write bit.
 257:.\Generated_Source\PSoC4/RTC_I2C_MASTER.c **** *
 258:.\Generated_Source\PSoC4/RTC_I2C_MASTER.c **** * Parameters:
 259:.\Generated_Source\PSoC4/RTC_I2C_MASTER.c **** *  slaveAddress:  7-bit slave address.
 260:.\Generated_Source\PSoC4/RTC_I2C_MASTER.c **** *  bitRnW:        Zero, send write command, non-zero send read command.
ARM GAS  C:\Users\Computer\AppData\Local\Temp\cc3MlAIb.s 			page 6


 261:.\Generated_Source\PSoC4/RTC_I2C_MASTER.c **** *
 262:.\Generated_Source\PSoC4/RTC_I2C_MASTER.c **** * Return:
 263:.\Generated_Source\PSoC4/RTC_I2C_MASTER.c **** *  Status error - zero means no errors.
 264:.\Generated_Source\PSoC4/RTC_I2C_MASTER.c **** *
 265:.\Generated_Source\PSoC4/RTC_I2C_MASTER.c **** * Side Effects:
 266:.\Generated_Source\PSoC4/RTC_I2C_MASTER.c **** *  This function is entered without a 'byte complete' bit set in the I2C_CSR
 267:.\Generated_Source\PSoC4/RTC_I2C_MASTER.c **** *  register. It does not exit until it will be set.
 268:.\Generated_Source\PSoC4/RTC_I2C_MASTER.c **** *
 269:.\Generated_Source\PSoC4/RTC_I2C_MASTER.c **** * Global variables:
 270:.\Generated_Source\PSoC4/RTC_I2C_MASTER.c **** *  RTC_state - used to store current state of software FSM.
 271:.\Generated_Source\PSoC4/RTC_I2C_MASTER.c **** *
 272:.\Generated_Source\PSoC4/RTC_I2C_MASTER.c **** *******************************************************************************/
 273:.\Generated_Source\PSoC4/RTC_I2C_MASTER.c **** uint32 RTC_I2CMasterSendStart(uint32 slaveAddress, uint32 bitRnW)
 274:.\Generated_Source\PSoC4/RTC_I2C_MASTER.c **** {
  26              		.loc 1 274 0
  27              		.cfi_startproc
  28              	.LVL0:
  29 0000 F0B5     		push	{r4, r5, r6, r7, lr}
  30              	.LCFI0:
  31              		.cfi_def_cfa_offset 20
  32              		.cfi_offset 4, -20
  33              		.cfi_offset 5, -16
  34              		.cfi_offset 6, -12
  35              		.cfi_offset 7, -8
  36              		.cfi_offset 14, -4
  37 0002 4746     		mov	r7, r8
  38 0004 80B4     		push	{r7}
  39              	.LCFI1:
  40              		.cfi_def_cfa_offset 24
  41              		.cfi_offset 8, -24
 275:.\Generated_Source\PSoC4/RTC_I2C_MASTER.c ****     uint32 errStatus;
 276:.\Generated_Source\PSoC4/RTC_I2C_MASTER.c ****     uint8  enableInterrupts;
 277:.\Generated_Source\PSoC4/RTC_I2C_MASTER.c **** 
 278:.\Generated_Source\PSoC4/RTC_I2C_MASTER.c ****     errStatus        = RTC_I2C_MSTR_NOT_READY;
 279:.\Generated_Source\PSoC4/RTC_I2C_MASTER.c ****     enableInterrupts = 0u;
 280:.\Generated_Source\PSoC4/RTC_I2C_MASTER.c **** 
 281:.\Generated_Source\PSoC4/RTC_I2C_MASTER.c ****     /* Check FSM state before generate Start condition */
 282:.\Generated_Source\PSoC4/RTC_I2C_MASTER.c ****     if(RTC_CHECK_I2C_FSM_IDLE)
  42              		.loc 1 282 0
  43 0006 2B4D     		ldr	r5, .L20
 274:.\Generated_Source\PSoC4/RTC_I2C_MASTER.c **** {
  44              		.loc 1 274 0
  45 0008 071C     		mov	r7, r0
  46              		.loc 1 282 0
  47 000a 2B78     		ldrb	r3, [r5]
 274:.\Generated_Source\PSoC4/RTC_I2C_MASTER.c **** {
  48              		.loc 1 274 0
  49 000c 0E1C     		mov	r6, r1
 278:.\Generated_Source\PSoC4/RTC_I2C_MASTER.c ****     errStatus        = RTC_I2C_MSTR_NOT_READY;
  50              		.loc 1 278 0
  51 000e 0424     		mov	r4, #4
  52              		.loc 1 282 0
  53 0010 102B     		cmp	r3, #16
  54 0012 03D0     		beq	.L19
  55              	.LVL1:
  56              	.L15:
 283:.\Generated_Source\PSoC4/RTC_I2C_MASTER.c ****     {
ARM GAS  C:\Users\Computer\AppData\Local\Temp\cc3MlAIb.s 			page 7


 284:.\Generated_Source\PSoC4/RTC_I2C_MASTER.c ****         /* If bus is free, generate Start condition */
 285:.\Generated_Source\PSoC4/RTC_I2C_MASTER.c ****         if(RTC_CHECK_I2C_STATUS(RTC_I2C_STATUS_BUS_BUSY))
 286:.\Generated_Source\PSoC4/RTC_I2C_MASTER.c ****         {
 287:.\Generated_Source\PSoC4/RTC_I2C_MASTER.c ****             errStatus = RTC_I2C_MSTR_BUS_BUSY;
 288:.\Generated_Source\PSoC4/RTC_I2C_MASTER.c ****         }
 289:.\Generated_Source\PSoC4/RTC_I2C_MASTER.c ****         else
 290:.\Generated_Source\PSoC4/RTC_I2C_MASTER.c ****         {
 291:.\Generated_Source\PSoC4/RTC_I2C_MASTER.c ****             RTC_SCB_IRQ_Disable(); /* Disable interrupt: the manual APIs don't require it */
 292:.\Generated_Source\PSoC4/RTC_I2C_MASTER.c **** 
 293:.\Generated_Source\PSoC4/RTC_I2C_MASTER.c ****             slaveAddress = RTC_GET_I2C_8BIT_ADDRESS(slaveAddress);
 294:.\Generated_Source\PSoC4/RTC_I2C_MASTER.c **** 
 295:.\Generated_Source\PSoC4/RTC_I2C_MASTER.c ****             if(0u == bitRnW) /* Write direction */
 296:.\Generated_Source\PSoC4/RTC_I2C_MASTER.c ****             {
 297:.\Generated_Source\PSoC4/RTC_I2C_MASTER.c ****                 RTC_state = RTC_I2C_FSM_MSTR_WR_DATA;
 298:.\Generated_Source\PSoC4/RTC_I2C_MASTER.c ****             }
 299:.\Generated_Source\PSoC4/RTC_I2C_MASTER.c ****             else /* Read direction */
 300:.\Generated_Source\PSoC4/RTC_I2C_MASTER.c ****             {
 301:.\Generated_Source\PSoC4/RTC_I2C_MASTER.c ****                 RTC_state = RTC_I2C_FSM_MSTR_RD_DATA;
 302:.\Generated_Source\PSoC4/RTC_I2C_MASTER.c ****                          slaveAddress |= RTC_I2C_READ_FLAG;
 303:.\Generated_Source\PSoC4/RTC_I2C_MASTER.c ****             }
 304:.\Generated_Source\PSoC4/RTC_I2C_MASTER.c **** 
 305:.\Generated_Source\PSoC4/RTC_I2C_MASTER.c ****             /* The TX and RX FIFO have to be EMPTY */
 306:.\Generated_Source\PSoC4/RTC_I2C_MASTER.c **** 
 307:.\Generated_Source\PSoC4/RTC_I2C_MASTER.c ****             RTC_TX_FIFO_WR_REG = slaveAddress; /* Put address in TX FIFO */
 308:.\Generated_Source\PSoC4/RTC_I2C_MASTER.c ****             RTC_ClearMasterInterruptSource(RTC_INTR_MASTER_ALL);
 309:.\Generated_Source\PSoC4/RTC_I2C_MASTER.c **** 
 310:.\Generated_Source\PSoC4/RTC_I2C_MASTER.c ****             RTC_I2C_MASTER_GENERATE_START;
 311:.\Generated_Source\PSoC4/RTC_I2C_MASTER.c **** 
 312:.\Generated_Source\PSoC4/RTC_I2C_MASTER.c **** 
 313:.\Generated_Source\PSoC4/RTC_I2C_MASTER.c ****             while(!RTC_CHECK_INTR_MASTER(RTC_INTR_MASTER_I2C_ACK      |
 314:.\Generated_Source\PSoC4/RTC_I2C_MASTER.c ****                                                       RTC_INTR_MASTER_I2C_NACK     |
 315:.\Generated_Source\PSoC4/RTC_I2C_MASTER.c ****                                                       RTC_INTR_MASTER_I2C_ARB_LOST |
 316:.\Generated_Source\PSoC4/RTC_I2C_MASTER.c ****                                                       RTC_INTR_MASTER_I2C_BUS_ERROR))
 317:.\Generated_Source\PSoC4/RTC_I2C_MASTER.c ****             {
 318:.\Generated_Source\PSoC4/RTC_I2C_MASTER.c ****                 /*
 319:.\Generated_Source\PSoC4/RTC_I2C_MASTER.c ****                 * Write: wait until address will be transfered
 320:.\Generated_Source\PSoC4/RTC_I2C_MASTER.c ****                 * Read : wait until address will be tranfered, the data byte is going to RX FIFO as
 321:.\Generated_Source\PSoC4/RTC_I2C_MASTER.c ****                 */
 322:.\Generated_Source\PSoC4/RTC_I2C_MASTER.c ****             }
 323:.\Generated_Source\PSoC4/RTC_I2C_MASTER.c **** 
 324:.\Generated_Source\PSoC4/RTC_I2C_MASTER.c ****             /*
 325:.\Generated_Source\PSoC4/RTC_I2C_MASTER.c ****             * Check results of address phase:
 326:.\Generated_Source\PSoC4/RTC_I2C_MASTER.c ****             *  ACK  - address was ACKed continue.
 327:.\Generated_Source\PSoC4/RTC_I2C_MASTER.c ****             *  NACK - address was NACKed continue.
 328:.\Generated_Source\PSoC4/RTC_I2C_MASTER.c ****             *  LOST_ARB - SDA line is not match to what master drives:
 329:.\Generated_Source\PSoC4/RTC_I2C_MASTER.c ****             *  lost arbitration or misplaced Start. Place: 7-bits address and RnW bit.
 330:.\Generated_Source\PSoC4/RTC_I2C_MASTER.c ****             *  The misplaced Start is possible when SCB drives SDA 1 and it changes to 0, when SCL 
 331:.\Generated_Source\PSoC4/RTC_I2C_MASTER.c ****             *  BUS_ERR - misplaced Start or Stop when Slave drives. Place: ACK/NACK bit.
 332:.\Generated_Source\PSoC4/RTC_I2C_MASTER.c ****             *  The misplaced Start or Stop causes the bus idle status to get stuck to busy.
 333:.\Generated_Source\PSoC4/RTC_I2C_MASTER.c ****             *  The misplaced Start is possible when SCB drives SCL 1 and it changes
 334:.\Generated_Source\PSoC4/RTC_I2C_MASTER.c ****             *  from 1 to 0 (Start) or 0 to 1 (Stop).
 335:.\Generated_Source\PSoC4/RTC_I2C_MASTER.c ****             *  Reset SCB on either LOST_ARB or BUS_ERR as both could be caused by
 336:.\Generated_Source\PSoC4/RTC_I2C_MASTER.c ****             *  misplaced Start event to reset bus busy.
 337:.\Generated_Source\PSoC4/RTC_I2C_MASTER.c ****             */
 338:.\Generated_Source\PSoC4/RTC_I2C_MASTER.c ****             if(RTC_CHECK_INTR_MASTER(RTC_INTR_MASTER_I2C_ACK))
 339:.\Generated_Source\PSoC4/RTC_I2C_MASTER.c ****             {
 340:.\Generated_Source\PSoC4/RTC_I2C_MASTER.c ****                 errStatus = RTC_I2C_MSTR_NO_ERROR;
ARM GAS  C:\Users\Computer\AppData\Local\Temp\cc3MlAIb.s 			page 8


 341:.\Generated_Source\PSoC4/RTC_I2C_MASTER.c ****             }
 342:.\Generated_Source\PSoC4/RTC_I2C_MASTER.c ****             else if(RTC_CHECK_INTR_MASTER(RTC_INTR_MASTER_I2C_NACK))
 343:.\Generated_Source\PSoC4/RTC_I2C_MASTER.c ****             {
 344:.\Generated_Source\PSoC4/RTC_I2C_MASTER.c ****                 errStatus = RTC_I2C_MSTR_ERR_LB_NAK;
 345:.\Generated_Source\PSoC4/RTC_I2C_MASTER.c ****             }
 346:.\Generated_Source\PSoC4/RTC_I2C_MASTER.c ****             else if(RTC_CHECK_INTR_MASTER(RTC_INTR_MASTER_I2C_ARB_LOST))
 347:.\Generated_Source\PSoC4/RTC_I2C_MASTER.c ****             {
 348:.\Generated_Source\PSoC4/RTC_I2C_MASTER.c ****                 RTC_state = RTC_I2C_FSM_IDLE;
 349:.\Generated_Source\PSoC4/RTC_I2C_MASTER.c ****                              errStatus = RTC_I2C_MSTR_ERR_ARB_LOST;
 350:.\Generated_Source\PSoC4/RTC_I2C_MASTER.c ****                       enableInterrupts = RTC_I2C_RESET_ERROR;
 351:.\Generated_Source\PSoC4/RTC_I2C_MASTER.c ****             }
 352:.\Generated_Source\PSoC4/RTC_I2C_MASTER.c ****             else /* RTC_INTR_MASTER_I2C_BUS_ERROR set is else condition */
 353:.\Generated_Source\PSoC4/RTC_I2C_MASTER.c ****             {
 354:.\Generated_Source\PSoC4/RTC_I2C_MASTER.c ****                 RTC_state = RTC_I2C_FSM_IDLE;
 355:.\Generated_Source\PSoC4/RTC_I2C_MASTER.c ****                              errStatus = RTC_I2C_MSTR_ERR_BUS_ERR;
 356:.\Generated_Source\PSoC4/RTC_I2C_MASTER.c ****                       enableInterrupts = RTC_I2C_RESET_ERROR;
 357:.\Generated_Source\PSoC4/RTC_I2C_MASTER.c ****             }
 358:.\Generated_Source\PSoC4/RTC_I2C_MASTER.c **** 
 359:.\Generated_Source\PSoC4/RTC_I2C_MASTER.c ****             RTC_ClearMasterInterruptSource(RTC_INTR_MASTER_I2C_ACK      |
 360:.\Generated_Source\PSoC4/RTC_I2C_MASTER.c ****                                                         RTC_INTR_MASTER_I2C_NACK     |
 361:.\Generated_Source\PSoC4/RTC_I2C_MASTER.c ****                                                         RTC_INTR_MASTER_I2C_ARB_LOST |
 362:.\Generated_Source\PSoC4/RTC_I2C_MASTER.c ****                                                         RTC_INTR_MASTER_I2C_BUS_ERROR);
 363:.\Generated_Source\PSoC4/RTC_I2C_MASTER.c **** 
 364:.\Generated_Source\PSoC4/RTC_I2C_MASTER.c ****             /* Reset block in case of: LOST_ARB or BUS_ERR */
 365:.\Generated_Source\PSoC4/RTC_I2C_MASTER.c ****             if(0u != enableInterrupts)
 366:.\Generated_Source\PSoC4/RTC_I2C_MASTER.c ****             {
 367:.\Generated_Source\PSoC4/RTC_I2C_MASTER.c ****                 enableInterrupts = CyEnterCriticalSection();
 368:.\Generated_Source\PSoC4/RTC_I2C_MASTER.c ****                 RTC_SCB_SW_RESET;
 369:.\Generated_Source\PSoC4/RTC_I2C_MASTER.c ****                 CyExitCriticalSection(enableInterrupts);
 370:.\Generated_Source\PSoC4/RTC_I2C_MASTER.c ****             }
 371:.\Generated_Source\PSoC4/RTC_I2C_MASTER.c ****         }
 372:.\Generated_Source\PSoC4/RTC_I2C_MASTER.c ****     }
 373:.\Generated_Source\PSoC4/RTC_I2C_MASTER.c **** 
 374:.\Generated_Source\PSoC4/RTC_I2C_MASTER.c ****     return(errStatus);
 375:.\Generated_Source\PSoC4/RTC_I2C_MASTER.c **** }
  57              		.loc 1 375 0
  58 0014 201C     		mov	r0, r4
  59              		@ sp needed for prologue
  60 0016 04BC     		pop	{r2}
  61 0018 9046     		mov	r8, r2
  62 001a F0BD     		pop	{r4, r5, r6, r7, pc}
  63              	.LVL2:
  64              	.L19:
 285:.\Generated_Source\PSoC4/RTC_I2C_MASTER.c ****         if(RTC_CHECK_I2C_STATUS(RTC_I2C_STATUS_BUS_BUSY))
  65              		.loc 1 285 0
  66 001c 2648     		ldr	r0, .L20+4
  67              	.LVL3:
  68 001e 0121     		mov	r1, #1
  69              	.LVL4:
  70 0020 0368     		ldr	r3, [r0]
  71 0022 8846     		mov	r8, r1
 287:.\Generated_Source\PSoC4/RTC_I2C_MASTER.c ****             errStatus = RTC_I2C_MSTR_BUS_BUSY;
  72              		.loc 1 287 0
  73 0024 0824     		mov	r4, #8
 285:.\Generated_Source\PSoC4/RTC_I2C_MASTER.c ****         if(RTC_CHECK_I2C_STATUS(RTC_I2C_STATUS_BUS_BUSY))
  74              		.loc 1 285 0
  75 0026 1942     		tst	r1, r3
ARM GAS  C:\Users\Computer\AppData\Local\Temp\cc3MlAIb.s 			page 9


  76 0028 F4D1     		bne	.L15
 293:.\Generated_Source\PSoC4/RTC_I2C_MASTER.c ****             slaveAddress = RTC_GET_I2C_8BIT_ADDRESS(slaveAddress);
  77              		.loc 1 293 0
  78 002a 7C00     		lsl	r4, r7, #1
  79 002c FF27     		mov	r7, #255
  80              	.LVL5:
 291:.\Generated_Source\PSoC4/RTC_I2C_MASTER.c ****             RTC_SCB_IRQ_Disable(); /* Disable interrupt: the manual APIs don't require it */
  81              		.loc 1 291 0
  82 002e FFF7FEFF 		bl	RTC_SCB_IRQ_Disable
  83              	.LVL6:
 293:.\Generated_Source\PSoC4/RTC_I2C_MASTER.c ****             slaveAddress = RTC_GET_I2C_8BIT_ADDRESS(slaveAddress);
  84              		.loc 1 293 0
  85 0032 3C40     		and	r4, r7
  86              	.LVL7:
 295:.\Generated_Source\PSoC4/RTC_I2C_MASTER.c ****             if(0u == bitRnW) /* Write direction */
  87              		.loc 1 295 0
  88 0034 002E     		cmp	r6, #0
  89 0036 2CD1     		bne	.L3
 297:.\Generated_Source\PSoC4/RTC_I2C_MASTER.c ****                 RTC_state = RTC_I2C_FSM_MSTR_WR_DATA;
  90              		.loc 1 297 0
  91 0038 2423     		mov	r3, #36
  92 003a 2B70     		strb	r3, [r5]
  93              	.LVL8:
  94              	.L4:
 307:.\Generated_Source\PSoC4/RTC_I2C_MASTER.c ****             RTC_TX_FIFO_WR_REG = slaveAddress; /* Put address in TX FIFO */
  95              		.loc 1 307 0
  96 003c 1F49     		ldr	r1, .L20+8
 308:.\Generated_Source\PSoC4/RTC_I2C_MASTER.c ****             RTC_ClearMasterInterruptSource(RTC_INTR_MASTER_ALL);
  97              		.loc 1 308 0
  98 003e 204A     		ldr	r2, .L20+12
 307:.\Generated_Source\PSoC4/RTC_I2C_MASTER.c ****             RTC_TX_FIFO_WR_REG = slaveAddress; /* Put address in TX FIFO */
  99              		.loc 1 307 0
 100 0040 0C60     		str	r4, [r1]
 310:.\Generated_Source\PSoC4/RTC_I2C_MASTER.c ****             RTC_I2C_MASTER_GENERATE_START;
 101              		.loc 1 310 0
 102 0042 204E     		ldr	r6, .L20+16
 308:.\Generated_Source\PSoC4/RTC_I2C_MASTER.c ****             RTC_ClearMasterInterruptSource(RTC_INTR_MASTER_ALL);
 103              		.loc 1 308 0
 104 0044 204C     		ldr	r4, .L20+20
 105              	.LVL9:
 310:.\Generated_Source\PSoC4/RTC_I2C_MASTER.c ****             RTC_I2C_MASTER_GENERATE_START;
 106              		.loc 1 310 0
 107 0046 0227     		mov	r7, #2
 313:.\Generated_Source\PSoC4/RTC_I2C_MASTER.c ****             while(!RTC_CHECK_INTR_MASTER(RTC_INTR_MASTER_I2C_ACK      |
 108              		.loc 1 313 0
 109 0048 2048     		ldr	r0, .L20+24
 308:.\Generated_Source\PSoC4/RTC_I2C_MASTER.c ****             RTC_ClearMasterInterruptSource(RTC_INTR_MASTER_ALL);
 110              		.loc 1 308 0
 111 004a 2260     		str	r2, [r4]
 310:.\Generated_Source\PSoC4/RTC_I2C_MASTER.c ****             RTC_I2C_MASTER_GENERATE_START;
 112              		.loc 1 310 0
 113 004c 3760     		str	r7, [r6]
 114              	.L5:
 313:.\Generated_Source\PSoC4/RTC_I2C_MASTER.c ****             while(!RTC_CHECK_INTR_MASTER(RTC_INTR_MASTER_I2C_ACK      |
 115              		.loc 1 313 0 discriminator 1
 116 004e 2368     		ldr	r3, [r4]
 117 0050 1D4A     		ldr	r2, .L20+20
ARM GAS  C:\Users\Computer\AppData\Local\Temp\cc3MlAIb.s 			page 10


 118 0052 0342     		tst	r3, r0
 119 0054 FBD0     		beq	.L5
 338:.\Generated_Source\PSoC4/RTC_I2C_MASTER.c ****             if(RTC_CHECK_INTR_MASTER(RTC_INTR_MASTER_I2C_ACK))
 120              		.loc 1 338 0
 121 0056 1168     		ldr	r1, [r2]
 122              	.LVL10:
 123 0058 4907     		lsl	r1, r1, #29
 124 005a 1FD4     		bmi	.L11
 342:.\Generated_Source\PSoC4/RTC_I2C_MASTER.c ****             else if(RTC_CHECK_INTR_MASTER(RTC_INTR_MASTER_I2C_NACK))
 125              		.loc 1 342 0
 126 005c 1468     		ldr	r4, [r2]
 127 005e A107     		lsl	r1, r4, #30
 128 0060 21D4     		bmi	.L12
 346:.\Generated_Source\PSoC4/RTC_I2C_MASTER.c ****             else if(RTC_CHECK_INTR_MASTER(RTC_INTR_MASTER_I2C_ARB_LOST))
 129              		.loc 1 346 0
 130 0062 1768     		ldr	r7, [r2]
 131 0064 FA07     		lsl	r2, r7, #31
 132 0066 20D5     		bpl	.L7
 348:.\Generated_Source\PSoC4/RTC_I2C_MASTER.c ****                 RTC_state = RTC_I2C_FSM_IDLE;
 133              		.loc 1 348 0
 134 0068 1020     		mov	r0, #16
 135 006a 2870     		strb	r0, [r5]
 136              	.LVL11:
 349:.\Generated_Source\PSoC4/RTC_I2C_MASTER.c ****                              errStatus = RTC_I2C_MSTR_ERR_ARB_LOST;
 137              		.loc 1 349 0
 138 006c 0124     		mov	r4, #1
 139              	.LVL12:
 140              	.L8:
 359:.\Generated_Source\PSoC4/RTC_I2C_MASTER.c ****             RTC_ClearMasterInterruptSource(RTC_INTR_MASTER_I2C_ACK      |
 141              		.loc 1 359 0
 142 006e 174A     		ldr	r2, .L20+24
 143 0070 154B     		ldr	r3, .L20+20
 368:.\Generated_Source\PSoC4/RTC_I2C_MASTER.c ****                 RTC_SCB_SW_RESET;
 144              		.loc 1 368 0
 145 0072 174F     		ldr	r7, .L20+28
 359:.\Generated_Source\PSoC4/RTC_I2C_MASTER.c ****             RTC_ClearMasterInterruptSource(RTC_INTR_MASTER_I2C_ACK      |
 146              		.loc 1 359 0
 147 0074 1A60     		str	r2, [r3]
 367:.\Generated_Source\PSoC4/RTC_I2C_MASTER.c ****                 enableInterrupts = CyEnterCriticalSection();
 148              		.loc 1 367 0
 149 0076 FFF7FEFF 		bl	CyEnterCriticalSection
 150              	.LVL13:
 368:.\Generated_Source\PSoC4/RTC_I2C_MASTER.c ****                 RTC_SCB_SW_RESET;
 151              		.loc 1 368 0
 152 007a 3968     		ldr	r1, [r7]
 153 007c 8022     		mov	r2, #128
 154 007e 4E00     		lsl	r6, r1, #1
 155 0080 7508     		lsr	r5, r6, #1
 156 0082 3D60     		str	r5, [r7]
 157 0084 3B68     		ldr	r3, [r7]
 158 0086 1106     		lsl	r1, r2, #24
 159 0088 1943     		orr	r1, r3
 160 008a 3960     		str	r1, [r7]
 369:.\Generated_Source\PSoC4/RTC_I2C_MASTER.c ****                 CyExitCriticalSection(enableInterrupts);
 161              		.loc 1 369 0
 162 008c FFF7FEFF 		bl	CyExitCriticalSection
 163              	.LVL14:
ARM GAS  C:\Users\Computer\AppData\Local\Temp\cc3MlAIb.s 			page 11


 164 0090 C0E7     		b	.L15
 165              	.LVL15:
 166              	.L3:
 301:.\Generated_Source\PSoC4/RTC_I2C_MASTER.c ****                 RTC_state = RTC_I2C_FSM_MSTR_RD_DATA;
 167              		.loc 1 301 0
 168 0092 2526     		mov	r6, #37
 169              	.LVL16:
 302:.\Generated_Source\PSoC4/RTC_I2C_MASTER.c ****                          slaveAddress |= RTC_I2C_READ_FLAG;
 170              		.loc 1 302 0
 171 0094 4046     		mov	r0, r8
 301:.\Generated_Source\PSoC4/RTC_I2C_MASTER.c ****                 RTC_state = RTC_I2C_FSM_MSTR_RD_DATA;
 172              		.loc 1 301 0
 173 0096 2E70     		strb	r6, [r5]
 302:.\Generated_Source\PSoC4/RTC_I2C_MASTER.c ****                          slaveAddress |= RTC_I2C_READ_FLAG;
 174              		.loc 1 302 0
 175 0098 0443     		orr	r4, r0
 176              	.LVL17:
 177 009a CFE7     		b	.L4
 178              	.LVL18:
 179              	.L11:
 340:.\Generated_Source\PSoC4/RTC_I2C_MASTER.c ****                 errStatus = RTC_I2C_MSTR_NO_ERROR;
 180              		.loc 1 340 0
 181 009c 0024     		mov	r4, #0
 182              	.L6:
 183              	.LVL19:
 359:.\Generated_Source\PSoC4/RTC_I2C_MASTER.c ****             RTC_ClearMasterInterruptSource(RTC_INTR_MASTER_I2C_ACK      |
 184              		.loc 1 359 0
 185 009e 0B48     		ldr	r0, .L20+24
 186 00a0 094F     		ldr	r7, .L20+20
 187 00a2 3860     		str	r0, [r7]
 188 00a4 B6E7     		b	.L15
 189              	.LVL20:
 190              	.L12:
 344:.\Generated_Source\PSoC4/RTC_I2C_MASTER.c ****                 errStatus = RTC_I2C_MSTR_ERR_LB_NAK;
 191              		.loc 1 344 0
 192 00a6 0224     		mov	r4, #2
 193 00a8 F9E7     		b	.L6
 194              	.L7:
 354:.\Generated_Source\PSoC4/RTC_I2C_MASTER.c ****                 RTC_state = RTC_I2C_FSM_IDLE;
 195              		.loc 1 354 0
 196 00aa 1026     		mov	r6, #16
 197 00ac 2E70     		strb	r6, [r5]
 198              	.LVL21:
 355:.\Generated_Source\PSoC4/RTC_I2C_MASTER.c ****                              errStatus = RTC_I2C_MSTR_ERR_BUS_ERR;
 199              		.loc 1 355 0
 200 00ae 8025     		mov	r5, #128
 201 00b0 6C00     		lsl	r4, r5, #1
 202 00b2 DCE7     		b	.L8
 203              	.L21:
 204              		.align	2
 205              	.L20:
 206 00b4 00000000 		.word	RTC_state
 207 00b8 64000640 		.word	1074135140
 208 00bc 40020640 		.word	1074135616
 209 00c0 17030000 		.word	791
 210 00c4 68000640 		.word	1074135144
 211 00c8 000F0640 		.word	1074138880
ARM GAS  C:\Users\Computer\AppData\Local\Temp\cc3MlAIb.s 			page 12


 212 00cc 07010000 		.word	263
 213 00d0 00000640 		.word	1074135040
 214              		.cfi_endproc
 215              	.LFE2:
 216              		.size	RTC_I2CMasterSendStart, .-RTC_I2CMasterSendStart
 217              		.section	.text.RTC_I2CMasterSendStop,"ax",%progbits
 218              		.align	2
 219              		.global	RTC_I2CMasterSendStop
 220              		.code	16
 221              		.thumb_func
 222              		.type	RTC_I2CMasterSendStop, %function
 223              	RTC_I2CMasterSendStop:
 224              	.LFB4:
 376:.\Generated_Source\PSoC4/RTC_I2C_MASTER.c **** 
 377:.\Generated_Source\PSoC4/RTC_I2C_MASTER.c **** 
 378:.\Generated_Source\PSoC4/RTC_I2C_MASTER.c **** /*******************************************************************************
 379:.\Generated_Source\PSoC4/RTC_I2C_MASTER.c **** * Function Name: RTC_I2CMasterSendRestart
 380:.\Generated_Source\PSoC4/RTC_I2C_MASTER.c **** ********************************************************************************
 381:.\Generated_Source\PSoC4/RTC_I2C_MASTER.c **** *
 382:.\Generated_Source\PSoC4/RTC_I2C_MASTER.c **** * Summary:
 383:.\Generated_Source\PSoC4/RTC_I2C_MASTER.c **** *  Generates ReStart condition and sends slave address with read/write bit.
 384:.\Generated_Source\PSoC4/RTC_I2C_MASTER.c **** *
 385:.\Generated_Source\PSoC4/RTC_I2C_MASTER.c **** * Parameters:
 386:.\Generated_Source\PSoC4/RTC_I2C_MASTER.c **** *  slaveAddress:  7-bit slave address.
 387:.\Generated_Source\PSoC4/RTC_I2C_MASTER.c **** *  bitRnW:        Zero, send write command, non-zero send read command.
 388:.\Generated_Source\PSoC4/RTC_I2C_MASTER.c **** *
 389:.\Generated_Source\PSoC4/RTC_I2C_MASTER.c **** * Return:
 390:.\Generated_Source\PSoC4/RTC_I2C_MASTER.c **** *  Status error - zero means no errors.
 391:.\Generated_Source\PSoC4/RTC_I2C_MASTER.c **** *
 392:.\Generated_Source\PSoC4/RTC_I2C_MASTER.c **** * Side Effects:
 393:.\Generated_Source\PSoC4/RTC_I2C_MASTER.c **** *  This function is entered without a 'byte complete' bit set in the I2C_CSR
 394:.\Generated_Source\PSoC4/RTC_I2C_MASTER.c **** *  register. It does not exit until it will be set.
 395:.\Generated_Source\PSoC4/RTC_I2C_MASTER.c **** *
 396:.\Generated_Source\PSoC4/RTC_I2C_MASTER.c **** * Global variables:
 397:.\Generated_Source\PSoC4/RTC_I2C_MASTER.c **** *  RTC_state - used to store current state of software FSM.
 398:.\Generated_Source\PSoC4/RTC_I2C_MASTER.c **** *
 399:.\Generated_Source\PSoC4/RTC_I2C_MASTER.c **** *******************************************************************************/
 400:.\Generated_Source\PSoC4/RTC_I2C_MASTER.c **** uint32 RTC_I2CMasterSendRestart(uint32 slaveAddress, uint32 bitRnW)
 401:.\Generated_Source\PSoC4/RTC_I2C_MASTER.c **** {
 402:.\Generated_Source\PSoC4/RTC_I2C_MASTER.c ****     uint32 errStatus;
 403:.\Generated_Source\PSoC4/RTC_I2C_MASTER.c ****     uint8  enableInterrupts;
 404:.\Generated_Source\PSoC4/RTC_I2C_MASTER.c **** 
 405:.\Generated_Source\PSoC4/RTC_I2C_MASTER.c ****     errStatus        = RTC_I2C_MSTR_NOT_READY;
 406:.\Generated_Source\PSoC4/RTC_I2C_MASTER.c ****     enableInterrupts = 0u;
 407:.\Generated_Source\PSoC4/RTC_I2C_MASTER.c **** 
 408:.\Generated_Source\PSoC4/RTC_I2C_MASTER.c ****     /* Check FSM state before generate ReStart condition */
 409:.\Generated_Source\PSoC4/RTC_I2C_MASTER.c ****     if(RTC_CHECK_I2C_MASTER_ACTIVE)
 410:.\Generated_Source\PSoC4/RTC_I2C_MASTER.c ****     {
 411:.\Generated_Source\PSoC4/RTC_I2C_MASTER.c ****         slaveAddress = RTC_GET_I2C_8BIT_ADDRESS(slaveAddress);
 412:.\Generated_Source\PSoC4/RTC_I2C_MASTER.c **** 
 413:.\Generated_Source\PSoC4/RTC_I2C_MASTER.c ****         if(0u == bitRnW) /* Write direction */
 414:.\Generated_Source\PSoC4/RTC_I2C_MASTER.c ****         {
 415:.\Generated_Source\PSoC4/RTC_I2C_MASTER.c ****             RTC_state = RTC_I2C_FSM_MSTR_WR_DATA;
 416:.\Generated_Source\PSoC4/RTC_I2C_MASTER.c ****         }
 417:.\Generated_Source\PSoC4/RTC_I2C_MASTER.c ****         else  /* Read direction */
 418:.\Generated_Source\PSoC4/RTC_I2C_MASTER.c ****         {
 419:.\Generated_Source\PSoC4/RTC_I2C_MASTER.c ****             RTC_state  = RTC_I2C_FSM_MSTR_RD_DATA;
ARM GAS  C:\Users\Computer\AppData\Local\Temp\cc3MlAIb.s 			page 13


 420:.\Generated_Source\PSoC4/RTC_I2C_MASTER.c ****                       slaveAddress |= RTC_I2C_READ_FLAG;
 421:.\Generated_Source\PSoC4/RTC_I2C_MASTER.c ****         }
 422:.\Generated_Source\PSoC4/RTC_I2C_MASTER.c **** 
 423:.\Generated_Source\PSoC4/RTC_I2C_MASTER.c ****         /* The TX and RX FIFO have to be EMPTY */
 424:.\Generated_Source\PSoC4/RTC_I2C_MASTER.c **** 
 425:.\Generated_Source\PSoC4/RTC_I2C_MASTER.c ****         /* Clean-up interrupt status */
 426:.\Generated_Source\PSoC4/RTC_I2C_MASTER.c ****         RTC_ClearMasterInterruptSource(RTC_INTR_MASTER_ALL);
 427:.\Generated_Source\PSoC4/RTC_I2C_MASTER.c **** 
 428:.\Generated_Source\PSoC4/RTC_I2C_MASTER.c ****         /*
 429:.\Generated_Source\PSoC4/RTC_I2C_MASTER.c ****         * Generates a START - the restart should be set first and then address need to be put,
 430:.\Generated_Source\PSoC4/RTC_I2C_MASTER.c ****         * Because on write the byte in TX FIFO treated as DATA byte. ReStart will not be generated
 431:.\Generated_Source\PSoC4/RTC_I2C_MASTER.c ****         */
 432:.\Generated_Source\PSoC4/RTC_I2C_MASTER.c ****         RTC_I2C_MASTER_GENERATE_RESTART;
 433:.\Generated_Source\PSoC4/RTC_I2C_MASTER.c **** 
 434:.\Generated_Source\PSoC4/RTC_I2C_MASTER.c ****         while(RTC_CHECK_I2C_MASTER_CMD(RTC_I2C_MASTER_CMD_M_START))
 435:.\Generated_Source\PSoC4/RTC_I2C_MASTER.c ****         {
 436:.\Generated_Source\PSoC4/RTC_I2C_MASTER.c ****             /* Wait until ReStart will be generated */
 437:.\Generated_Source\PSoC4/RTC_I2C_MASTER.c ****         }
 438:.\Generated_Source\PSoC4/RTC_I2C_MASTER.c **** 
 439:.\Generated_Source\PSoC4/RTC_I2C_MASTER.c ****         /* Put address into TX FIFO */
 440:.\Generated_Source\PSoC4/RTC_I2C_MASTER.c ****         RTC_TX_FIFO_WR_REG = slaveAddress;
 441:.\Generated_Source\PSoC4/RTC_I2C_MASTER.c **** 
 442:.\Generated_Source\PSoC4/RTC_I2C_MASTER.c ****         /* Wait for the address to be transfered */
 443:.\Generated_Source\PSoC4/RTC_I2C_MASTER.c ****         while(!RTC_CHECK_INTR_MASTER(RTC_INTR_MASTER_I2C_ACK      |
 444:.\Generated_Source\PSoC4/RTC_I2C_MASTER.c ****                                                   RTC_INTR_MASTER_I2C_NACK     |
 445:.\Generated_Source\PSoC4/RTC_I2C_MASTER.c ****                                                   RTC_INTR_MASTER_I2C_ARB_LOST |
 446:.\Generated_Source\PSoC4/RTC_I2C_MASTER.c ****                                                   RTC_INTR_MASTER_I2C_BUS_ERROR))
 447:.\Generated_Source\PSoC4/RTC_I2C_MASTER.c ****         {
 448:.\Generated_Source\PSoC4/RTC_I2C_MASTER.c ****             /* Wait until address will be transfered */
 449:.\Generated_Source\PSoC4/RTC_I2C_MASTER.c ****         }
 450:.\Generated_Source\PSoC4/RTC_I2C_MASTER.c **** 
 451:.\Generated_Source\PSoC4/RTC_I2C_MASTER.c ****         /* Check results of address phase: look into RTC_I2CMasterSendStart for description */
 452:.\Generated_Source\PSoC4/RTC_I2C_MASTER.c ****         if(RTC_CHECK_INTR_MASTER(RTC_INTR_MASTER_I2C_ACK))
 453:.\Generated_Source\PSoC4/RTC_I2C_MASTER.c ****         {
 454:.\Generated_Source\PSoC4/RTC_I2C_MASTER.c ****             errStatus = RTC_I2C_MSTR_NO_ERROR;
 455:.\Generated_Source\PSoC4/RTC_I2C_MASTER.c ****         }
 456:.\Generated_Source\PSoC4/RTC_I2C_MASTER.c ****         else if(RTC_CHECK_INTR_MASTER(RTC_INTR_MASTER_I2C_NACK))
 457:.\Generated_Source\PSoC4/RTC_I2C_MASTER.c ****         {
 458:.\Generated_Source\PSoC4/RTC_I2C_MASTER.c ****              errStatus = RTC_I2C_MSTR_ERR_LB_NAK;
 459:.\Generated_Source\PSoC4/RTC_I2C_MASTER.c ****         }
 460:.\Generated_Source\PSoC4/RTC_I2C_MASTER.c ****         else if(RTC_CHECK_INTR_MASTER(RTC_INTR_MASTER_I2C_ARB_LOST))
 461:.\Generated_Source\PSoC4/RTC_I2C_MASTER.c ****         {
 462:.\Generated_Source\PSoC4/RTC_I2C_MASTER.c ****             RTC_state = RTC_I2C_FSM_IDLE;
 463:.\Generated_Source\PSoC4/RTC_I2C_MASTER.c ****                          errStatus = RTC_I2C_MSTR_ERR_ARB_LOST;
 464:.\Generated_Source\PSoC4/RTC_I2C_MASTER.c ****                   enableInterrupts = RTC_I2C_RESET_ERROR;
 465:.\Generated_Source\PSoC4/RTC_I2C_MASTER.c ****         }
 466:.\Generated_Source\PSoC4/RTC_I2C_MASTER.c ****         else /* RTC_INTR_MASTER_I2C_BUS_ERROR set is else condition */
 467:.\Generated_Source\PSoC4/RTC_I2C_MASTER.c ****         {
 468:.\Generated_Source\PSoC4/RTC_I2C_MASTER.c ****             RTC_state = RTC_I2C_FSM_IDLE;
 469:.\Generated_Source\PSoC4/RTC_I2C_MASTER.c ****                          errStatus = RTC_I2C_MSTR_ERR_BUS_ERR;
 470:.\Generated_Source\PSoC4/RTC_I2C_MASTER.c ****                   enableInterrupts = RTC_I2C_RESET_ERROR;
 471:.\Generated_Source\PSoC4/RTC_I2C_MASTER.c ****         }
 472:.\Generated_Source\PSoC4/RTC_I2C_MASTER.c **** 
 473:.\Generated_Source\PSoC4/RTC_I2C_MASTER.c ****         RTC_ClearMasterInterruptSource(RTC_INTR_MASTER_I2C_ACK      |
 474:.\Generated_Source\PSoC4/RTC_I2C_MASTER.c ****                                                     RTC_INTR_MASTER_I2C_NACK     |
 475:.\Generated_Source\PSoC4/RTC_I2C_MASTER.c ****                                                     RTC_INTR_MASTER_I2C_ARB_LOST |
 476:.\Generated_Source\PSoC4/RTC_I2C_MASTER.c ****                                                     RTC_INTR_MASTER_I2C_BUS_ERROR);
ARM GAS  C:\Users\Computer\AppData\Local\Temp\cc3MlAIb.s 			page 14


 477:.\Generated_Source\PSoC4/RTC_I2C_MASTER.c **** 
 478:.\Generated_Source\PSoC4/RTC_I2C_MASTER.c ****         /* Reset block in case of: LOST_ARB or BUS_ERR */
 479:.\Generated_Source\PSoC4/RTC_I2C_MASTER.c ****         if(0u != enableInterrupts)
 480:.\Generated_Source\PSoC4/RTC_I2C_MASTER.c ****         {
 481:.\Generated_Source\PSoC4/RTC_I2C_MASTER.c ****             enableInterrupts = CyEnterCriticalSection();
 482:.\Generated_Source\PSoC4/RTC_I2C_MASTER.c ****             RTC_SCB_SW_RESET;
 483:.\Generated_Source\PSoC4/RTC_I2C_MASTER.c ****             CyExitCriticalSection(enableInterrupts);
 484:.\Generated_Source\PSoC4/RTC_I2C_MASTER.c ****         }
 485:.\Generated_Source\PSoC4/RTC_I2C_MASTER.c ****     }
 486:.\Generated_Source\PSoC4/RTC_I2C_MASTER.c **** 
 487:.\Generated_Source\PSoC4/RTC_I2C_MASTER.c ****     return(errStatus);
 488:.\Generated_Source\PSoC4/RTC_I2C_MASTER.c **** }
 489:.\Generated_Source\PSoC4/RTC_I2C_MASTER.c **** 
 490:.\Generated_Source\PSoC4/RTC_I2C_MASTER.c **** 
 491:.\Generated_Source\PSoC4/RTC_I2C_MASTER.c **** /*******************************************************************************
 492:.\Generated_Source\PSoC4/RTC_I2C_MASTER.c **** * Function Name: RTC_I2CMasterSendStop
 493:.\Generated_Source\PSoC4/RTC_I2C_MASTER.c **** ********************************************************************************
 494:.\Generated_Source\PSoC4/RTC_I2C_MASTER.c **** *
 495:.\Generated_Source\PSoC4/RTC_I2C_MASTER.c **** * Summary:
 496:.\Generated_Source\PSoC4/RTC_I2C_MASTER.c **** *  Generates I2C Stop condition on bus. Function do nothing if Start or Restart
 497:.\Generated_Source\PSoC4/RTC_I2C_MASTER.c **** *  condition was failed before call this function.
 498:.\Generated_Source\PSoC4/RTC_I2C_MASTER.c **** *
 499:.\Generated_Source\PSoC4/RTC_I2C_MASTER.c **** * Parameters:
 500:.\Generated_Source\PSoC4/RTC_I2C_MASTER.c **** *  None
 501:.\Generated_Source\PSoC4/RTC_I2C_MASTER.c **** *
 502:.\Generated_Source\PSoC4/RTC_I2C_MASTER.c **** * Return:
 503:.\Generated_Source\PSoC4/RTC_I2C_MASTER.c **** *  Status error - zero means no errors.
 504:.\Generated_Source\PSoC4/RTC_I2C_MASTER.c **** *
 505:.\Generated_Source\PSoC4/RTC_I2C_MASTER.c **** * Side Effects:
 506:.\Generated_Source\PSoC4/RTC_I2C_MASTER.c **** *  The Stop generation is required to complete transaction.
 507:.\Generated_Source\PSoC4/RTC_I2C_MASTER.c **** *  This function does not wait while Stop condition will be generated.
 508:.\Generated_Source\PSoC4/RTC_I2C_MASTER.c **** *
 509:.\Generated_Source\PSoC4/RTC_I2C_MASTER.c **** * Global variables:
 510:.\Generated_Source\PSoC4/RTC_I2C_MASTER.c **** *  RTC_state - used to store current state of software FSM.
 511:.\Generated_Source\PSoC4/RTC_I2C_MASTER.c **** *
 512:.\Generated_Source\PSoC4/RTC_I2C_MASTER.c **** *******************************************************************************/
 513:.\Generated_Source\PSoC4/RTC_I2C_MASTER.c **** uint32 RTC_I2CMasterSendStop(void)
 514:.\Generated_Source\PSoC4/RTC_I2C_MASTER.c **** {
 225              		.loc 1 514 0
 226              		.cfi_startproc
 227              	.LVL22:
 228 0000 38B5     		push	{r3, r4, r5, lr}
 229              	.LCFI2:
 230              		.cfi_def_cfa_offset 16
 231              		.cfi_offset 3, -16
 232              		.cfi_offset 4, -12
 233              		.cfi_offset 5, -8
 234              		.cfi_offset 14, -4
 515:.\Generated_Source\PSoC4/RTC_I2C_MASTER.c ****     uint32 errStatus;
 516:.\Generated_Source\PSoC4/RTC_I2C_MASTER.c ****     uint8  enableInterrupts;
 517:.\Generated_Source\PSoC4/RTC_I2C_MASTER.c **** 
 518:.\Generated_Source\PSoC4/RTC_I2C_MASTER.c ****     errStatus        = RTC_I2C_MSTR_NOT_READY;
 519:.\Generated_Source\PSoC4/RTC_I2C_MASTER.c ****     enableInterrupts = 0u;
 520:.\Generated_Source\PSoC4/RTC_I2C_MASTER.c **** 
 521:.\Generated_Source\PSoC4/RTC_I2C_MASTER.c ****     /* Check FSM state before generate Stop condition */
 522:.\Generated_Source\PSoC4/RTC_I2C_MASTER.c ****     if(RTC_CHECK_I2C_MASTER_ACTIVE)
 235              		.loc 1 522 0
ARM GAS  C:\Users\Computer\AppData\Local\Temp\cc3MlAIb.s 			page 15


 236 0002 1C4D     		ldr	r5, .L41
 237 0004 2023     		mov	r3, #32
 238 0006 2A78     		ldrb	r2, [r5]
 518:.\Generated_Source\PSoC4/RTC_I2C_MASTER.c ****     errStatus        = RTC_I2C_MSTR_NOT_READY;
 239              		.loc 1 518 0
 240 0008 0424     		mov	r4, #4
 241              		.loc 1 522 0
 242 000a 1342     		tst	r3, r2
 243 000c 01D1     		bne	.L39
 244              	.LVL23:
 245              	.L34:
 523:.\Generated_Source\PSoC4/RTC_I2C_MASTER.c ****     {
 524:.\Generated_Source\PSoC4/RTC_I2C_MASTER.c ****         /*
 525:.\Generated_Source\PSoC4/RTC_I2C_MASTER.c ****         * Write direction: generates Stop
 526:.\Generated_Source\PSoC4/RTC_I2C_MASTER.c ****         * Read  direction: generates NACK and Stop
 527:.\Generated_Source\PSoC4/RTC_I2C_MASTER.c ****         */
 528:.\Generated_Source\PSoC4/RTC_I2C_MASTER.c ****         RTC_I2C_MASTER_GENERATE_STOP;
 529:.\Generated_Source\PSoC4/RTC_I2C_MASTER.c **** 
 530:.\Generated_Source\PSoC4/RTC_I2C_MASTER.c ****         while(!RTC_CHECK_INTR_MASTER(RTC_INTR_MASTER_I2C_STOP     |
 531:.\Generated_Source\PSoC4/RTC_I2C_MASTER.c ****                                                   RTC_INTR_MASTER_I2C_ARB_LOST |
 532:.\Generated_Source\PSoC4/RTC_I2C_MASTER.c ****                                                   RTC_INTR_MASTER_I2C_BUS_ERROR))
 533:.\Generated_Source\PSoC4/RTC_I2C_MASTER.c ****         {
 534:.\Generated_Source\PSoC4/RTC_I2C_MASTER.c ****             /* Wait until Stop will be generated */
 535:.\Generated_Source\PSoC4/RTC_I2C_MASTER.c ****         }
 536:.\Generated_Source\PSoC4/RTC_I2C_MASTER.c **** 
 537:.\Generated_Source\PSoC4/RTC_I2C_MASTER.c ****         /*
 538:.\Generated_Source\PSoC4/RTC_I2C_MASTER.c ****         * Check what was actually generated.
 539:.\Generated_Source\PSoC4/RTC_I2C_MASTER.c ****         *  LOST_ARB - NACK generation: the other master can drive ACK.
 540:.\Generated_Source\PSoC4/RTC_I2C_MASTER.c ****         *           - Misplaced Start while NACK generation.
 541:.\Generated_Source\PSoC4/RTC_I2C_MASTER.c ****         *           - Undefiend lost arbitration conditions.
 542:.\Generated_Source\PSoC4/RTC_I2C_MASTER.c ****         *  BUS_ERR  - added just in case undefined lost arbitration.
 543:.\Generated_Source\PSoC4/RTC_I2C_MASTER.c ****         *  Reset SCB on either LOST_ARB or BUS_ERR as both could be caused by
 544:.\Generated_Source\PSoC4/RTC_I2C_MASTER.c ****         *  misplaced Start event to reset bus busy.
 545:.\Generated_Source\PSoC4/RTC_I2C_MASTER.c ****         */
 546:.\Generated_Source\PSoC4/RTC_I2C_MASTER.c ****         if(RTC_CHECK_INTR_MASTER(RTC_INTR_MASTER_I2C_STOP))
 547:.\Generated_Source\PSoC4/RTC_I2C_MASTER.c ****         {
 548:.\Generated_Source\PSoC4/RTC_I2C_MASTER.c ****             errStatus = RTC_I2C_MSTR_NO_ERROR;
 549:.\Generated_Source\PSoC4/RTC_I2C_MASTER.c ****         }
 550:.\Generated_Source\PSoC4/RTC_I2C_MASTER.c ****         else if(RTC_CHECK_INTR_MASTER(RTC_INTR_MASTER_I2C_ARB_LOST))
 551:.\Generated_Source\PSoC4/RTC_I2C_MASTER.c ****         {
 552:.\Generated_Source\PSoC4/RTC_I2C_MASTER.c ****                          errStatus = RTC_I2C_MSTR_ERR_ARB_LOST;
 553:.\Generated_Source\PSoC4/RTC_I2C_MASTER.c ****                   enableInterrupts = RTC_I2C_RESET_ERROR;
 554:.\Generated_Source\PSoC4/RTC_I2C_MASTER.c ****         }
 555:.\Generated_Source\PSoC4/RTC_I2C_MASTER.c ****         else /* RTC_INTR_MASTER_I2C_BUS_ERROR set is else condition */
 556:.\Generated_Source\PSoC4/RTC_I2C_MASTER.c ****         {
 557:.\Generated_Source\PSoC4/RTC_I2C_MASTER.c ****                          errStatus = RTC_I2C_MSTR_ERR_BUS_ERR;
 558:.\Generated_Source\PSoC4/RTC_I2C_MASTER.c ****                   enableInterrupts = RTC_I2C_RESET_ERROR;
 559:.\Generated_Source\PSoC4/RTC_I2C_MASTER.c ****         }
 560:.\Generated_Source\PSoC4/RTC_I2C_MASTER.c **** 
 561:.\Generated_Source\PSoC4/RTC_I2C_MASTER.c ****         RTC_ClearMasterInterruptSource(RTC_INTR_MASTER_I2C_STOP     |
 562:.\Generated_Source\PSoC4/RTC_I2C_MASTER.c ****                                                     RTC_INTR_MASTER_I2C_ARB_LOST |
 563:.\Generated_Source\PSoC4/RTC_I2C_MASTER.c ****                                                     RTC_INTR_MASTER_I2C_BUS_ERROR);
 564:.\Generated_Source\PSoC4/RTC_I2C_MASTER.c **** 
 565:.\Generated_Source\PSoC4/RTC_I2C_MASTER.c ****         /* Reset block in case of: LOST_ARB or BUS_ERR */
 566:.\Generated_Source\PSoC4/RTC_I2C_MASTER.c ****         if(0u != enableInterrupts)
 567:.\Generated_Source\PSoC4/RTC_I2C_MASTER.c ****         {
 568:.\Generated_Source\PSoC4/RTC_I2C_MASTER.c ****             enableInterrupts = CyEnterCriticalSection();
ARM GAS  C:\Users\Computer\AppData\Local\Temp\cc3MlAIb.s 			page 16


 569:.\Generated_Source\PSoC4/RTC_I2C_MASTER.c ****             RTC_SCB_SW_RESET;
 570:.\Generated_Source\PSoC4/RTC_I2C_MASTER.c ****             CyExitCriticalSection(enableInterrupts);
 571:.\Generated_Source\PSoC4/RTC_I2C_MASTER.c ****         }
 572:.\Generated_Source\PSoC4/RTC_I2C_MASTER.c **** 
 573:.\Generated_Source\PSoC4/RTC_I2C_MASTER.c ****         RTC_state = RTC_I2C_FSM_IDLE;
 574:.\Generated_Source\PSoC4/RTC_I2C_MASTER.c ****     }
 575:.\Generated_Source\PSoC4/RTC_I2C_MASTER.c **** 
 576:.\Generated_Source\PSoC4/RTC_I2C_MASTER.c ****     return(errStatus);
 577:.\Generated_Source\PSoC4/RTC_I2C_MASTER.c **** }
 246              		.loc 1 577 0
 247 000e 201C     		mov	r0, r4
 248              		@ sp needed for prologue
 249 0010 38BD     		pop	{r3, r4, r5, pc}
 250              	.LVL24:
 251              	.L39:
 528:.\Generated_Source\PSoC4/RTC_I2C_MASTER.c ****         RTC_I2C_MASTER_GENERATE_STOP;
 252              		.loc 1 528 0
 253 0012 1948     		ldr	r0, .L41+4
 254 0014 1024     		mov	r4, #16
 255 0016 0168     		ldr	r1, [r0]
 256 0018 0B42     		tst	r3, r1
 257 001a 28D1     		bne	.L40
 258              	.L24:
 528:.\Generated_Source\PSoC4/RTC_I2C_MASTER.c ****         RTC_I2C_MASTER_GENERATE_STOP;
 259              		.loc 1 528 0 is_stmt 0 discriminator 3
 260 001c 174A     		ldr	r2, .L41+8
 530:.\Generated_Source\PSoC4/RTC_I2C_MASTER.c ****         while(!RTC_CHECK_INTR_MASTER(RTC_INTR_MASTER_I2C_STOP     |
 261              		.loc 1 530 0 is_stmt 1 discriminator 3
 262 001e 1848     		ldr	r0, .L41+12
 263 0020 1849     		ldr	r1, .L41+16
 528:.\Generated_Source\PSoC4/RTC_I2C_MASTER.c ****         RTC_I2C_MASTER_GENERATE_STOP;
 264              		.loc 1 528 0 discriminator 3
 265 0022 1460     		str	r4, [r2]
 266              	.L25:
 530:.\Generated_Source\PSoC4/RTC_I2C_MASTER.c ****         while(!RTC_CHECK_INTR_MASTER(RTC_INTR_MASTER_I2C_STOP     |
 267              		.loc 1 530 0 discriminator 1
 268 0024 0368     		ldr	r3, [r0]
 269 0026 164C     		ldr	r4, .L41+12
 270 0028 0B42     		tst	r3, r1
 271 002a FBD0     		beq	.L25
 546:.\Generated_Source\PSoC4/RTC_I2C_MASTER.c ****         if(RTC_CHECK_INTR_MASTER(RTC_INTR_MASTER_I2C_STOP))
 272              		.loc 1 546 0
 273 002c 2268     		ldr	r2, [r4]
 274 002e D106     		lsl	r1, r2, #27
 275 0030 19D4     		bmi	.L26
 550:.\Generated_Source\PSoC4/RTC_I2C_MASTER.c ****         else if(RTC_CHECK_INTR_MASTER(RTC_INTR_MASTER_I2C_ARB_LOST))
 276              		.loc 1 550 0
 277 0032 2068     		ldr	r0, [r4]
 552:.\Generated_Source\PSoC4/RTC_I2C_MASTER.c ****                          errStatus = RTC_I2C_MSTR_ERR_ARB_LOST;
 278              		.loc 1 552 0
 279 0034 0124     		mov	r4, #1
 550:.\Generated_Source\PSoC4/RTC_I2C_MASTER.c ****         else if(RTC_CHECK_INTR_MASTER(RTC_INTR_MASTER_I2C_ARB_LOST))
 280              		.loc 1 550 0
 281 0036 C207     		lsl	r2, r0, #31
 282 0038 01D4     		bmi	.L28
 557:.\Generated_Source\PSoC4/RTC_I2C_MASTER.c ****                          errStatus = RTC_I2C_MSTR_ERR_BUS_ERR;
 283              		.loc 1 557 0
ARM GAS  C:\Users\Computer\AppData\Local\Temp\cc3MlAIb.s 			page 17


 284 003a 8021     		mov	r1, #128
 285 003c 4C00     		lsl	r4, r1, #1
 286              	.L28:
 287              	.LVL25:
 561:.\Generated_Source\PSoC4/RTC_I2C_MASTER.c ****         RTC_ClearMasterInterruptSource(RTC_INTR_MASTER_I2C_STOP     |
 288              		.loc 1 561 0
 289 003e 114A     		ldr	r2, .L41+16
 290 0040 0F4B     		ldr	r3, .L41+12
 291 0042 1A60     		str	r2, [r3]
 568:.\Generated_Source\PSoC4/RTC_I2C_MASTER.c ****             enableInterrupts = CyEnterCriticalSection();
 292              		.loc 1 568 0
 293 0044 FFF7FEFF 		bl	CyEnterCriticalSection
 294              	.LVL26:
 569:.\Generated_Source\PSoC4/RTC_I2C_MASTER.c ****             RTC_SCB_SW_RESET;
 295              		.loc 1 569 0
 296 0048 0F4B     		ldr	r3, .L41+20
 297 004a 1968     		ldr	r1, [r3]
 298 004c 4A00     		lsl	r2, r1, #1
 299 004e 5108     		lsr	r1, r2, #1
 300 0050 1960     		str	r1, [r3]
 301 0052 1968     		ldr	r1, [r3]
 302 0054 8022     		mov	r2, #128
 303 0056 1206     		lsl	r2, r2, #24
 304 0058 0A43     		orr	r2, r1
 305 005a 1A60     		str	r2, [r3]
 570:.\Generated_Source\PSoC4/RTC_I2C_MASTER.c ****             CyExitCriticalSection(enableInterrupts);
 306              		.loc 1 570 0
 307 005c FFF7FEFF 		bl	CyExitCriticalSection
 308              	.LVL27:
 309              	.L29:
 573:.\Generated_Source\PSoC4/RTC_I2C_MASTER.c ****         RTC_state = RTC_I2C_FSM_IDLE;
 310              		.loc 1 573 0
 311 0060 1023     		mov	r3, #16
 312 0062 2B70     		strb	r3, [r5]
 313 0064 D3E7     		b	.L34
 314              	.LVL28:
 315              	.L26:
 561:.\Generated_Source\PSoC4/RTC_I2C_MASTER.c ****         RTC_ClearMasterInterruptSource(RTC_INTR_MASTER_I2C_STOP     |
 316              		.loc 1 561 0
 317 0066 0748     		ldr	r0, .L41+16
 318 0068 2060     		str	r0, [r4]
 548:.\Generated_Source\PSoC4/RTC_I2C_MASTER.c ****             errStatus = RTC_I2C_MSTR_NO_ERROR;
 319              		.loc 1 548 0
 320 006a 0024     		mov	r4, #0
 321 006c F8E7     		b	.L29
 322              	.LVL29:
 323              	.L40:
 528:.\Generated_Source\PSoC4/RTC_I2C_MASTER.c ****         RTC_I2C_MASTER_GENERATE_STOP;
 324              		.loc 1 528 0
 325 006e 1824     		mov	r4, #24
 326 0070 D4E7     		b	.L24
 327              	.L42:
 328 0072 C046     		.align	2
 329              	.L41:
 330 0074 00000000 		.word	RTC_state
 331 0078 64000640 		.word	1074135140
 332 007c 68000640 		.word	1074135144
ARM GAS  C:\Users\Computer\AppData\Local\Temp\cc3MlAIb.s 			page 18


 333 0080 000F0640 		.word	1074138880
 334 0084 11010000 		.word	273
 335 0088 00000640 		.word	1074135040
 336              		.cfi_endproc
 337              	.LFE4:
 338              		.size	RTC_I2CMasterSendStop, .-RTC_I2CMasterSendStop
 339              		.section	.text.RTC_I2CMasterWriteByte,"ax",%progbits
 340              		.align	2
 341              		.global	RTC_I2CMasterWriteByte
 342              		.code	16
 343              		.thumb_func
 344              		.type	RTC_I2CMasterWriteByte, %function
 345              	RTC_I2CMasterWriteByte:
 346              	.LFB5:
 578:.\Generated_Source\PSoC4/RTC_I2C_MASTER.c **** 
 579:.\Generated_Source\PSoC4/RTC_I2C_MASTER.c **** 
 580:.\Generated_Source\PSoC4/RTC_I2C_MASTER.c **** /*******************************************************************************
 581:.\Generated_Source\PSoC4/RTC_I2C_MASTER.c **** * Function Name: RTC_I2CMasterWriteByte
 582:.\Generated_Source\PSoC4/RTC_I2C_MASTER.c **** ********************************************************************************
 583:.\Generated_Source\PSoC4/RTC_I2C_MASTER.c **** *
 584:.\Generated_Source\PSoC4/RTC_I2C_MASTER.c **** * Summary:
 585:.\Generated_Source\PSoC4/RTC_I2C_MASTER.c **** *  Sends one byte to a slave. A valid Start or ReStart condition must be
 586:.\Generated_Source\PSoC4/RTC_I2C_MASTER.c **** *  generated before this call this function. Function do nothing if Start or
 587:.\Generated_Source\PSoC4/RTC_I2C_MASTER.c **** *  Restart condition was failed before call this function.
 588:.\Generated_Source\PSoC4/RTC_I2C_MASTER.c **** *
 589:.\Generated_Source\PSoC4/RTC_I2C_MASTER.c **** * Parameters:
 590:.\Generated_Source\PSoC4/RTC_I2C_MASTER.c **** *  data:  The data byte to send to the slave.
 591:.\Generated_Source\PSoC4/RTC_I2C_MASTER.c **** *
 592:.\Generated_Source\PSoC4/RTC_I2C_MASTER.c **** * Return:
 593:.\Generated_Source\PSoC4/RTC_I2C_MASTER.c **** *  Status error - zero means no errors.
 594:.\Generated_Source\PSoC4/RTC_I2C_MASTER.c **** *
 595:.\Generated_Source\PSoC4/RTC_I2C_MASTER.c **** * Side Effects:
 596:.\Generated_Source\PSoC4/RTC_I2C_MASTER.c **** *  This function is entered without a 'byte complete' bit set in the I2C_CSR
 597:.\Generated_Source\PSoC4/RTC_I2C_MASTER.c **** *  register. It does not exit until it will be set.
 598:.\Generated_Source\PSoC4/RTC_I2C_MASTER.c **** *
 599:.\Generated_Source\PSoC4/RTC_I2C_MASTER.c **** * Global variables:
 600:.\Generated_Source\PSoC4/RTC_I2C_MASTER.c **** *  RTC_state - used to store current state of software FSM.
 601:.\Generated_Source\PSoC4/RTC_I2C_MASTER.c **** *
 602:.\Generated_Source\PSoC4/RTC_I2C_MASTER.c **** *******************************************************************************/
 603:.\Generated_Source\PSoC4/RTC_I2C_MASTER.c **** uint32 RTC_I2CMasterWriteByte(uint32 theByte)
 604:.\Generated_Source\PSoC4/RTC_I2C_MASTER.c **** {
 347              		.loc 1 604 0
 348              		.cfi_startproc
 349              	.LVL30:
 350 0000 38B5     		push	{r3, r4, r5, lr}
 351              	.LCFI3:
 352              		.cfi_def_cfa_offset 16
 353              		.cfi_offset 3, -16
 354              		.cfi_offset 4, -12
 355              		.cfi_offset 5, -8
 356              		.cfi_offset 14, -4
 605:.\Generated_Source\PSoC4/RTC_I2C_MASTER.c ****     uint32 errStatus;
 606:.\Generated_Source\PSoC4/RTC_I2C_MASTER.c ****     uint8  enableInterrupts;
 607:.\Generated_Source\PSoC4/RTC_I2C_MASTER.c **** 
 608:.\Generated_Source\PSoC4/RTC_I2C_MASTER.c ****     errStatus        = RTC_I2C_MSTR_NOT_READY;
 609:.\Generated_Source\PSoC4/RTC_I2C_MASTER.c ****     enableInterrupts = 0u;
 610:.\Generated_Source\PSoC4/RTC_I2C_MASTER.c **** 
ARM GAS  C:\Users\Computer\AppData\Local\Temp\cc3MlAIb.s 			page 19


 611:.\Generated_Source\PSoC4/RTC_I2C_MASTER.c ****     /* Check FSM state before write byte */
 612:.\Generated_Source\PSoC4/RTC_I2C_MASTER.c ****     if(RTC_CHECK_I2C_MASTER_ACTIVE)
 357              		.loc 1 612 0
 358 0002 1E4D     		ldr	r5, .L61
 608:.\Generated_Source\PSoC4/RTC_I2C_MASTER.c ****     errStatus        = RTC_I2C_MSTR_NOT_READY;
 359              		.loc 1 608 0
 360 0004 0424     		mov	r4, #4
 361              		.loc 1 612 0
 362 0006 2B78     		ldrb	r3, [r5]
 363 0008 9906     		lsl	r1, r3, #26
 364 000a 01D4     		bmi	.L58
 365              	.LVL31:
 366              	.L54:
 613:.\Generated_Source\PSoC4/RTC_I2C_MASTER.c ****     {
 614:.\Generated_Source\PSoC4/RTC_I2C_MASTER.c ****         RTC_TX_FIFO_WR_REG = theByte;
 615:.\Generated_Source\PSoC4/RTC_I2C_MASTER.c **** 
 616:.\Generated_Source\PSoC4/RTC_I2C_MASTER.c ****         while(!RTC_CHECK_INTR_MASTER(RTC_INTR_MASTER_I2C_ACK      |
 617:.\Generated_Source\PSoC4/RTC_I2C_MASTER.c ****                                                   RTC_INTR_MASTER_I2C_NACK     |
 618:.\Generated_Source\PSoC4/RTC_I2C_MASTER.c ****                                                   RTC_INTR_MASTER_I2C_ARB_LOST |
 619:.\Generated_Source\PSoC4/RTC_I2C_MASTER.c ****                                                   RTC_INTR_MASTER_I2C_BUS_ERROR))
 620:.\Generated_Source\PSoC4/RTC_I2C_MASTER.c ****         {
 621:.\Generated_Source\PSoC4/RTC_I2C_MASTER.c ****             /* Wait until byte will be transfered */
 622:.\Generated_Source\PSoC4/RTC_I2C_MASTER.c ****         }
 623:.\Generated_Source\PSoC4/RTC_I2C_MASTER.c **** 
 624:.\Generated_Source\PSoC4/RTC_I2C_MASTER.c ****         /*
 625:.\Generated_Source\PSoC4/RTC_I2C_MASTER.c ****         * Check results after byte was sent.
 626:.\Generated_Source\PSoC4/RTC_I2C_MASTER.c ****         *  LOST_ARB - SDA line is not match to what master drives:
 627:.\Generated_Source\PSoC4/RTC_I2C_MASTER.c ****         *  lost arbitration or misplaced Start. Place: 8-bits of data.
 628:.\Generated_Source\PSoC4/RTC_I2C_MASTER.c ****         *  The misplaced Start is possible when SCB drives SDA 1 and it changes to 0, when SCL is 1
 629:.\Generated_Source\PSoC4/RTC_I2C_MASTER.c ****         *  BUS_ERR - misplaced Start or Stop when Slave drives. Place: ACK/NACK bit.
 630:.\Generated_Source\PSoC4/RTC_I2C_MASTER.c ****         *  The misplaced Start or Stop causes the bus idle status to get stuck to busy.
 631:.\Generated_Source\PSoC4/RTC_I2C_MASTER.c ****         *  The misplaced Start is possible when SCB drives SCL 1 and it changes
 632:.\Generated_Source\PSoC4/RTC_I2C_MASTER.c ****         *  from 1 to 0 (Start) or 0 to 1 (Stop).
 633:.\Generated_Source\PSoC4/RTC_I2C_MASTER.c ****         *  Reset SCB on either LOST_ARB or BUS_ERR as both could be caused by
 634:.\Generated_Source\PSoC4/RTC_I2C_MASTER.c ****         *  misplaced Start event to reset bus busy.
 635:.\Generated_Source\PSoC4/RTC_I2C_MASTER.c ****         */
 636:.\Generated_Source\PSoC4/RTC_I2C_MASTER.c ****         if(RTC_CHECK_INTR_MASTER(RTC_INTR_MASTER_I2C_ACK))
 637:.\Generated_Source\PSoC4/RTC_I2C_MASTER.c ****         {
 638:.\Generated_Source\PSoC4/RTC_I2C_MASTER.c ****             RTC_state = RTC_I2C_FSM_MSTR_HALT;
 639:.\Generated_Source\PSoC4/RTC_I2C_MASTER.c ****                          errStatus = RTC_I2C_MSTR_NO_ERROR;
 640:.\Generated_Source\PSoC4/RTC_I2C_MASTER.c ****         }
 641:.\Generated_Source\PSoC4/RTC_I2C_MASTER.c ****         else if(RTC_CHECK_INTR_MASTER(RTC_INTR_MASTER_I2C_NACK))
 642:.\Generated_Source\PSoC4/RTC_I2C_MASTER.c ****         {
 643:.\Generated_Source\PSoC4/RTC_I2C_MASTER.c ****             RTC_state = RTC_I2C_FSM_MSTR_HALT;
 644:.\Generated_Source\PSoC4/RTC_I2C_MASTER.c ****                          errStatus = RTC_I2C_MSTR_ERR_LB_NAK;
 645:.\Generated_Source\PSoC4/RTC_I2C_MASTER.c ****         }
 646:.\Generated_Source\PSoC4/RTC_I2C_MASTER.c ****         else if(RTC_CHECK_INTR_MASTER(RTC_INTR_MASTER_I2C_ARB_LOST))
 647:.\Generated_Source\PSoC4/RTC_I2C_MASTER.c ****         {
 648:.\Generated_Source\PSoC4/RTC_I2C_MASTER.c ****             RTC_state = RTC_I2C_FSM_IDLE;
 649:.\Generated_Source\PSoC4/RTC_I2C_MASTER.c ****                          errStatus = RTC_I2C_MSTR_ERR_ARB_LOST;
 650:.\Generated_Source\PSoC4/RTC_I2C_MASTER.c ****                   enableInterrupts = RTC_I2C_RESET_ERROR;
 651:.\Generated_Source\PSoC4/RTC_I2C_MASTER.c ****         }
 652:.\Generated_Source\PSoC4/RTC_I2C_MASTER.c ****         else /* RTC_INTR_MASTER_I2C_BUS_ERROR set is else condition */
 653:.\Generated_Source\PSoC4/RTC_I2C_MASTER.c ****         {
 654:.\Generated_Source\PSoC4/RTC_I2C_MASTER.c ****             RTC_state = RTC_I2C_FSM_IDLE;
 655:.\Generated_Source\PSoC4/RTC_I2C_MASTER.c ****                          errStatus = RTC_I2C_MSTR_ERR_BUS_ERR;
 656:.\Generated_Source\PSoC4/RTC_I2C_MASTER.c ****                   enableInterrupts = RTC_I2C_RESET_ERROR;
ARM GAS  C:\Users\Computer\AppData\Local\Temp\cc3MlAIb.s 			page 20


 657:.\Generated_Source\PSoC4/RTC_I2C_MASTER.c ****         }
 658:.\Generated_Source\PSoC4/RTC_I2C_MASTER.c **** 
 659:.\Generated_Source\PSoC4/RTC_I2C_MASTER.c ****         RTC_ClearMasterInterruptSource(RTC_INTR_MASTER_I2C_ACK      |
 660:.\Generated_Source\PSoC4/RTC_I2C_MASTER.c ****                                                     RTC_INTR_MASTER_I2C_NACK     |
 661:.\Generated_Source\PSoC4/RTC_I2C_MASTER.c ****                                                     RTC_INTR_MASTER_I2C_ARB_LOST |
 662:.\Generated_Source\PSoC4/RTC_I2C_MASTER.c ****                                                     RTC_INTR_MASTER_I2C_BUS_ERROR);
 663:.\Generated_Source\PSoC4/RTC_I2C_MASTER.c **** 
 664:.\Generated_Source\PSoC4/RTC_I2C_MASTER.c ****         /* Reset block in case of: LOST_ARB or BUS_ERR */
 665:.\Generated_Source\PSoC4/RTC_I2C_MASTER.c ****         if(0u != enableInterrupts)
 666:.\Generated_Source\PSoC4/RTC_I2C_MASTER.c ****         {
 667:.\Generated_Source\PSoC4/RTC_I2C_MASTER.c ****             enableInterrupts = CyEnterCriticalSection();
 668:.\Generated_Source\PSoC4/RTC_I2C_MASTER.c ****             RTC_SCB_SW_RESET;
 669:.\Generated_Source\PSoC4/RTC_I2C_MASTER.c ****             CyExitCriticalSection(enableInterrupts);
 670:.\Generated_Source\PSoC4/RTC_I2C_MASTER.c ****         }
 671:.\Generated_Source\PSoC4/RTC_I2C_MASTER.c ****     }
 672:.\Generated_Source\PSoC4/RTC_I2C_MASTER.c **** 
 673:.\Generated_Source\PSoC4/RTC_I2C_MASTER.c ****     return(errStatus);
 674:.\Generated_Source\PSoC4/RTC_I2C_MASTER.c **** }
 367              		.loc 1 674 0
 368 000c 201C     		mov	r0, r4
 369              		@ sp needed for prologue
 370 000e 38BD     		pop	{r3, r4, r5, pc}
 371              	.LVL32:
 372              	.L58:
 614:.\Generated_Source\PSoC4/RTC_I2C_MASTER.c ****         RTC_TX_FIFO_WR_REG = theByte;
 373              		.loc 1 614 0
 374 0010 1B49     		ldr	r1, .L61+4
 616:.\Generated_Source\PSoC4/RTC_I2C_MASTER.c ****         while(!RTC_CHECK_INTR_MASTER(RTC_INTR_MASTER_I2C_ACK      |
 375              		.loc 1 616 0
 376 0012 1C4C     		ldr	r4, .L61+8
 614:.\Generated_Source\PSoC4/RTC_I2C_MASTER.c ****         RTC_TX_FIFO_WR_REG = theByte;
 377              		.loc 1 614 0
 378 0014 0860     		str	r0, [r1]
 616:.\Generated_Source\PSoC4/RTC_I2C_MASTER.c ****         while(!RTC_CHECK_INTR_MASTER(RTC_INTR_MASTER_I2C_ACK      |
 379              		.loc 1 616 0
 380 0016 1C48     		ldr	r0, .L61+12
 381              	.LVL33:
 382              	.L45:
 616:.\Generated_Source\PSoC4/RTC_I2C_MASTER.c ****         while(!RTC_CHECK_INTR_MASTER(RTC_INTR_MASTER_I2C_ACK      |
 383              		.loc 1 616 0 is_stmt 0 discriminator 1
 384 0018 0368     		ldr	r3, [r0]
 385 001a 1B4A     		ldr	r2, .L61+12
 386 001c 2342     		tst	r3, r4
 387 001e FBD0     		beq	.L45
 636:.\Generated_Source\PSoC4/RTC_I2C_MASTER.c ****         if(RTC_CHECK_INTR_MASTER(RTC_INTR_MASTER_I2C_ACK))
 388              		.loc 1 636 0 is_stmt 1
 389 0020 1168     		ldr	r1, [r2]
 390              	.LVL34:
 391 0022 4907     		lsl	r1, r1, #29
 392 0024 09D4     		bmi	.L59
 641:.\Generated_Source\PSoC4/RTC_I2C_MASTER.c ****         else if(RTC_CHECK_INTR_MASTER(RTC_INTR_MASTER_I2C_NACK))
 393              		.loc 1 641 0
 394 0026 1068     		ldr	r0, [r2]
 395 0028 8107     		lsl	r1, r0, #30
 396 002a 0AD5     		bpl	.L48
 643:.\Generated_Source\PSoC4/RTC_I2C_MASTER.c ****             RTC_state = RTC_I2C_FSM_MSTR_HALT;
 397              		.loc 1 643 0
ARM GAS  C:\Users\Computer\AppData\Local\Temp\cc3MlAIb.s 			page 21


 398 002c 6024     		mov	r4, #96
 399 002e 2C70     		strb	r4, [r5]
 400              	.LVL35:
 644:.\Generated_Source\PSoC4/RTC_I2C_MASTER.c ****                          errStatus = RTC_I2C_MSTR_ERR_LB_NAK;
 401              		.loc 1 644 0
 402 0030 0224     		mov	r4, #2
 403              	.LVL36:
 404              	.L47:
 659:.\Generated_Source\PSoC4/RTC_I2C_MASTER.c ****         RTC_ClearMasterInterruptSource(RTC_INTR_MASTER_I2C_ACK      |
 405              		.loc 1 659 0
 406 0032 144D     		ldr	r5, .L61+8
 407 0034 144B     		ldr	r3, .L61+12
 408 0036 1D60     		str	r5, [r3]
 409 0038 E8E7     		b	.L54
 410              	.LVL37:
 411              	.L59:
 638:.\Generated_Source\PSoC4/RTC_I2C_MASTER.c ****             RTC_state = RTC_I2C_FSM_MSTR_HALT;
 412              		.loc 1 638 0
 413 003a 6020     		mov	r0, #96
 414 003c 2870     		strb	r0, [r5]
 415              	.LVL38:
 639:.\Generated_Source\PSoC4/RTC_I2C_MASTER.c ****                          errStatus = RTC_I2C_MSTR_NO_ERROR;
 416              		.loc 1 639 0
 417 003e 0024     		mov	r4, #0
 418 0040 F7E7     		b	.L47
 419              	.LVL39:
 420              	.L48:
 646:.\Generated_Source\PSoC4/RTC_I2C_MASTER.c ****         else if(RTC_CHECK_INTR_MASTER(RTC_INTR_MASTER_I2C_ARB_LOST))
 421              		.loc 1 646 0
 422 0042 1468     		ldr	r4, [r2]
 423 0044 E207     		lsl	r2, r4, #31
 424 0046 15D4     		bmi	.L60
 654:.\Generated_Source\PSoC4/RTC_I2C_MASTER.c ****             RTC_state = RTC_I2C_FSM_IDLE;
 425              		.loc 1 654 0
 426 0048 1022     		mov	r2, #16
 427 004a 2A70     		strb	r2, [r5]
 428              	.LVL40:
 655:.\Generated_Source\PSoC4/RTC_I2C_MASTER.c ****                          errStatus = RTC_I2C_MSTR_ERR_BUS_ERR;
 429              		.loc 1 655 0
 430 004c 8025     		mov	r5, #128
 431 004e 6C00     		lsl	r4, r5, #1
 432              	.LVL41:
 433              	.L50:
 659:.\Generated_Source\PSoC4/RTC_I2C_MASTER.c ****         RTC_ClearMasterInterruptSource(RTC_INTR_MASTER_I2C_ACK      |
 434              		.loc 1 659 0
 435 0050 0C49     		ldr	r1, .L61+8
 436 0052 0D48     		ldr	r0, .L61+12
 668:.\Generated_Source\PSoC4/RTC_I2C_MASTER.c ****             RTC_SCB_SW_RESET;
 437              		.loc 1 668 0
 438 0054 0D4D     		ldr	r5, .L61+16
 659:.\Generated_Source\PSoC4/RTC_I2C_MASTER.c ****         RTC_ClearMasterInterruptSource(RTC_INTR_MASTER_I2C_ACK      |
 439              		.loc 1 659 0
 440 0056 0160     		str	r1, [r0]
 667:.\Generated_Source\PSoC4/RTC_I2C_MASTER.c ****             enableInterrupts = CyEnterCriticalSection();
 441              		.loc 1 667 0
 442 0058 FFF7FEFF 		bl	CyEnterCriticalSection
 443              	.LVL42:
ARM GAS  C:\Users\Computer\AppData\Local\Temp\cc3MlAIb.s 			page 22


 668:.\Generated_Source\PSoC4/RTC_I2C_MASTER.c ****             RTC_SCB_SW_RESET;
 444              		.loc 1 668 0
 445 005c 2A68     		ldr	r2, [r5]
 446 005e 5300     		lsl	r3, r2, #1
 447 0060 5908     		lsr	r1, r3, #1
 448 0062 2960     		str	r1, [r5]
 449 0064 2B68     		ldr	r3, [r5]
 450 0066 8022     		mov	r2, #128
 451 0068 1106     		lsl	r1, r2, #24
 452 006a 1943     		orr	r1, r3
 453 006c 2960     		str	r1, [r5]
 669:.\Generated_Source\PSoC4/RTC_I2C_MASTER.c ****             CyExitCriticalSection(enableInterrupts);
 454              		.loc 1 669 0
 455 006e FFF7FEFF 		bl	CyExitCriticalSection
 456              	.LVL43:
 457 0072 CBE7     		b	.L54
 458              	.LVL44:
 459              	.L60:
 648:.\Generated_Source\PSoC4/RTC_I2C_MASTER.c ****             RTC_state = RTC_I2C_FSM_IDLE;
 460              		.loc 1 648 0
 461 0074 1023     		mov	r3, #16
 462 0076 2B70     		strb	r3, [r5]
 463              	.LVL45:
 649:.\Generated_Source\PSoC4/RTC_I2C_MASTER.c ****                          errStatus = RTC_I2C_MSTR_ERR_ARB_LOST;
 464              		.loc 1 649 0
 465 0078 0124     		mov	r4, #1
 466 007a E9E7     		b	.L50
 467              	.L62:
 468              		.align	2
 469              	.L61:
 470 007c 00000000 		.word	RTC_state
 471 0080 40020640 		.word	1074135616
 472 0084 07010000 		.word	263
 473 0088 000F0640 		.word	1074138880
 474 008c 00000640 		.word	1074135040
 475              		.cfi_endproc
 476              	.LFE5:
 477              		.size	RTC_I2CMasterWriteByte, .-RTC_I2CMasterWriteByte
 478              		.section	.text.RTC_I2CMasterReadByte,"ax",%progbits
 479              		.align	2
 480              		.global	RTC_I2CMasterReadByte
 481              		.code	16
 482              		.thumb_func
 483              		.type	RTC_I2CMasterReadByte, %function
 484              	RTC_I2CMasterReadByte:
 485              	.LFB6:
 675:.\Generated_Source\PSoC4/RTC_I2C_MASTER.c **** 
 676:.\Generated_Source\PSoC4/RTC_I2C_MASTER.c **** 
 677:.\Generated_Source\PSoC4/RTC_I2C_MASTER.c **** /*******************************************************************************
 678:.\Generated_Source\PSoC4/RTC_I2C_MASTER.c **** * Function Name: RTC_I2CMasterReadByte
 679:.\Generated_Source\PSoC4/RTC_I2C_MASTER.c **** ********************************************************************************
 680:.\Generated_Source\PSoC4/RTC_I2C_MASTER.c **** *
 681:.\Generated_Source\PSoC4/RTC_I2C_MASTER.c **** * Summary:
 682:.\Generated_Source\PSoC4/RTC_I2C_MASTER.c **** *  Reads one byte from a slave and ACK or NACK the transfer. A valid Start or
 683:.\Generated_Source\PSoC4/RTC_I2C_MASTER.c **** *  ReStart condition must be generated before this call this function. Function
 684:.\Generated_Source\PSoC4/RTC_I2C_MASTER.c **** *  do nothing if Start or Restart condition was failed before call this
 685:.\Generated_Source\PSoC4/RTC_I2C_MASTER.c **** *  function.
ARM GAS  C:\Users\Computer\AppData\Local\Temp\cc3MlAIb.s 			page 23


 686:.\Generated_Source\PSoC4/RTC_I2C_MASTER.c **** *
 687:.\Generated_Source\PSoC4/RTC_I2C_MASTER.c **** * Parameters:
 688:.\Generated_Source\PSoC4/RTC_I2C_MASTER.c **** *  acknNack:  Zero, response with NACK, if non-zero response with ACK.
 689:.\Generated_Source\PSoC4/RTC_I2C_MASTER.c **** *
 690:.\Generated_Source\PSoC4/RTC_I2C_MASTER.c **** * Return:
 691:.\Generated_Source\PSoC4/RTC_I2C_MASTER.c **** *  Byte read from slave.
 692:.\Generated_Source\PSoC4/RTC_I2C_MASTER.c **** *
 693:.\Generated_Source\PSoC4/RTC_I2C_MASTER.c **** * Side Effects:
 694:.\Generated_Source\PSoC4/RTC_I2C_MASTER.c **** *  This function is entered without a 'byte complete' bit set in the I2C_CSR
 695:.\Generated_Source\PSoC4/RTC_I2C_MASTER.c **** *  register. It does not exit until it will be set.
 696:.\Generated_Source\PSoC4/RTC_I2C_MASTER.c **** *
 697:.\Generated_Source\PSoC4/RTC_I2C_MASTER.c **** * Global variables:
 698:.\Generated_Source\PSoC4/RTC_I2C_MASTER.c **** *  RTC_state - used to store current state of software FSM.
 699:.\Generated_Source\PSoC4/RTC_I2C_MASTER.c **** *
 700:.\Generated_Source\PSoC4/RTC_I2C_MASTER.c **** *******************************************************************************/
 701:.\Generated_Source\PSoC4/RTC_I2C_MASTER.c **** uint32 RTC_I2CMasterReadByte(uint32 ackNack)
 702:.\Generated_Source\PSoC4/RTC_I2C_MASTER.c **** {
 486              		.loc 1 702 0
 487              		.cfi_startproc
 488              	.LVL46:
 489 0000 F8B5     		push	{r3, r4, r5, r6, r7, lr}
 490              	.LCFI4:
 491              		.cfi_def_cfa_offset 24
 492              		.cfi_offset 3, -24
 493              		.cfi_offset 4, -20
 494              		.cfi_offset 5, -16
 495              		.cfi_offset 6, -12
 496              		.cfi_offset 7, -8
 497              		.cfi_offset 14, -4
 703:.\Generated_Source\PSoC4/RTC_I2C_MASTER.c ****     uint32 theByte;
 704:.\Generated_Source\PSoC4/RTC_I2C_MASTER.c ****     uint8 enableInterrupts;
 705:.\Generated_Source\PSoC4/RTC_I2C_MASTER.c **** 
 706:.\Generated_Source\PSoC4/RTC_I2C_MASTER.c ****     /* Return invelid byte in case BUS_ERR was happen while receiving */
 707:.\Generated_Source\PSoC4/RTC_I2C_MASTER.c ****     theByte = RTC_I2C_INVALID_BYTE;
 708:.\Generated_Source\PSoC4/RTC_I2C_MASTER.c **** 
 709:.\Generated_Source\PSoC4/RTC_I2C_MASTER.c ****     /* Check FSM state before read byte */
 710:.\Generated_Source\PSoC4/RTC_I2C_MASTER.c ****     if(RTC_CHECK_I2C_MASTER_ACTIVE)
 498              		.loc 1 710 0
 499 0002 1B4E     		ldr	r6, .L77
 702:.\Generated_Source\PSoC4/RTC_I2C_MASTER.c **** {
 500              		.loc 1 702 0
 501 0004 071C     		mov	r7, r0
 502              		.loc 1 710 0
 503 0006 3378     		ldrb	r3, [r6]
 504 0008 9A06     		lsl	r2, r3, #26
 505 000a 02D4     		bmi	.L75
 707:.\Generated_Source\PSoC4/RTC_I2C_MASTER.c ****     theByte = RTC_I2C_INVALID_BYTE;
 506              		.loc 1 707 0
 507 000c 0120     		mov	r0, #1
 508              	.LVL47:
 509 000e 4042     		neg	r0, r0
 510              	.LVL48:
 511              	.L64:
 711:.\Generated_Source\PSoC4/RTC_I2C_MASTER.c ****     {
 712:.\Generated_Source\PSoC4/RTC_I2C_MASTER.c ****         while((!RTC_CHECK_INTR_RX(RTC_INTR_RX_NOT_EMPTY)) &&
 713:.\Generated_Source\PSoC4/RTC_I2C_MASTER.c ****               (!RTC_CHECK_INTR_MASTER(RTC_INTR_MASTER_I2C_ARB_LOST |
 714:.\Generated_Source\PSoC4/RTC_I2C_MASTER.c ****                                                   RTC_INTR_MASTER_I2C_BUS_ERROR)))
ARM GAS  C:\Users\Computer\AppData\Local\Temp\cc3MlAIb.s 			page 24


 715:.\Generated_Source\PSoC4/RTC_I2C_MASTER.c ****         {
 716:.\Generated_Source\PSoC4/RTC_I2C_MASTER.c ****             /* Wait until byte will be received */
 717:.\Generated_Source\PSoC4/RTC_I2C_MASTER.c ****         }
 718:.\Generated_Source\PSoC4/RTC_I2C_MASTER.c **** 
 719:.\Generated_Source\PSoC4/RTC_I2C_MASTER.c ****         /*
 720:.\Generated_Source\PSoC4/RTC_I2C_MASTER.c ****         * Check results after byte was sent.
 721:.\Generated_Source\PSoC4/RTC_I2C_MASTER.c ****         *  RX_NOT_EMPTY - the one byte is succesfully received.
 722:.\Generated_Source\PSoC4/RTC_I2C_MASTER.c ****         *  LOST_ARB - added just in case because master drives ACK only: level 0 on the bus.
 723:.\Generated_Source\PSoC4/RTC_I2C_MASTER.c ****         *  NACK is driven by separate API.
 724:.\Generated_Source\PSoC4/RTC_I2C_MASTER.c ****         *  BUS_ERR - misplaced Start or Stop when Slave drives. Place: 8 data bits.
 725:.\Generated_Source\PSoC4/RTC_I2C_MASTER.c ****         *  The misplaced Start or Stop causes the bus idle status to get stuck to busy.
 726:.\Generated_Source\PSoC4/RTC_I2C_MASTER.c ****         *  The misplaced Start is possible when SCB drives SCL 1 and it changes
 727:.\Generated_Source\PSoC4/RTC_I2C_MASTER.c ****         *  from 1 to 0 (Start) or 0 to 1 (Stop).
 728:.\Generated_Source\PSoC4/RTC_I2C_MASTER.c ****         *  Reset SCB on either LOST_ARB or BUS_ERR as both could be caused by
 729:.\Generated_Source\PSoC4/RTC_I2C_MASTER.c ****         *  misplaced Start event to reset bus busy.
 730:.\Generated_Source\PSoC4/RTC_I2C_MASTER.c ****         */
 731:.\Generated_Source\PSoC4/RTC_I2C_MASTER.c ****         if(RTC_CHECK_INTR_RX(RTC_INTR_RX_NOT_EMPTY))
 732:.\Generated_Source\PSoC4/RTC_I2C_MASTER.c ****         {
 733:.\Generated_Source\PSoC4/RTC_I2C_MASTER.c ****             theByte = RTC_RX_FIFO_RD_REG;
 734:.\Generated_Source\PSoC4/RTC_I2C_MASTER.c **** 
 735:.\Generated_Source\PSoC4/RTC_I2C_MASTER.c ****             RTC_ClearRxInterruptSource(RTC_INTR_RX_NOT_EMPTY);
 736:.\Generated_Source\PSoC4/RTC_I2C_MASTER.c **** 
 737:.\Generated_Source\PSoC4/RTC_I2C_MASTER.c ****             /*
 738:.\Generated_Source\PSoC4/RTC_I2C_MASTER.c ****             * ACK  - generates directly by master CMD.
 739:.\Generated_Source\PSoC4/RTC_I2C_MASTER.c ****             * NACK - does nothing. The NACK and STOP are generated by RTC_MasterSendStop()
 740:.\Generated_Source\PSoC4/RTC_I2C_MASTER.c ****             */
 741:.\Generated_Source\PSoC4/RTC_I2C_MASTER.c ****             if(0u == ackNack)  /* Do ACK */
 742:.\Generated_Source\PSoC4/RTC_I2C_MASTER.c ****             {
 743:.\Generated_Source\PSoC4/RTC_I2C_MASTER.c ****                 RTC_I2C_MASTER_GENERATE_ACK;
 744:.\Generated_Source\PSoC4/RTC_I2C_MASTER.c ****             }
 745:.\Generated_Source\PSoC4/RTC_I2C_MASTER.c ****             else /* Do nothing */
 746:.\Generated_Source\PSoC4/RTC_I2C_MASTER.c ****             {
 747:.\Generated_Source\PSoC4/RTC_I2C_MASTER.c ****                 RTC_state = RTC_I2C_FSM_MSTR_HALT;
 748:.\Generated_Source\PSoC4/RTC_I2C_MASTER.c ****             }
 749:.\Generated_Source\PSoC4/RTC_I2C_MASTER.c ****         }
 750:.\Generated_Source\PSoC4/RTC_I2C_MASTER.c ****         else
 751:.\Generated_Source\PSoC4/RTC_I2C_MASTER.c ****         {
 752:.\Generated_Source\PSoC4/RTC_I2C_MASTER.c ****             RTC_ClearMasterInterruptSource(RTC_INTR_MASTER_ALL);
 753:.\Generated_Source\PSoC4/RTC_I2C_MASTER.c **** 
 754:.\Generated_Source\PSoC4/RTC_I2C_MASTER.c ****             /* Reset block in case of: LOST_ARB or BUS_ERR */
 755:.\Generated_Source\PSoC4/RTC_I2C_MASTER.c ****             enableInterrupts = CyEnterCriticalSection();
 756:.\Generated_Source\PSoC4/RTC_I2C_MASTER.c ****             RTC_SCB_SW_RESET;
 757:.\Generated_Source\PSoC4/RTC_I2C_MASTER.c ****             CyExitCriticalSection(enableInterrupts);
 758:.\Generated_Source\PSoC4/RTC_I2C_MASTER.c ****         }
 759:.\Generated_Source\PSoC4/RTC_I2C_MASTER.c ****     }
 760:.\Generated_Source\PSoC4/RTC_I2C_MASTER.c **** 
 761:.\Generated_Source\PSoC4/RTC_I2C_MASTER.c ****     return(theByte);
 762:.\Generated_Source\PSoC4/RTC_I2C_MASTER.c **** }
 512              		.loc 1 762 0
 513              		@ sp needed for prologue
 514 0010 F8BD     		pop	{r3, r4, r5, r6, r7, pc}
 515              	.LVL49:
 516              	.L75:
 712:.\Generated_Source\PSoC4/RTC_I2C_MASTER.c ****         while((!RTC_CHECK_INTR_RX(RTC_INTR_RX_NOT_EMPTY)) &&
 517              		.loc 1 712 0
 518 0012 1849     		ldr	r1, .L77+4
 519 0014 0422     		mov	r2, #4
ARM GAS  C:\Users\Computer\AppData\Local\Temp\cc3MlAIb.s 			page 25


 713:.\Generated_Source\PSoC4/RTC_I2C_MASTER.c ****               (!RTC_CHECK_INTR_MASTER(RTC_INTR_MASTER_I2C_ARB_LOST |
 520              		.loc 1 713 0
 521 0016 184D     		ldr	r5, .L77+8
 522 0018 184C     		ldr	r4, .L77+12
 523 001a 02E0     		b	.L72
 524              	.LVL50:
 525              	.L76:
 713:.\Generated_Source\PSoC4/RTC_I2C_MASTER.c ****               (!RTC_CHECK_INTR_MASTER(RTC_INTR_MASTER_I2C_ARB_LOST |
 526              		.loc 1 713 0 is_stmt 0 discriminator 2
 527 001c 2868     		ldr	r0, [r5]
 712:.\Generated_Source\PSoC4/RTC_I2C_MASTER.c ****         while((!RTC_CHECK_INTR_RX(RTC_INTR_RX_NOT_EMPTY)) &&
 528              		.loc 1 712 0 is_stmt 1 discriminator 2
 529 001e 2042     		tst	r0, r4
 530 0020 02D1     		bne	.L65
 531              	.L72:
 712:.\Generated_Source\PSoC4/RTC_I2C_MASTER.c ****         while((!RTC_CHECK_INTR_RX(RTC_INTR_RX_NOT_EMPTY)) &&
 532              		.loc 1 712 0 is_stmt 0
 533 0022 0B68     		ldr	r3, [r1]
 534 0024 1A42     		tst	r2, r3
 535 0026 F9D0     		beq	.L76
 536              	.L65:
 731:.\Generated_Source\PSoC4/RTC_I2C_MASTER.c ****         if(RTC_CHECK_INTR_RX(RTC_INTR_RX_NOT_EMPTY))
 537              		.loc 1 731 0 is_stmt 1
 538 0028 124A     		ldr	r2, .L77+4
 539 002a 0425     		mov	r5, #4
 540 002c 1168     		ldr	r1, [r2]
 541 002e 0D42     		tst	r5, r1
 542 0030 07D0     		beq	.L67
 733:.\Generated_Source\PSoC4/RTC_I2C_MASTER.c ****             theByte = RTC_RX_FIFO_RD_REG;
 543              		.loc 1 733 0
 544 0032 134C     		ldr	r4, .L77+16
 545 0034 2068     		ldr	r0, [r4]
 546              	.LVL51:
 735:.\Generated_Source\PSoC4/RTC_I2C_MASTER.c ****             RTC_ClearRxInterruptSource(RTC_INTR_RX_NOT_EMPTY);
 547              		.loc 1 735 0
 548 0036 1560     		str	r5, [r2]
 741:.\Generated_Source\PSoC4/RTC_I2C_MASTER.c ****             if(0u == ackNack)  /* Do ACK */
 549              		.loc 1 741 0
 550 0038 002F     		cmp	r7, #0
 551 003a 16D1     		bne	.L68
 743:.\Generated_Source\PSoC4/RTC_I2C_MASTER.c ****                 RTC_I2C_MASTER_GENERATE_ACK;
 552              		.loc 1 743 0
 553 003c 114A     		ldr	r2, .L77+20
 554 003e 1560     		str	r5, [r2]
 555 0040 E6E7     		b	.L64
 556              	.LVL52:
 557              	.L67:
 752:.\Generated_Source\PSoC4/RTC_I2C_MASTER.c ****             RTC_ClearMasterInterruptSource(RTC_INTR_MASTER_ALL);
 558              		.loc 1 752 0
 559 0042 114F     		ldr	r7, .L77+24
 560              	.LVL53:
 561 0044 0C4E     		ldr	r6, .L77+8
 756:.\Generated_Source\PSoC4/RTC_I2C_MASTER.c ****             RTC_SCB_SW_RESET;
 562              		.loc 1 756 0
 563 0046 114C     		ldr	r4, .L77+28
 752:.\Generated_Source\PSoC4/RTC_I2C_MASTER.c ****             RTC_ClearMasterInterruptSource(RTC_INTR_MASTER_ALL);
 564              		.loc 1 752 0
ARM GAS  C:\Users\Computer\AppData\Local\Temp\cc3MlAIb.s 			page 26


 565 0048 3760     		str	r7, [r6]
 755:.\Generated_Source\PSoC4/RTC_I2C_MASTER.c ****             enableInterrupts = CyEnterCriticalSection();
 566              		.loc 1 755 0
 567 004a FFF7FEFF 		bl	CyEnterCriticalSection
 568              	.LVL54:
 756:.\Generated_Source\PSoC4/RTC_I2C_MASTER.c ****             RTC_SCB_SW_RESET;
 569              		.loc 1 756 0
 570 004e 2368     		ldr	r3, [r4]
 571 0050 8027     		mov	r7, #128
 572 0052 5A00     		lsl	r2, r3, #1
 573 0054 5108     		lsr	r1, r2, #1
 574 0056 2160     		str	r1, [r4]
 575 0058 2568     		ldr	r5, [r4]
 576 005a 3E06     		lsl	r6, r7, #24
 577 005c 2E43     		orr	r6, r5
 578 005e 2660     		str	r6, [r4]
 757:.\Generated_Source\PSoC4/RTC_I2C_MASTER.c ****             CyExitCriticalSection(enableInterrupts);
 579              		.loc 1 757 0
 580 0060 FFF7FEFF 		bl	CyExitCriticalSection
 581              	.LVL55:
 707:.\Generated_Source\PSoC4/RTC_I2C_MASTER.c ****     theByte = RTC_I2C_INVALID_BYTE;
 582              		.loc 1 707 0
 583 0064 0120     		mov	r0, #1
 584 0066 4042     		neg	r0, r0
 585 0068 D2E7     		b	.L64
 586              	.LVL56:
 587              	.L68:
 747:.\Generated_Source\PSoC4/RTC_I2C_MASTER.c ****                 RTC_state = RTC_I2C_FSM_MSTR_HALT;
 588              		.loc 1 747 0
 589 006a 6023     		mov	r3, #96
 590 006c 3370     		strb	r3, [r6]
 591 006e CFE7     		b	.L64
 592              	.L78:
 593              		.align	2
 594              	.L77:
 595 0070 00000000 		.word	RTC_state
 596 0074 C00F0640 		.word	1074139072
 597 0078 000F0640 		.word	1074138880
 598 007c 01010000 		.word	257
 599 0080 40030640 		.word	1074135872
 600 0084 68000640 		.word	1074135144
 601 0088 17030000 		.word	791
 602 008c 00000640 		.word	1074135040
 603              		.cfi_endproc
 604              	.LFE6:
 605              		.size	RTC_I2CMasterReadByte, .-RTC_I2CMasterReadByte
 606              		.section	.text.RTC_I2CMasterGetReadBufSize,"ax",%progbits
 607              		.align	2
 608              		.global	RTC_I2CMasterGetReadBufSize
 609              		.code	16
 610              		.thumb_func
 611              		.type	RTC_I2CMasterGetReadBufSize, %function
 612              	RTC_I2CMasterGetReadBufSize:
 613              	.LFB7:
 763:.\Generated_Source\PSoC4/RTC_I2C_MASTER.c **** 
 764:.\Generated_Source\PSoC4/RTC_I2C_MASTER.c **** 
 765:.\Generated_Source\PSoC4/RTC_I2C_MASTER.c **** /*******************************************************************************
ARM GAS  C:\Users\Computer\AppData\Local\Temp\cc3MlAIb.s 			page 27


 766:.\Generated_Source\PSoC4/RTC_I2C_MASTER.c **** * Function Name: RTC_I2CMasterGetReadBufSize
 767:.\Generated_Source\PSoC4/RTC_I2C_MASTER.c **** ********************************************************************************
 768:.\Generated_Source\PSoC4/RTC_I2C_MASTER.c **** *
 769:.\Generated_Source\PSoC4/RTC_I2C_MASTER.c **** * Summary:
 770:.\Generated_Source\PSoC4/RTC_I2C_MASTER.c **** *  Returns the amount of bytes that has been transferred with an
 771:.\Generated_Source\PSoC4/RTC_I2C_MASTER.c **** *  I2C_MasterReadBuf command.
 772:.\Generated_Source\PSoC4/RTC_I2C_MASTER.c **** *
 773:.\Generated_Source\PSoC4/RTC_I2C_MASTER.c **** * Parameters:
 774:.\Generated_Source\PSoC4/RTC_I2C_MASTER.c **** *  None
 775:.\Generated_Source\PSoC4/RTC_I2C_MASTER.c **** *
 776:.\Generated_Source\PSoC4/RTC_I2C_MASTER.c **** * Return:
 777:.\Generated_Source\PSoC4/RTC_I2C_MASTER.c **** *  Byte count of transfer. If the transfer is not yet complete, it will return
 778:.\Generated_Source\PSoC4/RTC_I2C_MASTER.c **** *  the byte count transferred so far.
 779:.\Generated_Source\PSoC4/RTC_I2C_MASTER.c **** *
 780:.\Generated_Source\PSoC4/RTC_I2C_MASTER.c **** * Global variables:
 781:.\Generated_Source\PSoC4/RTC_I2C_MASTER.c **** *  RTC_mstrRdBufIndex - used to current index within master read
 782:.\Generated_Source\PSoC4/RTC_I2C_MASTER.c **** *  buffer.
 783:.\Generated_Source\PSoC4/RTC_I2C_MASTER.c **** *
 784:.\Generated_Source\PSoC4/RTC_I2C_MASTER.c **** *******************************************************************************/
 785:.\Generated_Source\PSoC4/RTC_I2C_MASTER.c **** uint32 RTC_I2CMasterGetReadBufSize(void)
 786:.\Generated_Source\PSoC4/RTC_I2C_MASTER.c **** {
 614              		.loc 1 786 0
 615              		.cfi_startproc
 787:.\Generated_Source\PSoC4/RTC_I2C_MASTER.c ****     return(RTC_mstrRdBufIndex);
 616              		.loc 1 787 0
 617 0000 014B     		ldr	r3, .L80
 788:.\Generated_Source\PSoC4/RTC_I2C_MASTER.c **** }
 618              		.loc 1 788 0
 619              		@ sp needed for prologue
 787:.\Generated_Source\PSoC4/RTC_I2C_MASTER.c ****     return(RTC_mstrRdBufIndex);
 620              		.loc 1 787 0
 621 0002 1868     		ldr	r0, [r3]
 622              		.loc 1 788 0
 623 0004 7047     		bx	lr
 624              	.L81:
 625 0006 C046     		.align	2
 626              	.L80:
 627 0008 00000000 		.word	RTC_mstrRdBufIndex
 628              		.cfi_endproc
 629              	.LFE7:
 630              		.size	RTC_I2CMasterGetReadBufSize, .-RTC_I2CMasterGetReadBufSize
 631              		.section	.text.RTC_I2CMasterGetWriteBufSize,"ax",%progbits
 632              		.align	2
 633              		.global	RTC_I2CMasterGetWriteBufSize
 634              		.code	16
 635              		.thumb_func
 636              		.type	RTC_I2CMasterGetWriteBufSize, %function
 637              	RTC_I2CMasterGetWriteBufSize:
 638              	.LFB8:
 789:.\Generated_Source\PSoC4/RTC_I2C_MASTER.c **** 
 790:.\Generated_Source\PSoC4/RTC_I2C_MASTER.c **** 
 791:.\Generated_Source\PSoC4/RTC_I2C_MASTER.c **** /*******************************************************************************
 792:.\Generated_Source\PSoC4/RTC_I2C_MASTER.c **** * Function Name: RTC_I2CMasterGetWriteBufSize
 793:.\Generated_Source\PSoC4/RTC_I2C_MASTER.c **** ********************************************************************************
 794:.\Generated_Source\PSoC4/RTC_I2C_MASTER.c **** *
 795:.\Generated_Source\PSoC4/RTC_I2C_MASTER.c **** * Summary:
 796:.\Generated_Source\PSoC4/RTC_I2C_MASTER.c **** *  Returns the amount of bytes that has been transferred with an
ARM GAS  C:\Users\Computer\AppData\Local\Temp\cc3MlAIb.s 			page 28


 797:.\Generated_Source\PSoC4/RTC_I2C_MASTER.c **** *  I2C_MasterWriteBuf command.
 798:.\Generated_Source\PSoC4/RTC_I2C_MASTER.c **** *
 799:.\Generated_Source\PSoC4/RTC_I2C_MASTER.c **** * Parameters:
 800:.\Generated_Source\PSoC4/RTC_I2C_MASTER.c **** *  None
 801:.\Generated_Source\PSoC4/RTC_I2C_MASTER.c **** *
 802:.\Generated_Source\PSoC4/RTC_I2C_MASTER.c **** * Return:
 803:.\Generated_Source\PSoC4/RTC_I2C_MASTER.c **** *  Byte count of transfer. If the transfer is not yet complete, it will return
 804:.\Generated_Source\PSoC4/RTC_I2C_MASTER.c **** *  the byte count transferred so far.
 805:.\Generated_Source\PSoC4/RTC_I2C_MASTER.c **** *
 806:.\Generated_Source\PSoC4/RTC_I2C_MASTER.c **** * Global variables:
 807:.\Generated_Source\PSoC4/RTC_I2C_MASTER.c **** *  RTC_mstrWrBufIndex - used to current index within master write
 808:.\Generated_Source\PSoC4/RTC_I2C_MASTER.c **** *  buffer.
 809:.\Generated_Source\PSoC4/RTC_I2C_MASTER.c **** *
 810:.\Generated_Source\PSoC4/RTC_I2C_MASTER.c **** *******************************************************************************/
 811:.\Generated_Source\PSoC4/RTC_I2C_MASTER.c **** uint32 RTC_I2CMasterGetWriteBufSize(void)
 812:.\Generated_Source\PSoC4/RTC_I2C_MASTER.c **** {
 639              		.loc 1 812 0
 640              		.cfi_startproc
 813:.\Generated_Source\PSoC4/RTC_I2C_MASTER.c ****     return(RTC_mstrWrBufIndex);
 641              		.loc 1 813 0
 642 0000 014B     		ldr	r3, .L83
 814:.\Generated_Source\PSoC4/RTC_I2C_MASTER.c **** }
 643              		.loc 1 814 0
 644              		@ sp needed for prologue
 813:.\Generated_Source\PSoC4/RTC_I2C_MASTER.c ****     return(RTC_mstrWrBufIndex);
 645              		.loc 1 813 0
 646 0002 1868     		ldr	r0, [r3]
 647              		.loc 1 814 0
 648 0004 7047     		bx	lr
 649              	.L84:
 650 0006 C046     		.align	2
 651              	.L83:
 652 0008 00000000 		.word	RTC_mstrWrBufIndex
 653              		.cfi_endproc
 654              	.LFE8:
 655              		.size	RTC_I2CMasterGetWriteBufSize, .-RTC_I2CMasterGetWriteBufSize
 656              		.section	.text.RTC_I2CMasterClearReadBuf,"ax",%progbits
 657              		.align	2
 658              		.global	RTC_I2CMasterClearReadBuf
 659              		.code	16
 660              		.thumb_func
 661              		.type	RTC_I2CMasterClearReadBuf, %function
 662              	RTC_I2CMasterClearReadBuf:
 663              	.LFB9:
 815:.\Generated_Source\PSoC4/RTC_I2C_MASTER.c **** 
 816:.\Generated_Source\PSoC4/RTC_I2C_MASTER.c **** 
 817:.\Generated_Source\PSoC4/RTC_I2C_MASTER.c **** /*******************************************************************************
 818:.\Generated_Source\PSoC4/RTC_I2C_MASTER.c **** * Function Name: RTC_I2CMasterClearReadBuf
 819:.\Generated_Source\PSoC4/RTC_I2C_MASTER.c **** ********************************************************************************
 820:.\Generated_Source\PSoC4/RTC_I2C_MASTER.c **** *
 821:.\Generated_Source\PSoC4/RTC_I2C_MASTER.c **** * Summary:
 822:.\Generated_Source\PSoC4/RTC_I2C_MASTER.c **** *  Resets the read buffer pointer back to the first byte in the buffer.
 823:.\Generated_Source\PSoC4/RTC_I2C_MASTER.c **** *
 824:.\Generated_Source\PSoC4/RTC_I2C_MASTER.c **** * Parameters:
 825:.\Generated_Source\PSoC4/RTC_I2C_MASTER.c **** *  None
 826:.\Generated_Source\PSoC4/RTC_I2C_MASTER.c **** *
 827:.\Generated_Source\PSoC4/RTC_I2C_MASTER.c **** * Return:
ARM GAS  C:\Users\Computer\AppData\Local\Temp\cc3MlAIb.s 			page 29


 828:.\Generated_Source\PSoC4/RTC_I2C_MASTER.c **** *  None
 829:.\Generated_Source\PSoC4/RTC_I2C_MASTER.c **** *
 830:.\Generated_Source\PSoC4/RTC_I2C_MASTER.c **** * Global variables:
 831:.\Generated_Source\PSoC4/RTC_I2C_MASTER.c **** *  RTC_mstrRdBufIndex - used to current index within master read
 832:.\Generated_Source\PSoC4/RTC_I2C_MASTER.c **** *   buffer.
 833:.\Generated_Source\PSoC4/RTC_I2C_MASTER.c **** *  RTC_mstrStatus - used to store current status of I2C Master.
 834:.\Generated_Source\PSoC4/RTC_I2C_MASTER.c **** *
 835:.\Generated_Source\PSoC4/RTC_I2C_MASTER.c **** *******************************************************************************/
 836:.\Generated_Source\PSoC4/RTC_I2C_MASTER.c **** void RTC_I2CMasterClearReadBuf(void)
 837:.\Generated_Source\PSoC4/RTC_I2C_MASTER.c **** {
 664              		.loc 1 837 0
 665              		.cfi_startproc
 838:.\Generated_Source\PSoC4/RTC_I2C_MASTER.c ****     RTC_mstrRdBufIndex = 0u;
 666              		.loc 1 838 0
 667 0000 044B     		ldr	r3, .L86
 839:.\Generated_Source\PSoC4/RTC_I2C_MASTER.c ****     RTC_mstrStatus    &= (uint16) ~RTC_I2C_MSTAT_RD_CMPLT;
 668              		.loc 1 839 0
 669 0002 0548     		ldr	r0, .L86+4
 838:.\Generated_Source\PSoC4/RTC_I2C_MASTER.c ****     RTC_mstrRdBufIndex = 0u;
 670              		.loc 1 838 0
 671 0004 0022     		mov	r2, #0
 672 0006 1A60     		str	r2, [r3]
 673              		.loc 1 839 0
 674 0008 0288     		ldrh	r2, [r0]
 675 000a 0121     		mov	r1, #1
 676 000c 8A43     		bic	r2, r1
 677 000e 0280     		strh	r2, [r0]
 840:.\Generated_Source\PSoC4/RTC_I2C_MASTER.c **** }
 678              		.loc 1 840 0
 679              		@ sp needed for prologue
 680 0010 7047     		bx	lr
 681              	.L87:
 682 0012 C046     		.align	2
 683              	.L86:
 684 0014 00000000 		.word	RTC_mstrRdBufIndex
 685 0018 00000000 		.word	RTC_mstrStatus
 686              		.cfi_endproc
 687              	.LFE9:
 688              		.size	RTC_I2CMasterClearReadBuf, .-RTC_I2CMasterClearReadBuf
 689              		.section	.text.RTC_I2CMasterClearWriteBuf,"ax",%progbits
 690              		.align	2
 691              		.global	RTC_I2CMasterClearWriteBuf
 692              		.code	16
 693              		.thumb_func
 694              		.type	RTC_I2CMasterClearWriteBuf, %function
 695              	RTC_I2CMasterClearWriteBuf:
 696              	.LFB10:
 841:.\Generated_Source\PSoC4/RTC_I2C_MASTER.c **** 
 842:.\Generated_Source\PSoC4/RTC_I2C_MASTER.c **** 
 843:.\Generated_Source\PSoC4/RTC_I2C_MASTER.c **** /*******************************************************************************
 844:.\Generated_Source\PSoC4/RTC_I2C_MASTER.c **** * Function Name: RTC_I2CMasterClearWriteBuf
 845:.\Generated_Source\PSoC4/RTC_I2C_MASTER.c **** ********************************************************************************
 846:.\Generated_Source\PSoC4/RTC_I2C_MASTER.c **** *
 847:.\Generated_Source\PSoC4/RTC_I2C_MASTER.c **** * Summary:
 848:.\Generated_Source\PSoC4/RTC_I2C_MASTER.c **** *  Resets the write buffer pointer back to the first byte in the buffer.
 849:.\Generated_Source\PSoC4/RTC_I2C_MASTER.c **** *
 850:.\Generated_Source\PSoC4/RTC_I2C_MASTER.c **** * Parameters:
ARM GAS  C:\Users\Computer\AppData\Local\Temp\cc3MlAIb.s 			page 30


 851:.\Generated_Source\PSoC4/RTC_I2C_MASTER.c **** *  None
 852:.\Generated_Source\PSoC4/RTC_I2C_MASTER.c **** *
 853:.\Generated_Source\PSoC4/RTC_I2C_MASTER.c **** * Return:
 854:.\Generated_Source\PSoC4/RTC_I2C_MASTER.c **** *  None
 855:.\Generated_Source\PSoC4/RTC_I2C_MASTER.c **** *
 856:.\Generated_Source\PSoC4/RTC_I2C_MASTER.c **** * Global variables:
 857:.\Generated_Source\PSoC4/RTC_I2C_MASTER.c **** *  RTC_mstrRdBufIndex - used to current index within master read
 858:.\Generated_Source\PSoC4/RTC_I2C_MASTER.c **** *   buffer.
 859:.\Generated_Source\PSoC4/RTC_I2C_MASTER.c **** *  RTC_mstrStatus - used to store current status of I2C Master.
 860:.\Generated_Source\PSoC4/RTC_I2C_MASTER.c **** *
 861:.\Generated_Source\PSoC4/RTC_I2C_MASTER.c **** *******************************************************************************/
 862:.\Generated_Source\PSoC4/RTC_I2C_MASTER.c **** void RTC_I2CMasterClearWriteBuf(void)
 863:.\Generated_Source\PSoC4/RTC_I2C_MASTER.c **** {
 697              		.loc 1 863 0
 698              		.cfi_startproc
 864:.\Generated_Source\PSoC4/RTC_I2C_MASTER.c ****     RTC_mstrWrBufIndex = 0u;
 699              		.loc 1 864 0
 700 0000 044B     		ldr	r3, .L89
 865:.\Generated_Source\PSoC4/RTC_I2C_MASTER.c ****     RTC_mstrStatus    &= (uint16) ~RTC_I2C_MSTAT_WR_CMPLT;
 701              		.loc 1 865 0
 702 0002 0548     		ldr	r0, .L89+4
 864:.\Generated_Source\PSoC4/RTC_I2C_MASTER.c ****     RTC_mstrWrBufIndex = 0u;
 703              		.loc 1 864 0
 704 0004 0022     		mov	r2, #0
 705 0006 1A60     		str	r2, [r3]
 706              		.loc 1 865 0
 707 0008 0288     		ldrh	r2, [r0]
 708 000a 0221     		mov	r1, #2
 709 000c 8A43     		bic	r2, r1
 710 000e 0280     		strh	r2, [r0]
 866:.\Generated_Source\PSoC4/RTC_I2C_MASTER.c **** }
 711              		.loc 1 866 0
 712              		@ sp needed for prologue
 713 0010 7047     		bx	lr
 714              	.L90:
 715 0012 C046     		.align	2
 716              	.L89:
 717 0014 00000000 		.word	RTC_mstrWrBufIndex
 718 0018 00000000 		.word	RTC_mstrStatus
 719              		.cfi_endproc
 720              	.LFE10:
 721              		.size	RTC_I2CMasterClearWriteBuf, .-RTC_I2CMasterClearWriteBuf
 722              		.section	.text.RTC_I2CMasterStatus,"ax",%progbits
 723              		.align	2
 724              		.global	RTC_I2CMasterStatus
 725              		.code	16
 726              		.thumb_func
 727              		.type	RTC_I2CMasterStatus, %function
 728              	RTC_I2CMasterStatus:
 729              	.LFB11:
 867:.\Generated_Source\PSoC4/RTC_I2C_MASTER.c **** 
 868:.\Generated_Source\PSoC4/RTC_I2C_MASTER.c **** 
 869:.\Generated_Source\PSoC4/RTC_I2C_MASTER.c **** /*******************************************************************************
 870:.\Generated_Source\PSoC4/RTC_I2C_MASTER.c **** * Function Name: RTC_I2CMasterStatus
 871:.\Generated_Source\PSoC4/RTC_I2C_MASTER.c **** ********************************************************************************
 872:.\Generated_Source\PSoC4/RTC_I2C_MASTER.c **** *
 873:.\Generated_Source\PSoC4/RTC_I2C_MASTER.c **** * Summary:
ARM GAS  C:\Users\Computer\AppData\Local\Temp\cc3MlAIb.s 			page 31


 874:.\Generated_Source\PSoC4/RTC_I2C_MASTER.c **** *  Returns the master's communication status.
 875:.\Generated_Source\PSoC4/RTC_I2C_MASTER.c **** *
 876:.\Generated_Source\PSoC4/RTC_I2C_MASTER.c **** * Parameters:
 877:.\Generated_Source\PSoC4/RTC_I2C_MASTER.c **** *  None
 878:.\Generated_Source\PSoC4/RTC_I2C_MASTER.c **** *
 879:.\Generated_Source\PSoC4/RTC_I2C_MASTER.c **** * Return:
 880:.\Generated_Source\PSoC4/RTC_I2C_MASTER.c **** *  Current status of I2C master.
 881:.\Generated_Source\PSoC4/RTC_I2C_MASTER.c **** *
 882:.\Generated_Source\PSoC4/RTC_I2C_MASTER.c **** * Global variables:
 883:.\Generated_Source\PSoC4/RTC_I2C_MASTER.c **** *  RTC_mstrStatus - used to store current status of I2C Master.
 884:.\Generated_Source\PSoC4/RTC_I2C_MASTER.c **** *
 885:.\Generated_Source\PSoC4/RTC_I2C_MASTER.c **** *******************************************************************************/
 886:.\Generated_Source\PSoC4/RTC_I2C_MASTER.c **** uint32 RTC_I2CMasterStatus(void)
 887:.\Generated_Source\PSoC4/RTC_I2C_MASTER.c **** {
 730              		.loc 1 887 0
 731              		.cfi_startproc
 732 0000 00B5     		push	{lr}
 733              	.LCFI5:
 734              		.cfi_def_cfa_offset 4
 735              		.cfi_offset 14, -4
 888:.\Generated_Source\PSoC4/RTC_I2C_MASTER.c ****     uint32 status;
 889:.\Generated_Source\PSoC4/RTC_I2C_MASTER.c **** 
 890:.\Generated_Source\PSoC4/RTC_I2C_MASTER.c ****     status = (uint32) RTC_mstrStatus;
 736              		.loc 1 890 0
 737 0002 044B     		ldr	r3, .L94
 891:.\Generated_Source\PSoC4/RTC_I2C_MASTER.c **** 
 892:.\Generated_Source\PSoC4/RTC_I2C_MASTER.c ****     if(RTC_CHECK_I2C_MASTER_ACTIVE)
 738              		.loc 1 892 0
 739 0004 0449     		ldr	r1, .L94+4
 890:.\Generated_Source\PSoC4/RTC_I2C_MASTER.c ****     status = (uint32) RTC_mstrStatus;
 740              		.loc 1 890 0
 741 0006 1888     		ldrh	r0, [r3]
 742              	.LVL57:
 743              		.loc 1 892 0
 744 0008 0A78     		ldrb	r2, [r1]
 745 000a 9206     		lsl	r2, r2, #26
 746 000c 01D5     		bpl	.L93
 893:.\Generated_Source\PSoC4/RTC_I2C_MASTER.c ****     {
 894:.\Generated_Source\PSoC4/RTC_I2C_MASTER.c ****         /* Add status of master pending tranaction: MSTAT_XFER_INP */
 895:.\Generated_Source\PSoC4/RTC_I2C_MASTER.c ****         status |= (uint32) RTC_I2C_MSTAT_XFER_INP;
 747              		.loc 1 895 0
 748 000e 0423     		mov	r3, #4
 749 0010 1843     		orr	r0, r3
 750              	.LVL58:
 751              	.L93:
 896:.\Generated_Source\PSoC4/RTC_I2C_MASTER.c ****     }
 897:.\Generated_Source\PSoC4/RTC_I2C_MASTER.c **** 
 898:.\Generated_Source\PSoC4/RTC_I2C_MASTER.c ****     return(status);
 899:.\Generated_Source\PSoC4/RTC_I2C_MASTER.c **** }
 752              		.loc 1 899 0
 753              		@ sp needed for prologue
 754 0012 00BD     		pop	{pc}
 755              	.L95:
 756              		.align	2
 757              	.L94:
 758 0014 00000000 		.word	RTC_mstrStatus
 759 0018 00000000 		.word	RTC_state
ARM GAS  C:\Users\Computer\AppData\Local\Temp\cc3MlAIb.s 			page 32


 760              		.cfi_endproc
 761              	.LFE11:
 762              		.size	RTC_I2CMasterStatus, .-RTC_I2CMasterStatus
 763              		.section	.text.RTC_I2CMasterClearStatus,"ax",%progbits
 764              		.align	2
 765              		.global	RTC_I2CMasterClearStatus
 766              		.code	16
 767              		.thumb_func
 768              		.type	RTC_I2CMasterClearStatus, %function
 769              	RTC_I2CMasterClearStatus:
 770              	.LFB12:
 900:.\Generated_Source\PSoC4/RTC_I2C_MASTER.c **** 
 901:.\Generated_Source\PSoC4/RTC_I2C_MASTER.c **** 
 902:.\Generated_Source\PSoC4/RTC_I2C_MASTER.c **** /*******************************************************************************
 903:.\Generated_Source\PSoC4/RTC_I2C_MASTER.c **** * Function Name: RTC_I2CMasterClearStatus
 904:.\Generated_Source\PSoC4/RTC_I2C_MASTER.c **** ********************************************************************************
 905:.\Generated_Source\PSoC4/RTC_I2C_MASTER.c **** *
 906:.\Generated_Source\PSoC4/RTC_I2C_MASTER.c **** * Summary:
 907:.\Generated_Source\PSoC4/RTC_I2C_MASTER.c **** *  Clears all status flags and returns the master status.
 908:.\Generated_Source\PSoC4/RTC_I2C_MASTER.c **** *
 909:.\Generated_Source\PSoC4/RTC_I2C_MASTER.c **** * Parameters:
 910:.\Generated_Source\PSoC4/RTC_I2C_MASTER.c **** *  None
 911:.\Generated_Source\PSoC4/RTC_I2C_MASTER.c **** *
 912:.\Generated_Source\PSoC4/RTC_I2C_MASTER.c **** * Return:
 913:.\Generated_Source\PSoC4/RTC_I2C_MASTER.c **** *  Current status of I2C master.
 914:.\Generated_Source\PSoC4/RTC_I2C_MASTER.c **** *
 915:.\Generated_Source\PSoC4/RTC_I2C_MASTER.c **** * Global variables:
 916:.\Generated_Source\PSoC4/RTC_I2C_MASTER.c **** *  RTC_mstrStatus - used to store current status of I2C Master.
 917:.\Generated_Source\PSoC4/RTC_I2C_MASTER.c **** *
 918:.\Generated_Source\PSoC4/RTC_I2C_MASTER.c **** *******************************************************************************/
 919:.\Generated_Source\PSoC4/RTC_I2C_MASTER.c **** uint32 RTC_I2CMasterClearStatus(void)
 920:.\Generated_Source\PSoC4/RTC_I2C_MASTER.c **** {
 771              		.loc 1 920 0
 772              		.cfi_startproc
 921:.\Generated_Source\PSoC4/RTC_I2C_MASTER.c ****     uint32 status;
 922:.\Generated_Source\PSoC4/RTC_I2C_MASTER.c **** 
 923:.\Generated_Source\PSoC4/RTC_I2C_MASTER.c ****     /* Read and clear master status */
 924:.\Generated_Source\PSoC4/RTC_I2C_MASTER.c ****     status = (uint32) RTC_mstrStatus;
 773              		.loc 1 924 0
 774 0000 024B     		ldr	r3, .L97
 925:.\Generated_Source\PSoC4/RTC_I2C_MASTER.c ****     RTC_mstrStatus = RTC_I2C_MSTAT_CLEAR;
 775              		.loc 1 925 0
 776 0002 0022     		mov	r2, #0
 924:.\Generated_Source\PSoC4/RTC_I2C_MASTER.c ****     status = (uint32) RTC_mstrStatus;
 777              		.loc 1 924 0
 778 0004 1888     		ldrh	r0, [r3]
 779              	.LVL59:
 926:.\Generated_Source\PSoC4/RTC_I2C_MASTER.c **** 
 927:.\Generated_Source\PSoC4/RTC_I2C_MASTER.c ****     return(status);
 928:.\Generated_Source\PSoC4/RTC_I2C_MASTER.c **** }
 780              		.loc 1 928 0
 781              		@ sp needed for prologue
 925:.\Generated_Source\PSoC4/RTC_I2C_MASTER.c ****     RTC_mstrStatus = RTC_I2C_MSTAT_CLEAR;
 782              		.loc 1 925 0
 783 0006 1A80     		strh	r2, [r3]
 784              		.loc 1 928 0
 785 0008 7047     		bx	lr
ARM GAS  C:\Users\Computer\AppData\Local\Temp\cc3MlAIb.s 			page 33


 786              	.L98:
 787 000a C046     		.align	2
 788              	.L97:
 789 000c 00000000 		.word	RTC_mstrStatus
 790              		.cfi_endproc
 791              	.LFE12:
 792              		.size	RTC_I2CMasterClearStatus, .-RTC_I2CMasterClearStatus
 793              		.section	.text.RTC_I2CReStartGeneration,"ax",%progbits
 794              		.align	2
 795              		.global	RTC_I2CReStartGeneration
 796              		.code	16
 797              		.thumb_func
 798              		.type	RTC_I2CReStartGeneration, %function
 799              	RTC_I2CReStartGeneration:
 800              	.LFB13:
 929:.\Generated_Source\PSoC4/RTC_I2C_MASTER.c **** 
 930:.\Generated_Source\PSoC4/RTC_I2C_MASTER.c **** 
 931:.\Generated_Source\PSoC4/RTC_I2C_MASTER.c **** 
 932:.\Generated_Source\PSoC4/RTC_I2C_MASTER.c **** /*******************************************************************************
 933:.\Generated_Source\PSoC4/RTC_I2C_MASTER.c **** * Function Name: RTC_I2CReStartWorkaround
 934:.\Generated_Source\PSoC4/RTC_I2C_MASTER.c **** ********************************************************************************
 935:.\Generated_Source\PSoC4/RTC_I2C_MASTER.c **** *
 936:.\Generated_Source\PSoC4/RTC_I2C_MASTER.c **** * Summary:
 937:.\Generated_Source\PSoC4/RTC_I2C_MASTER.c **** *  Generates ReStart condition:
 938:.\Generated_Source\PSoC4/RTC_I2C_MASTER.c **** *   1. write, Restart: when txfifo empty (use the INTR_TX.UNDERFLOW interrupt
 939:.\Generated_Source\PSoC4/RTC_I2C_MASTER.c **** *      to trigger), slave stretch SCL re-enable SCB and set I2C_M_CMD.START
 940:.\Generated_Source\PSoC4/RTC_I2C_MASTER.c **** *      (for SCB FSM, it is START; for external I2C bus, it is RESTART).
 941:.\Generated_Source\PSoC4/RTC_I2C_MASTER.c **** *
 942:.\Generated_Source\PSoC4/RTC_I2C_MASTER.c **** *   2. read, Restart: when expected data bytes received, SCL drives NACK
 943:.\Generated_Source\PSoC4/RTC_I2C_MASTER.c **** *      use GPIO mode of the pin. The SCL remain low while block re-enable
 944:.\Generated_Source\PSoC4/RTC_I2C_MASTER.c **** *      and set I2C_M_CMD.START. The SCL data register is chnged to 1 at the
 945:.\Generated_Source\PSoC4/RTC_I2C_MASTER.c **** *      end. (for SCB FSM, it is START; for external I2C bus, it is RESTART).
 946:.\Generated_Source\PSoC4/RTC_I2C_MASTER.c **** *
 947:.\Generated_Source\PSoC4/RTC_I2C_MASTER.c **** * Parameters:
 948:.\Generated_Source\PSoC4/RTC_I2C_MASTER.c **** *  None
 949:.\Generated_Source\PSoC4/RTC_I2C_MASTER.c **** *
 950:.\Generated_Source\PSoC4/RTC_I2C_MASTER.c **** * Return:
 951:.\Generated_Source\PSoC4/RTC_I2C_MASTER.c **** *  None
 952:.\Generated_Source\PSoC4/RTC_I2C_MASTER.c **** *
 953:.\Generated_Source\PSoC4/RTC_I2C_MASTER.c **** * Side Effects:
 954:.\Generated_Source\PSoC4/RTC_I2C_MASTER.c **** *  The NACK generation by GPIO causes greater SCL period.
 955:.\Generated_Source\PSoC4/RTC_I2C_MASTER.c **** *
 956:.\Generated_Source\PSoC4/RTC_I2C_MASTER.c **** * Note:
 957:.\Generated_Source\PSoC4/RTC_I2C_MASTER.c **** *  The SCB IP re-enable has no effect on master CMD_M_START.
 958:.\Generated_Source\PSoC4/RTC_I2C_MASTER.c **** *
 959:.\Generated_Source\PSoC4/RTC_I2C_MASTER.c **** *******************************************************************************/
 960:.\Generated_Source\PSoC4/RTC_I2C_MASTER.c **** void RTC_I2CReStartGeneration(void)
 961:.\Generated_Source\PSoC4/RTC_I2C_MASTER.c **** {
 801              		.loc 1 961 0
 802              		.cfi_startproc
 962:.\Generated_Source\PSoC4/RTC_I2C_MASTER.c ****     if(RTC_CHECK_I2C_STATUS(RTC_I2C_STATUS_M_READ))
 803              		.loc 1 962 0
 804 0000 234B     		ldr	r3, .L103
 961:.\Generated_Source\PSoC4/RTC_I2C_MASTER.c **** {
 805              		.loc 1 961 0
 806 0002 70B5     		push	{r4, r5, r6, lr}
 807              	.LCFI6:
ARM GAS  C:\Users\Computer\AppData\Local\Temp\cc3MlAIb.s 			page 34


 808              		.cfi_def_cfa_offset 16
 809              		.cfi_offset 4, -16
 810              		.cfi_offset 5, -12
 811              		.cfi_offset 6, -8
 812              		.cfi_offset 14, -4
 813              		.loc 1 962 0
 814 0004 1968     		ldr	r1, [r3]
 815              	.LBB4:
 816              	.LBB5:
 963:.\Generated_Source\PSoC4/RTC_I2C_MASTER.c ****     {
 964:.\Generated_Source\PSoC4/RTC_I2C_MASTER.c ****         RTC_SET_I2C_SCL_DR(RTC_I2C_SCL_LOW);
 817              		.loc 1 964 0
 818 0006 0020     		mov	r0, #0
 819              	.LBE5:
 820              	.LBE4:
 962:.\Generated_Source\PSoC4/RTC_I2C_MASTER.c ****     if(RTC_CHECK_I2C_STATUS(RTC_I2C_STATUS_M_READ))
 821              		.loc 1 962 0
 822 0008 8A06     		lsl	r2, r1, #26
 823 000a 12D4     		bmi	.L102
 965:.\Generated_Source\PSoC4/RTC_I2C_MASTER.c **** 
 966:.\Generated_Source\PSoC4/RTC_I2C_MASTER.c ****         /* Switch HSIOM to GPIO */
 967:.\Generated_Source\PSoC4/RTC_I2C_MASTER.c ****         RTC_SET_I2C_SCL_HSIOM_SEL(RTC_HSIOM_GPIO_SEL);
 968:.\Generated_Source\PSoC4/RTC_I2C_MASTER.c **** 
 969:.\Generated_Source\PSoC4/RTC_I2C_MASTER.c ****         /* Disable SCB block */
 970:.\Generated_Source\PSoC4/RTC_I2C_MASTER.c ****         RTC_CTRL_REG &= (uint32) ~RTC_CTRL_ENABLED;
 971:.\Generated_Source\PSoC4/RTC_I2C_MASTER.c **** 
 972:.\Generated_Source\PSoC4/RTC_I2C_MASTER.c ****         RTC_SET_I2C_SCL_DR(RTC_I2C_SCL_LOW);
 973:.\Generated_Source\PSoC4/RTC_I2C_MASTER.c ****         CyDelayUs(RTC_I2C_TLOW_TIME);  /* Count tHIGH */
 974:.\Generated_Source\PSoC4/RTC_I2C_MASTER.c **** 
 975:.\Generated_Source\PSoC4/RTC_I2C_MASTER.c ****         RTC_SET_I2C_SCL_DR(RTC_I2C_SCL_HIGH);
 976:.\Generated_Source\PSoC4/RTC_I2C_MASTER.c ****         CyDelayUs(RTC_I2C_THIGH_TIME); /* Count tHIGH */
 977:.\Generated_Source\PSoC4/RTC_I2C_MASTER.c **** 
 978:.\Generated_Source\PSoC4/RTC_I2C_MASTER.c ****         RTC_SET_I2C_SCL_DR(RTC_I2C_SCL_LOW);
 979:.\Generated_Source\PSoC4/RTC_I2C_MASTER.c ****         CyDelayUs(RTC_I2C_TLOW_TIME);  /* Count tLOW */
 980:.\Generated_Source\PSoC4/RTC_I2C_MASTER.c **** 
 981:.\Generated_Source\PSoC4/RTC_I2C_MASTER.c ****         /* Enable SCB block */
 982:.\Generated_Source\PSoC4/RTC_I2C_MASTER.c ****         RTC_CTRL_REG |= (uint32) RTC_CTRL_ENABLED;
 983:.\Generated_Source\PSoC4/RTC_I2C_MASTER.c **** 
 984:.\Generated_Source\PSoC4/RTC_I2C_MASTER.c ****         /* Switch HSIOM to I2C */
 985:.\Generated_Source\PSoC4/RTC_I2C_MASTER.c ****         RTC_SET_I2C_SCL_HSIOM_SEL(RTC_HSIOM_I2C_SEL);
 986:.\Generated_Source\PSoC4/RTC_I2C_MASTER.c **** 
 987:.\Generated_Source\PSoC4/RTC_I2C_MASTER.c ****         /* Set command for Start generation */
 988:.\Generated_Source\PSoC4/RTC_I2C_MASTER.c ****         RTC_I2C_MASTER_CMD_REG = RTC_I2C_MASTER_CMD_M_START;
 989:.\Generated_Source\PSoC4/RTC_I2C_MASTER.c **** 
 990:.\Generated_Source\PSoC4/RTC_I2C_MASTER.c ****         RTC_SET_I2C_SCL_DR(RTC_I2C_SCL_LOW);
 991:.\Generated_Source\PSoC4/RTC_I2C_MASTER.c ****     }
 992:.\Generated_Source\PSoC4/RTC_I2C_MASTER.c ****     else
 993:.\Generated_Source\PSoC4/RTC_I2C_MASTER.c ****     {
 994:.\Generated_Source\PSoC4/RTC_I2C_MASTER.c ****         RTC_SET_I2C_SCL_DR(RTC_I2C_SCL_LOW);
 824              		.loc 1 994 0
 825 000c FFF7FEFF 		bl	RTC_scl_Write
 826              	.LVL60:
 995:.\Generated_Source\PSoC4/RTC_I2C_MASTER.c **** 
 996:.\Generated_Source\PSoC4/RTC_I2C_MASTER.c ****         /* Re-enable SCB block: this resets part of functions */
 997:.\Generated_Source\PSoC4/RTC_I2C_MASTER.c ****         RTC_SCB_SW_RESET;
 827              		.loc 1 997 0
 828 0010 2048     		ldr	r0, .L103+4
ARM GAS  C:\Users\Computer\AppData\Local\Temp\cc3MlAIb.s 			page 35


 829 0012 8023     		mov	r3, #128
 830 0014 0268     		ldr	r2, [r0]
 831 0016 1906     		lsl	r1, r3, #24
 832 0018 5400     		lsl	r4, r2, #1
 833 001a 6508     		lsr	r5, r4, #1
 834 001c 0560     		str	r5, [r0]
 835 001e 0668     		ldr	r6, [r0]
 998:.\Generated_Source\PSoC4/RTC_I2C_MASTER.c **** 
 999:.\Generated_Source\PSoC4/RTC_I2C_MASTER.c ****         /* Generate ReStart when bus becomes IDLE: the SCB waits in HW until IDLE.
1000:.\Generated_Source\PSoC4/RTC_I2C_MASTER.c ****         * The START CMD is not effected by SCB IP re-enable.
1001:.\Generated_Source\PSoC4/RTC_I2C_MASTER.c ****         */
1002:.\Generated_Source\PSoC4/RTC_I2C_MASTER.c ****         RTC_I2C_MASTER_CMD_REG = RTC_I2C_MASTER_CMD_M_START;
 836              		.loc 1 1002 0
 837 0020 1D4A     		ldr	r2, .L103+8
 997:.\Generated_Source\PSoC4/RTC_I2C_MASTER.c ****         RTC_SCB_SW_RESET;
 838              		.loc 1 997 0
 839 0022 3143     		orr	r1, r6
 840 0024 0160     		str	r1, [r0]
 841              		.loc 1 1002 0
 842 0026 0120     		mov	r0, #1
 843 0028 1060     		str	r0, [r2]
1003:.\Generated_Source\PSoC4/RTC_I2C_MASTER.c **** 
1004:.\Generated_Source\PSoC4/RTC_I2C_MASTER.c ****         RTC_SET_I2C_SCL_DR(RTC_I2C_SCL_HIGH);
 844              		.loc 1 1004 0
 845 002a 0120     		mov	r0, #1
 846 002c FFF7FEFF 		bl	RTC_scl_Write
 847              	.LVL61:
 848              	.L99:
1005:.\Generated_Source\PSoC4/RTC_I2C_MASTER.c ****     }
1006:.\Generated_Source\PSoC4/RTC_I2C_MASTER.c **** }
 849              		.loc 1 1006 0
 850              		@ sp needed for prologue
 851 0030 70BD     		pop	{r4, r5, r6, pc}
 852              	.L102:
 853              	.LBB7:
 854              	.LBB6:
 967:.\Generated_Source\PSoC4/RTC_I2C_MASTER.c ****         RTC_SET_I2C_SCL_HSIOM_SEL(RTC_HSIOM_GPIO_SEL);
 855              		.loc 1 967 0
 856 0032 1A4C     		ldr	r4, .L103+12
 964:.\Generated_Source\PSoC4/RTC_I2C_MASTER.c ****         RTC_SET_I2C_SCL_DR(RTC_I2C_SCL_LOW);
 857              		.loc 1 964 0
 858 0034 FFF7FEFF 		bl	RTC_scl_Write
 859              	.LVL62:
 967:.\Generated_Source\PSoC4/RTC_I2C_MASTER.c ****         RTC_SET_I2C_SCL_HSIOM_SEL(RTC_HSIOM_GPIO_SEL);
 860              		.loc 1 967 0
 861 0038 2568     		ldr	r5, [r4]
 862 003a 0F26     		mov	r6, #15
 863 003c B543     		bic	r5, r6
 864 003e 2560     		str	r5, [r4]
 970:.\Generated_Source\PSoC4/RTC_I2C_MASTER.c ****         RTC_CTRL_REG &= (uint32) ~RTC_CTRL_ENABLED;
 865              		.loc 1 970 0
 866 0040 144D     		ldr	r5, .L103+4
 867 0042 2B68     		ldr	r3, [r5]
 868 0044 5900     		lsl	r1, r3, #1
 869 0046 4808     		lsr	r0, r1, #1
 870 0048 2860     		str	r0, [r5]
 972:.\Generated_Source\PSoC4/RTC_I2C_MASTER.c ****         RTC_SET_I2C_SCL_DR(RTC_I2C_SCL_LOW);
ARM GAS  C:\Users\Computer\AppData\Local\Temp\cc3MlAIb.s 			page 36


 871              		.loc 1 972 0
 872 004a 0020     		mov	r0, #0
 873 004c FFF7FEFF 		bl	RTC_scl_Write
 874              	.LVL63:
 973:.\Generated_Source\PSoC4/RTC_I2C_MASTER.c ****         CyDelayUs(RTC_I2C_TLOW_TIME);  /* Count tHIGH */
 875              		.loc 1 973 0
 876 0050 0A20     		mov	r0, #10
 877 0052 FFF7FEFF 		bl	CyDelayUs
 878              	.LVL64:
 975:.\Generated_Source\PSoC4/RTC_I2C_MASTER.c ****         RTC_SET_I2C_SCL_DR(RTC_I2C_SCL_HIGH);
 879              		.loc 1 975 0
 880 0056 0120     		mov	r0, #1
 881 0058 FFF7FEFF 		bl	RTC_scl_Write
 882              	.LVL65:
 976:.\Generated_Source\PSoC4/RTC_I2C_MASTER.c ****         CyDelayUs(RTC_I2C_THIGH_TIME); /* Count tHIGH */
 883              		.loc 1 976 0
 884 005c 0A20     		mov	r0, #10
 885 005e FFF7FEFF 		bl	CyDelayUs
 886              	.LVL66:
 978:.\Generated_Source\PSoC4/RTC_I2C_MASTER.c ****         RTC_SET_I2C_SCL_DR(RTC_I2C_SCL_LOW);
 887              		.loc 1 978 0
 888 0062 0020     		mov	r0, #0
 889 0064 FFF7FEFF 		bl	RTC_scl_Write
 890              	.LVL67:
 979:.\Generated_Source\PSoC4/RTC_I2C_MASTER.c ****         CyDelayUs(RTC_I2C_TLOW_TIME);  /* Count tLOW */
 891              		.loc 1 979 0
 892 0068 0A20     		mov	r0, #10
 893 006a FFF7FEFF 		bl	CyDelayUs
 894              	.LVL68:
 982:.\Generated_Source\PSoC4/RTC_I2C_MASTER.c ****         RTC_CTRL_REG |= (uint32) RTC_CTRL_ENABLED;
 895              		.loc 1 982 0
 896 006e 2A68     		ldr	r2, [r5]
 897 0070 8023     		mov	r3, #128
 898 0072 1906     		lsl	r1, r3, #24
 899 0074 1143     		orr	r1, r2
 900 0076 2960     		str	r1, [r5]
 985:.\Generated_Source\PSoC4/RTC_I2C_MASTER.c ****         RTC_SET_I2C_SCL_HSIOM_SEL(RTC_HSIOM_I2C_SEL);
 901              		.loc 1 985 0
 902 0078 2568     		ldr	r5, [r4]
 988:.\Generated_Source\PSoC4/RTC_I2C_MASTER.c ****         RTC_I2C_MASTER_CMD_REG = RTC_I2C_MASTER_CMD_M_START;
 903              		.loc 1 988 0
 904 007a 0748     		ldr	r0, .L103+8
 985:.\Generated_Source\PSoC4/RTC_I2C_MASTER.c ****         RTC_SET_I2C_SCL_HSIOM_SEL(RTC_HSIOM_I2C_SEL);
 905              		.loc 1 985 0
 906 007c B543     		bic	r5, r6
 907 007e 0E26     		mov	r6, #14
 908 0080 3543     		orr	r5, r6
 909 0082 2560     		str	r5, [r4]
 988:.\Generated_Source\PSoC4/RTC_I2C_MASTER.c ****         RTC_I2C_MASTER_CMD_REG = RTC_I2C_MASTER_CMD_M_START;
 910              		.loc 1 988 0
 911 0084 0124     		mov	r4, #1
 912 0086 0460     		str	r4, [r0]
 990:.\Generated_Source\PSoC4/RTC_I2C_MASTER.c ****         RTC_SET_I2C_SCL_DR(RTC_I2C_SCL_LOW);
 913              		.loc 1 990 0
 914 0088 0020     		mov	r0, #0
 915 008a FFF7FEFF 		bl	RTC_scl_Write
 916              	.LVL69:
ARM GAS  C:\Users\Computer\AppData\Local\Temp\cc3MlAIb.s 			page 37


 917 008e CFE7     		b	.L99
 918              	.L104:
 919              		.align	2
 920              	.L103:
 921 0090 64000640 		.word	1074135140
 922 0094 00000640 		.word	1074135040
 923 0098 68000640 		.word	1074135144
 924 009c 10000140 		.word	1073807376
 925              	.LBE6:
 926              	.LBE7:
 927              		.cfi_endproc
 928              	.LFE13:
 929              		.size	RTC_I2CReStartGeneration, .-RTC_I2CReStartGeneration
 930              		.section	.text.RTC_I2CMasterSendRestart,"ax",%progbits
 931              		.align	2
 932              		.global	RTC_I2CMasterSendRestart
 933              		.code	16
 934              		.thumb_func
 935              		.type	RTC_I2CMasterSendRestart, %function
 936              	RTC_I2CMasterSendRestart:
 937              	.LFB3:
 401:.\Generated_Source\PSoC4/RTC_I2C_MASTER.c **** {
 938              		.loc 1 401 0
 939              		.cfi_startproc
 940              	.LVL70:
 941 0000 38B5     		push	{r3, r4, r5, lr}
 942              	.LCFI7:
 943              		.cfi_def_cfa_offset 16
 944              		.cfi_offset 3, -16
 945              		.cfi_offset 4, -12
 946              		.cfi_offset 5, -8
 947              		.cfi_offset 14, -4
 409:.\Generated_Source\PSoC4/RTC_I2C_MASTER.c ****     if(RTC_CHECK_I2C_MASTER_ACTIVE)
 948              		.loc 1 409 0
 949 0002 274C     		ldr	r4, .L127
 405:.\Generated_Source\PSoC4/RTC_I2C_MASTER.c ****     errStatus        = RTC_I2C_MSTR_NOT_READY;
 950              		.loc 1 405 0
 951 0004 0425     		mov	r5, #4
 409:.\Generated_Source\PSoC4/RTC_I2C_MASTER.c ****     if(RTC_CHECK_I2C_MASTER_ACTIVE)
 952              		.loc 1 409 0
 953 0006 2378     		ldrb	r3, [r4]
 954 0008 9A06     		lsl	r2, r3, #26
 955 000a 01D4     		bmi	.L124
 956              	.LVL71:
 957              	.L119:
 488:.\Generated_Source\PSoC4/RTC_I2C_MASTER.c **** }
 958              		.loc 1 488 0
 959 000c 281C     		mov	r0, r5
 960              		@ sp needed for prologue
 961 000e 38BD     		pop	{r3, r4, r5, pc}
 962              	.LVL72:
 963              	.L124:
 411:.\Generated_Source\PSoC4/RTC_I2C_MASTER.c ****         slaveAddress = RTC_GET_I2C_8BIT_ADDRESS(slaveAddress);
 964              		.loc 1 411 0
 965 0010 4000     		lsl	r0, r0, #1
 966              	.LVL73:
 967 0012 FF25     		mov	r5, #255
ARM GAS  C:\Users\Computer\AppData\Local\Temp\cc3MlAIb.s 			page 38


 968 0014 0540     		and	r5, r0
 969              	.LVL74:
 413:.\Generated_Source\PSoC4/RTC_I2C_MASTER.c ****         if(0u == bitRnW) /* Write direction */
 970              		.loc 1 413 0
 971 0016 0029     		cmp	r1, #0
 972 0018 34D0     		beq	.L125
 419:.\Generated_Source\PSoC4/RTC_I2C_MASTER.c ****             RTC_state  = RTC_I2C_FSM_MSTR_RD_DATA;
 973              		.loc 1 419 0
 974 001a 2521     		mov	r1, #37
 975              	.LVL75:
 420:.\Generated_Source\PSoC4/RTC_I2C_MASTER.c ****                       slaveAddress |= RTC_I2C_READ_FLAG;
 976              		.loc 1 420 0
 977 001c 0122     		mov	r2, #1
 419:.\Generated_Source\PSoC4/RTC_I2C_MASTER.c ****             RTC_state  = RTC_I2C_FSM_MSTR_RD_DATA;
 978              		.loc 1 419 0
 979 001e 2170     		strb	r1, [r4]
 420:.\Generated_Source\PSoC4/RTC_I2C_MASTER.c ****                       slaveAddress |= RTC_I2C_READ_FLAG;
 980              		.loc 1 420 0
 981 0020 1543     		orr	r5, r2
 982              	.LVL76:
 983              	.L108:
 426:.\Generated_Source\PSoC4/RTC_I2C_MASTER.c ****         RTC_ClearMasterInterruptSource(RTC_INTR_MASTER_ALL);
 984              		.loc 1 426 0
 985 0022 2048     		ldr	r0, .L127+4
 986 0024 2049     		ldr	r1, .L127+8
 987 0026 0860     		str	r0, [r1]
 432:.\Generated_Source\PSoC4/RTC_I2C_MASTER.c ****         RTC_I2C_MASTER_GENERATE_RESTART;
 988              		.loc 1 432 0
 989 0028 FFF7FEFF 		bl	RTC_I2CReStartGeneration
 990              	.LVL77:
 434:.\Generated_Source\PSoC4/RTC_I2C_MASTER.c ****         while(RTC_CHECK_I2C_MASTER_CMD(RTC_I2C_MASTER_CMD_M_START))
 991              		.loc 1 434 0
 992 002c 1F48     		ldr	r0, .L127+12
 993 002e 0122     		mov	r2, #1
 994              	.L109:
 434:.\Generated_Source\PSoC4/RTC_I2C_MASTER.c ****         while(RTC_CHECK_I2C_MASTER_CMD(RTC_I2C_MASTER_CMD_M_START))
 995              		.loc 1 434 0 is_stmt 0 discriminator 1
 996 0030 0368     		ldr	r3, [r0]
 997 0032 1A42     		tst	r2, r3
 998 0034 FCD1     		bne	.L109
 440:.\Generated_Source\PSoC4/RTC_I2C_MASTER.c ****         RTC_TX_FIFO_WR_REG = slaveAddress;
 999              		.loc 1 440 0 is_stmt 1
 1000 0036 1E49     		ldr	r1, .L127+16
 443:.\Generated_Source\PSoC4/RTC_I2C_MASTER.c ****         while(!RTC_CHECK_INTR_MASTER(RTC_INTR_MASTER_I2C_ACK      |
 1001              		.loc 1 443 0
 1002 0038 1E48     		ldr	r0, .L127+20
 440:.\Generated_Source\PSoC4/RTC_I2C_MASTER.c ****         RTC_TX_FIFO_WR_REG = slaveAddress;
 1003              		.loc 1 440 0
 1004 003a 0D60     		str	r5, [r1]
 443:.\Generated_Source\PSoC4/RTC_I2C_MASTER.c ****         while(!RTC_CHECK_INTR_MASTER(RTC_INTR_MASTER_I2C_ACK      |
 1005              		.loc 1 443 0
 1006 003c 1A4D     		ldr	r5, .L127+8
 1007              	.LVL78:
 1008              	.L110:
 443:.\Generated_Source\PSoC4/RTC_I2C_MASTER.c ****         while(!RTC_CHECK_INTR_MASTER(RTC_INTR_MASTER_I2C_ACK      |
 1009              		.loc 1 443 0 is_stmt 0 discriminator 1
 1010 003e 2B68     		ldr	r3, [r5]
ARM GAS  C:\Users\Computer\AppData\Local\Temp\cc3MlAIb.s 			page 39


 1011 0040 194A     		ldr	r2, .L127+8
 1012 0042 0342     		tst	r3, r0
 1013 0044 FBD0     		beq	.L110
 452:.\Generated_Source\PSoC4/RTC_I2C_MASTER.c ****         if(RTC_CHECK_INTR_MASTER(RTC_INTR_MASTER_I2C_ACK))
 1014              		.loc 1 452 0 is_stmt 1
 1015 0046 1168     		ldr	r1, [r2]
 1016              	.LVL79:
 1017 0048 4907     		lsl	r1, r1, #29
 1018 004a 1ED4     		bmi	.L115
 456:.\Generated_Source\PSoC4/RTC_I2C_MASTER.c ****         else if(RTC_CHECK_INTR_MASTER(RTC_INTR_MASTER_I2C_NACK))
 1019              		.loc 1 456 0
 1020 004c 1568     		ldr	r5, [r2]
 1021 004e A907     		lsl	r1, r5, #30
 1022 0050 20D4     		bmi	.L116
 460:.\Generated_Source\PSoC4/RTC_I2C_MASTER.c ****         else if(RTC_CHECK_INTR_MASTER(RTC_INTR_MASTER_I2C_ARB_LOST))
 1023              		.loc 1 460 0
 1024 0052 1068     		ldr	r0, [r2]
 1025 0054 C207     		lsl	r2, r0, #31
 1026 0056 1FD4     		bmi	.L126
 468:.\Generated_Source\PSoC4/RTC_I2C_MASTER.c ****             RTC_state = RTC_I2C_FSM_IDLE;
 1027              		.loc 1 468 0
 1028 0058 1022     		mov	r2, #16
 1029 005a 2270     		strb	r2, [r4]
 1030              	.LVL80:
 469:.\Generated_Source\PSoC4/RTC_I2C_MASTER.c ****                          errStatus = RTC_I2C_MSTR_ERR_BUS_ERR;
 1031              		.loc 1 469 0
 1032 005c 8024     		mov	r4, #128
 1033 005e 6500     		lsl	r5, r4, #1
 1034              	.LVL81:
 1035              	.L113:
 473:.\Generated_Source\PSoC4/RTC_I2C_MASTER.c ****         RTC_ClearMasterInterruptSource(RTC_INTR_MASTER_I2C_ACK      |
 1036              		.loc 1 473 0
 1037 0060 1449     		ldr	r1, .L127+20
 1038 0062 1148     		ldr	r0, .L127+8
 482:.\Generated_Source\PSoC4/RTC_I2C_MASTER.c ****             RTC_SCB_SW_RESET;
 1039              		.loc 1 482 0
 1040 0064 144C     		ldr	r4, .L127+24
 473:.\Generated_Source\PSoC4/RTC_I2C_MASTER.c ****         RTC_ClearMasterInterruptSource(RTC_INTR_MASTER_I2C_ACK      |
 1041              		.loc 1 473 0
 1042 0066 0160     		str	r1, [r0]
 481:.\Generated_Source\PSoC4/RTC_I2C_MASTER.c ****             enableInterrupts = CyEnterCriticalSection();
 1043              		.loc 1 481 0
 1044 0068 FFF7FEFF 		bl	CyEnterCriticalSection
 1045              	.LVL82:
 482:.\Generated_Source\PSoC4/RTC_I2C_MASTER.c ****             RTC_SCB_SW_RESET;
 1046              		.loc 1 482 0
 1047 006c 2268     		ldr	r2, [r4]
 1048 006e 5300     		lsl	r3, r2, #1
 1049 0070 5908     		lsr	r1, r3, #1
 1050 0072 2160     		str	r1, [r4]
 1051 0074 2368     		ldr	r3, [r4]
 1052 0076 8022     		mov	r2, #128
 1053 0078 1106     		lsl	r1, r2, #24
 1054 007a 1943     		orr	r1, r3
 1055 007c 2160     		str	r1, [r4]
 483:.\Generated_Source\PSoC4/RTC_I2C_MASTER.c ****             CyExitCriticalSection(enableInterrupts);
 1056              		.loc 1 483 0
ARM GAS  C:\Users\Computer\AppData\Local\Temp\cc3MlAIb.s 			page 40


 1057 007e FFF7FEFF 		bl	CyExitCriticalSection
 1058              	.LVL83:
 1059 0082 C3E7     		b	.L119
 1060              	.LVL84:
 1061              	.L125:
 415:.\Generated_Source\PSoC4/RTC_I2C_MASTER.c ****             RTC_state = RTC_I2C_FSM_MSTR_WR_DATA;
 1062              		.loc 1 415 0
 1063 0084 2423     		mov	r3, #36
 1064 0086 2370     		strb	r3, [r4]
 1065 0088 CBE7     		b	.L108
 1066              	.LVL85:
 1067              	.L115:
 454:.\Generated_Source\PSoC4/RTC_I2C_MASTER.c ****             errStatus = RTC_I2C_MSTR_NO_ERROR;
 1068              		.loc 1 454 0
 1069 008a 0025     		mov	r5, #0
 1070              	.L111:
 1071              	.LVL86:
 473:.\Generated_Source\PSoC4/RTC_I2C_MASTER.c ****         RTC_ClearMasterInterruptSource(RTC_INTR_MASTER_I2C_ACK      |
 1072              		.loc 1 473 0
 1073 008c 0948     		ldr	r0, .L127+20
 1074 008e 064C     		ldr	r4, .L127+8
 1075 0090 2060     		str	r0, [r4]
 1076 0092 BBE7     		b	.L119
 1077              	.LVL87:
 1078              	.L116:
 458:.\Generated_Source\PSoC4/RTC_I2C_MASTER.c ****              errStatus = RTC_I2C_MSTR_ERR_LB_NAK;
 1079              		.loc 1 458 0
 1080 0094 0225     		mov	r5, #2
 1081 0096 F9E7     		b	.L111
 1082              	.L126:
 462:.\Generated_Source\PSoC4/RTC_I2C_MASTER.c ****             RTC_state = RTC_I2C_FSM_IDLE;
 1083              		.loc 1 462 0
 1084 0098 1023     		mov	r3, #16
 1085 009a 2370     		strb	r3, [r4]
 1086              	.LVL88:
 463:.\Generated_Source\PSoC4/RTC_I2C_MASTER.c ****                          errStatus = RTC_I2C_MSTR_ERR_ARB_LOST;
 1087              		.loc 1 463 0
 1088 009c 0125     		mov	r5, #1
 1089 009e DFE7     		b	.L113
 1090              	.L128:
 1091              		.align	2
 1092              	.L127:
 1093 00a0 00000000 		.word	RTC_state
 1094 00a4 17030000 		.word	791
 1095 00a8 000F0640 		.word	1074138880
 1096 00ac 68000640 		.word	1074135144
 1097 00b0 40020640 		.word	1074135616
 1098 00b4 07010000 		.word	263
 1099 00b8 00000640 		.word	1074135040
 1100              		.cfi_endproc
 1101              	.LFE3:
 1102              		.size	RTC_I2CMasterSendRestart, .-RTC_I2CMasterSendRestart
 1103              		.section	.text.RTC_I2CMasterReadBuf,"ax",%progbits
 1104              		.align	2
 1105              		.global	RTC_I2CMasterReadBuf
 1106              		.code	16
 1107              		.thumb_func
ARM GAS  C:\Users\Computer\AppData\Local\Temp\cc3MlAIb.s 			page 41


 1108              		.type	RTC_I2CMasterReadBuf, %function
 1109              	RTC_I2CMasterReadBuf:
 1110              	.LFB1:
 176:.\Generated_Source\PSoC4/RTC_I2C_MASTER.c **** {
 1111              		.loc 1 176 0
 1112              		.cfi_startproc
 1113              	.LVL89:
 1114 0000 F8B5     		push	{r3, r4, r5, r6, r7, lr}
 1115              	.LCFI8:
 1116              		.cfi_def_cfa_offset 24
 1117              		.cfi_offset 3, -24
 1118              		.cfi_offset 4, -20
 1119              		.cfi_offset 5, -16
 1120              		.cfi_offset 6, -12
 1121              		.cfi_offset 7, -8
 1122              		.cfi_offset 14, -4
 1123 0002 4F46     		mov	r7, r9
 1124 0004 4646     		mov	r6, r8
 1125 0006 C0B4     		push	{r6, r7}
 1126              	.LCFI9:
 1127              		.cfi_def_cfa_offset 32
 1128              		.cfi_offset 8, -32
 1129              		.cfi_offset 9, -28
 176:.\Generated_Source\PSoC4/RTC_I2C_MASTER.c **** {
 1130              		.loc 1 176 0
 1131 0008 8046     		mov	r8, r0
 1132 000a 0E1C     		mov	r6, r1
 1133 000c 9146     		mov	r9, r2
 1134 000e 1F1C     		mov	r7, r3
 181:.\Generated_Source\PSoC4/RTC_I2C_MASTER.c ****     if(NULL != rdData)
 1135              		.loc 1 181 0
 1136 0010 0029     		cmp	r1, #0
 1137 0012 0ED0     		beq	.L138
 184:.\Generated_Source\PSoC4/RTC_I2C_MASTER.c ****         if(RTC_CHECK_I2C_FSM_IDLE)
 1138              		.loc 1 184 0
 1139 0014 2B4D     		ldr	r5, .L147
 1140 0016 2978     		ldrb	r1, [r5]
 1141              	.LVL90:
 1142 0018 1029     		cmp	r1, #16
 1143 001a 49D0     		beq	.L143
 192:.\Generated_Source\PSoC4/RTC_I2C_MASTER.c ****         else if(RTC_CHECK_I2C_FSM_HALT)
 1144              		.loc 1 192 0
 1145 001c 2B78     		ldrb	r3, [r5]
 1146              	.LVL91:
 179:.\Generated_Source\PSoC4/RTC_I2C_MASTER.c ****     errStatus = RTC_I2C_MSTR_NOT_READY;
 1147              		.loc 1 179 0
 1148 001e 0424     		mov	r4, #4
 192:.\Generated_Source\PSoC4/RTC_I2C_MASTER.c ****         else if(RTC_CHECK_I2C_FSM_HALT)
 1149              		.loc 1 192 0
 1150 0020 602B     		cmp	r3, #96
 1151 0022 08D0     		beq	.L144
 1152              	.LVL92:
 1153              	.L135:
 245:.\Generated_Source\PSoC4/RTC_I2C_MASTER.c ****     RTC_SCB_IRQ_Enable();
 1154              		.loc 1 245 0
 1155 0024 FFF7FEFF 		bl	RTC_SCB_IRQ_Enable
 1156              	.LVL93:
ARM GAS  C:\Users\Computer\AppData\Local\Temp\cc3MlAIb.s 			page 42


 248:.\Generated_Source\PSoC4/RTC_I2C_MASTER.c **** }
 1157              		.loc 1 248 0
 1158              		@ sp needed for prologue
 1159 0028 201C     		mov	r0, r4
 1160              	.LVL94:
 1161 002a 0CBC     		pop	{r2, r3}
 1162 002c 9046     		mov	r8, r2
 1163 002e 9946     		mov	r9, r3
 1164 0030 F8BD     		pop	{r3, r4, r5, r6, r7, pc}
 1165              	.LVL95:
 1166              	.L138:
 179:.\Generated_Source\PSoC4/RTC_I2C_MASTER.c ****     errStatus = RTC_I2C_MSTR_NOT_READY;
 1167              		.loc 1 179 0
 1168 0032 0424     		mov	r4, #4
 1169 0034 F6E7     		b	.L135
 1170              	.LVL96:
 1171              	.L144:
 194:.\Generated_Source\PSoC4/RTC_I2C_MASTER.c ****             RTC_mstrStatus &= (uint16) ~RTC_I2C_MSTAT_XFER_HALT;
 1172              		.loc 1 194 0
 1173 0036 2448     		ldr	r0, .L147+4
 1174              	.LVL97:
 1175 0038 0824     		mov	r4, #8
 1176 003a 0288     		ldrh	r2, [r0]
 1177              	.LVL98:
 1178 003c A243     		bic	r2, r4
 1179 003e 0280     		strh	r2, [r0]
 1180              	.LVL99:
 1181              	.L132:
 207:.\Generated_Source\PSoC4/RTC_I2C_MASTER.c ****         RTC_state = RTC_I2C_FSM_MSTR_RD_ADDR;
 1182              		.loc 1 207 0
 1183 0040 2922     		mov	r2, #41
 208:.\Generated_Source\PSoC4/RTC_I2C_MASTER.c ****         RTC_mstrRdBufIndex = 0u;
 1184              		.loc 1 208 0
 1185 0042 224C     		ldr	r4, .L147+8
 207:.\Generated_Source\PSoC4/RTC_I2C_MASTER.c ****         RTC_state = RTC_I2C_FSM_MSTR_RD_ADDR;
 1186              		.loc 1 207 0
 1187 0044 2A70     		strb	r2, [r5]
 210:.\Generated_Source\PSoC4/RTC_I2C_MASTER.c ****         RTC_mstrRdBufPtr   = (volatile uint8 *) rdData;
 1188              		.loc 1 210 0
 1189 0046 224B     		ldr	r3, .L147+12
 208:.\Generated_Source\PSoC4/RTC_I2C_MASTER.c ****         RTC_mstrRdBufIndex = 0u;
 1190              		.loc 1 208 0
 1191 0048 0025     		mov	r5, #0
 1192 004a 2560     		str	r5, [r4]
 211:.\Generated_Source\PSoC4/RTC_I2C_MASTER.c ****         RTC_mstrControl    = (uint8) mode;
 1193              		.loc 1 211 0
 1194 004c 214A     		ldr	r2, .L147+16
 209:.\Generated_Source\PSoC4/RTC_I2C_MASTER.c ****         RTC_mstrRdBufSize  = cnt;
 1195              		.loc 1 209 0
 1196 004e 224C     		ldr	r4, .L147+20
 210:.\Generated_Source\PSoC4/RTC_I2C_MASTER.c ****         RTC_mstrRdBufPtr   = (volatile uint8 *) rdData;
 1197              		.loc 1 210 0
 1198 0050 1E60     		str	r6, [r3]
 209:.\Generated_Source\PSoC4/RTC_I2C_MASTER.c ****         RTC_mstrRdBufSize  = cnt;
 1199              		.loc 1 209 0
 1200 0052 4946     		mov	r1, r9
 211:.\Generated_Source\PSoC4/RTC_I2C_MASTER.c ****         RTC_mstrControl    = (uint8) mode;
ARM GAS  C:\Users\Computer\AppData\Local\Temp\cc3MlAIb.s 			page 43


 1201              		.loc 1 211 0
 1202 0054 FEB2     		uxtb	r6, r7
 1203              	.LVL100:
 209:.\Generated_Source\PSoC4/RTC_I2C_MASTER.c ****         RTC_mstrRdBufSize  = cnt;
 1204              		.loc 1 209 0
 1205 0056 2160     		str	r1, [r4]
 211:.\Generated_Source\PSoC4/RTC_I2C_MASTER.c ****         RTC_mstrControl    = (uint8) mode;
 1206              		.loc 1 211 0
 1207 0058 1670     		strb	r6, [r2]
 215:.\Generated_Source\PSoC4/RTC_I2C_MASTER.c ****         RTC_mstrStatus &= (uint16) ~RTC_I2C_MSTAT_RD_CMPLT;
 1208              		.loc 1 215 0
 1209 005a 0388     		ldrh	r3, [r0]
 213:.\Generated_Source\PSoC4/RTC_I2C_MASTER.c ****         slaveAddress = (RTC_GET_I2C_8BIT_ADDRESS(slaveAddress) | RTC_I2C_READ_FLAG);
 1210              		.loc 1 213 0
 1211 005c 0122     		mov	r2, #1
 1212 005e 4546     		mov	r5, r8
 215:.\Generated_Source\PSoC4/RTC_I2C_MASTER.c ****         RTC_mstrStatus &= (uint16) ~RTC_I2C_MSTAT_RD_CMPLT;
 1213              		.loc 1 215 0
 1214 0060 9343     		bic	r3, r2
 213:.\Generated_Source\PSoC4/RTC_I2C_MASTER.c ****         slaveAddress = (RTC_GET_I2C_8BIT_ADDRESS(slaveAddress) | RTC_I2C_READ_FLAG);
 1215              		.loc 1 213 0
 1216 0062 6900     		lsl	r1, r5, #1
 215:.\Generated_Source\PSoC4/RTC_I2C_MASTER.c ****         RTC_mstrStatus &= (uint16) ~RTC_I2C_MSTAT_RD_CMPLT;
 1217              		.loc 1 215 0
 1218 0064 0380     		strh	r3, [r0]
 213:.\Generated_Source\PSoC4/RTC_I2C_MASTER.c ****         slaveAddress = (RTC_GET_I2C_8BIT_ADDRESS(slaveAddress) | RTC_I2C_READ_FLAG);
 1219              		.loc 1 213 0
 1220 0066 FF26     		mov	r6, #255
 217:.\Generated_Source\PSoC4/RTC_I2C_MASTER.c ****         RTC_ClearMasterInterruptSource(RTC_INTR_MASTER_ALL);
 1221              		.loc 1 217 0
 1222 0068 1C48     		ldr	r0, .L147+24
 1223 006a 1D4D     		ldr	r5, .L147+28
 213:.\Generated_Source\PSoC4/RTC_I2C_MASTER.c ****         slaveAddress = (RTC_GET_I2C_8BIT_ADDRESS(slaveAddress) | RTC_I2C_READ_FLAG);
 1224              		.loc 1 213 0
 1225 006c 0E40     		and	r6, r1
 1226 006e 1643     		orr	r6, r2
 1227              	.LVL101:
 217:.\Generated_Source\PSoC4/RTC_I2C_MASTER.c ****         RTC_ClearMasterInterruptSource(RTC_INTR_MASTER_ALL);
 1228              		.loc 1 217 0
 1229 0070 2860     		str	r0, [r5]
 222:.\Generated_Source\PSoC4/RTC_I2C_MASTER.c ****         if(RTC_CHECK_I2C_MODE_RESTART(mode))
 1230              		.loc 1 222 0
 1231 0072 3A42     		tst	r2, r7
 1232 0074 17D1     		bne	.L145
 229:.\Generated_Source\PSoC4/RTC_I2C_MASTER.c ****             RTC_TX_FIFO_WR_REG = (slaveAddress);
 1233              		.loc 1 229 0
 1234 0076 1B4F     		ldr	r7, .L147+32
 1235              	.LVL102:
 230:.\Generated_Source\PSoC4/RTC_I2C_MASTER.c ****             RTC_I2C_MASTER_GENERATE_START;
 1236              		.loc 1 230 0
 1237 0078 0221     		mov	r1, #2
 229:.\Generated_Source\PSoC4/RTC_I2C_MASTER.c ****             RTC_TX_FIFO_WR_REG = (slaveAddress);
 1238              		.loc 1 229 0
 1239 007a 3E60     		str	r6, [r7]
 230:.\Generated_Source\PSoC4/RTC_I2C_MASTER.c ****             RTC_I2C_MASTER_GENERATE_START;
 1240              		.loc 1 230 0
 1241 007c 1A4E     		ldr	r6, .L147+36
ARM GAS  C:\Users\Computer\AppData\Local\Temp\cc3MlAIb.s 			page 44


 1242              	.LVL103:
 1243 007e 3160     		str	r1, [r6]
 1244              	.LVL104:
 1245              	.L133:
 234:.\Generated_Source\PSoC4/RTC_I2C_MASTER.c ****         if(RTC_mstrRdBufSize < RTC_I2C_FIFO_SIZE) /* Reading byte-by-byte */
 1246              		.loc 1 234 0
 1247 0080 2468     		ldr	r4, [r4]
 1248 0082 072C     		cmp	r4, #7
 1249 0084 0AD9     		bls	.L146
 240:.\Generated_Source\PSoC4/RTC_I2C_MASTER.c ****             RTC_ENABLE_MASTER_AUTO_DATA_ACK;
 1250              		.loc 1 240 0
 1251 0086 194B     		ldr	r3, .L147+40
 1252 0088 8025     		mov	r5, #128
 1253 008a 1868     		ldr	r0, [r3]
 1254 008c 6F00     		lsl	r7, r5, #1
 241:.\Generated_Source\PSoC4/RTC_I2C_MASTER.c ****             RTC_SetRxInterruptMode(RTC_INTR_RX_FULL);
 1255              		.loc 1 241 0
 1256 008e 184E     		ldr	r6, .L147+44
 240:.\Generated_Source\PSoC4/RTC_I2C_MASTER.c ****             RTC_ENABLE_MASTER_AUTO_DATA_ACK;
 1257              		.loc 1 240 0
 1258 0090 0743     		orr	r7, r0
 241:.\Generated_Source\PSoC4/RTC_I2C_MASTER.c ****             RTC_SetRxInterruptMode(RTC_INTR_RX_FULL);
 1259              		.loc 1 241 0
 1260 0092 0821     		mov	r1, #8
 240:.\Generated_Source\PSoC4/RTC_I2C_MASTER.c ****             RTC_ENABLE_MASTER_AUTO_DATA_ACK;
 1261              		.loc 1 240 0
 1262 0094 1F60     		str	r7, [r3]
 241:.\Generated_Source\PSoC4/RTC_I2C_MASTER.c ****             RTC_SetRxInterruptMode(RTC_INTR_RX_FULL);
 1263              		.loc 1 241 0
 1264 0096 0024     		mov	r4, #0
 1265 0098 3160     		str	r1, [r6]
 1266 009a C3E7     		b	.L135
 1267              	.L146:
 236:.\Generated_Source\PSoC4/RTC_I2C_MASTER.c ****             RTC_SetRxInterruptMode(RTC_INTR_RX_NOT_EMPTY);
 1268              		.loc 1 236 0
 1269 009c 144C     		ldr	r4, .L147+44
 1270 009e 0422     		mov	r2, #4
 1271 00a0 2260     		str	r2, [r4]
 1272 00a2 0024     		mov	r4, #0
 1273 00a4 BEE7     		b	.L135
 1274              	.LVL105:
 1275              	.L145:
 224:.\Generated_Source\PSoC4/RTC_I2C_MASTER.c ****             RTC_I2C_MASTER_GENERATE_RESTART;
 1276              		.loc 1 224 0
 1277 00a6 FFF7FEFF 		bl	RTC_I2CReStartGeneration
 1278              	.LVL106:
 225:.\Generated_Source\PSoC4/RTC_I2C_MASTER.c ****             RTC_TX_FIFO_WR_REG = (slaveAddress);
 1279              		.loc 1 225 0
 1280 00aa 0E4A     		ldr	r2, .L147+32
 1281 00ac 1660     		str	r6, [r2]
 1282 00ae E7E7     		b	.L133
 1283              	.LVL107:
 1284              	.L143:
 186:.\Generated_Source\PSoC4/RTC_I2C_MASTER.c ****             RTC_SCB_IRQ_Disable();
 1285              		.loc 1 186 0
 1286 00b0 FFF7FEFF 		bl	RTC_SCB_IRQ_Disable
 1287              	.LVL108:
ARM GAS  C:\Users\Computer\AppData\Local\Temp\cc3MlAIb.s 			page 45


 189:.\Generated_Source\PSoC4/RTC_I2C_MASTER.c ****             errStatus = RTC_CHECK_I2C_STATUS(RTC_I2C_STATUS_BUS_BUSY) ?
 1288              		.loc 1 189 0
 1289 00b4 0F49     		ldr	r1, .L147+48
 1290 00b6 0824     		mov	r4, #8
 1291 00b8 0B68     		ldr	r3, [r1]
 1292 00ba D907     		lsl	r1, r3, #31
 1293 00bc B2D4     		bmi	.L135
 1294 00be 0248     		ldr	r0, .L147+4
 1295 00c0 BEE7     		b	.L132
 1296              	.L148:
 1297 00c2 C046     		.align	2
 1298              	.L147:
 1299 00c4 00000000 		.word	RTC_state
 1300 00c8 00000000 		.word	RTC_mstrStatus
 1301 00cc 00000000 		.word	RTC_mstrRdBufIndex
 1302 00d0 00000000 		.word	RTC_mstrRdBufPtr
 1303 00d4 00000000 		.word	RTC_mstrControl
 1304 00d8 00000000 		.word	RTC_mstrRdBufSize
 1305 00dc 17030000 		.word	791
 1306 00e0 000F0640 		.word	1074138880
 1307 00e4 40020640 		.word	1074135616
 1308 00e8 68000640 		.word	1074135144
 1309 00ec 60000640 		.word	1074135136
 1310 00f0 C80F0640 		.word	1074139080
 1311 00f4 64000640 		.word	1074135140
 1312              		.cfi_endproc
 1313              	.LFE1:
 1314              		.size	RTC_I2CMasterReadBuf, .-RTC_I2CMasterReadBuf
 1315              		.section	.text.RTC_I2CMasterWriteBuf,"ax",%progbits
 1316              		.align	2
 1317              		.global	RTC_I2CMasterWriteBuf
 1318              		.code	16
 1319              		.thumb_func
 1320              		.type	RTC_I2CMasterWriteBuf, %function
 1321              	RTC_I2CMasterWriteBuf:
 1322              	.LFB0:
  75:.\Generated_Source\PSoC4/RTC_I2C_MASTER.c **** {
 1323              		.loc 1 75 0
 1324              		.cfi_startproc
 1325              	.LVL109:
 1326 0000 F8B5     		push	{r3, r4, r5, r6, r7, lr}
 1327              	.LCFI10:
 1328              		.cfi_def_cfa_offset 24
 1329              		.cfi_offset 3, -24
 1330              		.cfi_offset 4, -20
 1331              		.cfi_offset 5, -16
 1332              		.cfi_offset 6, -12
 1333              		.cfi_offset 7, -8
 1334              		.cfi_offset 14, -4
 1335 0002 4F46     		mov	r7, r9
 1336 0004 4646     		mov	r6, r8
 1337 0006 C0B4     		push	{r6, r7}
 1338              	.LCFI11:
 1339              		.cfi_def_cfa_offset 32
 1340              		.cfi_offset 8, -32
 1341              		.cfi_offset 9, -28
  75:.\Generated_Source\PSoC4/RTC_I2C_MASTER.c **** {
ARM GAS  C:\Users\Computer\AppData\Local\Temp\cc3MlAIb.s 			page 46


 1342              		.loc 1 75 0
 1343 0008 8046     		mov	r8, r0
 1344 000a 0E1C     		mov	r6, r1
 1345 000c 9146     		mov	r9, r2
 1346 000e 1F1C     		mov	r7, r3
  80:.\Generated_Source\PSoC4/RTC_I2C_MASTER.c ****     if(NULL != wrData)  /* Check buffer pointer */
 1347              		.loc 1 80 0
 1348 0010 0029     		cmp	r1, #0
 1349 0012 0ED0     		beq	.L157
  83:.\Generated_Source\PSoC4/RTC_I2C_MASTER.c ****         if(RTC_CHECK_I2C_FSM_IDLE)
 1350              		.loc 1 83 0
 1351 0014 254D     		ldr	r5, .L165
 1352 0016 2978     		ldrb	r1, [r5]
 1353              	.LVL110:
 1354 0018 1029     		cmp	r1, #16
 1355 001a 3ED0     		beq	.L162
  91:.\Generated_Source\PSoC4/RTC_I2C_MASTER.c ****         else if(RTC_CHECK_I2C_FSM_HALT)
 1356              		.loc 1 91 0
 1357 001c 2B78     		ldrb	r3, [r5]
 1358              	.LVL111:
  78:.\Generated_Source\PSoC4/RTC_I2C_MASTER.c ****     errStatus = RTC_I2C_MSTR_NOT_READY;
 1359              		.loc 1 78 0
 1360 001e 0424     		mov	r4, #4
  91:.\Generated_Source\PSoC4/RTC_I2C_MASTER.c ****         else if(RTC_CHECK_I2C_FSM_HALT)
 1361              		.loc 1 91 0
 1362 0020 602B     		cmp	r3, #96
 1363 0022 08D0     		beq	.L163
 1364              	.LVL112:
 1365              	.L154:
 138:.\Generated_Source\PSoC4/RTC_I2C_MASTER.c ****     RTC_SCB_IRQ_Enable();
 1366              		.loc 1 138 0
 1367 0024 FFF7FEFF 		bl	RTC_SCB_IRQ_Enable
 1368              	.LVL113:
 141:.\Generated_Source\PSoC4/RTC_I2C_MASTER.c **** }
 1369              		.loc 1 141 0
 1370              		@ sp needed for prologue
 1371 0028 201C     		mov	r0, r4
 1372              	.LVL114:
 1373 002a 0CBC     		pop	{r2, r3}
 1374 002c 9046     		mov	r8, r2
 1375 002e 9946     		mov	r9, r3
 1376 0030 F8BD     		pop	{r3, r4, r5, r6, r7, pc}
 1377              	.LVL115:
 1378              	.L157:
  78:.\Generated_Source\PSoC4/RTC_I2C_MASTER.c ****     errStatus = RTC_I2C_MSTR_NOT_READY;
 1379              		.loc 1 78 0
 1380 0032 0424     		mov	r4, #4
 1381 0034 F6E7     		b	.L154
 1382              	.LVL116:
 1383              	.L163:
  93:.\Generated_Source\PSoC4/RTC_I2C_MASTER.c ****             RTC_mstrStatus &= (uint16) ~RTC_I2C_MSTAT_XFER_HALT;
 1384              		.loc 1 93 0
 1385 0036 1E48     		ldr	r0, .L165+4
 1386              	.LVL117:
 1387 0038 0824     		mov	r4, #8
 1388 003a 0288     		ldrh	r2, [r0]
 1389              	.LVL118:
ARM GAS  C:\Users\Computer\AppData\Local\Temp\cc3MlAIb.s 			page 47


 1390 003c A243     		bic	r2, r4
 1391 003e 0280     		strh	r2, [r0]
 1392              	.LVL119:
 1393              	.L152:
 107:.\Generated_Source\PSoC4/RTC_I2C_MASTER.c ****         RTC_state = RTC_I2C_FSM_MSTR_WR_ADDR;
 1394              		.loc 1 107 0
 1395 0040 2822     		mov	r2, #40
 108:.\Generated_Source\PSoC4/RTC_I2C_MASTER.c ****         RTC_mstrWrBufIndexTmp = 0u;
 1396              		.loc 1 108 0
 1397 0042 1C4C     		ldr	r4, .L165+8
 109:.\Generated_Source\PSoC4/RTC_I2C_MASTER.c ****         RTC_mstrWrBufIndex    = 0u;
 1398              		.loc 1 109 0
 1399 0044 1C49     		ldr	r1, .L165+12
 107:.\Generated_Source\PSoC4/RTC_I2C_MASTER.c ****         RTC_state = RTC_I2C_FSM_MSTR_WR_ADDR;
 1400              		.loc 1 107 0
 1401 0046 2A70     		strb	r2, [r5]
 108:.\Generated_Source\PSoC4/RTC_I2C_MASTER.c ****         RTC_mstrWrBufIndexTmp = 0u;
 1402              		.loc 1 108 0
 1403 0048 0025     		mov	r5, #0
 1404 004a 2560     		str	r5, [r4]
 109:.\Generated_Source\PSoC4/RTC_I2C_MASTER.c ****         RTC_mstrWrBufIndex    = 0u;
 1405              		.loc 1 109 0
 1406 004c 0D60     		str	r5, [r1]
 111:.\Generated_Source\PSoC4/RTC_I2C_MASTER.c ****         RTC_mstrWrBufPtr      = (volatile uint8 *) wrData;
 1407              		.loc 1 111 0
 1408 004e 1B4D     		ldr	r5, .L165+16
 110:.\Generated_Source\PSoC4/RTC_I2C_MASTER.c ****         RTC_mstrWrBufSize     = cnt;
 1409              		.loc 1 110 0
 1410 0050 1B4B     		ldr	r3, .L165+20
 112:.\Generated_Source\PSoC4/RTC_I2C_MASTER.c ****         RTC_mstrControl       = (uint8) mode;
 1411              		.loc 1 112 0
 1412 0052 1C4C     		ldr	r4, .L165+24
 111:.\Generated_Source\PSoC4/RTC_I2C_MASTER.c ****         RTC_mstrWrBufPtr      = (volatile uint8 *) wrData;
 1413              		.loc 1 111 0
 1414 0054 2E60     		str	r6, [r5]
 110:.\Generated_Source\PSoC4/RTC_I2C_MASTER.c ****         RTC_mstrWrBufSize     = cnt;
 1415              		.loc 1 110 0
 1416 0056 4A46     		mov	r2, r9
 112:.\Generated_Source\PSoC4/RTC_I2C_MASTER.c ****         RTC_mstrControl       = (uint8) mode;
 1417              		.loc 1 112 0
 1418 0058 FEB2     		uxtb	r6, r7
 1419              	.LVL120:
 110:.\Generated_Source\PSoC4/RTC_I2C_MASTER.c ****         RTC_mstrWrBufSize     = cnt;
 1420              		.loc 1 110 0
 1421 005a 1A60     		str	r2, [r3]
 112:.\Generated_Source\PSoC4/RTC_I2C_MASTER.c ****         RTC_mstrControl       = (uint8) mode;
 1422              		.loc 1 112 0
 1423 005c 2670     		strb	r6, [r4]
 116:.\Generated_Source\PSoC4/RTC_I2C_MASTER.c ****         RTC_mstrStatus &= (uint16) ~RTC_I2C_MSTAT_WR_CMPLT;
 1424              		.loc 1 116 0
 1425 005e 0688     		ldrh	r6, [r0]
 114:.\Generated_Source\PSoC4/RTC_I2C_MASTER.c ****         slaveAddress = RTC_GET_I2C_8BIT_ADDRESS(slaveAddress);
 1426              		.loc 1 114 0
 1427 0060 4146     		mov	r1, r8
 116:.\Generated_Source\PSoC4/RTC_I2C_MASTER.c ****         RTC_mstrStatus &= (uint16) ~RTC_I2C_MSTAT_WR_CMPLT;
 1428              		.loc 1 116 0
 1429 0062 0222     		mov	r2, #2
ARM GAS  C:\Users\Computer\AppData\Local\Temp\cc3MlAIb.s 			page 48


 114:.\Generated_Source\PSoC4/RTC_I2C_MASTER.c ****         slaveAddress = RTC_GET_I2C_8BIT_ADDRESS(slaveAddress);
 1430              		.loc 1 114 0
 1431 0064 4B00     		lsl	r3, r1, #1
 1432 0066 FF25     		mov	r5, #255
 116:.\Generated_Source\PSoC4/RTC_I2C_MASTER.c ****         RTC_mstrStatus &= (uint16) ~RTC_I2C_MSTAT_WR_CMPLT;
 1433              		.loc 1 116 0
 1434 0068 9643     		bic	r6, r2
 1435 006a 0680     		strh	r6, [r0]
 114:.\Generated_Source\PSoC4/RTC_I2C_MASTER.c ****         slaveAddress = RTC_GET_I2C_8BIT_ADDRESS(slaveAddress);
 1436              		.loc 1 114 0
 1437 006c 1D40     		and	r5, r3
 1438              	.LVL121:
 118:.\Generated_Source\PSoC4/RTC_I2C_MASTER.c ****         RTC_ClearMasterInterruptSource(RTC_INTR_MASTER_ALL);
 1439              		.loc 1 118 0
 1440 006e 1648     		ldr	r0, .L165+28
 1441 0070 164C     		ldr	r4, .L165+32
 119:.\Generated_Source\PSoC4/RTC_I2C_MASTER.c ****         RTC_ClearTxInterruptSource(RTC_INTR_TX_UNDERFLOW);
 1442              		.loc 1 119 0
 1443 0072 174B     		ldr	r3, .L165+36
 1444 0074 4021     		mov	r1, #64
 118:.\Generated_Source\PSoC4/RTC_I2C_MASTER.c ****         RTC_ClearMasterInterruptSource(RTC_INTR_MASTER_ALL);
 1445              		.loc 1 118 0
 1446 0076 2060     		str	r0, [r4]
 119:.\Generated_Source\PSoC4/RTC_I2C_MASTER.c ****         RTC_ClearTxInterruptSource(RTC_INTR_TX_UNDERFLOW);
 1447              		.loc 1 119 0
 1448 0078 1960     		str	r1, [r3]
 123:.\Generated_Source\PSoC4/RTC_I2C_MASTER.c ****         if(RTC_CHECK_I2C_MODE_RESTART(mode))
 1449              		.loc 1 123 0
 1450 007a FB07     		lsl	r3, r7, #31
 1451 007c 08D4     		bmi	.L164
 130:.\Generated_Source\PSoC4/RTC_I2C_MASTER.c ****             RTC_TX_FIFO_WR_REG = slaveAddress;
 1452              		.loc 1 130 0
 1453 007e 154F     		ldr	r7, .L165+40
 1454              	.LVL122:
 1455 0080 3D60     		str	r5, [r7]
 131:.\Generated_Source\PSoC4/RTC_I2C_MASTER.c ****             RTC_I2C_MASTER_GENERATE_START;
 1456              		.loc 1 131 0
 1457 0082 154D     		ldr	r5, .L165+44
 1458              	.LVL123:
 1459 0084 2A60     		str	r2, [r5]
 1460              	.LVL124:
 1461              	.L153:
 135:.\Generated_Source\PSoC4/RTC_I2C_MASTER.c ****         RTC_SetTxInterruptMode(RTC_INTR_TX_UNDERFLOW);
 1462              		.loc 1 135 0
 1463 0086 1548     		ldr	r0, .L165+48
 1464 0088 4022     		mov	r2, #64
 1465 008a 0260     		str	r2, [r0]
 1466 008c 0024     		mov	r4, #0
 1467 008e C9E7     		b	.L154
 1468              	.LVL125:
 1469              	.L164:
 126:.\Generated_Source\PSoC4/RTC_I2C_MASTER.c ****             RTC_TX_FIFO_WR_REG = slaveAddress;
 1470              		.loc 1 126 0
 1471 0090 104E     		ldr	r6, .L165+40
 125:.\Generated_Source\PSoC4/RTC_I2C_MASTER.c ****             RTC_I2C_MASTER_GENERATE_RESTART;
 1472              		.loc 1 125 0
 1473 0092 FFF7FEFF 		bl	RTC_I2CReStartGeneration
ARM GAS  C:\Users\Computer\AppData\Local\Temp\cc3MlAIb.s 			page 49


 1474              	.LVL126:
 126:.\Generated_Source\PSoC4/RTC_I2C_MASTER.c ****             RTC_TX_FIFO_WR_REG = slaveAddress;
 1475              		.loc 1 126 0
 1476 0096 3560     		str	r5, [r6]
 1477 0098 F5E7     		b	.L153
 1478              	.LVL127:
 1479              	.L162:
  85:.\Generated_Source\PSoC4/RTC_I2C_MASTER.c ****             RTC_SCB_IRQ_Disable();
 1480              		.loc 1 85 0
 1481 009a FFF7FEFF 		bl	RTC_SCB_IRQ_Disable
 1482              	.LVL128:
  88:.\Generated_Source\PSoC4/RTC_I2C_MASTER.c ****             errStatus = RTC_CHECK_I2C_STATUS(RTC_I2C_STATUS_BUS_BUSY) ?
 1483              		.loc 1 88 0
 1484 009e 1049     		ldr	r1, .L165+52
 1485 00a0 0824     		mov	r4, #8
 1486 00a2 0B68     		ldr	r3, [r1]
 1487 00a4 D907     		lsl	r1, r3, #31
 1488 00a6 BDD4     		bmi	.L154
 1489 00a8 0148     		ldr	r0, .L165+4
 1490 00aa C9E7     		b	.L152
 1491              	.L166:
 1492              		.align	2
 1493              	.L165:
 1494 00ac 00000000 		.word	RTC_state
 1495 00b0 00000000 		.word	RTC_mstrStatus
 1496 00b4 00000000 		.word	RTC_mstrWrBufIndexTmp
 1497 00b8 00000000 		.word	RTC_mstrWrBufIndex
 1498 00bc 00000000 		.word	RTC_mstrWrBufPtr
 1499 00c0 00000000 		.word	RTC_mstrWrBufSize
 1500 00c4 00000000 		.word	RTC_mstrControl
 1501 00c8 17030000 		.word	791
 1502 00cc 000F0640 		.word	1074138880
 1503 00d0 800F0640 		.word	1074139008
 1504 00d4 40020640 		.word	1074135616
 1505 00d8 68000640 		.word	1074135144
 1506 00dc 880F0640 		.word	1074139016
 1507 00e0 64000640 		.word	1074135140
 1508              		.cfi_endproc
 1509              	.LFE0:
 1510              		.size	RTC_I2CMasterWriteBuf, .-RTC_I2CMasterWriteBuf
 1511              		.comm	RTC_mstrWrBufIndexTmp,4,4
 1512              		.comm	RTC_mstrWrBufIndex,4,4
 1513              		.comm	RTC_mstrWrBufSize,4,4
 1514              		.comm	RTC_mstrWrBufPtr,4,4
 1515              		.comm	RTC_mstrRdBufIndex,4,4
 1516              		.comm	RTC_mstrRdBufSize,4,4
 1517              		.comm	RTC_mstrRdBufPtr,4,4
 1518              		.comm	RTC_mstrControl,1,1
 1519              		.comm	RTC_mstrStatus,2,2
 1520              		.text
 1521              	.Letext0:
 1522              		.file 2 ".\\Generated_Source\\PSoC4\\cytypes.h"
 1523              		.file 3 ".\\Generated_Source\\PSoC4\\RTC_I2C_PVT.h"
 1524              		.file 4 ".\\Generated_Source\\PSoC4\\RTC_SCB_IRQ.h"
 1525              		.file 5 ".\\Generated_Source\\PSoC4\\CyLib.h"
 1526              		.file 6 ".\\Generated_Source\\PSoC4\\RTC_scl.h"