ARM GAS  C:\Users\Steve\AppData\Local\Temp\ccEduld8.s 			page 1


   1              		.cpu cortex-m0
   2              		.fpu softvfp
   3              		.eabi_attribute 20, 1
   4              		.eabi_attribute 21, 1
   5              		.eabi_attribute 23, 3
   6              		.eabi_attribute 24, 1
   7              		.eabi_attribute 25, 1
   8              		.eabi_attribute 26, 1
   9              		.eabi_attribute 30, 2
  10              		.eabi_attribute 34, 0
  11              		.eabi_attribute 18, 4
  12              		.code	16
  13              		.file	"UART_SPI_UART.c"
  14              		.text
  15              	.Ltext0:
  16              		.cfi_sections	.debug_frame
  17              		.section	.text.UART_SpiUartReadRxData,"ax",%progbits
  18              		.align	2
  19              		.global	UART_SpiUartReadRxData
  20              		.code	16
  21              		.thumb_func
  22              		.type	UART_SpiUartReadRxData, %function
  23              	UART_SpiUartReadRxData:
  24              	.LFB0:
  25              		.file 1 ".\\Generated_Source\\PSoC4\\UART_SPI_UART.c"
   1:.\Generated_Source\PSoC4/UART_SPI_UART.c **** /*******************************************************************************
   2:.\Generated_Source\PSoC4/UART_SPI_UART.c **** * File Name: UART_SPI_UART.c
   3:.\Generated_Source\PSoC4/UART_SPI_UART.c **** * Version 1.10
   4:.\Generated_Source\PSoC4/UART_SPI_UART.c **** *
   5:.\Generated_Source\PSoC4/UART_SPI_UART.c **** * Description:
   6:.\Generated_Source\PSoC4/UART_SPI_UART.c **** *  This file provides the source code to the API for the SCB Component in
   7:.\Generated_Source\PSoC4/UART_SPI_UART.c **** *  SPI and UART modes.
   8:.\Generated_Source\PSoC4/UART_SPI_UART.c **** *
   9:.\Generated_Source\PSoC4/UART_SPI_UART.c **** * Note:
  10:.\Generated_Source\PSoC4/UART_SPI_UART.c **** *
  11:.\Generated_Source\PSoC4/UART_SPI_UART.c **** *******************************************************************************
  12:.\Generated_Source\PSoC4/UART_SPI_UART.c **** * Copyright 2013, Cypress Semiconductor Corporation.  All rights reserved.
  13:.\Generated_Source\PSoC4/UART_SPI_UART.c **** * You may use this file only in accordance with the license, terms, conditions,
  14:.\Generated_Source\PSoC4/UART_SPI_UART.c **** * disclaimers, and limitations in the end user license agreement accompanying
  15:.\Generated_Source\PSoC4/UART_SPI_UART.c **** * the software package with which this file was provided.
  16:.\Generated_Source\PSoC4/UART_SPI_UART.c **** *******************************************************************************/
  17:.\Generated_Source\PSoC4/UART_SPI_UART.c **** 
  18:.\Generated_Source\PSoC4/UART_SPI_UART.c **** #include "UART_PVT.h"
  19:.\Generated_Source\PSoC4/UART_SPI_UART.c **** #include "UART_SPI_UART_PVT.h"
  20:.\Generated_Source\PSoC4/UART_SPI_UART.c **** 
  21:.\Generated_Source\PSoC4/UART_SPI_UART.c **** /***************************************
  22:.\Generated_Source\PSoC4/UART_SPI_UART.c **** *        SPI/UART Private Vars
  23:.\Generated_Source\PSoC4/UART_SPI_UART.c **** ***************************************/
  24:.\Generated_Source\PSoC4/UART_SPI_UART.c **** 
  25:.\Generated_Source\PSoC4/UART_SPI_UART.c **** #if(UART_INTERNAL_RX_SW_BUFFER_CONST)
  26:.\Generated_Source\PSoC4/UART_SPI_UART.c ****     volatile uint32 UART_rxBufferHead;
  27:.\Generated_Source\PSoC4/UART_SPI_UART.c ****     volatile uint32 UART_rxBufferTail;
  28:.\Generated_Source\PSoC4/UART_SPI_UART.c ****     volatile uint8  UART_rxBufferOverflow;
  29:.\Generated_Source\PSoC4/UART_SPI_UART.c **** #endif /* (UART_INTERNAL_RX_SW_BUFFER_CONST) */
  30:.\Generated_Source\PSoC4/UART_SPI_UART.c **** 
  31:.\Generated_Source\PSoC4/UART_SPI_UART.c **** #if(UART_INTERNAL_TX_SW_BUFFER_CONST)
  32:.\Generated_Source\PSoC4/UART_SPI_UART.c ****     volatile uint32 UART_txBufferHead;
ARM GAS  C:\Users\Steve\AppData\Local\Temp\ccEduld8.s 			page 2


  33:.\Generated_Source\PSoC4/UART_SPI_UART.c ****     volatile uint32 UART_txBufferTail;
  34:.\Generated_Source\PSoC4/UART_SPI_UART.c **** #endif /* (UART_INTERNAL_TX_SW_BUFFER_CONST) */
  35:.\Generated_Source\PSoC4/UART_SPI_UART.c **** 
  36:.\Generated_Source\PSoC4/UART_SPI_UART.c **** #if(UART_INTERNAL_RX_SW_BUFFER)
  37:.\Generated_Source\PSoC4/UART_SPI_UART.c ****     /* Add one element to the buffer to receive full packet. One byte in receive buffer is always e
  38:.\Generated_Source\PSoC4/UART_SPI_UART.c ****     volatile uint8 UART_rxBufferInternal[UART_RX_BUFFER_SIZE];
  39:.\Generated_Source\PSoC4/UART_SPI_UART.c **** #endif /* (UART_INTERNAL_RX_SW_BUFFER) */
  40:.\Generated_Source\PSoC4/UART_SPI_UART.c **** 
  41:.\Generated_Source\PSoC4/UART_SPI_UART.c **** #if(UART_INTERNAL_TX_SW_BUFFER)
  42:.\Generated_Source\PSoC4/UART_SPI_UART.c ****     volatile uint8 UART_txBufferInternal[UART_TX_BUFFER_SIZE];
  43:.\Generated_Source\PSoC4/UART_SPI_UART.c **** #endif /* (UART_INTERNAL_TX_SW_BUFFER) */
  44:.\Generated_Source\PSoC4/UART_SPI_UART.c **** 
  45:.\Generated_Source\PSoC4/UART_SPI_UART.c **** 
  46:.\Generated_Source\PSoC4/UART_SPI_UART.c **** #if(UART_RX_DIRECTION)
  47:.\Generated_Source\PSoC4/UART_SPI_UART.c **** 
  48:.\Generated_Source\PSoC4/UART_SPI_UART.c ****     /*******************************************************************************
  49:.\Generated_Source\PSoC4/UART_SPI_UART.c ****     * Function Name: UART_SpiUartReadRxData
  50:.\Generated_Source\PSoC4/UART_SPI_UART.c ****     ********************************************************************************
  51:.\Generated_Source\PSoC4/UART_SPI_UART.c ****     *
  52:.\Generated_Source\PSoC4/UART_SPI_UART.c ****     * Summary:
  53:.\Generated_Source\PSoC4/UART_SPI_UART.c ****     *  Retrieves the next data element from the receive buffer. Undefined data will
  54:.\Generated_Source\PSoC4/UART_SPI_UART.c ****     *  be returned if the RX buffer is empty.
  55:.\Generated_Source\PSoC4/UART_SPI_UART.c ****     *  Call UART_SpiUartGetRxBufferSize() to return buffer size.
  56:.\Generated_Source\PSoC4/UART_SPI_UART.c ****     *   - RX software buffer disabled: Returns data element retrieved from RX FIFO.
  57:.\Generated_Source\PSoC4/UART_SPI_UART.c ****     *   - RX software buffer enabled: Returns data element from the software
  58:.\Generated_Source\PSoC4/UART_SPI_UART.c ****     *     receive buffer.
  59:.\Generated_Source\PSoC4/UART_SPI_UART.c ****     *
  60:.\Generated_Source\PSoC4/UART_SPI_UART.c ****     * Parameters:
  61:.\Generated_Source\PSoC4/UART_SPI_UART.c ****     *  None
  62:.\Generated_Source\PSoC4/UART_SPI_UART.c ****     *
  63:.\Generated_Source\PSoC4/UART_SPI_UART.c ****     * Return:
  64:.\Generated_Source\PSoC4/UART_SPI_UART.c ****     *  Next data element from the receive buffer.
  65:.\Generated_Source\PSoC4/UART_SPI_UART.c ****     *
  66:.\Generated_Source\PSoC4/UART_SPI_UART.c ****     * Global Variables:
  67:.\Generated_Source\PSoC4/UART_SPI_UART.c ****     *  Look into UART_SpiInit for description.
  68:.\Generated_Source\PSoC4/UART_SPI_UART.c ****     *
  69:.\Generated_Source\PSoC4/UART_SPI_UART.c ****     *******************************************************************************/
  70:.\Generated_Source\PSoC4/UART_SPI_UART.c ****     uint32 UART_SpiUartReadRxData(void)
  71:.\Generated_Source\PSoC4/UART_SPI_UART.c ****     {
  26              		.loc 1 71 0
  27              		.cfi_startproc
  28              	.LVL0:
  72:.\Generated_Source\PSoC4/UART_SPI_UART.c ****         uint32 rxData = 0u;
  73:.\Generated_Source\PSoC4/UART_SPI_UART.c **** 
  74:.\Generated_Source\PSoC4/UART_SPI_UART.c ****         #if(UART_INTERNAL_RX_SW_BUFFER_CONST)
  75:.\Generated_Source\PSoC4/UART_SPI_UART.c ****             uint32 locTail;
  76:.\Generated_Source\PSoC4/UART_SPI_UART.c ****         #endif /* (UART_INTERNAL_RX_SW_BUFFER_CONST) */
  77:.\Generated_Source\PSoC4/UART_SPI_UART.c **** 
  78:.\Generated_Source\PSoC4/UART_SPI_UART.c ****         #if(UART_CHECK_RX_SW_BUFFER)
  79:.\Generated_Source\PSoC4/UART_SPI_UART.c ****         {
  80:.\Generated_Source\PSoC4/UART_SPI_UART.c ****             if(UART_rxBufferHead != UART_rxBufferTail)
  81:.\Generated_Source\PSoC4/UART_SPI_UART.c ****             {
  82:.\Generated_Source\PSoC4/UART_SPI_UART.c ****                 /* There is data in RX software buffer */
  83:.\Generated_Source\PSoC4/UART_SPI_UART.c **** 
  84:.\Generated_Source\PSoC4/UART_SPI_UART.c ****                 /* Calculate index to read from */
  85:.\Generated_Source\PSoC4/UART_SPI_UART.c ****                 locTail = (UART_rxBufferTail + 1u);
  86:.\Generated_Source\PSoC4/UART_SPI_UART.c **** 
ARM GAS  C:\Users\Steve\AppData\Local\Temp\ccEduld8.s 			page 3


  87:.\Generated_Source\PSoC4/UART_SPI_UART.c ****                 if(UART_RX_BUFFER_SIZE == locTail)
  88:.\Generated_Source\PSoC4/UART_SPI_UART.c ****                 {
  89:.\Generated_Source\PSoC4/UART_SPI_UART.c ****                     locTail = 0u;
  90:.\Generated_Source\PSoC4/UART_SPI_UART.c ****                 }
  91:.\Generated_Source\PSoC4/UART_SPI_UART.c **** 
  92:.\Generated_Source\PSoC4/UART_SPI_UART.c ****                 /* Get data fron RX software buffer */
  93:.\Generated_Source\PSoC4/UART_SPI_UART.c ****                 rxData = UART_GetWordFromRxBuffer(locTail);
  94:.\Generated_Source\PSoC4/UART_SPI_UART.c **** 
  95:.\Generated_Source\PSoC4/UART_SPI_UART.c ****                 /* Change index in the buffer */
  96:.\Generated_Source\PSoC4/UART_SPI_UART.c ****                 UART_rxBufferTail = locTail;
  97:.\Generated_Source\PSoC4/UART_SPI_UART.c ****             }
  98:.\Generated_Source\PSoC4/UART_SPI_UART.c ****         }
  99:.\Generated_Source\PSoC4/UART_SPI_UART.c ****         #else
 100:.\Generated_Source\PSoC4/UART_SPI_UART.c ****         {
 101:.\Generated_Source\PSoC4/UART_SPI_UART.c ****             rxData = UART_RX_FIFO_RD_REG; /* Read data from RX FIFO */
  29              		.loc 1 101 0
  30 0000 014B     		ldr	r3, .L2
 102:.\Generated_Source\PSoC4/UART_SPI_UART.c ****         }
 103:.\Generated_Source\PSoC4/UART_SPI_UART.c ****         #endif
 104:.\Generated_Source\PSoC4/UART_SPI_UART.c **** 
 105:.\Generated_Source\PSoC4/UART_SPI_UART.c ****         return(rxData);
 106:.\Generated_Source\PSoC4/UART_SPI_UART.c ****     }
  31              		.loc 1 106 0
  32              		@ sp needed for prologue
 101:.\Generated_Source\PSoC4/UART_SPI_UART.c ****             rxData = UART_RX_FIFO_RD_REG; /* Read data from RX FIFO */
  33              		.loc 1 101 0
  34 0002 1868     		ldr	r0, [r3]
  35              	.LVL1:
  36              		.loc 1 106 0
  37 0004 7047     		bx	lr
  38              	.L3:
  39 0006 C046     		.align	2
  40              	.L2:
  41 0008 40030640 		.word	1074135872
  42              		.cfi_endproc
  43              	.LFE0:
  44              		.size	UART_SpiUartReadRxData, .-UART_SpiUartReadRxData
  45              		.section	.text.UART_SpiUartGetRxBufferSize,"ax",%progbits
  46              		.align	2
  47              		.global	UART_SpiUartGetRxBufferSize
  48              		.code	16
  49              		.thumb_func
  50              		.type	UART_SpiUartGetRxBufferSize, %function
  51              	UART_SpiUartGetRxBufferSize:
  52              	.LFB1:
 107:.\Generated_Source\PSoC4/UART_SPI_UART.c **** 
 108:.\Generated_Source\PSoC4/UART_SPI_UART.c **** 
 109:.\Generated_Source\PSoC4/UART_SPI_UART.c ****     /*******************************************************************************
 110:.\Generated_Source\PSoC4/UART_SPI_UART.c ****     * Function Name: UART_SpiUartGetRxBufferSize
 111:.\Generated_Source\PSoC4/UART_SPI_UART.c ****     ********************************************************************************
 112:.\Generated_Source\PSoC4/UART_SPI_UART.c ****     *
 113:.\Generated_Source\PSoC4/UART_SPI_UART.c ****     * Summary:
 114:.\Generated_Source\PSoC4/UART_SPI_UART.c ****     *  Returns the number of received data elements in the receive buffer.
 115:.\Generated_Source\PSoC4/UART_SPI_UART.c ****     *   - RX software buffer disabled: returns the number of used entries in
 116:.\Generated_Source\PSoC4/UART_SPI_UART.c ****     *     RX FIFO.
 117:.\Generated_Source\PSoC4/UART_SPI_UART.c ****     *   - RX software buffer enabled: returns the number of elements which were
 118:.\Generated_Source\PSoC4/UART_SPI_UART.c ****     *     placed in receive buffer.
ARM GAS  C:\Users\Steve\AppData\Local\Temp\ccEduld8.s 			page 4


 119:.\Generated_Source\PSoC4/UART_SPI_UART.c ****     *
 120:.\Generated_Source\PSoC4/UART_SPI_UART.c ****     * Parameters:
 121:.\Generated_Source\PSoC4/UART_SPI_UART.c ****     *  None
 122:.\Generated_Source\PSoC4/UART_SPI_UART.c ****     *
 123:.\Generated_Source\PSoC4/UART_SPI_UART.c ****     * Return:
 124:.\Generated_Source\PSoC4/UART_SPI_UART.c ****     *  Number of received data elements
 125:.\Generated_Source\PSoC4/UART_SPI_UART.c ****     *
 126:.\Generated_Source\PSoC4/UART_SPI_UART.c ****     *******************************************************************************/
 127:.\Generated_Source\PSoC4/UART_SPI_UART.c ****     uint32 UART_SpiUartGetRxBufferSize(void)
 128:.\Generated_Source\PSoC4/UART_SPI_UART.c ****     {
  53              		.loc 1 128 0
  54              		.cfi_startproc
 129:.\Generated_Source\PSoC4/UART_SPI_UART.c ****         uint32 size;
 130:.\Generated_Source\PSoC4/UART_SPI_UART.c ****         #if(UART_INTERNAL_RX_SW_BUFFER_CONST)
 131:.\Generated_Source\PSoC4/UART_SPI_UART.c ****             uint32 locHead;
 132:.\Generated_Source\PSoC4/UART_SPI_UART.c ****         #endif /* (UART_INTERNAL_RX_SW_BUFFER_CONST) */
 133:.\Generated_Source\PSoC4/UART_SPI_UART.c **** 
 134:.\Generated_Source\PSoC4/UART_SPI_UART.c ****         #if(UART_CHECK_RX_SW_BUFFER)
 135:.\Generated_Source\PSoC4/UART_SPI_UART.c ****         {
 136:.\Generated_Source\PSoC4/UART_SPI_UART.c ****             locHead = UART_rxBufferHead;
 137:.\Generated_Source\PSoC4/UART_SPI_UART.c **** 
 138:.\Generated_Source\PSoC4/UART_SPI_UART.c ****             if(locHead >= UART_rxBufferTail)
 139:.\Generated_Source\PSoC4/UART_SPI_UART.c ****             {
 140:.\Generated_Source\PSoC4/UART_SPI_UART.c ****                 size = (locHead - UART_rxBufferTail);
 141:.\Generated_Source\PSoC4/UART_SPI_UART.c ****             }
 142:.\Generated_Source\PSoC4/UART_SPI_UART.c ****             else
 143:.\Generated_Source\PSoC4/UART_SPI_UART.c ****             {
 144:.\Generated_Source\PSoC4/UART_SPI_UART.c ****                 size = (locHead + (UART_RX_BUFFER_SIZE - UART_rxBufferTail));
 145:.\Generated_Source\PSoC4/UART_SPI_UART.c ****             }
 146:.\Generated_Source\PSoC4/UART_SPI_UART.c ****         }
 147:.\Generated_Source\PSoC4/UART_SPI_UART.c ****         #else
 148:.\Generated_Source\PSoC4/UART_SPI_UART.c ****         {
 149:.\Generated_Source\PSoC4/UART_SPI_UART.c ****             size = UART_GET_RX_FIFO_ENTRIES;
  55              		.loc 1 149 0
  56 0000 024B     		ldr	r3, .L5
  57 0002 0F20     		mov	r0, #15
  58 0004 1968     		ldr	r1, [r3]
  59              	.LVL2:
 150:.\Generated_Source\PSoC4/UART_SPI_UART.c ****         }
 151:.\Generated_Source\PSoC4/UART_SPI_UART.c ****         #endif
 152:.\Generated_Source\PSoC4/UART_SPI_UART.c **** 
 153:.\Generated_Source\PSoC4/UART_SPI_UART.c ****         return(size);
 154:.\Generated_Source\PSoC4/UART_SPI_UART.c ****     }
  60              		.loc 1 154 0
  61              		@ sp needed for prologue
 149:.\Generated_Source\PSoC4/UART_SPI_UART.c ****             size = UART_GET_RX_FIFO_ENTRIES;
  62              		.loc 1 149 0
  63 0006 0840     		and	r0, r1
  64              	.LVL3:
  65              		.loc 1 154 0
  66 0008 7047     		bx	lr
  67              	.L6:
  68 000a C046     		.align	2
  69              	.L5:
  70 000c 08030640 		.word	1074135816
  71              		.cfi_endproc
  72              	.LFE1:
ARM GAS  C:\Users\Steve\AppData\Local\Temp\ccEduld8.s 			page 5


  73              		.size	UART_SpiUartGetRxBufferSize, .-UART_SpiUartGetRxBufferSize
  74              		.section	.text.UART_SpiUartClearRxBuffer,"ax",%progbits
  75              		.align	2
  76              		.global	UART_SpiUartClearRxBuffer
  77              		.code	16
  78              		.thumb_func
  79              		.type	UART_SpiUartClearRxBuffer, %function
  80              	UART_SpiUartClearRxBuffer:
  81              	.LFB2:
 155:.\Generated_Source\PSoC4/UART_SPI_UART.c **** 
 156:.\Generated_Source\PSoC4/UART_SPI_UART.c **** 
 157:.\Generated_Source\PSoC4/UART_SPI_UART.c ****     /*******************************************************************************
 158:.\Generated_Source\PSoC4/UART_SPI_UART.c ****     * Function Name: UART_SpiUartClearRxBuffer
 159:.\Generated_Source\PSoC4/UART_SPI_UART.c ****     ********************************************************************************
 160:.\Generated_Source\PSoC4/UART_SPI_UART.c ****     *
 161:.\Generated_Source\PSoC4/UART_SPI_UART.c ****     * Summary:
 162:.\Generated_Source\PSoC4/UART_SPI_UART.c ****     *  Clear the receive buffer and RX FIFO.
 163:.\Generated_Source\PSoC4/UART_SPI_UART.c ****     *
 164:.\Generated_Source\PSoC4/UART_SPI_UART.c ****     * Parameters:
 165:.\Generated_Source\PSoC4/UART_SPI_UART.c ****     *  None
 166:.\Generated_Source\PSoC4/UART_SPI_UART.c ****     *
 167:.\Generated_Source\PSoC4/UART_SPI_UART.c ****     * Return:
 168:.\Generated_Source\PSoC4/UART_SPI_UART.c ****     *  None
 169:.\Generated_Source\PSoC4/UART_SPI_UART.c ****     *
 170:.\Generated_Source\PSoC4/UART_SPI_UART.c ****     *******************************************************************************/
 171:.\Generated_Source\PSoC4/UART_SPI_UART.c ****     void UART_SpiUartClearRxBuffer(void)
 172:.\Generated_Source\PSoC4/UART_SPI_UART.c ****     {
  82              		.loc 1 172 0
  83              		.cfi_startproc
 173:.\Generated_Source\PSoC4/UART_SPI_UART.c ****         #if(UART_INTERNAL_RX_SW_BUFFER_CONST)
 174:.\Generated_Source\PSoC4/UART_SPI_UART.c ****             uint32 intSourceMask;
 175:.\Generated_Source\PSoC4/UART_SPI_UART.c ****         #endif /* (UART_INTERNAL_RX_SW_BUFFER_CONST) */
 176:.\Generated_Source\PSoC4/UART_SPI_UART.c **** 
 177:.\Generated_Source\PSoC4/UART_SPI_UART.c ****         #if(UART_CHECK_RX_SW_BUFFER)
 178:.\Generated_Source\PSoC4/UART_SPI_UART.c ****         {
 179:.\Generated_Source\PSoC4/UART_SPI_UART.c ****             intSourceMask = UART_SpiUartDisableIntRx();
 180:.\Generated_Source\PSoC4/UART_SPI_UART.c **** 
 181:.\Generated_Source\PSoC4/UART_SPI_UART.c ****             UART_CLEAR_RX_FIFO;
 182:.\Generated_Source\PSoC4/UART_SPI_UART.c **** 
 183:.\Generated_Source\PSoC4/UART_SPI_UART.c ****             /* Flush RX software buffer */
 184:.\Generated_Source\PSoC4/UART_SPI_UART.c ****             UART_rxBufferHead     = UART_rxBufferTail;
 185:.\Generated_Source\PSoC4/UART_SPI_UART.c ****             UART_rxBufferOverflow = 0u;
 186:.\Generated_Source\PSoC4/UART_SPI_UART.c **** 
 187:.\Generated_Source\PSoC4/UART_SPI_UART.c ****             /* End RX transfer */
 188:.\Generated_Source\PSoC4/UART_SPI_UART.c ****             UART_ClearRxInterruptSource(UART_INTR_RX_ALL);
 189:.\Generated_Source\PSoC4/UART_SPI_UART.c **** 
 190:.\Generated_Source\PSoC4/UART_SPI_UART.c ****             UART_SpiUartEnableIntRx(intSourceMask);
 191:.\Generated_Source\PSoC4/UART_SPI_UART.c ****         }
 192:.\Generated_Source\PSoC4/UART_SPI_UART.c ****         #else
 193:.\Generated_Source\PSoC4/UART_SPI_UART.c ****         {
 194:.\Generated_Source\PSoC4/UART_SPI_UART.c ****             UART_CLEAR_RX_FIFO;
  84              		.loc 1 194 0
  85 0000 054B     		ldr	r3, .L8
  86 0002 8022     		mov	r2, #128
  87 0004 1968     		ldr	r1, [r3]
  88 0006 5002     		lsl	r0, r2, #9
  89 0008 0843     		orr	r0, r1
ARM GAS  C:\Users\Steve\AppData\Local\Temp\ccEduld8.s 			page 6


  90 000a 1860     		str	r0, [r3]
  91 000c 1968     		ldr	r1, [r3]
  92 000e 034A     		ldr	r2, .L8+4
 195:.\Generated_Source\PSoC4/UART_SPI_UART.c ****         }
 196:.\Generated_Source\PSoC4/UART_SPI_UART.c ****         #endif
 197:.\Generated_Source\PSoC4/UART_SPI_UART.c ****     }
  93              		.loc 1 197 0
  94              		@ sp needed for prologue
 194:.\Generated_Source\PSoC4/UART_SPI_UART.c ****             UART_CLEAR_RX_FIFO;
  95              		.loc 1 194 0
  96 0010 0A40     		and	r2, r1
  97 0012 1A60     		str	r2, [r3]
  98              		.loc 1 197 0
  99 0014 7047     		bx	lr
 100              	.L9:
 101 0016 C046     		.align	2
 102              	.L8:
 103 0018 04030640 		.word	1074135812
 104 001c FFFFFEFF 		.word	-65537
 105              		.cfi_endproc
 106              	.LFE2:
 107              		.size	UART_SpiUartClearRxBuffer, .-UART_SpiUartClearRxBuffer
 108              		.section	.text.UART_SpiUartWriteTxData,"ax",%progbits
 109              		.align	2
 110              		.global	UART_SpiUartWriteTxData
 111              		.code	16
 112              		.thumb_func
 113              		.type	UART_SpiUartWriteTxData, %function
 114              	UART_SpiUartWriteTxData:
 115              	.LFB3:
 198:.\Generated_Source\PSoC4/UART_SPI_UART.c **** 
 199:.\Generated_Source\PSoC4/UART_SPI_UART.c **** #endif /* (UART_RX_DIRECTION) */
 200:.\Generated_Source\PSoC4/UART_SPI_UART.c **** 
 201:.\Generated_Source\PSoC4/UART_SPI_UART.c **** 
 202:.\Generated_Source\PSoC4/UART_SPI_UART.c **** #if(UART_TX_DIRECTION)
 203:.\Generated_Source\PSoC4/UART_SPI_UART.c **** 
 204:.\Generated_Source\PSoC4/UART_SPI_UART.c ****     /*******************************************************************************
 205:.\Generated_Source\PSoC4/UART_SPI_UART.c ****     * Function Name: UART_SpiUartWriteTxData
 206:.\Generated_Source\PSoC4/UART_SPI_UART.c ****     ********************************************************************************
 207:.\Generated_Source\PSoC4/UART_SPI_UART.c ****     *
 208:.\Generated_Source\PSoC4/UART_SPI_UART.c ****     * Summary:
 209:.\Generated_Source\PSoC4/UART_SPI_UART.c ****     *  Places a data entry into the transmit buffer to be sent at the next available
 210:.\Generated_Source\PSoC4/UART_SPI_UART.c ****     *  bus time.
 211:.\Generated_Source\PSoC4/UART_SPI_UART.c ****     *  This function is blocking and waits until there is space available to put the
 212:.\Generated_Source\PSoC4/UART_SPI_UART.c ****     *  requested data in the transmit buffer.
 213:.\Generated_Source\PSoC4/UART_SPI_UART.c ****     *
 214:.\Generated_Source\PSoC4/UART_SPI_UART.c ****     * Parameters:
 215:.\Generated_Source\PSoC4/UART_SPI_UART.c ****     *  txDataByte: the data to be transmitted.
 216:.\Generated_Source\PSoC4/UART_SPI_UART.c ****     *
 217:.\Generated_Source\PSoC4/UART_SPI_UART.c ****     * Return:
 218:.\Generated_Source\PSoC4/UART_SPI_UART.c ****     *  None
 219:.\Generated_Source\PSoC4/UART_SPI_UART.c ****     *
 220:.\Generated_Source\PSoC4/UART_SPI_UART.c ****     *******************************************************************************/
 221:.\Generated_Source\PSoC4/UART_SPI_UART.c ****     void UART_SpiUartWriteTxData(uint32 txDataByte)
 222:.\Generated_Source\PSoC4/UART_SPI_UART.c ****     {
 116              		.loc 1 222 0
 117              		.cfi_startproc
ARM GAS  C:\Users\Steve\AppData\Local\Temp\ccEduld8.s 			page 7


 118              	.LVL4:
 119 0000 00B5     		push	{lr}
 120              	.LCFI0:
 121              		.cfi_def_cfa_offset 4
 122              		.cfi_offset 14, -4
 223:.\Generated_Source\PSoC4/UART_SPI_UART.c ****         #if(UART_INTERNAL_TX_SW_BUFFER_CONST)
 224:.\Generated_Source\PSoC4/UART_SPI_UART.c ****             uint32 locHead;
 225:.\Generated_Source\PSoC4/UART_SPI_UART.c ****             uint32 intSourceMask;
 226:.\Generated_Source\PSoC4/UART_SPI_UART.c ****         #endif /* (UART_INTERNAL_TX_SW_BUFFER_CONST) */
 227:.\Generated_Source\PSoC4/UART_SPI_UART.c **** 
 228:.\Generated_Source\PSoC4/UART_SPI_UART.c ****         #if(UART_CHECK_TX_SW_BUFFER)
 229:.\Generated_Source\PSoC4/UART_SPI_UART.c ****         {
 230:.\Generated_Source\PSoC4/UART_SPI_UART.c ****             /* Head index to put data */
 231:.\Generated_Source\PSoC4/UART_SPI_UART.c ****             locHead = (UART_txBufferHead + 1u);
 232:.\Generated_Source\PSoC4/UART_SPI_UART.c **** 
 233:.\Generated_Source\PSoC4/UART_SPI_UART.c ****             /* Adjust TX software buffer index */
 234:.\Generated_Source\PSoC4/UART_SPI_UART.c ****             if(UART_TX_BUFFER_SIZE == locHead)
 235:.\Generated_Source\PSoC4/UART_SPI_UART.c ****             {
 236:.\Generated_Source\PSoC4/UART_SPI_UART.c ****                 locHead = 0u;
 237:.\Generated_Source\PSoC4/UART_SPI_UART.c ****             }
 238:.\Generated_Source\PSoC4/UART_SPI_UART.c **** 
 239:.\Generated_Source\PSoC4/UART_SPI_UART.c ****             while(locHead == UART_txBufferTail)
 240:.\Generated_Source\PSoC4/UART_SPI_UART.c ****             {
 241:.\Generated_Source\PSoC4/UART_SPI_UART.c ****                 /* Wait for space in the TX software buffer */
 242:.\Generated_Source\PSoC4/UART_SPI_UART.c ****             }
 243:.\Generated_Source\PSoC4/UART_SPI_UART.c **** 
 244:.\Generated_Source\PSoC4/UART_SPI_UART.c ****             /* The TX software buffer has at least one room */
 245:.\Generated_Source\PSoC4/UART_SPI_UART.c **** 
 246:.\Generated_Source\PSoC4/UART_SPI_UART.c ****             if((UART_txBufferHead == UART_txBufferTail) &&
 247:.\Generated_Source\PSoC4/UART_SPI_UART.c ****                (UART_FIFO_SIZE != UART_GET_TX_FIFO_ENTRIES))
 248:.\Generated_Source\PSoC4/UART_SPI_UART.c ****             {
 249:.\Generated_Source\PSoC4/UART_SPI_UART.c ****                 /* TX software buffer is empty: put data directly in TX FIFO */
 250:.\Generated_Source\PSoC4/UART_SPI_UART.c ****                 UART_TX_FIFO_WR_REG = txDataByte;
 251:.\Generated_Source\PSoC4/UART_SPI_UART.c ****             }
 252:.\Generated_Source\PSoC4/UART_SPI_UART.c ****             /* Put data in the TX software buffer */
 253:.\Generated_Source\PSoC4/UART_SPI_UART.c ****             else
 254:.\Generated_Source\PSoC4/UART_SPI_UART.c ****             {
 255:.\Generated_Source\PSoC4/UART_SPI_UART.c ****                 /* Clear old status of INTR_TX_EMPTY. It sets at the end of transfer: TX FIFO empty
 256:.\Generated_Source\PSoC4/UART_SPI_UART.c ****                 UART_ClearTxInterruptSource(UART_INTR_TX_NOT_FULL);
 257:.\Generated_Source\PSoC4/UART_SPI_UART.c **** 
 258:.\Generated_Source\PSoC4/UART_SPI_UART.c ****                 UART_PutWordInTxBuffer(locHead, txDataByte);
 259:.\Generated_Source\PSoC4/UART_SPI_UART.c **** 
 260:.\Generated_Source\PSoC4/UART_SPI_UART.c ****                 UART_txBufferHead = locHead;
 261:.\Generated_Source\PSoC4/UART_SPI_UART.c **** 
 262:.\Generated_Source\PSoC4/UART_SPI_UART.c ****                 /* Enable interrupt to transmit */
 263:.\Generated_Source\PSoC4/UART_SPI_UART.c ****                 intSourceMask  = UART_INTR_TX_NOT_FULL;
 264:.\Generated_Source\PSoC4/UART_SPI_UART.c ****                 intSourceMask |= UART_GetTxInterruptMode();
 265:.\Generated_Source\PSoC4/UART_SPI_UART.c ****                 UART_SpiUartEnableIntTx(intSourceMask);
 266:.\Generated_Source\PSoC4/UART_SPI_UART.c ****             }
 267:.\Generated_Source\PSoC4/UART_SPI_UART.c ****         }
 268:.\Generated_Source\PSoC4/UART_SPI_UART.c ****         #else
 269:.\Generated_Source\PSoC4/UART_SPI_UART.c ****         {
 270:.\Generated_Source\PSoC4/UART_SPI_UART.c ****             while(UART_FIFO_SIZE == UART_GET_TX_FIFO_ENTRIES)
 123              		.loc 1 270 0
 124 0002 0449     		ldr	r1, .L17
 125 0004 0F22     		mov	r2, #15
 126              	.L11:
ARM GAS  C:\Users\Steve\AppData\Local\Temp\ccEduld8.s 			page 8


 127              		.loc 1 270 0 is_stmt 0 discriminator 1
 128 0006 0B68     		ldr	r3, [r1]
 129 0008 1340     		and	r3, r2
 130 000a 082B     		cmp	r3, #8
 131 000c FBD0     		beq	.L11
 271:.\Generated_Source\PSoC4/UART_SPI_UART.c ****             {
 272:.\Generated_Source\PSoC4/UART_SPI_UART.c ****                 /* Block while TX FIFO is FULL */
 273:.\Generated_Source\PSoC4/UART_SPI_UART.c ****             }
 274:.\Generated_Source\PSoC4/UART_SPI_UART.c **** 
 275:.\Generated_Source\PSoC4/UART_SPI_UART.c ****             UART_TX_FIFO_WR_REG = txDataByte;
 132              		.loc 1 275 0 is_stmt 1
 133 000e 0249     		ldr	r1, .L17+4
 276:.\Generated_Source\PSoC4/UART_SPI_UART.c ****         }
 277:.\Generated_Source\PSoC4/UART_SPI_UART.c ****         #endif
 278:.\Generated_Source\PSoC4/UART_SPI_UART.c ****     }
 134              		.loc 1 278 0
 135              		@ sp needed for prologue
 275:.\Generated_Source\PSoC4/UART_SPI_UART.c ****             UART_TX_FIFO_WR_REG = txDataByte;
 136              		.loc 1 275 0
 137 0010 0860     		str	r0, [r1]
 138              		.loc 1 278 0
 139 0012 00BD     		pop	{pc}
 140              	.L18:
 141              		.align	2
 142              	.L17:
 143 0014 08020640 		.word	1074135560
 144 0018 40020640 		.word	1074135616
 145              		.cfi_endproc
 146              	.LFE3:
 147              		.size	UART_SpiUartWriteTxData, .-UART_SpiUartWriteTxData
 148              		.section	.text.UART_SpiUartPutArray,"ax",%progbits
 149              		.align	2
 150              		.global	UART_SpiUartPutArray
 151              		.code	16
 152              		.thumb_func
 153              		.type	UART_SpiUartPutArray, %function
 154              	UART_SpiUartPutArray:
 155              	.LFB4:
 279:.\Generated_Source\PSoC4/UART_SPI_UART.c **** 
 280:.\Generated_Source\PSoC4/UART_SPI_UART.c **** 
 281:.\Generated_Source\PSoC4/UART_SPI_UART.c ****     /*******************************************************************************
 282:.\Generated_Source\PSoC4/UART_SPI_UART.c ****     * Function Name: UART_SpiUartPutArray
 283:.\Generated_Source\PSoC4/UART_SPI_UART.c ****     ********************************************************************************
 284:.\Generated_Source\PSoC4/UART_SPI_UART.c ****     *
 285:.\Generated_Source\PSoC4/UART_SPI_UART.c ****     * Summary:
 286:.\Generated_Source\PSoC4/UART_SPI_UART.c ****     *  Places an array of data into the transmit buffer to be sent.
 287:.\Generated_Source\PSoC4/UART_SPI_UART.c ****     *  This function is blocking and waits until there is a space available to put
 288:.\Generated_Source\PSoC4/UART_SPI_UART.c ****     *  all the requested data in the transmit buffer. The array size can be greater
 289:.\Generated_Source\PSoC4/UART_SPI_UART.c ****     *  than transmit buffer size.
 290:.\Generated_Source\PSoC4/UART_SPI_UART.c ****     *
 291:.\Generated_Source\PSoC4/UART_SPI_UART.c ****     * Parameters:
 292:.\Generated_Source\PSoC4/UART_SPI_UART.c ****     *  wrBuf:  pointer to an array with data to be placed in transmit buffer.
 293:.\Generated_Source\PSoC4/UART_SPI_UART.c ****     *  count:  number of data elements to be placed in the transmit buffer.
 294:.\Generated_Source\PSoC4/UART_SPI_UART.c ****     *
 295:.\Generated_Source\PSoC4/UART_SPI_UART.c ****     * Return:
 296:.\Generated_Source\PSoC4/UART_SPI_UART.c ****     *  None
 297:.\Generated_Source\PSoC4/UART_SPI_UART.c ****     *
ARM GAS  C:\Users\Steve\AppData\Local\Temp\ccEduld8.s 			page 9


 298:.\Generated_Source\PSoC4/UART_SPI_UART.c ****     *******************************************************************************/
 299:.\Generated_Source\PSoC4/UART_SPI_UART.c ****     void UART_SpiUartPutArray(const uint8 wrBuf[], uint32 count)
 300:.\Generated_Source\PSoC4/UART_SPI_UART.c ****     {
 156              		.loc 1 300 0
 157              		.cfi_startproc
 158              	.LVL5:
 159 0000 70B5     		push	{r4, r5, r6, lr}
 160              	.LCFI1:
 161              		.cfi_def_cfa_offset 16
 162              		.cfi_offset 4, -16
 163              		.cfi_offset 5, -12
 164              		.cfi_offset 6, -8
 165              		.cfi_offset 14, -4
 299:.\Generated_Source\PSoC4/UART_SPI_UART.c ****     void UART_SpiUartPutArray(const uint8 wrBuf[], uint32 count)
 166              		.loc 1 299 0
 167 0002 4618     		add	r6, r0, r1
 301:.\Generated_Source\PSoC4/UART_SPI_UART.c ****         uint32 i;
 302:.\Generated_Source\PSoC4/UART_SPI_UART.c **** 
 303:.\Generated_Source\PSoC4/UART_SPI_UART.c ****         for(i=0u; i < count; i++)
 168              		.loc 1 303 0
 169 0004 0029     		cmp	r1, #0
 170 0006 0BD0     		beq	.L19
 171              	.LBB4:
 172              	.LBB5:
 270:.\Generated_Source\PSoC4/UART_SPI_UART.c ****             while(UART_FIFO_SIZE == UART_GET_TX_FIFO_ENTRIES)
 173              		.loc 1 270 0 discriminator 2
 174 0008 0649     		ldr	r1, .L30
 175              	.LVL6:
 275:.\Generated_Source\PSoC4/UART_SPI_UART.c ****             UART_TX_FIFO_WR_REG = txDataByte;
 176              		.loc 1 275 0 discriminator 2
 177 000a 074D     		ldr	r5, .L30+4
 270:.\Generated_Source\PSoC4/UART_SPI_UART.c ****             while(UART_FIFO_SIZE == UART_GET_TX_FIFO_ENTRIES)
 178              		.loc 1 270 0 discriminator 2
 179 000c 0F22     		mov	r2, #15
 180              	.LVL7:
 181              	.L26:
 182              	.LBE5:
 183              	.LBE4:
 304:.\Generated_Source\PSoC4/UART_SPI_UART.c ****         {
 305:.\Generated_Source\PSoC4/UART_SPI_UART.c ****             UART_SpiUartWriteTxData((uint32) wrBuf[i]);
 184              		.loc 1 305 0 discriminator 2
 185 000e 0478     		ldrb	r4, [r0]
 186              	.LVL8:
 187              	.L21:
 188              	.LBB7:
 189              	.LBB6:
 270:.\Generated_Source\PSoC4/UART_SPI_UART.c ****             while(UART_FIFO_SIZE == UART_GET_TX_FIFO_ENTRIES)
 190              		.loc 1 270 0
 191 0010 0B68     		ldr	r3, [r1]
 192 0012 1340     		and	r3, r2
 193 0014 082B     		cmp	r3, #8
 194 0016 FBD0     		beq	.L21
 195 0018 0130     		add	r0, r0, #1
 275:.\Generated_Source\PSoC4/UART_SPI_UART.c ****             UART_TX_FIFO_WR_REG = txDataByte;
 196              		.loc 1 275 0
 197 001a 2C60     		str	r4, [r5]
 198              	.LBE6:
ARM GAS  C:\Users\Steve\AppData\Local\Temp\ccEduld8.s 			page 10


 199              	.LBE7:
 303:.\Generated_Source\PSoC4/UART_SPI_UART.c ****         for(i=0u; i < count; i++)
 200              		.loc 1 303 0
 201 001c B042     		cmp	r0, r6
 202 001e F6D1     		bne	.L26
 203              	.LVL9:
 204              	.L19:
 306:.\Generated_Source\PSoC4/UART_SPI_UART.c ****         }
 307:.\Generated_Source\PSoC4/UART_SPI_UART.c ****     }
 205              		.loc 1 307 0
 206              		@ sp needed for prologue
 207 0020 70BD     		pop	{r4, r5, r6, pc}
 208              	.L31:
 209 0022 C046     		.align	2
 210              	.L30:
 211 0024 08020640 		.word	1074135560
 212 0028 40020640 		.word	1074135616
 213              		.cfi_endproc
 214              	.LFE4:
 215              		.size	UART_SpiUartPutArray, .-UART_SpiUartPutArray
 216              		.section	.text.UART_SpiUartGetTxBufferSize,"ax",%progbits
 217              		.align	2
 218              		.global	UART_SpiUartGetTxBufferSize
 219              		.code	16
 220              		.thumb_func
 221              		.type	UART_SpiUartGetTxBufferSize, %function
 222              	UART_SpiUartGetTxBufferSize:
 223              	.LFB5:
 308:.\Generated_Source\PSoC4/UART_SPI_UART.c **** 
 309:.\Generated_Source\PSoC4/UART_SPI_UART.c **** 
 310:.\Generated_Source\PSoC4/UART_SPI_UART.c ****     /*******************************************************************************
 311:.\Generated_Source\PSoC4/UART_SPI_UART.c ****     * Function Name: UART_SpiUartGetTxBufferSize
 312:.\Generated_Source\PSoC4/UART_SPI_UART.c ****     ********************************************************************************
 313:.\Generated_Source\PSoC4/UART_SPI_UART.c ****     *
 314:.\Generated_Source\PSoC4/UART_SPI_UART.c ****     * Summary:
 315:.\Generated_Source\PSoC4/UART_SPI_UART.c ****     *  Returns the number of elements currently in the transmit buffer.
 316:.\Generated_Source\PSoC4/UART_SPI_UART.c ****     *  TX software buffer disabled: returns the number of used entries in TX FIFO.
 317:.\Generated_Source\PSoC4/UART_SPI_UART.c ****     *  TX software buffer enabled: returns the number of elements currently used
 318:.\Generated_Source\PSoC4/UART_SPI_UART.c ****     *  in the transmit buffer. This number does not include used entries in the
 319:.\Generated_Source\PSoC4/UART_SPI_UART.c ****     *  TX FIFO. The transmit buffer size is zero until the TX FIFO is full.
 320:.\Generated_Source\PSoC4/UART_SPI_UART.c ****     *
 321:.\Generated_Source\PSoC4/UART_SPI_UART.c ****     * Parameters:
 322:.\Generated_Source\PSoC4/UART_SPI_UART.c ****     *  None
 323:.\Generated_Source\PSoC4/UART_SPI_UART.c ****     *
 324:.\Generated_Source\PSoC4/UART_SPI_UART.c ****     * Return:
 325:.\Generated_Source\PSoC4/UART_SPI_UART.c ****     *  Number of data elements ready to transmit.
 326:.\Generated_Source\PSoC4/UART_SPI_UART.c ****     *
 327:.\Generated_Source\PSoC4/UART_SPI_UART.c ****     *******************************************************************************/
 328:.\Generated_Source\PSoC4/UART_SPI_UART.c ****     uint32 UART_SpiUartGetTxBufferSize(void)
 329:.\Generated_Source\PSoC4/UART_SPI_UART.c ****     {
 224              		.loc 1 329 0
 225              		.cfi_startproc
 330:.\Generated_Source\PSoC4/UART_SPI_UART.c ****         uint32 size;
 331:.\Generated_Source\PSoC4/UART_SPI_UART.c ****         #if(UART_INTERNAL_TX_SW_BUFFER_CONST)
 332:.\Generated_Source\PSoC4/UART_SPI_UART.c ****             uint32 locTail;
 333:.\Generated_Source\PSoC4/UART_SPI_UART.c ****         #endif /* (UART_INTERNAL_TX_SW_BUFFER_CONST) */
 334:.\Generated_Source\PSoC4/UART_SPI_UART.c **** 
ARM GAS  C:\Users\Steve\AppData\Local\Temp\ccEduld8.s 			page 11


 335:.\Generated_Source\PSoC4/UART_SPI_UART.c ****         #if(UART_CHECK_TX_SW_BUFFER)
 336:.\Generated_Source\PSoC4/UART_SPI_UART.c ****         {
 337:.\Generated_Source\PSoC4/UART_SPI_UART.c ****             /* Get current Tail index */
 338:.\Generated_Source\PSoC4/UART_SPI_UART.c ****             locTail = UART_txBufferTail;
 339:.\Generated_Source\PSoC4/UART_SPI_UART.c **** 
 340:.\Generated_Source\PSoC4/UART_SPI_UART.c ****             if(UART_txBufferHead >= locTail)
 341:.\Generated_Source\PSoC4/UART_SPI_UART.c ****             {
 342:.\Generated_Source\PSoC4/UART_SPI_UART.c ****                 size = (UART_txBufferHead - locTail);
 343:.\Generated_Source\PSoC4/UART_SPI_UART.c ****             }
 344:.\Generated_Source\PSoC4/UART_SPI_UART.c ****             else
 345:.\Generated_Source\PSoC4/UART_SPI_UART.c ****             {
 346:.\Generated_Source\PSoC4/UART_SPI_UART.c ****                 size = (UART_txBufferHead + (UART_TX_BUFFER_SIZE - locTail));
 347:.\Generated_Source\PSoC4/UART_SPI_UART.c ****             }
 348:.\Generated_Source\PSoC4/UART_SPI_UART.c ****         }
 349:.\Generated_Source\PSoC4/UART_SPI_UART.c ****         #else
 350:.\Generated_Source\PSoC4/UART_SPI_UART.c ****         {
 351:.\Generated_Source\PSoC4/UART_SPI_UART.c ****             size = UART_GET_TX_FIFO_ENTRIES;
 226              		.loc 1 351 0
 227 0000 024B     		ldr	r3, .L33
 228 0002 0F20     		mov	r0, #15
 229 0004 1968     		ldr	r1, [r3]
 230              	.LVL10:
 352:.\Generated_Source\PSoC4/UART_SPI_UART.c ****         }
 353:.\Generated_Source\PSoC4/UART_SPI_UART.c ****         #endif
 354:.\Generated_Source\PSoC4/UART_SPI_UART.c **** 
 355:.\Generated_Source\PSoC4/UART_SPI_UART.c ****         return(size);
 356:.\Generated_Source\PSoC4/UART_SPI_UART.c ****     }
 231              		.loc 1 356 0
 232              		@ sp needed for prologue
 351:.\Generated_Source\PSoC4/UART_SPI_UART.c ****             size = UART_GET_TX_FIFO_ENTRIES;
 233              		.loc 1 351 0
 234 0006 0840     		and	r0, r1
 235              	.LVL11:
 236              		.loc 1 356 0
 237 0008 7047     		bx	lr
 238              	.L34:
 239 000a C046     		.align	2
 240              	.L33:
 241 000c 08020640 		.word	1074135560
 242              		.cfi_endproc
 243              	.LFE5:
 244              		.size	UART_SpiUartGetTxBufferSize, .-UART_SpiUartGetTxBufferSize
 245              		.section	.text.UART_SpiUartClearTxBuffer,"ax",%progbits
 246              		.align	2
 247              		.global	UART_SpiUartClearTxBuffer
 248              		.code	16
 249              		.thumb_func
 250              		.type	UART_SpiUartClearTxBuffer, %function
 251              	UART_SpiUartClearTxBuffer:
 252              	.LFB6:
 357:.\Generated_Source\PSoC4/UART_SPI_UART.c **** 
 358:.\Generated_Source\PSoC4/UART_SPI_UART.c **** 
 359:.\Generated_Source\PSoC4/UART_SPI_UART.c ****     /*******************************************************************************
 360:.\Generated_Source\PSoC4/UART_SPI_UART.c ****     * Function Name: UART_SpiUartClearTxBuffer
 361:.\Generated_Source\PSoC4/UART_SPI_UART.c ****     ********************************************************************************
 362:.\Generated_Source\PSoC4/UART_SPI_UART.c ****     *
 363:.\Generated_Source\PSoC4/UART_SPI_UART.c ****     * Summary:
ARM GAS  C:\Users\Steve\AppData\Local\Temp\ccEduld8.s 			page 12


 364:.\Generated_Source\PSoC4/UART_SPI_UART.c ****     *  Clears the transmit buffer and TX FIFO.
 365:.\Generated_Source\PSoC4/UART_SPI_UART.c ****     *
 366:.\Generated_Source\PSoC4/UART_SPI_UART.c ****     * Parameters:
 367:.\Generated_Source\PSoC4/UART_SPI_UART.c ****     *  None
 368:.\Generated_Source\PSoC4/UART_SPI_UART.c ****     *
 369:.\Generated_Source\PSoC4/UART_SPI_UART.c ****     * Return:
 370:.\Generated_Source\PSoC4/UART_SPI_UART.c ****     *  None
 371:.\Generated_Source\PSoC4/UART_SPI_UART.c ****     *
 372:.\Generated_Source\PSoC4/UART_SPI_UART.c ****     *******************************************************************************/
 373:.\Generated_Source\PSoC4/UART_SPI_UART.c ****     void UART_SpiUartClearTxBuffer(void)
 374:.\Generated_Source\PSoC4/UART_SPI_UART.c ****     {
 253              		.loc 1 374 0
 254              		.cfi_startproc
 375:.\Generated_Source\PSoC4/UART_SPI_UART.c ****         #if(UART_INTERNAL_TX_SW_BUFFER_CONST)
 376:.\Generated_Source\PSoC4/UART_SPI_UART.c ****             uint32 intSourceMask;
 377:.\Generated_Source\PSoC4/UART_SPI_UART.c ****         #endif /* (UART_INTERNAL_TX_SW_BUFFER_CONST) */
 378:.\Generated_Source\PSoC4/UART_SPI_UART.c **** 
 379:.\Generated_Source\PSoC4/UART_SPI_UART.c ****         #if(UART_CHECK_TX_SW_BUFFER)
 380:.\Generated_Source\PSoC4/UART_SPI_UART.c ****         {
 381:.\Generated_Source\PSoC4/UART_SPI_UART.c ****             intSourceMask = UART_SpiUartDisableIntTx();
 382:.\Generated_Source\PSoC4/UART_SPI_UART.c **** 
 383:.\Generated_Source\PSoC4/UART_SPI_UART.c ****             UART_CLEAR_TX_FIFO;
 384:.\Generated_Source\PSoC4/UART_SPI_UART.c **** 
 385:.\Generated_Source\PSoC4/UART_SPI_UART.c ****             /* Flush TX software buffer */
 386:.\Generated_Source\PSoC4/UART_SPI_UART.c ****             UART_txBufferHead = UART_txBufferTail;
 387:.\Generated_Source\PSoC4/UART_SPI_UART.c **** 
 388:.\Generated_Source\PSoC4/UART_SPI_UART.c ****             /* End TX transfer if it is in progress */
 389:.\Generated_Source\PSoC4/UART_SPI_UART.c ****             intSourceMask &= (uint32) ~UART_INTR_TX_NOT_FULL;
 390:.\Generated_Source\PSoC4/UART_SPI_UART.c **** 
 391:.\Generated_Source\PSoC4/UART_SPI_UART.c ****             UART_SpiUartEnableIntTx(intSourceMask);
 392:.\Generated_Source\PSoC4/UART_SPI_UART.c ****         }
 393:.\Generated_Source\PSoC4/UART_SPI_UART.c ****         #else
 394:.\Generated_Source\PSoC4/UART_SPI_UART.c ****         {
 395:.\Generated_Source\PSoC4/UART_SPI_UART.c ****             UART_CLEAR_TX_FIFO;
 255              		.loc 1 395 0
 256 0000 054B     		ldr	r3, .L36
 257 0002 8022     		mov	r2, #128
 258 0004 1968     		ldr	r1, [r3]
 259 0006 5002     		lsl	r0, r2, #9
 260 0008 0843     		orr	r0, r1
 261 000a 1860     		str	r0, [r3]
 262 000c 1968     		ldr	r1, [r3]
 263 000e 034A     		ldr	r2, .L36+4
 396:.\Generated_Source\PSoC4/UART_SPI_UART.c ****         }
 397:.\Generated_Source\PSoC4/UART_SPI_UART.c ****         #endif
 398:.\Generated_Source\PSoC4/UART_SPI_UART.c ****     }
 264              		.loc 1 398 0
 265              		@ sp needed for prologue
 395:.\Generated_Source\PSoC4/UART_SPI_UART.c ****             UART_CLEAR_TX_FIFO;
 266              		.loc 1 395 0
 267 0010 0A40     		and	r2, r1
 268 0012 1A60     		str	r2, [r3]
 269              		.loc 1 398 0
 270 0014 7047     		bx	lr
 271              	.L37:
 272 0016 C046     		.align	2
 273              	.L36:
ARM GAS  C:\Users\Steve\AppData\Local\Temp\ccEduld8.s 			page 13


 274 0018 04020640 		.word	1074135556
 275 001c FFFFFEFF 		.word	-65537
 276              		.cfi_endproc
 277              	.LFE6:
 278              		.size	UART_SpiUartClearTxBuffer, .-UART_SpiUartClearTxBuffer
 279              		.section	.text.UART_SpiUartDisableIntRx,"ax",%progbits
 280              		.align	2
 281              		.global	UART_SpiUartDisableIntRx
 282              		.code	16
 283              		.thumb_func
 284              		.type	UART_SpiUartDisableIntRx, %function
 285              	UART_SpiUartDisableIntRx:
 286              	.LFB7:
 399:.\Generated_Source\PSoC4/UART_SPI_UART.c **** 
 400:.\Generated_Source\PSoC4/UART_SPI_UART.c **** #endif /* (UART_TX_DIRECTION) */
 401:.\Generated_Source\PSoC4/UART_SPI_UART.c **** 
 402:.\Generated_Source\PSoC4/UART_SPI_UART.c **** 
 403:.\Generated_Source\PSoC4/UART_SPI_UART.c **** /*******************************************************************************
 404:.\Generated_Source\PSoC4/UART_SPI_UART.c **** * Function Name: UART_SpiUartDisableIntRx
 405:.\Generated_Source\PSoC4/UART_SPI_UART.c **** ********************************************************************************
 406:.\Generated_Source\PSoC4/UART_SPI_UART.c **** *
 407:.\Generated_Source\PSoC4/UART_SPI_UART.c **** * Summary:
 408:.\Generated_Source\PSoC4/UART_SPI_UART.c **** *  Disables RX interrupt sources.
 409:.\Generated_Source\PSoC4/UART_SPI_UART.c **** *
 410:.\Generated_Source\PSoC4/UART_SPI_UART.c **** * Parameters:
 411:.\Generated_Source\PSoC4/UART_SPI_UART.c **** *  None
 412:.\Generated_Source\PSoC4/UART_SPI_UART.c **** *
 413:.\Generated_Source\PSoC4/UART_SPI_UART.c **** * Return:
 414:.\Generated_Source\PSoC4/UART_SPI_UART.c **** *  Returns RX interrupt soureces enabled before function call.
 415:.\Generated_Source\PSoC4/UART_SPI_UART.c **** *
 416:.\Generated_Source\PSoC4/UART_SPI_UART.c **** *******************************************************************************/
 417:.\Generated_Source\PSoC4/UART_SPI_UART.c **** uint32 UART_SpiUartDisableIntRx(void)
 418:.\Generated_Source\PSoC4/UART_SPI_UART.c **** {
 287              		.loc 1 418 0
 288              		.cfi_startproc
 419:.\Generated_Source\PSoC4/UART_SPI_UART.c ****     uint32 intSource;
 420:.\Generated_Source\PSoC4/UART_SPI_UART.c **** 
 421:.\Generated_Source\PSoC4/UART_SPI_UART.c ****     intSource = UART_GetRxInterruptMode();
 289              		.loc 1 421 0
 290 0000 024B     		ldr	r3, .L39
 422:.\Generated_Source\PSoC4/UART_SPI_UART.c **** 
 423:.\Generated_Source\PSoC4/UART_SPI_UART.c ****     UART_SetRxInterruptMode(UART_NO_INTR_SOURCES);
 291              		.loc 1 423 0
 292 0002 0022     		mov	r2, #0
 421:.\Generated_Source\PSoC4/UART_SPI_UART.c ****     intSource = UART_GetRxInterruptMode();
 293              		.loc 1 421 0
 294 0004 1868     		ldr	r0, [r3]
 295              	.LVL12:
 424:.\Generated_Source\PSoC4/UART_SPI_UART.c **** 
 425:.\Generated_Source\PSoC4/UART_SPI_UART.c ****     return(intSource);
 426:.\Generated_Source\PSoC4/UART_SPI_UART.c **** }
 296              		.loc 1 426 0
 297              		@ sp needed for prologue
 423:.\Generated_Source\PSoC4/UART_SPI_UART.c ****     UART_SetRxInterruptMode(UART_NO_INTR_SOURCES);
 298              		.loc 1 423 0
 299 0006 1A60     		str	r2, [r3]
 300              		.loc 1 426 0
ARM GAS  C:\Users\Steve\AppData\Local\Temp\ccEduld8.s 			page 14


 301 0008 7047     		bx	lr
 302              	.L40:
 303 000a C046     		.align	2
 304              	.L39:
 305 000c C80F0640 		.word	1074139080
 306              		.cfi_endproc
 307              	.LFE7:
 308              		.size	UART_SpiUartDisableIntRx, .-UART_SpiUartDisableIntRx
 309              		.section	.text.UART_SpiUartDisableIntTx,"ax",%progbits
 310              		.align	2
 311              		.global	UART_SpiUartDisableIntTx
 312              		.code	16
 313              		.thumb_func
 314              		.type	UART_SpiUartDisableIntTx, %function
 315              	UART_SpiUartDisableIntTx:
 316              	.LFB8:
 427:.\Generated_Source\PSoC4/UART_SPI_UART.c **** 
 428:.\Generated_Source\PSoC4/UART_SPI_UART.c **** 
 429:.\Generated_Source\PSoC4/UART_SPI_UART.c **** /*******************************************************************************
 430:.\Generated_Source\PSoC4/UART_SPI_UART.c **** * Function Name: UART_SpiUartDisableIntTx
 431:.\Generated_Source\PSoC4/UART_SPI_UART.c **** ********************************************************************************
 432:.\Generated_Source\PSoC4/UART_SPI_UART.c **** *
 433:.\Generated_Source\PSoC4/UART_SPI_UART.c **** * Summary:
 434:.\Generated_Source\PSoC4/UART_SPI_UART.c **** *  Disables TX interrupt sources.
 435:.\Generated_Source\PSoC4/UART_SPI_UART.c **** *
 436:.\Generated_Source\PSoC4/UART_SPI_UART.c **** * Parameters:
 437:.\Generated_Source\PSoC4/UART_SPI_UART.c **** *  None
 438:.\Generated_Source\PSoC4/UART_SPI_UART.c **** *
 439:.\Generated_Source\PSoC4/UART_SPI_UART.c **** * Return:
 440:.\Generated_Source\PSoC4/UART_SPI_UART.c **** *  Returns TX interrupt soureces enabled before function call.
 441:.\Generated_Source\PSoC4/UART_SPI_UART.c **** *
 442:.\Generated_Source\PSoC4/UART_SPI_UART.c **** *******************************************************************************/
 443:.\Generated_Source\PSoC4/UART_SPI_UART.c **** uint32 UART_SpiUartDisableIntTx(void)
 444:.\Generated_Source\PSoC4/UART_SPI_UART.c **** {
 317              		.loc 1 444 0
 318              		.cfi_startproc
 445:.\Generated_Source\PSoC4/UART_SPI_UART.c ****     uint32 intSourceMask;
 446:.\Generated_Source\PSoC4/UART_SPI_UART.c **** 
 447:.\Generated_Source\PSoC4/UART_SPI_UART.c ****     intSourceMask = UART_GetTxInterruptMode();
 319              		.loc 1 447 0
 320 0000 024B     		ldr	r3, .L42
 448:.\Generated_Source\PSoC4/UART_SPI_UART.c **** 
 449:.\Generated_Source\PSoC4/UART_SPI_UART.c ****     UART_SetTxInterruptMode(UART_NO_INTR_SOURCES);
 321              		.loc 1 449 0
 322 0002 0022     		mov	r2, #0
 447:.\Generated_Source\PSoC4/UART_SPI_UART.c ****     intSourceMask = UART_GetTxInterruptMode();
 323              		.loc 1 447 0
 324 0004 1868     		ldr	r0, [r3]
 325              	.LVL13:
 450:.\Generated_Source\PSoC4/UART_SPI_UART.c **** 
 451:.\Generated_Source\PSoC4/UART_SPI_UART.c ****     return(intSourceMask);
 452:.\Generated_Source\PSoC4/UART_SPI_UART.c **** }
 326              		.loc 1 452 0
 327              		@ sp needed for prologue
 449:.\Generated_Source\PSoC4/UART_SPI_UART.c ****     UART_SetTxInterruptMode(UART_NO_INTR_SOURCES);
 328              		.loc 1 449 0
 329 0006 1A60     		str	r2, [r3]
ARM GAS  C:\Users\Steve\AppData\Local\Temp\ccEduld8.s 			page 15


 330              		.loc 1 452 0
 331 0008 7047     		bx	lr
 332              	.L43:
 333 000a C046     		.align	2
 334              	.L42:
 335 000c 880F0640 		.word	1074139016
 336              		.cfi_endproc
 337              	.LFE8:
 338              		.size	UART_SpiUartDisableIntTx, .-UART_SpiUartDisableIntTx
 339              		.text
 340              	.Letext0:
 341              		.file 2 ".\\Generated_Source\\PSoC4\\cytypes.h"