ARM GAS  C:\Users\Steve\AppData\Local\Temp\ccyTshnh.s 			page 1


   1              		.cpu cortex-m0
   2              		.fpu softvfp
   3              		.eabi_attribute 20, 1
   4              		.eabi_attribute 21, 1
   5              		.eabi_attribute 23, 3
   6              		.eabi_attribute 24, 1
   7              		.eabi_attribute 25, 1
   8              		.eabi_attribute 26, 1
   9              		.eabi_attribute 30, 2
  10              		.eabi_attribute 34, 0
  11              		.eabi_attribute 18, 4
  12              		.code	16
  13              		.file	"UART_UART.c"
  14              		.text
  15              	.Ltext0:
  16              		.cfi_sections	.debug_frame
  17              		.section	.text.UART_UartInit,"ax",%progbits
  18              		.align	2
  19              		.global	UART_UartInit
  20              		.code	16
  21              		.thumb_func
  22              		.type	UART_UartInit, %function
  23              	UART_UartInit:
  24              	.LFB0:
  25              		.file 1 ".\\Generated_Source\\PSoC4\\UART_UART.c"
   1:.\Generated_Source\PSoC4/UART_UART.c **** /*******************************************************************************
   2:.\Generated_Source\PSoC4/UART_UART.c **** * File Name: UART_UART.c
   3:.\Generated_Source\PSoC4/UART_UART.c **** * Version 1.10
   4:.\Generated_Source\PSoC4/UART_UART.c **** *
   5:.\Generated_Source\PSoC4/UART_UART.c **** * Description:
   6:.\Generated_Source\PSoC4/UART_UART.c **** *  This file provides the source code to the API for the SCB Component in
   7:.\Generated_Source\PSoC4/UART_UART.c **** *  UART mode.
   8:.\Generated_Source\PSoC4/UART_UART.c **** *
   9:.\Generated_Source\PSoC4/UART_UART.c **** * Note:
  10:.\Generated_Source\PSoC4/UART_UART.c **** *
  11:.\Generated_Source\PSoC4/UART_UART.c **** *******************************************************************************
  12:.\Generated_Source\PSoC4/UART_UART.c **** * Copyright 2013, Cypress Semiconductor Corporation.  All rights reserved.
  13:.\Generated_Source\PSoC4/UART_UART.c **** * You may use this file only in accordance with the license, terms, conditions,
  14:.\Generated_Source\PSoC4/UART_UART.c **** * disclaimers, and limitations in the end user license agreement accompanying
  15:.\Generated_Source\PSoC4/UART_UART.c **** * the software package with which this file was provided.
  16:.\Generated_Source\PSoC4/UART_UART.c **** *******************************************************************************/
  17:.\Generated_Source\PSoC4/UART_UART.c **** 
  18:.\Generated_Source\PSoC4/UART_UART.c **** #include "UART_PVT.h"
  19:.\Generated_Source\PSoC4/UART_UART.c **** #include "UART_SPI_UART_PVT.h"
  20:.\Generated_Source\PSoC4/UART_UART.c **** 
  21:.\Generated_Source\PSoC4/UART_UART.c **** 
  22:.\Generated_Source\PSoC4/UART_UART.c **** #if(UART_SCB_MODE_UNCONFIG_CONST_CFG)
  23:.\Generated_Source\PSoC4/UART_UART.c **** 
  24:.\Generated_Source\PSoC4/UART_UART.c ****     /***************************************
  25:.\Generated_Source\PSoC4/UART_UART.c ****     *  Config Structure Initialization
  26:.\Generated_Source\PSoC4/UART_UART.c ****     ***************************************/
  27:.\Generated_Source\PSoC4/UART_UART.c **** 
  28:.\Generated_Source\PSoC4/UART_UART.c ****     const UART_UART_INIT_STRUCT UART_configUart =
  29:.\Generated_Source\PSoC4/UART_UART.c ****     {
  30:.\Generated_Source\PSoC4/UART_UART.c ****         UART_UART_SUB_MODE,
  31:.\Generated_Source\PSoC4/UART_UART.c ****         UART_UART_DIRECTION,
  32:.\Generated_Source\PSoC4/UART_UART.c ****         UART_UART_DATA_BITS_NUM,
ARM GAS  C:\Users\Steve\AppData\Local\Temp\ccyTshnh.s 			page 2


  33:.\Generated_Source\PSoC4/UART_UART.c ****         UART_UART_PARITY_TYPE,
  34:.\Generated_Source\PSoC4/UART_UART.c ****         UART_UART_STOP_BITS_NUM,
  35:.\Generated_Source\PSoC4/UART_UART.c ****         UART_UART_OVS_FACTOR,
  36:.\Generated_Source\PSoC4/UART_UART.c ****         UART_UART_IRDA_LOW_POWER,
  37:.\Generated_Source\PSoC4/UART_UART.c ****         UART_UART_MEDIAN_FILTER_ENABLE,
  38:.\Generated_Source\PSoC4/UART_UART.c ****         UART_UART_RETRY_ON_NACK,
  39:.\Generated_Source\PSoC4/UART_UART.c ****         UART_UART_IRDA_POLARITY,
  40:.\Generated_Source\PSoC4/UART_UART.c ****         UART_UART_DROP_ON_PARITY_ERR,
  41:.\Generated_Source\PSoC4/UART_UART.c ****         UART_UART_DROP_ON_FRAME_ERR,
  42:.\Generated_Source\PSoC4/UART_UART.c ****         UART_UART_WAKE_ENABLE,
  43:.\Generated_Source\PSoC4/UART_UART.c ****         0u,
  44:.\Generated_Source\PSoC4/UART_UART.c ****         NULL,
  45:.\Generated_Source\PSoC4/UART_UART.c ****         0u,
  46:.\Generated_Source\PSoC4/UART_UART.c ****         NULL,
  47:.\Generated_Source\PSoC4/UART_UART.c ****         UART_UART_MP_MODE_ENABLE,
  48:.\Generated_Source\PSoC4/UART_UART.c ****         UART_UART_MP_ACCEPT_ADDRESS,
  49:.\Generated_Source\PSoC4/UART_UART.c ****         UART_UART_MP_RX_ADDRESS,
  50:.\Generated_Source\PSoC4/UART_UART.c ****         UART_UART_MP_RX_ADDRESS_MASK,
  51:.\Generated_Source\PSoC4/UART_UART.c ****         UART_SCB_IRQ_INTERNAL,
  52:.\Generated_Source\PSoC4/UART_UART.c ****         UART_UART_INTR_RX_MASK,
  53:.\Generated_Source\PSoC4/UART_UART.c ****         UART_UART_RX_TRIGGER_LEVEL,
  54:.\Generated_Source\PSoC4/UART_UART.c ****         UART_UART_INTR_TX_MASK,
  55:.\Generated_Source\PSoC4/UART_UART.c ****         UART_UART_TX_TRIGGER_LEVEL
  56:.\Generated_Source\PSoC4/UART_UART.c ****     };
  57:.\Generated_Source\PSoC4/UART_UART.c **** 
  58:.\Generated_Source\PSoC4/UART_UART.c **** 
  59:.\Generated_Source\PSoC4/UART_UART.c ****     /*******************************************************************************
  60:.\Generated_Source\PSoC4/UART_UART.c ****     * Function Name: UART_UartInit
  61:.\Generated_Source\PSoC4/UART_UART.c ****     ********************************************************************************
  62:.\Generated_Source\PSoC4/UART_UART.c ****     *
  63:.\Generated_Source\PSoC4/UART_UART.c ****     * Summary:
  64:.\Generated_Source\PSoC4/UART_UART.c ****     *  Configures the SCB for SPI operation.
  65:.\Generated_Source\PSoC4/UART_UART.c ****     *
  66:.\Generated_Source\PSoC4/UART_UART.c ****     * Parameters:
  67:.\Generated_Source\PSoC4/UART_UART.c ****     *  config:  Pointer to a structure that contains the following ordered list of
  68:.\Generated_Source\PSoC4/UART_UART.c ****     *           fields. These fields match the selections available in the
  69:.\Generated_Source\PSoC4/UART_UART.c ****     *           customizer.
  70:.\Generated_Source\PSoC4/UART_UART.c ****     *
  71:.\Generated_Source\PSoC4/UART_UART.c ****     * Return:
  72:.\Generated_Source\PSoC4/UART_UART.c ****     *  None
  73:.\Generated_Source\PSoC4/UART_UART.c ****     *
  74:.\Generated_Source\PSoC4/UART_UART.c ****     *******************************************************************************/
  75:.\Generated_Source\PSoC4/UART_UART.c ****     void UART_UartInit(const UART_UART_INIT_STRUCT *config)
  76:.\Generated_Source\PSoC4/UART_UART.c ****     {
  77:.\Generated_Source\PSoC4/UART_UART.c ****         if(NULL == config)
  78:.\Generated_Source\PSoC4/UART_UART.c ****         {
  79:.\Generated_Source\PSoC4/UART_UART.c ****             CYASSERT(0u != 0u); /* Halt execution due bad fucntion parameter */
  80:.\Generated_Source\PSoC4/UART_UART.c ****         }
  81:.\Generated_Source\PSoC4/UART_UART.c ****         else
  82:.\Generated_Source\PSoC4/UART_UART.c ****         {
  83:.\Generated_Source\PSoC4/UART_UART.c ****             /* Configure pins */
  84:.\Generated_Source\PSoC4/UART_UART.c ****             UART_SetPins(UART_SCB_MODE_UART, config->mode, config->direction);
  85:.\Generated_Source\PSoC4/UART_UART.c **** 
  86:.\Generated_Source\PSoC4/UART_UART.c ****             /* Store internal configuration */
  87:.\Generated_Source\PSoC4/UART_UART.c ****             UART_scbMode       = (uint8) UART_SCB_MODE_UART;
  88:.\Generated_Source\PSoC4/UART_UART.c ****             UART_scbEnableWake = (uint8) config->enableWake;
  89:.\Generated_Source\PSoC4/UART_UART.c ****             UART_scbEnableIntr = (uint8) config->enableInterrupt;
ARM GAS  C:\Users\Steve\AppData\Local\Temp\ccyTshnh.s 			page 3


  90:.\Generated_Source\PSoC4/UART_UART.c **** 
  91:.\Generated_Source\PSoC4/UART_UART.c ****             /* Set RX direction internal variables */
  92:.\Generated_Source\PSoC4/UART_UART.c ****             UART_rxBuffer      =         config->rxBuffer;
  93:.\Generated_Source\PSoC4/UART_UART.c ****             UART_rxDataBits    = (uint8) config->dataBits;
  94:.\Generated_Source\PSoC4/UART_UART.c ****             UART_rxBufferSize  = (uint8) config->rxBufferSize;
  95:.\Generated_Source\PSoC4/UART_UART.c **** 
  96:.\Generated_Source\PSoC4/UART_UART.c ****             /* Set TX direction internal variables */
  97:.\Generated_Source\PSoC4/UART_UART.c ****             UART_txBuffer      =         config->txBuffer;
  98:.\Generated_Source\PSoC4/UART_UART.c ****             UART_txDataBits    = (uint8) config->dataBits;
  99:.\Generated_Source\PSoC4/UART_UART.c ****             UART_txBufferSize  = (uint8) config->txBufferSize;
 100:.\Generated_Source\PSoC4/UART_UART.c **** 
 101:.\Generated_Source\PSoC4/UART_UART.c **** 
 102:.\Generated_Source\PSoC4/UART_UART.c ****             /* Configure UART interface */
 103:.\Generated_Source\PSoC4/UART_UART.c ****             if(UART_UART_MODE_IRDA == config->mode)
 104:.\Generated_Source\PSoC4/UART_UART.c ****             {
 105:.\Generated_Source\PSoC4/UART_UART.c ****                 /* OVS settigns: IrDA */
 106:.\Generated_Source\PSoC4/UART_UART.c ****                 UART_CTRL_REG  = ((0u != config->enableIrdaLowPower) ?
 107:.\Generated_Source\PSoC4/UART_UART.c ****                                                 (UART_UART_GET_CTRL_OVS_IRDA_LP(config->oversample)
 108:.\Generated_Source\PSoC4/UART_UART.c ****                                                 (UART_CTRL_OVS_IRDA_OVS16));
 109:.\Generated_Source\PSoC4/UART_UART.c ****             }
 110:.\Generated_Source\PSoC4/UART_UART.c ****             else
 111:.\Generated_Source\PSoC4/UART_UART.c ****             {
 112:.\Generated_Source\PSoC4/UART_UART.c ****                 /* OVS settigns: UART and SmartCard */
 113:.\Generated_Source\PSoC4/UART_UART.c ****                 UART_CTRL_REG  = UART_GET_CTRL_OVS(config->oversample);
 114:.\Generated_Source\PSoC4/UART_UART.c ****             }
 115:.\Generated_Source\PSoC4/UART_UART.c **** 
 116:.\Generated_Source\PSoC4/UART_UART.c ****             UART_CTRL_REG     |= UART_GET_CTRL_ADDR_ACCEPT(config->multiprocAcceptAddr) |
 117:.\Generated_Source\PSoC4/UART_UART.c ****                                              UART_CTRL_UART;
 118:.\Generated_Source\PSoC4/UART_UART.c **** 
 119:.\Generated_Source\PSoC4/UART_UART.c ****             /* Confiuure submode: UART, SmartCard or IrDA */
 120:.\Generated_Source\PSoC4/UART_UART.c ****             UART_UART_CTRL_REG = UART_GET_UART_CTRL_MODE(config->mode);
 121:.\Generated_Source\PSoC4/UART_UART.c **** 
 122:.\Generated_Source\PSoC4/UART_UART.c ****             /* Configure RX direction */
 123:.\Generated_Source\PSoC4/UART_UART.c ****             UART_UART_RX_CTRL_REG = UART_GET_UART_RX_CTRL_MODE(config->stopBits)              |
 124:.\Generated_Source\PSoC4/UART_UART.c ****                                         UART_GET_UART_RX_CTRL_POLARITY(config->enableInvertedRx)   
 125:.\Generated_Source\PSoC4/UART_UART.c ****                                         UART_GET_UART_RX_CTRL_MP_MODE(config->enableMultiproc)     
 126:.\Generated_Source\PSoC4/UART_UART.c ****                                         UART_GET_UART_RX_CTRL_DROP_ON_PARITY_ERR(config->dropOnPari
 127:.\Generated_Source\PSoC4/UART_UART.c ****                                         UART_GET_UART_RX_CTRL_DROP_ON_FRAME_ERR(config->dropOnFrame
 128:.\Generated_Source\PSoC4/UART_UART.c **** 
 129:.\Generated_Source\PSoC4/UART_UART.c ****             if(UART_UART_PARITY_NONE != config->parity)
 130:.\Generated_Source\PSoC4/UART_UART.c ****             {
 131:.\Generated_Source\PSoC4/UART_UART.c ****                UART_UART_RX_CTRL_REG |= UART_GET_UART_RX_CTRL_PARITY(config->parity) |
 132:.\Generated_Source\PSoC4/UART_UART.c ****                                                     UART_UART_RX_CTRL_PARITY_ENABLED;
 133:.\Generated_Source\PSoC4/UART_UART.c ****             }
 134:.\Generated_Source\PSoC4/UART_UART.c **** 
 135:.\Generated_Source\PSoC4/UART_UART.c ****             UART_RX_CTRL_REG      = UART_GET_RX_CTRL_DATA_WIDTH(config->dataBits)       |
 136:.\Generated_Source\PSoC4/UART_UART.c ****                                                 UART_GET_RX_CTRL_MEDIAN(config->enableMedianFilter)
 137:.\Generated_Source\PSoC4/UART_UART.c ****                                                 UART_GET_UART_RX_CTRL_ENABLED(config->direction);
 138:.\Generated_Source\PSoC4/UART_UART.c **** 
 139:.\Generated_Source\PSoC4/UART_UART.c ****             UART_RX_FIFO_CTRL_REG = UART_GET_RX_FIFO_CTRL_TRIGGER_LEVEL(config->rxTriggerLevel);
 140:.\Generated_Source\PSoC4/UART_UART.c **** 
 141:.\Generated_Source\PSoC4/UART_UART.c ****             /* Configure MP address */
 142:.\Generated_Source\PSoC4/UART_UART.c ****             UART_RX_MATCH_REG     = UART_GET_RX_MATCH_ADDR(config->multiprocAddr) |
 143:.\Generated_Source\PSoC4/UART_UART.c ****                                                 UART_GET_RX_MATCH_MASK(config->multiprocAddrMask);
 144:.\Generated_Source\PSoC4/UART_UART.c **** 
 145:.\Generated_Source\PSoC4/UART_UART.c ****             /* Configure RX direction */
 146:.\Generated_Source\PSoC4/UART_UART.c ****             UART_UART_TX_CTRL_REG = UART_GET_UART_TX_CTRL_MODE(config->stopBits) |
ARM GAS  C:\Users\Steve\AppData\Local\Temp\ccyTshnh.s 			page 4


 147:.\Generated_Source\PSoC4/UART_UART.c ****                                                 UART_GET_UART_TX_CTRL_RETRY_NACK(config->enableRetr
 148:.\Generated_Source\PSoC4/UART_UART.c **** 
 149:.\Generated_Source\PSoC4/UART_UART.c ****             if(UART_UART_PARITY_NONE != config->parity)
 150:.\Generated_Source\PSoC4/UART_UART.c ****             {
 151:.\Generated_Source\PSoC4/UART_UART.c ****                UART_UART_TX_CTRL_REG |= UART_GET_UART_TX_CTRL_PARITY(config->parity) |
 152:.\Generated_Source\PSoC4/UART_UART.c ****                                                     UART_UART_TX_CTRL_PARITY_ENABLED;
 153:.\Generated_Source\PSoC4/UART_UART.c ****             }
 154:.\Generated_Source\PSoC4/UART_UART.c **** 
 155:.\Generated_Source\PSoC4/UART_UART.c ****             UART_TX_CTRL_REG      = UART_GET_TX_CTRL_DATA_WIDTH(config->dataBits)    |
 156:.\Generated_Source\PSoC4/UART_UART.c ****                                                 UART_GET_UART_TX_CTRL_ENABLED(config->direction);
 157:.\Generated_Source\PSoC4/UART_UART.c **** 
 158:.\Generated_Source\PSoC4/UART_UART.c ****             UART_TX_FIFO_CTRL_REG = UART_GET_TX_FIFO_CTRL_TRIGGER_LEVEL(config->txTriggerLevel);
 159:.\Generated_Source\PSoC4/UART_UART.c **** 
 160:.\Generated_Source\PSoC4/UART_UART.c **** 
 161:.\Generated_Source\PSoC4/UART_UART.c ****             /* Configure WAKE interrupt */
 162:.\Generated_Source\PSoC4/UART_UART.c ****             #if(UART_UART_RX_WAKEUP_IRQ)
 163:.\Generated_Source\PSoC4/UART_UART.c ****                 UART_RX_WAKEUP_IRQ_StartEx(&UART_UART_WAKEUP_ISR);
 164:.\Generated_Source\PSoC4/UART_UART.c ****                 UART_RX_WAKEUP_IRQ_Disable();
 165:.\Generated_Source\PSoC4/UART_UART.c ****             #endif /* (UART_UART_RX_WAKEUP_IRQ) */
 166:.\Generated_Source\PSoC4/UART_UART.c **** 
 167:.\Generated_Source\PSoC4/UART_UART.c ****             /* Configure interrupt with UART handler */
 168:.\Generated_Source\PSoC4/UART_UART.c ****             UART_SCB_IRQ_Disable();
 169:.\Generated_Source\PSoC4/UART_UART.c ****             UART_SCB_IRQ_SetVector(&UART_SPI_UART_ISR);
 170:.\Generated_Source\PSoC4/UART_UART.c ****             UART_SCB_IRQ_SetPriority((uint8)UART_SCB_IRQ_INTC_PRIOR_NUMBER);
 171:.\Generated_Source\PSoC4/UART_UART.c **** 
 172:.\Generated_Source\PSoC4/UART_UART.c ****             /* Configure interrupt sources */
 173:.\Generated_Source\PSoC4/UART_UART.c ****             UART_INTR_I2C_EC_MASK_REG = UART_NO_INTR_SOURCES;
 174:.\Generated_Source\PSoC4/UART_UART.c ****             UART_INTR_SPI_EC_MASK_REG = UART_NO_INTR_SOURCES;
 175:.\Generated_Source\PSoC4/UART_UART.c ****             UART_INTR_SLAVE_MASK_REG  = UART_NO_INTR_SOURCES;
 176:.\Generated_Source\PSoC4/UART_UART.c ****             UART_INTR_MASTER_MASK_REG = UART_NO_INTR_SOURCES;
 177:.\Generated_Source\PSoC4/UART_UART.c ****             UART_INTR_RX_MASK_REG     = config->rxInterruptMask;
 178:.\Generated_Source\PSoC4/UART_UART.c ****             UART_INTR_TX_MASK_REG     = config->txInterruptMask;
 179:.\Generated_Source\PSoC4/UART_UART.c **** 
 180:.\Generated_Source\PSoC4/UART_UART.c ****             /* Clear RX buffer indexes */
 181:.\Generated_Source\PSoC4/UART_UART.c ****             UART_rxBufferHead     = 0u;
 182:.\Generated_Source\PSoC4/UART_UART.c ****             UART_rxBufferTail     = 0u;
 183:.\Generated_Source\PSoC4/UART_UART.c ****             UART_rxBufferOverflow = 0u;
 184:.\Generated_Source\PSoC4/UART_UART.c **** 
 185:.\Generated_Source\PSoC4/UART_UART.c ****             /* Clrea TX buffer indexes */
 186:.\Generated_Source\PSoC4/UART_UART.c ****             UART_txBufferHead = 0u;
 187:.\Generated_Source\PSoC4/UART_UART.c ****             UART_txBufferTail = 0u;
 188:.\Generated_Source\PSoC4/UART_UART.c ****         }
 189:.\Generated_Source\PSoC4/UART_UART.c ****     }
 190:.\Generated_Source\PSoC4/UART_UART.c **** 
 191:.\Generated_Source\PSoC4/UART_UART.c **** #else
 192:.\Generated_Source\PSoC4/UART_UART.c **** 
 193:.\Generated_Source\PSoC4/UART_UART.c ****     /*******************************************************************************
 194:.\Generated_Source\PSoC4/UART_UART.c ****     * Function Name: UART_UartInit
 195:.\Generated_Source\PSoC4/UART_UART.c ****     ********************************************************************************
 196:.\Generated_Source\PSoC4/UART_UART.c ****     *
 197:.\Generated_Source\PSoC4/UART_UART.c ****     * Summary:
 198:.\Generated_Source\PSoC4/UART_UART.c ****     *  Configures the SCB for SPI operation.
 199:.\Generated_Source\PSoC4/UART_UART.c ****     *
 200:.\Generated_Source\PSoC4/UART_UART.c ****     * Parameters:
 201:.\Generated_Source\PSoC4/UART_UART.c ****     *  None
 202:.\Generated_Source\PSoC4/UART_UART.c ****     *
 203:.\Generated_Source\PSoC4/UART_UART.c ****     * Return:
ARM GAS  C:\Users\Steve\AppData\Local\Temp\ccyTshnh.s 			page 5


 204:.\Generated_Source\PSoC4/UART_UART.c ****     *  None
 205:.\Generated_Source\PSoC4/UART_UART.c ****     *
 206:.\Generated_Source\PSoC4/UART_UART.c ****     *******************************************************************************/
 207:.\Generated_Source\PSoC4/UART_UART.c ****     void UART_UartInit(void)
 208:.\Generated_Source\PSoC4/UART_UART.c ****     {
  26              		.loc 1 208 0
  27              		.cfi_startproc
 209:.\Generated_Source\PSoC4/UART_UART.c ****         /* Configure UART interface */
 210:.\Generated_Source\PSoC4/UART_UART.c ****         UART_CTRL_REG = UART_UART_DEFAULT_CTRL;
  28              		.loc 1 210 0
  29 0000 124A     		ldr	r2, .L2
  30 0002 134B     		ldr	r3, .L2+4
 211:.\Generated_Source\PSoC4/UART_UART.c **** 
 212:.\Generated_Source\PSoC4/UART_UART.c ****         /* Confiuure submode: UART, SmartCard or IrDA */
 213:.\Generated_Source\PSoC4/UART_UART.c ****         UART_UART_CTRL_REG = UART_UART_DEFAULT_UART_CTRL;
  31              		.loc 1 213 0
  32 0004 1348     		ldr	r0, .L2+8
 208:.\Generated_Source\PSoC4/UART_UART.c ****     {
  33              		.loc 1 208 0
  34 0006 10B5     		push	{r4, lr}
  35              	.LCFI0:
  36              		.cfi_def_cfa_offset 8
  37              		.cfi_offset 4, -8
  38              		.cfi_offset 14, -4
 210:.\Generated_Source\PSoC4/UART_UART.c ****         UART_CTRL_REG = UART_UART_DEFAULT_CTRL;
  39              		.loc 1 210 0
  40 0008 1A60     		str	r2, [r3]
  41              		.loc 1 213 0
  42 000a 0023     		mov	r3, #0
  43 000c 0360     		str	r3, [r0]
 214:.\Generated_Source\PSoC4/UART_UART.c **** 
 215:.\Generated_Source\PSoC4/UART_UART.c ****         /* Configure RX direction */
 216:.\Generated_Source\PSoC4/UART_UART.c ****         UART_UART_RX_CTRL_REG = UART_UART_DEFAULT_UART_RX_CTRL;
 217:.\Generated_Source\PSoC4/UART_UART.c ****         UART_RX_CTRL_REG      = UART_UART_DEFAULT_RX_CTRL;
  44              		.loc 1 217 0
  45 000e 124A     		ldr	r2, .L2+12
 216:.\Generated_Source\PSoC4/UART_UART.c ****         UART_UART_RX_CTRL_REG = UART_UART_DEFAULT_UART_RX_CTRL;
  46              		.loc 1 216 0
  47 0010 124C     		ldr	r4, .L2+16
  48              		.loc 1 217 0
  49 0012 1348     		ldr	r0, .L2+20
 216:.\Generated_Source\PSoC4/UART_UART.c ****         UART_UART_RX_CTRL_REG = UART_UART_DEFAULT_UART_RX_CTRL;
  50              		.loc 1 216 0
  51 0014 0121     		mov	r1, #1
  52 0016 2160     		str	r1, [r4]
  53              		.loc 1 217 0
  54 0018 0260     		str	r2, [r0]
 218:.\Generated_Source\PSoC4/UART_UART.c ****         UART_RX_FIFO_CTRL_REG = UART_UART_DEFAULT_RX_FIFO_CTRL;
  55              		.loc 1 218 0
  56 001a 1248     		ldr	r0, .L2+24
  57 001c 0724     		mov	r4, #7
  58 001e 0460     		str	r4, [r0]
 219:.\Generated_Source\PSoC4/UART_UART.c ****         UART_RX_MATCH_REG     = UART_UART_DEFAULT_RX_MATCH_REG;
  59              		.loc 1 219 0
  60 0020 114C     		ldr	r4, .L2+28
 220:.\Generated_Source\PSoC4/UART_UART.c **** 
 221:.\Generated_Source\PSoC4/UART_UART.c ****         /* Configure TX direction */
ARM GAS  C:\Users\Steve\AppData\Local\Temp\ccyTshnh.s 			page 6


 222:.\Generated_Source\PSoC4/UART_UART.c ****         UART_UART_TX_CTRL_REG = UART_UART_DEFAULT_UART_TX_CTRL;
  61              		.loc 1 222 0
  62 0022 1248     		ldr	r0, .L2+32
 219:.\Generated_Source\PSoC4/UART_UART.c ****         UART_RX_MATCH_REG     = UART_UART_DEFAULT_RX_MATCH_REG;
  63              		.loc 1 219 0
  64 0024 2360     		str	r3, [r4]
  65              		.loc 1 222 0
  66 0026 0160     		str	r1, [r0]
 223:.\Generated_Source\PSoC4/UART_UART.c ****         UART_TX_CTRL_REG      = UART_UART_DEFAULT_TX_CTRL;
  67              		.loc 1 223 0
  68 0028 1149     		ldr	r1, .L2+36
 224:.\Generated_Source\PSoC4/UART_UART.c ****         UART_TX_FIFO_CTRL_REG = UART_UART_DEFAULT_TX_FIFO_CTRL;
 225:.\Generated_Source\PSoC4/UART_UART.c **** 
 226:.\Generated_Source\PSoC4/UART_UART.c ****         /* Configure interrupt with UART handler */
 227:.\Generated_Source\PSoC4/UART_UART.c ****         #if(UART_SCB_IRQ_INTERNAL)
 228:.\Generated_Source\PSoC4/UART_UART.c ****             UART_SCB_IRQ_Disable();
 229:.\Generated_Source\PSoC4/UART_UART.c ****             UART_SCB_IRQ_SetVector(&UART_SPI_UART_ISR);
 230:.\Generated_Source\PSoC4/UART_UART.c ****             UART_SCB_IRQ_SetPriority((uint8)UART_SCB_IRQ_INTC_PRIOR_NUMBER);
 231:.\Generated_Source\PSoC4/UART_UART.c ****         #endif /* (UART_SCB_IRQ_INTERNAL) */
 232:.\Generated_Source\PSoC4/UART_UART.c **** 
 233:.\Generated_Source\PSoC4/UART_UART.c ****         /* Configure WAKE interrupt */
 234:.\Generated_Source\PSoC4/UART_UART.c ****         #if(UART_UART_RX_WAKEUP_IRQ)
 235:.\Generated_Source\PSoC4/UART_UART.c ****             UART_RX_WAKEUP_IRQ_StartEx(&UART_UART_WAKEUP_ISR);
 236:.\Generated_Source\PSoC4/UART_UART.c ****             UART_RX_WAKEUP_IRQ_Disable();
 237:.\Generated_Source\PSoC4/UART_UART.c ****         #endif /* (UART_UART_RX_WAKEUP_IRQ) */
 238:.\Generated_Source\PSoC4/UART_UART.c ****         
 239:.\Generated_Source\PSoC4/UART_UART.c ****         /* Configure interrupt sources */
 240:.\Generated_Source\PSoC4/UART_UART.c ****         UART_INTR_I2C_EC_MASK_REG = UART_UART_DEFAULT_INTR_I2C_EC_MASK;
  69              		.loc 1 240 0
  70 002a 124C     		ldr	r4, .L2+40
 223:.\Generated_Source\PSoC4/UART_UART.c ****         UART_TX_CTRL_REG      = UART_UART_DEFAULT_TX_CTRL;
  71              		.loc 1 223 0
  72 002c 0A60     		str	r2, [r1]
 241:.\Generated_Source\PSoC4/UART_UART.c ****         UART_INTR_SPI_EC_MASK_REG = UART_UART_DEFAULT_INTR_SPI_EC_MASK;
  73              		.loc 1 241 0
  74 002e 1248     		ldr	r0, .L2+44
 224:.\Generated_Source\PSoC4/UART_UART.c ****         UART_TX_FIFO_CTRL_REG = UART_UART_DEFAULT_TX_FIFO_CTRL;
  75              		.loc 1 224 0
  76 0030 124A     		ldr	r2, .L2+48
 242:.\Generated_Source\PSoC4/UART_UART.c ****         UART_INTR_SLAVE_MASK_REG  = UART_UART_DEFAULT_INTR_SLAVE_MASK;
  77              		.loc 1 242 0
  78 0032 1349     		ldr	r1, .L2+52
 224:.\Generated_Source\PSoC4/UART_UART.c ****         UART_TX_FIFO_CTRL_REG = UART_UART_DEFAULT_TX_FIFO_CTRL;
  79              		.loc 1 224 0
  80 0034 1360     		str	r3, [r2]
 240:.\Generated_Source\PSoC4/UART_UART.c ****         UART_INTR_I2C_EC_MASK_REG = UART_UART_DEFAULT_INTR_I2C_EC_MASK;
  81              		.loc 1 240 0
  82 0036 2360     		str	r3, [r4]
 243:.\Generated_Source\PSoC4/UART_UART.c ****         UART_INTR_MASTER_MASK_REG = UART_UART_DEFAULT_INTR_MASTER_MASK;
  83              		.loc 1 243 0
  84 0038 124A     		ldr	r2, .L2+56
 241:.\Generated_Source\PSoC4/UART_UART.c ****         UART_INTR_SPI_EC_MASK_REG = UART_UART_DEFAULT_INTR_SPI_EC_MASK;
  85              		.loc 1 241 0
  86 003a 0360     		str	r3, [r0]
 244:.\Generated_Source\PSoC4/UART_UART.c ****         UART_INTR_RX_MASK_REG     = UART_UART_DEFAULT_INTR_RX_MASK;
  87              		.loc 1 244 0
  88 003c 124C     		ldr	r4, .L2+60
ARM GAS  C:\Users\Steve\AppData\Local\Temp\ccyTshnh.s 			page 7


 245:.\Generated_Source\PSoC4/UART_UART.c ****         UART_INTR_TX_MASK_REG     = UART_UART_DEFAULT_INTR_TX_MASK;
  89              		.loc 1 245 0
  90 003e 1348     		ldr	r0, .L2+64
 242:.\Generated_Source\PSoC4/UART_UART.c ****         UART_INTR_SLAVE_MASK_REG  = UART_UART_DEFAULT_INTR_SLAVE_MASK;
  91              		.loc 1 242 0
  92 0040 0B60     		str	r3, [r1]
 246:.\Generated_Source\PSoC4/UART_UART.c **** 
 247:.\Generated_Source\PSoC4/UART_UART.c ****         #if(UART_INTERNAL_RX_SW_BUFFER_CONST)
 248:.\Generated_Source\PSoC4/UART_UART.c ****             UART_rxBufferHead     = 0u;
 249:.\Generated_Source\PSoC4/UART_UART.c ****             UART_rxBufferTail     = 0u;
 250:.\Generated_Source\PSoC4/UART_UART.c ****             UART_rxBufferOverflow = 0u;
 251:.\Generated_Source\PSoC4/UART_UART.c ****         #endif /* (UART_INTERNAL_RX_SW_BUFFER_CONST) */
 252:.\Generated_Source\PSoC4/UART_UART.c **** 
 253:.\Generated_Source\PSoC4/UART_UART.c ****         #if(UART_INTERNAL_TX_SW_BUFFER_CONST)
 254:.\Generated_Source\PSoC4/UART_UART.c ****             UART_txBufferHead = 0u;
 255:.\Generated_Source\PSoC4/UART_UART.c ****             UART_txBufferTail = 0u;
 256:.\Generated_Source\PSoC4/UART_UART.c ****         #endif /* (UART_INTERNAL_TX_SW_BUFFER_CONST) */
 257:.\Generated_Source\PSoC4/UART_UART.c ****     }
  93              		.loc 1 257 0
  94              		@ sp needed for prologue
 243:.\Generated_Source\PSoC4/UART_UART.c ****         UART_INTR_MASTER_MASK_REG = UART_UART_DEFAULT_INTR_MASTER_MASK;
  95              		.loc 1 243 0
  96 0042 1360     		str	r3, [r2]
 244:.\Generated_Source\PSoC4/UART_UART.c ****         UART_INTR_RX_MASK_REG     = UART_UART_DEFAULT_INTR_RX_MASK;
  97              		.loc 1 244 0
  98 0044 2360     		str	r3, [r4]
 245:.\Generated_Source\PSoC4/UART_UART.c ****         UART_INTR_TX_MASK_REG     = UART_UART_DEFAULT_INTR_TX_MASK;
  99              		.loc 1 245 0
 100 0046 0360     		str	r3, [r0]
 101              		.loc 1 257 0
 102 0048 10BD     		pop	{r4, pc}
 103              	.L3:
 104 004a C046     		.align	2
 105              	.L2:
 106 004c 0B000002 		.word	33554443
 107 0050 00000640 		.word	1074135040
 108 0054 40000640 		.word	1074135104
 109 0058 07000080 		.word	-2147483641
 110 005c 48000640 		.word	1074135112
 111 0060 00030640 		.word	1074135808
 112 0064 04030640 		.word	1074135812
 113 0068 10030640 		.word	1074135824
 114 006c 44000640 		.word	1074135108
 115 0070 00020640 		.word	1074135552
 116 0074 880E0640 		.word	1074138760
 117 0078 C80E0640 		.word	1074138824
 118 007c 04020640 		.word	1074135556
 119 0080 480F0640 		.word	1074138952
 120 0084 080F0640 		.word	1074138888
 121 0088 C80F0640 		.word	1074139080
 122 008c 880F0640 		.word	1074139016
 123              		.cfi_endproc
 124              	.LFE0:
 125              		.size	UART_UartInit, .-UART_UartInit
 126              		.section	.text.UART_UartSetRxAddress,"ax",%progbits
 127              		.align	2
 128              		.global	UART_UartSetRxAddress
ARM GAS  C:\Users\Steve\AppData\Local\Temp\ccyTshnh.s 			page 8


 129              		.code	16
 130              		.thumb_func
 131              		.type	UART_UartSetRxAddress, %function
 132              	UART_UartSetRxAddress:
 133              	.LFB1:
 258:.\Generated_Source\PSoC4/UART_UART.c **** 
 259:.\Generated_Source\PSoC4/UART_UART.c **** #endif /* (UART_SCB_MODE_UNCONFIG_CONST_CFG) */
 260:.\Generated_Source\PSoC4/UART_UART.c **** 
 261:.\Generated_Source\PSoC4/UART_UART.c **** 
 262:.\Generated_Source\PSoC4/UART_UART.c **** /*******************************************************************************
 263:.\Generated_Source\PSoC4/UART_UART.c **** * Function Name: UART_UartSetRxAddress
 264:.\Generated_Source\PSoC4/UART_UART.c **** ********************************************************************************
 265:.\Generated_Source\PSoC4/UART_UART.c **** *
 266:.\Generated_Source\PSoC4/UART_UART.c **** * Summary:
 267:.\Generated_Source\PSoC4/UART_UART.c **** *  Sets the hardware detectable receiver address for the UART in Multiprocessor
 268:.\Generated_Source\PSoC4/UART_UART.c **** *  mode.
 269:.\Generated_Source\PSoC4/UART_UART.c **** *
 270:.\Generated_Source\PSoC4/UART_UART.c **** * Parameters:
 271:.\Generated_Source\PSoC4/UART_UART.c **** *  address: Address for hardware address detection.
 272:.\Generated_Source\PSoC4/UART_UART.c **** *
 273:.\Generated_Source\PSoC4/UART_UART.c **** * Return:
 274:.\Generated_Source\PSoC4/UART_UART.c **** *  None
 275:.\Generated_Source\PSoC4/UART_UART.c **** *
 276:.\Generated_Source\PSoC4/UART_UART.c **** *******************************************************************************/
 277:.\Generated_Source\PSoC4/UART_UART.c **** void UART_UartSetRxAddress(uint32 address)
 278:.\Generated_Source\PSoC4/UART_UART.c **** {
 134              		.loc 1 278 0
 135              		.cfi_startproc
 136              	.LVL0:
 279:.\Generated_Source\PSoC4/UART_UART.c ****      uint32 matchReg;
 280:.\Generated_Source\PSoC4/UART_UART.c **** 
 281:.\Generated_Source\PSoC4/UART_UART.c ****     matchReg = UART_RX_MATCH_REG;
 137              		.loc 1 281 0
 138 0000 034B     		ldr	r3, .L5
 282:.\Generated_Source\PSoC4/UART_UART.c **** 
 283:.\Generated_Source\PSoC4/UART_UART.c ****     matchReg &= ((uint32) ~UART_RX_MATCH_ADDR_MASK); /* Clear address bits */
 139              		.loc 1 283 0
 140 0002 FF22     		mov	r2, #255
 281:.\Generated_Source\PSoC4/UART_UART.c ****     matchReg = UART_RX_MATCH_REG;
 141              		.loc 1 281 0
 142 0004 1968     		ldr	r1, [r3]
 143              	.LVL1:
 284:.\Generated_Source\PSoC4/UART_UART.c ****     matchReg |= ((uint32)  (address & UART_RX_MATCH_ADDR_MASK)); /* Set address  */
 285:.\Generated_Source\PSoC4/UART_UART.c **** 
 286:.\Generated_Source\PSoC4/UART_UART.c ****     UART_RX_MATCH_REG = matchReg;
 287:.\Generated_Source\PSoC4/UART_UART.c **** }
 144              		.loc 1 287 0
 145              		@ sp needed for prologue
 283:.\Generated_Source\PSoC4/UART_UART.c ****     matchReg &= ((uint32) ~UART_RX_MATCH_ADDR_MASK); /* Clear address bits */
 146              		.loc 1 283 0
 147 0006 9143     		bic	r1, r2
 148              	.LVL2:
 284:.\Generated_Source\PSoC4/UART_UART.c ****     matchReg |= ((uint32)  (address & UART_RX_MATCH_ADDR_MASK)); /* Set address  */
 149              		.loc 1 284 0
 150 0008 0240     		and	r2, r0
 151 000a 0A43     		orr	r2, r1
 152              	.LVL3:
ARM GAS  C:\Users\Steve\AppData\Local\Temp\ccyTshnh.s 			page 9


 286:.\Generated_Source\PSoC4/UART_UART.c ****     UART_RX_MATCH_REG = matchReg;
 153              		.loc 1 286 0
 154 000c 1A60     		str	r2, [r3]
 155              		.loc 1 287 0
 156 000e 7047     		bx	lr
 157              	.L6:
 158              		.align	2
 159              	.L5:
 160 0010 10030640 		.word	1074135824
 161              		.cfi_endproc
 162              	.LFE1:
 163              		.size	UART_UartSetRxAddress, .-UART_UartSetRxAddress
 164              		.section	.text.UART_UartSetRxAddressMask,"ax",%progbits
 165              		.align	2
 166              		.global	UART_UartSetRxAddressMask
 167              		.code	16
 168              		.thumb_func
 169              		.type	UART_UartSetRxAddressMask, %function
 170              	UART_UartSetRxAddressMask:
 171              	.LFB2:
 288:.\Generated_Source\PSoC4/UART_UART.c **** 
 289:.\Generated_Source\PSoC4/UART_UART.c **** 
 290:.\Generated_Source\PSoC4/UART_UART.c **** /*******************************************************************************
 291:.\Generated_Source\PSoC4/UART_UART.c **** * Function Name: UART_UartSetRxAddressMask
 292:.\Generated_Source\PSoC4/UART_UART.c **** ********************************************************************************
 293:.\Generated_Source\PSoC4/UART_UART.c **** *
 294:.\Generated_Source\PSoC4/UART_UART.c **** * Summary:
 295:.\Generated_Source\PSoC4/UART_UART.c **** *  Sets the hardware address mask for the UART in Multiprocessor mode.
 296:.\Generated_Source\PSoC4/UART_UART.c **** *
 297:.\Generated_Source\PSoC4/UART_UART.c **** * Parameters:
 298:.\Generated_Source\PSoC4/UART_UART.c **** *  addressMask: Address mask.
 299:.\Generated_Source\PSoC4/UART_UART.c **** *   0 - address bit does not care while comparison.
 300:.\Generated_Source\PSoC4/UART_UART.c **** *   1 - address bit is significant while comparison.
 301:.\Generated_Source\PSoC4/UART_UART.c **** *
 302:.\Generated_Source\PSoC4/UART_UART.c **** * Return:
 303:.\Generated_Source\PSoC4/UART_UART.c **** *  None
 304:.\Generated_Source\PSoC4/UART_UART.c **** *
 305:.\Generated_Source\PSoC4/UART_UART.c **** *******************************************************************************/
 306:.\Generated_Source\PSoC4/UART_UART.c **** void UART_UartSetRxAddressMask(uint32 addressMask)
 307:.\Generated_Source\PSoC4/UART_UART.c **** {
 172              		.loc 1 307 0
 173              		.cfi_startproc
 174              	.LVL4:
 308:.\Generated_Source\PSoC4/UART_UART.c ****     uint32 matchReg;
 309:.\Generated_Source\PSoC4/UART_UART.c **** 
 310:.\Generated_Source\PSoC4/UART_UART.c ****     matchReg = UART_RX_MATCH_REG;
 175              		.loc 1 310 0
 176 0000 034B     		ldr	r3, .L8
 311:.\Generated_Source\PSoC4/UART_UART.c **** 
 312:.\Generated_Source\PSoC4/UART_UART.c ****     matchReg &= ((uint32) ~UART_RX_MATCH_MASK_MASK); /* Clear address mask bits */
 177              		.loc 1 312 0
 178 0002 044A     		ldr	r2, .L8+4
 310:.\Generated_Source\PSoC4/UART_UART.c ****     matchReg = UART_RX_MATCH_REG;
 179              		.loc 1 310 0
 180 0004 1968     		ldr	r1, [r3]
 181              	.LVL5:
 313:.\Generated_Source\PSoC4/UART_UART.c ****     matchReg |= ((uint32) (addressMask << UART_RX_MATCH_MASK_POS));
ARM GAS  C:\Users\Steve\AppData\Local\Temp\ccyTshnh.s 			page 10


 182              		.loc 1 313 0
 183 0006 0004     		lsl	r0, r0, #16
 184              	.LVL6:
 312:.\Generated_Source\PSoC4/UART_UART.c ****     matchReg &= ((uint32) ~UART_RX_MATCH_MASK_MASK); /* Clear address mask bits */
 185              		.loc 1 312 0
 186 0008 0A40     		and	r2, r1
 187              	.LVL7:
 188              		.loc 1 313 0
 189 000a 1043     		orr	r0, r2
 190              	.LVL8:
 314:.\Generated_Source\PSoC4/UART_UART.c **** 
 315:.\Generated_Source\PSoC4/UART_UART.c ****     UART_RX_MATCH_REG = matchReg;
 191              		.loc 1 315 0
 192 000c 1860     		str	r0, [r3]
 316:.\Generated_Source\PSoC4/UART_UART.c **** }
 193              		.loc 1 316 0
 194              		@ sp needed for prologue
 195 000e 7047     		bx	lr
 196              	.L9:
 197              		.align	2
 198              	.L8:
 199 0010 10030640 		.word	1074135824
 200 0014 FFFF00FF 		.word	-16711681
 201              		.cfi_endproc
 202              	.LFE2:
 203              		.size	UART_UartSetRxAddressMask, .-UART_UartSetRxAddressMask
 204              		.section	.text.UART_UartGetChar,"ax",%progbits
 205              		.align	2
 206              		.global	UART_UartGetChar
 207              		.code	16
 208              		.thumb_func
 209              		.type	UART_UartGetChar, %function
 210              	UART_UartGetChar:
 211              	.LFB3:
 317:.\Generated_Source\PSoC4/UART_UART.c **** 
 318:.\Generated_Source\PSoC4/UART_UART.c **** 
 319:.\Generated_Source\PSoC4/UART_UART.c **** #if(UART_UART_RX_DIRECTION)
 320:.\Generated_Source\PSoC4/UART_UART.c ****     /*******************************************************************************
 321:.\Generated_Source\PSoC4/UART_UART.c ****     * Function Name: UART_UartGetChar
 322:.\Generated_Source\PSoC4/UART_UART.c ****     ********************************************************************************
 323:.\Generated_Source\PSoC4/UART_UART.c ****     *
 324:.\Generated_Source\PSoC4/UART_UART.c ****     * Summary:
 325:.\Generated_Source\PSoC4/UART_UART.c ****     *  Retrieves next data element from receive buffer.
 326:.\Generated_Source\PSoC4/UART_UART.c ****     *  This function is designed for ASCII characters and returns a char
 327:.\Generated_Source\PSoC4/UART_UART.c ****     *  where 1 to 255 is valid characters and 0 indicates an error occurred or
 328:.\Generated_Source\PSoC4/UART_UART.c ****     *  no data is present.
 329:.\Generated_Source\PSoC4/UART_UART.c ****     *  RX software buffer disabled: returns data element retrieved from RX FIFO.
 330:.\Generated_Source\PSoC4/UART_UART.c ****     *  Undefined data will be returned if the RX FIFO is empty.
 331:.\Generated_Source\PSoC4/UART_UART.c ****     *  RX software buffer enabled: Returns data element from the software receive
 332:.\Generated_Source\PSoC4/UART_UART.c ****     *  buffer.
 333:.\Generated_Source\PSoC4/UART_UART.c ****     *
 334:.\Generated_Source\PSoC4/UART_UART.c ****     * Parameters:
 335:.\Generated_Source\PSoC4/UART_UART.c ****     *  None
 336:.\Generated_Source\PSoC4/UART_UART.c ****     *
 337:.\Generated_Source\PSoC4/UART_UART.c ****     * Return:
 338:.\Generated_Source\PSoC4/UART_UART.c ****     *  Next data element from the receive buffer.
 339:.\Generated_Source\PSoC4/UART_UART.c ****     *  ASCII character values from 1 to 255 are valid.
ARM GAS  C:\Users\Steve\AppData\Local\Temp\ccyTshnh.s 			page 11


 340:.\Generated_Source\PSoC4/UART_UART.c ****     *  A returned zero signifies an error condition or no data available.
 341:.\Generated_Source\PSoC4/UART_UART.c ****     *
 342:.\Generated_Source\PSoC4/UART_UART.c ****     *******************************************************************************/
 343:.\Generated_Source\PSoC4/UART_UART.c ****     uint32 UART_UartGetChar(void)
 344:.\Generated_Source\PSoC4/UART_UART.c ****     {
 212              		.loc 1 344 0
 213              		.cfi_startproc
 214              	.LVL9:
 215 0000 08B5     		push	{r3, lr}
 216              	.LCFI1:
 217              		.cfi_def_cfa_offset 8
 218              		.cfi_offset 3, -8
 219              		.cfi_offset 14, -4
 345:.\Generated_Source\PSoC4/UART_UART.c ****         uint32 rxData = 0u;
 346:.\Generated_Source\PSoC4/UART_UART.c **** 
 347:.\Generated_Source\PSoC4/UART_UART.c ****         /* Read data only if there is data to read */
 348:.\Generated_Source\PSoC4/UART_UART.c ****         if(0u != UART_SpiUartGetRxBufferSize())
 220              		.loc 1 348 0
 221 0002 FFF7FEFF 		bl	UART_SpiUartGetRxBufferSize
 222              	.LVL10:
 223 0006 031C     		mov	r3, r0
 345:.\Generated_Source\PSoC4/UART_UART.c ****         uint32 rxData = 0u;
 224              		.loc 1 345 0
 225 0008 0020     		mov	r0, #0
 226              		.loc 1 348 0
 227 000a 002B     		cmp	r3, #0
 228 000c 08D1     		bne	.L19
 229              	.LVL11:
 230              	.L11:
 349:.\Generated_Source\PSoC4/UART_UART.c ****         {
 350:.\Generated_Source\PSoC4/UART_UART.c ****             rxData = UART_SpiUartReadRxData();
 351:.\Generated_Source\PSoC4/UART_UART.c ****         }
 352:.\Generated_Source\PSoC4/UART_UART.c **** 
 353:.\Generated_Source\PSoC4/UART_UART.c ****         if(UART_CHECK_INTR_RX(UART_INTR_RX_ERR))
 231              		.loc 1 353 0
 232 000e 064B     		ldr	r3, .L20
 233 0010 D822     		mov	r2, #216
 234 0012 1968     		ldr	r1, [r3]
 235 0014 9200     		lsl	r2, r2, #2
 236 0016 1142     		tst	r1, r2
 237 0018 01D0     		beq	.L12
 238              	.LVL12:
 354:.\Generated_Source\PSoC4/UART_UART.c ****         {
 355:.\Generated_Source\PSoC4/UART_UART.c ****             rxData = 0u; /* Error occured: return zero */
 356:.\Generated_Source\PSoC4/UART_UART.c ****             UART_ClearRxInterruptSource(UART_INTR_RX_ERR);
 239              		.loc 1 356 0
 240 001a 1A60     		str	r2, [r3]
 355:.\Generated_Source\PSoC4/UART_UART.c ****             rxData = 0u; /* Error occured: return zero */
 241              		.loc 1 355 0
 242 001c 0020     		mov	r0, #0
 243              	.LVL13:
 244              	.L12:
 357:.\Generated_Source\PSoC4/UART_UART.c ****         }
 358:.\Generated_Source\PSoC4/UART_UART.c **** 
 359:.\Generated_Source\PSoC4/UART_UART.c ****         return(rxData);
 360:.\Generated_Source\PSoC4/UART_UART.c ****     }
 245              		.loc 1 360 0
ARM GAS  C:\Users\Steve\AppData\Local\Temp\ccyTshnh.s 			page 12


 246              		@ sp needed for prologue
 247 001e 08BD     		pop	{r3, pc}
 248              	.LVL14:
 249              	.L19:
 350:.\Generated_Source\PSoC4/UART_UART.c ****             rxData = UART_SpiUartReadRxData();
 250              		.loc 1 350 0
 251 0020 FFF7FEFF 		bl	UART_SpiUartReadRxData
 252              	.LVL15:
 253 0024 F3E7     		b	.L11
 254              	.L21:
 255 0026 C046     		.align	2
 256              	.L20:
 257 0028 C00F0640 		.word	1074139072
 258              		.cfi_endproc
 259              	.LFE3:
 260              		.size	UART_UartGetChar, .-UART_UartGetChar
 261              		.section	.text.UART_UartGetByte,"ax",%progbits
 262              		.align	2
 263              		.global	UART_UartGetByte
 264              		.code	16
 265              		.thumb_func
 266              		.type	UART_UartGetByte, %function
 267              	UART_UartGetByte:
 268              	.LFB4:
 361:.\Generated_Source\PSoC4/UART_UART.c **** 
 362:.\Generated_Source\PSoC4/UART_UART.c **** 
 363:.\Generated_Source\PSoC4/UART_UART.c ****     /*******************************************************************************
 364:.\Generated_Source\PSoC4/UART_UART.c ****     * Function Name: UART_UartGetByte
 365:.\Generated_Source\PSoC4/UART_UART.c ****     ********************************************************************************
 366:.\Generated_Source\PSoC4/UART_UART.c ****     *
 367:.\Generated_Source\PSoC4/UART_UART.c ****     * Summary:
 368:.\Generated_Source\PSoC4/UART_UART.c ****     *  Retrieves next data element from the receive buffer, returns received byte
 369:.\Generated_Source\PSoC4/UART_UART.c ****     *  and error condition.
 370:.\Generated_Source\PSoC4/UART_UART.c ****     *  RX software buffer disabled: Returns data element retrieved from RX FIFO.
 371:.\Generated_Source\PSoC4/UART_UART.c ****     *  Undefined data will be returned if the RX FIFO is empty.
 372:.\Generated_Source\PSoC4/UART_UART.c ****     *  RX software buffer enabled: Returns data element from the software receive
 373:.\Generated_Source\PSoC4/UART_UART.c ****     *  buffer.
 374:.\Generated_Source\PSoC4/UART_UART.c ****     *
 375:.\Generated_Source\PSoC4/UART_UART.c ****     * Parameters:
 376:.\Generated_Source\PSoC4/UART_UART.c ****     *  None
 377:.\Generated_Source\PSoC4/UART_UART.c ****     *
 378:.\Generated_Source\PSoC4/UART_UART.c ****     * Return:
 379:.\Generated_Source\PSoC4/UART_UART.c ****     *  Bits 15-8 contains status and bits 7-0 contains the next data element from
 380:.\Generated_Source\PSoC4/UART_UART.c ****     *  receive buffer. If the bits 15-8 are nonzero, an error has occurred.
 381:.\Generated_Source\PSoC4/UART_UART.c ****     *
 382:.\Generated_Source\PSoC4/UART_UART.c ****     *******************************************************************************/
 383:.\Generated_Source\PSoC4/UART_UART.c ****     uint32 UART_UartGetByte(void)
 384:.\Generated_Source\PSoC4/UART_UART.c ****     {
 269              		.loc 1 384 0
 270              		.cfi_startproc
 271 0000 10B5     		push	{r4, lr}
 272              	.LCFI2:
 273              		.cfi_def_cfa_offset 8
 274              		.cfi_offset 4, -8
 275              		.cfi_offset 14, -4
 385:.\Generated_Source\PSoC4/UART_UART.c ****         uint32 rxData;
 386:.\Generated_Source\PSoC4/UART_UART.c ****         uint32 tmpStatus;
ARM GAS  C:\Users\Steve\AppData\Local\Temp\ccyTshnh.s 			page 13


 387:.\Generated_Source\PSoC4/UART_UART.c ****         uint32 intSourceMask;
 388:.\Generated_Source\PSoC4/UART_UART.c **** 
 389:.\Generated_Source\PSoC4/UART_UART.c ****         intSourceMask = UART_SpiUartDisableIntRx();
 276              		.loc 1 389 0
 277 0002 FFF7FEFF 		bl	UART_SpiUartDisableIntRx
 278              	.LVL16:
 279 0006 041C     		mov	r4, r0
 280              	.LVL17:
 390:.\Generated_Source\PSoC4/UART_UART.c **** 
 391:.\Generated_Source\PSoC4/UART_UART.c ****         if(0u != UART_SpiUartGetRxBufferSize())
 281              		.loc 1 391 0
 282 0008 FFF7FEFF 		bl	UART_SpiUartGetRxBufferSize
 283              	.LVL18:
 284 000c 0028     		cmp	r0, #0
 285 000e 0CD1     		bne	.L25
 392:.\Generated_Source\PSoC4/UART_UART.c ****         {
 393:.\Generated_Source\PSoC4/UART_UART.c ****              /*
 394:.\Generated_Source\PSoC4/UART_UART.c ****              * Enable interrupt to receive more bytes: at least one byte is in
 395:.\Generated_Source\PSoC4/UART_UART.c ****              * buffer.
 396:.\Generated_Source\PSoC4/UART_UART.c ****              */
 397:.\Generated_Source\PSoC4/UART_UART.c ****             UART_SpiUartEnableIntRx(intSourceMask);
 398:.\Generated_Source\PSoC4/UART_UART.c **** 
 399:.\Generated_Source\PSoC4/UART_UART.c ****             /* Get received byte */
 400:.\Generated_Source\PSoC4/UART_UART.c ****             rxData = UART_SpiUartReadRxData();
 401:.\Generated_Source\PSoC4/UART_UART.c ****         }
 402:.\Generated_Source\PSoC4/UART_UART.c ****         else
 403:.\Generated_Source\PSoC4/UART_UART.c ****         {
 404:.\Generated_Source\PSoC4/UART_UART.c ****             /*
 405:.\Generated_Source\PSoC4/UART_UART.c ****             * Read byte directly from RX FIFO: the underflow is raised in case
 406:.\Generated_Source\PSoC4/UART_UART.c ****             * of empty. In other case the first received byte will be read.
 407:.\Generated_Source\PSoC4/UART_UART.c ****             */
 408:.\Generated_Source\PSoC4/UART_UART.c ****             rxData = UART_RX_FIFO_RD_REG;
 286              		.loc 1 408 0
 287 0010 084B     		ldr	r3, .L26
 409:.\Generated_Source\PSoC4/UART_UART.c **** 
 410:.\Generated_Source\PSoC4/UART_UART.c ****             /*
 411:.\Generated_Source\PSoC4/UART_UART.c ****             * Enable interrupt to receive more bytes.
 412:.\Generated_Source\PSoC4/UART_UART.c ****             * The RX_NOT_EMPTY interrupt is cleared by interrupt routine in case
 413:.\Generated_Source\PSoC4/UART_UART.c ****             * byte was received and read above.
 414:.\Generated_Source\PSoC4/UART_UART.c ****             */
 415:.\Generated_Source\PSoC4/UART_UART.c ****             UART_SpiUartEnableIntRx(intSourceMask);
 288              		.loc 1 415 0
 289 0012 0949     		ldr	r1, .L26+4
 408:.\Generated_Source\PSoC4/UART_UART.c ****             rxData = UART_RX_FIFO_RD_REG;
 290              		.loc 1 408 0
 291 0014 1868     		ldr	r0, [r3]
 292              	.LVL19:
 293              		.loc 1 415 0
 294 0016 0C60     		str	r4, [r1]
 295              	.L24:
 416:.\Generated_Source\PSoC4/UART_UART.c ****         }
 417:.\Generated_Source\PSoC4/UART_UART.c **** 
 418:.\Generated_Source\PSoC4/UART_UART.c ****         /* Get and clear RX error mask */
 419:.\Generated_Source\PSoC4/UART_UART.c ****         tmpStatus = (UART_GetRxInterruptSource() & UART_INTR_RX_ERR);
 296              		.loc 1 419 0
 297 0018 084A     		ldr	r2, .L26+8
 420:.\Generated_Source\PSoC4/UART_UART.c ****         UART_ClearRxInterruptSource(UART_INTR_RX_ERR);
ARM GAS  C:\Users\Steve\AppData\Local\Temp\ccyTshnh.s 			page 14


 298              		.loc 1 420 0
 299 001a D823     		mov	r3, #216
 419:.\Generated_Source\PSoC4/UART_UART.c ****         tmpStatus = (UART_GetRxInterruptSource() & UART_INTR_RX_ERR);
 300              		.loc 1 419 0
 301 001c 1468     		ldr	r4, [r2]
 302              	.LVL20:
 303              		.loc 1 420 0
 304 001e 9900     		lsl	r1, r3, #2
 305 0020 1160     		str	r1, [r2]
 306              	.LVL21:
 419:.\Generated_Source\PSoC4/UART_UART.c ****         tmpStatus = (UART_GetRxInterruptSource() & UART_INTR_RX_ERR);
 307              		.loc 1 419 0
 308 0022 2140     		and	r1, r4
 421:.\Generated_Source\PSoC4/UART_UART.c **** 
 422:.\Generated_Source\PSoC4/UART_UART.c ****         /*
 423:.\Generated_Source\PSoC4/UART_UART.c ****         * Put together data and error status:
 424:.\Generated_Source\PSoC4/UART_UART.c ****         * MP mode and accept address: the 9th bit is set to notify mark.
 425:.\Generated_Source\PSoC4/UART_UART.c ****         */
 426:.\Generated_Source\PSoC4/UART_UART.c ****         rxData |= ((uint32) (tmpStatus << 8u));
 309              		.loc 1 426 0
 310 0024 0A02     		lsl	r2, r1, #8
 311 0026 1043     		orr	r0, r2
 312              	.LVL22:
 427:.\Generated_Source\PSoC4/UART_UART.c **** 
 428:.\Generated_Source\PSoC4/UART_UART.c ****         return(rxData);
 429:.\Generated_Source\PSoC4/UART_UART.c ****     }
 313              		.loc 1 429 0
 314              		@ sp needed for prologue
 315              	.LVL23:
 316 0028 10BD     		pop	{r4, pc}
 317              	.LVL24:
 318              	.L25:
 397:.\Generated_Source\PSoC4/UART_UART.c ****             UART_SpiUartEnableIntRx(intSourceMask);
 319              		.loc 1 397 0
 320 002a 0348     		ldr	r0, .L26+4
 321 002c 0460     		str	r4, [r0]
 400:.\Generated_Source\PSoC4/UART_UART.c ****             rxData = UART_SpiUartReadRxData();
 322              		.loc 1 400 0
 323 002e FFF7FEFF 		bl	UART_SpiUartReadRxData
 324              	.LVL25:
 325 0032 F1E7     		b	.L24
 326              	.L27:
 327              		.align	2
 328              	.L26:
 329 0034 40030640 		.word	1074135872
 330 0038 C80F0640 		.word	1074139080
 331 003c C00F0640 		.word	1074139072
 332              		.cfi_endproc
 333              	.LFE4:
 334              		.size	UART_UartGetByte, .-UART_UartGetByte
 335              		.section	.text.UART_UartPutString,"ax",%progbits
 336              		.align	2
 337              		.global	UART_UartPutString
 338              		.code	16
 339              		.thumb_func
 340              		.type	UART_UartPutString, %function
 341              	UART_UartPutString:
ARM GAS  C:\Users\Steve\AppData\Local\Temp\ccyTshnh.s 			page 15


 342              	.LFB5:
 430:.\Generated_Source\PSoC4/UART_UART.c **** 
 431:.\Generated_Source\PSoC4/UART_UART.c **** #endif /* (UART_UART_RX_DIRECTION) */
 432:.\Generated_Source\PSoC4/UART_UART.c **** 
 433:.\Generated_Source\PSoC4/UART_UART.c **** 
 434:.\Generated_Source\PSoC4/UART_UART.c **** #if(UART_UART_TX_DIRECTION)
 435:.\Generated_Source\PSoC4/UART_UART.c ****     /*******************************************************************************
 436:.\Generated_Source\PSoC4/UART_UART.c ****     * Function Name: UART_UartPutString
 437:.\Generated_Source\PSoC4/UART_UART.c ****     ********************************************************************************
 438:.\Generated_Source\PSoC4/UART_UART.c ****     *
 439:.\Generated_Source\PSoC4/UART_UART.c ****     * Summary:
 440:.\Generated_Source\PSoC4/UART_UART.c ****     *  Places a NULL terminated string in the transmit buffer to be sent at the
 441:.\Generated_Source\PSoC4/UART_UART.c ****     *  next available bus time.
 442:.\Generated_Source\PSoC4/UART_UART.c ****     *  This function is blocking and waits until there is a space available to put
 443:.\Generated_Source\PSoC4/UART_UART.c ****     *  all requested data in transmit buffer.
 444:.\Generated_Source\PSoC4/UART_UART.c ****     *
 445:.\Generated_Source\PSoC4/UART_UART.c ****     * Parameters:
 446:.\Generated_Source\PSoC4/UART_UART.c ****     *  string: pointer to the null terminated string array to be placed in the
 447:.\Generated_Source\PSoC4/UART_UART.c ****     *          transmit buffer.
 448:.\Generated_Source\PSoC4/UART_UART.c ****     *
 449:.\Generated_Source\PSoC4/UART_UART.c ****     * Return:
 450:.\Generated_Source\PSoC4/UART_UART.c ****     *  None
 451:.\Generated_Source\PSoC4/UART_UART.c ****     *
 452:.\Generated_Source\PSoC4/UART_UART.c ****     *******************************************************************************/
 453:.\Generated_Source\PSoC4/UART_UART.c ****     void UART_UartPutString(const char8 string[])
 454:.\Generated_Source\PSoC4/UART_UART.c ****     {
 343              		.loc 1 454 0
 344              		.cfi_startproc
 345              	.LVL26:
 346 0000 10B5     		push	{r4, lr}
 347              	.LCFI3:
 348              		.cfi_def_cfa_offset 8
 349              		.cfi_offset 4, -8
 350              		.cfi_offset 14, -4
 351              		.loc 1 454 0
 352 0002 041C     		mov	r4, r0
 455:.\Generated_Source\PSoC4/UART_UART.c ****         uint32 bufIndex;
 456:.\Generated_Source\PSoC4/UART_UART.c **** 
 457:.\Generated_Source\PSoC4/UART_UART.c ****         bufIndex = 0u;
 458:.\Generated_Source\PSoC4/UART_UART.c **** 
 459:.\Generated_Source\PSoC4/UART_UART.c ****         /* Blocks the control flow until all data will be sent */
 460:.\Generated_Source\PSoC4/UART_UART.c ****         while(string[bufIndex] != ((char8) 0))
 353              		.loc 1 460 0
 354 0004 0078     		ldrb	r0, [r0]
 355              	.LVL27:
 453:.\Generated_Source\PSoC4/UART_UART.c ****     void UART_UartPutString(const char8 string[])
 356              		.loc 1 453 0
 357 0006 0134     		add	r4, r4, #1
 358              	.LVL28:
 359              		.loc 1 460 0
 360 0008 0028     		cmp	r0, #0
 361 000a 06D0     		beq	.L28
 362              	.LVL29:
 363              	.L32:
 364 000c 0134     		add	r4, r4, #1
 461:.\Generated_Source\PSoC4/UART_UART.c ****         {
 462:.\Generated_Source\PSoC4/UART_UART.c ****             UART_UartPutChar((uint32) string[bufIndex]);
ARM GAS  C:\Users\Steve\AppData\Local\Temp\ccyTshnh.s 			page 16


 365              		.loc 1 462 0
 366 000e FFF7FEFF 		bl	UART_SpiUartWriteTxData
 367              	.LVL30:
 453:.\Generated_Source\PSoC4/UART_UART.c ****     void UART_UartPutString(const char8 string[])
 368              		.loc 1 453 0
 369 0012 631E     		sub	r3, r4, #1
 460:.\Generated_Source\PSoC4/UART_UART.c ****         while(string[bufIndex] != ((char8) 0))
 370              		.loc 1 460 0
 371 0014 1878     		ldrb	r0, [r3]
 372 0016 0028     		cmp	r0, #0
 373 0018 F8D1     		bne	.L32
 374              	.L28:
 463:.\Generated_Source\PSoC4/UART_UART.c ****             bufIndex++;
 464:.\Generated_Source\PSoC4/UART_UART.c ****         }
 465:.\Generated_Source\PSoC4/UART_UART.c ****     }
 375              		.loc 1 465 0
 376              		@ sp needed for prologue
 377 001a 10BD     		pop	{r4, pc}
 378              		.cfi_endproc
 379              	.LFE5:
 380              		.size	UART_UartPutString, .-UART_UartPutString
 381              		.section	.text.UART_UartPutCRLF,"ax",%progbits
 382              		.align	2
 383              		.global	UART_UartPutCRLF
 384              		.code	16
 385              		.thumb_func
 386              		.type	UART_UartPutCRLF, %function
 387              	UART_UartPutCRLF:
 388              	.LFB6:
 466:.\Generated_Source\PSoC4/UART_UART.c **** 
 467:.\Generated_Source\PSoC4/UART_UART.c **** 
 468:.\Generated_Source\PSoC4/UART_UART.c ****     /*******************************************************************************
 469:.\Generated_Source\PSoC4/UART_UART.c ****     * Function Name: UART_UartPutCRLF
 470:.\Generated_Source\PSoC4/UART_UART.c ****     ********************************************************************************
 471:.\Generated_Source\PSoC4/UART_UART.c ****     *
 472:.\Generated_Source\PSoC4/UART_UART.c ****     * Summary:
 473:.\Generated_Source\PSoC4/UART_UART.c ****     *  Places byte of data followed by a carriage return (0x0D) and line feed (0x0A)
 474:.\Generated_Source\PSoC4/UART_UART.c ****     *  to the transmit buffer.
 475:.\Generated_Source\PSoC4/UART_UART.c ****     *  This function is blocking and waits until there is a space available to put
 476:.\Generated_Source\PSoC4/UART_UART.c ****     *  all requested data in transmit buffer.
 477:.\Generated_Source\PSoC4/UART_UART.c ****     *
 478:.\Generated_Source\PSoC4/UART_UART.c ****     * Parameters:
 479:.\Generated_Source\PSoC4/UART_UART.c ****     *  txDataByte : the data to be transmitted.
 480:.\Generated_Source\PSoC4/UART_UART.c ****     *
 481:.\Generated_Source\PSoC4/UART_UART.c ****     * Return:
 482:.\Generated_Source\PSoC4/UART_UART.c ****     *  None
 483:.\Generated_Source\PSoC4/UART_UART.c ****     *
 484:.\Generated_Source\PSoC4/UART_UART.c ****     *******************************************************************************/
 485:.\Generated_Source\PSoC4/UART_UART.c ****     void UART_UartPutCRLF(uint32 txDataByte)
 486:.\Generated_Source\PSoC4/UART_UART.c ****     {
 389              		.loc 1 486 0
 390              		.cfi_startproc
 391              	.LVL31:
 392 0000 08B5     		push	{r3, lr}
 393              	.LCFI4:
 394              		.cfi_def_cfa_offset 8
 395              		.cfi_offset 3, -8
ARM GAS  C:\Users\Steve\AppData\Local\Temp\ccyTshnh.s 			page 17


 396              		.cfi_offset 14, -4
 487:.\Generated_Source\PSoC4/UART_UART.c ****         UART_UartPutChar(txDataByte);  /* Blocks the control flow until all data will be sent */
 397              		.loc 1 487 0
 398 0002 FFF7FEFF 		bl	UART_SpiUartWriteTxData
 399              	.LVL32:
 488:.\Generated_Source\PSoC4/UART_UART.c ****         UART_UartPutChar(0x0Du);       /* Blocks the control flow until all data will be sent */
 400              		.loc 1 488 0
 401 0006 0D20     		mov	r0, #13
 402 0008 FFF7FEFF 		bl	UART_SpiUartWriteTxData
 403              	.LVL33:
 489:.\Generated_Source\PSoC4/UART_UART.c ****         UART_UartPutChar(0x0Au);       /* Blocks the control flow until all data will be sent */
 404              		.loc 1 489 0
 405 000c 0A20     		mov	r0, #10
 406 000e FFF7FEFF 		bl	UART_SpiUartWriteTxData
 407              	.LVL34:
 490:.\Generated_Source\PSoC4/UART_UART.c ****     }
 408              		.loc 1 490 0
 409              		@ sp needed for prologue
 410 0012 08BD     		pop	{r3, pc}
 411              		.cfi_endproc
 412              	.LFE6:
 413              		.size	UART_UartPutCRLF, .-UART_UartPutCRLF
 414              		.text
 415              	.Letext0:
 416              		.file 2 ".\\Generated_Source\\PSoC4\\cytypes.h"
 417              		.file 3 ".\\Generated_Source\\PSoC4\\UART_SPI_UART.h"
 418              		.file 4 ".\\Generated_Source\\PSoC4\\UART_SPI_UART_PVT.h"